; Listing generated by Microsoft (R) Optimizing Compiler Version 19.00.24245.0 

include listing.inc

INCLUDELIB MSVCRTD
INCLUDELIB OLDNAMES

PUBLIC	?AliceBlue@Colors@DirectX@@3UXMVECTORF32@2@B	; DirectX::Colors::AliceBlue
PUBLIC	?AntiqueWhite@Colors@DirectX@@3UXMVECTORF32@2@B	; DirectX::Colors::AntiqueWhite
PUBLIC	?Aqua@Colors@DirectX@@3UXMVECTORF32@2@B		; DirectX::Colors::Aqua
PUBLIC	?Aquamarine@Colors@DirectX@@3UXMVECTORF32@2@B	; DirectX::Colors::Aquamarine
PUBLIC	?Azure@Colors@DirectX@@3UXMVECTORF32@2@B	; DirectX::Colors::Azure
PUBLIC	?Beige@Colors@DirectX@@3UXMVECTORF32@2@B	; DirectX::Colors::Beige
PUBLIC	?Bisque@Colors@DirectX@@3UXMVECTORF32@2@B	; DirectX::Colors::Bisque
PUBLIC	?Black@Colors@DirectX@@3UXMVECTORF32@2@B	; DirectX::Colors::Black
PUBLIC	?BlanchedAlmond@Colors@DirectX@@3UXMVECTORF32@2@B ; DirectX::Colors::BlanchedAlmond
PUBLIC	?Blue@Colors@DirectX@@3UXMVECTORF32@2@B		; DirectX::Colors::Blue
PUBLIC	?BlueViolet@Colors@DirectX@@3UXMVECTORF32@2@B	; DirectX::Colors::BlueViolet
PUBLIC	?Brown@Colors@DirectX@@3UXMVECTORF32@2@B	; DirectX::Colors::Brown
PUBLIC	?BurlyWood@Colors@DirectX@@3UXMVECTORF32@2@B	; DirectX::Colors::BurlyWood
PUBLIC	?CadetBlue@Colors@DirectX@@3UXMVECTORF32@2@B	; DirectX::Colors::CadetBlue
PUBLIC	?Chartreuse@Colors@DirectX@@3UXMVECTORF32@2@B	; DirectX::Colors::Chartreuse
PUBLIC	?Chocolate@Colors@DirectX@@3UXMVECTORF32@2@B	; DirectX::Colors::Chocolate
PUBLIC	?Coral@Colors@DirectX@@3UXMVECTORF32@2@B	; DirectX::Colors::Coral
PUBLIC	?CornflowerBlue@Colors@DirectX@@3UXMVECTORF32@2@B ; DirectX::Colors::CornflowerBlue
PUBLIC	?Cornsilk@Colors@DirectX@@3UXMVECTORF32@2@B	; DirectX::Colors::Cornsilk
PUBLIC	?Crimson@Colors@DirectX@@3UXMVECTORF32@2@B	; DirectX::Colors::Crimson
PUBLIC	?Cyan@Colors@DirectX@@3UXMVECTORF32@2@B		; DirectX::Colors::Cyan
PUBLIC	?DarkBlue@Colors@DirectX@@3UXMVECTORF32@2@B	; DirectX::Colors::DarkBlue
PUBLIC	?DarkCyan@Colors@DirectX@@3UXMVECTORF32@2@B	; DirectX::Colors::DarkCyan
PUBLIC	?DarkGoldenrod@Colors@DirectX@@3UXMVECTORF32@2@B ; DirectX::Colors::DarkGoldenrod
PUBLIC	?DarkGray@Colors@DirectX@@3UXMVECTORF32@2@B	; DirectX::Colors::DarkGray
PUBLIC	?DarkGreen@Colors@DirectX@@3UXMVECTORF32@2@B	; DirectX::Colors::DarkGreen
PUBLIC	?DarkKhaki@Colors@DirectX@@3UXMVECTORF32@2@B	; DirectX::Colors::DarkKhaki
PUBLIC	?DarkMagenta@Colors@DirectX@@3UXMVECTORF32@2@B	; DirectX::Colors::DarkMagenta
PUBLIC	?DarkOliveGreen@Colors@DirectX@@3UXMVECTORF32@2@B ; DirectX::Colors::DarkOliveGreen
PUBLIC	?DarkOrange@Colors@DirectX@@3UXMVECTORF32@2@B	; DirectX::Colors::DarkOrange
PUBLIC	?DarkOrchid@Colors@DirectX@@3UXMVECTORF32@2@B	; DirectX::Colors::DarkOrchid
PUBLIC	?DarkRed@Colors@DirectX@@3UXMVECTORF32@2@B	; DirectX::Colors::DarkRed
PUBLIC	?DarkSalmon@Colors@DirectX@@3UXMVECTORF32@2@B	; DirectX::Colors::DarkSalmon
PUBLIC	?DarkSeaGreen@Colors@DirectX@@3UXMVECTORF32@2@B	; DirectX::Colors::DarkSeaGreen
PUBLIC	?DarkSlateBlue@Colors@DirectX@@3UXMVECTORF32@2@B ; DirectX::Colors::DarkSlateBlue
PUBLIC	?DarkSlateGray@Colors@DirectX@@3UXMVECTORF32@2@B ; DirectX::Colors::DarkSlateGray
PUBLIC	?DarkTurquoise@Colors@DirectX@@3UXMVECTORF32@2@B ; DirectX::Colors::DarkTurquoise
PUBLIC	?DarkViolet@Colors@DirectX@@3UXMVECTORF32@2@B	; DirectX::Colors::DarkViolet
PUBLIC	?DeepPink@Colors@DirectX@@3UXMVECTORF32@2@B	; DirectX::Colors::DeepPink
PUBLIC	?DeepSkyBlue@Colors@DirectX@@3UXMVECTORF32@2@B	; DirectX::Colors::DeepSkyBlue
PUBLIC	?DimGray@Colors@DirectX@@3UXMVECTORF32@2@B	; DirectX::Colors::DimGray
PUBLIC	?DodgerBlue@Colors@DirectX@@3UXMVECTORF32@2@B	; DirectX::Colors::DodgerBlue
PUBLIC	?Firebrick@Colors@DirectX@@3UXMVECTORF32@2@B	; DirectX::Colors::Firebrick
PUBLIC	?FloralWhite@Colors@DirectX@@3UXMVECTORF32@2@B	; DirectX::Colors::FloralWhite
PUBLIC	?ForestGreen@Colors@DirectX@@3UXMVECTORF32@2@B	; DirectX::Colors::ForestGreen
PUBLIC	?Fuchsia@Colors@DirectX@@3UXMVECTORF32@2@B	; DirectX::Colors::Fuchsia
PUBLIC	?Gainsboro@Colors@DirectX@@3UXMVECTORF32@2@B	; DirectX::Colors::Gainsboro
PUBLIC	?GhostWhite@Colors@DirectX@@3UXMVECTORF32@2@B	; DirectX::Colors::GhostWhite
PUBLIC	?Gold@Colors@DirectX@@3UXMVECTORF32@2@B		; DirectX::Colors::Gold
PUBLIC	?Goldenrod@Colors@DirectX@@3UXMVECTORF32@2@B	; DirectX::Colors::Goldenrod
PUBLIC	?Gray@Colors@DirectX@@3UXMVECTORF32@2@B		; DirectX::Colors::Gray
PUBLIC	?Green@Colors@DirectX@@3UXMVECTORF32@2@B	; DirectX::Colors::Green
PUBLIC	?GreenYellow@Colors@DirectX@@3UXMVECTORF32@2@B	; DirectX::Colors::GreenYellow
PUBLIC	?Honeydew@Colors@DirectX@@3UXMVECTORF32@2@B	; DirectX::Colors::Honeydew
PUBLIC	?HotPink@Colors@DirectX@@3UXMVECTORF32@2@B	; DirectX::Colors::HotPink
PUBLIC	?IndianRed@Colors@DirectX@@3UXMVECTORF32@2@B	; DirectX::Colors::IndianRed
PUBLIC	?Indigo@Colors@DirectX@@3UXMVECTORF32@2@B	; DirectX::Colors::Indigo
PUBLIC	?Ivory@Colors@DirectX@@3UXMVECTORF32@2@B	; DirectX::Colors::Ivory
PUBLIC	?Khaki@Colors@DirectX@@3UXMVECTORF32@2@B	; DirectX::Colors::Khaki
PUBLIC	?Lavender@Colors@DirectX@@3UXMVECTORF32@2@B	; DirectX::Colors::Lavender
PUBLIC	?LavenderBlush@Colors@DirectX@@3UXMVECTORF32@2@B ; DirectX::Colors::LavenderBlush
PUBLIC	?LawnGreen@Colors@DirectX@@3UXMVECTORF32@2@B	; DirectX::Colors::LawnGreen
PUBLIC	?LemonChiffon@Colors@DirectX@@3UXMVECTORF32@2@B	; DirectX::Colors::LemonChiffon
PUBLIC	?LightBlue@Colors@DirectX@@3UXMVECTORF32@2@B	; DirectX::Colors::LightBlue
PUBLIC	?LightCoral@Colors@DirectX@@3UXMVECTORF32@2@B	; DirectX::Colors::LightCoral
PUBLIC	?LightCyan@Colors@DirectX@@3UXMVECTORF32@2@B	; DirectX::Colors::LightCyan
PUBLIC	?LightGoldenrodYellow@Colors@DirectX@@3UXMVECTORF32@2@B ; DirectX::Colors::LightGoldenrodYellow
PUBLIC	?LightGreen@Colors@DirectX@@3UXMVECTORF32@2@B	; DirectX::Colors::LightGreen
PUBLIC	?LightGray@Colors@DirectX@@3UXMVECTORF32@2@B	; DirectX::Colors::LightGray
PUBLIC	?LightPink@Colors@DirectX@@3UXMVECTORF32@2@B	; DirectX::Colors::LightPink
PUBLIC	?LightSalmon@Colors@DirectX@@3UXMVECTORF32@2@B	; DirectX::Colors::LightSalmon
PUBLIC	?LightSeaGreen@Colors@DirectX@@3UXMVECTORF32@2@B ; DirectX::Colors::LightSeaGreen
PUBLIC	?LightSkyBlue@Colors@DirectX@@3UXMVECTORF32@2@B	; DirectX::Colors::LightSkyBlue
PUBLIC	?LightSlateGray@Colors@DirectX@@3UXMVECTORF32@2@B ; DirectX::Colors::LightSlateGray
PUBLIC	?LightSteelBlue@Colors@DirectX@@3UXMVECTORF32@2@B ; DirectX::Colors::LightSteelBlue
PUBLIC	?LightYellow@Colors@DirectX@@3UXMVECTORF32@2@B	; DirectX::Colors::LightYellow
PUBLIC	?Lime@Colors@DirectX@@3UXMVECTORF32@2@B		; DirectX::Colors::Lime
PUBLIC	?LimeGreen@Colors@DirectX@@3UXMVECTORF32@2@B	; DirectX::Colors::LimeGreen
PUBLIC	?Linen@Colors@DirectX@@3UXMVECTORF32@2@B	; DirectX::Colors::Linen
PUBLIC	?Magenta@Colors@DirectX@@3UXMVECTORF32@2@B	; DirectX::Colors::Magenta
PUBLIC	?Maroon@Colors@DirectX@@3UXMVECTORF32@2@B	; DirectX::Colors::Maroon
PUBLIC	?MediumAquamarine@Colors@DirectX@@3UXMVECTORF32@2@B ; DirectX::Colors::MediumAquamarine
PUBLIC	?MediumBlue@Colors@DirectX@@3UXMVECTORF32@2@B	; DirectX::Colors::MediumBlue
PUBLIC	?MediumOrchid@Colors@DirectX@@3UXMVECTORF32@2@B	; DirectX::Colors::MediumOrchid
PUBLIC	?MediumPurple@Colors@DirectX@@3UXMVECTORF32@2@B	; DirectX::Colors::MediumPurple
PUBLIC	?MediumSeaGreen@Colors@DirectX@@3UXMVECTORF32@2@B ; DirectX::Colors::MediumSeaGreen
PUBLIC	?MediumSlateBlue@Colors@DirectX@@3UXMVECTORF32@2@B ; DirectX::Colors::MediumSlateBlue
PUBLIC	?MediumSpringGreen@Colors@DirectX@@3UXMVECTORF32@2@B ; DirectX::Colors::MediumSpringGreen
PUBLIC	?MediumTurquoise@Colors@DirectX@@3UXMVECTORF32@2@B ; DirectX::Colors::MediumTurquoise
PUBLIC	?MediumVioletRed@Colors@DirectX@@3UXMVECTORF32@2@B ; DirectX::Colors::MediumVioletRed
PUBLIC	?MidnightBlue@Colors@DirectX@@3UXMVECTORF32@2@B	; DirectX::Colors::MidnightBlue
PUBLIC	?MintCream@Colors@DirectX@@3UXMVECTORF32@2@B	; DirectX::Colors::MintCream
PUBLIC	?MistyRose@Colors@DirectX@@3UXMVECTORF32@2@B	; DirectX::Colors::MistyRose
PUBLIC	?Moccasin@Colors@DirectX@@3UXMVECTORF32@2@B	; DirectX::Colors::Moccasin
PUBLIC	?NavajoWhite@Colors@DirectX@@3UXMVECTORF32@2@B	; DirectX::Colors::NavajoWhite
PUBLIC	?Navy@Colors@DirectX@@3UXMVECTORF32@2@B		; DirectX::Colors::Navy
PUBLIC	?OldLace@Colors@DirectX@@3UXMVECTORF32@2@B	; DirectX::Colors::OldLace
PUBLIC	?Olive@Colors@DirectX@@3UXMVECTORF32@2@B	; DirectX::Colors::Olive
PUBLIC	?OliveDrab@Colors@DirectX@@3UXMVECTORF32@2@B	; DirectX::Colors::OliveDrab
PUBLIC	?Orange@Colors@DirectX@@3UXMVECTORF32@2@B	; DirectX::Colors::Orange
PUBLIC	?OrangeRed@Colors@DirectX@@3UXMVECTORF32@2@B	; DirectX::Colors::OrangeRed
PUBLIC	?Orchid@Colors@DirectX@@3UXMVECTORF32@2@B	; DirectX::Colors::Orchid
PUBLIC	?PaleGoldenrod@Colors@DirectX@@3UXMVECTORF32@2@B ; DirectX::Colors::PaleGoldenrod
PUBLIC	?PaleGreen@Colors@DirectX@@3UXMVECTORF32@2@B	; DirectX::Colors::PaleGreen
PUBLIC	?PaleTurquoise@Colors@DirectX@@3UXMVECTORF32@2@B ; DirectX::Colors::PaleTurquoise
PUBLIC	?PaleVioletRed@Colors@DirectX@@3UXMVECTORF32@2@B ; DirectX::Colors::PaleVioletRed
PUBLIC	?PapayaWhip@Colors@DirectX@@3UXMVECTORF32@2@B	; DirectX::Colors::PapayaWhip
PUBLIC	?PeachPuff@Colors@DirectX@@3UXMVECTORF32@2@B	; DirectX::Colors::PeachPuff
PUBLIC	?Peru@Colors@DirectX@@3UXMVECTORF32@2@B		; DirectX::Colors::Peru
PUBLIC	?Pink@Colors@DirectX@@3UXMVECTORF32@2@B		; DirectX::Colors::Pink
PUBLIC	?Plum@Colors@DirectX@@3UXMVECTORF32@2@B		; DirectX::Colors::Plum
PUBLIC	?PowderBlue@Colors@DirectX@@3UXMVECTORF32@2@B	; DirectX::Colors::PowderBlue
PUBLIC	?Purple@Colors@DirectX@@3UXMVECTORF32@2@B	; DirectX::Colors::Purple
PUBLIC	?Red@Colors@DirectX@@3UXMVECTORF32@2@B		; DirectX::Colors::Red
PUBLIC	?RosyBrown@Colors@DirectX@@3UXMVECTORF32@2@B	; DirectX::Colors::RosyBrown
PUBLIC	?RoyalBlue@Colors@DirectX@@3UXMVECTORF32@2@B	; DirectX::Colors::RoyalBlue
PUBLIC	?SaddleBrown@Colors@DirectX@@3UXMVECTORF32@2@B	; DirectX::Colors::SaddleBrown
PUBLIC	?Salmon@Colors@DirectX@@3UXMVECTORF32@2@B	; DirectX::Colors::Salmon
PUBLIC	?SandyBrown@Colors@DirectX@@3UXMVECTORF32@2@B	; DirectX::Colors::SandyBrown
PUBLIC	?SeaGreen@Colors@DirectX@@3UXMVECTORF32@2@B	; DirectX::Colors::SeaGreen
PUBLIC	?SeaShell@Colors@DirectX@@3UXMVECTORF32@2@B	; DirectX::Colors::SeaShell
PUBLIC	?Sienna@Colors@DirectX@@3UXMVECTORF32@2@B	; DirectX::Colors::Sienna
PUBLIC	?g_BoxOffset@DirectX@@3QBUXMVECTORF32@1@B	; DirectX::g_BoxOffset
PUBLIC	?Silver@Colors@DirectX@@3UXMVECTORF32@2@B	; DirectX::Colors::Silver
PUBLIC	?g_RayEpsilon@DirectX@@3UXMVECTORF32@1@B	; DirectX::g_RayEpsilon
PUBLIC	?SkyBlue@Colors@DirectX@@3UXMVECTORF32@2@B	; DirectX::Colors::SkyBlue
PUBLIC	?g_RayNegEpsilon@DirectX@@3UXMVECTORF32@1@B	; DirectX::g_RayNegEpsilon
PUBLIC	?SlateBlue@Colors@DirectX@@3UXMVECTORF32@2@B	; DirectX::Colors::SlateBlue
PUBLIC	?g_FltMin@DirectX@@3UXMVECTORF32@1@B		; DirectX::g_FltMin
PUBLIC	?SlateGray@Colors@DirectX@@3UXMVECTORF32@2@B	; DirectX::Colors::SlateGray
PUBLIC	?g_FltMax@DirectX@@3UXMVECTORF32@1@B		; DirectX::g_FltMax
PUBLIC	?Snow@Colors@DirectX@@3UXMVECTORF32@2@B		; DirectX::Colors::Snow
PUBLIC	?SpringGreen@Colors@DirectX@@3UXMVECTORF32@2@B	; DirectX::Colors::SpringGreen
PUBLIC	?SteelBlue@Colors@DirectX@@3UXMVECTORF32@2@B	; DirectX::Colors::SteelBlue
PUBLIC	?Tan@Colors@DirectX@@3UXMVECTORF32@2@B		; DirectX::Colors::Tan
PUBLIC	?Teal@Colors@DirectX@@3UXMVECTORF32@2@B		; DirectX::Colors::Teal
PUBLIC	?Thistle@Colors@DirectX@@3UXMVECTORF32@2@B	; DirectX::Colors::Thistle
PUBLIC	?Tomato@Colors@DirectX@@3UXMVECTORF32@2@B	; DirectX::Colors::Tomato
PUBLIC	?Transparent@Colors@DirectX@@3UXMVECTORF32@2@B	; DirectX::Colors::Transparent
PUBLIC	?Turquoise@Colors@DirectX@@3UXMVECTORF32@2@B	; DirectX::Colors::Turquoise
PUBLIC	?Violet@Colors@DirectX@@3UXMVECTORF32@2@B	; DirectX::Colors::Violet
PUBLIC	?Wheat@Colors@DirectX@@3UXMVECTORF32@2@B	; DirectX::Colors::Wheat
PUBLIC	?White@Colors@DirectX@@3UXMVECTORF32@2@B	; DirectX::Colors::White
PUBLIC	?WhiteSmoke@Colors@DirectX@@3UXMVECTORF32@2@B	; DirectX::Colors::WhiteSmoke
PUBLIC	?Yellow@Colors@DirectX@@3UXMVECTORF32@2@B	; DirectX::Colors::Yellow
PUBLIC	?YellowGreen@Colors@DirectX@@3UXMVECTORF32@2@B	; DirectX::Colors::YellowGreen
PUBLIC	?g_UnitVectorEpsilon@Internal@DirectX@@3UXMVECTORF32@2@B ; DirectX::Internal::g_UnitVectorEpsilon
PUBLIC	?g_UnitQuaternionEpsilon@Internal@DirectX@@3UXMVECTORF32@2@B ; DirectX::Internal::g_UnitQuaternionEpsilon
PUBLIC	?g_UnitPlaneEpsilon@Internal@DirectX@@3UXMVECTORF32@2@B ; DirectX::Internal::g_UnitPlaneEpsilon
PUBLIC	?g_XMSinCoefficients0@DirectX@@3UXMVECTORF32@1@B ; DirectX::g_XMSinCoefficients0
PUBLIC	?g_XMSinCoefficients1@DirectX@@3UXMVECTORF32@1@B ; DirectX::g_XMSinCoefficients1
PUBLIC	?g_XMCosCoefficients0@DirectX@@3UXMVECTORF32@1@B ; DirectX::g_XMCosCoefficients0
PUBLIC	?g_XMCosCoefficients1@DirectX@@3UXMVECTORF32@1@B ; DirectX::g_XMCosCoefficients1
PUBLIC	?g_XMTanCoefficients0@DirectX@@3UXMVECTORF32@1@B ; DirectX::g_XMTanCoefficients0
PUBLIC	?g_XMTanCoefficients1@DirectX@@3UXMVECTORF32@1@B ; DirectX::g_XMTanCoefficients1
PUBLIC	?g_XMTanCoefficients2@DirectX@@3UXMVECTORF32@1@B ; DirectX::g_XMTanCoefficients2
PUBLIC	?g_XMArcCoefficients0@DirectX@@3UXMVECTORF32@1@B ; DirectX::g_XMArcCoefficients0
PUBLIC	?g_XMArcCoefficients1@DirectX@@3UXMVECTORF32@1@B ; DirectX::g_XMArcCoefficients1
PUBLIC	?g_XMATanCoefficients0@DirectX@@3UXMVECTORF32@1@B ; DirectX::g_XMATanCoefficients0
PUBLIC	?g_XMATanCoefficients1@DirectX@@3UXMVECTORF32@1@B ; DirectX::g_XMATanCoefficients1
PUBLIC	?g_XMATanEstCoefficients0@DirectX@@3UXMVECTORF32@1@B ; DirectX::g_XMATanEstCoefficients0
PUBLIC	?g_XMATanEstCoefficients1@DirectX@@3UXMVECTORF32@1@B ; DirectX::g_XMATanEstCoefficients1
PUBLIC	?g_XMTanEstCoefficients@DirectX@@3UXMVECTORF32@1@B ; DirectX::g_XMTanEstCoefficients
PUBLIC	?g_XMArcEstCoefficients@DirectX@@3UXMVECTORF32@1@B ; DirectX::g_XMArcEstCoefficients
PUBLIC	?g_XMPiConstants0@DirectX@@3UXMVECTORF32@1@B	; DirectX::g_XMPiConstants0
PUBLIC	?g_XMIdentityR0@DirectX@@3UXMVECTORF32@1@B	; DirectX::g_XMIdentityR0
PUBLIC	?g_XMIdentityR1@DirectX@@3UXMVECTORF32@1@B	; DirectX::g_XMIdentityR1
PUBLIC	?g_XMIdentityR2@DirectX@@3UXMVECTORF32@1@B	; DirectX::g_XMIdentityR2
PUBLIC	?g_XMIdentityR3@DirectX@@3UXMVECTORF32@1@B	; DirectX::g_XMIdentityR3
PUBLIC	?g_XMNegIdentityR0@DirectX@@3UXMVECTORF32@1@B	; DirectX::g_XMNegIdentityR0
PUBLIC	?g_XMNegIdentityR1@DirectX@@3UXMVECTORF32@1@B	; DirectX::g_XMNegIdentityR1
PUBLIC	?g_XMNegIdentityR2@DirectX@@3UXMVECTORF32@1@B	; DirectX::g_XMNegIdentityR2
PUBLIC	?g_XMNegIdentityR3@DirectX@@3UXMVECTORF32@1@B	; DirectX::g_XMNegIdentityR3
PUBLIC	?g_XMNegativeZero@DirectX@@3UXMVECTORU32@1@B	; DirectX::g_XMNegativeZero
PUBLIC	?g_XMNegate3@DirectX@@3UXMVECTORU32@1@B		; DirectX::g_XMNegate3
PUBLIC	?g_XMMask3@DirectX@@3UXMVECTORU32@1@B		; DirectX::g_XMMask3
PUBLIC	?g_XMMaskX@DirectX@@3UXMVECTORU32@1@B		; DirectX::g_XMMaskX
PUBLIC	?g_XMMaskY@DirectX@@3UXMVECTORU32@1@B		; DirectX::g_XMMaskY
PUBLIC	?g_XMMaskZ@DirectX@@3UXMVECTORU32@1@B		; DirectX::g_XMMaskZ
PUBLIC	?g_XMMaskW@DirectX@@3UXMVECTORU32@1@B		; DirectX::g_XMMaskW
PUBLIC	?g_XMOne@DirectX@@3UXMVECTORF32@1@B		; DirectX::g_XMOne
PUBLIC	?g_XMOne3@DirectX@@3UXMVECTORF32@1@B		; DirectX::g_XMOne3
PUBLIC	?g_XMZero@DirectX@@3UXMVECTORF32@1@B		; DirectX::g_XMZero
PUBLIC	?g_XMTwo@DirectX@@3UXMVECTORF32@1@B		; DirectX::g_XMTwo
PUBLIC	?g_XMFour@DirectX@@3UXMVECTORF32@1@B		; DirectX::g_XMFour
PUBLIC	?g_XMSix@DirectX@@3UXMVECTORF32@1@B		; DirectX::g_XMSix
PUBLIC	?g_XMNegativeOne@DirectX@@3UXMVECTORF32@1@B	; DirectX::g_XMNegativeOne
PUBLIC	?g_XMOneHalf@DirectX@@3UXMVECTORF32@1@B		; DirectX::g_XMOneHalf
PUBLIC	?g_XMNegativeOneHalf@DirectX@@3UXMVECTORF32@1@B	; DirectX::g_XMNegativeOneHalf
PUBLIC	?g_XMNegativeTwoPi@DirectX@@3UXMVECTORF32@1@B	; DirectX::g_XMNegativeTwoPi
PUBLIC	?g_XMNegativePi@DirectX@@3UXMVECTORF32@1@B	; DirectX::g_XMNegativePi
PUBLIC	?g_XMHalfPi@DirectX@@3UXMVECTORF32@1@B		; DirectX::g_XMHalfPi
PUBLIC	?g_XMPi@DirectX@@3UXMVECTORF32@1@B		; DirectX::g_XMPi
PUBLIC	?g_XMReciprocalPi@DirectX@@3UXMVECTORF32@1@B	; DirectX::g_XMReciprocalPi
PUBLIC	?g_XMTwoPi@DirectX@@3UXMVECTORF32@1@B		; DirectX::g_XMTwoPi
PUBLIC	?g_XMReciprocalTwoPi@DirectX@@3UXMVECTORF32@1@B	; DirectX::g_XMReciprocalTwoPi
PUBLIC	?g_XMEpsilon@DirectX@@3UXMVECTORF32@1@B		; DirectX::g_XMEpsilon
PUBLIC	?g_XMInfinity@DirectX@@3UXMVECTORI32@1@B	; DirectX::g_XMInfinity
PUBLIC	?g_XMQNaN@DirectX@@3UXMVECTORI32@1@B		; DirectX::g_XMQNaN
PUBLIC	?g_XMQNaNTest@DirectX@@3UXMVECTORI32@1@B	; DirectX::g_XMQNaNTest
PUBLIC	?g_XMAbsMask@DirectX@@3UXMVECTORI32@1@B		; DirectX::g_XMAbsMask
PUBLIC	?g_XMFltMin@DirectX@@3UXMVECTORI32@1@B		; DirectX::g_XMFltMin
PUBLIC	?g_XMFltMax@DirectX@@3UXMVECTORI32@1@B		; DirectX::g_XMFltMax
PUBLIC	?g_XMNegOneMask@DirectX@@3UXMVECTORU32@1@B	; DirectX::g_XMNegOneMask
PUBLIC	?g_XMMaskA8R8G8B8@DirectX@@3UXMVECTORU32@1@B	; DirectX::g_XMMaskA8R8G8B8
PUBLIC	?g_XMFlipA8R8G8B8@DirectX@@3UXMVECTORU32@1@B	; DirectX::g_XMFlipA8R8G8B8
PUBLIC	?g_XMFixAA8R8G8B8@DirectX@@3UXMVECTORF32@1@B	; DirectX::g_XMFixAA8R8G8B8
PUBLIC	?g_XMNormalizeA8R8G8B8@DirectX@@3UXMVECTORF32@1@B ; DirectX::g_XMNormalizeA8R8G8B8
PUBLIC	?g_XMMaskA2B10G10R10@DirectX@@3UXMVECTORU32@1@B	; DirectX::g_XMMaskA2B10G10R10
PUBLIC	?g_XMFlipA2B10G10R10@DirectX@@3UXMVECTORU32@1@B	; DirectX::g_XMFlipA2B10G10R10
PUBLIC	?g_XMFixAA2B10G10R10@DirectX@@3UXMVECTORF32@1@B	; DirectX::g_XMFixAA2B10G10R10
PUBLIC	?g_XMNormalizeA2B10G10R10@DirectX@@3UXMVECTORF32@1@B ; DirectX::g_XMNormalizeA2B10G10R10
PUBLIC	?g_XMMaskX16Y16@DirectX@@3UXMVECTORU32@1@B	; DirectX::g_XMMaskX16Y16
PUBLIC	?g_XMFlipX16Y16@DirectX@@3UXMVECTORI32@1@B	; DirectX::g_XMFlipX16Y16
PUBLIC	?g_XMFixX16Y16@DirectX@@3UXMVECTORF32@1@B	; DirectX::g_XMFixX16Y16
PUBLIC	?g_XMNormalizeX16Y16@DirectX@@3UXMVECTORF32@1@B	; DirectX::g_XMNormalizeX16Y16
PUBLIC	?g_XMMaskX16Y16Z16W16@DirectX@@3UXMVECTORU32@1@B ; DirectX::g_XMMaskX16Y16Z16W16
PUBLIC	?g_XMFlipX16Y16Z16W16@DirectX@@3UXMVECTORI32@1@B ; DirectX::g_XMFlipX16Y16Z16W16
PUBLIC	?g_XMFixX16Y16Z16W16@DirectX@@3UXMVECTORF32@1@B	; DirectX::g_XMFixX16Y16Z16W16
PUBLIC	?g_XMNormalizeX16Y16Z16W16@DirectX@@3UXMVECTORF32@1@B ; DirectX::g_XMNormalizeX16Y16Z16W16
PUBLIC	?g_XMNoFraction@DirectX@@3UXMVECTORF32@1@B	; DirectX::g_XMNoFraction
PUBLIC	?g_XMMaskByte@DirectX@@3UXMVECTORI32@1@B	; DirectX::g_XMMaskByte
PUBLIC	?g_XMNegateX@DirectX@@3UXMVECTORF32@1@B		; DirectX::g_XMNegateX
PUBLIC	?g_XMNegateY@DirectX@@3UXMVECTORF32@1@B		; DirectX::g_XMNegateY
PUBLIC	?g_XMNegateZ@DirectX@@3UXMVECTORF32@1@B		; DirectX::g_XMNegateZ
PUBLIC	?g_XMNegateW@DirectX@@3UXMVECTORF32@1@B		; DirectX::g_XMNegateW
PUBLIC	?g_XMSelect0101@DirectX@@3UXMVECTORU32@1@B	; DirectX::g_XMSelect0101
PUBLIC	?g_XMSelect1010@DirectX@@3UXMVECTORU32@1@B	; DirectX::g_XMSelect1010
PUBLIC	?g_XMOneHalfMinusEpsilon@DirectX@@3UXMVECTORI32@1@B ; DirectX::g_XMOneHalfMinusEpsilon
PUBLIC	?g_XMSelect1000@DirectX@@3UXMVECTORU32@1@B	; DirectX::g_XMSelect1000
PUBLIC	?g_XMSelect1100@DirectX@@3UXMVECTORU32@1@B	; DirectX::g_XMSelect1100
PUBLIC	?g_XMSelect1110@DirectX@@3UXMVECTORU32@1@B	; DirectX::g_XMSelect1110
PUBLIC	?g_XMSelect1011@DirectX@@3UXMVECTORU32@1@B	; DirectX::g_XMSelect1011
PUBLIC	?g_XMFixupY16@DirectX@@3UXMVECTORF32@1@B	; DirectX::g_XMFixupY16
PUBLIC	?g_XMFixupY16W16@DirectX@@3UXMVECTORF32@1@B	; DirectX::g_XMFixupY16W16
PUBLIC	?g_XMFlipY@DirectX@@3UXMVECTORU32@1@B		; DirectX::g_XMFlipY
PUBLIC	?g_XMFlipZ@DirectX@@3UXMVECTORU32@1@B		; DirectX::g_XMFlipZ
PUBLIC	?g_XMFlipW@DirectX@@3UXMVECTORU32@1@B		; DirectX::g_XMFlipW
PUBLIC	?g_XMFlipYZ@DirectX@@3UXMVECTORU32@1@B		; DirectX::g_XMFlipYZ
PUBLIC	?g_XMFlipZW@DirectX@@3UXMVECTORU32@1@B		; DirectX::g_XMFlipZW
PUBLIC	?g_XMFlipYW@DirectX@@3UXMVECTORU32@1@B		; DirectX::g_XMFlipYW
PUBLIC	?g_XMMaskDec4@DirectX@@3UXMVECTORI32@1@B	; DirectX::g_XMMaskDec4
PUBLIC	?g_XMXorDec4@DirectX@@3UXMVECTORI32@1@B		; DirectX::g_XMXorDec4
PUBLIC	?g_XMAddUDec4@DirectX@@3UXMVECTORF32@1@B	; DirectX::g_XMAddUDec4
PUBLIC	?g_XMAddDec4@DirectX@@3UXMVECTORF32@1@B		; DirectX::g_XMAddDec4
PUBLIC	?g_XMMulDec4@DirectX@@3UXMVECTORF32@1@B		; DirectX::g_XMMulDec4
PUBLIC	?g_XMMaskByte4@DirectX@@3UXMVECTORU32@1@B	; DirectX::g_XMMaskByte4
PUBLIC	?g_XMXorByte4@DirectX@@3UXMVECTORI32@1@B	; DirectX::g_XMXorByte4
PUBLIC	?g_XMAddByte4@DirectX@@3UXMVECTORF32@1@B	; DirectX::g_XMAddByte4
PUBLIC	?g_XMFixUnsigned@DirectX@@3UXMVECTORF32@1@B	; DirectX::g_XMFixUnsigned
PUBLIC	?g_XMMaxInt@DirectX@@3UXMVECTORF32@1@B		; DirectX::g_XMMaxInt
PUBLIC	?g_XMMaxUInt@DirectX@@3UXMVECTORF32@1@B		; DirectX::g_XMMaxUInt
PUBLIC	?g_XMUnsignedFix@DirectX@@3UXMVECTORF32@1@B	; DirectX::g_XMUnsignedFix
PUBLIC	?g_XMsrgbScale@DirectX@@3UXMVECTORF32@1@B	; DirectX::g_XMsrgbScale
PUBLIC	?g_XMsrgbA@DirectX@@3UXMVECTORF32@1@B		; DirectX::g_XMsrgbA
PUBLIC	?g_XMsrgbA1@DirectX@@3UXMVECTORF32@1@B		; DirectX::g_XMsrgbA1
PUBLIC	?g_XMExponentBias@DirectX@@3UXMVECTORI32@1@B	; DirectX::g_XMExponentBias
PUBLIC	?g_XMSubnormalExponent@DirectX@@3UXMVECTORI32@1@B ; DirectX::g_XMSubnormalExponent
PUBLIC	?g_XMNumTrailing@DirectX@@3UXMVECTORI32@1@B	; DirectX::g_XMNumTrailing
PUBLIC	?g_XMMinNormal@DirectX@@3UXMVECTORI32@1@B	; DirectX::g_XMMinNormal
PUBLIC	?g_XMNegInfinity@DirectX@@3UXMVECTORU32@1@B	; DirectX::g_XMNegInfinity
PUBLIC	?g_XMNegQNaN@DirectX@@3UXMVECTORU32@1@B		; DirectX::g_XMNegQNaN
PUBLIC	?g_XMBin128@DirectX@@3UXMVECTORI32@1@B		; DirectX::g_XMBin128
PUBLIC	?g_XMBinNeg150@DirectX@@3UXMVECTORU32@1@B	; DirectX::g_XMBinNeg150
PUBLIC	?g_XM253@DirectX@@3UXMVECTORI32@1@B		; DirectX::g_XM253
PUBLIC	?g_XMExpEst1@DirectX@@3UXMVECTORF32@1@B		; DirectX::g_XMExpEst1
PUBLIC	?g_XMExpEst2@DirectX@@3UXMVECTORF32@1@B		; DirectX::g_XMExpEst2
PUBLIC	?g_XMExpEst3@DirectX@@3UXMVECTORF32@1@B		; DirectX::g_XMExpEst3
PUBLIC	?g_XMExpEst4@DirectX@@3UXMVECTORF32@1@B		; DirectX::g_XMExpEst4
PUBLIC	?g_XMExpEst5@DirectX@@3UXMVECTORF32@1@B		; DirectX::g_XMExpEst5
PUBLIC	?g_XMExpEst6@DirectX@@3UXMVECTORF32@1@B		; DirectX::g_XMExpEst6
PUBLIC	?g_XMExpEst7@DirectX@@3UXMVECTORF32@1@B		; DirectX::g_XMExpEst7
PUBLIC	?g_XMLogEst0@DirectX@@3UXMVECTORF32@1@B		; DirectX::g_XMLogEst0
PUBLIC	?g_XMLogEst1@DirectX@@3UXMVECTORF32@1@B		; DirectX::g_XMLogEst1
PUBLIC	?g_XMLogEst2@DirectX@@3UXMVECTORF32@1@B		; DirectX::g_XMLogEst2
PUBLIC	?g_XMLogEst3@DirectX@@3UXMVECTORF32@1@B		; DirectX::g_XMLogEst3
PUBLIC	?g_XMLogEst4@DirectX@@3UXMVECTORF32@1@B		; DirectX::g_XMLogEst4
PUBLIC	?g_XMLogEst5@DirectX@@3UXMVECTORF32@1@B		; DirectX::g_XMLogEst5
PUBLIC	?g_XMLogEst6@DirectX@@3UXMVECTORF32@1@B		; DirectX::g_XMLogEst6
PUBLIC	?g_XMLogEst7@DirectX@@3UXMVECTORF32@1@B		; DirectX::g_XMLogEst7
PUBLIC	?g_XMLgE@DirectX@@3UXMVECTORF32@1@B		; DirectX::g_XMLgE
PUBLIC	?g_XMInvLgE@DirectX@@3UXMVECTORF32@1@B		; DirectX::g_XMInvLgE
;	COMDAT ?g_XMInvLgE@DirectX@@3UXMVECTORF32@1@B
CONST	SEGMENT
?g_XMInvLgE@DirectX@@3UXMVECTORF32@1@B DD 03f317218r ; 0.693147 ; DirectX::g_XMInvLgE
	DD	03f317218r			; 0.693147
	DD	03f317218r			; 0.693147
	DD	03f317218r			; 0.693147
CONST	ENDS
;	COMDAT ?g_XMLgE@DirectX@@3UXMVECTORF32@1@B
CONST	SEGMENT
?g_XMLgE@DirectX@@3UXMVECTORF32@1@B DD 03fb8aa3br ; 1.4427 ; DirectX::g_XMLgE
	DD	03fb8aa3br			; 1.4427
	DD	03fb8aa3br			; 1.4427
	DD	03fb8aa3br			; 1.4427
CONST	ENDS
;	COMDAT ?g_XMLogEst7@DirectX@@3UXMVECTORF32@1@B
CONST	SEGMENT
?g_XMLogEst7@DirectX@@3UXMVECTORF32@1@B DD 0bc2d4f59r ; -0.010578 ; DirectX::g_XMLogEst7
	DD	0bc2d4f59r			; -0.010578
	DD	0bc2d4f59r			; -0.010578
	DD	0bc2d4f59r			; -0.010578
CONST	ENDS
;	COMDAT ?g_XMLogEst6@DirectX@@3UXMVECTORF32@1@B
CONST	SEGMENT
?g_XMLogEst6@DirectX@@3UXMVECTORF32@1@B DD 03d6a1405r ; 0.057148 ; DirectX::g_XMLogEst6
	DD	03d6a1405r			; 0.057148
	DD	03d6a1405r			; 0.057148
	DD	03d6a1405r			; 0.057148
CONST	ENDS
;	COMDAT ?g_XMLogEst5@DirectX@@3UXMVECTORF32@1@B
CONST	SEGMENT
?g_XMLogEst5@DirectX@@3UXMVECTORF32@1@B DD 0be153261r ; -0.1457 ; DirectX::g_XMLogEst5
	DD	0be153261r			; -0.1457
	DD	0be153261r			; -0.1457
	DD	0be153261r			; -0.1457
CONST	ENDS
;	COMDAT ?g_XMLogEst4@DirectX@@3UXMVECTORF32@1@B
CONST	SEGMENT
?g_XMLogEst4@DirectX@@3UXMVECTORF32@1@B DD 03e7e8e61r ; 0.24859 ; DirectX::g_XMLogEst4
	DD	03e7e8e61r			; 0.24859
	DD	03e7e8e61r			; 0.24859
	DD	03e7e8e61r			; 0.24859
CONST	ENDS
;	COMDAT ?g_XMLogEst3@DirectX@@3UXMVECTORF32@1@B
CONST	SEGMENT
?g_XMLogEst3@DirectX@@3UXMVECTORF32@1@B DD 0beb359der ; -0.350295 ; DirectX::g_XMLogEst3
	DD	0beb359der			; -0.350295
	DD	0beb359der			; -0.350295
	DD	0beb359der			; -0.350295
CONST	ENDS
;	COMDAT ?g_XMLogEst2@DirectX@@3UXMVECTORF32@1@B
CONST	SEGMENT
?g_XMLogEst2@DirectX@@3UXMVECTORF32@1@B DD 03ef571d2r ; 0.479384 ; DirectX::g_XMLogEst2
	DD	03ef571d2r			; 0.479384
	DD	03ef571d2r			; 0.479384
	DD	03ef571d2r			; 0.479384
CONST	ENDS
;	COMDAT ?g_XMLogEst1@DirectX@@3UXMVECTORF32@1@B
CONST	SEGMENT
?g_XMLogEst1@DirectX@@3UXMVECTORF32@1@B DD 0bf38a351r ; -0.721242 ; DirectX::g_XMLogEst1
	DD	0bf38a351r			; -0.721242
	DD	0bf38a351r			; -0.721242
	DD	0bf38a351r			; -0.721242
CONST	ENDS
;	COMDAT ?g_XMLogEst0@DirectX@@3UXMVECTORF32@1@B
CONST	SEGMENT
?g_XMLogEst0@DirectX@@3UXMVECTORF32@1@B DD 03fb8aa2ar ; 1.44269 ; DirectX::g_XMLogEst0
	DD	03fb8aa2ar			; 1.44269
	DD	03fb8aa2ar			; 1.44269
	DD	03fb8aa2ar			; 1.44269
CONST	ENDS
;	COMDAT ?g_XMExpEst7@DirectX@@3UXMVECTORF32@1@B
CONST	SEGMENT
?g_XMExpEst7@DirectX@@3UXMVECTORF32@1@B DD 0b7364261r ; -1.08635e-05 ; DirectX::g_XMExpEst7
	DD	0b7364261r			; -1.08635e-05
	DD	0b7364261r			; -1.08635e-05
	DD	0b7364261r			; -1.08635e-05
CONST	ENDS
;	COMDAT ?g_XMExpEst6@DirectX@@3UXMVECTORF32@1@B
CONST	SEGMENT
?g_XMExpEst6@DirectX@@3UXMVECTORF32@1@B DD 0391aa7d7r ; 0.000147491 ; DirectX::g_XMExpEst6
	DD	0391aa7d7r			; 0.000147491
	DD	0391aa7d7r			; 0.000147491
	DD	0391aa7d7r			; 0.000147491
CONST	ENDS
;	COMDAT ?g_XMExpEst5@DirectX@@3UXMVECTORF32@1@B
CONST	SEGMENT
?g_XMExpEst5@DirectX@@3UXMVECTORF32@1@B DD 0baae1854r ; -0.00132824 ; DirectX::g_XMExpEst5
	DD	0baae1854r			; -0.00132824
	DD	0baae1854r			; -0.00132824
	DD	0baae1854r			; -0.00132824
CONST	ENDS
;	COMDAT ?g_XMExpEst4@DirectX@@3UXMVECTORF32@1@B
CONST	SEGMENT
?g_XMExpEst4@DirectX@@3UXMVECTORF32@1@B DD 03c1d8c54r ; 0.00961598 ; DirectX::g_XMExpEst4
	DD	03c1d8c54r			; 0.00961598
	DD	03c1d8c54r			; 0.00961598
	DD	03c1d8c54r			; 0.00961598
CONST	ENDS
;	COMDAT ?g_XMExpEst3@DirectX@@3UXMVECTORF32@1@B
CONST	SEGMENT
?g_XMExpEst3@DirectX@@3UXMVECTORF32@1@B DD 0bd6357car ; -0.0555036 ; DirectX::g_XMExpEst3
	DD	0bd6357car			; -0.0555036
	DD	0bd6357car			; -0.0555036
	DD	0bd6357car			; -0.0555036
CONST	ENDS
;	COMDAT ?g_XMExpEst2@DirectX@@3UXMVECTORF32@1@B
CONST	SEGMENT
?g_XMExpEst2@DirectX@@3UXMVECTORF32@1@B DD 03e75fdedr ; 0.240226 ; DirectX::g_XMExpEst2
	DD	03e75fdedr			; 0.240226
	DD	03e75fdedr			; 0.240226
	DD	03e75fdedr			; 0.240226
CONST	ENDS
;	COMDAT ?g_XMExpEst1@DirectX@@3UXMVECTORF32@1@B
CONST	SEGMENT
?g_XMExpEst1@DirectX@@3UXMVECTORF32@1@B DD 0bf317218r ; -0.693147 ; DirectX::g_XMExpEst1
	DD	0bf317218r			; -0.693147
	DD	0bf317218r			; -0.693147
	DD	0bf317218r			; -0.693147
CONST	ENDS
;	COMDAT ?g_XM253@DirectX@@3UXMVECTORI32@1@B
CONST	SEGMENT
?g_XM253@DirectX@@3UXMVECTORI32@1@B DD 0fdH		; DirectX::g_XM253
	DD	0fdH
	DD	0fdH
	DD	0fdH
CONST	ENDS
;	COMDAT ?g_XMBinNeg150@DirectX@@3UXMVECTORU32@1@B
CONST	SEGMENT
?g_XMBinNeg150@DirectX@@3UXMVECTORU32@1@B DD 0c3160000H	; DirectX::g_XMBinNeg150
	DD	0c3160000H
	DD	0c3160000H
	DD	0c3160000H
CONST	ENDS
;	COMDAT ?g_XMBin128@DirectX@@3UXMVECTORI32@1@B
CONST	SEGMENT
?g_XMBin128@DirectX@@3UXMVECTORI32@1@B DD 043000000H	; DirectX::g_XMBin128
	DD	043000000H
	DD	043000000H
	DD	043000000H
CONST	ENDS
;	COMDAT ?g_XMNegQNaN@DirectX@@3UXMVECTORU32@1@B
CONST	SEGMENT
?g_XMNegQNaN@DirectX@@3UXMVECTORU32@1@B DD 0ffc00000H	; DirectX::g_XMNegQNaN
	DD	0ffc00000H
	DD	0ffc00000H
	DD	0ffc00000H
CONST	ENDS
;	COMDAT ?g_XMNegInfinity@DirectX@@3UXMVECTORU32@1@B
CONST	SEGMENT
?g_XMNegInfinity@DirectX@@3UXMVECTORU32@1@B DD 0ff800000H ; DirectX::g_XMNegInfinity
	DD	0ff800000H
	DD	0ff800000H
	DD	0ff800000H
CONST	ENDS
;	COMDAT ?g_XMMinNormal@DirectX@@3UXMVECTORI32@1@B
CONST	SEGMENT
?g_XMMinNormal@DirectX@@3UXMVECTORI32@1@B DD 0800000H	; DirectX::g_XMMinNormal
	DD	0800000H
	DD	0800000H
	DD	0800000H
CONST	ENDS
;	COMDAT ?g_XMNumTrailing@DirectX@@3UXMVECTORI32@1@B
CONST	SEGMENT
?g_XMNumTrailing@DirectX@@3UXMVECTORI32@1@B DD 017H	; DirectX::g_XMNumTrailing
	DD	017H
	DD	017H
	DD	017H
CONST	ENDS
;	COMDAT ?g_XMSubnormalExponent@DirectX@@3UXMVECTORI32@1@B
CONST	SEGMENT
?g_XMSubnormalExponent@DirectX@@3UXMVECTORI32@1@B DD 0ffffff82H ; DirectX::g_XMSubnormalExponent
	DD	0ffffff82H
	DD	0ffffff82H
	DD	0ffffff82H
CONST	ENDS
;	COMDAT ?g_XMExponentBias@DirectX@@3UXMVECTORI32@1@B
CONST	SEGMENT
?g_XMExponentBias@DirectX@@3UXMVECTORI32@1@B DD 07fH	; DirectX::g_XMExponentBias
	DD	07fH
	DD	07fH
	DD	07fH
CONST	ENDS
;	COMDAT ?g_XMsrgbA1@DirectX@@3UXMVECTORF32@1@B
CONST	SEGMENT
?g_XMsrgbA1@DirectX@@3UXMVECTORF32@1@B DD 03f870a3dr ; 1.055 ; DirectX::g_XMsrgbA1
	DD	03f870a3dr			; 1.055
	DD	03f870a3dr			; 1.055
	DD	03f800000r			; 1
CONST	ENDS
;	COMDAT ?g_XMsrgbA@DirectX@@3UXMVECTORF32@1@B
CONST	SEGMENT
?g_XMsrgbA@DirectX@@3UXMVECTORF32@1@B DD 03d6147aer ; 0.055 ; DirectX::g_XMsrgbA
	DD	03d6147aer			; 0.055
	DD	03d6147aer			; 0.055
	DD	000000000r			; 0
CONST	ENDS
;	COMDAT ?g_XMsrgbScale@DirectX@@3UXMVECTORF32@1@B
CONST	SEGMENT
?g_XMsrgbScale@DirectX@@3UXMVECTORF32@1@B DD 0414eb852r ; 12.92 ; DirectX::g_XMsrgbScale
	DD	0414eb852r			; 12.92
	DD	0414eb852r			; 12.92
	DD	03f800000r			; 1
CONST	ENDS
;	COMDAT ?g_XMUnsignedFix@DirectX@@3UXMVECTORF32@1@B
CONST	SEGMENT
?g_XMUnsignedFix@DirectX@@3UXMVECTORF32@1@B DD 04f000000r ; 2.14748e+09 ; DirectX::g_XMUnsignedFix
	DD	04f000000r			; 2.14748e+09
	DD	04f000000r			; 2.14748e+09
	DD	04f000000r			; 2.14748e+09
CONST	ENDS
;	COMDAT ?g_XMMaxUInt@DirectX@@3UXMVECTORF32@1@B
CONST	SEGMENT
?g_XMMaxUInt@DirectX@@3UXMVECTORF32@1@B DD 04f7fffffr ; 4.29497e+09 ; DirectX::g_XMMaxUInt
	DD	04f7fffffr			; 4.29497e+09
	DD	04f7fffffr			; 4.29497e+09
	DD	04f7fffffr			; 4.29497e+09
CONST	ENDS
;	COMDAT ?g_XMMaxInt@DirectX@@3UXMVECTORF32@1@B
CONST	SEGMENT
?g_XMMaxInt@DirectX@@3UXMVECTORF32@1@B DD 04effffffr ; 2.14748e+09 ; DirectX::g_XMMaxInt
	DD	04effffffr			; 2.14748e+09
	DD	04effffffr			; 2.14748e+09
	DD	04effffffr			; 2.14748e+09
CONST	ENDS
;	COMDAT ?g_XMFixUnsigned@DirectX@@3UXMVECTORF32@1@B
CONST	SEGMENT
?g_XMFixUnsigned@DirectX@@3UXMVECTORF32@1@B DD 04f000000r ; 2.14748e+09 ; DirectX::g_XMFixUnsigned
	DD	04f000000r			; 2.14748e+09
	DD	04f000000r			; 2.14748e+09
	DD	04f000000r			; 2.14748e+09
CONST	ENDS
;	COMDAT ?g_XMAddByte4@DirectX@@3UXMVECTORF32@1@B
CONST	SEGMENT
?g_XMAddByte4@DirectX@@3UXMVECTORF32@1@B DD 0c3000000r ; -128 ; DirectX::g_XMAddByte4
	DD	0c7000000r			; -32768
	DD	0cb000000r			; -8.38861e+06
	DD	000000000r			; 0
CONST	ENDS
;	COMDAT ?g_XMXorByte4@DirectX@@3UXMVECTORI32@1@B
CONST	SEGMENT
?g_XMXorByte4@DirectX@@3UXMVECTORI32@1@B DD 080H	; DirectX::g_XMXorByte4
	DD	08000H
	DD	0800000H
	DD	00H
CONST	ENDS
;	COMDAT ?g_XMMaskByte4@DirectX@@3UXMVECTORU32@1@B
CONST	SEGMENT
?g_XMMaskByte4@DirectX@@3UXMVECTORU32@1@B DD 0ffH	; DirectX::g_XMMaskByte4
	DD	0ff00H
	DD	0ff0000H
	DD	0ff000000H
CONST	ENDS
;	COMDAT ?g_XMMulDec4@DirectX@@3UXMVECTORF32@1@B
CONST	SEGMENT
?g_XMMulDec4@DirectX@@3UXMVECTORF32@1@B DD 03f800000r ; 1 ; DirectX::g_XMMulDec4
	DD	03a800000r			; 0.000976563
	DD	035800000r			; 9.53674e-07
	DD	030800000r			; 9.31323e-10
CONST	ENDS
;	COMDAT ?g_XMAddDec4@DirectX@@3UXMVECTORF32@1@B
CONST	SEGMENT
?g_XMAddDec4@DirectX@@3UXMVECTORF32@1@B DD 0c4000000r ; -512 ; DirectX::g_XMAddDec4
	DD	0c9000000r			; -524288
	DD	0ce000000r			; -5.36871e+08
	DD	000000000r			; 0
CONST	ENDS
;	COMDAT ?g_XMAddUDec4@DirectX@@3UXMVECTORF32@1@B
CONST	SEGMENT
?g_XMAddUDec4@DirectX@@3UXMVECTORF32@1@B DD 000000000r ; 0 ; DirectX::g_XMAddUDec4
	DD	000000000r			; 0
	DD	000000000r			; 0
	DD	04f000000r			; 2.14748e+09
CONST	ENDS
;	COMDAT ?g_XMXorDec4@DirectX@@3UXMVECTORI32@1@B
CONST	SEGMENT
?g_XMXorDec4@DirectX@@3UXMVECTORI32@1@B DD 0200H	; DirectX::g_XMXorDec4
	DD	080000H
	DD	020000000H
	DD	00H
CONST	ENDS
;	COMDAT ?g_XMMaskDec4@DirectX@@3UXMVECTORI32@1@B
CONST	SEGMENT
?g_XMMaskDec4@DirectX@@3UXMVECTORI32@1@B DD 03ffH	; DirectX::g_XMMaskDec4
	DD	0ffc00H
	DD	03ff00000H
	DD	0c0000000H
CONST	ENDS
;	COMDAT ?g_XMFlipYW@DirectX@@3UXMVECTORU32@1@B
CONST	SEGMENT
?g_XMFlipYW@DirectX@@3UXMVECTORU32@1@B DD 00H		; DirectX::g_XMFlipYW
	DD	080000000H
	DD	00H
	DD	080000000H
CONST	ENDS
;	COMDAT ?g_XMFlipZW@DirectX@@3UXMVECTORU32@1@B
CONST	SEGMENT
?g_XMFlipZW@DirectX@@3UXMVECTORU32@1@B DD 00H		; DirectX::g_XMFlipZW
	DD	00H
	DD	080000000H
	DD	080000000H
CONST	ENDS
;	COMDAT ?g_XMFlipYZ@DirectX@@3UXMVECTORU32@1@B
CONST	SEGMENT
?g_XMFlipYZ@DirectX@@3UXMVECTORU32@1@B DD 00H		; DirectX::g_XMFlipYZ
	DD	080000000H
	DD	080000000H
	DD	00H
CONST	ENDS
;	COMDAT ?g_XMFlipW@DirectX@@3UXMVECTORU32@1@B
CONST	SEGMENT
?g_XMFlipW@DirectX@@3UXMVECTORU32@1@B DD 00H		; DirectX::g_XMFlipW
	DD	00H
	DD	00H
	DD	080000000H
CONST	ENDS
;	COMDAT ?g_XMFlipZ@DirectX@@3UXMVECTORU32@1@B
CONST	SEGMENT
?g_XMFlipZ@DirectX@@3UXMVECTORU32@1@B DD 00H		; DirectX::g_XMFlipZ
	DD	00H
	DD	080000000H
	DD	00H
CONST	ENDS
;	COMDAT ?g_XMFlipY@DirectX@@3UXMVECTORU32@1@B
CONST	SEGMENT
?g_XMFlipY@DirectX@@3UXMVECTORU32@1@B DD 00H		; DirectX::g_XMFlipY
	DD	080000000H
	DD	00H
	DD	00H
CONST	ENDS
;	COMDAT ?g_XMFixupY16W16@DirectX@@3UXMVECTORF32@1@B
CONST	SEGMENT
?g_XMFixupY16W16@DirectX@@3UXMVECTORF32@1@B DD 03f800000r ; 1 ; DirectX::g_XMFixupY16W16
	DD	03f800000r			; 1
	DD	037800000r			; 1.52588e-05
	DD	037800000r			; 1.52588e-05
CONST	ENDS
;	COMDAT ?g_XMFixupY16@DirectX@@3UXMVECTORF32@1@B
CONST	SEGMENT
?g_XMFixupY16@DirectX@@3UXMVECTORF32@1@B DD 03f800000r ; 1 ; DirectX::g_XMFixupY16
	DD	037800000r			; 1.52588e-05
	DD	000000000r			; 0
	DD	000000000r			; 0
CONST	ENDS
;	COMDAT ?g_XMSelect1011@DirectX@@3UXMVECTORU32@1@B
CONST	SEGMENT
?g_XMSelect1011@DirectX@@3UXMVECTORU32@1@B DD 0ffffffffH ; DirectX::g_XMSelect1011
	DD	00H
	DD	0ffffffffH
	DD	0ffffffffH
CONST	ENDS
;	COMDAT ?g_XMSelect1110@DirectX@@3UXMVECTORU32@1@B
CONST	SEGMENT
?g_XMSelect1110@DirectX@@3UXMVECTORU32@1@B DD 0ffffffffH ; DirectX::g_XMSelect1110
	DD	0ffffffffH
	DD	0ffffffffH
	DD	00H
CONST	ENDS
;	COMDAT ?g_XMSelect1100@DirectX@@3UXMVECTORU32@1@B
CONST	SEGMENT
?g_XMSelect1100@DirectX@@3UXMVECTORU32@1@B DD 0ffffffffH ; DirectX::g_XMSelect1100
	DD	0ffffffffH
	DD	00H
	DD	00H
CONST	ENDS
;	COMDAT ?g_XMSelect1000@DirectX@@3UXMVECTORU32@1@B
CONST	SEGMENT
?g_XMSelect1000@DirectX@@3UXMVECTORU32@1@B DD 0ffffffffH ; DirectX::g_XMSelect1000
	DD	00H
	DD	00H
	DD	00H
CONST	ENDS
;	COMDAT ?g_XMOneHalfMinusEpsilon@DirectX@@3UXMVECTORI32@1@B
CONST	SEGMENT
?g_XMOneHalfMinusEpsilon@DirectX@@3UXMVECTORI32@1@B DD 03efffffdH ; DirectX::g_XMOneHalfMinusEpsilon
	DD	03efffffdH
	DD	03efffffdH
	DD	03efffffdH
CONST	ENDS
;	COMDAT ?g_XMSelect1010@DirectX@@3UXMVECTORU32@1@B
CONST	SEGMENT
?g_XMSelect1010@DirectX@@3UXMVECTORU32@1@B DD 0ffffffffH ; DirectX::g_XMSelect1010
	DD	00H
	DD	0ffffffffH
	DD	00H
CONST	ENDS
;	COMDAT ?g_XMSelect0101@DirectX@@3UXMVECTORU32@1@B
CONST	SEGMENT
?g_XMSelect0101@DirectX@@3UXMVECTORU32@1@B DD 00H	; DirectX::g_XMSelect0101
	DD	0ffffffffH
	DD	00H
	DD	0ffffffffH
CONST	ENDS
;	COMDAT ?g_XMNegateW@DirectX@@3UXMVECTORF32@1@B
CONST	SEGMENT
?g_XMNegateW@DirectX@@3UXMVECTORF32@1@B DD 03f800000r ; 1 ; DirectX::g_XMNegateW
	DD	03f800000r			; 1
	DD	03f800000r			; 1
	DD	0bf800000r			; -1
CONST	ENDS
;	COMDAT ?g_XMNegateZ@DirectX@@3UXMVECTORF32@1@B
CONST	SEGMENT
?g_XMNegateZ@DirectX@@3UXMVECTORF32@1@B DD 03f800000r ; 1 ; DirectX::g_XMNegateZ
	DD	03f800000r			; 1
	DD	0bf800000r			; -1
	DD	03f800000r			; 1
CONST	ENDS
;	COMDAT ?g_XMNegateY@DirectX@@3UXMVECTORF32@1@B
CONST	SEGMENT
?g_XMNegateY@DirectX@@3UXMVECTORF32@1@B DD 03f800000r ; 1 ; DirectX::g_XMNegateY
	DD	0bf800000r			; -1
	DD	03f800000r			; 1
	DD	03f800000r			; 1
CONST	ENDS
;	COMDAT ?g_XMNegateX@DirectX@@3UXMVECTORF32@1@B
CONST	SEGMENT
?g_XMNegateX@DirectX@@3UXMVECTORF32@1@B DD 0bf800000r ; -1 ; DirectX::g_XMNegateX
	DD	03f800000r			; 1
	DD	03f800000r			; 1
	DD	03f800000r			; 1
CONST	ENDS
;	COMDAT ?g_XMMaskByte@DirectX@@3UXMVECTORI32@1@B
CONST	SEGMENT
?g_XMMaskByte@DirectX@@3UXMVECTORI32@1@B DD 0ffH	; DirectX::g_XMMaskByte
	DD	0ffH
	DD	0ffH
	DD	0ffH
CONST	ENDS
;	COMDAT ?g_XMNoFraction@DirectX@@3UXMVECTORF32@1@B
CONST	SEGMENT
?g_XMNoFraction@DirectX@@3UXMVECTORF32@1@B DD 04b000000r ; 8.38861e+06 ; DirectX::g_XMNoFraction
	DD	04b000000r			; 8.38861e+06
	DD	04b000000r			; 8.38861e+06
	DD	04b000000r			; 8.38861e+06
CONST	ENDS
;	COMDAT ?g_XMNormalizeX16Y16Z16W16@DirectX@@3UXMVECTORF32@1@B
CONST	SEGMENT
?g_XMNormalizeX16Y16Z16W16@DirectX@@3UXMVECTORF32@1@B DD 038000100r ; 3.05185e-05 ; DirectX::g_XMNormalizeX16Y16Z16W16
	DD	038000100r			; 3.05185e-05
	DD	030000100r			; 4.65675e-10
	DD	030000100r			; 4.65675e-10
CONST	ENDS
;	COMDAT ?g_XMFixX16Y16Z16W16@DirectX@@3UXMVECTORF32@1@B
CONST	SEGMENT
?g_XMFixX16Y16Z16W16@DirectX@@3UXMVECTORF32@1@B DD 0c7000000r ; -32768 ; DirectX::g_XMFixX16Y16Z16W16
	DD	0c7000000r			; -32768
	DD	000000000r			; 0
	DD	000000000r			; 0
CONST	ENDS
;	COMDAT ?g_XMFlipX16Y16Z16W16@DirectX@@3UXMVECTORI32@1@B
CONST	SEGMENT
?g_XMFlipX16Y16Z16W16@DirectX@@3UXMVECTORI32@1@B DD 08000H ; DirectX::g_XMFlipX16Y16Z16W16
	DD	08000H
	DD	00H
	DD	00H
CONST	ENDS
;	COMDAT ?g_XMMaskX16Y16Z16W16@DirectX@@3UXMVECTORU32@1@B
CONST	SEGMENT
?g_XMMaskX16Y16Z16W16@DirectX@@3UXMVECTORU32@1@B DD 0ffffH ; DirectX::g_XMMaskX16Y16Z16W16
	DD	0ffffH
	DD	0ffff0000H
	DD	0ffff0000H
CONST	ENDS
;	COMDAT ?g_XMNormalizeX16Y16@DirectX@@3UXMVECTORF32@1@B
CONST	SEGMENT
?g_XMNormalizeX16Y16@DirectX@@3UXMVECTORF32@1@B DD 038000100r ; 3.05185e-05 ; DirectX::g_XMNormalizeX16Y16
	DD	030000100r			; 4.65675e-10
	DD	000000000r			; 0
	DD	000000000r			; 0
CONST	ENDS
;	COMDAT ?g_XMFixX16Y16@DirectX@@3UXMVECTORF32@1@B
CONST	SEGMENT
?g_XMFixX16Y16@DirectX@@3UXMVECTORF32@1@B DD 0c7000000r ; -32768 ; DirectX::g_XMFixX16Y16
	DD	000000000r			; 0
	DD	000000000r			; 0
	DD	000000000r			; 0
CONST	ENDS
;	COMDAT ?g_XMFlipX16Y16@DirectX@@3UXMVECTORI32@1@B
CONST	SEGMENT
?g_XMFlipX16Y16@DirectX@@3UXMVECTORI32@1@B DD 08000H	; DirectX::g_XMFlipX16Y16
	DD	00H
	DD	00H
	DD	00H
CONST	ENDS
;	COMDAT ?g_XMMaskX16Y16@DirectX@@3UXMVECTORU32@1@B
CONST	SEGMENT
?g_XMMaskX16Y16@DirectX@@3UXMVECTORU32@1@B DD 0ffffH	; DirectX::g_XMMaskX16Y16
	DD	0ffff0000H
	DD	00H
	DD	00H
CONST	ENDS
;	COMDAT ?g_XMNormalizeA2B10G10R10@DirectX@@3UXMVECTORF32@1@B
CONST	SEGMENT
?g_XMNormalizeA2B10G10R10@DirectX@@3UXMVECTORF32@1@B DD 03b004020r ; 0.00195695 ; DirectX::g_XMNormalizeA2B10G10R10
	DD	036004020r			; 1.91108e-06
	DD	031004020r			; 1.86629e-09
	DD	02faaaaabr			; 3.10441e-10
CONST	ENDS
;	COMDAT ?g_XMFixAA2B10G10R10@DirectX@@3UXMVECTORF32@1@B
CONST	SEGMENT
?g_XMFixAA2B10G10R10@DirectX@@3UXMVECTORF32@1@B DD 0c4000000r ; -512 ; DirectX::g_XMFixAA2B10G10R10
	DD	0c9000000r			; -524288
	DD	0ce000000r			; -5.36871e+08
	DD	04f000000r			; 2.14748e+09
CONST	ENDS
;	COMDAT ?g_XMFlipA2B10G10R10@DirectX@@3UXMVECTORU32@1@B
CONST	SEGMENT
?g_XMFlipA2B10G10R10@DirectX@@3UXMVECTORU32@1@B DD 0200H ; DirectX::g_XMFlipA2B10G10R10
	DD	080000H
	DD	020000000H
	DD	080000000H
CONST	ENDS
;	COMDAT ?g_XMMaskA2B10G10R10@DirectX@@3UXMVECTORU32@1@B
CONST	SEGMENT
?g_XMMaskA2B10G10R10@DirectX@@3UXMVECTORU32@1@B DD 03ffH ; DirectX::g_XMMaskA2B10G10R10
	DD	0ffc00H
	DD	03ff00000H
	DD	0c0000000H
CONST	ENDS
;	COMDAT ?g_XMNormalizeA8R8G8B8@DirectX@@3UXMVECTORF32@1@B
CONST	SEGMENT
?g_XMNormalizeA8R8G8B8@DirectX@@3UXMVECTORF32@1@B DD 033808081r ; 5.98384e-08 ; DirectX::g_XMNormalizeA8R8G8B8
	DD	037808081r			; 1.53186e-05
	DD	03b808081r			; 0.00392157
	DD	02f808081r			; 2.33744e-10
CONST	ENDS
;	COMDAT ?g_XMFixAA8R8G8B8@DirectX@@3UXMVECTORF32@1@B
CONST	SEGMENT
?g_XMFixAA8R8G8B8@DirectX@@3UXMVECTORF32@1@B DD 000000000r ; 0 ; DirectX::g_XMFixAA8R8G8B8
	DD	000000000r			; 0
	DD	000000000r			; 0
	DD	04f000000r			; 2.14748e+09
CONST	ENDS
;	COMDAT ?g_XMFlipA8R8G8B8@DirectX@@3UXMVECTORU32@1@B
CONST	SEGMENT
?g_XMFlipA8R8G8B8@DirectX@@3UXMVECTORU32@1@B DD 00H	; DirectX::g_XMFlipA8R8G8B8
	DD	00H
	DD	00H
	DD	080000000H
CONST	ENDS
;	COMDAT ?g_XMMaskA8R8G8B8@DirectX@@3UXMVECTORU32@1@B
CONST	SEGMENT
?g_XMMaskA8R8G8B8@DirectX@@3UXMVECTORU32@1@B DD 0ff0000H ; DirectX::g_XMMaskA8R8G8B8
	DD	0ff00H
	DD	0ffH
	DD	0ff000000H
CONST	ENDS
;	COMDAT ?g_XMNegOneMask@DirectX@@3UXMVECTORU32@1@B
CONST	SEGMENT
?g_XMNegOneMask@DirectX@@3UXMVECTORU32@1@B DD 0ffffffffH ; DirectX::g_XMNegOneMask
	DD	0ffffffffH
	DD	0ffffffffH
	DD	0ffffffffH
CONST	ENDS
;	COMDAT ?g_XMFltMax@DirectX@@3UXMVECTORI32@1@B
CONST	SEGMENT
?g_XMFltMax@DirectX@@3UXMVECTORI32@1@B DD 07f7fffffH	; DirectX::g_XMFltMax
	DD	07f7fffffH
	DD	07f7fffffH
	DD	07f7fffffH
CONST	ENDS
;	COMDAT ?g_XMFltMin@DirectX@@3UXMVECTORI32@1@B
CONST	SEGMENT
?g_XMFltMin@DirectX@@3UXMVECTORI32@1@B DD 0800000H	; DirectX::g_XMFltMin
	DD	0800000H
	DD	0800000H
	DD	0800000H
CONST	ENDS
;	COMDAT ?g_XMAbsMask@DirectX@@3UXMVECTORI32@1@B
CONST	SEGMENT
?g_XMAbsMask@DirectX@@3UXMVECTORI32@1@B DD 07fffffffH	; DirectX::g_XMAbsMask
	DD	07fffffffH
	DD	07fffffffH
	DD	07fffffffH
CONST	ENDS
;	COMDAT ?g_XMQNaNTest@DirectX@@3UXMVECTORI32@1@B
CONST	SEGMENT
?g_XMQNaNTest@DirectX@@3UXMVECTORI32@1@B DD 07fffffH	; DirectX::g_XMQNaNTest
	DD	07fffffH
	DD	07fffffH
	DD	07fffffH
CONST	ENDS
;	COMDAT ?g_XMQNaN@DirectX@@3UXMVECTORI32@1@B
CONST	SEGMENT
?g_XMQNaN@DirectX@@3UXMVECTORI32@1@B DD 07fc00000H	; DirectX::g_XMQNaN
	DD	07fc00000H
	DD	07fc00000H
	DD	07fc00000H
CONST	ENDS
;	COMDAT ?g_XMInfinity@DirectX@@3UXMVECTORI32@1@B
CONST	SEGMENT
?g_XMInfinity@DirectX@@3UXMVECTORI32@1@B DD 07f800000H	; DirectX::g_XMInfinity
	DD	07f800000H
	DD	07f800000H
	DD	07f800000H
CONST	ENDS
;	COMDAT ?g_XMEpsilon@DirectX@@3UXMVECTORF32@1@B
CONST	SEGMENT
?g_XMEpsilon@DirectX@@3UXMVECTORF32@1@B DD 034000000r ; 1.19209e-07 ; DirectX::g_XMEpsilon
	DD	034000000r			; 1.19209e-07
	DD	034000000r			; 1.19209e-07
	DD	034000000r			; 1.19209e-07
CONST	ENDS
;	COMDAT ?g_XMReciprocalTwoPi@DirectX@@3UXMVECTORF32@1@B
CONST	SEGMENT
?g_XMReciprocalTwoPi@DirectX@@3UXMVECTORF32@1@B DD 03e22f983r ; 0.159155 ; DirectX::g_XMReciprocalTwoPi
	DD	03e22f983r			; 0.159155
	DD	03e22f983r			; 0.159155
	DD	03e22f983r			; 0.159155
CONST	ENDS
;	COMDAT ?g_XMTwoPi@DirectX@@3UXMVECTORF32@1@B
CONST	SEGMENT
?g_XMTwoPi@DirectX@@3UXMVECTORF32@1@B DD 040c90fdbr ; 6.28319 ; DirectX::g_XMTwoPi
	DD	040c90fdbr			; 6.28319
	DD	040c90fdbr			; 6.28319
	DD	040c90fdbr			; 6.28319
CONST	ENDS
;	COMDAT ?g_XMReciprocalPi@DirectX@@3UXMVECTORF32@1@B
CONST	SEGMENT
?g_XMReciprocalPi@DirectX@@3UXMVECTORF32@1@B DD 03ea2f983r ; 0.31831 ; DirectX::g_XMReciprocalPi
	DD	03ea2f983r			; 0.31831
	DD	03ea2f983r			; 0.31831
	DD	03ea2f983r			; 0.31831
CONST	ENDS
;	COMDAT ?g_XMPi@DirectX@@3UXMVECTORF32@1@B
CONST	SEGMENT
?g_XMPi@DirectX@@3UXMVECTORF32@1@B DD 040490fdbr ; 3.14159 ; DirectX::g_XMPi
	DD	040490fdbr			; 3.14159
	DD	040490fdbr			; 3.14159
	DD	040490fdbr			; 3.14159
CONST	ENDS
;	COMDAT ?g_XMHalfPi@DirectX@@3UXMVECTORF32@1@B
CONST	SEGMENT
?g_XMHalfPi@DirectX@@3UXMVECTORF32@1@B DD 03fc90fdbr ; 1.5708 ; DirectX::g_XMHalfPi
	DD	03fc90fdbr			; 1.5708
	DD	03fc90fdbr			; 1.5708
	DD	03fc90fdbr			; 1.5708
CONST	ENDS
;	COMDAT ?g_XMNegativePi@DirectX@@3UXMVECTORF32@1@B
CONST	SEGMENT
?g_XMNegativePi@DirectX@@3UXMVECTORF32@1@B DD 0c0490fdbr ; -3.14159 ; DirectX::g_XMNegativePi
	DD	0c0490fdbr			; -3.14159
	DD	0c0490fdbr			; -3.14159
	DD	0c0490fdbr			; -3.14159
CONST	ENDS
;	COMDAT ?g_XMNegativeTwoPi@DirectX@@3UXMVECTORF32@1@B
CONST	SEGMENT
?g_XMNegativeTwoPi@DirectX@@3UXMVECTORF32@1@B DD 0c0c90fdbr ; -6.28319 ; DirectX::g_XMNegativeTwoPi
	DD	0c0c90fdbr			; -6.28319
	DD	0c0c90fdbr			; -6.28319
	DD	0c0c90fdbr			; -6.28319
CONST	ENDS
;	COMDAT ?g_XMNegativeOneHalf@DirectX@@3UXMVECTORF32@1@B
CONST	SEGMENT
?g_XMNegativeOneHalf@DirectX@@3UXMVECTORF32@1@B DD 0bf000000r ; -0.5 ; DirectX::g_XMNegativeOneHalf
	DD	0bf000000r			; -0.5
	DD	0bf000000r			; -0.5
	DD	0bf000000r			; -0.5
CONST	ENDS
;	COMDAT ?g_XMOneHalf@DirectX@@3UXMVECTORF32@1@B
CONST	SEGMENT
?g_XMOneHalf@DirectX@@3UXMVECTORF32@1@B DD 03f000000r ; 0.5 ; DirectX::g_XMOneHalf
	DD	03f000000r			; 0.5
	DD	03f000000r			; 0.5
	DD	03f000000r			; 0.5
CONST	ENDS
;	COMDAT ?g_XMNegativeOne@DirectX@@3UXMVECTORF32@1@B
CONST	SEGMENT
?g_XMNegativeOne@DirectX@@3UXMVECTORF32@1@B DD 0bf800000r ; -1 ; DirectX::g_XMNegativeOne
	DD	0bf800000r			; -1
	DD	0bf800000r			; -1
	DD	0bf800000r			; -1
CONST	ENDS
;	COMDAT ?g_XMSix@DirectX@@3UXMVECTORF32@1@B
CONST	SEGMENT
?g_XMSix@DirectX@@3UXMVECTORF32@1@B DD 040c00000r ; 6	; DirectX::g_XMSix
	DD	040c00000r			; 6
	DD	040c00000r			; 6
	DD	040c00000r			; 6
CONST	ENDS
;	COMDAT ?g_XMFour@DirectX@@3UXMVECTORF32@1@B
CONST	SEGMENT
?g_XMFour@DirectX@@3UXMVECTORF32@1@B DD 040800000r ; 4	; DirectX::g_XMFour
	DD	040800000r			; 4
	DD	040800000r			; 4
	DD	040800000r			; 4
CONST	ENDS
;	COMDAT ?g_XMTwo@DirectX@@3UXMVECTORF32@1@B
CONST	SEGMENT
?g_XMTwo@DirectX@@3UXMVECTORF32@1@B DD 040000000r ; 2	; DirectX::g_XMTwo
	DD	040000000r			; 2
	DD	040000000r			; 2
	DD	040000000r			; 2
CONST	ENDS
;	COMDAT ?g_XMZero@DirectX@@3UXMVECTORF32@1@B
CONST	SEGMENT
?g_XMZero@DirectX@@3UXMVECTORF32@1@B DD 000000000r ; 0	; DirectX::g_XMZero
	DD	000000000r			; 0
	DD	000000000r			; 0
	DD	000000000r			; 0
CONST	ENDS
;	COMDAT ?g_XMOne3@DirectX@@3UXMVECTORF32@1@B
CONST	SEGMENT
?g_XMOne3@DirectX@@3UXMVECTORF32@1@B DD 03f800000r ; 1	; DirectX::g_XMOne3
	DD	03f800000r			; 1
	DD	03f800000r			; 1
	DD	000000000r			; 0
CONST	ENDS
;	COMDAT ?g_XMOne@DirectX@@3UXMVECTORF32@1@B
CONST	SEGMENT
?g_XMOne@DirectX@@3UXMVECTORF32@1@B DD 03f800000r ; 1	; DirectX::g_XMOne
	DD	03f800000r			; 1
	DD	03f800000r			; 1
	DD	03f800000r			; 1
CONST	ENDS
;	COMDAT ?g_XMMaskW@DirectX@@3UXMVECTORU32@1@B
CONST	SEGMENT
?g_XMMaskW@DirectX@@3UXMVECTORU32@1@B DD 00H		; DirectX::g_XMMaskW
	DD	00H
	DD	00H
	DD	0ffffffffH
CONST	ENDS
;	COMDAT ?g_XMMaskZ@DirectX@@3UXMVECTORU32@1@B
CONST	SEGMENT
?g_XMMaskZ@DirectX@@3UXMVECTORU32@1@B DD 00H		; DirectX::g_XMMaskZ
	DD	00H
	DD	0ffffffffH
	DD	00H
CONST	ENDS
;	COMDAT ?g_XMMaskY@DirectX@@3UXMVECTORU32@1@B
CONST	SEGMENT
?g_XMMaskY@DirectX@@3UXMVECTORU32@1@B DD 00H		; DirectX::g_XMMaskY
	DD	0ffffffffH
	DD	00H
	DD	00H
CONST	ENDS
;	COMDAT ?g_XMMaskX@DirectX@@3UXMVECTORU32@1@B
CONST	SEGMENT
?g_XMMaskX@DirectX@@3UXMVECTORU32@1@B DD 0ffffffffH	; DirectX::g_XMMaskX
	DD	00H
	DD	00H
	DD	00H
CONST	ENDS
;	COMDAT ?g_XMMask3@DirectX@@3UXMVECTORU32@1@B
CONST	SEGMENT
?g_XMMask3@DirectX@@3UXMVECTORU32@1@B DD 0ffffffffH	; DirectX::g_XMMask3
	DD	0ffffffffH
	DD	0ffffffffH
	DD	00H
CONST	ENDS
;	COMDAT ?g_XMNegate3@DirectX@@3UXMVECTORU32@1@B
CONST	SEGMENT
?g_XMNegate3@DirectX@@3UXMVECTORU32@1@B DD 080000000H	; DirectX::g_XMNegate3
	DD	080000000H
	DD	080000000H
	DD	00H
CONST	ENDS
;	COMDAT ?g_XMNegativeZero@DirectX@@3UXMVECTORU32@1@B
CONST	SEGMENT
?g_XMNegativeZero@DirectX@@3UXMVECTORU32@1@B DD 080000000H ; DirectX::g_XMNegativeZero
	DD	080000000H
	DD	080000000H
	DD	080000000H
CONST	ENDS
;	COMDAT ?g_XMNegIdentityR3@DirectX@@3UXMVECTORF32@1@B
CONST	SEGMENT
?g_XMNegIdentityR3@DirectX@@3UXMVECTORF32@1@B DD 000000000r ; 0 ; DirectX::g_XMNegIdentityR3
	DD	000000000r			; 0
	DD	000000000r			; 0
	DD	0bf800000r			; -1
CONST	ENDS
;	COMDAT ?g_XMNegIdentityR2@DirectX@@3UXMVECTORF32@1@B
CONST	SEGMENT
?g_XMNegIdentityR2@DirectX@@3UXMVECTORF32@1@B DD 000000000r ; 0 ; DirectX::g_XMNegIdentityR2
	DD	000000000r			; 0
	DD	0bf800000r			; -1
	DD	000000000r			; 0
CONST	ENDS
;	COMDAT ?g_XMNegIdentityR1@DirectX@@3UXMVECTORF32@1@B
CONST	SEGMENT
?g_XMNegIdentityR1@DirectX@@3UXMVECTORF32@1@B DD 000000000r ; 0 ; DirectX::g_XMNegIdentityR1
	DD	0bf800000r			; -1
	DD	000000000r			; 0
	DD	000000000r			; 0
CONST	ENDS
;	COMDAT ?g_XMNegIdentityR0@DirectX@@3UXMVECTORF32@1@B
CONST	SEGMENT
?g_XMNegIdentityR0@DirectX@@3UXMVECTORF32@1@B DD 0bf800000r ; -1 ; DirectX::g_XMNegIdentityR0
	DD	000000000r			; 0
	DD	000000000r			; 0
	DD	000000000r			; 0
CONST	ENDS
;	COMDAT ?g_XMIdentityR3@DirectX@@3UXMVECTORF32@1@B
CONST	SEGMENT
?g_XMIdentityR3@DirectX@@3UXMVECTORF32@1@B DD 000000000r ; 0 ; DirectX::g_XMIdentityR3
	DD	000000000r			; 0
	DD	000000000r			; 0
	DD	03f800000r			; 1
CONST	ENDS
;	COMDAT ?g_XMIdentityR2@DirectX@@3UXMVECTORF32@1@B
CONST	SEGMENT
?g_XMIdentityR2@DirectX@@3UXMVECTORF32@1@B DD 000000000r ; 0 ; DirectX::g_XMIdentityR2
	DD	000000000r			; 0
	DD	03f800000r			; 1
	DD	000000000r			; 0
CONST	ENDS
;	COMDAT ?g_XMIdentityR1@DirectX@@3UXMVECTORF32@1@B
CONST	SEGMENT
?g_XMIdentityR1@DirectX@@3UXMVECTORF32@1@B DD 000000000r ; 0 ; DirectX::g_XMIdentityR1
	DD	03f800000r			; 1
	DD	000000000r			; 0
	DD	000000000r			; 0
CONST	ENDS
;	COMDAT ?g_XMIdentityR0@DirectX@@3UXMVECTORF32@1@B
CONST	SEGMENT
?g_XMIdentityR0@DirectX@@3UXMVECTORF32@1@B DD 03f800000r ; 1 ; DirectX::g_XMIdentityR0
	DD	000000000r			; 0
	DD	000000000r			; 0
	DD	000000000r			; 0
CONST	ENDS
;	COMDAT ?g_XMPiConstants0@DirectX@@3UXMVECTORF32@1@B
CONST	SEGMENT
?g_XMPiConstants0@DirectX@@3UXMVECTORF32@1@B DD 040490fdbr ; 3.14159 ; DirectX::g_XMPiConstants0
	DD	040c90fdbr			; 6.28319
	DD	03ea2f983r			; 0.31831
	DD	03e22f983r			; 0.159155
CONST	ENDS
;	COMDAT ?g_XMArcEstCoefficients@DirectX@@3UXMVECTORF32@1@B
CONST	SEGMENT
?g_XMArcEstCoefficients@DirectX@@3UXMVECTORF32@1@B DD 03fc90da4r ; 1.57073 ; DirectX::g_XMArcEstCoefficients
	DD	0be593484r			; -0.212114
	DD	03d981627r			; 0.074261
	DD	0bc996e30r			; -0.0187293
CONST	ENDS
;	COMDAT ?g_XMTanEstCoefficients@DirectX@@3UXMVECTORF32@1@B
CONST	SEGMENT
?g_XMTanEstCoefficients@DirectX@@3UXMVECTORF32@1@B DD 0401ef9dbr ; 2.484 ; DirectX::g_XMTanEstCoefficients
	DD	0be482f23r			; -0.195492
	DD	0401de9e6r			; 2.4674
	DD	03ea2f983r			; 0.31831
CONST	ENDS
;	COMDAT ?g_XMATanEstCoefficients1@DirectX@@3UXMVECTORF32@1@B
CONST	SEGMENT
?g_XMATanEstCoefficients1@DirectX@@3UXMVECTORF32@1@B DD 0bea91d04r ; -0.330299 ; DirectX::g_XMATanEstCoefficients1
	DD	03e3876e2r			; 0.180141
	DD	0bdae5a36r			; -0.085133
	DD	03caaae5fr			; 0.0208351
CONST	ENDS
;	COMDAT ?g_XMATanEstCoefficients0@DirectX@@3UXMVECTORF32@1@B
CONST	SEGMENT
?g_XMATanEstCoefficients0@DirectX@@3UXMVECTORF32@1@B DD 03f7ff738r ; 0.999866 ; DirectX::g_XMATanEstCoefficients0
	DD	03f7ff738r			; 0.999866
	DD	03f7ff738r			; 0.999866
	DD	03f7ff738r			; 0.999866
CONST	ENDS
;	COMDAT ?g_XMATanCoefficients1@DirectX@@3UXMVECTORF32@1@B
CONST	SEGMENT
?g_XMATanCoefficients1@DirectX@@3UXMVECTORF32@1@B DD 0bd9a3174r ; -0.0752896 ; DirectX::g_XMATanCoefficients1
	DD	03d2fc1fer			; 0.0429096
	DD	0bc846e02r			; -0.0161657
	DD	03b3bd74ar			; 0.00286623
CONST	ENDS
;	COMDAT ?g_XMATanCoefficients0@DirectX@@3UXMVECTORF32@1@B
CONST	SEGMENT
?g_XMATanCoefficients0@DirectX@@3UXMVECTORF32@1@B DD 0beaaaa6cr ; -0.333331 ; DirectX::g_XMATanCoefficients0
	DD	03e4cbbe5r			; 0.199936
	DD	0be117fc7r			; -0.142089
	DD	03dda3d83r			; 0.106563
CONST	ENDS
;	COMDAT ?g_XMArcCoefficients1@DirectX@@3UXMVECTORF32@1@B
CONST	SEGMENT
?g_XMArcCoefficients1@DirectX@@3UXMVECTORF32@1@B DD 03cfd10f8r ; 0.0308919 ; DirectX::g_XMArcCoefficients1
	DD	0bc8bfc66r			; -0.0170881
	DD	03bda90c5r			; 0.00667009
	DD	0baa57a2cr			; -0.00126249
CONST	ENDS
;	COMDAT ?g_XMArcCoefficients0@DirectX@@3UXMVECTORF32@1@B
CONST	SEGMENT
?g_XMArcCoefficients0@DirectX@@3UXMVECTORF32@1@B DD 03fc90fdar ; 1.5708 ; DirectX::g_XMArcCoefficients0
	DD	0be5bbfcar			; -0.214599
	DD	03db63a9er			; 0.088979
	DD	0bd4d8392r			; -0.0501743
CONST	ENDS
;	COMDAT ?g_XMTanCoefficients2@DirectX@@3UXMVECTORF32@1@B
CONST	SEGMENT
?g_XMTanCoefficients2@DirectX@@3UXMVECTORF32@1@B DD 03a1aac12r ; 0.000590027 ; DirectX::g_XMTanCoefficients2
	DD	0397abeb9r			; 0.000239129
	DD	038cb3f0cr			; 9.69154e-05
	DD	03824bec9r			; 3.92783e-05
CONST	ENDS
;	COMDAT ?g_XMTanCoefficients1@DirectX@@3UXMVECTORF32@1@B
CONST	SEGMENT
?g_XMTanCoefficients1@DirectX@@3UXMVECTORF32@1@B DD 03cb327a4r ; 0.0218695 ; DirectX::g_XMTanCoefficients1
	DD	03c11371br			; 0.00886324
	DD	03b6b69e9r			; 0.00359213
	DD	03abed1b3r			; 0.00145583
CONST	ENDS
;	COMDAT ?g_XMTanCoefficients0@DirectX@@3UXMVECTORF32@1@B
CONST	SEGMENT
?g_XMTanCoefficients0@DirectX@@3UXMVECTORF32@1@B DD 03f800000r ; 1 ; DirectX::g_XMTanCoefficients0
	DD	03eaaaaabr			; 0.333333
	DD	03e088889r			; 0.133333
	DD	03d5d0dd1r			; 0.0539683
CONST	ENDS
;	COMDAT ?g_XMCosCoefficients1@DirectX@@3UXMVECTORF32@1@B
CONST	SEGMENT
?g_XMCosCoefficients1@DirectX@@3UXMVECTORF32@1@B DD 0b48bdd11r ; -2.60516e-07 ; DirectX::g_XMCosCoefficients1
	DD	0befff67er			; -0.499927
	DD	03d29f587r			; 0.0414939
	DD	0baa69fdbr			; -0.00127124
CONST	ENDS
;	COMDAT ?g_XMCosCoefficients0@DirectX@@3UXMVECTORF32@1@B
CONST	SEGMENT
?g_XMCosCoefficients0@DirectX@@3UXMVECTORF32@1@B DD 0bf000000r ; -0.5 ; DirectX::g_XMCosCoefficients0
	DD	03d2aaaa3r			; 0.0416666
	DD	0bab609aar			; -0.00138884
	DD	037cfb4c2r			; 2.47605e-05
CONST	ENDS
;	COMDAT ?g_XMSinCoefficients1@DirectX@@3UXMVECTORF32@1@B
CONST	SEGMENT
?g_XMSinCoefficients1@DirectX@@3UXMVECTORF32@1@B DD 0b2cd365br ; -2.38899e-08 ; DirectX::g_XMSinCoefficients1
	DD	0be2aa888r			; -0.166659
	DD	03c08373cr			; 0.00831395
	DD	0b9423ec8r			; -0.000185247
CONST	ENDS
;	COMDAT ?g_XMSinCoefficients0@DirectX@@3UXMVECTORF32@1@B
CONST	SEGMENT
?g_XMSinCoefficients0@DirectX@@3UXMVECTORF32@1@B DD 0be2aaaabr ; -0.166667 ; DirectX::g_XMSinCoefficients0
	DD	03c088886r			; 0.00833333
	DD	0b9500bf1r			; -0.000198409
	DD	03638b88er			; 2.75256e-06
CONST	ENDS
;	COMDAT ?g_UnitPlaneEpsilon@Internal@DirectX@@3UXMVECTORF32@2@B
CONST	SEGMENT
?g_UnitPlaneEpsilon@Internal@DirectX@@3UXMVECTORF32@2@B DD 038d1b717r ; 0.0001 ; DirectX::Internal::g_UnitPlaneEpsilon
	DD	038d1b717r			; 0.0001
	DD	038d1b717r			; 0.0001
	DD	038d1b717r			; 0.0001
CONST	ENDS
;	COMDAT ?g_UnitQuaternionEpsilon@Internal@DirectX@@3UXMVECTORF32@2@B
CONST	SEGMENT
?g_UnitQuaternionEpsilon@Internal@DirectX@@3UXMVECTORF32@2@B DD 038d1b717r ; 0.0001 ; DirectX::Internal::g_UnitQuaternionEpsilon
	DD	038d1b717r			; 0.0001
	DD	038d1b717r			; 0.0001
	DD	038d1b717r			; 0.0001
CONST	ENDS
;	COMDAT ?g_UnitVectorEpsilon@Internal@DirectX@@3UXMVECTORF32@2@B
CONST	SEGMENT
?g_UnitVectorEpsilon@Internal@DirectX@@3UXMVECTORF32@2@B DD 038d1b717r ; 0.0001 ; DirectX::Internal::g_UnitVectorEpsilon
	DD	038d1b717r			; 0.0001
	DD	038d1b717r			; 0.0001
	DD	038d1b717r			; 0.0001
CONST	ENDS
;	COMDAT ?YellowGreen@Colors@DirectX@@3UXMVECTORF32@2@B
CONST	SEGMENT
?YellowGreen@Colors@DirectX@@3UXMVECTORF32@2@B DD 03f1a9a9br ; 0.603922 ; DirectX::Colors::YellowGreen
	DD	03f4dcdcfr			; 0.803922
	DD	03e48c8car			; 0.196078
	DD	03f800000r			; 1
CONST	ENDS
;	COMDAT ?Yellow@Colors@DirectX@@3UXMVECTORF32@2@B
CONST	SEGMENT
?Yellow@Colors@DirectX@@3UXMVECTORF32@2@B DD 03f800000r ; 1 ; DirectX::Colors::Yellow
	DD	03f800000r			; 1
	DD	000000000r			; 0
	DD	03f800000r			; 1
CONST	ENDS
;	COMDAT ?WhiteSmoke@Colors@DirectX@@3UXMVECTORF32@2@B
CONST	SEGMENT
?WhiteSmoke@Colors@DirectX@@3UXMVECTORF32@2@B DD 03f75f5f7r ; 0.960784 ; DirectX::Colors::WhiteSmoke
	DD	03f75f5f7r			; 0.960784
	DD	03f75f5f7r			; 0.960784
	DD	03f800000r			; 1
CONST	ENDS
;	COMDAT ?White@Colors@DirectX@@3UXMVECTORF32@2@B
CONST	SEGMENT
?White@Colors@DirectX@@3UXMVECTORF32@2@B DD 03f800000r ; 1 ; DirectX::Colors::White
	DD	03f800000r			; 1
	DD	03f800000r			; 1
	DD	03f800000r			; 1
CONST	ENDS
;	COMDAT ?Wheat@Colors@DirectX@@3UXMVECTORF32@2@B
CONST	SEGMENT
?Wheat@Colors@DirectX@@3UXMVECTORF32@2@B DD 03f75f5f7r ; 0.960784 ; DirectX::Colors::Wheat
	DD	03f5edee0r			; 0.870588
	DD	03f33b3b4r			; 0.701961
	DD	03f800000r			; 1
CONST	ENDS
;	COMDAT ?Violet@Colors@DirectX@@3UXMVECTORF32@2@B
CONST	SEGMENT
?Violet@Colors@DirectX@@3UXMVECTORF32@2@B DD 03f6eeef0r ; 0.933333 ; DirectX::Colors::Violet
	DD	03f028283r			; 0.509804
	DD	03f6eeef0r			; 0.933333
	DD	03f800000r			; 1
CONST	ENDS
;	COMDAT ?Turquoise@Colors@DirectX@@3UXMVECTORF32@2@B
CONST	SEGMENT
?Turquoise@Colors@DirectX@@3UXMVECTORF32@2@B DD 03e808081r ; 0.25098 ; DirectX::Colors::Turquoise
	DD	03f60e0e2r			; 0.878431
	DD	03f50d0d2r			; 0.815686
	DD	03f800000r			; 1
CONST	ENDS
;	COMDAT ?Transparent@Colors@DirectX@@3UXMVECTORF32@2@B
CONST	SEGMENT
?Transparent@Colors@DirectX@@3UXMVECTORF32@2@B DD 000000000r ; 0 ; DirectX::Colors::Transparent
	DD	000000000r			; 0
	DD	000000000r			; 0
	DD	000000000r			; 0
CONST	ENDS
;	COMDAT ?Tomato@Colors@DirectX@@3UXMVECTORF32@2@B
CONST	SEGMENT
?Tomato@Colors@DirectX@@3UXMVECTORF32@2@B DD 03f800000r ; 1 ; DirectX::Colors::Tomato
	DD	03ec6c6c8r			; 0.388235
	DD	03e8e8e8fr			; 0.278431
	DD	03f800000r			; 1
CONST	ENDS
;	COMDAT ?Thistle@Colors@DirectX@@3UXMVECTORF32@2@B
CONST	SEGMENT
?Thistle@Colors@DirectX@@3UXMVECTORF32@2@B DD 03f58d8dar ; 0.847059 ; DirectX::Colors::Thistle
	DD	03f3fbfc0r			; 0.74902
	DD	03f58d8dar			; 0.847059
	DD	03f800000r			; 1
CONST	ENDS
;	COMDAT ?Teal@Colors@DirectX@@3UXMVECTORF32@2@B
CONST	SEGMENT
?Teal@Colors@DirectX@@3UXMVECTORF32@2@B DD 000000000r ; 0 ; DirectX::Colors::Teal
	DD	03f008081r			; 0.501961
	DD	03f008081r			; 0.501961
	DD	03f800000r			; 1
CONST	ENDS
;	COMDAT ?Tan@Colors@DirectX@@3UXMVECTORF32@2@B
CONST	SEGMENT
?Tan@Colors@DirectX@@3UXMVECTORF32@2@B DD 03f52d2d4r ; 0.823529 ; DirectX::Colors::Tan
	DD	03f34b4b5r			; 0.705882
	DD	03f0c8c8dr			; 0.54902
	DD	03f800000r			; 1
CONST	ENDS
;	COMDAT ?SteelBlue@Colors@DirectX@@3UXMVECTORF32@2@B
CONST	SEGMENT
?SteelBlue@Colors@DirectX@@3UXMVECTORF32@2@B DD 03e8c8c8dr ; 0.27451 ; DirectX::Colors::SteelBlue
	DD	03f028283r			; 0.509804
	DD	03f34b4b5r			; 0.705882
	DD	03f800000r			; 1
CONST	ENDS
;	COMDAT ?SpringGreen@Colors@DirectX@@3UXMVECTORF32@2@B
CONST	SEGMENT
?SpringGreen@Colors@DirectX@@3UXMVECTORF32@2@B DD 000000000r ; 0 ; DirectX::Colors::SpringGreen
	DD	03f800000r			; 1
	DD	03efeff00r			; 0.498039
	DD	03f800000r			; 1
CONST	ENDS
;	COMDAT ?Snow@Colors@DirectX@@3UXMVECTORF32@2@B
CONST	SEGMENT
?Snow@Colors@DirectX@@3UXMVECTORF32@2@B DD 03f800000r ; 1 ; DirectX::Colors::Snow
	DD	03f7afafcr			; 0.980392
	DD	03f7afafcr			; 0.980392
	DD	03f800000r			; 1
CONST	ENDS
;	COMDAT ?g_FltMax@DirectX@@3UXMVECTORF32@1@B
CONST	SEGMENT
?g_FltMax@DirectX@@3UXMVECTORF32@1@B DD 07f7fffffr ; 3.40282e+38 ; DirectX::g_FltMax
	DD	07f7fffffr			; 3.40282e+38
	DD	07f7fffffr			; 3.40282e+38
	DD	07f7fffffr			; 3.40282e+38
CONST	ENDS
;	COMDAT ?SlateGray@Colors@DirectX@@3UXMVECTORF32@2@B
CONST	SEGMENT
?SlateGray@Colors@DirectX@@3UXMVECTORF32@2@B DD 03ee0e0e2r ; 0.439216 ; DirectX::Colors::SlateGray
	DD	03f008081r			; 0.501961
	DD	03f109091r			; 0.564706
	DD	03f800000r			; 1
CONST	ENDS
;	COMDAT ?g_FltMin@DirectX@@3UXMVECTORF32@1@B
CONST	SEGMENT
?g_FltMin@DirectX@@3UXMVECTORF32@1@B DD 0ff7fffffr ; -3.40282e+38 ; DirectX::g_FltMin
	DD	0ff7fffffr			; -3.40282e+38
	DD	0ff7fffffr			; -3.40282e+38
	DD	0ff7fffffr			; -3.40282e+38
CONST	ENDS
;	COMDAT ?SlateBlue@Colors@DirectX@@3UXMVECTORF32@2@B
CONST	SEGMENT
?SlateBlue@Colors@DirectX@@3UXMVECTORF32@2@B DD 03ed4d4d6r ; 0.415686 ; DirectX::Colors::SlateBlue
	DD	03eb4b4b5r			; 0.352941
	DD	03f4dcdcfr			; 0.803922
	DD	03f800000r			; 1
CONST	ENDS
;	COMDAT ?g_RayNegEpsilon@DirectX@@3UXMVECTORF32@1@B
CONST	SEGMENT
?g_RayNegEpsilon@DirectX@@3UXMVECTORF32@1@B DD 09e3ce508r ; -1e-20 ; DirectX::g_RayNegEpsilon
	DD	09e3ce508r			; -1e-20
	DD	09e3ce508r			; -1e-20
	DD	09e3ce508r			; -1e-20
CONST	ENDS
;	COMDAT ?SkyBlue@Colors@DirectX@@3UXMVECTORF32@2@B
CONST	SEGMENT
?SkyBlue@Colors@DirectX@@3UXMVECTORF32@2@B DD 03f078788r ; 0.529412 ; DirectX::Colors::SkyBlue
	DD	03f4eced0r			; 0.807843
	DD	03f6bebedr			; 0.921569
	DD	03f800000r			; 1
CONST	ENDS
;	COMDAT ?g_RayEpsilon@DirectX@@3UXMVECTORF32@1@B
CONST	SEGMENT
?g_RayEpsilon@DirectX@@3UXMVECTORF32@1@B DD 01e3ce508r ; 1e-20 ; DirectX::g_RayEpsilon
	DD	01e3ce508r			; 1e-20
	DD	01e3ce508r			; 1e-20
	DD	01e3ce508r			; 1e-20
CONST	ENDS
;	COMDAT ?Silver@Colors@DirectX@@3UXMVECTORF32@2@B
CONST	SEGMENT
?Silver@Colors@DirectX@@3UXMVECTORF32@2@B DD 03f40c0c2r ; 0.752941 ; DirectX::Colors::Silver
	DD	03f40c0c2r			; 0.752941
	DD	03f40c0c2r			; 0.752941
	DD	03f800000r			; 1
CONST	ENDS
;	COMDAT ?g_BoxOffset@DirectX@@3QBUXMVECTORF32@1@B
CONST	SEGMENT
?g_BoxOffset@DirectX@@3QBUXMVECTORF32@1@B DD 0bf800000r ; -1 ; DirectX::g_BoxOffset
	DD	0bf800000r			; -1
	DD	03f800000r			; 1
	DD	000000000r			; 0
	DD	03f800000r			; 1
	DD	0bf800000r			; -1
	DD	03f800000r			; 1
	DD	000000000r			; 0
	DD	03f800000r			; 1
	DD	03f800000r			; 1
	DD	03f800000r			; 1
	DD	000000000r			; 0
	DD	0bf800000r			; -1
	DD	03f800000r			; 1
	DD	03f800000r			; 1
	DD	000000000r			; 0
	DD	0bf800000r			; -1
	DD	0bf800000r			; -1
	DD	0bf800000r			; -1
	DD	000000000r			; 0
	DD	03f800000r			; 1
	DD	0bf800000r			; -1
	DD	0bf800000r			; -1
	DD	000000000r			; 0
	DD	03f800000r			; 1
	DD	03f800000r			; 1
	DD	0bf800000r			; -1
	DD	000000000r			; 0
	DD	0bf800000r			; -1
	DD	03f800000r			; 1
	DD	0bf800000r			; -1
	DD	000000000r			; 0
CONST	ENDS
;	COMDAT ?Sienna@Colors@DirectX@@3UXMVECTORF32@2@B
CONST	SEGMENT
?Sienna@Colors@DirectX@@3UXMVECTORF32@2@B DD 03f20a0a1r ; 0.627451 ; DirectX::Colors::Sienna
	DD	03ea4a4a5r			; 0.321569
	DD	03e34b4b5r			; 0.176471
	DD	03f800000r			; 1
CONST	ENDS
;	COMDAT ?SeaShell@Colors@DirectX@@3UXMVECTORF32@2@B
CONST	SEGMENT
?SeaShell@Colors@DirectX@@3UXMVECTORF32@2@B DD 03f800000r ; 1 ; DirectX::Colors::SeaShell
	DD	03f75f5f7r			; 0.960784
	DD	03f6eeef0r			; 0.933333
	DD	03f800000r			; 1
CONST	ENDS
;	COMDAT ?SeaGreen@Colors@DirectX@@3UXMVECTORF32@2@B
CONST	SEGMENT
?SeaGreen@Colors@DirectX@@3UXMVECTORF32@2@B DD 03e38b8b9r ; 0.180392 ; DirectX::Colors::SeaGreen
	DD	03f0b8b8cr			; 0.545098
	DD	03eaeaeafr			; 0.341176
	DD	03f800000r			; 1
CONST	ENDS
;	COMDAT ?SandyBrown@Colors@DirectX@@3UXMVECTORF32@2@B
CONST	SEGMENT
?SandyBrown@Colors@DirectX@@3UXMVECTORF32@2@B DD 03f74f4f6r ; 0.956863 ; DirectX::Colors::SandyBrown
	DD	03f24a4a5r			; 0.643137
	DD	03ec0c0c2r			; 0.376471
	DD	03f800000r			; 1
CONST	ENDS
;	COMDAT ?Salmon@Colors@DirectX@@3UXMVECTORF32@2@B
CONST	SEGMENT
?Salmon@Colors@DirectX@@3UXMVECTORF32@2@B DD 03f7afafcr ; 0.980392 ; DirectX::Colors::Salmon
	DD	03f008081r			; 0.501961
	DD	03ee4e4e6r			; 0.447059
	DD	03f800000r			; 1
CONST	ENDS
;	COMDAT ?SaddleBrown@Colors@DirectX@@3UXMVECTORF32@2@B
CONST	SEGMENT
?SaddleBrown@Colors@DirectX@@3UXMVECTORF32@2@B DD 03f0b8b8cr ; 0.545098 ; DirectX::Colors::SaddleBrown
	DD	03e8a8a8br			; 0.270588
	DD	03d989899r			; 0.0745098
	DD	03f800000r			; 1
CONST	ENDS
;	COMDAT ?RoyalBlue@Colors@DirectX@@3UXMVECTORF32@2@B
CONST	SEGMENT
?RoyalBlue@Colors@DirectX@@3UXMVECTORF32@2@B DD 03e828283r ; 0.254902 ; DirectX::Colors::RoyalBlue
	DD	03ed2d2d4r			; 0.411765
	DD	03f61e1e3r			; 0.882353
	DD	03f800000r			; 1
CONST	ENDS
;	COMDAT ?RosyBrown@Colors@DirectX@@3UXMVECTORF32@2@B
CONST	SEGMENT
?RosyBrown@Colors@DirectX@@3UXMVECTORF32@2@B DD 03f3cbcbdr ; 0.737255 ; DirectX::Colors::RosyBrown
	DD	03f0f8f90r			; 0.560784
	DD	03f0f8f90r			; 0.560784
	DD	03f800000r			; 1
CONST	ENDS
;	COMDAT ?Red@Colors@DirectX@@3UXMVECTORF32@2@B
CONST	SEGMENT
?Red@Colors@DirectX@@3UXMVECTORF32@2@B DD 03f800000r ; 1 ; DirectX::Colors::Red
	DD	000000000r			; 0
	DD	000000000r			; 0
	DD	03f800000r			; 1
CONST	ENDS
;	COMDAT ?Purple@Colors@DirectX@@3UXMVECTORF32@2@B
CONST	SEGMENT
?Purple@Colors@DirectX@@3UXMVECTORF32@2@B DD 03f008081r ; 0.501961 ; DirectX::Colors::Purple
	DD	000000000r			; 0
	DD	03f008081r			; 0.501961
	DD	03f800000r			; 1
CONST	ENDS
;	COMDAT ?PowderBlue@Colors@DirectX@@3UXMVECTORF32@2@B
CONST	SEGMENT
?PowderBlue@Colors@DirectX@@3UXMVECTORF32@2@B DD 03f30b0b1r ; 0.690196 ; DirectX::Colors::PowderBlue
	DD	03f60e0e2r			; 0.878431
	DD	03f66e6e8r			; 0.901961
	DD	03f800000r			; 1
CONST	ENDS
;	COMDAT ?Plum@Colors@DirectX@@3UXMVECTORF32@2@B
CONST	SEGMENT
?Plum@Colors@DirectX@@3UXMVECTORF32@2@B DD 03f5ddddfr ; 0.866667 ; DirectX::Colors::Plum
	DD	03f20a0a1r			; 0.627451
	DD	03f5ddddfr			; 0.866667
	DD	03f800000r			; 1
CONST	ENDS
;	COMDAT ?Pink@Colors@DirectX@@3UXMVECTORF32@2@B
CONST	SEGMENT
?Pink@Colors@DirectX@@3UXMVECTORF32@2@B DD 03f800000r ; 1 ; DirectX::Colors::Pink
	DD	03f40c0c2r			; 0.752941
	DD	03f4bcbcdr			; 0.796079
	DD	03f800000r			; 1
CONST	ENDS
;	COMDAT ?Peru@Colors@DirectX@@3UXMVECTORF32@2@B
CONST	SEGMENT
?Peru@Colors@DirectX@@3UXMVECTORF32@2@B DD 03f4dcdcfr ; 0.803922 ; DirectX::Colors::Peru
	DD	03f058586r			; 0.521569
	DD	03e7cfcfer			; 0.247059
	DD	03f800000r			; 1
CONST	ENDS
;	COMDAT ?PeachPuff@Colors@DirectX@@3UXMVECTORF32@2@B
CONST	SEGMENT
?PeachPuff@Colors@DirectX@@3UXMVECTORF32@2@B DD 03f800000r ; 1 ; DirectX::Colors::PeachPuff
	DD	03f5adadcr			; 0.854902
	DD	03f39b9bar			; 0.72549
	DD	03f800000r			; 1
CONST	ENDS
;	COMDAT ?PapayaWhip@Colors@DirectX@@3UXMVECTORF32@2@B
CONST	SEGMENT
?PapayaWhip@Colors@DirectX@@3UXMVECTORF32@2@B DD 03f800000r ; 1 ; DirectX::Colors::PapayaWhip
	DD	03f6feff1r			; 0.937255
	DD	03f55d5d7r			; 0.835294
	DD	03f800000r			; 1
CONST	ENDS
;	COMDAT ?PaleVioletRed@Colors@DirectX@@3UXMVECTORF32@2@B
CONST	SEGMENT
?PaleVioletRed@Colors@DirectX@@3UXMVECTORF32@2@B DD 03f5bdbddr ; 0.858824 ; DirectX::Colors::PaleVioletRed
	DD	03ee0e0e2r			; 0.439216
	DD	03f139394r			; 0.576471
	DD	03f800000r			; 1
CONST	ENDS
;	COMDAT ?PaleTurquoise@Colors@DirectX@@3UXMVECTORF32@2@B
CONST	SEGMENT
?PaleTurquoise@Colors@DirectX@@3UXMVECTORF32@2@B DD 03f2fafb0r ; 0.686275 ; DirectX::Colors::PaleTurquoise
	DD	03f6eeef0r			; 0.933333
	DD	03f6eeef0r			; 0.933333
	DD	03f800000r			; 1
CONST	ENDS
;	COMDAT ?PaleGreen@Colors@DirectX@@3UXMVECTORF32@2@B
CONST	SEGMENT
?PaleGreen@Colors@DirectX@@3UXMVECTORF32@2@B DD 03f189899r ; 0.596078 ; DirectX::Colors::PaleGreen
	DD	03f7bfbfdr			; 0.984314
	DD	03f189899r			; 0.596078
	DD	03f800000r			; 1
CONST	ENDS
;	COMDAT ?PaleGoldenrod@Colors@DirectX@@3UXMVECTORF32@2@B
CONST	SEGMENT
?PaleGoldenrod@Colors@DirectX@@3UXMVECTORF32@2@B DD 03f6eeef0r ; 0.933333 ; DirectX::Colors::PaleGoldenrod
	DD	03f68e8ear			; 0.909804
	DD	03f2aaaabr			; 0.666667
	DD	03f800000r			; 1
CONST	ENDS
;	COMDAT ?Orchid@Colors@DirectX@@3UXMVECTORF32@2@B
CONST	SEGMENT
?Orchid@Colors@DirectX@@3UXMVECTORF32@2@B DD 03f5adadcr ; 0.854902 ; DirectX::Colors::Orchid
	DD	03ee0e0e2r			; 0.439216
	DD	03f56d6d8r			; 0.839216
	DD	03f800000r			; 1
CONST	ENDS
;	COMDAT ?OrangeRed@Colors@DirectX@@3UXMVECTORF32@2@B
CONST	SEGMENT
?OrangeRed@Colors@DirectX@@3UXMVECTORF32@2@B DD 03f800000r ; 1 ; DirectX::Colors::OrangeRed
	DD	03e8a8a8br			; 0.270588
	DD	000000000r			; 0
	DD	03f800000r			; 1
CONST	ENDS
;	COMDAT ?Orange@Colors@DirectX@@3UXMVECTORF32@2@B
CONST	SEGMENT
?Orange@Colors@DirectX@@3UXMVECTORF32@2@B DD 03f800000r ; 1 ; DirectX::Colors::Orange
	DD	03f25a5a6r			; 0.647059
	DD	000000000r			; 0
	DD	03f800000r			; 1
CONST	ENDS
;	COMDAT ?OliveDrab@Colors@DirectX@@3UXMVECTORF32@2@B
CONST	SEGMENT
?OliveDrab@Colors@DirectX@@3UXMVECTORF32@2@B DD 03ed6d6d8r ; 0.419608 ; DirectX::Colors::OliveDrab
	DD	03f0e8e8fr			; 0.556863
	DD	03e0c8c8dr			; 0.137255
	DD	03f800000r			; 1
CONST	ENDS
;	COMDAT ?Olive@Colors@DirectX@@3UXMVECTORF32@2@B
CONST	SEGMENT
?Olive@Colors@DirectX@@3UXMVECTORF32@2@B DD 03f008081r ; 0.501961 ; DirectX::Colors::Olive
	DD	03f008081r			; 0.501961
	DD	000000000r			; 0
	DD	03f800000r			; 1
CONST	ENDS
;	COMDAT ?OldLace@Colors@DirectX@@3UXMVECTORF32@2@B
CONST	SEGMENT
?OldLace@Colors@DirectX@@3UXMVECTORF32@2@B DD 03f7dfdffr ; 0.992157 ; DirectX::Colors::OldLace
	DD	03f75f5f7r			; 0.960784
	DD	03f66e6e8r			; 0.901961
	DD	03f800000r			; 1
CONST	ENDS
;	COMDAT ?Navy@Colors@DirectX@@3UXMVECTORF32@2@B
CONST	SEGMENT
?Navy@Colors@DirectX@@3UXMVECTORF32@2@B DD 000000000r ; 0 ; DirectX::Colors::Navy
	DD	000000000r			; 0
	DD	03f008081r			; 0.501961
	DD	03f800000r			; 1
CONST	ENDS
;	COMDAT ?NavajoWhite@Colors@DirectX@@3UXMVECTORF32@2@B
CONST	SEGMENT
?NavajoWhite@Colors@DirectX@@3UXMVECTORF32@2@B DD 03f800000r ; 1 ; DirectX::Colors::NavajoWhite
	DD	03f5edee0r			; 0.870588
	DD	03f2dadaer			; 0.678431
	DD	03f800000r			; 1
CONST	ENDS
;	COMDAT ?Moccasin@Colors@DirectX@@3UXMVECTORF32@2@B
CONST	SEGMENT
?Moccasin@Colors@DirectX@@3UXMVECTORF32@2@B DD 03f800000r ; 1 ; DirectX::Colors::Moccasin
	DD	03f64e4e6r			; 0.894118
	DD	03f35b5b6r			; 0.709804
	DD	03f800000r			; 1
CONST	ENDS
;	COMDAT ?MistyRose@Colors@DirectX@@3UXMVECTORF32@2@B
CONST	SEGMENT
?MistyRose@Colors@DirectX@@3UXMVECTORF32@2@B DD 03f800000r ; 1 ; DirectX::Colors::MistyRose
	DD	03f64e4e6r			; 0.894118
	DD	03f61e1e3r			; 0.882353
	DD	03f800000r			; 1
CONST	ENDS
;	COMDAT ?MintCream@Colors@DirectX@@3UXMVECTORF32@2@B
CONST	SEGMENT
?MintCream@Colors@DirectX@@3UXMVECTORF32@2@B DD 03f75f5f7r ; 0.960784 ; DirectX::Colors::MintCream
	DD	03f800000r			; 1
	DD	03f7afafcr			; 0.980392
	DD	03f800000r			; 1
CONST	ENDS
;	COMDAT ?MidnightBlue@Colors@DirectX@@3UXMVECTORF32@2@B
CONST	SEGMENT
?MidnightBlue@Colors@DirectX@@3UXMVECTORF32@2@B DD 03dc8c8car ; 0.0980392 ; DirectX::Colors::MidnightBlue
	DD	03dc8c8car			; 0.0980392
	DD	03ee0e0e2r			; 0.439216
	DD	03f800000r			; 1
CONST	ENDS
;	COMDAT ?MediumVioletRed@Colors@DirectX@@3UXMVECTORF32@2@B
CONST	SEGMENT
?MediumVioletRed@Colors@DirectX@@3UXMVECTORF32@2@B DD 03f47c7c9r ; 0.780392 ; DirectX::Colors::MediumVioletRed
	DD	03da8a8a9r			; 0.0823529
	DD	03f058586r			; 0.521569
	DD	03f800000r			; 1
CONST	ENDS
;	COMDAT ?MediumTurquoise@Colors@DirectX@@3UXMVECTORF32@2@B
CONST	SEGMENT
?MediumTurquoise@Colors@DirectX@@3UXMVECTORF32@2@B DD 03e909091r ; 0.282353 ; DirectX::Colors::MediumTurquoise
	DD	03f51d1d3r			; 0.819608
	DD	03f4ccccer			; 0.8
	DD	03f800000r			; 1
CONST	ENDS
;	COMDAT ?MediumSpringGreen@Colors@DirectX@@3UXMVECTORF32@2@B
CONST	SEGMENT
?MediumSpringGreen@Colors@DirectX@@3UXMVECTORF32@2@B DD 000000000r ; 0 ; DirectX::Colors::MediumSpringGreen
	DD	03f7afafcr			; 0.980392
	DD	03f1a9a9br			; 0.603922
	DD	03f800000r			; 1
CONST	ENDS
;	COMDAT ?MediumSlateBlue@Colors@DirectX@@3UXMVECTORF32@2@B
CONST	SEGMENT
?MediumSlateBlue@Colors@DirectX@@3UXMVECTORF32@2@B DD 03ef6f6f8r ; 0.482353 ; DirectX::Colors::MediumSlateBlue
	DD	03ed0d0d2r			; 0.407843
	DD	03f6eeef0r			; 0.933333
	DD	03f800000r			; 1
CONST	ENDS
;	COMDAT ?MediumSeaGreen@Colors@DirectX@@3UXMVECTORF32@2@B
CONST	SEGMENT
?MediumSeaGreen@Colors@DirectX@@3UXMVECTORF32@2@B DD 03e70f0f2r ; 0.235294 ; DirectX::Colors::MediumSeaGreen
	DD	03f33b3b4r			; 0.701961
	DD	03ee2e2e4r			; 0.443137
	DD	03f800000r			; 1
CONST	ENDS
;	COMDAT ?MediumPurple@Colors@DirectX@@3UXMVECTORF32@2@B
CONST	SEGMENT
?MediumPurple@Colors@DirectX@@3UXMVECTORF32@2@B DD 03f139394r ; 0.576471 ; DirectX::Colors::MediumPurple
	DD	03ee0e0e2r			; 0.439216
	DD	03f5bdbddr			; 0.858824
	DD	03f800000r			; 1
CONST	ENDS
;	COMDAT ?MediumOrchid@Colors@DirectX@@3UXMVECTORF32@2@B
CONST	SEGMENT
?MediumOrchid@Colors@DirectX@@3UXMVECTORF32@2@B DD 03f3ababbr ; 0.729412 ; DirectX::Colors::MediumOrchid
	DD	03eaaaaabr			; 0.333333
	DD	03f53d3d5r			; 0.827451
	DD	03f800000r			; 1
CONST	ENDS
;	COMDAT ?MediumBlue@Colors@DirectX@@3UXMVECTORF32@2@B
CONST	SEGMENT
?MediumBlue@Colors@DirectX@@3UXMVECTORF32@2@B DD 000000000r ; 0 ; DirectX::Colors::MediumBlue
	DD	000000000r			; 0
	DD	03f4dcdcfr			; 0.803922
	DD	03f800000r			; 1
CONST	ENDS
;	COMDAT ?MediumAquamarine@Colors@DirectX@@3UXMVECTORF32@2@B
CONST	SEGMENT
?MediumAquamarine@Colors@DirectX@@3UXMVECTORF32@2@B DD 03ecccccer ; 0.4 ; DirectX::Colors::MediumAquamarine
	DD	03f4dcdcfr			; 0.803922
	DD	03f2aaaabr			; 0.666667
	DD	03f800000r			; 1
CONST	ENDS
;	COMDAT ?Maroon@Colors@DirectX@@3UXMVECTORF32@2@B
CONST	SEGMENT
?Maroon@Colors@DirectX@@3UXMVECTORF32@2@B DD 03f008081r ; 0.501961 ; DirectX::Colors::Maroon
	DD	000000000r			; 0
	DD	000000000r			; 0
	DD	03f800000r			; 1
CONST	ENDS
;	COMDAT ?Magenta@Colors@DirectX@@3UXMVECTORF32@2@B
CONST	SEGMENT
?Magenta@Colors@DirectX@@3UXMVECTORF32@2@B DD 03f800000r ; 1 ; DirectX::Colors::Magenta
	DD	000000000r			; 0
	DD	03f800000r			; 1
	DD	03f800000r			; 1
CONST	ENDS
;	COMDAT ?Linen@Colors@DirectX@@3UXMVECTORF32@2@B
CONST	SEGMENT
?Linen@Colors@DirectX@@3UXMVECTORF32@2@B DD 03f7afafcr ; 0.980392 ; DirectX::Colors::Linen
	DD	03f70f0f2r			; 0.941177
	DD	03f66e6e8r			; 0.901961
	DD	03f800000r			; 1
CONST	ENDS
;	COMDAT ?LimeGreen@Colors@DirectX@@3UXMVECTORF32@2@B
CONST	SEGMENT
?LimeGreen@Colors@DirectX@@3UXMVECTORF32@2@B DD 03e48c8car ; 0.196078 ; DirectX::Colors::LimeGreen
	DD	03f4dcdcfr			; 0.803922
	DD	03e48c8car			; 0.196078
	DD	03f800000r			; 1
CONST	ENDS
;	COMDAT ?Lime@Colors@DirectX@@3UXMVECTORF32@2@B
CONST	SEGMENT
?Lime@Colors@DirectX@@3UXMVECTORF32@2@B DD 000000000r ; 0 ; DirectX::Colors::Lime
	DD	03f800000r			; 1
	DD	000000000r			; 0
	DD	03f800000r			; 1
CONST	ENDS
;	COMDAT ?LightYellow@Colors@DirectX@@3UXMVECTORF32@2@B
CONST	SEGMENT
?LightYellow@Colors@DirectX@@3UXMVECTORF32@2@B DD 03f800000r ; 1 ; DirectX::Colors::LightYellow
	DD	03f800000r			; 1
	DD	03f60e0e2r			; 0.878431
	DD	03f800000r			; 1
CONST	ENDS
;	COMDAT ?LightSteelBlue@Colors@DirectX@@3UXMVECTORF32@2@B
CONST	SEGMENT
?LightSteelBlue@Colors@DirectX@@3UXMVECTORF32@2@B DD 03f30b0b1r ; 0.690196 ; DirectX::Colors::LightSteelBlue
	DD	03f44c4c6r			; 0.768628
	DD	03f5edee0r			; 0.870588
	DD	03f800000r			; 1
CONST	ENDS
;	COMDAT ?LightSlateGray@Colors@DirectX@@3UXMVECTORF32@2@B
CONST	SEGMENT
?LightSlateGray@Colors@DirectX@@3UXMVECTORF32@2@B DD 03eeeeef0r ; 0.466667 ; DirectX::Colors::LightSlateGray
	DD	03f088889r			; 0.533333
	DD	03f19999ar			; 0.6
	DD	03f800000r			; 1
CONST	ENDS
;	COMDAT ?LightSkyBlue@Colors@DirectX@@3UXMVECTORF32@2@B
CONST	SEGMENT
?LightSkyBlue@Colors@DirectX@@3UXMVECTORF32@2@B DD 03f078788r ; 0.529412 ; DirectX::Colors::LightSkyBlue
	DD	03f4eced0r			; 0.807843
	DD	03f7afafcr			; 0.980392
	DD	03f800000r			; 1
CONST	ENDS
;	COMDAT ?LightSeaGreen@Colors@DirectX@@3UXMVECTORF32@2@B
CONST	SEGMENT
?LightSeaGreen@Colors@DirectX@@3UXMVECTORF32@2@B DD 03e008081r ; 0.12549 ; DirectX::Colors::LightSeaGreen
	DD	03f32b2b3r			; 0.698039
	DD	03f2aaaabr			; 0.666667
	DD	03f800000r			; 1
CONST	ENDS
;	COMDAT ?LightSalmon@Colors@DirectX@@3UXMVECTORF32@2@B
CONST	SEGMENT
?LightSalmon@Colors@DirectX@@3UXMVECTORF32@2@B DD 03f800000r ; 1 ; DirectX::Colors::LightSalmon
	DD	03f20a0a1r			; 0.627451
	DD	03ef4f4f6r			; 0.478431
	DD	03f800000r			; 1
CONST	ENDS
;	COMDAT ?LightPink@Colors@DirectX@@3UXMVECTORF32@2@B
CONST	SEGMENT
?LightPink@Colors@DirectX@@3UXMVECTORF32@2@B DD 03f800000r ; 1 ; DirectX::Colors::LightPink
	DD	03f36b6b7r			; 0.713726
	DD	03f41c1c3r			; 0.756863
	DD	03f800000r			; 1
CONST	ENDS
;	COMDAT ?LightGray@Colors@DirectX@@3UXMVECTORF32@2@B
CONST	SEGMENT
?LightGray@Colors@DirectX@@3UXMVECTORF32@2@B DD 03f53d3d5r ; 0.827451 ; DirectX::Colors::LightGray
	DD	03f53d3d5r			; 0.827451
	DD	03f53d3d5r			; 0.827451
	DD	03f800000r			; 1
CONST	ENDS
;	COMDAT ?LightGreen@Colors@DirectX@@3UXMVECTORF32@2@B
CONST	SEGMENT
?LightGreen@Colors@DirectX@@3UXMVECTORF32@2@B DD 03f109091r ; 0.564706 ; DirectX::Colors::LightGreen
	DD	03f6eeef0r			; 0.933333
	DD	03f109091r			; 0.564706
	DD	03f800000r			; 1
CONST	ENDS
;	COMDAT ?LightGoldenrodYellow@Colors@DirectX@@3UXMVECTORF32@2@B
CONST	SEGMENT
?LightGoldenrodYellow@Colors@DirectX@@3UXMVECTORF32@2@B DD 03f7afafcr ; 0.980392 ; DirectX::Colors::LightGoldenrodYellow
	DD	03f7afafcr			; 0.980392
	DD	03f52d2d4r			; 0.823529
	DD	03f800000r			; 1
CONST	ENDS
;	COMDAT ?LightCyan@Colors@DirectX@@3UXMVECTORF32@2@B
CONST	SEGMENT
?LightCyan@Colors@DirectX@@3UXMVECTORF32@2@B DD 03f60e0e2r ; 0.878431 ; DirectX::Colors::LightCyan
	DD	03f800000r			; 1
	DD	03f800000r			; 1
	DD	03f800000r			; 1
CONST	ENDS
;	COMDAT ?LightCoral@Colors@DirectX@@3UXMVECTORF32@2@B
CONST	SEGMENT
?LightCoral@Colors@DirectX@@3UXMVECTORF32@2@B DD 03f70f0f2r ; 0.941177 ; DirectX::Colors::LightCoral
	DD	03f008081r			; 0.501961
	DD	03f008081r			; 0.501961
	DD	03f800000r			; 1
CONST	ENDS
;	COMDAT ?LightBlue@Colors@DirectX@@3UXMVECTORF32@2@B
CONST	SEGMENT
?LightBlue@Colors@DirectX@@3UXMVECTORF32@2@B DD 03f2dadaer ; 0.678431 ; DirectX::Colors::LightBlue
	DD	03f58d8dar			; 0.847059
	DD	03f66e6e8r			; 0.901961
	DD	03f800000r			; 1
CONST	ENDS
;	COMDAT ?LemonChiffon@Colors@DirectX@@3UXMVECTORF32@2@B
CONST	SEGMENT
?LemonChiffon@Colors@DirectX@@3UXMVECTORF32@2@B DD 03f800000r ; 1 ; DirectX::Colors::LemonChiffon
	DD	03f7afafcr			; 0.980392
	DD	03f4dcdcfr			; 0.803922
	DD	03f800000r			; 1
CONST	ENDS
;	COMDAT ?LawnGreen@Colors@DirectX@@3UXMVECTORF32@2@B
CONST	SEGMENT
?LawnGreen@Colors@DirectX@@3UXMVECTORF32@2@B DD 03ef8f8far ; 0.486275 ; DirectX::Colors::LawnGreen
	DD	03f7cfcfer			; 0.988235
	DD	000000000r			; 0
	DD	03f800000r			; 1
CONST	ENDS
;	COMDAT ?LavenderBlush@Colors@DirectX@@3UXMVECTORF32@2@B
CONST	SEGMENT
?LavenderBlush@Colors@DirectX@@3UXMVECTORF32@2@B DD 03f800000r ; 1 ; DirectX::Colors::LavenderBlush
	DD	03f70f0f2r			; 0.941177
	DD	03f75f5f7r			; 0.960784
	DD	03f800000r			; 1
CONST	ENDS
;	COMDAT ?Lavender@Colors@DirectX@@3UXMVECTORF32@2@B
CONST	SEGMENT
?Lavender@Colors@DirectX@@3UXMVECTORF32@2@B DD 03f66e6e8r ; 0.901961 ; DirectX::Colors::Lavender
	DD	03f66e6e8r			; 0.901961
	DD	03f7afafcr			; 0.980392
	DD	03f800000r			; 1
CONST	ENDS
;	COMDAT ?Khaki@Colors@DirectX@@3UXMVECTORF32@2@B
CONST	SEGMENT
?Khaki@Colors@DirectX@@3UXMVECTORF32@2@B DD 03f70f0f2r ; 0.941177 ; DirectX::Colors::Khaki
	DD	03f66e6e8r			; 0.901961
	DD	03f0c8c8dr			; 0.54902
	DD	03f800000r			; 1
CONST	ENDS
;	COMDAT ?Ivory@Colors@DirectX@@3UXMVECTORF32@2@B
CONST	SEGMENT
?Ivory@Colors@DirectX@@3UXMVECTORF32@2@B DD 03f800000r ; 1 ; DirectX::Colors::Ivory
	DD	03f800000r			; 1
	DD	03f70f0f2r			; 0.941177
	DD	03f800000r			; 1
CONST	ENDS
;	COMDAT ?Indigo@Colors@DirectX@@3UXMVECTORF32@2@B
CONST	SEGMENT
?Indigo@Colors@DirectX@@3UXMVECTORF32@2@B DD 03e969697r ; 0.294118 ; DirectX::Colors::Indigo
	DD	000000000r			; 0
	DD	03f028283r			; 0.509804
	DD	03f800000r			; 1
CONST	ENDS
;	COMDAT ?IndianRed@Colors@DirectX@@3UXMVECTORF32@2@B
CONST	SEGMENT
?IndianRed@Colors@DirectX@@3UXMVECTORF32@2@B DD 03f4dcdcfr ; 0.803922 ; DirectX::Colors::IndianRed
	DD	03eb8b8b9r			; 0.360784
	DD	03eb8b8b9r			; 0.360784
	DD	03f800000r			; 1
CONST	ENDS
;	COMDAT ?HotPink@Colors@DirectX@@3UXMVECTORF32@2@B
CONST	SEGMENT
?HotPink@Colors@DirectX@@3UXMVECTORF32@2@B DD 03f800000r ; 1 ; DirectX::Colors::HotPink
	DD	03ed2d2d4r			; 0.411765
	DD	03f34b4b5r			; 0.705882
	DD	03f800000r			; 1
CONST	ENDS
;	COMDAT ?Honeydew@Colors@DirectX@@3UXMVECTORF32@2@B
CONST	SEGMENT
?Honeydew@Colors@DirectX@@3UXMVECTORF32@2@B DD 03f70f0f2r ; 0.941177 ; DirectX::Colors::Honeydew
	DD	03f800000r			; 1
	DD	03f70f0f2r			; 0.941177
	DD	03f800000r			; 1
CONST	ENDS
;	COMDAT ?GreenYellow@Colors@DirectX@@3UXMVECTORF32@2@B
CONST	SEGMENT
?GreenYellow@Colors@DirectX@@3UXMVECTORF32@2@B DD 03f2dadaer ; 0.678431 ; DirectX::Colors::GreenYellow
	DD	03f800000r			; 1
	DD	03e3cbcbdr			; 0.184314
	DD	03f800000r			; 1
CONST	ENDS
;	COMDAT ?Green@Colors@DirectX@@3UXMVECTORF32@2@B
CONST	SEGMENT
?Green@Colors@DirectX@@3UXMVECTORF32@2@B DD 000000000r ; 0 ; DirectX::Colors::Green
	DD	03f008081r			; 0.501961
	DD	000000000r			; 0
	DD	03f800000r			; 1
CONST	ENDS
;	COMDAT ?Gray@Colors@DirectX@@3UXMVECTORF32@2@B
CONST	SEGMENT
?Gray@Colors@DirectX@@3UXMVECTORF32@2@B DD 03f008081r ; 0.501961 ; DirectX::Colors::Gray
	DD	03f008081r			; 0.501961
	DD	03f008081r			; 0.501961
	DD	03f800000r			; 1
CONST	ENDS
;	COMDAT ?Goldenrod@Colors@DirectX@@3UXMVECTORF32@2@B
CONST	SEGMENT
?Goldenrod@Colors@DirectX@@3UXMVECTORF32@2@B DD 03f5adadcr ; 0.854902 ; DirectX::Colors::Goldenrod
	DD	03f25a5a6r			; 0.647059
	DD	03e008081r			; 0.12549
	DD	03f800000r			; 1
CONST	ENDS
;	COMDAT ?Gold@Colors@DirectX@@3UXMVECTORF32@2@B
CONST	SEGMENT
?Gold@Colors@DirectX@@3UXMVECTORF32@2@B DD 03f800000r ; 1 ; DirectX::Colors::Gold
	DD	03f57d7d9r			; 0.843137
	DD	000000000r			; 0
	DD	03f800000r			; 1
CONST	ENDS
;	COMDAT ?GhostWhite@Colors@DirectX@@3UXMVECTORF32@2@B
CONST	SEGMENT
?GhostWhite@Colors@DirectX@@3UXMVECTORF32@2@B DD 03f78f8far ; 0.972549 ; DirectX::Colors::GhostWhite
	DD	03f78f8far			; 0.972549
	DD	03f800000r			; 1
	DD	03f800000r			; 1
CONST	ENDS
;	COMDAT ?Gainsboro@Colors@DirectX@@3UXMVECTORF32@2@B
CONST	SEGMENT
?Gainsboro@Colors@DirectX@@3UXMVECTORF32@2@B DD 03f5cdcder ; 0.862745 ; DirectX::Colors::Gainsboro
	DD	03f5cdcder			; 0.862745
	DD	03f5cdcder			; 0.862745
	DD	03f800000r			; 1
CONST	ENDS
;	COMDAT ?Fuchsia@Colors@DirectX@@3UXMVECTORF32@2@B
CONST	SEGMENT
?Fuchsia@Colors@DirectX@@3UXMVECTORF32@2@B DD 03f800000r ; 1 ; DirectX::Colors::Fuchsia
	DD	000000000r			; 0
	DD	03f800000r			; 1
	DD	03f800000r			; 1
CONST	ENDS
;	COMDAT ?ForestGreen@Colors@DirectX@@3UXMVECTORF32@2@B
CONST	SEGMENT
?ForestGreen@Colors@DirectX@@3UXMVECTORF32@2@B DD 03e088889r ; 0.133333 ; DirectX::Colors::ForestGreen
	DD	03f0b8b8cr			; 0.545098
	DD	03e088889r			; 0.133333
	DD	03f800000r			; 1
CONST	ENDS
;	COMDAT ?FloralWhite@Colors@DirectX@@3UXMVECTORF32@2@B
CONST	SEGMENT
?FloralWhite@Colors@DirectX@@3UXMVECTORF32@2@B DD 03f800000r ; 1 ; DirectX::Colors::FloralWhite
	DD	03f7afafcr			; 0.980392
	DD	03f70f0f2r			; 0.941177
	DD	03f800000r			; 1
CONST	ENDS
;	COMDAT ?Firebrick@Colors@DirectX@@3UXMVECTORF32@2@B
CONST	SEGMENT
?Firebrick@Colors@DirectX@@3UXMVECTORF32@2@B DD 03f32b2b3r ; 0.698039 ; DirectX::Colors::Firebrick
	DD	03e088889r			; 0.133333
	DD	03e088889r			; 0.133333
	DD	03f800000r			; 1
CONST	ENDS
;	COMDAT ?DodgerBlue@Colors@DirectX@@3UXMVECTORF32@2@B
CONST	SEGMENT
?DodgerBlue@Colors@DirectX@@3UXMVECTORF32@2@B DD 03df0f0f2r ; 0.117647 ; DirectX::Colors::DodgerBlue
	DD	03f109091r			; 0.564706
	DD	03f800000r			; 1
	DD	03f800000r			; 1
CONST	ENDS
;	COMDAT ?DimGray@Colors@DirectX@@3UXMVECTORF32@2@B
CONST	SEGMENT
?DimGray@Colors@DirectX@@3UXMVECTORF32@2@B DD 03ed2d2d4r ; 0.411765 ; DirectX::Colors::DimGray
	DD	03ed2d2d4r			; 0.411765
	DD	03ed2d2d4r			; 0.411765
	DD	03f800000r			; 1
CONST	ENDS
;	COMDAT ?DeepSkyBlue@Colors@DirectX@@3UXMVECTORF32@2@B
CONST	SEGMENT
?DeepSkyBlue@Colors@DirectX@@3UXMVECTORF32@2@B DD 000000000r ; 0 ; DirectX::Colors::DeepSkyBlue
	DD	03f3fbfc0r			; 0.74902
	DD	03f800000r			; 1
	DD	03f800000r			; 1
CONST	ENDS
;	COMDAT ?DeepPink@Colors@DirectX@@3UXMVECTORF32@2@B
CONST	SEGMENT
?DeepPink@Colors@DirectX@@3UXMVECTORF32@2@B DD 03f800000r ; 1 ; DirectX::Colors::DeepPink
	DD	03da0a0a1r			; 0.0784314
	DD	03f139394r			; 0.576471
	DD	03f800000r			; 1
CONST	ENDS
;	COMDAT ?DarkViolet@Colors@DirectX@@3UXMVECTORF32@2@B
CONST	SEGMENT
?DarkViolet@Colors@DirectX@@3UXMVECTORF32@2@B DD 03f149495r ; 0.580392 ; DirectX::Colors::DarkViolet
	DD	000000000r			; 0
	DD	03f53d3d5r			; 0.827451
	DD	03f800000r			; 1
CONST	ENDS
;	COMDAT ?DarkTurquoise@Colors@DirectX@@3UXMVECTORF32@2@B
CONST	SEGMENT
?DarkTurquoise@Colors@DirectX@@3UXMVECTORF32@2@B DD 000000000r ; 0 ; DirectX::Colors::DarkTurquoise
	DD	03f4eced0r			; 0.807843
	DD	03f51d1d3r			; 0.819608
	DD	03f800000r			; 1
CONST	ENDS
;	COMDAT ?DarkSlateGray@Colors@DirectX@@3UXMVECTORF32@2@B
CONST	SEGMENT
?DarkSlateGray@Colors@DirectX@@3UXMVECTORF32@2@B DD 03e3cbcbdr ; 0.184314 ; DirectX::Colors::DarkSlateGray
	DD	03e9e9e9fr			; 0.309804
	DD	03e9e9e9fr			; 0.309804
	DD	03f800000r			; 1
CONST	ENDS
;	COMDAT ?DarkSlateBlue@Colors@DirectX@@3UXMVECTORF32@2@B
CONST	SEGMENT
?DarkSlateBlue@Colors@DirectX@@3UXMVECTORF32@2@B DD 03e909091r ; 0.282353 ; DirectX::Colors::DarkSlateBlue
	DD	03e74f4f6r			; 0.239216
	DD	03f0b8b8cr			; 0.545098
	DD	03f800000r			; 1
CONST	ENDS
;	COMDAT ?DarkSeaGreen@Colors@DirectX@@3UXMVECTORF32@2@B
CONST	SEGMENT
?DarkSeaGreen@Colors@DirectX@@3UXMVECTORF32@2@B DD 03f0f8f90r ; 0.560784 ; DirectX::Colors::DarkSeaGreen
	DD	03f3cbcbdr			; 0.737255
	DD	03f0b8b8cr			; 0.545098
	DD	03f800000r			; 1
CONST	ENDS
;	COMDAT ?DarkSalmon@Colors@DirectX@@3UXMVECTORF32@2@B
CONST	SEGMENT
?DarkSalmon@Colors@DirectX@@3UXMVECTORF32@2@B DD 03f69e9ebr ; 0.913726 ; DirectX::Colors::DarkSalmon
	DD	03f169697r			; 0.588235
	DD	03ef4f4f6r			; 0.478431
	DD	03f800000r			; 1
CONST	ENDS
;	COMDAT ?DarkRed@Colors@DirectX@@3UXMVECTORF32@2@B
CONST	SEGMENT
?DarkRed@Colors@DirectX@@3UXMVECTORF32@2@B DD 03f0b8b8cr ; 0.545098 ; DirectX::Colors::DarkRed
	DD	000000000r			; 0
	DD	000000000r			; 0
	DD	03f800000r			; 1
CONST	ENDS
;	COMDAT ?DarkOrchid@Colors@DirectX@@3UXMVECTORF32@2@B
CONST	SEGMENT
?DarkOrchid@Colors@DirectX@@3UXMVECTORF32@2@B DD 03f19999ar ; 0.6 ; DirectX::Colors::DarkOrchid
	DD	03e48c8car			; 0.196078
	DD	03f4ccccer			; 0.8
	DD	03f800000r			; 1
CONST	ENDS
;	COMDAT ?DarkOrange@Colors@DirectX@@3UXMVECTORF32@2@B
CONST	SEGMENT
?DarkOrange@Colors@DirectX@@3UXMVECTORF32@2@B DD 03f800000r ; 1 ; DirectX::Colors::DarkOrange
	DD	03f0c8c8dr			; 0.54902
	DD	000000000r			; 0
	DD	03f800000r			; 1
CONST	ENDS
;	COMDAT ?DarkOliveGreen@Colors@DirectX@@3UXMVECTORF32@2@B
CONST	SEGMENT
?DarkOliveGreen@Colors@DirectX@@3UXMVECTORF32@2@B DD 03eaaaaabr ; 0.333333 ; DirectX::Colors::DarkOliveGreen
	DD	03ed6d6d8r			; 0.419608
	DD	03e3cbcbdr			; 0.184314
	DD	03f800000r			; 1
CONST	ENDS
;	COMDAT ?DarkMagenta@Colors@DirectX@@3UXMVECTORF32@2@B
CONST	SEGMENT
?DarkMagenta@Colors@DirectX@@3UXMVECTORF32@2@B DD 03f0b8b8cr ; 0.545098 ; DirectX::Colors::DarkMagenta
	DD	000000000r			; 0
	DD	03f0b8b8cr			; 0.545098
	DD	03f800000r			; 1
CONST	ENDS
;	COMDAT ?DarkKhaki@Colors@DirectX@@3UXMVECTORF32@2@B
CONST	SEGMENT
?DarkKhaki@Colors@DirectX@@3UXMVECTORF32@2@B DD 03f3dbdber ; 0.741176 ; DirectX::Colors::DarkKhaki
	DD	03f37b7b8r			; 0.717647
	DD	03ed6d6d8r			; 0.419608
	DD	03f800000r			; 1
CONST	ENDS
;	COMDAT ?DarkGreen@Colors@DirectX@@3UXMVECTORF32@2@B
CONST	SEGMENT
?DarkGreen@Colors@DirectX@@3UXMVECTORF32@2@B DD 000000000r ; 0 ; DirectX::Colors::DarkGreen
	DD	03ec8c8car			; 0.392157
	DD	000000000r			; 0
	DD	03f800000r			; 1
CONST	ENDS
;	COMDAT ?DarkGray@Colors@DirectX@@3UXMVECTORF32@2@B
CONST	SEGMENT
?DarkGray@Colors@DirectX@@3UXMVECTORF32@2@B DD 03f29a9aar ; 0.662745 ; DirectX::Colors::DarkGray
	DD	03f29a9aar			; 0.662745
	DD	03f29a9aar			; 0.662745
	DD	03f800000r			; 1
CONST	ENDS
;	COMDAT ?DarkGoldenrod@Colors@DirectX@@3UXMVECTORF32@2@B
CONST	SEGMENT
?DarkGoldenrod@Colors@DirectX@@3UXMVECTORF32@2@B DD 03f38b8b9r ; 0.721569 ; DirectX::Colors::DarkGoldenrod
	DD	03f068687r			; 0.52549
	DD	03d30b0b1r			; 0.0431373
	DD	03f800000r			; 1
CONST	ENDS
;	COMDAT ?DarkCyan@Colors@DirectX@@3UXMVECTORF32@2@B
CONST	SEGMENT
?DarkCyan@Colors@DirectX@@3UXMVECTORF32@2@B DD 000000000r ; 0 ; DirectX::Colors::DarkCyan
	DD	03f0b8b8cr			; 0.545098
	DD	03f0b8b8cr			; 0.545098
	DD	03f800000r			; 1
CONST	ENDS
;	COMDAT ?DarkBlue@Colors@DirectX@@3UXMVECTORF32@2@B
CONST	SEGMENT
?DarkBlue@Colors@DirectX@@3UXMVECTORF32@2@B DD 000000000r ; 0 ; DirectX::Colors::DarkBlue
	DD	000000000r			; 0
	DD	03f0b8b8cr			; 0.545098
	DD	03f800000r			; 1
CONST	ENDS
;	COMDAT ?Cyan@Colors@DirectX@@3UXMVECTORF32@2@B
CONST	SEGMENT
?Cyan@Colors@DirectX@@3UXMVECTORF32@2@B DD 000000000r ; 0 ; DirectX::Colors::Cyan
	DD	03f800000r			; 1
	DD	03f800000r			; 1
	DD	03f800000r			; 1
CONST	ENDS
;	COMDAT ?Crimson@Colors@DirectX@@3UXMVECTORF32@2@B
CONST	SEGMENT
?Crimson@Colors@DirectX@@3UXMVECTORF32@2@B DD 03f5cdcder ; 0.862745 ; DirectX::Colors::Crimson
	DD	03da0a0a1r			; 0.0784314
	DD	03e70f0f2r			; 0.235294
	DD	03f800000r			; 1
CONST	ENDS
;	COMDAT ?Cornsilk@Colors@DirectX@@3UXMVECTORF32@2@B
CONST	SEGMENT
?Cornsilk@Colors@DirectX@@3UXMVECTORF32@2@B DD 03f800000r ; 1 ; DirectX::Colors::Cornsilk
	DD	03f78f8far			; 0.972549
	DD	03f5cdcder			; 0.862745
	DD	03f800000r			; 1
CONST	ENDS
;	COMDAT ?CornflowerBlue@Colors@DirectX@@3UXMVECTORF32@2@B
CONST	SEGMENT
?CornflowerBlue@Colors@DirectX@@3UXMVECTORF32@2@B DD 03ec8c8car ; 0.392157 ; DirectX::Colors::CornflowerBlue
	DD	03f159596r			; 0.584314
	DD	03f6dedefr			; 0.929412
	DD	03f800000r			; 1
CONST	ENDS
;	COMDAT ?Coral@Colors@DirectX@@3UXMVECTORF32@2@B
CONST	SEGMENT
?Coral@Colors@DirectX@@3UXMVECTORF32@2@B DD 03f800000r ; 1 ; DirectX::Colors::Coral
	DD	03efeff00r			; 0.498039
	DD	03ea0a0a1r			; 0.313726
	DD	03f800000r			; 1
CONST	ENDS
;	COMDAT ?Chocolate@Colors@DirectX@@3UXMVECTORF32@2@B
CONST	SEGMENT
?Chocolate@Colors@DirectX@@3UXMVECTORF32@2@B DD 03f52d2d4r ; 0.823529 ; DirectX::Colors::Chocolate
	DD	03ed2d2d4r			; 0.411765
	DD	03df0f0f2r			; 0.117647
	DD	03f800000r			; 1
CONST	ENDS
;	COMDAT ?Chartreuse@Colors@DirectX@@3UXMVECTORF32@2@B
CONST	SEGMENT
?Chartreuse@Colors@DirectX@@3UXMVECTORF32@2@B DD 03efeff00r ; 0.498039 ; DirectX::Colors::Chartreuse
	DD	03f800000r			; 1
	DD	000000000r			; 0
	DD	03f800000r			; 1
CONST	ENDS
;	COMDAT ?CadetBlue@Colors@DirectX@@3UXMVECTORF32@2@B
CONST	SEGMENT
?CadetBlue@Colors@DirectX@@3UXMVECTORF32@2@B DD 03ebebebfr ; 0.372549 ; DirectX::Colors::CadetBlue
	DD	03f1e9e9fr			; 0.619608
	DD	03f20a0a1r			; 0.627451
	DD	03f800000r			; 1
CONST	ENDS
;	COMDAT ?BurlyWood@Colors@DirectX@@3UXMVECTORF32@2@B
CONST	SEGMENT
?BurlyWood@Colors@DirectX@@3UXMVECTORF32@2@B DD 03f5edee0r ; 0.870588 ; DirectX::Colors::BurlyWood
	DD	03f38b8b9r			; 0.721569
	DD	03f078788r			; 0.529412
	DD	03f800000r			; 1
CONST	ENDS
;	COMDAT ?Brown@Colors@DirectX@@3UXMVECTORF32@2@B
CONST	SEGMENT
?Brown@Colors@DirectX@@3UXMVECTORF32@2@B DD 03f25a5a6r ; 0.647059 ; DirectX::Colors::Brown
	DD	03e28a8a9r			; 0.164706
	DD	03e28a8a9r			; 0.164706
	DD	03f800000r			; 1
CONST	ENDS
;	COMDAT ?BlueViolet@Colors@DirectX@@3UXMVECTORF32@2@B
CONST	SEGMENT
?BlueViolet@Colors@DirectX@@3UXMVECTORF32@2@B DD 03f0a8a8br ; 0.541176 ; DirectX::Colors::BlueViolet
	DD	03e2cacadr			; 0.168627
	DD	03f62e2e4r			; 0.886275
	DD	03f800000r			; 1
CONST	ENDS
;	COMDAT ?Blue@Colors@DirectX@@3UXMVECTORF32@2@B
CONST	SEGMENT
?Blue@Colors@DirectX@@3UXMVECTORF32@2@B DD 000000000r ; 0 ; DirectX::Colors::Blue
	DD	000000000r			; 0
	DD	03f800000r			; 1
	DD	03f800000r			; 1
CONST	ENDS
;	COMDAT ?BlanchedAlmond@Colors@DirectX@@3UXMVECTORF32@2@B
CONST	SEGMENT
?BlanchedAlmond@Colors@DirectX@@3UXMVECTORF32@2@B DD 03f800000r ; 1 ; DirectX::Colors::BlanchedAlmond
	DD	03f6bebedr			; 0.921569
	DD	03f4dcdcfr			; 0.803922
	DD	03f800000r			; 1
CONST	ENDS
;	COMDAT ?Black@Colors@DirectX@@3UXMVECTORF32@2@B
CONST	SEGMENT
?Black@Colors@DirectX@@3UXMVECTORF32@2@B DD 000000000r ; 0 ; DirectX::Colors::Black
	DD	000000000r			; 0
	DD	000000000r			; 0
	DD	03f800000r			; 1
CONST	ENDS
;	COMDAT ?Bisque@Colors@DirectX@@3UXMVECTORF32@2@B
CONST	SEGMENT
?Bisque@Colors@DirectX@@3UXMVECTORF32@2@B DD 03f800000r ; 1 ; DirectX::Colors::Bisque
	DD	03f64e4e6r			; 0.894118
	DD	03f44c4c6r			; 0.768628
	DD	03f800000r			; 1
CONST	ENDS
;	COMDAT ?Beige@Colors@DirectX@@3UXMVECTORF32@2@B
CONST	SEGMENT
?Beige@Colors@DirectX@@3UXMVECTORF32@2@B DD 03f75f5f7r ; 0.960784 ; DirectX::Colors::Beige
	DD	03f75f5f7r			; 0.960784
	DD	03f5cdcder			; 0.862745
	DD	03f800000r			; 1
CONST	ENDS
;	COMDAT ?Azure@Colors@DirectX@@3UXMVECTORF32@2@B
CONST	SEGMENT
?Azure@Colors@DirectX@@3UXMVECTORF32@2@B DD 03f70f0f2r ; 0.941177 ; DirectX::Colors::Azure
	DD	03f800000r			; 1
	DD	03f800000r			; 1
	DD	03f800000r			; 1
CONST	ENDS
;	COMDAT ?Aquamarine@Colors@DirectX@@3UXMVECTORF32@2@B
CONST	SEGMENT
?Aquamarine@Colors@DirectX@@3UXMVECTORF32@2@B DD 03efeff00r ; 0.498039 ; DirectX::Colors::Aquamarine
	DD	03f800000r			; 1
	DD	03f54d4d6r			; 0.831373
	DD	03f800000r			; 1
CONST	ENDS
;	COMDAT ?Aqua@Colors@DirectX@@3UXMVECTORF32@2@B
CONST	SEGMENT
?Aqua@Colors@DirectX@@3UXMVECTORF32@2@B DD 000000000r ; 0 ; DirectX::Colors::Aqua
	DD	03f800000r			; 1
	DD	03f800000r			; 1
	DD	03f800000r			; 1
CONST	ENDS
;	COMDAT ?AntiqueWhite@Colors@DirectX@@3UXMVECTORF32@2@B
CONST	SEGMENT
?AntiqueWhite@Colors@DirectX@@3UXMVECTORF32@2@B DD 03f7afafcr ; 0.980392 ; DirectX::Colors::AntiqueWhite
	DD	03f6bebedr			; 0.921569
	DD	03f57d7d9r			; 0.843137
	DD	03f800000r			; 1
CONST	ENDS
;	COMDAT ?AliceBlue@Colors@DirectX@@3UXMVECTORF32@2@B
CONST	SEGMENT
?AliceBlue@Colors@DirectX@@3UXMVECTORF32@2@B DD 03f70f0f2r ; 0.941177 ; DirectX::Colors::AliceBlue
	DD	03f78f8far			; 0.972549
	DD	03f800000r			; 1
	DD	03f800000r			; 1
CONST	ENDS
PUBLIC	??_H@YAXPEAX_K1P6APEAX0@Z@Z			; `vector constructor iterator'
PUBLIC	?__empty_global_delete@@YAXPEAX@Z		; __empty_global_delete
PUBLIC	?__empty_global_delete@@YAXPEAX_K@Z		; __empty_global_delete
PUBLIC	wmemcpy
PUBLIC	wmemmove
PUBLIC	?fpclassify@@YAHM@Z				; fpclassify
PUBLIC	??2@YAPEAX_KPEAX@Z				; operator new
PUBLIC	?length@?$char_traits@_W@std@@SA_KPEB_W@Z	; std::char_traits<wchar_t>::length
PUBLIC	?copy@?$char_traits@_W@std@@SAPEA_WPEA_WPEB_W_K@Z ; std::char_traits<wchar_t>::copy
PUBLIC	?move@?$char_traits@_W@std@@SAPEA_WPEA_WPEB_W_K@Z ; std::char_traits<wchar_t>::move
PUBLIC	?assign@?$char_traits@_W@std@@SAXAEA_WAEB_W@Z	; std::char_traits<wchar_t>::assign
PUBLIC	??0_Container_proxy@std@@QEAA@XZ		; std::_Container_proxy::_Container_proxy
PUBLIC	??0_Container_base12@std@@QEAA@XZ		; std::_Container_base12::_Container_base12
PUBLIC	??1_Container_base12@std@@QEAA@XZ		; std::_Container_base12::~_Container_base12
PUBLIC	?_Orphan_all@_Container_base12@std@@QEAAXXZ	; std::_Container_base12::_Orphan_all
PUBLIC	?_Allocate@std@@YAPEAX_K0_N@Z			; std::_Allocate
PUBLIC	?_Deallocate@std@@YAXPEAX_K1@Z			; std::_Deallocate
PUBLIC	??0?$allocator@_W@std@@QEAA@XZ			; std::allocator<wchar_t>::allocator<wchar_t>
PUBLIC	?deallocate@?$allocator@_W@std@@QEAAXPEA_W_K@Z	; std::allocator<wchar_t>::deallocate
PUBLIC	?allocate@?$allocator@_W@std@@QEAAPEA_W_K@Z	; std::allocator<wchar_t>::allocate
PUBLIC	?max_size@?$allocator@_W@std@@QEBA_KXZ		; std::allocator<wchar_t>::max_size
PUBLIC	?max_size@?$allocator_traits@V?$allocator@_W@std@@@std@@SA_KAEBV?$allocator@_W@2@@Z ; std::allocator_traits<std::allocator<wchar_t> >::max_size
PUBLIC	??0?$_Wrap_alloc@V?$allocator@_W@std@@@std@@QEAA@XZ ; std::_Wrap_alloc<std::allocator<wchar_t> >::_Wrap_alloc<std::allocator<wchar_t> >
PUBLIC	?allocate@?$_Wrap_alloc@V?$allocator@_W@std@@@std@@QEAAPEA_W_K@Z ; std::_Wrap_alloc<std::allocator<wchar_t> >::allocate
PUBLIC	?deallocate@?$_Wrap_alloc@V?$allocator@_W@std@@@std@@QEAAXPEA_W_K@Z ; std::_Wrap_alloc<std::allocator<wchar_t> >::deallocate
PUBLIC	?max_size@?$_Wrap_alloc@V?$allocator@_W@std@@@std@@QEBA_KU_Nil@2@@Z ; std::_Wrap_alloc<std::allocator<wchar_t> >::max_size
PUBLIC	??0?$_String_val@U?$_Simple_types@_W@std@@@std@@QEAA@XZ ; std::_String_val<std::_Simple_types<wchar_t> >::_String_val<std::_Simple_types<wchar_t> >
PUBLIC	?_Myptr@?$_String_val@U?$_Simple_types@_W@std@@@std@@QEAAPEA_WXZ ; std::_String_val<std::_Simple_types<wchar_t> >::_Myptr
PUBLIC	?_Myptr@?$_String_val@U?$_Simple_types@_W@std@@@std@@QEBAPEB_WXZ ; std::_String_val<std::_Simple_types<wchar_t> >::_Myptr
PUBLIC	??0_Bxty@?$_String_val@U?$_Simple_types@_W@std@@@std@@QEAA@XZ ; std::_String_val<std::_Simple_types<wchar_t> >::_Bxty::_Bxty
PUBLIC	??1_Bxty@?$_String_val@U?$_Simple_types@_W@std@@@std@@QEAA@XZ ; std::_String_val<std::_Simple_types<wchar_t> >::_Bxty::~_Bxty
PUBLIC	??1?$_String_val@U?$_Simple_types@_W@std@@@std@@QEAA@XZ ; std::_String_val<std::_Simple_types<wchar_t> >::~_String_val<std::_Simple_types<wchar_t> >
PUBLIC	?_Myptr@?$_String_alloc@U?$_String_base_types@_WV?$allocator@_W@std@@@std@@@std@@QEAAPEA_WXZ ; std::_String_alloc<std::_String_base_types<wchar_t,std::allocator<wchar_t> > >::_Myptr
PUBLIC	?_Myptr@?$_String_alloc@U?$_String_base_types@_WV?$allocator@_W@std@@@std@@@std@@QEBAPEB_WXZ ; std::_String_alloc<std::_String_base_types<wchar_t,std::allocator<wchar_t> > >::_Myptr
PUBLIC	??0?$_String_alloc@U?$_String_base_types@_WV?$allocator@_W@std@@@std@@@std@@QEAA@XZ ; std::_String_alloc<std::_String_base_types<wchar_t,std::allocator<wchar_t> > >::_String_alloc<std::_String_base_types<wchar_t,std::allocator<wchar_t> > >
PUBLIC	??1?$_String_alloc@U?$_String_base_types@_WV?$allocator@_W@std@@@std@@@std@@QEAA@XZ ; std::_String_alloc<std::_String_base_types<wchar_t,std::allocator<wchar_t> > >::~_String_alloc<std::_String_base_types<wchar_t,std::allocator<wchar_t> > >
PUBLIC	?_Alloc_proxy@?$_String_alloc@U?$_String_base_types@_WV?$allocator@_W@std@@@std@@@std@@QEAAXXZ ; std::_String_alloc<std::_String_base_types<wchar_t,std::allocator<wchar_t> > >::_Alloc_proxy
PUBLIC	?_Free_proxy@?$_String_alloc@U?$_String_base_types@_WV?$allocator@_W@std@@@std@@@std@@QEAAXXZ ; std::_String_alloc<std::_String_base_types<wchar_t,std::allocator<wchar_t> > >::_Free_proxy
PUBLIC	?_Myproxy@?$_String_alloc@U?$_String_base_types@_WV?$allocator@_W@std@@@std@@@std@@QEAAAEAPEAU_Container_proxy@2@XZ ; std::_String_alloc<std::_String_base_types<wchar_t,std::allocator<wchar_t> > >::_Myproxy
PUBLIC	?_Orphan_all@?$_String_alloc@U?$_String_base_types@_WV?$allocator@_W@std@@@std@@@std@@QEAAXXZ ; std::_String_alloc<std::_String_base_types<wchar_t,std::allocator<wchar_t> > >::_Orphan_all
PUBLIC	?_Getal@?$_String_alloc@U?$_String_base_types@_WV?$allocator@_W@std@@@std@@@std@@QEAAAEAU?$_Wrap_alloc@V?$allocator@_W@std@@@2@XZ ; std::_String_alloc<std::_String_base_types<wchar_t,std::allocator<wchar_t> > >::_Getal
PUBLIC	?_Getal@?$_String_alloc@U?$_String_base_types@_WV?$allocator@_W@std@@@std@@@std@@QEBAAEBU?$_Wrap_alloc@V?$allocator@_W@std@@@2@XZ ; std::_String_alloc<std::_String_base_types<wchar_t,std::allocator<wchar_t> > >::_Getal
PUBLIC	?_Get_data@?$_String_alloc@U?$_String_base_types@_WV?$allocator@_W@std@@@std@@@std@@QEAAAEAV?$_String_val@U?$_Simple_types@_W@std@@@2@XZ ; std::_String_alloc<std::_String_base_types<wchar_t,std::allocator<wchar_t> > >::_Get_data
PUBLIC	?_Get_data@?$_String_alloc@U?$_String_base_types@_WV?$allocator@_W@std@@@std@@@std@@QEBAAEBV?$_String_val@U?$_Simple_types@_W@std@@@2@XZ ; std::_String_alloc<std::_String_base_types<wchar_t,std::allocator<wchar_t> > >::_Get_data
PUBLIC	?_Bx@?$_String_alloc@U?$_String_base_types@_WV?$allocator@_W@std@@@std@@@std@@QEAAAEAT_Bxty@?$_String_val@U?$_Simple_types@_W@std@@@2@XZ ; std::_String_alloc<std::_String_base_types<wchar_t,std::allocator<wchar_t> > >::_Bx
PUBLIC	?_Mysize@?$_String_alloc@U?$_String_base_types@_WV?$allocator@_W@std@@@std@@@std@@QEAAAEA_KXZ ; std::_String_alloc<std::_String_base_types<wchar_t,std::allocator<wchar_t> > >::_Mysize
PUBLIC	?_Mysize@?$_String_alloc@U?$_String_base_types@_WV?$allocator@_W@std@@@std@@@std@@QEBAAEB_KXZ ; std::_String_alloc<std::_String_base_types<wchar_t,std::allocator<wchar_t> > >::_Mysize
PUBLIC	?_Myres@?$_String_alloc@U?$_String_base_types@_WV?$allocator@_W@std@@@std@@@std@@QEAAAEA_KXZ ; std::_String_alloc<std::_String_base_types<wchar_t,std::allocator<wchar_t> > >::_Myres
PUBLIC	?_Get_first@?$_Compressed_pair@U?$_Wrap_alloc@V?$allocator@_W@std@@@std@@V?$_String_val@U?$_Simple_types@_W@std@@@2@$00@std@@QEAAAEAU?$_Wrap_alloc@V?$allocator@_W@std@@@2@XZ ; std::_Compressed_pair<std::_Wrap_alloc<std::allocator<wchar_t> >,std::_String_val<std::_Simple_types<wchar_t> >,1>::_Get_first
PUBLIC	?_Get_first@?$_Compressed_pair@U?$_Wrap_alloc@V?$allocator@_W@std@@@std@@V?$_String_val@U?$_Simple_types@_W@std@@@2@$00@std@@QEBAAEBU?$_Wrap_alloc@V?$allocator@_W@std@@@2@XZ ; std::_Compressed_pair<std::_Wrap_alloc<std::allocator<wchar_t> >,std::_String_val<std::_Simple_types<wchar_t> >,1>::_Get_first
PUBLIC	?_Get_second@?$_Compressed_pair@U?$_Wrap_alloc@V?$allocator@_W@std@@@std@@V?$_String_val@U?$_Simple_types@_W@std@@@2@$00@std@@QEAAAEAV?$_String_val@U?$_Simple_types@_W@std@@@2@XZ ; std::_Compressed_pair<std::_Wrap_alloc<std::allocator<wchar_t> >,std::_String_val<std::_Simple_types<wchar_t> >,1>::_Get_second
PUBLIC	?_Get_second@?$_Compressed_pair@U?$_Wrap_alloc@V?$allocator@_W@std@@@std@@V?$_String_val@U?$_Simple_types@_W@std@@@2@$00@std@@QEBAAEBV?$_String_val@U?$_Simple_types@_W@std@@@2@XZ ; std::_Compressed_pair<std::_Wrap_alloc<std::allocator<wchar_t> >,std::_String_val<std::_Simple_types<wchar_t> >,1>::_Get_second
PUBLIC	??1?$_Compressed_pair@U?$_Wrap_alloc@V?$allocator@_W@std@@@std@@V?$_String_val@U?$_Simple_types@_W@std@@@2@$00@std@@QEAA@XZ ; std::_Compressed_pair<std::_Wrap_alloc<std::allocator<wchar_t> >,std::_String_val<std::_Simple_types<wchar_t> >,1>::~_Compressed_pair<std::_Wrap_alloc<std::allocator<wchar_t> >,std::_String_val<std::_Simple_types<wchar_t> >,1>
PUBLIC	??0?$basic_string@_WU?$char_traits@_W@std@@V?$allocator@_W@2@@std@@QEAA@PEB_W@Z ; std::basic_string<wchar_t,std::char_traits<wchar_t>,std::allocator<wchar_t> >::basic_string<wchar_t,std::char_traits<wchar_t>,std::allocator<wchar_t> >
PUBLIC	?assign@?$basic_string@_WU?$char_traits@_W@std@@V?$allocator@_W@2@@std@@QEAAAEAV12@AEBV12@_K1@Z ; std::basic_string<wchar_t,std::char_traits<wchar_t>,std::allocator<wchar_t> >::assign
PUBLIC	?assign@?$basic_string@_WU?$char_traits@_W@std@@V?$allocator@_W@2@@std@@QEAAAEAV12@PEB_W_K@Z ; std::basic_string<wchar_t,std::char_traits<wchar_t>,std::allocator<wchar_t> >::assign
PUBLIC	?assign@?$basic_string@_WU?$char_traits@_W@std@@V?$allocator@_W@2@@std@@QEAAAEAV12@PEB_W@Z ; std::basic_string<wchar_t,std::char_traits<wchar_t>,std::allocator<wchar_t> >::assign
PUBLIC	?erase@?$basic_string@_WU?$char_traits@_W@std@@V?$allocator@_W@2@@std@@QEAAAEAV12@_K@Z ; std::basic_string<wchar_t,std::char_traits<wchar_t>,std::allocator<wchar_t> >::erase
PUBLIC	?erase@?$basic_string@_WU?$char_traits@_W@std@@V?$allocator@_W@2@@std@@QEAAAEAV12@_K0@Z ; std::basic_string<wchar_t,std::char_traits<wchar_t>,std::allocator<wchar_t> >::erase
PUBLIC	?max_size@?$basic_string@_WU?$char_traits@_W@std@@V?$allocator@_W@2@@std@@QEBA_KXZ ; std::basic_string<wchar_t,std::char_traits<wchar_t>,std::allocator<wchar_t> >::max_size
PUBLIC	?_Clamp_suffix_size@?$basic_string@_WU?$char_traits@_W@std@@V?$allocator@_W@2@@std@@QEBA_K_K0@Z ; std::basic_string<wchar_t,std::char_traits<wchar_t>,std::allocator<wchar_t> >::_Clamp_suffix_size
PUBLIC	?_Copy@?$basic_string@_WU?$char_traits@_W@std@@V?$allocator@_W@2@@std@@QEAAX_K0@Z ; std::basic_string<wchar_t,std::char_traits<wchar_t>,std::allocator<wchar_t> >::_Copy
PUBLIC	?_Eos@?$basic_string@_WU?$char_traits@_W@std@@V?$allocator@_W@2@@std@@QEAAX_K@Z ; std::basic_string<wchar_t,std::char_traits<wchar_t>,std::allocator<wchar_t> >::_Eos
PUBLIC	?_Grow@?$basic_string@_WU?$char_traits@_W@std@@V?$allocator@_W@2@@std@@QEAA_N_K_N@Z ; std::basic_string<wchar_t,std::char_traits<wchar_t>,std::allocator<wchar_t> >::_Grow
PUBLIC	?_Inside@?$basic_string@_WU?$char_traits@_W@std@@V?$allocator@_W@2@@std@@QEAA_NPEB_W@Z ; std::basic_string<wchar_t,std::char_traits<wchar_t>,std::allocator<wchar_t> >::_Inside
PUBLIC	?_Tidy@?$basic_string@_WU?$char_traits@_W@std@@V?$allocator@_W@2@@std@@QEAAX_N_K@Z ; std::basic_string<wchar_t,std::char_traits<wchar_t>,std::allocator<wchar_t> >::_Tidy
PUBLIC	?_Xlen@?$basic_string@_WU?$char_traits@_W@std@@V?$allocator@_W@2@@std@@QEBAXXZ ; std::basic_string<wchar_t,std::char_traits<wchar_t>,std::allocator<wchar_t> >::_Xlen
PUBLIC	?_Check_offset@?$basic_string@_WU?$char_traits@_W@std@@V?$allocator@_W@2@@std@@QEBAX_K@Z ; std::basic_string<wchar_t,std::char_traits<wchar_t>,std::allocator<wchar_t> >::_Check_offset
PUBLIC	?_Xran@?$basic_string@_WU?$char_traits@_W@std@@V?$allocator@_W@2@@std@@QEBAXXZ ; std::basic_string<wchar_t,std::char_traits<wchar_t>,std::allocator<wchar_t> >::_Xran
PUBLIC	?XMConvertToRadians@DirectX@@YAMM@Z		; DirectX::XMConvertToRadians
PUBLIC	??BXMVECTORI32@DirectX@@QEBA?AT__m128@@XZ	; DirectX::XMVECTORI32::operator __m128
PUBLIC	??BXMVECTORU32@DirectX@@QEBA?AT__m128@@XZ	; DirectX::XMVECTORU32::operator __m128
PUBLIC	??GDirectX@@YQ?AT__m128@@T1@@Z			; DirectX::operator-
PUBLIC	??HDirectX@@YQ?AT__m128@@T1@0@Z			; DirectX::operator+
PUBLIC	??GDirectX@@YQ?AT__m128@@T1@0@Z			; DirectX::operator-
PUBLIC	??DDirectX@@YQ?AT__m128@@T1@M@Z			; DirectX::operator*
PUBLIC	??0XMMATRIX@DirectX@@QEAA@XZ			; DirectX::XMMATRIX::XMMATRIX
PUBLIC	??DXMMATRIX@DirectX@@QEBQ?AU01@U01@@Z		; DirectX::XMMATRIX::operator*
PUBLIC	??0XMFLOAT3@DirectX@@QEAA@XZ			; DirectX::XMFLOAT3::XMFLOAT3
PUBLIC	??0XMFLOAT3@DirectX@@QEAA@MMM@Z			; DirectX::XMFLOAT3::XMFLOAT3
PUBLIC	??4XMFLOAT3@DirectX@@QEAAAEAU01@AEBU01@@Z	; DirectX::XMFLOAT3::operator=
PUBLIC	??0XMFLOAT4@DirectX@@QEAA@XZ			; DirectX::XMFLOAT4::XMFLOAT4
PUBLIC	?XMLoadFloat3@DirectX@@YQ?AT__m128@@PEBUXMFLOAT3@1@@Z ; DirectX::XMLoadFloat3
PUBLIC	?XMLoadFloat4@DirectX@@YQ?AT__m128@@PEBUXMFLOAT4@1@@Z ; DirectX::XMLoadFloat4
PUBLIC	?XMLoadFloat4x4@DirectX@@YQ?AUXMMATRIX@1@PEBUXMFLOAT4X4@1@@Z ; DirectX::XMLoadFloat4x4
PUBLIC	?XMStoreFloat3@DirectX@@YQXPEAUXMFLOAT3@1@T__m128@@@Z ; DirectX::XMStoreFloat3
PUBLIC	?XMStoreFloat4@DirectX@@YQXPEAUXMFLOAT4@1@T__m128@@@Z ; DirectX::XMStoreFloat4
PUBLIC	?XMStoreFloat4x4@DirectX@@YQXPEAUXMFLOAT4X4@1@UXMMATRIX@1@@Z ; DirectX::XMStoreFloat4x4
PUBLIC	?XMVectorSet@DirectX@@YQ?AT__m128@@MMMM@Z	; DirectX::XMVectorSet
PUBLIC	?XMVectorGetX@DirectX@@YQMT__m128@@@Z		; DirectX::XMVectorGetX
PUBLIC	?XMVectorGetY@DirectX@@YQMT__m128@@@Z		; DirectX::XMVectorGetY
PUBLIC	?XMVectorGetZ@DirectX@@YQMT__m128@@@Z		; DirectX::XMVectorGetZ
PUBLIC	?XMVectorSetX@DirectX@@YQ?AT__m128@@T2@M@Z	; DirectX::XMVectorSetX
PUBLIC	?XMVectorSetY@DirectX@@YQ?AT__m128@@T2@M@Z	; DirectX::XMVectorSetY
PUBLIC	?XMVectorSetZ@DirectX@@YQ?AT__m128@@T2@M@Z	; DirectX::XMVectorSetZ
PUBLIC	?XMVectorNegate@DirectX@@YQ?AT__m128@@T2@@Z	; DirectX::XMVectorNegate
PUBLIC	?XMVectorAdd@DirectX@@YQ?AT__m128@@T2@0@Z	; DirectX::XMVectorAdd
PUBLIC	?XMVectorSubtract@DirectX@@YQ?AT__m128@@T2@0@Z	; DirectX::XMVectorSubtract
PUBLIC	?XMVectorScale@DirectX@@YQ?AT__m128@@T2@M@Z	; DirectX::XMVectorScale
PUBLIC	?XMVectorLerp@DirectX@@YQ?AT__m128@@T2@0M@Z	; DirectX::XMVectorLerp
PUBLIC	?XMVector3Dot@DirectX@@YQ?AT__m128@@T2@0@Z	; DirectX::XMVector3Dot
PUBLIC	?XMVector3Cross@DirectX@@YQ?AT__m128@@T2@0@Z	; DirectX::XMVector3Cross
PUBLIC	?XMVector3Length@DirectX@@YQ?AT__m128@@T2@@Z	; DirectX::XMVector3Length
PUBLIC	?XMVector3Normalize@DirectX@@YQ?AT__m128@@T2@@Z	; DirectX::XMVector3Normalize
PUBLIC	?XMMatrixMultiply@DirectX@@YQ?AUXMMATRIX@1@U21@AEBU21@@Z ; DirectX::XMMatrixMultiply
PUBLIC	??0tagColliderDesc@CCollider@Engine@@QEAA@XZ	; Engine::CCollider::tagColliderDesc::tagColliderDesc
PUBLIC	??1CEnemy@Client@@UEAA@XZ			; Client::CEnemy::~CEnemy
PUBLIC	??0CBoss@Client@@QEAA@PEAUID3D11Device@@PEAUID3D11DeviceContext@@@Z ; Client::CBoss::CBoss
PUBLIC	??0CBoss@Client@@QEAA@AEBV01@@Z			; Client::CBoss::CBoss
PUBLIC	??1CBoss@Client@@UEAA@XZ			; Client::CBoss::~CBoss
PUBLIC	?Initialize_Prototype@CBoss@Client@@UEAAJXZ	; Client::CBoss::Initialize_Prototype
PUBLIC	?Initialize@CBoss@Client@@UEAAJPEAX@Z		; Client::CBoss::Initialize
PUBLIC	?Tick@CBoss@Client@@UEAAXN@Z			; Client::CBoss::Tick
PUBLIC	?LateTick@CBoss@Client@@UEAAXN@Z		; Client::CBoss::LateTick
PUBLIC	?Render@CBoss@Client@@UEAAJXZ			; Client::CBoss::Render
PUBLIC	?RenderGUI@CBoss@Client@@UEAAXXZ		; Client::CBoss::RenderGUI
PUBLIC	?AddComponents@CBoss@Client@@AEAAJXZ		; Client::CBoss::AddComponents
PUBLIC	?SetupShaderResources@CBoss@Client@@AEAAJXZ	; Client::CBoss::SetupShaderResources
PUBLIC	?Spawn@CBoss@Client@@QEAAXXZ			; Client::CBoss::Spawn
PUBLIC	?MoveForward@CBoss@Client@@QEAAXN@Z		; Client::CBoss::MoveForward
PUBLIC	?MoveBackword@CBoss@Client@@QEAAXN@Z		; Client::CBoss::MoveBackword
PUBLIC	?LineSkill@CBoss@Client@@QEAAXNH@Z		; Client::CBoss::LineSkill
PUBLIC	?Missile1@CBoss@Client@@QEAAXN@Z		; Client::CBoss::Missile1
PUBLIC	?CloseAttack@CBoss@Client@@QEAAXN@Z		; Client::CBoss::CloseAttack
PUBLIC	?Burrow@CBoss@Client@@QEAAXN@Z			; Client::CBoss::Burrow
PUBLIC	?Evolution@CBoss@Client@@QEAAXN@Z		; Client::CBoss::Evolution
PUBLIC	?ColseAttack2@CBoss@Client@@QEAAXN@Z		; Client::CBoss::ColseAttack2
PUBLIC	?LineSkill2@CBoss@Client@@QEAAXN@Z		; Client::CBoss::LineSkill2
PUBLIC	?LastAttack@CBoss@Client@@QEAAXN@Z		; Client::CBoss::LastAttack
PUBLIC	?GetLengthFromPlayer@CBoss@Client@@QEBAMXZ	; Client::CBoss::GetLengthFromPlayer
PUBLIC	?CloseToPlayer@CBoss@Client@@QEAA_NXZ		; Client::CBoss::CloseToPlayer
PUBLIC	?LookTarget@CBoss@Client@@QEAA_NNM@Z		; Client::CBoss::LookTarget
PUBLIC	?SetupState@CBoss@Client@@AEAAXW4BOSS_CLIP@12@W4TYPE@CAnimation@Engine@@_N@Z ; Client::CBoss::SetupState
PUBLIC	?DefaultAnimation@CBoss@Client@@AEAAXN@Z	; Client::CBoss::DefaultAnimation
PUBLIC	?EvolutionAnimation@CBoss@Client@@AEAAXN@Z	; Client::CBoss::EvolutionAnimation
PUBLIC	?AnimationController@CBoss@Client@@AEAAXN@Z	; Client::CBoss::AnimationController
PUBLIC	?SetupColliders@CBoss@Client@@AEAAXXZ		; Client::CBoss::SetupColliders
PUBLIC	?GetPosition@CBoss@Client@@UEAA?AUXMFLOAT4@DirectX@@XZ ; Client::CBoss::GetPosition
PUBLIC	?GetLengthFromCamera@CBoss@Client@@UEAAMXZ	; Client::CBoss::GetLengthFromCamera
PUBLIC	?GetBodyCollider@CBoss@Client@@UEAAPEAVCCollider@Engine@@XZ ; Client::CBoss::GetBodyCollider
PUBLIC	?GetWeaponCollider@CBoss@Client@@UEAAPEAVCCollider@Engine@@XZ ; Client::CBoss::GetWeaponCollider
PUBLIC	?GetOverlapCollider@CBoss@Client@@UEAAPEAVCCollider@Engine@@XZ ; Client::CBoss::GetOverlapCollider
PUBLIC	?Create@CBoss@Client@@SAPEAV12@PEAUID3D11Device@@PEAUID3D11DeviceContext@@@Z ; Client::CBoss::Create
PUBLIC	?Clone@CBoss@Client@@UEAAPEAVCGameObject@Engine@@PEAX@Z ; Client::CBoss::Clone
PUBLIC	?Free@CBoss@Client@@UEAAXXZ			; Client::CBoss::Free
PUBLIC	??_GCBoss@Client@@UEAAPEAXI@Z			; Client::CBoss::`scalar deleting destructor'
PUBLIC	?IsFreeze@CApplicationManager@Client@@QEBA_NXZ	; Client::CApplicationManager::IsFreeze
PUBLIC	?GetOffSetMatrix@CBone@Engine@@QEBA?AUXMFLOAT4X4@DirectX@@XZ ; Engine::CBone::GetOffSetMatrix
PUBLIC	?GetCombinedMatrix@CBone@Engine@@QEBA?AUXMFLOAT4X4@DirectX@@XZ ; Engine::CBone::GetCombinedMatrix
PUBLIC	?SetType@CThorn@Client@@QEAAXW4TYPE@12@@Z	; Client::CThorn::SetType
PUBLIC	?SetMoveStart@CThorn@Client@@QEAAXXZ		; Client::CThorn::SetMoveStart
PUBLIC	?IsRender@CThorn@Client@@QEAA_NXZ		; Client::CThorn::IsRender
PUBLIC	?IsScaleFinish@CThorn@Client@@QEAA_NXZ		; Client::CThorn::IsScaleFinish
PUBLIC	??$isnan@M@@YA_NM@Z				; isnan<float>
PUBLIC	??$Safe_Release@PEAVCBoss@Client@@@Engine@@YAKAEAPEAVCBoss@Client@@@Z ; Engine::Safe_Release<Client::CBoss * __ptr64>
PUBLIC	??$Safe_Release@PEAVCThorn@Client@@@Engine@@YAKAEAPEAVCThorn@Client@@@Z ; Engine::Safe_Release<Client::CThorn * __ptr64>
PUBLIC	??$Safe_Release@PEAVCCollider@Engine@@@Engine@@YAKAEAPEAVCCollider@0@@Z ; Engine::Safe_Release<Engine::CCollider * __ptr64>
PUBLIC	??$Safe_Release@PEAVCTransform@Engine@@@Engine@@YAKAEAPEAVCTransform@0@@Z ; Engine::Safe_Release<Engine::CTransform * __ptr64>
PUBLIC	??$?0$$V@?$_Compressed_pair@U?$_Wrap_alloc@V?$allocator@_W@std@@@std@@V?$_String_val@U?$_Simple_types@_W@std@@@2@$00@std@@QEAA@U_Zero_then_variadic_args_t@1@@Z ; std::_Compressed_pair<std::_Wrap_alloc<std::allocator<wchar_t> >,std::_String_val<std::_Simple_types<wchar_t> >,1>::_Compressed_pair<std::_Wrap_alloc<std::allocator<wchar_t> >,std::_String_val<std::_Simple_types<wchar_t> >,1><>
PUBLIC	??$addressof@PEA_W@std@@YAPEAPEA_WAEAPEA_W@Z	; std::addressof<wchar_t * __ptr64>
PUBLIC	??$destroy@PEA_W@?$_Wrap_alloc@V?$allocator@_W@std@@@std@@QEAAXPEAPEA_W@Z ; std::_Wrap_alloc<std::allocator<wchar_t> >::destroy<wchar_t * __ptr64>
PUBLIC	??$_Unfancy@_W@std@@YAPEA_WPEA_W@Z		; std::_Unfancy<wchar_t>
PUBLIC	??$_Debug_pointer@$$CB_W@std@@YAXPEB_W0I@Z	; std::_Debug_pointer<wchar_t const >
PUBLIC	??$_Debug_pointer_if@$$CB_W@std@@YAX_NPEB_W1I@Z	; std::_Debug_pointer_if<wchar_t const >
PUBLIC	?deallocate@?$allocator@U_Container_proxy@std@@@std@@QEAAXPEAU_Container_proxy@2@_K@Z ; std::allocator<std::_Container_proxy>::deallocate
PUBLIC	?allocate@?$allocator@U_Container_proxy@std@@@std@@QEAAPEAU_Container_proxy@2@_K@Z ; std::allocator<std::_Container_proxy>::allocate
PUBLIC	?address@?$_Wrap_alloc@V?$allocator@U_Container_proxy@std@@@std@@@std@@QEBAPEAU_Container_proxy@2@AEAU32@@Z ; std::_Wrap_alloc<std::allocator<std::_Container_proxy> >::address
PUBLIC	?allocate@?$_Wrap_alloc@V?$allocator@U_Container_proxy@std@@@std@@@std@@QEAAPEAU_Container_proxy@2@_K@Z ; std::_Wrap_alloc<std::allocator<std::_Container_proxy> >::allocate
PUBLIC	?deallocate@?$_Wrap_alloc@V?$allocator@U_Container_proxy@std@@@std@@@std@@QEAAXPEAU_Container_proxy@2@_K@Z ; std::_Wrap_alloc<std::allocator<std::_Container_proxy> >::deallocate
PUBLIC	??$destroy@U_Container_proxy@std@@@?$_Wrap_alloc@V?$allocator@U_Container_proxy@std@@@std@@@std@@QEAAXPEAU_Container_proxy@1@@Z ; std::_Wrap_alloc<std::allocator<std::_Container_proxy> >::destroy<std::_Container_proxy>
PUBLIC	??$_Unfancy@U_Container_proxy@std@@@std@@YAPEAU_Container_proxy@0@PEAU10@@Z ; std::_Unfancy<std::_Container_proxy>
PUBLIC	??$construct@U_Container_proxy@std@@U12@@?$_Wrap_alloc@V?$allocator@U_Container_proxy@std@@@std@@@std@@QEAAXPEAU_Container_proxy@1@$$QEAU21@@Z ; std::_Wrap_alloc<std::allocator<std::_Container_proxy> >::construct<std::_Container_proxy,std::_Container_proxy>
PUBLIC	??$?0AEAU?$_Wrap_alloc@V?$allocator@_W@std@@@std@@@?$_Wrap_alloc@V?$allocator@U_Container_proxy@std@@@std@@@std@@QEAA@AEAU?$_Wrap_alloc@V?$allocator@_W@std@@@1@@Z ; std::_Wrap_alloc<std::allocator<std::_Container_proxy> >::_Wrap_alloc<std::allocator<std::_Container_proxy> ><std::_Wrap_alloc<std::allocator<wchar_t> > & __ptr64>
PUBLIC	??$construct@PEA_WAEAPEA_W@?$_Wrap_alloc@V?$allocator@_W@std@@@std@@QEAAXPEAPEA_WAEAPEA_W@Z ; std::_Wrap_alloc<std::allocator<wchar_t> >::construct<wchar_t * __ptr64,wchar_t * __ptr64 & __ptr64>
PUBLIC	?pointer_to@?$pointer_traits@PEAU_Container_proxy@std@@@std@@SAPEAU_Container_proxy@2@AEAU32@@Z ; std::pointer_traits<std::_Container_proxy * __ptr64>::pointer_to
PUBLIC	??$addressof@U_Container_proxy@std@@@std@@YAPEAU_Container_proxy@0@AEAU10@@Z ; std::addressof<std::_Container_proxy>
PUBLIC	??$destroy@PEA_W@?$allocator_traits@V?$allocator@_W@std@@@std@@SAXAEAV?$allocator@_W@1@PEAPEA_W@Z ; std::allocator_traits<std::allocator<wchar_t> >::destroy<wchar_t * __ptr64>
PUBLIC	??$destroy@U_Container_proxy@std@@@?$allocator_traits@V?$allocator@U_Container_proxy@std@@@std@@@std@@SAXAEAV?$allocator@U_Container_proxy@std@@@1@PEAU_Container_proxy@1@@Z ; std::allocator_traits<std::allocator<std::_Container_proxy> >::destroy<std::_Container_proxy>
PUBLIC	??$forward@U_Container_proxy@std@@@std@@YA$$QEAU_Container_proxy@0@AEAU10@@Z ; std::forward<std::_Container_proxy>
PUBLIC	??$construct@U_Container_proxy@std@@U12@@?$allocator_traits@V?$allocator@U_Container_proxy@std@@@std@@@std@@SAXAEAV?$allocator@U_Container_proxy@std@@@1@PEAU_Container_proxy@1@$$QEAU31@@Z ; std::allocator_traits<std::allocator<std::_Container_proxy> >::construct<std::_Container_proxy,std::_Container_proxy>
PUBLIC	??$forward@AEAU?$_Wrap_alloc@V?$allocator@_W@std@@@std@@@std@@YAAEAU?$_Wrap_alloc@V?$allocator@_W@std@@@0@AEAU10@@Z ; std::forward<std::_Wrap_alloc<std::allocator<wchar_t> > & __ptr64>
PUBLIC	??$?0_W@?$allocator@U_Container_proxy@std@@@std@@QEAA@AEBV?$allocator@_W@1@@Z ; std::allocator<std::_Container_proxy>::allocator<std::_Container_proxy><wchar_t>
PUBLIC	??$forward@AEAPEA_W@std@@YAAEAPEA_WAEAPEA_W@Z	; std::forward<wchar_t * __ptr64 & __ptr64>
PUBLIC	??$construct@PEA_WAEAPEA_W@?$allocator_traits@V?$allocator@_W@std@@@std@@SAXAEAV?$allocator@_W@1@PEAPEA_WAEAPEA_W@Z ; std::allocator_traits<std::allocator<wchar_t> >::construct<wchar_t * __ptr64,wchar_t * __ptr64 & __ptr64>
PUBLIC	??$destroy@PEA_W@?$allocator@_W@std@@QEAAXPEAPEA_W@Z ; std::allocator<wchar_t>::destroy<wchar_t * __ptr64>
PUBLIC	??$destroy@U_Container_proxy@std@@@?$allocator@U_Container_proxy@std@@@std@@QEAAXPEAU_Container_proxy@1@@Z ; std::allocator<std::_Container_proxy>::destroy<std::_Container_proxy>
PUBLIC	??$construct@U_Container_proxy@std@@U12@@?$allocator@U_Container_proxy@std@@@std@@QEAAXPEAU_Container_proxy@1@$$QEAU21@@Z ; std::allocator<std::_Container_proxy>::construct<std::_Container_proxy,std::_Container_proxy>
PUBLIC	??$construct@PEA_WAEAPEA_W@?$allocator@_W@std@@QEAAXPEAPEA_WAEAPEA_W@Z ; std::allocator<wchar_t>::construct<wchar_t * __ptr64,wchar_t * __ptr64 & __ptr64>
PUBLIC	?__LINE__Var@?0??_Allocate@std@@YAPEAX_K0_N@Z@4JA ; `std::_Allocate'::`1'::__LINE__Var
PUBLIC	??_C@_0BE@LMNLACIC@_Ptr_container?5?$CB?$DN?50?$AA@ ; `string'
PUBLIC	??_C@_1DG@HGDKEBPG@?$AA?$CC?$AA_?$AAP?$AAt?$AAr?$AA_?$AAc?$AAo?$AAn?$AAt?$AAa?$AAi?$AAn?$AAe?$AAr?$AA?5?$AA?$CB?$AA?$DN?$AA?5?$AA0?$AA?$CC?$AA?5?$AA?$CG?$AA?$CG?$AA?5?$AA0?$AA?$AA@ ; `string'
PUBLIC	??_C@_17CNPHIMPH@?$AA?$CF?$AAl?$AAs?$AA?$AA@	; `string'
PUBLIC	??_C@_1JA@DKOIEICI@?$AAc?$AA?3?$AA?2?$AAp?$AAr?$AAo?$AAg?$AAr?$AAa?$AAm?$AA?5?$AAf?$AAi?$AAl?$AAe?$AAs?$AA?5?$AA?$CI?$AAx?$AA8?$AA6?$AA?$CJ?$AA?2?$AAm?$AAi?$AAc?$AAr?$AAo?$AAs?$AAo?$AAf?$AAt@ ; `string'
PUBLIC	??_C@_1BO@NKFMJPA@?$AAs?$AAt?$AAd?$AA?3?$AA?3?$AA_?$AAA?$AAl?$AAl?$AAo?$AAc?$AAa?$AAt?$AAe?$AA?$AA@ ; `string'
PUBLIC	??_C@_1CG@JNLFBNGN@?$AA?$CC?$AAi?$AAn?$AAv?$AAa?$AAl?$AAi?$AAd?$AA?5?$AAa?$AAr?$AAg?$AAu?$AAm?$AAe?$AAn?$AAt?$AA?$CC?$AA?$AA@ ; `string'
PUBLIC	??_C@_09GLJCAGLP@_Ptr?5?$CB?$DN?50?$AA@		; `string'
PUBLIC	??_C@_1CC@GKJLLHIM@?$AA?$CC?$AA_?$AAP?$AAt?$AAr?$AA?5?$AA?$CB?$AA?$DN?$AA?5?$AA0?$AA?$CC?$AA?5?$AA?$CG?$AA?$CG?$AA?5?$AA0?$AA?$AA@ ; `string'
PUBLIC	?__LINE__Var@?0??_Deallocate@std@@YAXPEAX_K1@Z@4JA ; `std::_Deallocate'::`1'::__LINE__Var
PUBLIC	??_C@_0BN@HMCJOMKN@_Count?5?$DM?$DN?5?$CIsize_t?$CJ?$CI?91?$CJ?5?1?5_Sz?$AA@ ; `string'
PUBLIC	??_C@_1EI@MLOBABC@?$AA?$CC?$AA_?$AAC?$AAo?$AAu?$AAn?$AAt?$AA?5?$AA?$DM?$AA?$DN?$AA?5?$AA?$CI?$AAs?$AAi?$AAz?$AAe?$AA_?$AAt?$AA?$CJ?$AA?$CI?$AA?9?$AA1?$AA?$CJ?$AA?5?$AA?1?$AA?5?$AA_?$AAS?$AAz?$AA?$CC?$AA?5?$AA?$CG@ ; `string'
PUBLIC	??_C@_1CC@LOFJFFDB@?$AAs?$AAt?$AAd?$AA?3?$AA?3?$AA_?$AAD?$AAe?$AAa?$AAl?$AAl?$AAo?$AAc?$AAa?$AAt?$AAe?$AA?$AA@ ; `string'
PUBLIC	??_C@_0DD@GBGGGKGG@?$CI_Ptr_user?5?$CG?5?$CI_BIG_ALLOCATION_AL@ ; `string'
PUBLIC	??_C@_1HE@CDMBFOKC@?$AA?$CC?$AA?$CI?$AA_?$AAP?$AAt?$AAr?$AA_?$AAu?$AAs?$AAe?$AAr?$AA?5?$AA?$CG?$AA?5?$AA?$CI?$AA_?$AAB?$AAI?$AAG?$AA_?$AAA?$AAL?$AAL?$AAO?$AAC?$AAA?$AAT?$AAI?$AAO?$AAN?$AA_?$AAA@ ; `string'
PUBLIC	??_C@_0EI@NOJHEJCJ@reinterpret_cast?$DMuintptr_t?5?$CK?$DO?$CI_P@ ; `string'
PUBLIC	??_C@_1JO@EKLKIEHP@?$AA?$CC?$AAr?$AAe?$AAi?$AAn?$AAt?$AAe?$AAr?$AAp?$AAr?$AAe?$AAt?$AA_?$AAc?$AAa?$AAs?$AAt?$AA?$DM?$AAu?$AAi?$AAn?$AAt?$AAp?$AAt?$AAr?$AA_?$AAt?$AA?5?$AA?$CK?$AA?$DO?$AA?$CI?$AA_@ ; `string'
PUBLIC	??_C@_0BL@OCKMEJON@_Ptr_container?5?$DM?5_Ptr_user?$AA@ ; `string'
PUBLIC	??_C@_1EE@PDHAHDDC@?$AA?$CC?$AA_?$AAP?$AAt?$AAr?$AA_?$AAc?$AAo?$AAn?$AAt?$AAa?$AAi?$AAn?$AAe?$AAr?$AA?5?$AA?$DM?$AA?5?$AA_?$AAP?$AAt?$AAr?$AA_?$AAu?$AAs?$AAe?$AAr?$AA?$CC?$AA?5?$AA?$CG?$AA?$CG?$AA?5@ ; `string'
PUBLIC	??_C@_0DB@GLFJLNCE@2?5?$CK?5sizeof?$CIvoid?5?$CK?$CJ?5?$DM?$DN?5_Ptr_user?5@ ; `string'
PUBLIC	??_C@_1HA@NAPGMHAO@?$AA?$CC?$AA2?$AA?5?$AA?$CK?$AA?5?$AAs?$AAi?$AAz?$AAe?$AAo?$AAf?$AA?$CI?$AAv?$AAo?$AAi?$AAd?$AA?5?$AA?$CK?$AA?$CJ?$AA?5?$AA?$DM?$AA?$DN?$AA?5?$AA_?$AAP?$AAt?$AAr?$AA_?$AAu?$AAs?$AAe?$AAr@ ; `string'
PUBLIC	??_C@_0CN@BLHJCAL@_Ptr_user?5?9?5_Ptr_container?5?$DM?$DN?5_N@ ; `string'
PUBLIC	??_C@_1GI@DHJGPFNI@?$AA?$CC?$AA_?$AAP?$AAt?$AAr?$AA_?$AAu?$AAs?$AAe?$AAr?$AA?5?$AA?9?$AA?5?$AA_?$AAP?$AAt?$AAr?$AA_?$AAc?$AAo?$AAn?$AAt?$AAa?$AAi?$AAn?$AAe?$AAr?$AA?5?$AA?$DM?$AA?$DN?$AA?5?$AA_@ ; `string'
PUBLIC	??_C@_1JE@DMOBBMDE@?$AAc?$AA?3?$AA?2?$AAp?$AAr?$AAo?$AAg?$AAr?$AAa?$AAm?$AA?5?$AAf?$AAi?$AAl?$AAe?$AAs?$AA?5?$AA?$CI?$AAx?$AA8?$AA6?$AA?$CJ?$AA?2?$AAw?$AAi?$AAn?$AAd?$AAo?$AAw?$AAs?$AA?5?$AAk@ ; `string'
PUBLIC	??_C@_1BA@LBADLIHI@?$AAp?$AAS?$AAo?$AAu?$AAr?$AAc?$AAe?$AA?$AA@ ; `string'
PUBLIC	?__LINE__Var@?0??XMLoadFloat3@DirectX@@YQ?AT__m128@@PEBUXMFLOAT3@2@@Z@4JA ; `DirectX::XMLoadFloat3'::`1'::__LINE__Var
PUBLIC	?__LINE__Var@?0??XMLoadFloat4@DirectX@@YQ?AT__m128@@PEBUXMFLOAT4@2@@Z@4JA ; `DirectX::XMLoadFloat4'::`1'::__LINE__Var
PUBLIC	?__LINE__Var@?0??XMLoadFloat4x4@DirectX@@YQ?AUXMMATRIX@2@PEBUXMFLOAT4X4@2@@Z@4JA ; `DirectX::XMLoadFloat4x4'::`1'::__LINE__Var
PUBLIC	??_C@_1BK@FHLBGAOP@?$AAp?$AAD?$AAe?$AAs?$AAt?$AAi?$AAn?$AAa?$AAt?$AAi?$AAo?$AAn?$AA?$AA@ ; `string'
PUBLIC	?__LINE__Var@?0??XMStoreFloat3@DirectX@@YQXPEAUXMFLOAT3@2@T__m128@@@Z@4JA ; `DirectX::XMStoreFloat3'::`1'::__LINE__Var
PUBLIC	?__LINE__Var@?0??XMStoreFloat4@DirectX@@YQXPEAUXMFLOAT4@2@T__m128@@@Z@4JA ; `DirectX::XMStoreFloat4'::`1'::__LINE__Var
PUBLIC	?__LINE__Var@?0??XMStoreFloat4x4@DirectX@@YQXPEAUXMFLOAT4X4@2@UXMMATRIX@2@@Z@4JA ; `DirectX::XMStoreFloat4x4'::`1'::__LINE__Var
PUBLIC	??_7CBoss@Client@@6BCGameObject@Engine@@@	; Client::CBoss::`vftable'
PUBLIC	??_7CBoss@Client@@6BIOnCollisionEnter@Engine@@@	; Client::CBoss::`vftable'
PUBLIC	??_7CBoss@Client@@6BIOnCollisionStay@Engine@@@	; Client::CBoss::`vftable'
PUBLIC	??_7CBoss@Client@@6BIOnCollisionExit@Engine@@@	; Client::CBoss::`vftable'
PUBLIC	??_C@_1BM@CJMPMHDD@?$AAc?$AAo?$AAm?$AA_?$AAt?$AAr?$AAa?$AAn?$AAs?$AAf?$AAo?$AAr?$AAm?$AA?$AA@ ; `string'
PUBLIC	??_C@_0N@EDEIEADG@Bip001Pelvis?$AA@		; `string'
PUBLIC	??_C@_1CA@HFFNMGOE@?$AAc?$AAo?$AAm?$AA_?$AAt?$AAr?$AAa?$AAn?$AAs?$AAf?$AAo?$AAr?$AAm?$AA_?$AA0?$AA?$AA@ ; `string'
PUBLIC	??_C@_1CI@MLEFGO@?$AAp?$AAr?$AAo?$AAt?$AAo?$AA_?$AAc?$AAo?$AAm?$AA_?$AAt?$AAr?$AAa?$AAn?$AAs?$AAf?$AAo?$AAr?$AAm?$AA?$AA@ ; `string'
PUBLIC	??_C@_1CA@MNOBKBIB@?$AAc?$AAo?$AAm?$AA_?$AAt?$AAr?$AAa?$AAn?$AAs?$AAf?$AAo?$AAr?$AAm?$AA_?$AA1?$AA?$AA@ ; `string'
PUBLIC	??_C@_1CA@NPFEAOGP@?$AAc?$AAo?$AAm?$AA_?$AAt?$AAr?$AAa?$AAn?$AAs?$AAf?$AAo?$AAr?$AAm?$AA_?$AA2?$AA?$AA@ ; `string'
PUBLIC	??_C@_1CA@GHOIGJAK@?$AAc?$AAo?$AAm?$AA_?$AAt?$AAr?$AAa?$AAn?$AAs?$AAf?$AAo?$AAr?$AAm?$AA_?$AA3?$AA?$AA@ ; `string'
PUBLIC	??_C@_1CA@PKDPFBLD@?$AAc?$AAo?$AAm?$AA_?$AAt?$AAr?$AAa?$AAn?$AAs?$AAf?$AAo?$AAr?$AAm?$AA_?$AA4?$AA?$AA@ ; `string'
PUBLIC	??_C@_1CA@ECIDDGNG@?$AAc?$AAo?$AAm?$AA_?$AAt?$AAr?$AAa?$AAn?$AAs?$AAf?$AAo?$AAr?$AAm?$AA_?$AA5?$AA?$AA@ ; `string'
PUBLIC	??_C@_1CA@FADGJJDI@?$AAc?$AAo?$AAm?$AA_?$AAt?$AAr?$AAa?$AAn?$AAs?$AAf?$AAo?$AAr?$AAm?$AA_?$AA6?$AA?$AA@ ; `string'
PUBLIC	??_C@_1CA@OIIKPOFN@?$AAc?$AAo?$AAm?$AA_?$AAt?$AAr?$AAa?$AAn?$AAs?$AAf?$AAo?$AAr?$AAm?$AA_?$AA7?$AA?$AA@ ; `string'
PUBLIC	??_C@_1CA@LAOJOOAL@?$AAc?$AAo?$AAm?$AA_?$AAt?$AAr?$AAa?$AAn?$AAs?$AAf?$AAo?$AAr?$AAm?$AA_?$AA8?$AA?$AA@ ; `string'
PUBLIC	??_C@_1BM@FHBMMBJF@?$AAc?$AAo?$AAm?$AA_?$AAc?$AAo?$AAl?$AAl?$AAi?$AAd?$AAe?$AAr?$AA0?$AA?$AA@ ; `string'
PUBLIC	??_C@_1DE@OCAJEKIC@?$AAp?$AAr?$AAo?$AAt?$AAo?$AA_?$AAc?$AAo?$AAm?$AA_?$AAs?$AAp?$AAh?$AAe?$AAr?$AAe?$AA_?$AAc?$AAo?$AAl?$AAl?$AAi?$AAd?$AAe?$AAr?$AA?$AA@ ; `string'
PUBLIC	??_C@_1BM@OPKAKGPA@?$AAc?$AAo?$AAm?$AA_?$AAc?$AAo?$AAl?$AAl?$AAi?$AAd?$AAe?$AAr?$AA1?$AA?$AA@ ; `string'
PUBLIC	??_C@_1BM@PNBFAJBO@?$AAc?$AAo?$AAm?$AA_?$AAc?$AAo?$AAl?$AAl?$AAi?$AAd?$AAe?$AAr?$AA2?$AA?$AA@ ; `string'
PUBLIC	??_C@_1BM@EFKJGOHL@?$AAc?$AAo?$AAm?$AA_?$AAc?$AAo?$AAl?$AAl?$AAi?$AAd?$AAe?$AAr?$AA3?$AA?$AA@ ; `string'
PUBLIC	??_C@_1BM@NIHOFGMC@?$AAc?$AAo?$AAm?$AA_?$AAc?$AAo?$AAl?$AAl?$AAi?$AAd?$AAe?$AAr?$AA4?$AA?$AA@ ; `string'
PUBLIC	??_C@_1BM@GAMCDBKH@?$AAc?$AAo?$AAm?$AA_?$AAc?$AAo?$AAl?$AAl?$AAi?$AAd?$AAe?$AAr?$AA5?$AA?$AA@ ; `string'
PUBLIC	??_C@_1BM@HCHHJOEJ@?$AAc?$AAo?$AAm?$AA_?$AAc?$AAo?$AAl?$AAl?$AAi?$AAd?$AAe?$AAr?$AA6?$AA?$AA@ ; `string'
PUBLIC	??_C@_1BM@MKMLPJCM@?$AAc?$AAo?$AAm?$AA_?$AAc?$AAo?$AAl?$AAl?$AAi?$AAd?$AAe?$AAr?$AA7?$AA?$AA@ ; `string'
PUBLIC	??_C@_1BM@JCKIOJHK@?$AAc?$AAo?$AAm?$AA_?$AAc?$AAo?$AAl?$AAl?$AAi?$AAd?$AAe?$AAr?$AA8?$AA?$AA@ ; `string'
PUBLIC	??_C@_11LOCGONAA@?$AA?$AA@			; `string'
PUBLIC	??_C@_1BK@ONCOILOB@?$AAt?$AAh?$AAo?$AAr?$AAn?$AA1?$AA_?$AA?$CF?$AAd?$AA_?$AA?$CF?$AAd?$AA?$AA@ ; `string'
PUBLIC	??_C@_1BK@BHJMDNLM@?$AAl?$AAa?$AAy?$AAe?$AAr?$AA_?$AAe?$AAf?$AAf?$AAe?$AAc?$AAt?$AA?$AA@ ; `string'
PUBLIC	??_C@_1CA@CEJBEGPA@?$AAp?$AAr?$AAo?$AAt?$AAo?$AA_?$AAo?$AAb?$AAj?$AA_?$AAt?$AAh?$AAo?$AAr?$AAn?$AA?$AA@ ; `string'
PUBLIC	??_C@_1BK@MEOGDPBD@?$AAt?$AAh?$AAo?$AAr?$AAn?$AA2?$AA_?$AA?$CF?$AAd?$AA_?$AA?$CF?$AAd?$AA?$AA@ ; `string'
PUBLIC	??_C@_1CI@BIJJEMHJ@?$AAt?$AAh?$AAo?$AAr?$AAn?$AAM?$AAi?$AAs?$AAs?$AAi?$AAl?$AAe?$AAL?$AAe?$AAf?$AAt?$AA_?$AA?$CF?$AAd?$AA?$AA@ ; `string'
PUBLIC	??_C@_1CM@ICFLDBFK@?$AAt?$AAh?$AAo?$AAr?$AAn?$AAM?$AAi?$AAs?$AAs?$AAi?$AAl?$AAe?$AAM?$AAi?$AAd?$AAd?$AAl?$AAe?$AA_?$AA?$CF?$AAd?$AA?$AA@ ; `string'
PUBLIC	??_C@_1CK@HPELMHCN@?$AAt?$AAh?$AAo?$AAr?$AAn?$AAM?$AAi?$AAs?$AAs?$AAi?$AAl?$AAe?$AAR?$AAi?$AAg?$AAh?$AAt?$AA_?$AA?$CF?$AAd?$AA?$AA@ ; `string'
PUBLIC	??_C@_1BK@GJHEPGEB@?$AAt?$AAh?$AAo?$AAr?$AAn?$AAC?$AAl?$AAo?$AAs?$AAe?$AA?$CF?$AAd?$AA?$AA@ ; `string'
PUBLIC	??_C@_1CE@GCAANBFN@?$AAt?$AAh?$AAo?$AAr?$AAn?$AAC?$AAl?$AAo?$AAs?$AAe?$AAR?$AAi?$AAg?$AAh?$AAt?$AA?$CF?$AAd?$AA?$AA@ ; `string'
PUBLIC	??_C@_1CC@EIOALEPB@?$AAt?$AAh?$AAo?$AAr?$AAn?$AAC?$AAl?$AAo?$AAs?$AAe?$AAL?$AAe?$AAf?$AAt?$AA?$CF?$AAd?$AA?$AA@ ; `string'
PUBLIC	??_C@_1CE@HCIOKCHM@?$AAt?$AAh?$AAo?$AAr?$AAn?$AAC?$AAl?$AAo?$AAs?$AAe?$AAF?$AAr?$AAo?$AAn?$AAt?$AA?$CF?$AAd?$AA?$AA@ ; `string'
PUBLIC	??_C@_1CM@MOBMIKOH@?$AAt?$AAh?$AAo?$AAr?$AAn?$AAC?$AAl?$AAo?$AAs?$AAe?$AAL?$AAe?$AAf?$AAt?$AAF?$AAr?$AAo?$AAn?$AAt?$AA?$CF?$AAd?$AA?$AA@ ; `string'
PUBLIC	??_C@_1CO@IDJBOHOA@?$AAt?$AAh?$AAo?$AAr?$AAn?$AAC?$AAl?$AAo?$AAs?$AAe?$AAR?$AAi?$AAg?$AAh?$AAt?$AAF?$AAr?$AAo?$AAn?$AAt?$AA?$CF?$AAd?$AA?$AA@ ; `string'
PUBLIC	??_C@_0O@PFNLPMLD@g_WorldMatrix?$AA@		; `string'
PUBLIC	??_C@_05KKFOKGIE@Cheek?$AA@			; `string'
PUBLIC	??_C@_07ICGMBDOO@Cheek01?$AA@			; `string'
PUBLIC	??_C@_0BB@FMIBAICL@g_DiffuseTexture?$AA@	; `string'
PUBLIC	??_C@_0N@OEHGEODD@g_BoneMatrix?$AA@		; `string'
PUBLIC	??_C@_1BK@GIOMOCNE@?$AAc?$AAo?$AAm?$AA_?$AAr?$AAe?$AAn?$AAd?$AAe?$AAr?$AAe?$AAr?$AA?$AA@ ; `string'
PUBLIC	??_C@_1CG@COFFFCLL@?$AAp?$AAr?$AAo?$AAt?$AAo?$AA_?$AAc?$AAo?$AAm?$AA_?$AAr?$AAe?$AAn?$AAd?$AAe?$AAr?$AAe?$AAr?$AA?$AA@ ; `string'
PUBLIC	??_C@_1CG@LBKFHPBD@?$AAc?$AAo?$AAm?$AA_?$AAt?$AAr?$AAa?$AAn?$AAs?$AAf?$AAo?$AAr?$AAm?$AA_?$AAb?$AAo?$AAd?$AAy?$AA?$AA@ ; `string'
PUBLIC	??_C@_1BG@GGOMMBBL@?$AAc?$AAo?$AAm?$AA_?$AAs?$AAh?$AAa?$AAd?$AAe?$AAr?$AA?$AA@ ; `string'
PUBLIC	??_C@_1DM@OGMOEMJ@?$AAp?$AAr?$AAo?$AAt?$AAo?$AA_?$AAc?$AAo?$AAm?$AA_?$AAs?$AAh?$AAa?$AAd?$AAe?$AAr?$AA_?$AAv?$AAt?$AAx?$AAa?$AAn?$AAi?$AAm?$AAm?$AAo?$AAd?$AAe?$AAl?$AA?$AA@ ; `string'
PUBLIC	??_C@_1BE@MLNOEPCA@?$AAc?$AAo?$AAm?$AA_?$AAm?$AAo?$AAd?$AAe?$AAl?$AA?$AA@ ; `string'
PUBLIC	??_C@_1CK@PJFCFLHC@?$AAp?$AAr?$AAo?$AAt?$AAo?$AA_?$AAc?$AAo?$AAm?$AA_?$AAm?$AAo?$AAd?$AAe?$AAl?$AA_?$AAb?$AAo?$AAs?$AAs?$AA?$AA@ ; `string'
PUBLIC	??_C@_1BK@BKCENIHA@?$AAc?$AAo?$AAm?$AA_?$AAc?$AAo?$AAl?$AAl?$AAi?$AAd?$AAe?$AAr?$AA?$AA@ ; `string'
PUBLIC	??_C@_1CO@HJBGOIAH@?$AAp?$AAr?$AAo?$AAt?$AAo?$AA_?$AAc?$AAo?$AAm?$AA_?$AAo?$AAb?$AAb?$AA_?$AAc?$AAo?$AAl?$AAl?$AAi?$AAd?$AAe?$AAr?$AA?$AA@ ; `string'
PUBLIC	??_C@_1CE@JKMOMFCH@?$AAc?$AAo?$AAm?$AA_?$AAc?$AAo?$AAl?$AAl?$AAd?$AAe?$AAr?$AA_?$AAe?$AAn?$AAe?$AAm?$AAy?$AA?$AA@ ; `string'
PUBLIC	??_C@_0N@ELIMCBLG@g_ViewMatrix?$AA@		; `string'
PUBLIC	??_C@_0N@OOHDPIO@g_ProjMatrix?$AA@		; `string'
PUBLIC	??_C@_0P@BDEIJKBM@g_vCamPosition?$AA@		; `string'
PUBLIC	??_C@_0M@NHGOLGEL@g_vLightDir?$AA@		; `string'
PUBLIC	??_C@_0BA@PCOGIHOF@g_vLightDiffuse?$AA@		; `string'
PUBLIC	??_C@_0BB@IJIIKIH@g_vLightSpecular?$AA@		; `string'
PUBLIC	??_C@_0BA@EALGDMPJ@g_vLightAmbient?$AA@		; `string'
PUBLIC	??_C@_07NJCOLGJG@BoneHip?$AA@			; `string'
PUBLIC	?__LINE__Var@?0??Create@CBoss@Client@@SAPEAV23@PEAUID3D11Device@@PEAUID3D11DeviceContext@@@Z@4JA ; `Client::CBoss::Create'::`1'::__LINE__Var
PUBLIC	??_C@_0EC@DBBJIPGP@c?3?2users?2arcco?2documents?2github?2@ ; `string'
PUBLIC	??_C@_1BA@HHOMBECE@?$AAM?$AAe?$AAs?$AAs?$AAa?$AAg?$AAe?$AA?$AA@ ; `string'
PUBLIC	??_C@_1DC@LANGOHIF@?$AAF?$AAa?$AAi?$AAl?$AAe?$AAd?$AA?5?$AAt?$AAo?$AA?5?$AAC?$AAr?$AAe?$AAa?$AAt?$AAe?$AA?5?$AA?3?$AA?5?$AAC?$AAB?$AAo?$AAs?$AAs?$AA?$AA@ ; `string'
PUBLIC	?__LINE__Var@?0??Clone@CBoss@Client@@UEAAPEAVCGameObject@Engine@@PEAX@Z@4JA ; `Client::CBoss::Clone'::`1'::__LINE__Var
PUBLIC	??_C@_1DA@BKHIPPE@?$AAF?$AAa?$AAi?$AAl?$AAe?$AAd?$AA?5?$AAt?$AAo?$AA?5?$AAC?$AAl?$AAo?$AAn?$AAe?$AA?5?$AA?3?$AA?5?$AAC?$AAB?$AAo?$AAs?$AAs?$AA?$AA@ ; `string'
PUBLIC	??_C@_1IO@EADHKMNI@?$AAc?$AA?3?$AA?2?$AAp?$AAr?$AAo?$AAg?$AAr?$AAa?$AAm?$AA?5?$AAf?$AAi?$AAl?$AAe?$AAs?$AA?5?$AA?$CI?$AAx?$AA8?$AA6?$AA?$CJ?$AA?2?$AAm?$AAi?$AAc?$AAr?$AAo?$AAs?$AAo?$AAf?$AAt@ ; `string'
PUBLIC	??_C@_0BA@JFNIOLAK@string?5too?5long?$AA@	; `string'
PUBLIC	??_C@_0BI@CFPLBAOH@invalid?5string?5position?$AA@ ; `string'
PUBLIC	??_C@_1CK@EOPGIILJ@?$AAi?$AAn?$AAv?$AAa?$AAl?$AAi?$AAd?$AA?5?$AAn?$AAu?$AAl?$AAl?$AA?5?$AAp?$AAo?$AAi?$AAn?$AAt?$AAe?$AAr?$AA?$AA@ ; `string'
PUBLIC	??_R4CBoss@Client@@6BCGameObject@Engine@@@	; Client::CBoss::`RTTI Complete Object Locator'
PUBLIC	??_R0?AVCBoss@Client@@@8			; Client::CBoss `RTTI Type Descriptor'
PUBLIC	??_R3CBoss@Client@@8				; Client::CBoss::`RTTI Class Hierarchy Descriptor'
PUBLIC	??_R2CBoss@Client@@8				; Client::CBoss::`RTTI Base Class Array'
PUBLIC	??_R1A@?0A@EA@CBoss@Client@@8			; Client::CBoss::`RTTI Base Class Descriptor at (0,-1,0,64)'
PUBLIC	??_R1A@?0A@EA@CEnemy@Client@@8			; Client::CEnemy::`RTTI Base Class Descriptor at (0,-1,0,64)'
PUBLIC	??_R0?AVCEnemy@Client@@@8			; Client::CEnemy `RTTI Type Descriptor'
PUBLIC	??_R3CEnemy@Client@@8				; Client::CEnemy::`RTTI Class Hierarchy Descriptor'
PUBLIC	??_R2CEnemy@Client@@8				; Client::CEnemy::`RTTI Base Class Array'
PUBLIC	??_R1A@?0A@EA@CGameObject@Engine@@8		; Engine::CGameObject::`RTTI Base Class Descriptor at (0,-1,0,64)'
PUBLIC	??_R0?AVCGameObject@Engine@@@8			; Engine::CGameObject `RTTI Type Descriptor'
PUBLIC	??_R3CGameObject@Engine@@8			; Engine::CGameObject::`RTTI Class Hierarchy Descriptor'
PUBLIC	??_R2CGameObject@Engine@@8			; Engine::CGameObject::`RTTI Base Class Array'
PUBLIC	??_R1A@?0A@EA@CBase@Engine@@8			; Engine::CBase::`RTTI Base Class Descriptor at (0,-1,0,64)'
PUBLIC	??_R0?AVCBase@Engine@@@8			; Engine::CBase `RTTI Type Descriptor'
PUBLIC	??_R3CBase@Engine@@8				; Engine::CBase::`RTTI Class Hierarchy Descriptor'
PUBLIC	??_R2CBase@Engine@@8				; Engine::CBase::`RTTI Base Class Array'
PUBLIC	??_R1HI@?0A@EA@IOnCollisionEnter@Engine@@8	; Engine::IOnCollisionEnter::`RTTI Base Class Descriptor at (120,-1,0,64)'
PUBLIC	??_R0?AVIOnCollisionEnter@Engine@@@8		; Engine::IOnCollisionEnter `RTTI Type Descriptor'
PUBLIC	??_R3IOnCollisionEnter@Engine@@8		; Engine::IOnCollisionEnter::`RTTI Class Hierarchy Descriptor'
PUBLIC	??_R2IOnCollisionEnter@Engine@@8		; Engine::IOnCollisionEnter::`RTTI Base Class Array'
PUBLIC	??_R1A@?0A@EA@IOnCollisionEnter@Engine@@8	; Engine::IOnCollisionEnter::`RTTI Base Class Descriptor at (0,-1,0,64)'
PUBLIC	??_R1IA@?0A@EA@IOnCollisionStay@Engine@@8	; Engine::IOnCollisionStay::`RTTI Base Class Descriptor at (128,-1,0,64)'
PUBLIC	??_R0?AVIOnCollisionStay@Engine@@@8		; Engine::IOnCollisionStay `RTTI Type Descriptor'
PUBLIC	??_R3IOnCollisionStay@Engine@@8			; Engine::IOnCollisionStay::`RTTI Class Hierarchy Descriptor'
PUBLIC	??_R2IOnCollisionStay@Engine@@8			; Engine::IOnCollisionStay::`RTTI Base Class Array'
PUBLIC	??_R1A@?0A@EA@IOnCollisionStay@Engine@@8	; Engine::IOnCollisionStay::`RTTI Base Class Descriptor at (0,-1,0,64)'
PUBLIC	??_R1II@?0A@EA@IOnCollisionExit@Engine@@8	; Engine::IOnCollisionExit::`RTTI Base Class Descriptor at (136,-1,0,64)'
PUBLIC	??_R0?AVIOnCollisionExit@Engine@@@8		; Engine::IOnCollisionExit `RTTI Type Descriptor'
PUBLIC	??_R3IOnCollisionExit@Engine@@8			; Engine::IOnCollisionExit::`RTTI Class Hierarchy Descriptor'
PUBLIC	??_R2IOnCollisionExit@Engine@@8			; Engine::IOnCollisionExit::`RTTI Base Class Array'
PUBLIC	??_R1A@?0A@EA@IOnCollisionExit@Engine@@8	; Engine::IOnCollisionExit::`RTTI Base Class Descriptor at (0,-1,0,64)'
PUBLIC	??_R4CBoss@Client@@6BIOnCollisionEnter@Engine@@@ ; Client::CBoss::`RTTI Complete Object Locator'
PUBLIC	??_R4CBoss@Client@@6BIOnCollisionStay@Engine@@@	; Client::CBoss::`RTTI Complete Object Locator'
PUBLIC	??_R4CBoss@Client@@6BIOnCollisionExit@Engine@@@	; Client::CBoss::`RTTI Complete Object Locator'
PUBLIC	__real@00000000
PUBLIC	__real@3c23d70a
PUBLIC	__real@3c8efa35
PUBLIC	__real@3d4ccccd
PUBLIC	__real@3dcccccd
PUBLIC	__real@3e99999a
PUBLIC	__real@3ecccccd
PUBLIC	__real@3edc28f6
PUBLIC	__real@3f000000
PUBLIC	__real@3f4ccccd
PUBLIC	__real@3f800000
PUBLIC	__real@3f8ccccd
PUBLIC	__real@3fa66666
PUBLIC	__real@3fc00000
PUBLIC	__real@3fc999999999999a
PUBLIC	__real@3fd0000000000000
PUBLIC	__real@3fd3333333333333
PUBLIC	__real@3fd999999999999a
PUBLIC	__real@3fe0000000000000
PUBLIC	__real@3fe66666
PUBLIC	__real@40000000
PUBLIC	__real@4018000000000000
PUBLIC	__real@40400000
PUBLIC	__real@40800000
PUBLIC	__real@40a00000
PUBLIC	__real@40c00000
PUBLIC	__real@41200000
PUBLIC	__real@41900000
PUBLIC	__real@41a00000
PUBLIC	__real@41a80000
PUBLIC	__real@42480000
PUBLIC	__real@43340000
PUBLIC	__real@44610000
PUBLIC	__real@469c4000
PUBLIC	__xmm@80000000800000008000000080000000
EXTRN	??2@YAPEAX_K@Z:PROC				; operator new
EXTRN	??3@YAXPEAX@Z:PROC				; operator delete
EXTRN	??3@YAXPEAX_K@Z:PROC				; operator delete
EXTRN	__imp__invalid_parameter:PROC
EXTRN	memcpy:PROC
EXTRN	__imp_memmove:PROC
EXTRN	memset:PROC
EXTRN	__imp_wcslen:PROC
EXTRN	strcmp:PROC
EXTRN	__imp_wsprintfW:PROC
EXTRN	__imp_MessageBoxW:PROC
EXTRN	__imp_rand:PROC
EXTRN	__imp__wassert:PROC
EXTRN	__imp_??0_Lockit@std@@QEAA@H@Z:PROC
EXTRN	__imp_??1_Lockit@std@@QEAA@XZ:PROC
EXTRN	__imp__fdtest:PROC
EXTRN	__imp_powf:PROC
EXTRN	??2@YAPEAX_KHPEBDH@Z:PROC			; operator new
EXTRN	??3@YAXPEAXHPEBDH@Z:PROC			; operator delete
EXTRN	__imp__CrtDbgReportW:PROC
EXTRN	__imp_?_Debug_message@std@@YAXPEB_W0I@Z:PROC
EXTRN	__imp_?_Xbad_alloc@std@@YAXXZ:PROC
EXTRN	__imp_?_Xlength_error@std@@YAXPEBD@Z:PROC
EXTRN	__imp_?_Xout_of_range@std@@YAXPEBD@Z:PROC
EXTRN	__imp_?Release@CBase@Engine@@QEAAKXZ:PROC
EXTRN	__imp_??1CGameObject@Engine@@MEAA@XZ:PROC
EXTRN	__imp_?Find_Component@CGameObject@Engine@@QEAAPEAVCComponent@2@PEB_W@Z:PROC
EXTRN	__imp_?Add_Component@CGameObject@Engine@@IEAAJIPEB_W0PEAPEAVCComponent@2@PEAX@Z:PROC
EXTRN	__imp_?IsDestroy@CGameObject@Engine@@QEAA_NXZ:PROC
EXTRN	__imp_?SetActive@CCollider@Engine@@QEAAX_N@Z:PROC
EXTRN	__imp_?IsActive@CCollider@Engine@@QEAA_NXZ:PROC
EXTRN	??0CEnemy@Client@@QEAA@PEAUID3D11Device@@PEAUID3D11DeviceContext@@@Z:PROC ; Client::CEnemy::CEnemy
EXTRN	??0CEnemy@Client@@QEAA@AEBV01@@Z:PROC		; Client::CEnemy::CEnemy
EXTRN	?Initialize_Prototype@CEnemy@Client@@UEAAJW4TYPE@12@@Z:PROC ; Client::CEnemy::Initialize_Prototype
EXTRN	?LookPlayer@CEnemy@Client@@MEAAXN@Z:PROC	; Client::CEnemy::LookPlayer
EXTRN	?Freeze@CEnemy@Client@@IEAANN@Z:PROC		; Client::CEnemy::Freeze
EXTRN	?OnCollisionEnter@CEnemy@Client@@UEAAXPEAVCCollider@Engine@@0@Z:PROC ; Client::CEnemy::OnCollisionEnter
EXTRN	?OnCollisionStay@CEnemy@Client@@UEAAXPEAVCCollider@Engine@@0@Z:PROC ; Client::CEnemy::OnCollisionStay
EXTRN	?OnCollisionExit@CEnemy@Client@@UEAAXPEAVCCollider@Engine@@0@Z:PROC ; Client::CEnemy::OnCollisionExit
EXTRN	?Free@CEnemy@Client@@UEAAXXZ:PROC		; Client::CEnemy::Free
EXTRN	??_ECBoss@Client@@UEAAPEAXI@Z:PROC		; Client::CBoss::`vector deleting destructor'
EXTRN	?GetInstance@CApplicationManager@Client@@SAPEAV12@XZ:PROC ; Client::CApplicationManager::GetInstance
EXTRN	__imp_?GetInstance@CPipeLine@Engine@@SAPEAV12@XZ:PROC
EXTRN	__imp_?Get_CamPosition@CPipeLine@Engine@@QEAA?AUXMFLOAT4@DirectX@@XZ:PROC
EXTRN	__imp_?Setup_ShaderMaterialResource@CModel@Engine@@QEAAJPEAVCShader@2@PEBDIW4aiTextureType@@@Z:PROC
EXTRN	__imp_?Setup_BoneMatrices@CModel@Engine@@QEAAJPEAVCShader@2@PEBDI@Z:PROC
EXTRN	__imp_?Setup_Animation@CModel@Engine@@QEAAJIW4TYPE@CAnimation@2@_N@Z:PROC
EXTRN	__imp_?Play_Animation@CModel@Engine@@QEAAJNPEAVCTransform@2@N_NPEAD@Z:PROC
EXTRN	__imp_?Render@CModel@Engine@@QEAAJI@Z:PROC
EXTRN	__imp_?GetMeshName@CModel@Engine@@QEAAPEBDI@Z:PROC
EXTRN	__imp_?Get_MeshCount@CModel@Engine@@QEAAIXZ:PROC
EXTRN	__imp_?GetBonePtr@CModel@Engine@@QEAAPEAVCBone@2@PEBD@Z:PROC
EXTRN	__imp_?GetLocalMatrix@CModel@Engine@@QEBA?AUXMFLOAT4X4@DirectX@@XZ:PROC
EXTRN	__imp_?AnimationCompare@CModel@Engine@@QEBA_NI@Z:PROC
EXTRN	__imp_?AnimationIsFinishEx@CModel@Engine@@QEAA_NXZ:PROC
EXTRN	__imp_?AnimationIsPreFinishCustom@CModel@Engine@@QEAA_NN@Z:PROC
EXTRN	__imp_?Get_State@CTransform@Engine@@QEAA?AT__m128@@W4STATE@12@@Z:PROC
EXTRN	__imp_?Get_WorldMatrix@CTransform@Engine@@QEAA?AUXMFLOAT4X4@DirectX@@XZ:PROC
EXTRN	__imp_?Set_WorldMatrix@CTransform@Engine@@QEAAXUXMFLOAT4X4@DirectX@@@Z:PROC
EXTRN	__imp_?Set_Scale@CTransform@Engine@@QEAAXUXMFLOAT3@DirectX@@@Z:PROC
EXTRN	__imp_?Set_State@CTransform@Engine@@QEAAXW4STATE@12@T__m128@@@Z:PROC
EXTRN	__imp_?SetRotation@CTransform@Engine@@QEAAXT__m128@@M@Z:PROC
EXTRN	__imp_?Rotate@CTransform@Engine@@QEAAXT__m128@@N@Z:PROC
EXTRN	__imp_?LookAt@CTransform@Engine@@QEAAXT__m128@@@Z:PROC
EXTRN	__imp_?Setup_ShaderResource@CTransform@Engine@@QEAAJPEAVCShader@2@PEBD@Z:PROC
EXTRN	__imp_?Add_RenderGroup@CRenderer@Engine@@QEAAJW4RENDER_GROUP@12@PEAVCGameObject@2@@Z:PROC
EXTRN	__imp_?Begin@CShader@Engine@@QEAAJI@Z:PROC
EXTRN	__imp_?SetMatrix@CShader@Engine@@QEAAJPEBDPEBUXMFLOAT4X4@DirectX@@@Z:PROC
EXTRN	__imp_?SetRawValue@CShader@Engine@@QEAAJPEBDPEBXI@Z:PROC
EXTRN	__imp_?GetInstance@CGameInstance@Engine@@SAPEAV12@XZ:PROC
EXTRN	__imp_?Add_GameObject@CGameInstance@Engine@@QEAAPEAVCGameObject@2@IPEB_W0V?$basic_string@_WU?$char_traits@_W@std@@V?$allocator@_W@2@@std@@PEAX@Z:PROC
EXTRN	__imp_?Get_Transform_float4x4@CGameInstance@Engine@@QEAA?AUXMFLOAT4X4@DirectX@@W4TRANSFORM_STATE@CPipeLine@2@@Z:PROC
EXTRN	__imp_?Get_CamPosition@CGameInstance@Engine@@QEAA?AUXMFLOAT4@DirectX@@XZ:PROC
EXTRN	__imp_?Input_KeyState_Custom@CGameInstance@Engine@@QEAA?AW4KEY_STATE@2@H@Z:PROC
EXTRN	__imp_?GetLightDesc@CGameInstance@Engine@@QEAAPEBUtagLight_Desc@2@I@Z:PROC
EXTRN	__imp_?AddCollider@CGameInstance@Engine@@QEAAJPEAVCCollider@2@I@Z:PROC
EXTRN	?Hit@CCharacter@Client@@QEAAXXZ:PROC		; Client::CCharacter::Hit
EXTRN	?RecvDamage@CCharacter@Client@@QEAAXM@Z:PROC	; Client::CCharacter::RecvDamage
EXTRN	__imp_?StartShake@CCamera@Engine@@QEAAXMMM@Z:PROC
EXTRN	?SetPosition@CThorn@Client@@QEAAXT__m128@@@Z:PROC ; Client::CThorn::SetPosition
EXTRN	?SetRotationXYZ@CThorn@Client@@QEAAXUXMFLOAT3@DirectX@@@Z:PROC ; Client::CThorn::SetRotationXYZ
EXTRN	?SetRotationToTarget@CThorn@Client@@QEAAXT__m128@@@Z:PROC ; Client::CThorn::SetRotationToTarget
EXTRN	?SetupScaleUpStart@CThorn@Client@@QEAAXM@Z:PROC	; Client::CThorn::SetupScaleUpStart
EXTRN	?SetupScaleSmoothDownStart@CThorn@Client@@QEAAXXZ:PROC ; Client::CThorn::SetupScaleSmoothDownStart
EXTRN	_CxxThrowException:PROC
EXTRN	_RTC_CheckStackVars:PROC
EXTRN	_RTC_InitBase:PROC
EXTRN	_RTC_Shutdown:PROC
EXTRN	__CxxFrameHandler3:PROC
EXTRN	__GSHandlerCheck:PROC
EXTRN	__GSHandlerCheck_EH:PROC
EXTRN	__chkstk:PROC
EXTRN	__security_check_cookie:PROC
EXTRN	??_7type_info@@6B@:BYTE				; type_info::`vftable'
EXTRN	__ImageBase:BYTE
EXTRN	__security_cookie:QWORD
EXTRN	_fltused:DWORD
;	COMDAT pdata
pdata	SEGMENT
$pdata$??_H@YAXPEAX_K1P6APEAX0@Z@Z DD imagerel $LN7
	DD	imagerel $LN7+181
	DD	imagerel $unwind$??_H@YAXPEAX_K1P6APEAX0@Z@Z
pdata	ENDS
;	COMDAT pdata
pdata	SEGMENT
$pdata$?__empty_global_delete@@YAXPEAX@Z DD imagerel $LN3
	DD	imagerel $LN3+50
	DD	imagerel $unwind$?__empty_global_delete@@YAXPEAX@Z
pdata	ENDS
;	COMDAT pdata
pdata	SEGMENT
$pdata$?__empty_global_delete@@YAXPEAX_K@Z DD imagerel $LN3
	DD	imagerel $LN3+55
	DD	imagerel $unwind$?__empty_global_delete@@YAXPEAX_K@Z
pdata	ENDS
;	COMDAT pdata
pdata	SEGMENT
$pdata$wmemcpy DD imagerel $LN3
	DD	imagerel $LN3+94
	DD	imagerel $unwind$wmemcpy
pdata	ENDS
;	COMDAT pdata
pdata	SEGMENT
$pdata$wmemmove DD imagerel $LN3
	DD	imagerel $LN3+95
	DD	imagerel $unwind$wmemmove
pdata	ENDS
;	COMDAT pdata
pdata	SEGMENT
$pdata$?fpclassify@@YAHM@Z DD imagerel $LN3
	DD	imagerel $LN3+59
	DD	imagerel $unwind$?fpclassify@@YAHM@Z
pdata	ENDS
;	COMDAT pdata
pdata	SEGMENT
$pdata$??2@YAPEAX_KPEAX@Z DD imagerel $LN3
	DD	imagerel $LN3+62
	DD	imagerel $unwind$??2@YAPEAX_KPEAX@Z
pdata	ENDS
;	COMDAT pdata
pdata	SEGMENT
$pdata$?length@?$char_traits@_W@std@@SA_KPEB_W@Z DD imagerel $LN5
	DD	imagerel $LN5+106
	DD	imagerel $unwind$?length@?$char_traits@_W@std@@SA_KPEB_W@Z
pdata	ENDS
;	COMDAT pdata
pdata	SEGMENT
$pdata$?copy@?$char_traits@_W@std@@SAPEA_WPEA_WPEB_W_K@Z DD imagerel $LN5
	DD	imagerel $LN5+128
	DD	imagerel $unwind$?copy@?$char_traits@_W@std@@SAPEA_WPEA_WPEB_W_K@Z
pdata	ENDS
;	COMDAT pdata
pdata	SEGMENT
$pdata$?move@?$char_traits@_W@std@@SAPEA_WPEA_WPEB_W_K@Z DD imagerel $LN5
	DD	imagerel $LN5+128
	DD	imagerel $unwind$?move@?$char_traits@_W@std@@SAPEA_WPEA_WPEB_W_K@Z
pdata	ENDS
;	COMDAT pdata
pdata	SEGMENT
$pdata$?assign@?$char_traits@_W@std@@SAXAEA_WAEB_W@Z DD imagerel $LN3
	DD	imagerel $LN3+75
	DD	imagerel $unwind$?assign@?$char_traits@_W@std@@SAXAEA_WAEB_W@Z
pdata	ENDS
;	COMDAT pdata
pdata	SEGMENT
$pdata$??0_Container_proxy@std@@QEAA@XZ DD imagerel $LN3
	DD	imagerel $LN3+86
	DD	imagerel $unwind$??0_Container_proxy@std@@QEAA@XZ
pdata	ENDS
;	COMDAT pdata
pdata	SEGMENT
$pdata$??0_Container_base12@std@@QEAA@XZ DD imagerel $LN3
	DD	imagerel $LN3+71
	DD	imagerel $unwind$??0_Container_base12@std@@QEAA@XZ
pdata	ENDS
;	COMDAT pdata
pdata	SEGMENT
$pdata$??1_Container_base12@std@@QEAA@XZ DD imagerel $LN3
	DD	imagerel $LN3+76
	DD	imagerel $unwind$??1_Container_base12@std@@QEAA@XZ
pdata	ENDS
;	COMDAT pdata
pdata	SEGMENT
$pdata$?_Orphan_all@_Container_base12@std@@QEAAXXZ DD imagerel $LN8
	DD	imagerel $LN8+220
	DD	imagerel $unwind$?_Orphan_all@_Container_base12@std@@QEAAXXZ
pdata	ENDS
;	COMDAT pdata
pdata	SEGMENT
$pdata$?_Allocate@std@@YAPEAX_K0_N@Z DD imagerel $LN14
	DD	imagerel $LN14+579
	DD	imagerel $unwind$?_Allocate@std@@YAPEAX_K0_N@Z
pdata	ENDS
;	COMDAT pdata
pdata	SEGMENT
$pdata$?_Deallocate@std@@YAXPEAX_K1@Z DD imagerel $LN22
	DD	imagerel $LN22+1079
	DD	imagerel $unwind$?_Deallocate@std@@YAXPEAX_K1@Z
pdata	ENDS
;	COMDAT pdata
pdata	SEGMENT
$pdata$??0?$allocator@_W@std@@QEAA@XZ DD imagerel $LN3
	DD	imagerel $LN3+57
	DD	imagerel $unwind$??0?$allocator@_W@std@@QEAA@XZ
pdata	ENDS
;	COMDAT pdata
pdata	SEGMENT
$pdata$?deallocate@?$allocator@_W@std@@QEAAXPEA_W_K@Z DD imagerel $LN3
	DD	imagerel $LN3+87
	DD	imagerel $unwind$?deallocate@?$allocator@_W@std@@QEAAXPEA_W_K@Z
pdata	ENDS
;	COMDAT pdata
pdata	SEGMENT
$pdata$?allocate@?$allocator@_W@std@@QEAAPEA_W_K@Z DD imagerel $LN3
	DD	imagerel $LN3+77
	DD	imagerel $unwind$?allocate@?$allocator@_W@std@@QEAAPEA_W_K@Z
pdata	ENDS
;	COMDAT pdata
pdata	SEGMENT
$pdata$?max_size@?$allocator@_W@std@@QEBA_KXZ DD imagerel $LN3
	DD	imagerel $LN3+60
	DD	imagerel $unwind$?max_size@?$allocator@_W@std@@QEBA_KXZ
pdata	ENDS
;	COMDAT pdata
pdata	SEGMENT
$pdata$?max_size@?$allocator_traits@V?$allocator@_W@std@@@std@@SA_KAEBV?$allocator@_W@2@@Z DD imagerel $LN3
	DD	imagerel $LN3+64
	DD	imagerel $unwind$?max_size@?$allocator_traits@V?$allocator@_W@std@@@std@@SA_KAEBV?$allocator@_W@2@@Z
pdata	ENDS
;	COMDAT pdata
pdata	SEGMENT
$pdata$??0?$_Wrap_alloc@V?$allocator@_W@std@@@std@@QEAA@XZ DD imagerel $LN3
	DD	imagerel $LN3+71
	DD	imagerel $unwind$??0?$_Wrap_alloc@V?$allocator@_W@std@@@std@@QEAA@XZ
pdata	ENDS
;	COMDAT pdata
pdata	SEGMENT
$pdata$?allocate@?$_Wrap_alloc@V?$allocator@_W@std@@@std@@QEAAPEA_W_K@Z DD imagerel $LN3
	DD	imagerel $LN3+76
	DD	imagerel $unwind$?allocate@?$_Wrap_alloc@V?$allocator@_W@std@@@std@@QEAAPEA_W_K@Z
pdata	ENDS
;	COMDAT pdata
pdata	SEGMENT
$pdata$?deallocate@?$_Wrap_alloc@V?$allocator@_W@std@@@std@@QEAAXPEA_W_K@Z DD imagerel $LN3
	DD	imagerel $LN3+88
	DD	imagerel $unwind$?deallocate@?$_Wrap_alloc@V?$allocator@_W@std@@@std@@QEAAXPEA_W_K@Z
pdata	ENDS
;	COMDAT pdata
pdata	SEGMENT
$pdata$?max_size@?$_Wrap_alloc@V?$allocator@_W@std@@@std@@QEBA_KU_Nil@2@@Z DD imagerel $LN3
	DD	imagerel $LN3+68
	DD	imagerel $unwind$?max_size@?$_Wrap_alloc@V?$allocator@_W@std@@@std@@QEBA_KU_Nil@2@@Z
pdata	ENDS
;	COMDAT pdata
pdata	SEGMENT
$pdata$??0?$_String_val@U?$_Simple_types@_W@std@@@std@@QEAA@XZ DD imagerel $LN5
	DD	imagerel $LN5+132
	DD	imagerel $unwind$??0?$_String_val@U?$_Simple_types@_W@std@@@std@@QEAA@XZ
pdata	ENDS
;	COMDAT pdata
pdata	SEGMENT
$pdata$?dtor$0@?0???0?$_String_val@U?$_Simple_types@_W@std@@@std@@QEAA@XZ@4HA DD imagerel ?dtor$0@?0???0?$_String_val@U?$_Simple_types@_W@std@@@std@@QEAA@XZ@4HA
	DD	imagerel ?dtor$0@?0???0?$_String_val@U?$_Simple_types@_W@std@@@std@@QEAA@XZ@4HA+39
	DD	imagerel $unwind$?dtor$0@?0???0?$_String_val@U?$_Simple_types@_W@std@@@std@@QEAA@XZ@4HA
pdata	ENDS
;	COMDAT pdata
pdata	SEGMENT
$pdata$?_Myptr@?$_String_val@U?$_Simple_types@_W@std@@@std@@QEAAPEA_WXZ DD imagerel $LN5
	DD	imagerel $LN5+116
	DD	imagerel $unwind$?_Myptr@?$_String_val@U?$_Simple_types@_W@std@@@std@@QEAAPEA_WXZ
pdata	ENDS
;	COMDAT pdata
pdata	SEGMENT
$pdata$?_Myptr@?$_String_val@U?$_Simple_types@_W@std@@@std@@QEBAPEB_WXZ DD imagerel $LN5
	DD	imagerel $LN5+116
	DD	imagerel $unwind$?_Myptr@?$_String_val@U?$_Simple_types@_W@std@@@std@@QEBAPEB_WXZ
pdata	ENDS
;	COMDAT pdata
pdata	SEGMENT
$pdata$??0_Bxty@?$_String_val@U?$_Simple_types@_W@std@@@std@@QEAA@XZ DD imagerel $LN3
	DD	imagerel $LN3+57
	DD	imagerel $unwind$??0_Bxty@?$_String_val@U?$_Simple_types@_W@std@@@std@@QEAA@XZ
pdata	ENDS
;	COMDAT pdata
pdata	SEGMENT
$pdata$??1_Bxty@?$_String_val@U?$_Simple_types@_W@std@@@std@@QEAA@XZ DD imagerel $LN3
	DD	imagerel $LN3+50
	DD	imagerel $unwind$??1_Bxty@?$_String_val@U?$_Simple_types@_W@std@@@std@@QEAA@XZ
pdata	ENDS
;	COMDAT pdata
pdata	SEGMENT
$pdata$??1?$_String_val@U?$_Simple_types@_W@std@@@std@@QEAA@XZ DD imagerel $LN3
	DD	imagerel $LN3+83
	DD	imagerel $unwind$??1?$_String_val@U?$_Simple_types@_W@std@@@std@@QEAA@XZ
pdata	ENDS
;	COMDAT pdata
pdata	SEGMENT
$pdata$?_Myptr@?$_String_alloc@U?$_String_base_types@_WV?$allocator@_W@std@@@std@@@std@@QEAAPEA_WXZ DD imagerel $LN3
	DD	imagerel $LN3+72
	DD	imagerel $unwind$?_Myptr@?$_String_alloc@U?$_String_base_types@_WV?$allocator@_W@std@@@std@@@std@@QEAAPEA_WXZ
pdata	ENDS
;	COMDAT pdata
pdata	SEGMENT
$pdata$?_Myptr@?$_String_alloc@U?$_String_base_types@_WV?$allocator@_W@std@@@std@@@std@@QEBAPEB_WXZ DD imagerel $LN3
	DD	imagerel $LN3+72
	DD	imagerel $unwind$?_Myptr@?$_String_alloc@U?$_String_base_types@_WV?$allocator@_W@std@@@std@@@std@@QEBAPEB_WXZ
pdata	ENDS
;	COMDAT pdata
pdata	SEGMENT
$pdata$??0?$_String_alloc@U?$_String_base_types@_WV?$allocator@_W@std@@@std@@@std@@QEAA@XZ DD imagerel $LN4
	DD	imagerel $LN4+106
	DD	imagerel $unwind$??0?$_String_alloc@U?$_String_base_types@_WV?$allocator@_W@std@@@std@@@std@@QEAA@XZ
pdata	ENDS
;	COMDAT pdata
pdata	SEGMENT
$pdata$?dtor$0@?0???0?$_String_alloc@U?$_String_base_types@_WV?$allocator@_W@std@@@std@@@std@@QEAA@XZ@4HA DD imagerel ?dtor$0@?0???0?$_String_alloc@U?$_String_base_types@_WV?$allocator@_W@std@@@std@@@std@@QEAA@XZ@4HA
	DD	imagerel ?dtor$0@?0???0?$_String_alloc@U?$_String_base_types@_WV?$allocator@_W@std@@@std@@@std@@QEAA@XZ@4HA+39
	DD	imagerel $unwind$?dtor$0@?0???0?$_String_alloc@U?$_String_base_types@_WV?$allocator@_W@std@@@std@@@std@@QEAA@XZ@4HA
pdata	ENDS
;	COMDAT pdata
pdata	SEGMENT
$pdata$??1?$_String_alloc@U?$_String_base_types@_WV?$allocator@_W@std@@@std@@@std@@QEAA@XZ DD imagerel $LN3
	DD	imagerel $LN3+92
	DD	imagerel $unwind$??1?$_String_alloc@U?$_String_base_types@_WV?$allocator@_W@std@@@std@@@std@@QEAA@XZ
pdata	ENDS
;	COMDAT pdata
pdata	SEGMENT
$pdata$?_Alloc_proxy@?$_String_alloc@U?$_String_base_types@_WV?$allocator@_W@std@@@std@@@std@@QEAAXXZ DD imagerel $LN3
	DD	imagerel $LN3+272
	DD	imagerel $unwind$?_Alloc_proxy@?$_String_alloc@U?$_String_base_types@_WV?$allocator@_W@std@@@std@@@std@@QEAAXXZ
pdata	ENDS
;	COMDAT pdata
pdata	SEGMENT
$pdata$?_Free_proxy@?$_String_alloc@U?$_String_base_types@_WV?$allocator@_W@std@@@std@@@std@@QEAAXXZ DD imagerel $LN3
	DD	imagerel $LN3+221
	DD	imagerel $unwind$?_Free_proxy@?$_String_alloc@U?$_String_base_types@_WV?$allocator@_W@std@@@std@@@std@@QEAAXXZ
pdata	ENDS
;	COMDAT pdata
pdata	SEGMENT
$pdata$?_Myproxy@?$_String_alloc@U?$_String_base_types@_WV?$allocator@_W@std@@@std@@@std@@QEAAAEAPEAU_Container_proxy@2@XZ DD imagerel $LN3
	DD	imagerel $LN3+64
	DD	imagerel $unwind$?_Myproxy@?$_String_alloc@U?$_String_base_types@_WV?$allocator@_W@std@@@std@@@std@@QEAAAEAPEAU_Container_proxy@2@XZ
pdata	ENDS
;	COMDAT pdata
pdata	SEGMENT
$pdata$?_Orphan_all@?$_String_alloc@U?$_String_base_types@_WV?$allocator@_W@std@@@std@@@std@@QEAAXXZ DD imagerel $LN3
	DD	imagerel $LN3+72
	DD	imagerel $unwind$?_Orphan_all@?$_String_alloc@U?$_String_base_types@_WV?$allocator@_W@std@@@std@@@std@@QEAAXXZ
pdata	ENDS
;	COMDAT pdata
pdata	SEGMENT
$pdata$?_Getal@?$_String_alloc@U?$_String_base_types@_WV?$allocator@_W@std@@@std@@@std@@QEAAAEAU?$_Wrap_alloc@V?$allocator@_W@std@@@2@XZ DD imagerel $LN3
	DD	imagerel $LN3+67
	DD	imagerel $unwind$?_Getal@?$_String_alloc@U?$_String_base_types@_WV?$allocator@_W@std@@@std@@@std@@QEAAAEAU?$_Wrap_alloc@V?$allocator@_W@std@@@2@XZ
pdata	ENDS
;	COMDAT pdata
pdata	SEGMENT
$pdata$?_Getal@?$_String_alloc@U?$_String_base_types@_WV?$allocator@_W@std@@@std@@@std@@QEBAAEBU?$_Wrap_alloc@V?$allocator@_W@std@@@2@XZ DD imagerel $LN3
	DD	imagerel $LN3+67
	DD	imagerel $unwind$?_Getal@?$_String_alloc@U?$_String_base_types@_WV?$allocator@_W@std@@@std@@@std@@QEBAAEBU?$_Wrap_alloc@V?$allocator@_W@std@@@2@XZ
pdata	ENDS
;	COMDAT pdata
pdata	SEGMENT
$pdata$?_Get_data@?$_String_alloc@U?$_String_base_types@_WV?$allocator@_W@std@@@std@@@std@@QEAAAEAV?$_String_val@U?$_Simple_types@_W@std@@@2@XZ DD imagerel $LN3
	DD	imagerel $LN3+67
	DD	imagerel $unwind$?_Get_data@?$_String_alloc@U?$_String_base_types@_WV?$allocator@_W@std@@@std@@@std@@QEAAAEAV?$_String_val@U?$_Simple_types@_W@std@@@2@XZ
pdata	ENDS
;	COMDAT pdata
pdata	SEGMENT
$pdata$?_Get_data@?$_String_alloc@U?$_String_base_types@_WV?$allocator@_W@std@@@std@@@std@@QEBAAEBV?$_String_val@U?$_Simple_types@_W@std@@@2@XZ DD imagerel $LN3
	DD	imagerel $LN3+67
	DD	imagerel $unwind$?_Get_data@?$_String_alloc@U?$_String_base_types@_WV?$allocator@_W@std@@@std@@@std@@QEBAAEBV?$_String_val@U?$_Simple_types@_W@std@@@2@XZ
pdata	ENDS
;	COMDAT pdata
pdata	SEGMENT
$pdata$?_Bx@?$_String_alloc@U?$_String_base_types@_WV?$allocator@_W@std@@@std@@@std@@QEAAAEAT_Bxty@?$_String_val@U?$_Simple_types@_W@std@@@2@XZ DD imagerel $LN3
	DD	imagerel $LN3+68
	DD	imagerel $unwind$?_Bx@?$_String_alloc@U?$_String_base_types@_WV?$allocator@_W@std@@@std@@@std@@QEAAAEAT_Bxty@?$_String_val@U?$_Simple_types@_W@std@@@2@XZ
pdata	ENDS
;	COMDAT pdata
pdata	SEGMENT
$pdata$?_Mysize@?$_String_alloc@U?$_String_base_types@_WV?$allocator@_W@std@@@std@@@std@@QEAAAEA_KXZ DD imagerel $LN3
	DD	imagerel $LN3+68
	DD	imagerel $unwind$?_Mysize@?$_String_alloc@U?$_String_base_types@_WV?$allocator@_W@std@@@std@@@std@@QEAAAEA_KXZ
pdata	ENDS
;	COMDAT pdata
pdata	SEGMENT
$pdata$?_Mysize@?$_String_alloc@U?$_String_base_types@_WV?$allocator@_W@std@@@std@@@std@@QEBAAEB_KXZ DD imagerel $LN3
	DD	imagerel $LN3+68
	DD	imagerel $unwind$?_Mysize@?$_String_alloc@U?$_String_base_types@_WV?$allocator@_W@std@@@std@@@std@@QEBAAEB_KXZ
pdata	ENDS
;	COMDAT pdata
pdata	SEGMENT
$pdata$?_Myres@?$_String_alloc@U?$_String_base_types@_WV?$allocator@_W@std@@@std@@@std@@QEAAAEA_KXZ DD imagerel $LN3
	DD	imagerel $LN3+68
	DD	imagerel $unwind$?_Myres@?$_String_alloc@U?$_String_base_types@_WV?$allocator@_W@std@@@std@@@std@@QEAAAEA_KXZ
pdata	ENDS
;	COMDAT pdata
pdata	SEGMENT
$pdata$?_Get_first@?$_Compressed_pair@U?$_Wrap_alloc@V?$allocator@_W@std@@@std@@V?$_String_val@U?$_Simple_types@_W@std@@@2@$00@std@@QEAAAEAU?$_Wrap_alloc@V?$allocator@_W@std@@@2@XZ DD imagerel $LN3
	DD	imagerel $LN3+57
	DD	imagerel $unwind$?_Get_first@?$_Compressed_pair@U?$_Wrap_alloc@V?$allocator@_W@std@@@std@@V?$_String_val@U?$_Simple_types@_W@std@@@2@$00@std@@QEAAAEAU?$_Wrap_alloc@V?$allocator@_W@std@@@2@XZ
pdata	ENDS
;	COMDAT pdata
pdata	SEGMENT
$pdata$?_Get_first@?$_Compressed_pair@U?$_Wrap_alloc@V?$allocator@_W@std@@@std@@V?$_String_val@U?$_Simple_types@_W@std@@@2@$00@std@@QEBAAEBU?$_Wrap_alloc@V?$allocator@_W@std@@@2@XZ DD imagerel $LN3
	DD	imagerel $LN3+57
	DD	imagerel $unwind$?_Get_first@?$_Compressed_pair@U?$_Wrap_alloc@V?$allocator@_W@std@@@std@@V?$_String_val@U?$_Simple_types@_W@std@@@2@$00@std@@QEBAAEBU?$_Wrap_alloc@V?$allocator@_W@std@@@2@XZ
pdata	ENDS
;	COMDAT pdata
pdata	SEGMENT
$pdata$?_Get_second@?$_Compressed_pair@U?$_Wrap_alloc@V?$allocator@_W@std@@@std@@V?$_String_val@U?$_Simple_types@_W@std@@@2@$00@std@@QEAAAEAV?$_String_val@U?$_Simple_types@_W@std@@@2@XZ DD imagerel $LN3
	DD	imagerel $LN3+57
	DD	imagerel $unwind$?_Get_second@?$_Compressed_pair@U?$_Wrap_alloc@V?$allocator@_W@std@@@std@@V?$_String_val@U?$_Simple_types@_W@std@@@2@$00@std@@QEAAAEAV?$_String_val@U?$_Simple_types@_W@std@@@2@XZ
pdata	ENDS
;	COMDAT pdata
pdata	SEGMENT
$pdata$?_Get_second@?$_Compressed_pair@U?$_Wrap_alloc@V?$allocator@_W@std@@@std@@V?$_String_val@U?$_Simple_types@_W@std@@@2@$00@std@@QEBAAEBV?$_String_val@U?$_Simple_types@_W@std@@@2@XZ DD imagerel $LN3
	DD	imagerel $LN3+57
	DD	imagerel $unwind$?_Get_second@?$_Compressed_pair@U?$_Wrap_alloc@V?$allocator@_W@std@@@std@@V?$_String_val@U?$_Simple_types@_W@std@@@2@$00@std@@QEBAAEBV?$_String_val@U?$_Simple_types@_W@std@@@2@XZ
pdata	ENDS
;	COMDAT pdata
pdata	SEGMENT
$pdata$??1?$_Compressed_pair@U?$_Wrap_alloc@V?$allocator@_W@std@@@std@@V?$_String_val@U?$_Simple_types@_W@std@@@2@$00@std@@QEAA@XZ DD imagerel $LN3
	DD	imagerel $LN3+67
	DD	imagerel $unwind$??1?$_Compressed_pair@U?$_Wrap_alloc@V?$allocator@_W@std@@@std@@V?$_String_val@U?$_Simple_types@_W@std@@@2@$00@std@@QEAA@XZ
pdata	ENDS
;	COMDAT pdata
pdata	SEGMENT
$pdata$??0?$basic_string@_WU?$char_traits@_W@std@@V?$allocator@_W@2@@std@@QEAA@PEB_W@Z DD imagerel $LN4
	DD	imagerel $LN4+125
	DD	imagerel $unwind$??0?$basic_string@_WU?$char_traits@_W@std@@V?$allocator@_W@2@@std@@QEAA@PEB_W@Z
pdata	ENDS
;	COMDAT pdata
pdata	SEGMENT
$pdata$?dtor$0@?0???0?$basic_string@_WU?$char_traits@_W@std@@V?$allocator@_W@2@@std@@QEAA@PEB_W@Z@4HA DD imagerel ?dtor$0@?0???0?$basic_string@_WU?$char_traits@_W@std@@V?$allocator@_W@2@@std@@QEAA@PEB_W@Z@4HA
	DD	imagerel ?dtor$0@?0???0?$basic_string@_WU?$char_traits@_W@std@@V?$allocator@_W@2@@std@@QEAA@PEB_W@Z@4HA+39
	DD	imagerel $unwind$?dtor$0@?0???0?$basic_string@_WU?$char_traits@_W@std@@V?$allocator@_W@2@@std@@QEAA@PEB_W@Z@4HA
pdata	ENDS
;	COMDAT pdata
pdata	SEGMENT
$pdata$?assign@?$basic_string@_WU?$char_traits@_W@std@@V?$allocator@_W@2@@std@@QEAAAEAV12@AEBV12@_K1@Z DD imagerel $LN6
	DD	imagerel $LN6+315
	DD	imagerel $unwind$?assign@?$basic_string@_WU?$char_traits@_W@std@@V?$allocator@_W@2@@std@@QEAAAEAV12@AEBV12@_K1@Z
pdata	ENDS
;	COMDAT pdata
pdata	SEGMENT
$pdata$?assign@?$basic_string@_WU?$char_traits@_W@std@@V?$allocator@_W@2@@std@@QEAAAEAV12@PEB_W_K@Z DD imagerel $LN7
	DD	imagerel $LN7+294
	DD	imagerel $unwind$?assign@?$basic_string@_WU?$char_traits@_W@std@@V?$allocator@_W@2@@std@@QEAAAEAV12@PEB_W_K@Z
pdata	ENDS
;	COMDAT pdata
pdata	SEGMENT
$pdata$?assign@?$basic_string@_WU?$char_traits@_W@std@@V?$allocator@_W@2@@std@@QEAAAEAV12@PEB_W@Z DD imagerel $LN3
	DD	imagerel $LN3+116
	DD	imagerel $unwind$?assign@?$basic_string@_WU?$char_traits@_W@std@@V?$allocator@_W@2@@std@@QEAAAEAV12@PEB_W@Z
pdata	ENDS
;	COMDAT pdata
pdata	SEGMENT
$pdata$?erase@?$basic_string@_WU?$char_traits@_W@std@@V?$allocator@_W@2@@std@@QEAAAEAV12@_K@Z DD imagerel $LN3
	DD	imagerel $LN3+102
	DD	imagerel $unwind$?erase@?$basic_string@_WU?$char_traits@_W@std@@V?$allocator@_W@2@@std@@QEAAAEAV12@_K@Z
pdata	ENDS
;	COMDAT pdata
pdata	SEGMENT
$pdata$?erase@?$basic_string@_WU?$char_traits@_W@std@@V?$allocator@_W@2@@std@@QEAAAEAV12@_K0@Z DD imagerel $LN6
	DD	imagerel $LN6+275
	DD	imagerel $unwind$?erase@?$basic_string@_WU?$char_traits@_W@std@@V?$allocator@_W@2@@std@@QEAAAEAV12@_K0@Z
pdata	ENDS
;	COMDAT pdata
pdata	SEGMENT
$pdata$?max_size@?$basic_string@_WU?$char_traits@_W@std@@V?$allocator@_W@2@@std@@QEBA_KXZ DD imagerel $LN5
	DD	imagerel $LN5+124
	DD	imagerel $unwind$?max_size@?$basic_string@_WU?$char_traits@_W@std@@V?$allocator@_W@2@@std@@QEBA_KXZ
pdata	ENDS
;	COMDAT pdata
pdata	SEGMENT
$pdata$?_Clamp_suffix_size@?$basic_string@_WU?$char_traits@_W@std@@V?$allocator@_W@2@@std@@QEBA_K_K0@Z DD imagerel $LN5
	DD	imagerel $LN5+119
	DD	imagerel $unwind$?_Clamp_suffix_size@?$basic_string@_WU?$char_traits@_W@std@@V?$allocator@_W@2@@std@@QEBA_K_K0@Z
pdata	ENDS
;	COMDAT pdata
pdata	SEGMENT
$pdata$?_Copy@?$basic_string@_WU?$char_traits@_W@std@@V?$allocator@_W@2@@std@@QEAAX_K0@Z DD imagerel $LN23
	DD	imagerel $LN23+640
	DD	imagerel $unwind$?_Copy@?$basic_string@_WU?$char_traits@_W@std@@V?$allocator@_W@2@@std@@QEAAX_K0@Z
pdata	ENDS
;	COMDAT pdata
pdata	SEGMENT
$pdata$?catch$1@?0??_Copy@?$basic_string@_WU?$char_traits@_W@std@@V?$allocator@_W@2@@std@@QEAAX_K0@Z@4HA DD imagerel ?catch$1@?0??_Copy@?$basic_string@_WU?$char_traits@_W@std@@V?$allocator@_W@2@@std@@QEAAX_K0@Z@4HA
	DD	imagerel ?catch$1@?0??_Copy@?$basic_string@_WU?$char_traits@_W@std@@V?$allocator@_W@2@@std@@QEAAX_K0@Z@4HA+110
	DD	imagerel $unwind$?catch$1@?0??_Copy@?$basic_string@_WU?$char_traits@_W@std@@V?$allocator@_W@2@@std@@QEAAX_K0@Z@4HA
pdata	ENDS
;	COMDAT pdata
pdata	SEGMENT
$pdata$?catch$0@?0??_Copy@?$basic_string@_WU?$char_traits@_W@std@@V?$allocator@_W@2@@std@@QEAAX_K0@Z@4HA DD imagerel ?catch$0@?0??_Copy@?$basic_string@_WU?$char_traits@_W@std@@V?$allocator@_W@2@@std@@QEAAX_K0@Z@4HA
	DD	imagerel ?catch$0@?0??_Copy@?$basic_string@_WU?$char_traits@_W@std@@V?$allocator@_W@2@@std@@QEAAX_K0@Z@4HA+62
	DD	imagerel $unwind$?catch$0@?0??_Copy@?$basic_string@_WU?$char_traits@_W@std@@V?$allocator@_W@2@@std@@QEAAX_K0@Z@4HA
pdata	ENDS
;	COMDAT pdata
pdata	SEGMENT
$pdata$?_Eos@?$basic_string@_WU?$char_traits@_W@std@@V?$allocator@_W@2@@std@@QEAAX_K@Z DD imagerel $LN3
	DD	imagerel $LN3+132
	DD	imagerel $unwind$?_Eos@?$basic_string@_WU?$char_traits@_W@std@@V?$allocator@_W@2@@std@@QEAAX_K@Z
pdata	ENDS
;	COMDAT pdata
pdata	SEGMENT
$pdata$?_Grow@?$basic_string@_WU?$char_traits@_W@std@@V?$allocator@_W@2@@std@@QEAA_N_K_N@Z DD imagerel $LN13
	DD	imagerel $LN13+327
	DD	imagerel $unwind$?_Grow@?$basic_string@_WU?$char_traits@_W@std@@V?$allocator@_W@2@@std@@QEAA_N_K_N@Z
pdata	ENDS
;	COMDAT pdata
pdata	SEGMENT
$pdata$?_Inside@?$basic_string@_WU?$char_traits@_W@std@@V?$allocator@_W@2@@std@@QEAA_NPEB_W@Z DD imagerel $LN6
	DD	imagerel $LN6+150
	DD	imagerel $unwind$?_Inside@?$basic_string@_WU?$char_traits@_W@std@@V?$allocator@_W@2@@std@@QEAA_NPEB_W@Z
pdata	ENDS
;	COMDAT pdata
pdata	SEGMENT
$pdata$?_Tidy@?$basic_string@_WU?$char_traits@_W@std@@V?$allocator@_W@2@@std@@QEAAX_N_K@Z DD imagerel $LN7
	DD	imagerel $LN7+335
	DD	imagerel $unwind$?_Tidy@?$basic_string@_WU?$char_traits@_W@std@@V?$allocator@_W@2@@std@@QEAAX_N_K@Z
pdata	ENDS
;	COMDAT pdata
pdata	SEGMENT
$pdata$?_Xlen@?$basic_string@_WU?$char_traits@_W@std@@V?$allocator@_W@2@@std@@QEBAXXZ DD imagerel $LN3
	DD	imagerel $LN3+65
	DD	imagerel $unwind$?_Xlen@?$basic_string@_WU?$char_traits@_W@std@@V?$allocator@_W@2@@std@@QEBAXXZ
pdata	ENDS
;	COMDAT pdata
pdata	SEGMENT
$pdata$?_Check_offset@?$basic_string@_WU?$char_traits@_W@std@@V?$allocator@_W@2@@std@@QEBAX_K@Z DD imagerel $LN4
	DD	imagerel $LN4+93
	DD	imagerel $unwind$?_Check_offset@?$basic_string@_WU?$char_traits@_W@std@@V?$allocator@_W@2@@std@@QEBAX_K@Z
pdata	ENDS
;	COMDAT pdata
pdata	SEGMENT
$pdata$?_Xran@?$basic_string@_WU?$char_traits@_W@std@@V?$allocator@_W@2@@std@@QEBAXXZ DD imagerel $LN3
	DD	imagerel $LN3+65
	DD	imagerel $unwind$?_Xran@?$basic_string@_WU?$char_traits@_W@std@@V?$allocator@_W@2@@std@@QEBAXXZ
pdata	ENDS
;	COMDAT pdata
pdata	SEGMENT
$pdata$?XMConvertToRadians@DirectX@@YAMM@Z DD imagerel $LN3
	DD	imagerel $LN3+61
	DD	imagerel $unwind$?XMConvertToRadians@DirectX@@YAMM@Z
pdata	ENDS
;	COMDAT pdata
pdata	SEGMENT
$pdata$??BXMVECTORI32@DirectX@@QEBA?AT__m128@@XZ DD imagerel $LN3
	DD	imagerel $LN3+82
	DD	imagerel $unwind$??BXMVECTORI32@DirectX@@QEBA?AT__m128@@XZ
pdata	ENDS
;	COMDAT pdata
pdata	SEGMENT
$pdata$??BXMVECTORU32@DirectX@@QEBA?AT__m128@@XZ DD imagerel $LN3
	DD	imagerel $LN3+82
	DD	imagerel $unwind$??BXMVECTORU32@DirectX@@QEBA?AT__m128@@XZ
pdata	ENDS
;	COMDAT pdata
pdata	SEGMENT
$pdata$??GDirectX@@YQ?AT__m128@@T1@@Z DD imagerel $LN3
	DD	imagerel $LN3+79
	DD	imagerel $unwind$??GDirectX@@YQ?AT__m128@@T1@@Z
pdata	ENDS
;	COMDAT pdata
pdata	SEGMENT
$pdata$??HDirectX@@YQ?AT__m128@@T1@0@Z DD imagerel $LN3
	DD	imagerel $LN3+99
	DD	imagerel $unwind$??HDirectX@@YQ?AT__m128@@T1@0@Z
pdata	ENDS
;	COMDAT pdata
pdata	SEGMENT
$pdata$??GDirectX@@YQ?AT__m128@@T1@0@Z DD imagerel $LN3
	DD	imagerel $LN3+99
	DD	imagerel $unwind$??GDirectX@@YQ?AT__m128@@T1@0@Z
pdata	ENDS
;	COMDAT pdata
pdata	SEGMENT
$pdata$??DDirectX@@YQ?AT__m128@@T1@M@Z DD imagerel $LN3
	DD	imagerel $LN3+92
	DD	imagerel $unwind$??DDirectX@@YQ?AT__m128@@T1@M@Z
pdata	ENDS
;	COMDAT pdata
pdata	SEGMENT
$pdata$??0XMMATRIX@DirectX@@QEAA@XZ DD imagerel $LN3
	DD	imagerel $LN3+57
	DD	imagerel $unwind$??0XMMATRIX@DirectX@@QEAA@XZ
pdata	ENDS
;	COMDAT pdata
pdata	SEGMENT
$pdata$??DXMMATRIX@DirectX@@QEBQ?AU01@U01@@Z DD imagerel $LN3
	DD	imagerel $LN3+224
	DD	imagerel $unwind$??DXMMATRIX@DirectX@@QEBQ?AU01@U01@@Z
pdata	ENDS
;	COMDAT pdata
pdata	SEGMENT
$pdata$??0XMFLOAT3@DirectX@@QEAA@XZ DD imagerel $LN3
	DD	imagerel $LN3+57
	DD	imagerel $unwind$??0XMFLOAT3@DirectX@@QEAA@XZ
pdata	ENDS
;	COMDAT pdata
pdata	SEGMENT
$pdata$??0XMFLOAT3@DirectX@@QEAA@MMM@Z DD imagerel $LN3
	DD	imagerel $LN3+134
	DD	imagerel $unwind$??0XMFLOAT3@DirectX@@QEAA@MMM@Z
pdata	ENDS
;	COMDAT pdata
pdata	SEGMENT
$pdata$??4XMFLOAT3@DirectX@@QEAAAEAU01@AEBU01@@Z DD imagerel $LN3
	DD	imagerel $LN3+132
	DD	imagerel $unwind$??4XMFLOAT3@DirectX@@QEAAAEAU01@AEBU01@@Z
pdata	ENDS
;	COMDAT pdata
pdata	SEGMENT
$pdata$??0XMFLOAT4@DirectX@@QEAA@XZ DD imagerel $LN3
	DD	imagerel $LN3+57
	DD	imagerel $unwind$??0XMFLOAT4@DirectX@@QEAA@XZ
pdata	ENDS
;	COMDAT pdata
pdata	SEGMENT
$pdata$?XMLoadFloat3@DirectX@@YQ?AT__m128@@PEBUXMFLOAT3@1@@Z DD imagerel $LN4
	DD	imagerel $LN4+277
	DD	imagerel $unwind$?XMLoadFloat3@DirectX@@YQ?AT__m128@@PEBUXMFLOAT3@1@@Z
pdata	ENDS
;	COMDAT pdata
pdata	SEGMENT
$pdata$?XMLoadFloat4@DirectX@@YQ?AT__m128@@PEBUXMFLOAT4@1@@Z DD imagerel $LN4
	DD	imagerel $LN4+119
	DD	imagerel $unwind$?XMLoadFloat4@DirectX@@YQ?AT__m128@@PEBUXMFLOAT4@1@@Z
pdata	ENDS
;	COMDAT pdata
pdata	SEGMENT
$pdata$?XMLoadFloat4x4@DirectX@@YQ?AUXMMATRIX@1@PEBUXMFLOAT4X4@1@@Z DD imagerel $LN4
	DD	imagerel $LN4+344
	DD	imagerel $unwind$?XMLoadFloat4x4@DirectX@@YQ?AUXMMATRIX@1@PEBUXMFLOAT4X4@1@@Z
pdata	ENDS
;	COMDAT pdata
pdata	SEGMENT
$pdata$?XMStoreFloat3@DirectX@@YQXPEAUXMFLOAT3@1@T__m128@@@Z DD imagerel $LN4
	DD	imagerel $LN4+218
	DD	imagerel $unwind$?XMStoreFloat3@DirectX@@YQXPEAUXMFLOAT3@1@T__m128@@@Z
pdata	ENDS
;	COMDAT pdata
pdata	SEGMENT
$pdata$?XMStoreFloat4@DirectX@@YQXPEAUXMFLOAT4@1@T__m128@@@Z DD imagerel $LN4
	DD	imagerel $LN4+125
	DD	imagerel $unwind$?XMStoreFloat4@DirectX@@YQXPEAUXMFLOAT4@1@T__m128@@@Z
pdata	ENDS
;	COMDAT pdata
pdata	SEGMENT
$pdata$?XMStoreFloat4x4@DirectX@@YQXPEAUXMFLOAT4X4@1@UXMMATRIX@1@@Z DD imagerel $LN4
	DD	imagerel $LN4+247
	DD	imagerel $unwind$?XMStoreFloat4x4@DirectX@@YQXPEAUXMFLOAT4X4@1@UXMMATRIX@1@@Z
pdata	ENDS
;	COMDAT pdata
pdata	SEGMENT
$pdata$?XMVectorSet@DirectX@@YQ?AT__m128@@MMMM@Z DD imagerel $LN3
	DD	imagerel $LN3+121
	DD	imagerel $unwind$?XMVectorSet@DirectX@@YQ?AT__m128@@MMMM@Z
pdata	ENDS
;	COMDAT pdata
pdata	SEGMENT
$pdata$?XMVectorGetX@DirectX@@YQMT__m128@@@Z DD imagerel $LN3
	DD	imagerel $LN3+76
	DD	imagerel $unwind$?XMVectorGetX@DirectX@@YQMT__m128@@@Z
pdata	ENDS
;	COMDAT pdata
pdata	SEGMENT
$pdata$?XMVectorGetY@DirectX@@YQMT__m128@@@Z DD imagerel $LN3
	DD	imagerel $LN3+103
	DD	imagerel $unwind$?XMVectorGetY@DirectX@@YQMT__m128@@@Z
pdata	ENDS
;	COMDAT pdata
pdata	SEGMENT
$pdata$?XMVectorGetZ@DirectX@@YQMT__m128@@@Z DD imagerel $LN3
	DD	imagerel $LN3+103
	DD	imagerel $unwind$?XMVectorGetZ@DirectX@@YQMT__m128@@@Z
pdata	ENDS
;	COMDAT pdata
pdata	SEGMENT
$pdata$?XMVectorSetX@DirectX@@YQ?AT__m128@@T2@M@Z DD imagerel $LN3
	DD	imagerel $LN3+131
	DD	imagerel $unwind$?XMVectorSetX@DirectX@@YQ?AT__m128@@T2@M@Z
pdata	ENDS
;	COMDAT pdata
pdata	SEGMENT
$pdata$?XMVectorSetY@DirectX@@YQ?AT__m128@@T2@M@Z DD imagerel $LN3
	DD	imagerel $LN3+185
	DD	imagerel $unwind$?XMVectorSetY@DirectX@@YQ?AT__m128@@T2@M@Z
pdata	ENDS
;	COMDAT pdata
pdata	SEGMENT
$pdata$?XMVectorSetZ@DirectX@@YQ?AT__m128@@T2@M@Z DD imagerel $LN3
	DD	imagerel $LN3+185
	DD	imagerel $unwind$?XMVectorSetZ@DirectX@@YQ?AT__m128@@T2@M@Z
pdata	ENDS
;	COMDAT pdata
pdata	SEGMENT
$pdata$?XMVectorNegate@DirectX@@YQ?AT__m128@@T2@@Z DD imagerel $LN3
	DD	imagerel $LN3+99
	DD	imagerel $unwind$?XMVectorNegate@DirectX@@YQ?AT__m128@@T2@@Z
pdata	ENDS
;	COMDAT pdata
pdata	SEGMENT
$pdata$?XMVectorAdd@DirectX@@YQ?AT__m128@@T2@0@Z DD imagerel $LN3
	DD	imagerel $LN3+94
	DD	imagerel $unwind$?XMVectorAdd@DirectX@@YQ?AT__m128@@T2@0@Z
pdata	ENDS
;	COMDAT pdata
pdata	SEGMENT
$pdata$?XMVectorSubtract@DirectX@@YQ?AT__m128@@T2@0@Z DD imagerel $LN3
	DD	imagerel $LN3+94
	DD	imagerel $unwind$?XMVectorSubtract@DirectX@@YQ?AT__m128@@T2@0@Z
pdata	ENDS
;	COMDAT pdata
pdata	SEGMENT
$pdata$?XMVectorScale@DirectX@@YQ?AT__m128@@T2@M@Z DD imagerel $LN3
	DD	imagerel $LN3+113
	DD	imagerel $unwind$?XMVectorScale@DirectX@@YQ?AT__m128@@T2@M@Z
pdata	ENDS
;	COMDAT pdata
pdata	SEGMENT
$pdata$?XMVectorLerp@DirectX@@YQ?AT__m128@@T2@0M@Z DD imagerel $LN3
	DD	imagerel $LN3+193
	DD	imagerel $unwind$?XMVectorLerp@DirectX@@YQ?AT__m128@@T2@0M@Z
pdata	ENDS
;	COMDAT pdata
pdata	SEGMENT
$pdata$?XMVector3Dot@DirectX@@YQ?AT__m128@@T2@0@Z DD imagerel $LN3
	DD	imagerel $LN3+247
	DD	imagerel $unwind$?XMVector3Dot@DirectX@@YQ?AT__m128@@T2@0@Z
pdata	ENDS
;	COMDAT pdata
pdata	SEGMENT
$pdata$?XMVector3Cross@DirectX@@YQ?AT__m128@@T2@0@Z DD imagerel $LN3
	DD	imagerel $LN3+328
	DD	imagerel $unwind$?XMVector3Cross@DirectX@@YQ?AT__m128@@T2@0@Z
pdata	ENDS
;	COMDAT pdata
pdata	SEGMENT
$pdata$?XMVector3Length@DirectX@@YQ?AT__m128@@T2@@Z DD imagerel $LN3
	DD	imagerel $LN3+243
	DD	imagerel $unwind$?XMVector3Length@DirectX@@YQ?AT__m128@@T2@@Z
pdata	ENDS
;	COMDAT pdata
pdata	SEGMENT
$pdata$?XMVector3Normalize@DirectX@@YQ?AT__m128@@T2@@Z DD imagerel $LN3
	DD	imagerel $LN3+535
	DD	imagerel $unwind$?XMVector3Normalize@DirectX@@YQ?AT__m128@@T2@@Z
pdata	ENDS
;	COMDAT pdata
pdata	SEGMENT
$pdata$?XMMatrixMultiply@DirectX@@YQ?AUXMMATRIX@1@U21@AEBU21@@Z DD imagerel $LN3
	DD	imagerel $LN3+2098
	DD	imagerel $unwind$?XMMatrixMultiply@DirectX@@YQ?AUXMMATRIX@1@U21@AEBU21@@Z
pdata	ENDS
;	COMDAT pdata
pdata	SEGMENT
$pdata$??0tagColliderDesc@CCollider@Engine@@QEAA@XZ DD imagerel $LN3
	DD	imagerel $LN3+116
	DD	imagerel $unwind$??0tagColliderDesc@CCollider@Engine@@QEAA@XZ
pdata	ENDS
;	COMDAT pdata
pdata	SEGMENT
$pdata$??1CEnemy@Client@@UEAA@XZ DD imagerel $LN3
	DD	imagerel $LN3+65
	DD	imagerel $unwind$??1CEnemy@Client@@UEAA@XZ
pdata	ENDS
;	COMDAT pdata
pdata	SEGMENT
$pdata$??0CBoss@Client@@QEAA@PEAUID3D11Device@@PEAUID3D11DeviceContext@@@Z DD imagerel $LN4
	DD	imagerel $LN4+2020
	DD	imagerel $unwind$??0CBoss@Client@@QEAA@PEAUID3D11Device@@PEAUID3D11DeviceContext@@@Z
pdata	ENDS
;	COMDAT pdata
pdata	SEGMENT
$pdata$?dtor$0@?0???0CBoss@Client@@QEAA@PEAUID3D11Device@@PEAUID3D11DeviceContext@@@Z@4HA DD imagerel ?dtor$0@?0???0CBoss@Client@@QEAA@PEAUID3D11Device@@PEAUID3D11DeviceContext@@@Z@4HA
	DD	imagerel ?dtor$0@?0???0CBoss@Client@@QEAA@PEAUID3D11Device@@PEAUID3D11DeviceContext@@@Z@4HA+39
	DD	imagerel $unwind$?dtor$0@?0???0CBoss@Client@@QEAA@PEAUID3D11Device@@PEAUID3D11DeviceContext@@@Z@4HA
pdata	ENDS
;	COMDAT pdata
pdata	SEGMENT
$pdata$??0CBoss@Client@@QEAA@AEBV01@@Z DD imagerel $LN4
	DD	imagerel $LN4+2008
	DD	imagerel $unwind$??0CBoss@Client@@QEAA@AEBV01@@Z
pdata	ENDS
;	COMDAT pdata
pdata	SEGMENT
$pdata$?dtor$0@?0???0CBoss@Client@@QEAA@AEBV01@@Z@4HA DD imagerel ?dtor$0@?0???0CBoss@Client@@QEAA@AEBV01@@Z@4HA
	DD	imagerel ?dtor$0@?0???0CBoss@Client@@QEAA@AEBV01@@Z@4HA+39
	DD	imagerel $unwind$?dtor$0@?0???0CBoss@Client@@QEAA@AEBV01@@Z@4HA
pdata	ENDS
;	COMDAT pdata
pdata	SEGMENT
$pdata$??1CBoss@Client@@UEAA@XZ DD imagerel $LN3
	DD	imagerel $LN3+64
	DD	imagerel $unwind$??1CBoss@Client@@UEAA@XZ
pdata	ENDS
;	COMDAT pdata
pdata	SEGMENT
$pdata$?Initialize_Prototype@CBoss@Client@@UEAAJXZ DD imagerel $LN3
	DD	imagerel $LN3+129
	DD	imagerel $unwind$?Initialize_Prototype@CBoss@Client@@UEAAJXZ
pdata	ENDS
;	COMDAT pdata
pdata	SEGMENT
$pdata$?Initialize@CBoss@Client@@UEAAJPEAX@Z DD imagerel $LN77
	DD	imagerel $LN77+6107
	DD	imagerel $unwind$?Initialize@CBoss@Client@@UEAAJPEAX@Z
pdata	ENDS
;	COMDAT pdata
pdata	SEGMENT
$pdata$?Tick@CBoss@Client@@UEAAXN@Z DD imagerel $LN33
	DD	imagerel $LN33+1096
	DD	imagerel $unwind$?Tick@CBoss@Client@@UEAAXN@Z
pdata	ENDS
;	COMDAT pdata
pdata	SEGMENT
$pdata$?LateTick@CBoss@Client@@UEAAXN@Z DD imagerel $LN4
	DD	imagerel $LN4+213
	DD	imagerel $unwind$?LateTick@CBoss@Client@@UEAAXN@Z
pdata	ENDS
;	COMDAT pdata
pdata	SEGMENT
$pdata$?Render@CBoss@Client@@UEAAJXZ DD imagerel $LN23
	DD	imagerel $LN23+739
	DD	imagerel $unwind$?Render@CBoss@Client@@UEAAJXZ
pdata	ENDS
;	COMDAT pdata
pdata	SEGMENT
$pdata$?RenderGUI@CBoss@Client@@UEAAXXZ DD imagerel $LN3
	DD	imagerel $LN3+50
	DD	imagerel $unwind$?RenderGUI@CBoss@Client@@UEAAXXZ
pdata	ENDS
;	COMDAT pdata
pdata	SEGMENT
$pdata$?AddComponents@CBoss@Client@@AEAAJXZ DD imagerel $LN8
	DD	imagerel $LN8+908
	DD	imagerel $unwind$?AddComponents@CBoss@Client@@AEAAJXZ
pdata	ENDS
;	COMDAT pdata
pdata	SEGMENT
$pdata$?SetupShaderResources@CBoss@Client@@AEAAJXZ DD imagerel $LN13
	DD	imagerel $LN13+600
	DD	imagerel $unwind$?SetupShaderResources@CBoss@Client@@AEAAJXZ
pdata	ENDS
;	COMDAT pdata
pdata	SEGMENT
$pdata$?Spawn@CBoss@Client@@QEAAXXZ DD imagerel $LN4
	DD	imagerel $LN4+146
	DD	imagerel $unwind$?Spawn@CBoss@Client@@QEAAXXZ
pdata	ENDS
;	COMDAT pdata
pdata	SEGMENT
$pdata$?MoveForward@CBoss@Client@@QEAAXN@Z DD imagerel $LN7
	DD	imagerel $LN7+783
	DD	imagerel $unwind$?MoveForward@CBoss@Client@@QEAAXN@Z
pdata	ENDS
;	COMDAT pdata
pdata	SEGMENT
$pdata$?MoveBackword@CBoss@Client@@QEAAXN@Z DD imagerel $LN7
	DD	imagerel $LN7+789
	DD	imagerel $unwind$?MoveBackword@CBoss@Client@@QEAAXN@Z
pdata	ENDS
;	COMDAT pdata
pdata	SEGMENT
$pdata$?LineSkill@CBoss@Client@@QEAAXNH@Z DD imagerel $LN57
	DD	imagerel $LN57+9371
	DD	imagerel $unwind$?LineSkill@CBoss@Client@@QEAAXNH@Z
pdata	ENDS
;	COMDAT pdata
pdata	SEGMENT
$pdata$?Missile1@CBoss@Client@@QEAAXN@Z DD imagerel $LN39
	DD	imagerel $LN39+3000
	DD	imagerel $unwind$?Missile1@CBoss@Client@@QEAAXN@Z
pdata	ENDS
;	COMDAT pdata
pdata	SEGMENT
$pdata$?CloseAttack@CBoss@Client@@QEAAXN@Z DD imagerel $LN11
	DD	imagerel $LN11+1045
	DD	imagerel $unwind$?CloseAttack@CBoss@Client@@QEAAXN@Z
pdata	ENDS
;	COMDAT pdata
pdata	SEGMENT
$pdata$?Burrow@CBoss@Client@@QEAAXN@Z DD imagerel $LN12
	DD	imagerel $LN12+1185
	DD	imagerel $unwind$?Burrow@CBoss@Client@@QEAAXN@Z
pdata	ENDS
;	COMDAT pdata
pdata	SEGMENT
$pdata$?Evolution@CBoss@Client@@QEAAXN@Z DD imagerel $LN11
	DD	imagerel $LN11+415
	DD	imagerel $unwind$?Evolution@CBoss@Client@@QEAAXN@Z
pdata	ENDS
;	COMDAT pdata
pdata	SEGMENT
$pdata$?ColseAttack2@CBoss@Client@@QEAAXN@Z DD imagerel $LN42
	DD	imagerel $LN42+5018
	DD	imagerel $unwind$?ColseAttack2@CBoss@Client@@QEAAXN@Z
pdata	ENDS
;	COMDAT pdata
pdata	SEGMENT
$pdata$?LineSkill2@CBoss@Client@@QEAAXN@Z DD imagerel $LN47
	DD	imagerel $LN47+8543
	DD	imagerel $unwind$?LineSkill2@CBoss@Client@@QEAAXN@Z
pdata	ENDS
;	COMDAT pdata
pdata	SEGMENT
$pdata$?LastAttack@CBoss@Client@@QEAAXN@Z DD imagerel $LN75
	DD	imagerel $LN75+15767
	DD	imagerel $unwind$?LastAttack@CBoss@Client@@QEAAXN@Z
pdata	ENDS
;	COMDAT pdata
pdata	SEGMENT
$pdata$?GetLengthFromPlayer@CBoss@Client@@QEBAMXZ DD imagerel $LN3
	DD	imagerel $LN3+191
	DD	imagerel $unwind$?GetLengthFromPlayer@CBoss@Client@@QEBAMXZ
pdata	ENDS
;	COMDAT pdata
pdata	SEGMENT
$pdata$?CloseToPlayer@CBoss@Client@@QEAA_NXZ DD imagerel $LN5
	DD	imagerel $LN5+113
	DD	imagerel $unwind$?CloseToPlayer@CBoss@Client@@QEAA_NXZ
pdata	ENDS
;	COMDAT pdata
pdata	SEGMENT
$pdata$?LookTarget@CBoss@Client@@QEAA_NNM@Z DD imagerel $LN8
	DD	imagerel $LN8+589
	DD	imagerel $unwind$?LookTarget@CBoss@Client@@QEAA_NNM@Z
pdata	ENDS
;	COMDAT pdata
pdata	SEGMENT
$pdata$?SetupState@CBoss@Client@@AEAAXW4BOSS_CLIP@12@W4TYPE@CAnimation@Engine@@_N@Z DD imagerel $LN3
	DD	imagerel $LN3+122
	DD	imagerel $unwind$?SetupState@CBoss@Client@@AEAAXW4BOSS_CLIP@12@W4TYPE@CAnimation@Engine@@_N@Z
pdata	ENDS
;	COMDAT pdata
pdata	SEGMENT
$pdata$?DefaultAnimation@CBoss@Client@@AEAAXN@Z DD imagerel $LN37
	DD	imagerel $LN37+1316
	DD	imagerel $unwind$?DefaultAnimation@CBoss@Client@@AEAAXN@Z
pdata	ENDS
;	COMDAT pdata
pdata	SEGMENT
$pdata$?EvolutionAnimation@CBoss@Client@@AEAAXN@Z DD imagerel $LN13
	DD	imagerel $LN13+420
	DD	imagerel $unwind$?EvolutionAnimation@CBoss@Client@@AEAAXN@Z
pdata	ENDS
;	COMDAT pdata
pdata	SEGMENT
$pdata$?AnimationController@CBoss@Client@@AEAAXN@Z DD imagerel $LN19
	DD	imagerel $LN19+827
	DD	imagerel $unwind$?AnimationController@CBoss@Client@@AEAAXN@Z
pdata	ENDS
;	COMDAT pdata
pdata	SEGMENT
$pdata$?SetupColliders@CBoss@Client@@AEAAXXZ DD imagerel $LN20
	DD	imagerel $LN20+1261
	DD	imagerel $unwind$?SetupColliders@CBoss@Client@@AEAAXXZ
pdata	ENDS
;	COMDAT pdata
pdata	SEGMENT
$pdata$?GetPosition@CBoss@Client@@UEAA?AUXMFLOAT4@DirectX@@XZ DD imagerel $LN5
	DD	imagerel $LN5+274
	DD	imagerel $unwind$?GetPosition@CBoss@Client@@UEAA?AUXMFLOAT4@DirectX@@XZ
pdata	ENDS
;	COMDAT pdata
pdata	SEGMENT
$pdata$?GetLengthFromCamera@CBoss@Client@@UEAAMXZ DD imagerel $LN3
	DD	imagerel $LN3+262
	DD	imagerel $unwind$?GetLengthFromCamera@CBoss@Client@@UEAAMXZ
pdata	ENDS
;	COMDAT pdata
pdata	SEGMENT
$pdata$?GetBodyCollider@CBoss@Client@@UEAAPEAVCCollider@Engine@@XZ DD imagerel $LN3
	DD	imagerel $LN3+64
	DD	imagerel $unwind$?GetBodyCollider@CBoss@Client@@UEAAPEAVCCollider@Engine@@XZ
pdata	ENDS
;	COMDAT pdata
pdata	SEGMENT
$pdata$?GetWeaponCollider@CBoss@Client@@UEAAPEAVCCollider@Engine@@XZ DD imagerel $LN3
	DD	imagerel $LN3+64
	DD	imagerel $unwind$?GetWeaponCollider@CBoss@Client@@UEAAPEAVCCollider@Engine@@XZ
pdata	ENDS
;	COMDAT pdata
pdata	SEGMENT
$pdata$?GetOverlapCollider@CBoss@Client@@UEAAPEAVCCollider@Engine@@XZ DD imagerel $LN3
	DD	imagerel $LN3+64
	DD	imagerel $unwind$?GetOverlapCollider@CBoss@Client@@UEAAPEAVCCollider@Engine@@XZ
pdata	ENDS
;	COMDAT pdata
pdata	SEGMENT
$pdata$?Create@CBoss@Client@@SAPEAV12@PEAUID3D11Device@@PEAUID3D11DeviceContext@@@Z DD imagerel $LN7
	DD	imagerel $LN7+294
	DD	imagerel $unwind$?Create@CBoss@Client@@SAPEAV12@PEAUID3D11Device@@PEAUID3D11DeviceContext@@@Z
pdata	ENDS
;	COMDAT pdata
pdata	SEGMENT
$pdata$?dtor$0@?0??Create@CBoss@Client@@SAPEAV12@PEAUID3D11Device@@PEAUID3D11DeviceContext@@@Z@4HA DD imagerel ?dtor$0@?0??Create@CBoss@Client@@SAPEAV12@PEAUID3D11Device@@PEAUID3D11DeviceContext@@@Z@4HA
	DD	imagerel ?dtor$0@?0??Create@CBoss@Client@@SAPEAV12@PEAUID3D11Device@@PEAUID3D11DeviceContext@@@Z@4HA+61
	DD	imagerel $unwind$?dtor$0@?0??Create@CBoss@Client@@SAPEAV12@PEAUID3D11Device@@PEAUID3D11DeviceContext@@@Z@4HA
pdata	ENDS
;	COMDAT pdata
pdata	SEGMENT
$pdata$?Clone@CBoss@Client@@UEAAPEAVCGameObject@Engine@@PEAX@Z DD imagerel $LN7
	DD	imagerel $LN7+294
	DD	imagerel $unwind$?Clone@CBoss@Client@@UEAAPEAVCGameObject@Engine@@PEAX@Z
pdata	ENDS
;	COMDAT pdata
pdata	SEGMENT
$pdata$?dtor$0@?0??Clone@CBoss@Client@@UEAAPEAVCGameObject@Engine@@PEAX@Z@4HA DD imagerel ?dtor$0@?0??Clone@CBoss@Client@@UEAAPEAVCGameObject@Engine@@PEAX@Z@4HA
	DD	imagerel ?dtor$0@?0??Clone@CBoss@Client@@UEAAPEAVCGameObject@Engine@@PEAX@Z@4HA+61
	DD	imagerel $unwind$?dtor$0@?0??Clone@CBoss@Client@@UEAAPEAVCGameObject@Engine@@PEAX@Z@4HA
pdata	ENDS
;	COMDAT pdata
pdata	SEGMENT
$pdata$?Free@CBoss@Client@@UEAAXXZ DD imagerel $LN21
	DD	imagerel $LN21+647
	DD	imagerel $unwind$?Free@CBoss@Client@@UEAAXXZ
pdata	ENDS
;	COMDAT pdata
pdata	SEGMENT
$pdata$??_GCBoss@Client@@UEAAPEAXI@Z DD imagerel $LN4
	DD	imagerel $LN4+105
	DD	imagerel $unwind$??_GCBoss@Client@@UEAAPEAXI@Z
pdata	ENDS
;	COMDAT pdata
pdata	SEGMENT
$pdata$?IsFreeze@CApplicationManager@Client@@QEBA_NXZ DD imagerel $LN3
	DD	imagerel $LN3+61
	DD	imagerel $unwind$?IsFreeze@CApplicationManager@Client@@QEBA_NXZ
pdata	ENDS
;	COMDAT pdata
pdata	SEGMENT
$pdata$?GetOffSetMatrix@CBone@Engine@@QEBA?AUXMFLOAT4X4@DirectX@@XZ DD imagerel $LN3
	DD	imagerel $LN3+92
	DD	imagerel $unwind$?GetOffSetMatrix@CBone@Engine@@QEBA?AUXMFLOAT4X4@DirectX@@XZ
pdata	ENDS
;	COMDAT pdata
pdata	SEGMENT
$pdata$?GetCombinedMatrix@CBone@Engine@@QEBA?AUXMFLOAT4X4@DirectX@@XZ DD imagerel $LN3
	DD	imagerel $LN3+92
	DD	imagerel $unwind$?GetCombinedMatrix@CBone@Engine@@QEBA?AUXMFLOAT4X4@DirectX@@XZ
pdata	ENDS
;	COMDAT pdata
pdata	SEGMENT
$pdata$?SetType@CThorn@Client@@QEAAXW4TYPE@12@@Z DD imagerel $LN3
	DD	imagerel $LN3+73
	DD	imagerel $unwind$?SetType@CThorn@Client@@QEAAXW4TYPE@12@@Z
pdata	ENDS
;	COMDAT pdata
pdata	SEGMENT
$pdata$?SetMoveStart@CThorn@Client@@QEAAXXZ DD imagerel $LN3
	DD	imagerel $LN3+64
	DD	imagerel $unwind$?SetMoveStart@CThorn@Client@@QEAAXXZ
pdata	ENDS
;	COMDAT pdata
pdata	SEGMENT
$pdata$?IsRender@CThorn@Client@@QEAA_NXZ DD imagerel $LN3
	DD	imagerel $LN3+64
	DD	imagerel $unwind$?IsRender@CThorn@Client@@QEAA_NXZ
pdata	ENDS
;	COMDAT pdata
pdata	SEGMENT
$pdata$?IsScaleFinish@CThorn@Client@@QEAA_NXZ DD imagerel $LN3
	DD	imagerel $LN3+64
	DD	imagerel $unwind$?IsScaleFinish@CThorn@Client@@QEAA_NXZ
pdata	ENDS
;	COMDAT pdata
pdata	SEGMENT
$pdata$??$isnan@M@@YA_NM@Z DD imagerel $LN5
	DD	imagerel $LN5+92
	DD	imagerel $unwind$??$isnan@M@@YA_NM@Z
pdata	ENDS
;	COMDAT pdata
pdata	SEGMENT
$pdata$??$Safe_Release@PEAVCBoss@Client@@@Engine@@YAKAEAPEAVCBoss@Client@@@Z DD imagerel $LN5
	DD	imagerel $LN5+114
	DD	imagerel $unwind$??$Safe_Release@PEAVCBoss@Client@@@Engine@@YAKAEAPEAVCBoss@Client@@@Z
pdata	ENDS
;	COMDAT pdata
pdata	SEGMENT
$pdata$??$Safe_Release@PEAVCThorn@Client@@@Engine@@YAKAEAPEAVCThorn@Client@@@Z DD imagerel $LN5
	DD	imagerel $LN5+114
	DD	imagerel $unwind$??$Safe_Release@PEAVCThorn@Client@@@Engine@@YAKAEAPEAVCThorn@Client@@@Z
pdata	ENDS
;	COMDAT pdata
pdata	SEGMENT
$pdata$??$Safe_Release@PEAVCCollider@Engine@@@Engine@@YAKAEAPEAVCCollider@0@@Z DD imagerel $LN5
	DD	imagerel $LN5+114
	DD	imagerel $unwind$??$Safe_Release@PEAVCCollider@Engine@@@Engine@@YAKAEAPEAVCCollider@0@@Z
pdata	ENDS
;	COMDAT pdata
pdata	SEGMENT
$pdata$??$Safe_Release@PEAVCTransform@Engine@@@Engine@@YAKAEAPEAVCTransform@0@@Z DD imagerel $LN5
	DD	imagerel $LN5+114
	DD	imagerel $unwind$??$Safe_Release@PEAVCTransform@Engine@@@Engine@@YAKAEAPEAVCTransform@0@@Z
pdata	ENDS
;	COMDAT pdata
pdata	SEGMENT
$pdata$??$?0$$V@?$_Compressed_pair@U?$_Wrap_alloc@V?$allocator@_W@std@@@std@@V?$_String_val@U?$_Simple_types@_W@std@@@2@$00@std@@QEAA@U_Zero_then_variadic_args_t@1@@Z DD imagerel $LN4
	DD	imagerel $LN4+90
	DD	imagerel $unwind$??$?0$$V@?$_Compressed_pair@U?$_Wrap_alloc@V?$allocator@_W@std@@@std@@V?$_String_val@U?$_Simple_types@_W@std@@@2@$00@std@@QEAA@U_Zero_then_variadic_args_t@1@@Z
pdata	ENDS
;	COMDAT pdata
pdata	SEGMENT
$pdata$??$addressof@PEA_W@std@@YAPEAPEA_WAEAPEA_W@Z DD imagerel $LN3
	DD	imagerel $LN3+57
	DD	imagerel $unwind$??$addressof@PEA_W@std@@YAPEAPEA_WAEAPEA_W@Z
pdata	ENDS
;	COMDAT pdata
pdata	SEGMENT
$pdata$??$destroy@PEA_W@?$_Wrap_alloc@V?$allocator@_W@std@@@std@@QEAAXPEAPEA_W@Z DD imagerel $LN3
	DD	imagerel $LN3+76
	DD	imagerel $unwind$??$destroy@PEA_W@?$_Wrap_alloc@V?$allocator@_W@std@@@std@@QEAAXPEAPEA_W@Z
pdata	ENDS
;	COMDAT pdata
pdata	SEGMENT
$pdata$??$_Unfancy@_W@std@@YAPEA_WPEA_W@Z DD imagerel $LN3
	DD	imagerel $LN3+57
	DD	imagerel $unwind$??$_Unfancy@_W@std@@YAPEA_WPEA_W@Z
pdata	ENDS
;	COMDAT pdata
pdata	SEGMENT
$pdata$??$_Debug_pointer@$$CB_W@std@@YAXPEB_W0I@Z DD imagerel $LN4
	DD	imagerel $LN4+99
	DD	imagerel $unwind$??$_Debug_pointer@$$CB_W@std@@YAXPEB_W0I@Z
pdata	ENDS
;	COMDAT pdata
pdata	SEGMENT
$pdata$??$_Debug_pointer_if@$$CB_W@std@@YAX_NPEB_W1I@Z DD imagerel $LN4
	DD	imagerel $LN4+114
	DD	imagerel $unwind$??$_Debug_pointer_if@$$CB_W@std@@YAX_NPEB_W1I@Z
pdata	ENDS
;	COMDAT pdata
pdata	SEGMENT
$pdata$?deallocate@?$allocator@U_Container_proxy@std@@@std@@QEAAXPEAU_Container_proxy@2@_K@Z DD imagerel $LN3
	DD	imagerel $LN3+87
	DD	imagerel $unwind$?deallocate@?$allocator@U_Container_proxy@std@@@std@@QEAAXPEAU_Container_proxy@2@_K@Z
pdata	ENDS
;	COMDAT pdata
pdata	SEGMENT
$pdata$?allocate@?$allocator@U_Container_proxy@std@@@std@@QEAAPEAU_Container_proxy@2@_K@Z DD imagerel $LN3
	DD	imagerel $LN3+77
	DD	imagerel $unwind$?allocate@?$allocator@U_Container_proxy@std@@@std@@QEAAPEAU_Container_proxy@2@_K@Z
pdata	ENDS
;	COMDAT pdata
pdata	SEGMENT
$pdata$?address@?$_Wrap_alloc@V?$allocator@U_Container_proxy@std@@@std@@@std@@QEBAPEAU_Container_proxy@2@AEAU32@@Z DD imagerel $LN3
	DD	imagerel $LN3+69
	DD	imagerel $unwind$?address@?$_Wrap_alloc@V?$allocator@U_Container_proxy@std@@@std@@@std@@QEBAPEAU_Container_proxy@2@AEAU32@@Z
pdata	ENDS
;	COMDAT pdata
pdata	SEGMENT
$pdata$?allocate@?$_Wrap_alloc@V?$allocator@U_Container_proxy@std@@@std@@@std@@QEAAPEAU_Container_proxy@2@_K@Z DD imagerel $LN3
	DD	imagerel $LN3+76
	DD	imagerel $unwind$?allocate@?$_Wrap_alloc@V?$allocator@U_Container_proxy@std@@@std@@@std@@QEAAPEAU_Container_proxy@2@_K@Z
pdata	ENDS
;	COMDAT pdata
pdata	SEGMENT
$pdata$?deallocate@?$_Wrap_alloc@V?$allocator@U_Container_proxy@std@@@std@@@std@@QEAAXPEAU_Container_proxy@2@_K@Z DD imagerel $LN3
	DD	imagerel $LN3+88
	DD	imagerel $unwind$?deallocate@?$_Wrap_alloc@V?$allocator@U_Container_proxy@std@@@std@@@std@@QEAAXPEAU_Container_proxy@2@_K@Z
pdata	ENDS
;	COMDAT pdata
pdata	SEGMENT
$pdata$??$destroy@U_Container_proxy@std@@@?$_Wrap_alloc@V?$allocator@U_Container_proxy@std@@@std@@@std@@QEAAXPEAU_Container_proxy@1@@Z DD imagerel $LN3
	DD	imagerel $LN3+76
	DD	imagerel $unwind$??$destroy@U_Container_proxy@std@@@?$_Wrap_alloc@V?$allocator@U_Container_proxy@std@@@std@@@std@@QEAAXPEAU_Container_proxy@1@@Z
pdata	ENDS
;	COMDAT pdata
pdata	SEGMENT
$pdata$??$_Unfancy@U_Container_proxy@std@@@std@@YAPEAU_Container_proxy@0@PEAU10@@Z DD imagerel $LN3
	DD	imagerel $LN3+57
	DD	imagerel $unwind$??$_Unfancy@U_Container_proxy@std@@@std@@YAPEAU_Container_proxy@0@PEAU10@@Z
pdata	ENDS
;	COMDAT pdata
pdata	SEGMENT
$pdata$??$construct@U_Container_proxy@std@@U12@@?$_Wrap_alloc@V?$allocator@U_Container_proxy@std@@@std@@@std@@QEAAXPEAU_Container_proxy@1@$$QEAU21@@Z DD imagerel $LN3
	DD	imagerel $LN3+96
	DD	imagerel $unwind$??$construct@U_Container_proxy@std@@U12@@?$_Wrap_alloc@V?$allocator@U_Container_proxy@std@@@std@@@std@@QEAAXPEAU_Container_proxy@1@$$QEAU21@@Z
pdata	ENDS
;	COMDAT pdata
pdata	SEGMENT
$pdata$??$?0AEAU?$_Wrap_alloc@V?$allocator@_W@std@@@std@@@?$_Wrap_alloc@V?$allocator@U_Container_proxy@std@@@std@@@std@@QEAA@AEAU?$_Wrap_alloc@V?$allocator@_W@std@@@1@@Z DD imagerel $LN3
	DD	imagerel $LN3+91
	DD	imagerel $unwind$??$?0AEAU?$_Wrap_alloc@V?$allocator@_W@std@@@std@@@?$_Wrap_alloc@V?$allocator@U_Container_proxy@std@@@std@@@std@@QEAA@AEAU?$_Wrap_alloc@V?$allocator@_W@std@@@1@@Z
pdata	ENDS
;	COMDAT pdata
pdata	SEGMENT
$pdata$??$construct@PEA_WAEAPEA_W@?$_Wrap_alloc@V?$allocator@_W@std@@@std@@QEAAXPEAPEA_WAEAPEA_W@Z DD imagerel $LN3
	DD	imagerel $LN3+96
	DD	imagerel $unwind$??$construct@PEA_WAEAPEA_W@?$_Wrap_alloc@V?$allocator@_W@std@@@std@@QEAAXPEAPEA_WAEAPEA_W@Z
pdata	ENDS
;	COMDAT pdata
pdata	SEGMENT
$pdata$?pointer_to@?$pointer_traits@PEAU_Container_proxy@std@@@std@@SAPEAU_Container_proxy@2@AEAU32@@Z DD imagerel $LN3
	DD	imagerel $LN3+64
	DD	imagerel $unwind$?pointer_to@?$pointer_traits@PEAU_Container_proxy@std@@@std@@SAPEAU_Container_proxy@2@AEAU32@@Z
pdata	ENDS
;	COMDAT pdata
pdata	SEGMENT
$pdata$??$addressof@U_Container_proxy@std@@@std@@YAPEAU_Container_proxy@0@AEAU10@@Z DD imagerel $LN3
	DD	imagerel $LN3+57
	DD	imagerel $unwind$??$addressof@U_Container_proxy@std@@@std@@YAPEAU_Container_proxy@0@AEAU10@@Z
pdata	ENDS
;	COMDAT pdata
pdata	SEGMENT
$pdata$??$destroy@PEA_W@?$allocator_traits@V?$allocator@_W@std@@@std@@SAXAEAV?$allocator@_W@1@PEAPEA_W@Z DD imagerel $LN3
	DD	imagerel $LN3+76
	DD	imagerel $unwind$??$destroy@PEA_W@?$allocator_traits@V?$allocator@_W@std@@@std@@SAXAEAV?$allocator@_W@1@PEAPEA_W@Z
pdata	ENDS
;	COMDAT pdata
pdata	SEGMENT
$pdata$??$destroy@U_Container_proxy@std@@@?$allocator_traits@V?$allocator@U_Container_proxy@std@@@std@@@std@@SAXAEAV?$allocator@U_Container_proxy@std@@@1@PEAU_Container_proxy@1@@Z DD imagerel $LN3
	DD	imagerel $LN3+76
	DD	imagerel $unwind$??$destroy@U_Container_proxy@std@@@?$allocator_traits@V?$allocator@U_Container_proxy@std@@@std@@@std@@SAXAEAV?$allocator@U_Container_proxy@std@@@1@PEAU_Container_proxy@1@@Z
pdata	ENDS
;	COMDAT pdata
pdata	SEGMENT
$pdata$??$forward@U_Container_proxy@std@@@std@@YA$$QEAU_Container_proxy@0@AEAU10@@Z DD imagerel $LN3
	DD	imagerel $LN3+57
	DD	imagerel $unwind$??$forward@U_Container_proxy@std@@@std@@YA$$QEAU_Container_proxy@0@AEAU10@@Z
pdata	ENDS
;	COMDAT pdata
pdata	SEGMENT
$pdata$??$construct@U_Container_proxy@std@@U12@@?$allocator_traits@V?$allocator@U_Container_proxy@std@@@std@@@std@@SAXAEAV?$allocator@U_Container_proxy@std@@@1@PEAU_Container_proxy@1@$$QEAU31@@Z DD imagerel $LN3
	DD	imagerel $LN3+96
	DD	imagerel $unwind$??$construct@U_Container_proxy@std@@U12@@?$allocator_traits@V?$allocator@U_Container_proxy@std@@@std@@@std@@SAXAEAV?$allocator@U_Container_proxy@std@@@1@PEAU_Container_proxy@1@$$QEAU31@@Z
pdata	ENDS
;	COMDAT pdata
pdata	SEGMENT
$pdata$??$forward@AEAU?$_Wrap_alloc@V?$allocator@_W@std@@@std@@@std@@YAAEAU?$_Wrap_alloc@V?$allocator@_W@std@@@0@AEAU10@@Z DD imagerel $LN3
	DD	imagerel $LN3+57
	DD	imagerel $unwind$??$forward@AEAU?$_Wrap_alloc@V?$allocator@_W@std@@@std@@@std@@YAAEAU?$_Wrap_alloc@V?$allocator@_W@std@@@0@AEAU10@@Z
pdata	ENDS
;	COMDAT pdata
pdata	SEGMENT
$pdata$??$?0_W@?$allocator@U_Container_proxy@std@@@std@@QEAA@AEBV?$allocator@_W@1@@Z DD imagerel $LN3
	DD	imagerel $LN3+62
	DD	imagerel $unwind$??$?0_W@?$allocator@U_Container_proxy@std@@@std@@QEAA@AEBV?$allocator@_W@1@@Z
pdata	ENDS
;	COMDAT pdata
pdata	SEGMENT
$pdata$??$forward@AEAPEA_W@std@@YAAEAPEA_WAEAPEA_W@Z DD imagerel $LN3
	DD	imagerel $LN3+57
	DD	imagerel $unwind$??$forward@AEAPEA_W@std@@YAAEAPEA_WAEAPEA_W@Z
pdata	ENDS
;	COMDAT pdata
pdata	SEGMENT
$pdata$??$construct@PEA_WAEAPEA_W@?$allocator_traits@V?$allocator@_W@std@@@std@@SAXAEAV?$allocator@_W@1@PEAPEA_WAEAPEA_W@Z DD imagerel $LN3
	DD	imagerel $LN3+96
	DD	imagerel $unwind$??$construct@PEA_WAEAPEA_W@?$allocator_traits@V?$allocator@_W@std@@@std@@SAXAEAV?$allocator@_W@1@PEAPEA_WAEAPEA_W@Z
pdata	ENDS
;	COMDAT pdata
pdata	SEGMENT
$pdata$??$destroy@PEA_W@?$allocator@_W@std@@QEAAXPEAPEA_W@Z DD imagerel $LN3
	DD	imagerel $LN3+55
	DD	imagerel $unwind$??$destroy@PEA_W@?$allocator@_W@std@@QEAAXPEAPEA_W@Z
pdata	ENDS
;	COMDAT pdata
pdata	SEGMENT
$pdata$??$destroy@U_Container_proxy@std@@@?$allocator@U_Container_proxy@std@@@std@@QEAAXPEAU_Container_proxy@1@@Z DD imagerel $LN3
	DD	imagerel $LN3+55
	DD	imagerel $unwind$??$destroy@U_Container_proxy@std@@@?$allocator@U_Container_proxy@std@@@std@@QEAAXPEAU_Container_proxy@1@@Z
pdata	ENDS
;	COMDAT pdata
pdata	SEGMENT
$pdata$??$construct@U_Container_proxy@std@@U12@@?$allocator@U_Container_proxy@std@@@std@@QEAAXPEAU_Container_proxy@1@$$QEAU21@@Z DD imagerel $LN5
	DD	imagerel $LN5+154
	DD	imagerel $unwind$??$construct@U_Container_proxy@std@@U12@@?$allocator@U_Container_proxy@std@@@std@@QEAAXPEAU_Container_proxy@1@$$QEAU21@@Z
pdata	ENDS
;	COMDAT pdata
pdata	SEGMENT
$pdata$??$construct@PEA_WAEAPEA_W@?$allocator@_W@std@@QEAAXPEAPEA_WAEAPEA_W@Z DD imagerel $LN5
	DD	imagerel $LN5+148
	DD	imagerel $unwind$??$construct@PEA_WAEAPEA_W@?$allocator@_W@std@@QEAAXPEAPEA_WAEAPEA_W@Z
pdata	ENDS
;	COMDAT __xmm@80000000800000008000000080000000
CONST	SEGMENT
__xmm@80000000800000008000000080000000 DB 00H, 00H, 00H, 080H, 00H, 00H, 00H
	DB	080H, 00H, 00H, 00H, 080H, 00H, 00H, 00H, 080H
CONST	ENDS
;	COMDAT __real@469c4000
CONST	SEGMENT
__real@469c4000 DD 0469c4000r			; 20000
CONST	ENDS
;	COMDAT __real@44610000
CONST	SEGMENT
__real@44610000 DD 044610000r			; 900
CONST	ENDS
;	COMDAT __real@43340000
CONST	SEGMENT
__real@43340000 DD 043340000r			; 180
CONST	ENDS
;	COMDAT __real@42480000
CONST	SEGMENT
__real@42480000 DD 042480000r			; 50
CONST	ENDS
;	COMDAT __real@41a80000
CONST	SEGMENT
__real@41a80000 DD 041a80000r			; 21
CONST	ENDS
;	COMDAT __real@41a00000
CONST	SEGMENT
__real@41a00000 DD 041a00000r			; 20
CONST	ENDS
;	COMDAT __real@41900000
CONST	SEGMENT
__real@41900000 DD 041900000r			; 18
CONST	ENDS
;	COMDAT __real@41200000
CONST	SEGMENT
__real@41200000 DD 041200000r			; 10
CONST	ENDS
;	COMDAT __real@40c00000
CONST	SEGMENT
__real@40c00000 DD 040c00000r			; 6
CONST	ENDS
;	COMDAT __real@40a00000
CONST	SEGMENT
__real@40a00000 DD 040a00000r			; 5
CONST	ENDS
;	COMDAT __real@40800000
CONST	SEGMENT
__real@40800000 DD 040800000r			; 4
CONST	ENDS
;	COMDAT __real@40400000
CONST	SEGMENT
__real@40400000 DD 040400000r			; 3
CONST	ENDS
;	COMDAT __real@4018000000000000
CONST	SEGMENT
__real@4018000000000000 DQ 04018000000000000r	; 6
CONST	ENDS
;	COMDAT __real@40000000
CONST	SEGMENT
__real@40000000 DD 040000000r			; 2
CONST	ENDS
;	COMDAT __real@3fe66666
CONST	SEGMENT
__real@3fe66666 DD 03fe66666r			; 1.8
CONST	ENDS
;	COMDAT __real@3fe0000000000000
CONST	SEGMENT
__real@3fe0000000000000 DQ 03fe0000000000000r	; 0.5
CONST	ENDS
;	COMDAT __real@3fd999999999999a
CONST	SEGMENT
__real@3fd999999999999a DQ 03fd999999999999ar	; 0.4
CONST	ENDS
;	COMDAT __real@3fd3333333333333
CONST	SEGMENT
__real@3fd3333333333333 DQ 03fd3333333333333r	; 0.3
CONST	ENDS
;	COMDAT __real@3fd0000000000000
CONST	SEGMENT
__real@3fd0000000000000 DQ 03fd0000000000000r	; 0.25
CONST	ENDS
;	COMDAT __real@3fc999999999999a
CONST	SEGMENT
__real@3fc999999999999a DQ 03fc999999999999ar	; 0.2
CONST	ENDS
;	COMDAT __real@3fc00000
CONST	SEGMENT
__real@3fc00000 DD 03fc00000r			; 1.5
CONST	ENDS
;	COMDAT __real@3fa66666
CONST	SEGMENT
__real@3fa66666 DD 03fa66666r			; 1.3
CONST	ENDS
;	COMDAT __real@3f8ccccd
CONST	SEGMENT
__real@3f8ccccd DD 03f8ccccdr			; 1.1
CONST	ENDS
;	COMDAT __real@3f800000
CONST	SEGMENT
__real@3f800000 DD 03f800000r			; 1
CONST	ENDS
;	COMDAT __real@3f4ccccd
CONST	SEGMENT
__real@3f4ccccd DD 03f4ccccdr			; 0.8
CONST	ENDS
;	COMDAT __real@3f000000
CONST	SEGMENT
__real@3f000000 DD 03f000000r			; 0.5
CONST	ENDS
;	COMDAT __real@3edc28f6
CONST	SEGMENT
__real@3edc28f6 DD 03edc28f6r			; 0.43
CONST	ENDS
;	COMDAT __real@3ecccccd
CONST	SEGMENT
__real@3ecccccd DD 03ecccccdr			; 0.4
CONST	ENDS
;	COMDAT __real@3e99999a
CONST	SEGMENT
__real@3e99999a DD 03e99999ar			; 0.3
CONST	ENDS
;	COMDAT __real@3dcccccd
CONST	SEGMENT
__real@3dcccccd DD 03dcccccdr			; 0.1
CONST	ENDS
;	COMDAT __real@3d4ccccd
CONST	SEGMENT
__real@3d4ccccd DD 03d4ccccdr			; 0.05
CONST	ENDS
;	COMDAT __real@3c8efa35
CONST	SEGMENT
__real@3c8efa35 DD 03c8efa35r			; 0.0174533
CONST	ENDS
;	COMDAT __real@3c23d70a
CONST	SEGMENT
__real@3c23d70a DD 03c23d70ar			; 0.01
CONST	ENDS
;	COMDAT __real@00000000
CONST	SEGMENT
__real@00000000 DD 000000000r			; 0
CONST	ENDS
;	COMDAT rtc$TMZ
rtc$TMZ	SEGMENT
_RTC_Shutdown.rtc$TMZ DQ FLAT:_RTC_Shutdown
rtc$TMZ	ENDS
;	COMDAT rtc$IMZ
rtc$IMZ	SEGMENT
_RTC_InitBase.rtc$IMZ DQ FLAT:_RTC_InitBase
rtc$IMZ	ENDS
;	COMDAT ??_R4CBoss@Client@@6BIOnCollisionExit@Engine@@@
rdata$r	SEGMENT
??_R4CBoss@Client@@6BIOnCollisionExit@Engine@@@ DD 01H	; Client::CBoss::`RTTI Complete Object Locator'
	DD	088H
	DD	00H
	DD	imagerel ??_R0?AVCBoss@Client@@@8
	DD	imagerel ??_R3CBoss@Client@@8
	DD	imagerel ??_R4CBoss@Client@@6BIOnCollisionExit@Engine@@@
rdata$r	ENDS
;	COMDAT ??_R4CBoss@Client@@6BIOnCollisionStay@Engine@@@
rdata$r	SEGMENT
??_R4CBoss@Client@@6BIOnCollisionStay@Engine@@@ DD 01H	; Client::CBoss::`RTTI Complete Object Locator'
	DD	080H
	DD	00H
	DD	imagerel ??_R0?AVCBoss@Client@@@8
	DD	imagerel ??_R3CBoss@Client@@8
	DD	imagerel ??_R4CBoss@Client@@6BIOnCollisionStay@Engine@@@
rdata$r	ENDS
;	COMDAT ??_R4CBoss@Client@@6BIOnCollisionEnter@Engine@@@
rdata$r	SEGMENT
??_R4CBoss@Client@@6BIOnCollisionEnter@Engine@@@ DD 01H	; Client::CBoss::`RTTI Complete Object Locator'
	DD	078H
	DD	00H
	DD	imagerel ??_R0?AVCBoss@Client@@@8
	DD	imagerel ??_R3CBoss@Client@@8
	DD	imagerel ??_R4CBoss@Client@@6BIOnCollisionEnter@Engine@@@
rdata$r	ENDS
;	COMDAT ??_R1A@?0A@EA@IOnCollisionExit@Engine@@8
rdata$r	SEGMENT
??_R1A@?0A@EA@IOnCollisionExit@Engine@@8 DD imagerel ??_R0?AVIOnCollisionExit@Engine@@@8 ; Engine::IOnCollisionExit::`RTTI Base Class Descriptor at (0,-1,0,64)'
	DD	00H
	DD	00H
	DD	0ffffffffH
	DD	00H
	DD	040H
	DD	imagerel ??_R3IOnCollisionExit@Engine@@8
rdata$r	ENDS
;	COMDAT ??_R2IOnCollisionExit@Engine@@8
rdata$r	SEGMENT
??_R2IOnCollisionExit@Engine@@8 DD imagerel ??_R1A@?0A@EA@IOnCollisionExit@Engine@@8 ; Engine::IOnCollisionExit::`RTTI Base Class Array'
	ORG $+3
rdata$r	ENDS
;	COMDAT ??_R3IOnCollisionExit@Engine@@8
rdata$r	SEGMENT
??_R3IOnCollisionExit@Engine@@8 DD 00H			; Engine::IOnCollisionExit::`RTTI Class Hierarchy Descriptor'
	DD	00H
	DD	01H
	DD	imagerel ??_R2IOnCollisionExit@Engine@@8
rdata$r	ENDS
;	COMDAT ??_R0?AVIOnCollisionExit@Engine@@@8
data$r	SEGMENT
??_R0?AVIOnCollisionExit@Engine@@@8 DQ FLAT:??_7type_info@@6B@ ; Engine::IOnCollisionExit `RTTI Type Descriptor'
	DQ	0000000000000000H
	DB	'.?AVIOnCollisionExit@Engine@@', 00H
data$r	ENDS
;	COMDAT ??_R1II@?0A@EA@IOnCollisionExit@Engine@@8
rdata$r	SEGMENT
??_R1II@?0A@EA@IOnCollisionExit@Engine@@8 DD imagerel ??_R0?AVIOnCollisionExit@Engine@@@8 ; Engine::IOnCollisionExit::`RTTI Base Class Descriptor at (136,-1,0,64)'
	DD	00H
	DD	088H
	DD	0ffffffffH
	DD	00H
	DD	040H
	DD	imagerel ??_R3IOnCollisionExit@Engine@@8
rdata$r	ENDS
;	COMDAT ??_R1A@?0A@EA@IOnCollisionStay@Engine@@8
rdata$r	SEGMENT
??_R1A@?0A@EA@IOnCollisionStay@Engine@@8 DD imagerel ??_R0?AVIOnCollisionStay@Engine@@@8 ; Engine::IOnCollisionStay::`RTTI Base Class Descriptor at (0,-1,0,64)'
	DD	00H
	DD	00H
	DD	0ffffffffH
	DD	00H
	DD	040H
	DD	imagerel ??_R3IOnCollisionStay@Engine@@8
rdata$r	ENDS
;	COMDAT ??_R2IOnCollisionStay@Engine@@8
rdata$r	SEGMENT
??_R2IOnCollisionStay@Engine@@8 DD imagerel ??_R1A@?0A@EA@IOnCollisionStay@Engine@@8 ; Engine::IOnCollisionStay::`RTTI Base Class Array'
	ORG $+3
rdata$r	ENDS
;	COMDAT ??_R3IOnCollisionStay@Engine@@8
rdata$r	SEGMENT
??_R3IOnCollisionStay@Engine@@8 DD 00H			; Engine::IOnCollisionStay::`RTTI Class Hierarchy Descriptor'
	DD	00H
	DD	01H
	DD	imagerel ??_R2IOnCollisionStay@Engine@@8
rdata$r	ENDS
;	COMDAT ??_R0?AVIOnCollisionStay@Engine@@@8
data$r	SEGMENT
??_R0?AVIOnCollisionStay@Engine@@@8 DQ FLAT:??_7type_info@@6B@ ; Engine::IOnCollisionStay `RTTI Type Descriptor'
	DQ	0000000000000000H
	DB	'.?AVIOnCollisionStay@Engine@@', 00H
data$r	ENDS
;	COMDAT ??_R1IA@?0A@EA@IOnCollisionStay@Engine@@8
rdata$r	SEGMENT
??_R1IA@?0A@EA@IOnCollisionStay@Engine@@8 DD imagerel ??_R0?AVIOnCollisionStay@Engine@@@8 ; Engine::IOnCollisionStay::`RTTI Base Class Descriptor at (128,-1,0,64)'
	DD	00H
	DD	080H
	DD	0ffffffffH
	DD	00H
	DD	040H
	DD	imagerel ??_R3IOnCollisionStay@Engine@@8
rdata$r	ENDS
;	COMDAT ??_R1A@?0A@EA@IOnCollisionEnter@Engine@@8
rdata$r	SEGMENT
??_R1A@?0A@EA@IOnCollisionEnter@Engine@@8 DD imagerel ??_R0?AVIOnCollisionEnter@Engine@@@8 ; Engine::IOnCollisionEnter::`RTTI Base Class Descriptor at (0,-1,0,64)'
	DD	00H
	DD	00H
	DD	0ffffffffH
	DD	00H
	DD	040H
	DD	imagerel ??_R3IOnCollisionEnter@Engine@@8
rdata$r	ENDS
;	COMDAT ??_R2IOnCollisionEnter@Engine@@8
rdata$r	SEGMENT
??_R2IOnCollisionEnter@Engine@@8 DD imagerel ??_R1A@?0A@EA@IOnCollisionEnter@Engine@@8 ; Engine::IOnCollisionEnter::`RTTI Base Class Array'
	ORG $+3
rdata$r	ENDS
;	COMDAT ??_R3IOnCollisionEnter@Engine@@8
rdata$r	SEGMENT
??_R3IOnCollisionEnter@Engine@@8 DD 00H			; Engine::IOnCollisionEnter::`RTTI Class Hierarchy Descriptor'
	DD	00H
	DD	01H
	DD	imagerel ??_R2IOnCollisionEnter@Engine@@8
rdata$r	ENDS
;	COMDAT ??_R0?AVIOnCollisionEnter@Engine@@@8
data$r	SEGMENT
??_R0?AVIOnCollisionEnter@Engine@@@8 DQ FLAT:??_7type_info@@6B@ ; Engine::IOnCollisionEnter `RTTI Type Descriptor'
	DQ	0000000000000000H
	DB	'.?AVIOnCollisionEnter@Engine@@', 00H
data$r	ENDS
;	COMDAT ??_R1HI@?0A@EA@IOnCollisionEnter@Engine@@8
rdata$r	SEGMENT
??_R1HI@?0A@EA@IOnCollisionEnter@Engine@@8 DD imagerel ??_R0?AVIOnCollisionEnter@Engine@@@8 ; Engine::IOnCollisionEnter::`RTTI Base Class Descriptor at (120,-1,0,64)'
	DD	00H
	DD	078H
	DD	0ffffffffH
	DD	00H
	DD	040H
	DD	imagerel ??_R3IOnCollisionEnter@Engine@@8
rdata$r	ENDS
;	COMDAT ??_R2CBase@Engine@@8
rdata$r	SEGMENT
??_R2CBase@Engine@@8 DD imagerel ??_R1A@?0A@EA@CBase@Engine@@8 ; Engine::CBase::`RTTI Base Class Array'
	ORG $+3
rdata$r	ENDS
;	COMDAT ??_R3CBase@Engine@@8
rdata$r	SEGMENT
??_R3CBase@Engine@@8 DD 00H				; Engine::CBase::`RTTI Class Hierarchy Descriptor'
	DD	00H
	DD	01H
	DD	imagerel ??_R2CBase@Engine@@8
rdata$r	ENDS
;	COMDAT ??_R0?AVCBase@Engine@@@8
data$r	SEGMENT
??_R0?AVCBase@Engine@@@8 DQ FLAT:??_7type_info@@6B@	; Engine::CBase `RTTI Type Descriptor'
	DQ	0000000000000000H
	DB	'.?AVCBase@Engine@@', 00H
data$r	ENDS
;	COMDAT ??_R1A@?0A@EA@CBase@Engine@@8
rdata$r	SEGMENT
??_R1A@?0A@EA@CBase@Engine@@8 DD imagerel ??_R0?AVCBase@Engine@@@8 ; Engine::CBase::`RTTI Base Class Descriptor at (0,-1,0,64)'
	DD	00H
	DD	00H
	DD	0ffffffffH
	DD	00H
	DD	040H
	DD	imagerel ??_R3CBase@Engine@@8
rdata$r	ENDS
;	COMDAT ??_R2CGameObject@Engine@@8
rdata$r	SEGMENT
??_R2CGameObject@Engine@@8 DD imagerel ??_R1A@?0A@EA@CGameObject@Engine@@8 ; Engine::CGameObject::`RTTI Base Class Array'
	DD	imagerel ??_R1A@?0A@EA@CBase@Engine@@8
	ORG $+3
rdata$r	ENDS
;	COMDAT ??_R3CGameObject@Engine@@8
rdata$r	SEGMENT
??_R3CGameObject@Engine@@8 DD 00H			; Engine::CGameObject::`RTTI Class Hierarchy Descriptor'
	DD	00H
	DD	02H
	DD	imagerel ??_R2CGameObject@Engine@@8
rdata$r	ENDS
;	COMDAT ??_R0?AVCGameObject@Engine@@@8
data$r	SEGMENT
??_R0?AVCGameObject@Engine@@@8 DQ FLAT:??_7type_info@@6B@ ; Engine::CGameObject `RTTI Type Descriptor'
	DQ	0000000000000000H
	DB	'.?AVCGameObject@Engine@@', 00H
data$r	ENDS
;	COMDAT ??_R1A@?0A@EA@CGameObject@Engine@@8
rdata$r	SEGMENT
??_R1A@?0A@EA@CGameObject@Engine@@8 DD imagerel ??_R0?AVCGameObject@Engine@@@8 ; Engine::CGameObject::`RTTI Base Class Descriptor at (0,-1,0,64)'
	DD	01H
	DD	00H
	DD	0ffffffffH
	DD	00H
	DD	040H
	DD	imagerel ??_R3CGameObject@Engine@@8
rdata$r	ENDS
;	COMDAT ??_R2CEnemy@Client@@8
rdata$r	SEGMENT
??_R2CEnemy@Client@@8 DD imagerel ??_R1A@?0A@EA@CEnemy@Client@@8 ; Client::CEnemy::`RTTI Base Class Array'
	DD	imagerel ??_R1A@?0A@EA@CGameObject@Engine@@8
	DD	imagerel ??_R1A@?0A@EA@CBase@Engine@@8
	DD	imagerel ??_R1HI@?0A@EA@IOnCollisionEnter@Engine@@8
	DD	imagerel ??_R1IA@?0A@EA@IOnCollisionStay@Engine@@8
	DD	imagerel ??_R1II@?0A@EA@IOnCollisionExit@Engine@@8
	ORG $+3
rdata$r	ENDS
;	COMDAT ??_R3CEnemy@Client@@8
rdata$r	SEGMENT
??_R3CEnemy@Client@@8 DD 00H				; Client::CEnemy::`RTTI Class Hierarchy Descriptor'
	DD	01H
	DD	06H
	DD	imagerel ??_R2CEnemy@Client@@8
rdata$r	ENDS
;	COMDAT ??_R0?AVCEnemy@Client@@@8
data$r	SEGMENT
??_R0?AVCEnemy@Client@@@8 DQ FLAT:??_7type_info@@6B@	; Client::CEnemy `RTTI Type Descriptor'
	DQ	0000000000000000H
	DB	'.?AVCEnemy@Client@@', 00H
data$r	ENDS
;	COMDAT ??_R1A@?0A@EA@CEnemy@Client@@8
rdata$r	SEGMENT
??_R1A@?0A@EA@CEnemy@Client@@8 DD imagerel ??_R0?AVCEnemy@Client@@@8 ; Client::CEnemy::`RTTI Base Class Descriptor at (0,-1,0,64)'
	DD	05H
	DD	00H
	DD	0ffffffffH
	DD	00H
	DD	040H
	DD	imagerel ??_R3CEnemy@Client@@8
rdata$r	ENDS
;	COMDAT ??_R1A@?0A@EA@CBoss@Client@@8
rdata$r	SEGMENT
??_R1A@?0A@EA@CBoss@Client@@8 DD imagerel ??_R0?AVCBoss@Client@@@8 ; Client::CBoss::`RTTI Base Class Descriptor at (0,-1,0,64)'
	DD	06H
	DD	00H
	DD	0ffffffffH
	DD	00H
	DD	040H
	DD	imagerel ??_R3CBoss@Client@@8
rdata$r	ENDS
;	COMDAT ??_R2CBoss@Client@@8
rdata$r	SEGMENT
??_R2CBoss@Client@@8 DD imagerel ??_R1A@?0A@EA@CBoss@Client@@8 ; Client::CBoss::`RTTI Base Class Array'
	DD	imagerel ??_R1A@?0A@EA@CEnemy@Client@@8
	DD	imagerel ??_R1A@?0A@EA@CGameObject@Engine@@8
	DD	imagerel ??_R1A@?0A@EA@CBase@Engine@@8
	DD	imagerel ??_R1HI@?0A@EA@IOnCollisionEnter@Engine@@8
	DD	imagerel ??_R1IA@?0A@EA@IOnCollisionStay@Engine@@8
	DD	imagerel ??_R1II@?0A@EA@IOnCollisionExit@Engine@@8
	ORG $+3
rdata$r	ENDS
;	COMDAT ??_R3CBoss@Client@@8
rdata$r	SEGMENT
??_R3CBoss@Client@@8 DD 00H				; Client::CBoss::`RTTI Class Hierarchy Descriptor'
	DD	01H
	DD	07H
	DD	imagerel ??_R2CBoss@Client@@8
rdata$r	ENDS
;	COMDAT ??_R0?AVCBoss@Client@@@8
data$r	SEGMENT
??_R0?AVCBoss@Client@@@8 DQ FLAT:??_7type_info@@6B@	; Client::CBoss `RTTI Type Descriptor'
	DQ	0000000000000000H
	DB	'.?AVCBoss@Client@@', 00H
data$r	ENDS
;	COMDAT ??_R4CBoss@Client@@6BCGameObject@Engine@@@
rdata$r	SEGMENT
??_R4CBoss@Client@@6BCGameObject@Engine@@@ DD 01H	; Client::CBoss::`RTTI Complete Object Locator'
	DD	00H
	DD	00H
	DD	imagerel ??_R0?AVCBoss@Client@@@8
	DD	imagerel ??_R3CBoss@Client@@8
	DD	imagerel ??_R4CBoss@Client@@6BCGameObject@Engine@@@
rdata$r	ENDS
;	COMDAT ??_C@_1CK@EOPGIILJ@?$AAi?$AAn?$AAv?$AAa?$AAl?$AAi?$AAd?$AA?5?$AAn?$AAu?$AAl?$AAl?$AA?5?$AAp?$AAo?$AAi?$AAn?$AAt?$AAe?$AAr?$AA?$AA@
CONST	SEGMENT
??_C@_1CK@EOPGIILJ@?$AAi?$AAn?$AAv?$AAa?$AAl?$AAi?$AAd?$AA?5?$AAn?$AAu?$AAl?$AAl?$AA?5?$AAp?$AAo?$AAi?$AAn?$AAt?$AAe?$AAr?$AA?$AA@ DB 'i'
	DB	00H, 'n', 00H, 'v', 00H, 'a', 00H, 'l', 00H, 'i', 00H, 'd', 00H
	DB	' ', 00H, 'n', 00H, 'u', 00H, 'l', 00H, 'l', 00H, ' ', 00H, 'p'
	DB	00H, 'o', 00H, 'i', 00H, 'n', 00H, 't', 00H, 'e', 00H, 'r', 00H
	DB	00H, 00H					; `string'
CONST	ENDS
;	COMDAT ??_C@_0BI@CFPLBAOH@invalid?5string?5position?$AA@
CONST	SEGMENT
??_C@_0BI@CFPLBAOH@invalid?5string?5position?$AA@ DB 'invalid string posi'
	DB	'tion', 00H					; `string'
CONST	ENDS
;	COMDAT ??_C@_0BA@JFNIOLAK@string?5too?5long?$AA@
CONST	SEGMENT
??_C@_0BA@JFNIOLAK@string?5too?5long?$AA@ DB 'string too long', 00H ; `string'
CONST	ENDS
;	COMDAT ??_C@_1IO@EADHKMNI@?$AAc?$AA?3?$AA?2?$AAp?$AAr?$AAo?$AAg?$AAr?$AAa?$AAm?$AA?5?$AAf?$AAi?$AAl?$AAe?$AAs?$AA?5?$AA?$CI?$AAx?$AA8?$AA6?$AA?$CJ?$AA?2?$AAm?$AAi?$AAc?$AAr?$AAo?$AAs?$AAo?$AAf?$AAt@
CONST	SEGMENT
??_C@_1IO@EADHKMNI@?$AAc?$AA?3?$AA?2?$AAp?$AAr?$AAo?$AAg?$AAr?$AAa?$AAm?$AA?5?$AAf?$AAi?$AAl?$AAe?$AAs?$AA?5?$AA?$CI?$AAx?$AA8?$AA6?$AA?$CJ?$AA?2?$AAm?$AAi?$AAc?$AAr?$AAo?$AAs?$AAo?$AAf?$AAt@ DB 'c'
	DB	00H, ':', 00H, '\', 00H, 'p', 00H, 'r', 00H, 'o', 00H, 'g', 00H
	DB	'r', 00H, 'a', 00H, 'm', 00H, ' ', 00H, 'f', 00H, 'i', 00H, 'l'
	DB	00H, 'e', 00H, 's', 00H, ' ', 00H, '(', 00H, 'x', 00H, '8', 00H
	DB	'6', 00H, ')', 00H, '\', 00H, 'm', 00H, 'i', 00H, 'c', 00H, 'r'
	DB	00H, 'o', 00H, 's', 00H, 'o', 00H, 'f', 00H, 't', 00H, ' ', 00H
	DB	'v', 00H, 'i', 00H, 's', 00H, 'u', 00H, 'a', 00H, 'l', 00H, ' '
	DB	00H, 's', 00H, 't', 00H, 'u', 00H, 'd', 00H, 'i', 00H, 'o', 00H
	DB	' ', 00H, '1', 00H, '4', 00H, '.', 00H, '0', 00H, '\', 00H, 'v'
	DB	00H, 'c', 00H, '\', 00H, 'i', 00H, 'n', 00H, 'c', 00H, 'l', 00H
	DB	'u', 00H, 'd', 00H, 'e', 00H, '\', 00H, 'x', 00H, 's', 00H, 't'
	DB	00H, 'r', 00H, 'i', 00H, 'n', 00H, 'g', 00H, 00H, 00H ; `string'
CONST	ENDS
;	COMDAT ??_C@_1DA@BKHIPPE@?$AAF?$AAa?$AAi?$AAl?$AAe?$AAd?$AA?5?$AAt?$AAo?$AA?5?$AAC?$AAl?$AAo?$AAn?$AAe?$AA?5?$AA?3?$AA?5?$AAC?$AAB?$AAo?$AAs?$AAs?$AA?$AA@
CONST	SEGMENT
??_C@_1DA@BKHIPPE@?$AAF?$AAa?$AAi?$AAl?$AAe?$AAd?$AA?5?$AAt?$AAo?$AA?5?$AAC?$AAl?$AAo?$AAn?$AAe?$AA?5?$AA?3?$AA?5?$AAC?$AAB?$AAo?$AAs?$AAs?$AA?$AA@ DB 'F'
	DB	00H, 'a', 00H, 'i', 00H, 'l', 00H, 'e', 00H, 'd', 00H, ' ', 00H
	DB	't', 00H, 'o', 00H, ' ', 00H, 'C', 00H, 'l', 00H, 'o', 00H, 'n'
	DB	00H, 'e', 00H, ' ', 00H, ':', 00H, ' ', 00H, 'C', 00H, 'B', 00H
	DB	'o', 00H, 's', 00H, 's', 00H, 00H, 00H	; `string'
CONST	ENDS
;	COMDAT ?__LINE__Var@?0??Clone@CBoss@Client@@UEAAPEAVCGameObject@Engine@@PEAX@Z@4JA
_DATA	SEGMENT
?__LINE__Var@?0??Clone@CBoss@Client@@UEAAPEAVCGameObject@Engine@@PEAX@Z@4JA DD 0989H ; `Client::CBoss::Clone'::`1'::__LINE__Var
_DATA	ENDS
;	COMDAT ??_C@_1DC@LANGOHIF@?$AAF?$AAa?$AAi?$AAl?$AAe?$AAd?$AA?5?$AAt?$AAo?$AA?5?$AAC?$AAr?$AAe?$AAa?$AAt?$AAe?$AA?5?$AA?3?$AA?5?$AAC?$AAB?$AAo?$AAs?$AAs?$AA?$AA@
CONST	SEGMENT
??_C@_1DC@LANGOHIF@?$AAF?$AAa?$AAi?$AAl?$AAe?$AAd?$AA?5?$AAt?$AAo?$AA?5?$AAC?$AAr?$AAe?$AAa?$AAt?$AAe?$AA?5?$AA?3?$AA?5?$AAC?$AAB?$AAo?$AAs?$AAs?$AA?$AA@ DB 'F'
	DB	00H, 'a', 00H, 'i', 00H, 'l', 00H, 'e', 00H, 'd', 00H, ' ', 00H
	DB	't', 00H, 'o', 00H, ' ', 00H, 'C', 00H, 'r', 00H, 'e', 00H, 'a'
	DB	00H, 't', 00H, 'e', 00H, ' ', 00H, ':', 00H, ' ', 00H, 'C', 00H
	DB	'B', 00H, 'o', 00H, 's', 00H, 's', 00H, 00H, 00H ; `string'
CONST	ENDS
;	COMDAT ??_C@_1BA@HHOMBECE@?$AAM?$AAe?$AAs?$AAs?$AAa?$AAg?$AAe?$AA?$AA@
CONST	SEGMENT
??_C@_1BA@HHOMBECE@?$AAM?$AAe?$AAs?$AAs?$AAa?$AAg?$AAe?$AA?$AA@ DB 'M', 00H
	DB	'e', 00H, 's', 00H, 's', 00H, 'a', 00H, 'g', 00H, 'e', 00H, 00H
	DB	00H						; `string'
CONST	ENDS
;	COMDAT ??_C@_0EC@DBBJIPGP@c?3?2users?2arcco?2documents?2github?2@
CONST	SEGMENT
??_C@_0EC@DBBJIPGP@c?3?2users?2arcco?2documents?2github?2@ DB 'c:\users\a'
	DB	'rcco\documents\github\framework\client\private\boss.cpp', 00H ; `string'
CONST	ENDS
;	COMDAT ?__LINE__Var@?0??Create@CBoss@Client@@SAPEAV23@PEAUID3D11Device@@PEAUID3D11DeviceContext@@@Z@4JA
_DATA	SEGMENT
?__LINE__Var@?0??Create@CBoss@Client@@SAPEAV23@PEAUID3D11Device@@PEAUID3D11DeviceContext@@@Z@4JA DD 097dH ; `Client::CBoss::Create'::`1'::__LINE__Var
_DATA	ENDS
;	COMDAT ??_C@_07NJCOLGJG@BoneHip?$AA@
CONST	SEGMENT
??_C@_07NJCOLGJG@BoneHip?$AA@ DB 'BoneHip', 00H		; `string'
CONST	ENDS
;	COMDAT ??_C@_0BA@EALGDMPJ@g_vLightAmbient?$AA@
CONST	SEGMENT
??_C@_0BA@EALGDMPJ@g_vLightAmbient?$AA@ DB 'g_vLightAmbient', 00H ; `string'
CONST	ENDS
;	COMDAT ??_C@_0BB@IJIIKIH@g_vLightSpecular?$AA@
CONST	SEGMENT
??_C@_0BB@IJIIKIH@g_vLightSpecular?$AA@ DB 'g_vLightSpecular', 00H ; `string'
CONST	ENDS
;	COMDAT ??_C@_0BA@PCOGIHOF@g_vLightDiffuse?$AA@
CONST	SEGMENT
??_C@_0BA@PCOGIHOF@g_vLightDiffuse?$AA@ DB 'g_vLightDiffuse', 00H ; `string'
CONST	ENDS
;	COMDAT ??_C@_0M@NHGOLGEL@g_vLightDir?$AA@
CONST	SEGMENT
??_C@_0M@NHGOLGEL@g_vLightDir?$AA@ DB 'g_vLightDir', 00H ; `string'
CONST	ENDS
;	COMDAT ??_C@_0P@BDEIJKBM@g_vCamPosition?$AA@
CONST	SEGMENT
??_C@_0P@BDEIJKBM@g_vCamPosition?$AA@ DB 'g_vCamPosition', 00H ; `string'
CONST	ENDS
;	COMDAT ??_C@_0N@OOHDPIO@g_ProjMatrix?$AA@
CONST	SEGMENT
??_C@_0N@OOHDPIO@g_ProjMatrix?$AA@ DB 'g_ProjMatrix', 00H ; `string'
CONST	ENDS
;	COMDAT ??_C@_0N@ELIMCBLG@g_ViewMatrix?$AA@
CONST	SEGMENT
??_C@_0N@ELIMCBLG@g_ViewMatrix?$AA@ DB 'g_ViewMatrix', 00H ; `string'
CONST	ENDS
;	COMDAT ??_C@_1CE@JKMOMFCH@?$AAc?$AAo?$AAm?$AA_?$AAc?$AAo?$AAl?$AAl?$AAd?$AAe?$AAr?$AA_?$AAe?$AAn?$AAe?$AAm?$AAy?$AA?$AA@
CONST	SEGMENT
??_C@_1CE@JKMOMFCH@?$AAc?$AAo?$AAm?$AA_?$AAc?$AAo?$AAl?$AAl?$AAd?$AAe?$AAr?$AA_?$AAe?$AAn?$AAe?$AAm?$AAy?$AA?$AA@ DB 'c'
	DB	00H, 'o', 00H, 'm', 00H, '_', 00H, 'c', 00H, 'o', 00H, 'l', 00H
	DB	'l', 00H, 'd', 00H, 'e', 00H, 'r', 00H, '_', 00H, 'e', 00H, 'n'
	DB	00H, 'e', 00H, 'm', 00H, 'y', 00H, 00H, 00H	; `string'
CONST	ENDS
;	COMDAT ??_C@_1CO@HJBGOIAH@?$AAp?$AAr?$AAo?$AAt?$AAo?$AA_?$AAc?$AAo?$AAm?$AA_?$AAo?$AAb?$AAb?$AA_?$AAc?$AAo?$AAl?$AAl?$AAi?$AAd?$AAe?$AAr?$AA?$AA@
CONST	SEGMENT
??_C@_1CO@HJBGOIAH@?$AAp?$AAr?$AAo?$AAt?$AAo?$AA_?$AAc?$AAo?$AAm?$AA_?$AAo?$AAb?$AAb?$AA_?$AAc?$AAo?$AAl?$AAl?$AAi?$AAd?$AAe?$AAr?$AA?$AA@ DB 'p'
	DB	00H, 'r', 00H, 'o', 00H, 't', 00H, 'o', 00H, '_', 00H, 'c', 00H
	DB	'o', 00H, 'm', 00H, '_', 00H, 'o', 00H, 'b', 00H, 'b', 00H, '_'
	DB	00H, 'c', 00H, 'o', 00H, 'l', 00H, 'l', 00H, 'i', 00H, 'd', 00H
	DB	'e', 00H, 'r', 00H, 00H, 00H			; `string'
CONST	ENDS
;	COMDAT ??_C@_1BK@BKCENIHA@?$AAc?$AAo?$AAm?$AA_?$AAc?$AAo?$AAl?$AAl?$AAi?$AAd?$AAe?$AAr?$AA?$AA@
CONST	SEGMENT
??_C@_1BK@BKCENIHA@?$AAc?$AAo?$AAm?$AA_?$AAc?$AAo?$AAl?$AAl?$AAi?$AAd?$AAe?$AAr?$AA?$AA@ DB 'c'
	DB	00H, 'o', 00H, 'm', 00H, '_', 00H, 'c', 00H, 'o', 00H, 'l', 00H
	DB	'l', 00H, 'i', 00H, 'd', 00H, 'e', 00H, 'r', 00H, 00H, 00H ; `string'
CONST	ENDS
;	COMDAT ??_C@_1CK@PJFCFLHC@?$AAp?$AAr?$AAo?$AAt?$AAo?$AA_?$AAc?$AAo?$AAm?$AA_?$AAm?$AAo?$AAd?$AAe?$AAl?$AA_?$AAb?$AAo?$AAs?$AAs?$AA?$AA@
CONST	SEGMENT
??_C@_1CK@PJFCFLHC@?$AAp?$AAr?$AAo?$AAt?$AAo?$AA_?$AAc?$AAo?$AAm?$AA_?$AAm?$AAo?$AAd?$AAe?$AAl?$AA_?$AAb?$AAo?$AAs?$AAs?$AA?$AA@ DB 'p'
	DB	00H, 'r', 00H, 'o', 00H, 't', 00H, 'o', 00H, '_', 00H, 'c', 00H
	DB	'o', 00H, 'm', 00H, '_', 00H, 'm', 00H, 'o', 00H, 'd', 00H, 'e'
	DB	00H, 'l', 00H, '_', 00H, 'b', 00H, 'o', 00H, 's', 00H, 's', 00H
	DB	00H, 00H					; `string'
CONST	ENDS
;	COMDAT ??_C@_1BE@MLNOEPCA@?$AAc?$AAo?$AAm?$AA_?$AAm?$AAo?$AAd?$AAe?$AAl?$AA?$AA@
CONST	SEGMENT
??_C@_1BE@MLNOEPCA@?$AAc?$AAo?$AAm?$AA_?$AAm?$AAo?$AAd?$AAe?$AAl?$AA?$AA@ DB 'c'
	DB	00H, 'o', 00H, 'm', 00H, '_', 00H, 'm', 00H, 'o', 00H, 'd', 00H
	DB	'e', 00H, 'l', 00H, 00H, 00H			; `string'
CONST	ENDS
;	COMDAT ??_C@_1DM@OGMOEMJ@?$AAp?$AAr?$AAo?$AAt?$AAo?$AA_?$AAc?$AAo?$AAm?$AA_?$AAs?$AAh?$AAa?$AAd?$AAe?$AAr?$AA_?$AAv?$AAt?$AAx?$AAa?$AAn?$AAi?$AAm?$AAm?$AAo?$AAd?$AAe?$AAl?$AA?$AA@
CONST	SEGMENT
??_C@_1DM@OGMOEMJ@?$AAp?$AAr?$AAo?$AAt?$AAo?$AA_?$AAc?$AAo?$AAm?$AA_?$AAs?$AAh?$AAa?$AAd?$AAe?$AAr?$AA_?$AAv?$AAt?$AAx?$AAa?$AAn?$AAi?$AAm?$AAm?$AAo?$AAd?$AAe?$AAl?$AA?$AA@ DB 'p'
	DB	00H, 'r', 00H, 'o', 00H, 't', 00H, 'o', 00H, '_', 00H, 'c', 00H
	DB	'o', 00H, 'm', 00H, '_', 00H, 's', 00H, 'h', 00H, 'a', 00H, 'd'
	DB	00H, 'e', 00H, 'r', 00H, '_', 00H, 'v', 00H, 't', 00H, 'x', 00H
	DB	'a', 00H, 'n', 00H, 'i', 00H, 'm', 00H, 'm', 00H, 'o', 00H, 'd'
	DB	00H, 'e', 00H, 'l', 00H, 00H, 00H		; `string'
CONST	ENDS
;	COMDAT ??_C@_1BG@GGOMMBBL@?$AAc?$AAo?$AAm?$AA_?$AAs?$AAh?$AAa?$AAd?$AAe?$AAr?$AA?$AA@
CONST	SEGMENT
??_C@_1BG@GGOMMBBL@?$AAc?$AAo?$AAm?$AA_?$AAs?$AAh?$AAa?$AAd?$AAe?$AAr?$AA?$AA@ DB 'c'
	DB	00H, 'o', 00H, 'm', 00H, '_', 00H, 's', 00H, 'h', 00H, 'a', 00H
	DB	'd', 00H, 'e', 00H, 'r', 00H, 00H, 00H	; `string'
CONST	ENDS
;	COMDAT ??_C@_1CG@LBKFHPBD@?$AAc?$AAo?$AAm?$AA_?$AAt?$AAr?$AAa?$AAn?$AAs?$AAf?$AAo?$AAr?$AAm?$AA_?$AAb?$AAo?$AAd?$AAy?$AA?$AA@
CONST	SEGMENT
??_C@_1CG@LBKFHPBD@?$AAc?$AAo?$AAm?$AA_?$AAt?$AAr?$AAa?$AAn?$AAs?$AAf?$AAo?$AAr?$AAm?$AA_?$AAb?$AAo?$AAd?$AAy?$AA?$AA@ DB 'c'
	DB	00H, 'o', 00H, 'm', 00H, '_', 00H, 't', 00H, 'r', 00H, 'a', 00H
	DB	'n', 00H, 's', 00H, 'f', 00H, 'o', 00H, 'r', 00H, 'm', 00H, '_'
	DB	00H, 'b', 00H, 'o', 00H, 'd', 00H, 'y', 00H, 00H, 00H ; `string'
CONST	ENDS
;	COMDAT ??_C@_1CG@COFFFCLL@?$AAp?$AAr?$AAo?$AAt?$AAo?$AA_?$AAc?$AAo?$AAm?$AA_?$AAr?$AAe?$AAn?$AAd?$AAe?$AAr?$AAe?$AAr?$AA?$AA@
CONST	SEGMENT
??_C@_1CG@COFFFCLL@?$AAp?$AAr?$AAo?$AAt?$AAo?$AA_?$AAc?$AAo?$AAm?$AA_?$AAr?$AAe?$AAn?$AAd?$AAe?$AAr?$AAe?$AAr?$AA?$AA@ DB 'p'
	DB	00H, 'r', 00H, 'o', 00H, 't', 00H, 'o', 00H, '_', 00H, 'c', 00H
	DB	'o', 00H, 'm', 00H, '_', 00H, 'r', 00H, 'e', 00H, 'n', 00H, 'd'
	DB	00H, 'e', 00H, 'r', 00H, 'e', 00H, 'r', 00H, 00H, 00H ; `string'
CONST	ENDS
;	COMDAT ??_C@_1BK@GIOMOCNE@?$AAc?$AAo?$AAm?$AA_?$AAr?$AAe?$AAn?$AAd?$AAe?$AAr?$AAe?$AAr?$AA?$AA@
CONST	SEGMENT
??_C@_1BK@GIOMOCNE@?$AAc?$AAo?$AAm?$AA_?$AAr?$AAe?$AAn?$AAd?$AAe?$AAr?$AAe?$AAr?$AA?$AA@ DB 'c'
	DB	00H, 'o', 00H, 'm', 00H, '_', 00H, 'r', 00H, 'e', 00H, 'n', 00H
	DB	'd', 00H, 'e', 00H, 'r', 00H, 'e', 00H, 'r', 00H, 00H, 00H ; `string'
CONST	ENDS
;	COMDAT ??_C@_0N@OEHGEODD@g_BoneMatrix?$AA@
CONST	SEGMENT
??_C@_0N@OEHGEODD@g_BoneMatrix?$AA@ DB 'g_BoneMatrix', 00H ; `string'
CONST	ENDS
;	COMDAT ??_C@_0BB@FMIBAICL@g_DiffuseTexture?$AA@
CONST	SEGMENT
??_C@_0BB@FMIBAICL@g_DiffuseTexture?$AA@ DB 'g_DiffuseTexture', 00H ; `string'
CONST	ENDS
;	COMDAT ??_C@_07ICGMBDOO@Cheek01?$AA@
CONST	SEGMENT
??_C@_07ICGMBDOO@Cheek01?$AA@ DB 'Cheek01', 00H		; `string'
CONST	ENDS
;	COMDAT ??_C@_05KKFOKGIE@Cheek?$AA@
CONST	SEGMENT
??_C@_05KKFOKGIE@Cheek?$AA@ DB 'Cheek', 00H		; `string'
CONST	ENDS
;	COMDAT ??_C@_0O@PFNLPMLD@g_WorldMatrix?$AA@
CONST	SEGMENT
??_C@_0O@PFNLPMLD@g_WorldMatrix?$AA@ DB 'g_WorldMatrix', 00H ; `string'
CONST	ENDS
;	COMDAT ??_C@_1CO@IDJBOHOA@?$AAt?$AAh?$AAo?$AAr?$AAn?$AAC?$AAl?$AAo?$AAs?$AAe?$AAR?$AAi?$AAg?$AAh?$AAt?$AAF?$AAr?$AAo?$AAn?$AAt?$AA?$CF?$AAd?$AA?$AA@
CONST	SEGMENT
??_C@_1CO@IDJBOHOA@?$AAt?$AAh?$AAo?$AAr?$AAn?$AAC?$AAl?$AAo?$AAs?$AAe?$AAR?$AAi?$AAg?$AAh?$AAt?$AAF?$AAr?$AAo?$AAn?$AAt?$AA?$CF?$AAd?$AA?$AA@ DB 't'
	DB	00H, 'h', 00H, 'o', 00H, 'r', 00H, 'n', 00H, 'C', 00H, 'l', 00H
	DB	'o', 00H, 's', 00H, 'e', 00H, 'R', 00H, 'i', 00H, 'g', 00H, 'h'
	DB	00H, 't', 00H, 'F', 00H, 'r', 00H, 'o', 00H, 'n', 00H, 't', 00H
	DB	'%', 00H, 'd', 00H, 00H, 00H			; `string'
CONST	ENDS
;	COMDAT ??_C@_1CM@MOBMIKOH@?$AAt?$AAh?$AAo?$AAr?$AAn?$AAC?$AAl?$AAo?$AAs?$AAe?$AAL?$AAe?$AAf?$AAt?$AAF?$AAr?$AAo?$AAn?$AAt?$AA?$CF?$AAd?$AA?$AA@
CONST	SEGMENT
??_C@_1CM@MOBMIKOH@?$AAt?$AAh?$AAo?$AAr?$AAn?$AAC?$AAl?$AAo?$AAs?$AAe?$AAL?$AAe?$AAf?$AAt?$AAF?$AAr?$AAo?$AAn?$AAt?$AA?$CF?$AAd?$AA?$AA@ DB 't'
	DB	00H, 'h', 00H, 'o', 00H, 'r', 00H, 'n', 00H, 'C', 00H, 'l', 00H
	DB	'o', 00H, 's', 00H, 'e', 00H, 'L', 00H, 'e', 00H, 'f', 00H, 't'
	DB	00H, 'F', 00H, 'r', 00H, 'o', 00H, 'n', 00H, 't', 00H, '%', 00H
	DB	'd', 00H, 00H, 00H				; `string'
CONST	ENDS
;	COMDAT ??_C@_1CE@HCIOKCHM@?$AAt?$AAh?$AAo?$AAr?$AAn?$AAC?$AAl?$AAo?$AAs?$AAe?$AAF?$AAr?$AAo?$AAn?$AAt?$AA?$CF?$AAd?$AA?$AA@
CONST	SEGMENT
??_C@_1CE@HCIOKCHM@?$AAt?$AAh?$AAo?$AAr?$AAn?$AAC?$AAl?$AAo?$AAs?$AAe?$AAF?$AAr?$AAo?$AAn?$AAt?$AA?$CF?$AAd?$AA?$AA@ DB 't'
	DB	00H, 'h', 00H, 'o', 00H, 'r', 00H, 'n', 00H, 'C', 00H, 'l', 00H
	DB	'o', 00H, 's', 00H, 'e', 00H, 'F', 00H, 'r', 00H, 'o', 00H, 'n'
	DB	00H, 't', 00H, '%', 00H, 'd', 00H, 00H, 00H	; `string'
CONST	ENDS
;	COMDAT ??_C@_1CC@EIOALEPB@?$AAt?$AAh?$AAo?$AAr?$AAn?$AAC?$AAl?$AAo?$AAs?$AAe?$AAL?$AAe?$AAf?$AAt?$AA?$CF?$AAd?$AA?$AA@
CONST	SEGMENT
??_C@_1CC@EIOALEPB@?$AAt?$AAh?$AAo?$AAr?$AAn?$AAC?$AAl?$AAo?$AAs?$AAe?$AAL?$AAe?$AAf?$AAt?$AA?$CF?$AAd?$AA?$AA@ DB 't'
	DB	00H, 'h', 00H, 'o', 00H, 'r', 00H, 'n', 00H, 'C', 00H, 'l', 00H
	DB	'o', 00H, 's', 00H, 'e', 00H, 'L', 00H, 'e', 00H, 'f', 00H, 't'
	DB	00H, '%', 00H, 'd', 00H, 00H, 00H		; `string'
CONST	ENDS
;	COMDAT ??_C@_1CE@GCAANBFN@?$AAt?$AAh?$AAo?$AAr?$AAn?$AAC?$AAl?$AAo?$AAs?$AAe?$AAR?$AAi?$AAg?$AAh?$AAt?$AA?$CF?$AAd?$AA?$AA@
CONST	SEGMENT
??_C@_1CE@GCAANBFN@?$AAt?$AAh?$AAo?$AAr?$AAn?$AAC?$AAl?$AAo?$AAs?$AAe?$AAR?$AAi?$AAg?$AAh?$AAt?$AA?$CF?$AAd?$AA?$AA@ DB 't'
	DB	00H, 'h', 00H, 'o', 00H, 'r', 00H, 'n', 00H, 'C', 00H, 'l', 00H
	DB	'o', 00H, 's', 00H, 'e', 00H, 'R', 00H, 'i', 00H, 'g', 00H, 'h'
	DB	00H, 't', 00H, '%', 00H, 'd', 00H, 00H, 00H	; `string'
CONST	ENDS
;	COMDAT ??_C@_1BK@GJHEPGEB@?$AAt?$AAh?$AAo?$AAr?$AAn?$AAC?$AAl?$AAo?$AAs?$AAe?$AA?$CF?$AAd?$AA?$AA@
CONST	SEGMENT
??_C@_1BK@GJHEPGEB@?$AAt?$AAh?$AAo?$AAr?$AAn?$AAC?$AAl?$AAo?$AAs?$AAe?$AA?$CF?$AAd?$AA?$AA@ DB 't'
	DB	00H, 'h', 00H, 'o', 00H, 'r', 00H, 'n', 00H, 'C', 00H, 'l', 00H
	DB	'o', 00H, 's', 00H, 'e', 00H, '%', 00H, 'd', 00H, 00H, 00H ; `string'
CONST	ENDS
;	COMDAT ??_C@_1CK@HPELMHCN@?$AAt?$AAh?$AAo?$AAr?$AAn?$AAM?$AAi?$AAs?$AAs?$AAi?$AAl?$AAe?$AAR?$AAi?$AAg?$AAh?$AAt?$AA_?$AA?$CF?$AAd?$AA?$AA@
CONST	SEGMENT
??_C@_1CK@HPELMHCN@?$AAt?$AAh?$AAo?$AAr?$AAn?$AAM?$AAi?$AAs?$AAs?$AAi?$AAl?$AAe?$AAR?$AAi?$AAg?$AAh?$AAt?$AA_?$AA?$CF?$AAd?$AA?$AA@ DB 't'
	DB	00H, 'h', 00H, 'o', 00H, 'r', 00H, 'n', 00H, 'M', 00H, 'i', 00H
	DB	's', 00H, 's', 00H, 'i', 00H, 'l', 00H, 'e', 00H, 'R', 00H, 'i'
	DB	00H, 'g', 00H, 'h', 00H, 't', 00H, '_', 00H, '%', 00H, 'd', 00H
	DB	00H, 00H					; `string'
CONST	ENDS
;	COMDAT ??_C@_1CM@ICFLDBFK@?$AAt?$AAh?$AAo?$AAr?$AAn?$AAM?$AAi?$AAs?$AAs?$AAi?$AAl?$AAe?$AAM?$AAi?$AAd?$AAd?$AAl?$AAe?$AA_?$AA?$CF?$AAd?$AA?$AA@
CONST	SEGMENT
??_C@_1CM@ICFLDBFK@?$AAt?$AAh?$AAo?$AAr?$AAn?$AAM?$AAi?$AAs?$AAs?$AAi?$AAl?$AAe?$AAM?$AAi?$AAd?$AAd?$AAl?$AAe?$AA_?$AA?$CF?$AAd?$AA?$AA@ DB 't'
	DB	00H, 'h', 00H, 'o', 00H, 'r', 00H, 'n', 00H, 'M', 00H, 'i', 00H
	DB	's', 00H, 's', 00H, 'i', 00H, 'l', 00H, 'e', 00H, 'M', 00H, 'i'
	DB	00H, 'd', 00H, 'd', 00H, 'l', 00H, 'e', 00H, '_', 00H, '%', 00H
	DB	'd', 00H, 00H, 00H				; `string'
CONST	ENDS
;	COMDAT ??_C@_1CI@BIJJEMHJ@?$AAt?$AAh?$AAo?$AAr?$AAn?$AAM?$AAi?$AAs?$AAs?$AAi?$AAl?$AAe?$AAL?$AAe?$AAf?$AAt?$AA_?$AA?$CF?$AAd?$AA?$AA@
CONST	SEGMENT
??_C@_1CI@BIJJEMHJ@?$AAt?$AAh?$AAo?$AAr?$AAn?$AAM?$AAi?$AAs?$AAs?$AAi?$AAl?$AAe?$AAL?$AAe?$AAf?$AAt?$AA_?$AA?$CF?$AAd?$AA?$AA@ DB 't'
	DB	00H, 'h', 00H, 'o', 00H, 'r', 00H, 'n', 00H, 'M', 00H, 'i', 00H
	DB	's', 00H, 's', 00H, 'i', 00H, 'l', 00H, 'e', 00H, 'L', 00H, 'e'
	DB	00H, 'f', 00H, 't', 00H, '_', 00H, '%', 00H, 'd', 00H, 00H, 00H ; `string'
CONST	ENDS
;	COMDAT ??_C@_1BK@MEOGDPBD@?$AAt?$AAh?$AAo?$AAr?$AAn?$AA2?$AA_?$AA?$CF?$AAd?$AA_?$AA?$CF?$AAd?$AA?$AA@
CONST	SEGMENT
??_C@_1BK@MEOGDPBD@?$AAt?$AAh?$AAo?$AAr?$AAn?$AA2?$AA_?$AA?$CF?$AAd?$AA_?$AA?$CF?$AAd?$AA?$AA@ DB 't'
	DB	00H, 'h', 00H, 'o', 00H, 'r', 00H, 'n', 00H, '2', 00H, '_', 00H
	DB	'%', 00H, 'd', 00H, '_', 00H, '%', 00H, 'd', 00H, 00H, 00H ; `string'
CONST	ENDS
;	COMDAT ??_C@_1CA@CEJBEGPA@?$AAp?$AAr?$AAo?$AAt?$AAo?$AA_?$AAo?$AAb?$AAj?$AA_?$AAt?$AAh?$AAo?$AAr?$AAn?$AA?$AA@
CONST	SEGMENT
??_C@_1CA@CEJBEGPA@?$AAp?$AAr?$AAo?$AAt?$AAo?$AA_?$AAo?$AAb?$AAj?$AA_?$AAt?$AAh?$AAo?$AAr?$AAn?$AA?$AA@ DB 'p'
	DB	00H, 'r', 00H, 'o', 00H, 't', 00H, 'o', 00H, '_', 00H, 'o', 00H
	DB	'b', 00H, 'j', 00H, '_', 00H, 't', 00H, 'h', 00H, 'o', 00H, 'r'
	DB	00H, 'n', 00H, 00H, 00H			; `string'
CONST	ENDS
;	COMDAT ??_C@_1BK@BHJMDNLM@?$AAl?$AAa?$AAy?$AAe?$AAr?$AA_?$AAe?$AAf?$AAf?$AAe?$AAc?$AAt?$AA?$AA@
CONST	SEGMENT
??_C@_1BK@BHJMDNLM@?$AAl?$AAa?$AAy?$AAe?$AAr?$AA_?$AAe?$AAf?$AAf?$AAe?$AAc?$AAt?$AA?$AA@ DB 'l'
	DB	00H, 'a', 00H, 'y', 00H, 'e', 00H, 'r', 00H, '_', 00H, 'e', 00H
	DB	'f', 00H, 'f', 00H, 'e', 00H, 'c', 00H, 't', 00H, 00H, 00H ; `string'
CONST	ENDS
;	COMDAT ??_C@_1BK@ONCOILOB@?$AAt?$AAh?$AAo?$AAr?$AAn?$AA1?$AA_?$AA?$CF?$AAd?$AA_?$AA?$CF?$AAd?$AA?$AA@
CONST	SEGMENT
??_C@_1BK@ONCOILOB@?$AAt?$AAh?$AAo?$AAr?$AAn?$AA1?$AA_?$AA?$CF?$AAd?$AA_?$AA?$CF?$AAd?$AA?$AA@ DB 't'
	DB	00H, 'h', 00H, 'o', 00H, 'r', 00H, 'n', 00H, '1', 00H, '_', 00H
	DB	'%', 00H, 'd', 00H, '_', 00H, '%', 00H, 'd', 00H, 00H, 00H ; `string'
CONST	ENDS
;	COMDAT ??_C@_11LOCGONAA@?$AA?$AA@
CONST	SEGMENT
??_C@_11LOCGONAA@?$AA?$AA@ DB 00H, 00H			; `string'
CONST	ENDS
;	COMDAT ??_C@_1BM@JCKIOJHK@?$AAc?$AAo?$AAm?$AA_?$AAc?$AAo?$AAl?$AAl?$AAi?$AAd?$AAe?$AAr?$AA8?$AA?$AA@
CONST	SEGMENT
??_C@_1BM@JCKIOJHK@?$AAc?$AAo?$AAm?$AA_?$AAc?$AAo?$AAl?$AAl?$AAi?$AAd?$AAe?$AAr?$AA8?$AA?$AA@ DB 'c'
	DB	00H, 'o', 00H, 'm', 00H, '_', 00H, 'c', 00H, 'o', 00H, 'l', 00H
	DB	'l', 00H, 'i', 00H, 'd', 00H, 'e', 00H, 'r', 00H, '8', 00H, 00H
	DB	00H						; `string'
CONST	ENDS
;	COMDAT ??_C@_1BM@MKMLPJCM@?$AAc?$AAo?$AAm?$AA_?$AAc?$AAo?$AAl?$AAl?$AAi?$AAd?$AAe?$AAr?$AA7?$AA?$AA@
CONST	SEGMENT
??_C@_1BM@MKMLPJCM@?$AAc?$AAo?$AAm?$AA_?$AAc?$AAo?$AAl?$AAl?$AAi?$AAd?$AAe?$AAr?$AA7?$AA?$AA@ DB 'c'
	DB	00H, 'o', 00H, 'm', 00H, '_', 00H, 'c', 00H, 'o', 00H, 'l', 00H
	DB	'l', 00H, 'i', 00H, 'd', 00H, 'e', 00H, 'r', 00H, '7', 00H, 00H
	DB	00H						; `string'
CONST	ENDS
;	COMDAT ??_C@_1BM@HCHHJOEJ@?$AAc?$AAo?$AAm?$AA_?$AAc?$AAo?$AAl?$AAl?$AAi?$AAd?$AAe?$AAr?$AA6?$AA?$AA@
CONST	SEGMENT
??_C@_1BM@HCHHJOEJ@?$AAc?$AAo?$AAm?$AA_?$AAc?$AAo?$AAl?$AAl?$AAi?$AAd?$AAe?$AAr?$AA6?$AA?$AA@ DB 'c'
	DB	00H, 'o', 00H, 'm', 00H, '_', 00H, 'c', 00H, 'o', 00H, 'l', 00H
	DB	'l', 00H, 'i', 00H, 'd', 00H, 'e', 00H, 'r', 00H, '6', 00H, 00H
	DB	00H						; `string'
CONST	ENDS
;	COMDAT ??_C@_1BM@GAMCDBKH@?$AAc?$AAo?$AAm?$AA_?$AAc?$AAo?$AAl?$AAl?$AAi?$AAd?$AAe?$AAr?$AA5?$AA?$AA@
CONST	SEGMENT
??_C@_1BM@GAMCDBKH@?$AAc?$AAo?$AAm?$AA_?$AAc?$AAo?$AAl?$AAl?$AAi?$AAd?$AAe?$AAr?$AA5?$AA?$AA@ DB 'c'
	DB	00H, 'o', 00H, 'm', 00H, '_', 00H, 'c', 00H, 'o', 00H, 'l', 00H
	DB	'l', 00H, 'i', 00H, 'd', 00H, 'e', 00H, 'r', 00H, '5', 00H, 00H
	DB	00H						; `string'
CONST	ENDS
;	COMDAT ??_C@_1BM@NIHOFGMC@?$AAc?$AAo?$AAm?$AA_?$AAc?$AAo?$AAl?$AAl?$AAi?$AAd?$AAe?$AAr?$AA4?$AA?$AA@
CONST	SEGMENT
??_C@_1BM@NIHOFGMC@?$AAc?$AAo?$AAm?$AA_?$AAc?$AAo?$AAl?$AAl?$AAi?$AAd?$AAe?$AAr?$AA4?$AA?$AA@ DB 'c'
	DB	00H, 'o', 00H, 'm', 00H, '_', 00H, 'c', 00H, 'o', 00H, 'l', 00H
	DB	'l', 00H, 'i', 00H, 'd', 00H, 'e', 00H, 'r', 00H, '4', 00H, 00H
	DB	00H						; `string'
CONST	ENDS
;	COMDAT ??_C@_1BM@EFKJGOHL@?$AAc?$AAo?$AAm?$AA_?$AAc?$AAo?$AAl?$AAl?$AAi?$AAd?$AAe?$AAr?$AA3?$AA?$AA@
CONST	SEGMENT
??_C@_1BM@EFKJGOHL@?$AAc?$AAo?$AAm?$AA_?$AAc?$AAo?$AAl?$AAl?$AAi?$AAd?$AAe?$AAr?$AA3?$AA?$AA@ DB 'c'
	DB	00H, 'o', 00H, 'm', 00H, '_', 00H, 'c', 00H, 'o', 00H, 'l', 00H
	DB	'l', 00H, 'i', 00H, 'd', 00H, 'e', 00H, 'r', 00H, '3', 00H, 00H
	DB	00H						; `string'
CONST	ENDS
;	COMDAT ??_C@_1BM@PNBFAJBO@?$AAc?$AAo?$AAm?$AA_?$AAc?$AAo?$AAl?$AAl?$AAi?$AAd?$AAe?$AAr?$AA2?$AA?$AA@
CONST	SEGMENT
??_C@_1BM@PNBFAJBO@?$AAc?$AAo?$AAm?$AA_?$AAc?$AAo?$AAl?$AAl?$AAi?$AAd?$AAe?$AAr?$AA2?$AA?$AA@ DB 'c'
	DB	00H, 'o', 00H, 'm', 00H, '_', 00H, 'c', 00H, 'o', 00H, 'l', 00H
	DB	'l', 00H, 'i', 00H, 'd', 00H, 'e', 00H, 'r', 00H, '2', 00H, 00H
	DB	00H						; `string'
CONST	ENDS
;	COMDAT ??_C@_1BM@OPKAKGPA@?$AAc?$AAo?$AAm?$AA_?$AAc?$AAo?$AAl?$AAl?$AAi?$AAd?$AAe?$AAr?$AA1?$AA?$AA@
CONST	SEGMENT
??_C@_1BM@OPKAKGPA@?$AAc?$AAo?$AAm?$AA_?$AAc?$AAo?$AAl?$AAl?$AAi?$AAd?$AAe?$AAr?$AA1?$AA?$AA@ DB 'c'
	DB	00H, 'o', 00H, 'm', 00H, '_', 00H, 'c', 00H, 'o', 00H, 'l', 00H
	DB	'l', 00H, 'i', 00H, 'd', 00H, 'e', 00H, 'r', 00H, '1', 00H, 00H
	DB	00H						; `string'
CONST	ENDS
;	COMDAT ??_C@_1DE@OCAJEKIC@?$AAp?$AAr?$AAo?$AAt?$AAo?$AA_?$AAc?$AAo?$AAm?$AA_?$AAs?$AAp?$AAh?$AAe?$AAr?$AAe?$AA_?$AAc?$AAo?$AAl?$AAl?$AAi?$AAd?$AAe?$AAr?$AA?$AA@
CONST	SEGMENT
??_C@_1DE@OCAJEKIC@?$AAp?$AAr?$AAo?$AAt?$AAo?$AA_?$AAc?$AAo?$AAm?$AA_?$AAs?$AAp?$AAh?$AAe?$AAr?$AAe?$AA_?$AAc?$AAo?$AAl?$AAl?$AAi?$AAd?$AAe?$AAr?$AA?$AA@ DB 'p'
	DB	00H, 'r', 00H, 'o', 00H, 't', 00H, 'o', 00H, '_', 00H, 'c', 00H
	DB	'o', 00H, 'm', 00H, '_', 00H, 's', 00H, 'p', 00H, 'h', 00H, 'e'
	DB	00H, 'r', 00H, 'e', 00H, '_', 00H, 'c', 00H, 'o', 00H, 'l', 00H
	DB	'l', 00H, 'i', 00H, 'd', 00H, 'e', 00H, 'r', 00H, 00H, 00H ; `string'
CONST	ENDS
;	COMDAT ??_C@_1BM@FHBMMBJF@?$AAc?$AAo?$AAm?$AA_?$AAc?$AAo?$AAl?$AAl?$AAi?$AAd?$AAe?$AAr?$AA0?$AA?$AA@
CONST	SEGMENT
??_C@_1BM@FHBMMBJF@?$AAc?$AAo?$AAm?$AA_?$AAc?$AAo?$AAl?$AAl?$AAi?$AAd?$AAe?$AAr?$AA0?$AA?$AA@ DB 'c'
	DB	00H, 'o', 00H, 'm', 00H, '_', 00H, 'c', 00H, 'o', 00H, 'l', 00H
	DB	'l', 00H, 'i', 00H, 'd', 00H, 'e', 00H, 'r', 00H, '0', 00H, 00H
	DB	00H						; `string'
CONST	ENDS
;	COMDAT ??_C@_1CA@LAOJOOAL@?$AAc?$AAo?$AAm?$AA_?$AAt?$AAr?$AAa?$AAn?$AAs?$AAf?$AAo?$AAr?$AAm?$AA_?$AA8?$AA?$AA@
CONST	SEGMENT
??_C@_1CA@LAOJOOAL@?$AAc?$AAo?$AAm?$AA_?$AAt?$AAr?$AAa?$AAn?$AAs?$AAf?$AAo?$AAr?$AAm?$AA_?$AA8?$AA?$AA@ DB 'c'
	DB	00H, 'o', 00H, 'm', 00H, '_', 00H, 't', 00H, 'r', 00H, 'a', 00H
	DB	'n', 00H, 's', 00H, 'f', 00H, 'o', 00H, 'r', 00H, 'm', 00H, '_'
	DB	00H, '8', 00H, 00H, 00H			; `string'
CONST	ENDS
;	COMDAT ??_C@_1CA@OIIKPOFN@?$AAc?$AAo?$AAm?$AA_?$AAt?$AAr?$AAa?$AAn?$AAs?$AAf?$AAo?$AAr?$AAm?$AA_?$AA7?$AA?$AA@
CONST	SEGMENT
??_C@_1CA@OIIKPOFN@?$AAc?$AAo?$AAm?$AA_?$AAt?$AAr?$AAa?$AAn?$AAs?$AAf?$AAo?$AAr?$AAm?$AA_?$AA7?$AA?$AA@ DB 'c'
	DB	00H, 'o', 00H, 'm', 00H, '_', 00H, 't', 00H, 'r', 00H, 'a', 00H
	DB	'n', 00H, 's', 00H, 'f', 00H, 'o', 00H, 'r', 00H, 'm', 00H, '_'
	DB	00H, '7', 00H, 00H, 00H			; `string'
CONST	ENDS
;	COMDAT ??_C@_1CA@FADGJJDI@?$AAc?$AAo?$AAm?$AA_?$AAt?$AAr?$AAa?$AAn?$AAs?$AAf?$AAo?$AAr?$AAm?$AA_?$AA6?$AA?$AA@
CONST	SEGMENT
??_C@_1CA@FADGJJDI@?$AAc?$AAo?$AAm?$AA_?$AAt?$AAr?$AAa?$AAn?$AAs?$AAf?$AAo?$AAr?$AAm?$AA_?$AA6?$AA?$AA@ DB 'c'
	DB	00H, 'o', 00H, 'm', 00H, '_', 00H, 't', 00H, 'r', 00H, 'a', 00H
	DB	'n', 00H, 's', 00H, 'f', 00H, 'o', 00H, 'r', 00H, 'm', 00H, '_'
	DB	00H, '6', 00H, 00H, 00H			; `string'
CONST	ENDS
;	COMDAT ??_C@_1CA@ECIDDGNG@?$AAc?$AAo?$AAm?$AA_?$AAt?$AAr?$AAa?$AAn?$AAs?$AAf?$AAo?$AAr?$AAm?$AA_?$AA5?$AA?$AA@
CONST	SEGMENT
??_C@_1CA@ECIDDGNG@?$AAc?$AAo?$AAm?$AA_?$AAt?$AAr?$AAa?$AAn?$AAs?$AAf?$AAo?$AAr?$AAm?$AA_?$AA5?$AA?$AA@ DB 'c'
	DB	00H, 'o', 00H, 'm', 00H, '_', 00H, 't', 00H, 'r', 00H, 'a', 00H
	DB	'n', 00H, 's', 00H, 'f', 00H, 'o', 00H, 'r', 00H, 'm', 00H, '_'
	DB	00H, '5', 00H, 00H, 00H			; `string'
CONST	ENDS
;	COMDAT ??_C@_1CA@PKDPFBLD@?$AAc?$AAo?$AAm?$AA_?$AAt?$AAr?$AAa?$AAn?$AAs?$AAf?$AAo?$AAr?$AAm?$AA_?$AA4?$AA?$AA@
CONST	SEGMENT
??_C@_1CA@PKDPFBLD@?$AAc?$AAo?$AAm?$AA_?$AAt?$AAr?$AAa?$AAn?$AAs?$AAf?$AAo?$AAr?$AAm?$AA_?$AA4?$AA?$AA@ DB 'c'
	DB	00H, 'o', 00H, 'm', 00H, '_', 00H, 't', 00H, 'r', 00H, 'a', 00H
	DB	'n', 00H, 's', 00H, 'f', 00H, 'o', 00H, 'r', 00H, 'm', 00H, '_'
	DB	00H, '4', 00H, 00H, 00H			; `string'
CONST	ENDS
;	COMDAT ??_C@_1CA@GHOIGJAK@?$AAc?$AAo?$AAm?$AA_?$AAt?$AAr?$AAa?$AAn?$AAs?$AAf?$AAo?$AAr?$AAm?$AA_?$AA3?$AA?$AA@
CONST	SEGMENT
??_C@_1CA@GHOIGJAK@?$AAc?$AAo?$AAm?$AA_?$AAt?$AAr?$AAa?$AAn?$AAs?$AAf?$AAo?$AAr?$AAm?$AA_?$AA3?$AA?$AA@ DB 'c'
	DB	00H, 'o', 00H, 'm', 00H, '_', 00H, 't', 00H, 'r', 00H, 'a', 00H
	DB	'n', 00H, 's', 00H, 'f', 00H, 'o', 00H, 'r', 00H, 'm', 00H, '_'
	DB	00H, '3', 00H, 00H, 00H			; `string'
CONST	ENDS
;	COMDAT ??_C@_1CA@NPFEAOGP@?$AAc?$AAo?$AAm?$AA_?$AAt?$AAr?$AAa?$AAn?$AAs?$AAf?$AAo?$AAr?$AAm?$AA_?$AA2?$AA?$AA@
CONST	SEGMENT
??_C@_1CA@NPFEAOGP@?$AAc?$AAo?$AAm?$AA_?$AAt?$AAr?$AAa?$AAn?$AAs?$AAf?$AAo?$AAr?$AAm?$AA_?$AA2?$AA?$AA@ DB 'c'
	DB	00H, 'o', 00H, 'm', 00H, '_', 00H, 't', 00H, 'r', 00H, 'a', 00H
	DB	'n', 00H, 's', 00H, 'f', 00H, 'o', 00H, 'r', 00H, 'm', 00H, '_'
	DB	00H, '2', 00H, 00H, 00H			; `string'
CONST	ENDS
;	COMDAT ??_C@_1CA@MNOBKBIB@?$AAc?$AAo?$AAm?$AA_?$AAt?$AAr?$AAa?$AAn?$AAs?$AAf?$AAo?$AAr?$AAm?$AA_?$AA1?$AA?$AA@
CONST	SEGMENT
??_C@_1CA@MNOBKBIB@?$AAc?$AAo?$AAm?$AA_?$AAt?$AAr?$AAa?$AAn?$AAs?$AAf?$AAo?$AAr?$AAm?$AA_?$AA1?$AA?$AA@ DB 'c'
	DB	00H, 'o', 00H, 'm', 00H, '_', 00H, 't', 00H, 'r', 00H, 'a', 00H
	DB	'n', 00H, 's', 00H, 'f', 00H, 'o', 00H, 'r', 00H, 'm', 00H, '_'
	DB	00H, '1', 00H, 00H, 00H			; `string'
CONST	ENDS
;	COMDAT ??_C@_1CI@MLEFGO@?$AAp?$AAr?$AAo?$AAt?$AAo?$AA_?$AAc?$AAo?$AAm?$AA_?$AAt?$AAr?$AAa?$AAn?$AAs?$AAf?$AAo?$AAr?$AAm?$AA?$AA@
CONST	SEGMENT
??_C@_1CI@MLEFGO@?$AAp?$AAr?$AAo?$AAt?$AAo?$AA_?$AAc?$AAo?$AAm?$AA_?$AAt?$AAr?$AAa?$AAn?$AAs?$AAf?$AAo?$AAr?$AAm?$AA?$AA@ DB 'p'
	DB	00H, 'r', 00H, 'o', 00H, 't', 00H, 'o', 00H, '_', 00H, 'c', 00H
	DB	'o', 00H, 'm', 00H, '_', 00H, 't', 00H, 'r', 00H, 'a', 00H, 'n'
	DB	00H, 's', 00H, 'f', 00H, 'o', 00H, 'r', 00H, 'm', 00H, 00H, 00H ; `string'
CONST	ENDS
;	COMDAT ??_C@_1CA@HFFNMGOE@?$AAc?$AAo?$AAm?$AA_?$AAt?$AAr?$AAa?$AAn?$AAs?$AAf?$AAo?$AAr?$AAm?$AA_?$AA0?$AA?$AA@
CONST	SEGMENT
??_C@_1CA@HFFNMGOE@?$AAc?$AAo?$AAm?$AA_?$AAt?$AAr?$AAa?$AAn?$AAs?$AAf?$AAo?$AAr?$AAm?$AA_?$AA0?$AA?$AA@ DB 'c'
	DB	00H, 'o', 00H, 'm', 00H, '_', 00H, 't', 00H, 'r', 00H, 'a', 00H
	DB	'n', 00H, 's', 00H, 'f', 00H, 'o', 00H, 'r', 00H, 'm', 00H, '_'
	DB	00H, '0', 00H, 00H, 00H			; `string'
CONST	ENDS
;	COMDAT ??_C@_0N@EDEIEADG@Bip001Pelvis?$AA@
CONST	SEGMENT
??_C@_0N@EDEIEADG@Bip001Pelvis?$AA@ DB 'Bip001Pelvis', 00H ; `string'
CONST	ENDS
;	COMDAT ??_C@_1BM@CJMPMHDD@?$AAc?$AAo?$AAm?$AA_?$AAt?$AAr?$AAa?$AAn?$AAs?$AAf?$AAo?$AAr?$AAm?$AA?$AA@
CONST	SEGMENT
??_C@_1BM@CJMPMHDD@?$AAc?$AAo?$AAm?$AA_?$AAt?$AAr?$AAa?$AAn?$AAs?$AAf?$AAo?$AAr?$AAm?$AA?$AA@ DB 'c'
	DB	00H, 'o', 00H, 'm', 00H, '_', 00H, 't', 00H, 'r', 00H, 'a', 00H
	DB	'n', 00H, 's', 00H, 'f', 00H, 'o', 00H, 'r', 00H, 'm', 00H, 00H
	DB	00H						; `string'
CONST	ENDS
;	COMDAT ??_7CBoss@Client@@6BIOnCollisionExit@Engine@@@
CONST	SEGMENT
??_7CBoss@Client@@6BIOnCollisionExit@Engine@@@ DQ FLAT:??_R4CBoss@Client@@6BIOnCollisionExit@Engine@@@ ; Client::CBoss::`vftable'
	DQ	FLAT:?OnCollisionExit@CEnemy@Client@@UEAAXPEAVCCollider@Engine@@0@Z
CONST	ENDS
;	COMDAT ??_7CBoss@Client@@6BIOnCollisionStay@Engine@@@
CONST	SEGMENT
??_7CBoss@Client@@6BIOnCollisionStay@Engine@@@ DQ FLAT:??_R4CBoss@Client@@6BIOnCollisionStay@Engine@@@ ; Client::CBoss::`vftable'
	DQ	FLAT:?OnCollisionStay@CEnemy@Client@@UEAAXPEAVCCollider@Engine@@0@Z
CONST	ENDS
;	COMDAT ??_7CBoss@Client@@6BIOnCollisionEnter@Engine@@@
CONST	SEGMENT
??_7CBoss@Client@@6BIOnCollisionEnter@Engine@@@ DQ FLAT:??_R4CBoss@Client@@6BIOnCollisionEnter@Engine@@@ ; Client::CBoss::`vftable'
	DQ	FLAT:?OnCollisionEnter@CEnemy@Client@@UEAAXPEAVCCollider@Engine@@0@Z
CONST	ENDS
;	COMDAT ??_7CBoss@Client@@6BCGameObject@Engine@@@
CONST	SEGMENT
??_7CBoss@Client@@6BCGameObject@Engine@@@ DQ FLAT:??_R4CBoss@Client@@6BCGameObject@Engine@@@ ; Client::CBoss::`vftable'
	DQ	FLAT:??_ECBoss@Client@@UEAAPEAXI@Z
	DQ	FLAT:?Free@CBoss@Client@@UEAAXXZ
	DQ	FLAT:?Initialize_Prototype@CBoss@Client@@UEAAJXZ
	DQ	FLAT:?Initialize@CBoss@Client@@UEAAJPEAX@Z
	DQ	FLAT:?Tick@CBoss@Client@@UEAAXN@Z
	DQ	FLAT:?LateTick@CBoss@Client@@UEAAXN@Z
	DQ	FLAT:?Render@CBoss@Client@@UEAAJXZ
	DQ	FLAT:?RenderGUI@CBoss@Client@@UEAAXXZ
	DQ	FLAT:?GetLengthFromCamera@CBoss@Client@@UEAAMXZ
	DQ	FLAT:?Clone@CBoss@Client@@UEAAPEAVCGameObject@Engine@@PEAX@Z
	DQ	FLAT:?Initialize_Prototype@CEnemy@Client@@UEAAJW4TYPE@12@@Z
	DQ	FLAT:?GetPosition@CBoss@Client@@UEAA?AUXMFLOAT4@DirectX@@XZ
	DQ	FLAT:?LookPlayer@CEnemy@Client@@MEAAXN@Z
	DQ	FLAT:?GetBodyCollider@CBoss@Client@@UEAAPEAVCCollider@Engine@@XZ
	DQ	FLAT:?GetWeaponCollider@CBoss@Client@@UEAAPEAVCCollider@Engine@@XZ
	DQ	FLAT:?GetOverlapCollider@CBoss@Client@@UEAAPEAVCCollider@Engine@@XZ
CONST	ENDS
;	COMDAT ?__LINE__Var@?0??XMStoreFloat4x4@DirectX@@YQXPEAUXMFLOAT4X4@2@UXMMATRIX@2@@Z@4JA
_DATA	SEGMENT
?__LINE__Var@?0??XMStoreFloat4x4@DirectX@@YQXPEAUXMFLOAT4X4@2@UXMMATRIX@2@@Z@4JA DD 071aH ; `DirectX::XMStoreFloat4x4'::`1'::__LINE__Var
_DATA	ENDS
;	COMDAT ?__LINE__Var@?0??XMStoreFloat4@DirectX@@YQXPEAUXMFLOAT4@2@T__m128@@@Z@4JA
_DATA	SEGMENT
?__LINE__Var@?0??XMStoreFloat4@DirectX@@YQXPEAUXMFLOAT4@2@T__m128@@@Z@4JA DD 0602H ; `DirectX::XMStoreFloat4'::`1'::__LINE__Var
_DATA	ENDS
;	COMDAT ?__LINE__Var@?0??XMStoreFloat3@DirectX@@YQXPEAUXMFLOAT3@2@T__m128@@@Z@4JA
_DATA	SEGMENT
?__LINE__Var@?0??XMStoreFloat3@DirectX@@YQXPEAUXMFLOAT3@2@T__m128@@@Z@4JA DD 0553H ; `DirectX::XMStoreFloat3'::`1'::__LINE__Var
_DATA	ENDS
;	COMDAT ??_C@_1BK@FHLBGAOP@?$AAp?$AAD?$AAe?$AAs?$AAt?$AAi?$AAn?$AAa?$AAt?$AAi?$AAo?$AAn?$AA?$AA@
CONST	SEGMENT
??_C@_1BK@FHLBGAOP@?$AAp?$AAD?$AAe?$AAs?$AAt?$AAi?$AAn?$AAa?$AAt?$AAi?$AAo?$AAn?$AA?$AA@ DB 'p'
	DB	00H, 'D', 00H, 'e', 00H, 's', 00H, 't', 00H, 'i', 00H, 'n', 00H
	DB	'a', 00H, 't', 00H, 'i', 00H, 'o', 00H, 'n', 00H, 00H, 00H ; `string'
CONST	ENDS
;	COMDAT ?__LINE__Var@?0??XMLoadFloat4x4@DirectX@@YQ?AUXMMATRIX@2@PEBUXMFLOAT4X4@2@@Z@4JA
_DATA	SEGMENT
?__LINE__Var@?0??XMLoadFloat4x4@DirectX@@YQ?AUXMMATRIX@2@PEBUXMFLOAT4X4@2@@Z@4JA DD 03f5H ; `DirectX::XMLoadFloat4x4'::`1'::__LINE__Var
_DATA	ENDS
;	COMDAT ?__LINE__Var@?0??XMLoadFloat4@DirectX@@YQ?AT__m128@@PEBUXMFLOAT4@2@@Z@4JA
_DATA	SEGMENT
?__LINE__Var@?0??XMLoadFloat4@DirectX@@YQ?AT__m128@@PEBUXMFLOAT4@2@@Z@4JA DD 02a8H ; `DirectX::XMLoadFloat4'::`1'::__LINE__Var
_DATA	ENDS
;	COMDAT ?__LINE__Var@?0??XMLoadFloat3@DirectX@@YQ?AT__m128@@PEBUXMFLOAT3@2@@Z@4JA
_DATA	SEGMENT
?__LINE__Var@?0??XMLoadFloat3@DirectX@@YQ?AT__m128@@PEBUXMFLOAT3@2@@Z@4JA DD 01f3H ; `DirectX::XMLoadFloat3'::`1'::__LINE__Var
_DATA	ENDS
;	COMDAT ??_C@_1BA@LBADLIHI@?$AAp?$AAS?$AAo?$AAu?$AAr?$AAc?$AAe?$AA?$AA@
CONST	SEGMENT
??_C@_1BA@LBADLIHI@?$AAp?$AAS?$AAo?$AAu?$AAr?$AAc?$AAe?$AA?$AA@ DB 'p', 00H
	DB	'S', 00H, 'o', 00H, 'u', 00H, 'r', 00H, 'c', 00H, 'e', 00H, 00H
	DB	00H						; `string'
CONST	ENDS
;	COMDAT ??_C@_1JE@DMOBBMDE@?$AAc?$AA?3?$AA?2?$AAp?$AAr?$AAo?$AAg?$AAr?$AAa?$AAm?$AA?5?$AAf?$AAi?$AAl?$AAe?$AAs?$AA?5?$AA?$CI?$AAx?$AA8?$AA6?$AA?$CJ?$AA?2?$AAw?$AAi?$AAn?$AAd?$AAo?$AAw?$AAs?$AA?5?$AAk@
CONST	SEGMENT
??_C@_1JE@DMOBBMDE@?$AAc?$AA?3?$AA?2?$AAp?$AAr?$AAo?$AAg?$AAr?$AAa?$AAm?$AA?5?$AAf?$AAi?$AAl?$AAe?$AAs?$AA?5?$AA?$CI?$AAx?$AA8?$AA6?$AA?$CJ?$AA?2?$AAw?$AAi?$AAn?$AAd?$AAo?$AAw?$AAs?$AA?5?$AAk@ DB 'c'
	DB	00H, ':', 00H, '\', 00H, 'p', 00H, 'r', 00H, 'o', 00H, 'g', 00H
	DB	'r', 00H, 'a', 00H, 'm', 00H, ' ', 00H, 'f', 00H, 'i', 00H, 'l'
	DB	00H, 'e', 00H, 's', 00H, ' ', 00H, '(', 00H, 'x', 00H, '8', 00H
	DB	'6', 00H, ')', 00H, '\', 00H, 'w', 00H, 'i', 00H, 'n', 00H, 'd'
	DB	00H, 'o', 00H, 'w', 00H, 's', 00H, ' ', 00H, 'k', 00H, 'i', 00H
	DB	't', 00H, 's', 00H, '\', 00H, '8', 00H, '.', 00H, '1', 00H, '\'
	DB	00H, 'i', 00H, 'n', 00H, 'c', 00H, 'l', 00H, 'u', 00H, 'd', 00H
	DB	'e', 00H, '\', 00H, 'u', 00H, 'm', 00H, '\', 00H, 'd', 00H, 'i'
	DB	00H, 'r', 00H, 'e', 00H, 'c', 00H, 't', 00H, 'x', 00H, 'm', 00H
	DB	'a', 00H, 't', 00H, 'h', 00H, 'c', 00H, 'o', 00H, 'n', 00H, 'v'
	DB	00H, 'e', 00H, 'r', 00H, 't', 00H, '.', 00H, 'i', 00H, 'n', 00H
	DB	'l', 00H, 00H, 00H				; `string'
CONST	ENDS
;	COMDAT ??_C@_1GI@DHJGPFNI@?$AA?$CC?$AA_?$AAP?$AAt?$AAr?$AA_?$AAu?$AAs?$AAe?$AAr?$AA?5?$AA?9?$AA?5?$AA_?$AAP?$AAt?$AAr?$AA_?$AAc?$AAo?$AAn?$AAt?$AAa?$AAi?$AAn?$AAe?$AAr?$AA?5?$AA?$DM?$AA?$DN?$AA?5?$AA_@
CONST	SEGMENT
??_C@_1GI@DHJGPFNI@?$AA?$CC?$AA_?$AAP?$AAt?$AAr?$AA_?$AAu?$AAs?$AAe?$AAr?$AA?5?$AA?9?$AA?5?$AA_?$AAP?$AAt?$AAr?$AA_?$AAc?$AAo?$AAn?$AAt?$AAa?$AAi?$AAn?$AAe?$AAr?$AA?5?$AA?$DM?$AA?$DN?$AA?5?$AA_@ DB '"'
	DB	00H, '_', 00H, 'P', 00H, 't', 00H, 'r', 00H, '_', 00H, 'u', 00H
	DB	's', 00H, 'e', 00H, 'r', 00H, ' ', 00H, '-', 00H, ' ', 00H, '_'
	DB	00H, 'P', 00H, 't', 00H, 'r', 00H, '_', 00H, 'c', 00H, 'o', 00H
	DB	'n', 00H, 't', 00H, 'a', 00H, 'i', 00H, 'n', 00H, 'e', 00H, 'r'
	DB	00H, ' ', 00H, '<', 00H, '=', 00H, ' ', 00H, '_', 00H, 'N', 00H
	DB	'O', 00H, 'N', 00H, '_', 00H, 'U', 00H, 'S', 00H, 'E', 00H, 'R'
	DB	00H, '_', 00H, 'S', 00H, 'I', 00H, 'Z', 00H, 'E', 00H, '"', 00H
	DB	' ', 00H, '&', 00H, '&', 00H, ' ', 00H, '0', 00H, 00H, 00H ; `string'
CONST	ENDS
;	COMDAT ??_C@_0CN@BLHJCAL@_Ptr_user?5?9?5_Ptr_container?5?$DM?$DN?5_N@
CONST	SEGMENT
??_C@_0CN@BLHJCAL@_Ptr_user?5?9?5_Ptr_container?5?$DM?$DN?5_N@ DB '_Ptr_u'
	DB	'ser - _Ptr_container <= _NON_USER_SIZE', 00H ; `string'
CONST	ENDS
;	COMDAT ??_C@_1HA@NAPGMHAO@?$AA?$CC?$AA2?$AA?5?$AA?$CK?$AA?5?$AAs?$AAi?$AAz?$AAe?$AAo?$AAf?$AA?$CI?$AAv?$AAo?$AAi?$AAd?$AA?5?$AA?$CK?$AA?$CJ?$AA?5?$AA?$DM?$AA?$DN?$AA?5?$AA_?$AAP?$AAt?$AAr?$AA_?$AAu?$AAs?$AAe?$AAr@
CONST	SEGMENT
??_C@_1HA@NAPGMHAO@?$AA?$CC?$AA2?$AA?5?$AA?$CK?$AA?5?$AAs?$AAi?$AAz?$AAe?$AAo?$AAf?$AA?$CI?$AAv?$AAo?$AAi?$AAd?$AA?5?$AA?$CK?$AA?$CJ?$AA?5?$AA?$DM?$AA?$DN?$AA?5?$AA_?$AAP?$AAt?$AAr?$AA_?$AAu?$AAs?$AAe?$AAr@ DB '"'
	DB	00H, '2', 00H, ' ', 00H, '*', 00H, ' ', 00H, 's', 00H, 'i', 00H
	DB	'z', 00H, 'e', 00H, 'o', 00H, 'f', 00H, '(', 00H, 'v', 00H, 'o'
	DB	00H, 'i', 00H, 'd', 00H, ' ', 00H, '*', 00H, ')', 00H, ' ', 00H
	DB	'<', 00H, '=', 00H, ' ', 00H, '_', 00H, 'P', 00H, 't', 00H, 'r'
	DB	00H, '_', 00H, 'u', 00H, 's', 00H, 'e', 00H, 'r', 00H, ' ', 00H
	DB	'-', 00H, ' ', 00H, '_', 00H, 'P', 00H, 't', 00H, 'r', 00H, '_'
	DB	00H, 'c', 00H, 'o', 00H, 'n', 00H, 't', 00H, 'a', 00H, 'i', 00H
	DB	'n', 00H, 'e', 00H, 'r', 00H, '"', 00H, ' ', 00H, '&', 00H, '&'
	DB	00H, ' ', 00H, '0', 00H, 00H, 00H		; `string'
CONST	ENDS
;	COMDAT ??_C@_0DB@GLFJLNCE@2?5?$CK?5sizeof?$CIvoid?5?$CK?$CJ?5?$DM?$DN?5_Ptr_user?5@
CONST	SEGMENT
??_C@_0DB@GLFJLNCE@2?5?$CK?5sizeof?$CIvoid?5?$CK?$CJ?5?$DM?$DN?5_Ptr_user?5@ DB '2'
	DB	' * sizeof(void *) <= _Ptr_user - _Ptr_container', 00H ; `string'
CONST	ENDS
;	COMDAT ??_C@_1EE@PDHAHDDC@?$AA?$CC?$AA_?$AAP?$AAt?$AAr?$AA_?$AAc?$AAo?$AAn?$AAt?$AAa?$AAi?$AAn?$AAe?$AAr?$AA?5?$AA?$DM?$AA?5?$AA_?$AAP?$AAt?$AAr?$AA_?$AAu?$AAs?$AAe?$AAr?$AA?$CC?$AA?5?$AA?$CG?$AA?$CG?$AA?5@
CONST	SEGMENT
??_C@_1EE@PDHAHDDC@?$AA?$CC?$AA_?$AAP?$AAt?$AAr?$AA_?$AAc?$AAo?$AAn?$AAt?$AAa?$AAi?$AAn?$AAe?$AAr?$AA?5?$AA?$DM?$AA?5?$AA_?$AAP?$AAt?$AAr?$AA_?$AAu?$AAs?$AAe?$AAr?$AA?$CC?$AA?5?$AA?$CG?$AA?$CG?$AA?5@ DB '"'
	DB	00H, '_', 00H, 'P', 00H, 't', 00H, 'r', 00H, '_', 00H, 'c', 00H
	DB	'o', 00H, 'n', 00H, 't', 00H, 'a', 00H, 'i', 00H, 'n', 00H, 'e'
	DB	00H, 'r', 00H, ' ', 00H, '<', 00H, ' ', 00H, '_', 00H, 'P', 00H
	DB	't', 00H, 'r', 00H, '_', 00H, 'u', 00H, 's', 00H, 'e', 00H, 'r'
	DB	00H, '"', 00H, ' ', 00H, '&', 00H, '&', 00H, ' ', 00H, '0', 00H
	DB	00H, 00H					; `string'
CONST	ENDS
;	COMDAT ??_C@_0BL@OCKMEJON@_Ptr_container?5?$DM?5_Ptr_user?$AA@
CONST	SEGMENT
??_C@_0BL@OCKMEJON@_Ptr_container?5?$DM?5_Ptr_user?$AA@ DB '_Ptr_containe'
	DB	'r < _Ptr_user', 00H				; `string'
CONST	ENDS
;	COMDAT ??_C@_1JO@EKLKIEHP@?$AA?$CC?$AAr?$AAe?$AAi?$AAn?$AAt?$AAe?$AAr?$AAp?$AAr?$AAe?$AAt?$AA_?$AAc?$AAa?$AAs?$AAt?$AA?$DM?$AAu?$AAi?$AAn?$AAt?$AAp?$AAt?$AAr?$AA_?$AAt?$AA?5?$AA?$CK?$AA?$DO?$AA?$CI?$AA_@
CONST	SEGMENT
??_C@_1JO@EKLKIEHP@?$AA?$CC?$AAr?$AAe?$AAi?$AAn?$AAt?$AAe?$AAr?$AAp?$AAr?$AAe?$AAt?$AA_?$AAc?$AAa?$AAs?$AAt?$AA?$DM?$AAu?$AAi?$AAn?$AAt?$AAp?$AAt?$AAr?$AA_?$AAt?$AA?5?$AA?$CK?$AA?$DO?$AA?$CI?$AA_@ DB '"'
	DB	00H, 'r', 00H, 'e', 00H, 'i', 00H, 'n', 00H, 't', 00H, 'e', 00H
	DB	'r', 00H, 'p', 00H, 'r', 00H, 'e', 00H, 't', 00H, '_', 00H, 'c'
	DB	00H, 'a', 00H, 's', 00H, 't', 00H, '<', 00H, 'u', 00H, 'i', 00H
	DB	'n', 00H, 't', 00H, 'p', 00H, 't', 00H, 'r', 00H, '_', 00H, 't'
	DB	00H, ' ', 00H, '*', 00H, '>', 00H, '(', 00H, '_', 00H, 'P', 00H
	DB	't', 00H, 'r', 00H, '_', 00H, 'p', 00H, 't', 00H, 'r', 00H, ')'
	DB	00H, '[', 00H, '-', 00H, '1', 00H, ']', 00H, ' ', 00H, '=', 00H
	DB	'=', 00H, ' ', 00H, '_', 00H, 'B', 00H, 'I', 00H, 'G', 00H, '_'
	DB	00H, 'A', 00H, 'L', 00H, 'L', 00H, 'O', 00H, 'C', 00H, 'A', 00H
	DB	'T', 00H, 'I', 00H, 'O', 00H, 'N', 00H, '_', 00H, 'S', 00H, 'E'
	DB	00H, 'N', 00H, 'T', 00H, 'I', 00H, 'N', 00H, 'E', 00H, 'L', 00H
	DB	'"', 00H, ' ', 00H, '&', 00H, '&', 00H, ' ', 00H, '0', 00H, 00H
	DB	00H						; `string'
CONST	ENDS
;	COMDAT ??_C@_0EI@NOJHEJCJ@reinterpret_cast?$DMuintptr_t?5?$CK?$DO?$CI_P@
CONST	SEGMENT
??_C@_0EI@NOJHEJCJ@reinterpret_cast?$DMuintptr_t?5?$CK?$DO?$CI_P@ DB 'rei'
	DB	'nterpret_cast<uintptr_t *>(_Ptr_ptr)[-1] == _BIG_ALLOCATION_S'
	DB	'ENTINEL', 00H				; `string'
CONST	ENDS
;	COMDAT ??_C@_1HE@CDMBFOKC@?$AA?$CC?$AA?$CI?$AA_?$AAP?$AAt?$AAr?$AA_?$AAu?$AAs?$AAe?$AAr?$AA?5?$AA?$CG?$AA?5?$AA?$CI?$AA_?$AAB?$AAI?$AAG?$AA_?$AAA?$AAL?$AAL?$AAO?$AAC?$AAA?$AAT?$AAI?$AAO?$AAN?$AA_?$AAA@
CONST	SEGMENT
??_C@_1HE@CDMBFOKC@?$AA?$CC?$AA?$CI?$AA_?$AAP?$AAt?$AAr?$AA_?$AAu?$AAs?$AAe?$AAr?$AA?5?$AA?$CG?$AA?5?$AA?$CI?$AA_?$AAB?$AAI?$AAG?$AA_?$AAA?$AAL?$AAL?$AAO?$AAC?$AAA?$AAT?$AAI?$AAO?$AAN?$AA_?$AAA@ DB '"'
	DB	00H, '(', 00H, '_', 00H, 'P', 00H, 't', 00H, 'r', 00H, '_', 00H
	DB	'u', 00H, 's', 00H, 'e', 00H, 'r', 00H, ' ', 00H, '&', 00H, ' '
	DB	00H, '(', 00H, '_', 00H, 'B', 00H, 'I', 00H, 'G', 00H, '_', 00H
	DB	'A', 00H, 'L', 00H, 'L', 00H, 'O', 00H, 'C', 00H, 'A', 00H, 'T'
	DB	00H, 'I', 00H, 'O', 00H, 'N', 00H, '_', 00H, 'A', 00H, 'L', 00H
	DB	'I', 00H, 'G', 00H, 'N', 00H, 'M', 00H, 'E', 00H, 'N', 00H, 'T'
	DB	00H, ' ', 00H, '-', 00H, ' ', 00H, '1', 00H, ')', 00H, ')', 00H
	DB	' ', 00H, '=', 00H, '=', 00H, ' ', 00H, '0', 00H, '"', 00H, ' '
	DB	00H, '&', 00H, '&', 00H, ' ', 00H, '0', 00H, 00H, 00H ; `string'
CONST	ENDS
;	COMDAT ??_C@_0DD@GBGGGKGG@?$CI_Ptr_user?5?$CG?5?$CI_BIG_ALLOCATION_AL@
CONST	SEGMENT
??_C@_0DD@GBGGGKGG@?$CI_Ptr_user?5?$CG?5?$CI_BIG_ALLOCATION_AL@ DB '(_Ptr'
	DB	'_user & (_BIG_ALLOCATION_ALIGNMENT - 1)) == 0', 00H ; `string'
CONST	ENDS
;	COMDAT ??_C@_1CC@LOFJFFDB@?$AAs?$AAt?$AAd?$AA?3?$AA?3?$AA_?$AAD?$AAe?$AAa?$AAl?$AAl?$AAo?$AAc?$AAa?$AAt?$AAe?$AA?$AA@
CONST	SEGMENT
??_C@_1CC@LOFJFFDB@?$AAs?$AAt?$AAd?$AA?3?$AA?3?$AA_?$AAD?$AAe?$AAa?$AAl?$AAl?$AAo?$AAc?$AAa?$AAt?$AAe?$AA?$AA@ DB 's'
	DB	00H, 't', 00H, 'd', 00H, ':', 00H, ':', 00H, '_', 00H, 'D', 00H
	DB	'e', 00H, 'a', 00H, 'l', 00H, 'l', 00H, 'o', 00H, 'c', 00H, 'a'
	DB	00H, 't', 00H, 'e', 00H, 00H, 00H		; `string'
CONST	ENDS
;	COMDAT ??_C@_1EI@MLOBABC@?$AA?$CC?$AA_?$AAC?$AAo?$AAu?$AAn?$AAt?$AA?5?$AA?$DM?$AA?$DN?$AA?5?$AA?$CI?$AAs?$AAi?$AAz?$AAe?$AA_?$AAt?$AA?$CJ?$AA?$CI?$AA?9?$AA1?$AA?$CJ?$AA?5?$AA?1?$AA?5?$AA_?$AAS?$AAz?$AA?$CC?$AA?5?$AA?$CG@
CONST	SEGMENT
??_C@_1EI@MLOBABC@?$AA?$CC?$AA_?$AAC?$AAo?$AAu?$AAn?$AAt?$AA?5?$AA?$DM?$AA?$DN?$AA?5?$AA?$CI?$AAs?$AAi?$AAz?$AAe?$AA_?$AAt?$AA?$CJ?$AA?$CI?$AA?9?$AA1?$AA?$CJ?$AA?5?$AA?1?$AA?5?$AA_?$AAS?$AAz?$AA?$CC?$AA?5?$AA?$CG@ DB '"'
	DB	00H, '_', 00H, 'C', 00H, 'o', 00H, 'u', 00H, 'n', 00H, 't', 00H
	DB	' ', 00H, '<', 00H, '=', 00H, ' ', 00H, '(', 00H, 's', 00H, 'i'
	DB	00H, 'z', 00H, 'e', 00H, '_', 00H, 't', 00H, ')', 00H, '(', 00H
	DB	'-', 00H, '1', 00H, ')', 00H, ' ', 00H, '/', 00H, ' ', 00H, '_'
	DB	00H, 'S', 00H, 'z', 00H, '"', 00H, ' ', 00H, '&', 00H, '&', 00H
	DB	' ', 00H, '0', 00H, 00H, 00H			; `string'
CONST	ENDS
;	COMDAT ??_C@_0BN@HMCJOMKN@_Count?5?$DM?$DN?5?$CIsize_t?$CJ?$CI?91?$CJ?5?1?5_Sz?$AA@
CONST	SEGMENT
??_C@_0BN@HMCJOMKN@_Count?5?$DM?$DN?5?$CIsize_t?$CJ?$CI?91?$CJ?5?1?5_Sz?$AA@ DB '_'
	DB	'Count <= (size_t)(-1) / _Sz', 00H		; `string'
CONST	ENDS
;	COMDAT ?__LINE__Var@?0??_Deallocate@std@@YAXPEAX_K1@Z@4JA
_DATA	SEGMENT
?__LINE__Var@?0??_Deallocate@std@@YAXPEAX_K1@Z@4JA DD 05cH ; `std::_Deallocate'::`1'::__LINE__Var
_DATA	ENDS
;	COMDAT ??_C@_1CC@GKJLLHIM@?$AA?$CC?$AA_?$AAP?$AAt?$AAr?$AA?5?$AA?$CB?$AA?$DN?$AA?5?$AA0?$AA?$CC?$AA?5?$AA?$CG?$AA?$CG?$AA?5?$AA0?$AA?$AA@
CONST	SEGMENT
??_C@_1CC@GKJLLHIM@?$AA?$CC?$AA_?$AAP?$AAt?$AAr?$AA?5?$AA?$CB?$AA?$DN?$AA?5?$AA0?$AA?$CC?$AA?5?$AA?$CG?$AA?$CG?$AA?5?$AA0?$AA?$AA@ DB '"'
	DB	00H, '_', 00H, 'P', 00H, 't', 00H, 'r', 00H, ' ', 00H, '!', 00H
	DB	'=', 00H, ' ', 00H, '0', 00H, '"', 00H, ' ', 00H, '&', 00H, '&'
	DB	00H, ' ', 00H, '0', 00H, 00H, 00H		; `string'
CONST	ENDS
;	COMDAT ??_C@_09GLJCAGLP@_Ptr?5?$CB?$DN?50?$AA@
CONST	SEGMENT
??_C@_09GLJCAGLP@_Ptr?5?$CB?$DN?50?$AA@ DB '_Ptr != 0', 00H ; `string'
CONST	ENDS
;	COMDAT ??_C@_1CG@JNLFBNGN@?$AA?$CC?$AAi?$AAn?$AAv?$AAa?$AAl?$AAi?$AAd?$AA?5?$AAa?$AAr?$AAg?$AAu?$AAm?$AAe?$AAn?$AAt?$AA?$CC?$AA?$AA@
CONST	SEGMENT
??_C@_1CG@JNLFBNGN@?$AA?$CC?$AAi?$AAn?$AAv?$AAa?$AAl?$AAi?$AAd?$AA?5?$AAa?$AAr?$AAg?$AAu?$AAm?$AAe?$AAn?$AAt?$AA?$CC?$AA?$AA@ DB '"'
	DB	00H, 'i', 00H, 'n', 00H, 'v', 00H, 'a', 00H, 'l', 00H, 'i', 00H
	DB	'd', 00H, ' ', 00H, 'a', 00H, 'r', 00H, 'g', 00H, 'u', 00H, 'm'
	DB	00H, 'e', 00H, 'n', 00H, 't', 00H, '"', 00H, 00H, 00H ; `string'
CONST	ENDS
;	COMDAT ??_C@_1BO@NKFMJPA@?$AAs?$AAt?$AAd?$AA?3?$AA?3?$AA_?$AAA?$AAl?$AAl?$AAo?$AAc?$AAa?$AAt?$AAe?$AA?$AA@
CONST	SEGMENT
??_C@_1BO@NKFMJPA@?$AAs?$AAt?$AAd?$AA?3?$AA?3?$AA_?$AAA?$AAl?$AAl?$AAo?$AAc?$AAa?$AAt?$AAe?$AA?$AA@ DB 's'
	DB	00H, 't', 00H, 'd', 00H, ':', 00H, ':', 00H, '_', 00H, 'A', 00H
	DB	'l', 00H, 'l', 00H, 'o', 00H, 'c', 00H, 'a', 00H, 't', 00H, 'e'
	DB	00H, 00H, 00H				; `string'
CONST	ENDS
;	COMDAT ??_C@_1JA@DKOIEICI@?$AAc?$AA?3?$AA?2?$AAp?$AAr?$AAo?$AAg?$AAr?$AAa?$AAm?$AA?5?$AAf?$AAi?$AAl?$AAe?$AAs?$AA?5?$AA?$CI?$AAx?$AA8?$AA6?$AA?$CJ?$AA?2?$AAm?$AAi?$AAc?$AAr?$AAo?$AAs?$AAo?$AAf?$AAt@
CONST	SEGMENT
??_C@_1JA@DKOIEICI@?$AAc?$AA?3?$AA?2?$AAp?$AAr?$AAo?$AAg?$AAr?$AAa?$AAm?$AA?5?$AAf?$AAi?$AAl?$AAe?$AAs?$AA?5?$AA?$CI?$AAx?$AA8?$AA6?$AA?$CJ?$AA?2?$AAm?$AAi?$AAc?$AAr?$AAo?$AAs?$AAo?$AAf?$AAt@ DB 'c'
	DB	00H, ':', 00H, '\', 00H, 'p', 00H, 'r', 00H, 'o', 00H, 'g', 00H
	DB	'r', 00H, 'a', 00H, 'm', 00H, ' ', 00H, 'f', 00H, 'i', 00H, 'l'
	DB	00H, 'e', 00H, 's', 00H, ' ', 00H, '(', 00H, 'x', 00H, '8', 00H
	DB	'6', 00H, ')', 00H, '\', 00H, 'm', 00H, 'i', 00H, 'c', 00H, 'r'
	DB	00H, 'o', 00H, 's', 00H, 'o', 00H, 'f', 00H, 't', 00H, ' ', 00H
	DB	'v', 00H, 'i', 00H, 's', 00H, 'u', 00H, 'a', 00H, 'l', 00H, ' '
	DB	00H, 's', 00H, 't', 00H, 'u', 00H, 'd', 00H, 'i', 00H, 'o', 00H
	DB	' ', 00H, '1', 00H, '4', 00H, '.', 00H, '0', 00H, '\', 00H, 'v'
	DB	00H, 'c', 00H, '\', 00H, 'i', 00H, 'n', 00H, 'c', 00H, 'l', 00H
	DB	'u', 00H, 'd', 00H, 'e', 00H, '\', 00H, 'x', 00H, 'm', 00H, 'e'
	DB	00H, 'm', 00H, 'o', 00H, 'r', 00H, 'y', 00H, '0', 00H, 00H, 00H ; `string'
CONST	ENDS
;	COMDAT ??_C@_17CNPHIMPH@?$AA?$CF?$AAl?$AAs?$AA?$AA@
CONST	SEGMENT
??_C@_17CNPHIMPH@?$AA?$CF?$AAl?$AAs?$AA?$AA@ DB '%', 00H, 'l', 00H, 's', 00H
	DB	00H, 00H					; `string'
CONST	ENDS
;	COMDAT ??_C@_1DG@HGDKEBPG@?$AA?$CC?$AA_?$AAP?$AAt?$AAr?$AA_?$AAc?$AAo?$AAn?$AAt?$AAa?$AAi?$AAn?$AAe?$AAr?$AA?5?$AA?$CB?$AA?$DN?$AA?5?$AA0?$AA?$CC?$AA?5?$AA?$CG?$AA?$CG?$AA?5?$AA0?$AA?$AA@
CONST	SEGMENT
??_C@_1DG@HGDKEBPG@?$AA?$CC?$AA_?$AAP?$AAt?$AAr?$AA_?$AAc?$AAo?$AAn?$AAt?$AAa?$AAi?$AAn?$AAe?$AAr?$AA?5?$AA?$CB?$AA?$DN?$AA?5?$AA0?$AA?$CC?$AA?5?$AA?$CG?$AA?$CG?$AA?5?$AA0?$AA?$AA@ DB '"'
	DB	00H, '_', 00H, 'P', 00H, 't', 00H, 'r', 00H, '_', 00H, 'c', 00H
	DB	'o', 00H, 'n', 00H, 't', 00H, 'a', 00H, 'i', 00H, 'n', 00H, 'e'
	DB	00H, 'r', 00H, ' ', 00H, '!', 00H, '=', 00H, ' ', 00H, '0', 00H
	DB	'"', 00H, ' ', 00H, '&', 00H, '&', 00H, ' ', 00H, '0', 00H, 00H
	DB	00H						; `string'
CONST	ENDS
;	COMDAT ??_C@_0BE@LMNLACIC@_Ptr_container?5?$CB?$DN?50?$AA@
CONST	SEGMENT
??_C@_0BE@LMNLACIC@_Ptr_container?5?$CB?$DN?50?$AA@ DB '_Ptr_container !='
	DB	' 0', 00H					; `string'
CONST	ENDS
;	COMDAT ?__LINE__Var@?0??_Allocate@std@@YAPEAX_K0_N@Z@4JA
_DATA	SEGMENT
?__LINE__Var@?0??_Allocate@std@@YAPEAX_K0_N@Z@4JA DD 030H ; `std::_Allocate'::`1'::__LINE__Var
_DATA	ENDS
;	COMDAT xdata
xdata	SEGMENT
$unwind$??$construct@PEA_WAEAPEA_W@?$allocator@_W@std@@QEAAXPEAPEA_WAEAPEA_W@Z DD 025053401H
	DD	0118231dH
	DD	070110021H
	DD	05010H
xdata	ENDS
;	COMDAT xdata
xdata	SEGMENT
$unwind$??$construct@U_Container_proxy@std@@U12@@?$allocator@U_Container_proxy@std@@@std@@QEAAXPEAU_Container_proxy@1@$$QEAU21@@Z DD 025063501H
	DD	0119231eH
	DD	070120020H
	DD	050106011H
xdata	ENDS
;	COMDAT xdata
xdata	SEGMENT
$unwind$??$destroy@U_Container_proxy@std@@@?$allocator@U_Container_proxy@std@@@std@@QEAAXPEAU_Container_proxy@1@@Z DD 05052d01H
	DD	01130316H
	DD	0700c0019H
	DD	0500bH
xdata	ENDS
;	COMDAT xdata
xdata	SEGMENT
$unwind$??$destroy@PEA_W@?$allocator@_W@std@@QEAAXPEAPEA_W@Z DD 05052d01H
	DD	01130316H
	DD	0700c0019H
	DD	0500bH
xdata	ENDS
;	COMDAT xdata
xdata	SEGMENT
$unwind$??$construct@PEA_WAEAPEA_W@?$allocator_traits@V?$allocator@_W@std@@@std@@SAXAEAV?$allocator@_W@1@PEAPEA_WAEAPEA_W@Z DD 025053401H
	DD	0118231dH
	DD	07011001dH
	DD	05010H
xdata	ENDS
;	COMDAT xdata
xdata	SEGMENT
$unwind$??$forward@AEAPEA_W@std@@YAAEAPEA_WAEAPEA_W@Z DD 05052801H
	DD	010e0311H
	DD	070070019H
	DD	05006H
xdata	ENDS
;	COMDAT xdata
xdata	SEGMENT
$unwind$??$?0_W@?$allocator@U_Container_proxy@std@@@std@@QEAA@AEBV?$allocator@_W@1@@Z DD 05052d01H
	DD	01130316H
	DD	0700c0019H
	DD	0500bH
xdata	ENDS
;	COMDAT xdata
xdata	SEGMENT
$unwind$??$forward@AEAU?$_Wrap_alloc@V?$allocator@_W@std@@@std@@@std@@YAAEAU?$_Wrap_alloc@V?$allocator@_W@std@@@0@AEAU10@@Z DD 05052801H
	DD	010e0311H
	DD	070070019H
	DD	05006H
xdata	ENDS
;	COMDAT xdata
xdata	SEGMENT
$unwind$??$construct@U_Container_proxy@std@@U12@@?$allocator_traits@V?$allocator@U_Container_proxy@std@@@std@@@std@@SAXAEAV?$allocator@U_Container_proxy@std@@@1@PEAU_Container_proxy@1@$$QEAU31@@Z DD 025053401H
	DD	0118231dH
	DD	07011001dH
	DD	05010H
xdata	ENDS
;	COMDAT xdata
xdata	SEGMENT
$unwind$??$forward@U_Container_proxy@std@@@std@@YA$$QEAU_Container_proxy@0@AEAU10@@Z DD 05052801H
	DD	010e0311H
	DD	070070019H
	DD	05006H
xdata	ENDS
;	COMDAT xdata
xdata	SEGMENT
$unwind$??$destroy@U_Container_proxy@std@@@?$allocator_traits@V?$allocator@U_Container_proxy@std@@@std@@@std@@SAXAEAV?$allocator@U_Container_proxy@std@@@1@PEAU_Container_proxy@1@@Z DD 025052f01H
	DD	01132318H
	DD	0700c001dH
	DD	0500bH
xdata	ENDS
;	COMDAT xdata
xdata	SEGMENT
$unwind$??$destroy@PEA_W@?$allocator_traits@V?$allocator@_W@std@@@std@@SAXAEAV?$allocator@_W@1@PEAPEA_W@Z DD 025052f01H
	DD	01132318H
	DD	0700c001dH
	DD	0500bH
xdata	ENDS
;	COMDAT xdata
xdata	SEGMENT
$unwind$??$addressof@U_Container_proxy@std@@@std@@YAPEAU_Container_proxy@0@AEAU10@@Z DD 05052801H
	DD	010e0311H
	DD	070070019H
	DD	05006H
xdata	ENDS
;	COMDAT xdata
xdata	SEGMENT
$unwind$?pointer_to@?$pointer_traits@PEAU_Container_proxy@std@@@std@@SAPEAU_Container_proxy@2@AEAU32@@Z DD 025052a01H
	DD	010e2313H
	DD	07007001dH
	DD	05006H
xdata	ENDS
;	COMDAT xdata
xdata	SEGMENT
$unwind$??$construct@PEA_WAEAPEA_W@?$_Wrap_alloc@V?$allocator@_W@std@@@std@@QEAAXPEAPEA_WAEAPEA_W@Z DD 025053401H
	DD	0118231dH
	DD	07011001dH
	DD	05010H
xdata	ENDS
;	COMDAT xdata
xdata	SEGMENT
$unwind$??$?0AEAU?$_Wrap_alloc@V?$allocator@_W@std@@@std@@@?$_Wrap_alloc@V?$allocator@U_Container_proxy@std@@@std@@@std@@QEAA@AEAU?$_Wrap_alloc@V?$allocator@_W@std@@@1@@Z DD 025052f01H
	DD	01132318H
	DD	0700c001dH
	DD	0500bH
xdata	ENDS
;	COMDAT xdata
xdata	SEGMENT
$unwind$??$construct@U_Container_proxy@std@@U12@@?$_Wrap_alloc@V?$allocator@U_Container_proxy@std@@@std@@@std@@QEAAXPEAU_Container_proxy@1@$$QEAU21@@Z DD 025053401H
	DD	0118231dH
	DD	07011001dH
	DD	05010H
xdata	ENDS
;	COMDAT xdata
xdata	SEGMENT
$unwind$??$_Unfancy@U_Container_proxy@std@@@std@@YAPEAU_Container_proxy@0@PEAU10@@Z DD 05052801H
	DD	010e0311H
	DD	070070019H
	DD	05006H
xdata	ENDS
;	COMDAT xdata
xdata	SEGMENT
$unwind$??$destroy@U_Container_proxy@std@@@?$_Wrap_alloc@V?$allocator@U_Container_proxy@std@@@std@@@std@@QEAAXPEAU_Container_proxy@1@@Z DD 025052f01H
	DD	01132318H
	DD	0700c001dH
	DD	0500bH
xdata	ENDS
;	COMDAT xdata
xdata	SEGMENT
$unwind$?deallocate@?$_Wrap_alloc@V?$allocator@U_Container_proxy@std@@@std@@@std@@QEAAXPEAU_Container_proxy@2@_K@Z DD 025053401H
	DD	0118231dH
	DD	07011001dH
	DD	05010H
xdata	ENDS
;	COMDAT xdata
xdata	SEGMENT
$unwind$?allocate@?$_Wrap_alloc@V?$allocator@U_Container_proxy@std@@@std@@@std@@QEAAPEAU_Container_proxy@2@_K@Z DD 025052f01H
	DD	01132318H
	DD	0700c001dH
	DD	0500bH
xdata	ENDS
;	COMDAT xdata
xdata	SEGMENT
$unwind$?address@?$_Wrap_alloc@V?$allocator@U_Container_proxy@std@@@std@@@std@@QEBAPEAU_Container_proxy@2@AEAU32@@Z DD 025052f01H
	DD	01132318H
	DD	0700c001dH
	DD	0500bH
xdata	ENDS
;	COMDAT xdata
xdata	SEGMENT
$unwind$?allocate@?$allocator@U_Container_proxy@std@@@std@@QEAAPEAU_Container_proxy@2@_K@Z DD 025052f01H
	DD	01132318H
	DD	0700c001dH
	DD	0500bH
xdata	ENDS
;	COMDAT xdata
xdata	SEGMENT
$unwind$?deallocate@?$allocator@U_Container_proxy@std@@@std@@QEAAXPEAU_Container_proxy@2@_K@Z DD 025053401H
	DD	0118231dH
	DD	07011001dH
	DD	05010H
xdata	ENDS
;	COMDAT xdata
xdata	SEGMENT
$unwind$??$_Debug_pointer_if@$$CB_W@std@@YAX_NPEB_W1I@Z DD 025053801H
	DD	011c2321H
	DD	07015001dH
	DD	05014H
xdata	ENDS
;	COMDAT xdata
xdata	SEGMENT
$unwind$??$_Debug_pointer@$$CB_W@std@@YAXPEB_W0I@Z DD 025053401H
	DD	0118231dH
	DD	07011001dH
	DD	05010H
xdata	ENDS
;	COMDAT xdata
xdata	SEGMENT
$unwind$??$_Unfancy@_W@std@@YAPEA_WPEA_W@Z DD 05052801H
	DD	010e0311H
	DD	070070019H
	DD	05006H
xdata	ENDS
;	COMDAT xdata
xdata	SEGMENT
$unwind$??$destroy@PEA_W@?$_Wrap_alloc@V?$allocator@_W@std@@@std@@QEAAXPEAPEA_W@Z DD 025052f01H
	DD	01132318H
	DD	0700c001dH
	DD	0500bH
xdata	ENDS
;	COMDAT xdata
xdata	SEGMENT
$unwind$??$addressof@PEA_W@std@@YAPEAPEA_WAEAPEA_W@Z DD 05052801H
	DD	010e0311H
	DD	070070019H
	DD	05006H
xdata	ENDS
;	COMDAT xdata
xdata	SEGMENT
$unwind$??$?0$$V@?$_Compressed_pair@U?$_Wrap_alloc@V?$allocator@_W@std@@@std@@V?$_String_val@U?$_Simple_types@_W@std@@@2@$00@std@@QEAA@U_Zero_then_variadic_args_t@1@@Z DD 025052e01H
	DD	01122317H
	DD	0700b001dH
	DD	0500aH
xdata	ENDS
;	COMDAT xdata
xdata	SEGMENT
$unwind$??$Safe_Release@PEAVCTransform@Engine@@@Engine@@YAKAEAPEAVCTransform@0@@Z DD 025052a01H
	DD	010e2313H
	DD	070070021H
	DD	05006H
xdata	ENDS
;	COMDAT xdata
xdata	SEGMENT
$unwind$??$Safe_Release@PEAVCCollider@Engine@@@Engine@@YAKAEAPEAVCCollider@0@@Z DD 025052a01H
	DD	010e2313H
	DD	070070021H
	DD	05006H
xdata	ENDS
;	COMDAT xdata
xdata	SEGMENT
$unwind$??$Safe_Release@PEAVCThorn@Client@@@Engine@@YAKAEAPEAVCThorn@Client@@@Z DD 025052a01H
	DD	010e2313H
	DD	070070021H
	DD	05006H
xdata	ENDS
;	COMDAT xdata
xdata	SEGMENT
$unwind$??$Safe_Release@PEAVCBoss@Client@@@Engine@@YAKAEAPEAVCBoss@Client@@@Z DD 025052a01H
	DD	010e2313H
	DD	070070021H
	DD	05006H
xdata	ENDS
;	COMDAT xdata
xdata	SEGMENT
$unwind$??$isnan@M@@YA_NM@Z DD 025052301H
	DD	010f2314H
	DD	07008001fH
	DD	05007H
xdata	ENDS
;	COMDAT xdata
xdata	SEGMENT
$unwind$?IsScaleFinish@CThorn@Client@@QEAA_NXZ DD 05052801H
	DD	010e0311H
	DD	070070019H
	DD	05006H
xdata	ENDS
;	COMDAT xdata
xdata	SEGMENT
$unwind$?IsRender@CThorn@Client@@QEAA_NXZ DD 05052801H
	DD	010e0311H
	DD	070070019H
	DD	05006H
xdata	ENDS
;	COMDAT xdata
xdata	SEGMENT
$unwind$?SetMoveStart@CThorn@Client@@QEAAXXZ DD 05052801H
	DD	010e0311H
	DD	070070019H
	DD	05006H
xdata	ENDS
;	COMDAT xdata
xdata	SEGMENT
$unwind$?SetType@CThorn@Client@@QEAAXW4TYPE@12@@Z DD 05052c01H
	DD	01120315H
	DD	0700b0019H
	DD	0500aH
xdata	ENDS
;	COMDAT xdata
xdata	SEGMENT
$unwind$?GetCombinedMatrix@CBone@Engine@@QEBA?AUXMFLOAT4X4@DirectX@@XZ DD 05062e01H
	DD	01140317H
	DD	0700d0018H
	DD	0500b600cH
xdata	ENDS
;	COMDAT xdata
xdata	SEGMENT
$unwind$?GetOffSetMatrix@CBone@Engine@@QEBA?AUXMFLOAT4X4@DirectX@@XZ DD 05062e01H
	DD	01140317H
	DD	0700d0018H
	DD	0500b600cH
xdata	ENDS
;	COMDAT xdata
xdata	SEGMENT
$unwind$?IsFreeze@CApplicationManager@Client@@QEBA_NXZ DD 05052801H
	DD	010e0311H
	DD	070070019H
	DD	05006H
xdata	ENDS
;	COMDAT xdata
xdata	SEGMENT
$unwind$??_GCBoss@Client@@UEAAPEAXI@Z DD 025052e01H
	DD	01122317H
	DD	0700b001dH
	DD	0500aH
xdata	ENDS
;	COMDAT xdata
xdata	SEGMENT
$unwind$?Free@CBoss@Client@@UEAAXXZ DD 025052a01H
	DD	010e2313H
	DD	070070035H
	DD	05006H
xdata	ENDS
;	COMDAT xdata
xdata	SEGMENT
$unwind$?dtor$0@?0??Clone@CBoss@Client@@UEAAPEAVCGameObject@Engine@@PEAX@Z@4HA DD 031001H
	DD	0700c4210H
	DD	0500bH
xdata	ENDS
;	COMDAT xdata
xdata	SEGMENT
$ip2state$?Clone@CBoss@Client@@UEAAPEAVCGameObject@Engine@@PEAX@Z DD imagerel ?Clone@CBoss@Client@@UEAAPEAVCGameObject@Engine@@PEAX@Z
	DD	0ffffffffH
	DD	imagerel ?Clone@CBoss@Client@@UEAAPEAVCGameObject@Engine@@PEAX@Z+115
	DD	00H
	DD	imagerel ?Clone@CBoss@Client@@UEAAPEAVCGameObject@Engine@@PEAX@Z+178
	DD	0ffffffffH
xdata	ENDS
;	COMDAT xdata
xdata	SEGMENT
$stateUnwindMap$?Clone@CBoss@Client@@UEAAPEAVCGameObject@Engine@@PEAX@Z DD 0ffffffffH
	DD	imagerel ?dtor$0@?0??Clone@CBoss@Client@@UEAAPEAVCGameObject@Engine@@PEAX@Z@4HA
xdata	ENDS
;	COMDAT xdata
xdata	SEGMENT
$unwind$?Clone@CBoss@Client@@UEAAPEAVCGameObject@Engine@@PEAX@Z DD 025054b19H
	DD	01132318H
	DD	0700c002fH
	DD	0500bH
	DD	imagerel __GSHandlerCheck_EH
	DD	imagerel $cppxdata$?Clone@CBoss@Client@@UEAAPEAVCGameObject@Engine@@PEAX@Z
	DD	0162H
xdata	ENDS
;	COMDAT CONST
CONST	SEGMENT
