 Client

 Timestamp is 641429fb (Fri Mar 17 17:51:07 2023)

 Preferred load address is 0000000140000000

 Start         Length     Name                   Class
 0001:00000000 000c10b0H .textbss                DATA
 0002:00000000 00009320H .text$di                CODE
 0002:00009320 0017ff20H .text$mn                CODE
 0002:00189240 00001020H .text$mn$00             CODE
 0002:0018a260 00005c40H .text$x                 CODE
 0002:0018fea0 0000142eH .text$yd                CODE
 0003:00000000 00000110H .CRT$XCA                DATA
 0003:00000110 00000110H .CRT$XCAA               DATA
 0003:00000220 00000128H .CRT$XCU                DATA
 0003:00000348 00000110H .CRT$XCZ                DATA
 0003:00000458 00000110H .CRT$XIA                DATA
 0003:00000568 00000110H .CRT$XIAA               DATA
 0003:00000678 00000110H .CRT$XIAC               DATA
 0003:00000788 00000110H .CRT$XIC                DATA
 0003:00000898 00000110H .CRT$XIZ                DATA
 0003:000009a8 00000008H .CRT$XLA                DATA
 0003:000009b0 00000008H .CRT$XLZ                DATA
 0003:000009b8 00000110H .CRT$XPA                DATA
 0003:00000ac8 00000110H .CRT$XPZ                DATA
 0003:00000bd8 00000110H .CRT$XTA                DATA
 0003:00000ce8 00000118H .CRT$XTZ                DATA
 0003:00000e00 0005c9d0H .rdata                  DATA
 0003:0005d7d0 00000130H .rdata$T                DATA
 0003:0005d900 000016dcH .rdata$r                DATA
 0003:0005efdc 0000016cH .rdata$zzzdbg           DATA
 0003:0005f148 00000110H .rtc$IAA                DATA
 0003:0005f258 00000338H .rtc$IMZ                DATA
 0003:0005f590 00000110H .rtc$IZZ                DATA
 0003:0005f6a0 00000110H .rtc$TAA                DATA
 0003:0005f7b0 00000338H .rtc$TMZ                DATA
 0003:0005fae8 00000118H .rtc$TZZ                DATA
 0003:0005fc00 00018b60H .xdata                  DATA
 0003:00078760 0000020aH .xdata$x                DATA
 0003:0007896a 00000000H .edata                  DATA
 0004:00000000 00005e40H .data                   DATA
 0004:00005e40 00000860H .data$r                 DATA
 0004:000066a0 00008ca1H .bss                    DATA
 0005:00000000 0000ee5cH .pdata                  DATA
 0006:00000000 00001050H .idata$5                DATA
 0006:00001050 000000f0H .idata$2                DATA
 0006:00001140 00000018H .idata$3                DATA
 0006:00001158 00001050H .idata$4                DATA
 0006:000021a8 0000305cH .idata$6                DATA
 0007:00000000 0000016cH .gfids$y                DATA
 0008:00000000 00000104H .tls                    DATA
 0008:00000104 00000104H .tls$                   DATA
 0008:00000208 00000101H .tls$ZZZ                DATA
 0009:00000000 0000011bH .00cfg                  DATA
 000a:00000000 00000780H .rsrc$01                DATA
 000a:00000780 0001b640H .rsrc$02                DATA

  Address         Publics by Value              Rva+Base               Lib:Object

 0000:00000000       ___safe_se_handler_table   0000000000000000     <absolute>
 0000:00000000       ___safe_se_handler_count   0000000000000000     <absolute>
 0000:00000000       __guard_iat_count          0000000000000000     <absolute>
 0000:00000000       __guard_fids_count         0000000000000000     <absolute>
 0000:00000000       __guard_longjmp_table      0000000000000000     <absolute>
 0000:00000000       __dynamic_value_reloc_table 0000000000000000     <absolute>
 0000:00000000       __guard_iat_table          0000000000000000     <absolute>
 0000:00000000       __guard_fids_table         0000000000000000     <absolute>
 0000:00000000       __guard_longjmp_count      0000000000000000     <absolute>
 0000:00000100       __guard_flags              0000000000000100     <absolute>
 0000:00000000       __ImageBase                0000000140000000     <linker-defined>
 0001:00000000       __enc$textbss$begin        0000000140001000     <linker-defined>
 0001:000c10b0       __enc$textbss$end          00000001400c20b0     <linker-defined>
 0002:000093e0       ??$IM_DELETE@D@@YAXPEAD@Z  00000001400cc3e0 f i imgui.obj
 0002:00009440       ??$IM_DELETE@UImDrawList@@@@YAXPEAUImDrawList@@@Z 00000001400cc440 f i imgui.obj
 0002:000094b0       ??$IM_DELETE@UImFontAtlas@@@@YAXPEAUImFontAtlas@@@Z 00000001400cc4b0 f i imgui.obj
 0002:00009520       ??$IM_DELETE@UImGuiContext@@@@YAXPEAUImGuiContext@@@Z 00000001400cc520 f i imgui.obj
 0002:00009590       ??$IM_DELETE@UImGuiViewportP@@@@YAXPEAUImGuiViewportP@@@Z 00000001400cc590 f i imgui.obj
 0002:00009600       ??$IM_DELETE@UImGuiWindow@@@@YAXPEAUImGuiWindow@@@Z 00000001400cc600 f i imgui.obj
 0002:00009c60       ??$__vcrt_va_start_verify_argument_type@PEBD@@YAXXZ 00000001400ccc60 f i imgui.obj
 0002:00009c90       ??$__vcrt_va_start_verify_argument_type@QEBD@@YAXXZ 00000001400ccc90 f i imgui.obj
 0002:00009cc0       ??0?$ImBitArray@$0CIM@$0A@@@QEAA@XZ 00000001400cccc0 f i imgui.obj
 0002:00009d20       ??0?$ImChunkStream@UImGuiTableSettings@@@@QEAA@XZ 00000001400ccd20 f i imgui.obj
 0002:00009d80       ??0?$ImChunkStream@UImGuiWindowSettings@@@@QEAA@XZ 00000001400ccd80 f i imgui.obj
 0002:00009de0       ??0?$ImPool@UImGuiTabBar@@@@QEAA@XZ 00000001400ccde0 f i imgui.obj
 0002:00009e90       ??0?$ImPool@UImGuiTable@@@@QEAA@XZ 00000001400cce90 f i imgui.obj
 0002:00009f40       ??0?$ImVector@D@@QEAA@XZ   00000001400ccf40 f i imgui.obj
 0002:00009fc0       ??0?$ImVector@E@@QEAA@XZ   00000001400ccfc0 f i imgui.obj
 0002:0000a040       ??0?$ImVector@G@@QEAA@XZ   00000001400cd040 f i imgui.obj
 0002:0000a0c0       ??0?$ImVector@H@@QEAA@XZ   00000001400cd0c0 f i imgui.obj
 0002:0000a140       ??0?$ImVector@I@@QEAA@XZ   00000001400cd140 f i imgui.obj
 0002:0000a1c0       ??0?$ImVector@M@@QEAA@XZ   00000001400cd1c0 f i imgui.obj
 0002:0000a240       ??0?$ImVector@PEAUImDrawList@@@@QEAA@XZ 00000001400cd240 f i imgui.obj
 0002:0000a2c0       ??0?$ImVector@PEAUImFont@@@@QEAA@XZ 00000001400cd2c0 f i imgui.obj
 0002:0000a340       ??0?$ImVector@PEAUImGuiViewportP@@@@QEAA@XZ 00000001400cd340 f i imgui.obj
 0002:0000a3c0       ??0?$ImVector@PEAUImGuiWindow@@@@QEAA@XZ 00000001400cd3c0 f i imgui.obj
 0002:0000a440       ??0?$ImVector@PEAX@@QEAA@XZ 00000001400cd440 f i imgui.obj
 0002:0000a4c0       ??0?$ImVector@UImDrawChannel@@@@QEAA@XZ 00000001400cd4c0 f i imgui.obj
 0002:0000a540       ??0?$ImVector@UImDrawCmd@@@@QEAA@XZ 00000001400cd540 f i imgui.obj
 0002:0000a5c0       ??0?$ImVector@UImDrawVert@@@@QEAA@XZ 00000001400cd5c0 f i imgui.obj
 0002:0000a640       ??0?$ImVector@UImGuiColorMod@@@@QEAA@XZ 00000001400cd640 f i imgui.obj
 0002:0000a6c0       ??0?$ImVector@UImGuiContextHook@@@@QEAA@XZ 00000001400cd6c0 f i imgui.obj
 0002:0000a740       ??0?$ImVector@UImGuiGroupData@@@@QEAA@XZ 00000001400cd740 f i imgui.obj
 0002:0000a7c0       ??0?$ImVector@UImGuiInputEvent@@@@QEAA@XZ 00000001400cd7c0 f i imgui.obj
 0002:0000a840       ??0?$ImVector@UImGuiKeyRoutingData@@@@QEAA@XZ 00000001400cd840 f i imgui.obj
 0002:0000a8c0       ??0?$ImVector@UImGuiListClipperData@@@@QEAA@XZ 00000001400cd8c0 f i imgui.obj
 0002:0000a940       ??0?$ImVector@UImGuiListClipperRange@@@@QEAA@XZ 00000001400cd940 f i imgui.obj
 0002:0000a9c0       ??0?$ImVector@UImGuiOldColumns@@@@QEAA@XZ 00000001400cd9c0 f i imgui.obj
 0002:0000aa40       ??0?$ImVector@UImGuiPopupData@@@@QEAA@XZ 00000001400cda40 f i imgui.obj
 0002:0000aac0       ??0?$ImVector@UImGuiPtrOrIndex@@@@QEAA@XZ 00000001400cdac0 f i imgui.obj
 0002:0000ab40       ??0?$ImVector@UImGuiSettingsHandler@@@@QEAA@XZ 00000001400cdb40 f i imgui.obj
 0002:0000abc0       ??0?$ImVector@UImGuiShrinkWidthItem@@@@QEAA@XZ 00000001400cdbc0 f i imgui.obj
 0002:0000ac40       ??0?$ImVector@UImGuiStackLevelInfo@@@@QEAA@XZ 00000001400cdc40 f i imgui.obj
 0002:0000acc0       ??0?$ImVector@UImGuiStoragePair@ImGuiStorage@@@@QEAA@XZ 00000001400cdcc0 f i imgui.obj
 0002:0000ad40       ??0?$ImVector@UImGuiStyleMod@@@@QEAA@XZ 00000001400cdd40 f i imgui.obj
 0002:0000adc0       ??0?$ImVector@UImGuiTabBar@@@@QEAA@XZ 00000001400cddc0 f i imgui.obj
 0002:0000ae40       ??0?$ImVector@UImGuiTable@@@@QEAA@XZ 00000001400cde40 f i imgui.obj
 0002:0000aec0       ??0?$ImVector@UImGuiTableTempData@@@@QEAA@XZ 00000001400cdec0 f i imgui.obj
 0002:0000af40       ??0?$ImVector@UImGuiTextRange@ImGuiTextFilter@@@@QEAA@XZ 00000001400cdf40 f i imgui.obj
 0002:0000afc0       ??0?$ImVector@UImGuiWindowStackData@@@@QEAA@XZ 00000001400cdfc0 f i imgui.obj
 0002:0000b040       ??0?$ImVector@UImVec2@@@@QEAA@XZ 00000001400ce040 f i imgui.obj
 0002:0000b0c0       ??0?$ImVector@UImVec4@@@@QEAA@XZ 00000001400ce0c0 f i imgui.obj
 0002:0000b140       ??0?$ImVector@_W@@QEAA@XZ  00000001400ce140 f i imgui.obj
 0002:0000b1c0       ??0ImDrawCmdHeader@@QEAA@XZ 00000001400ce1c0 f i imgui.obj
 0002:0000b220       ??0ImDrawData@@QEAA@XZ     00000001400ce220 f i imgui.obj
 0002:0000b2c0       ??0ImDrawDataBuilder@@QEAA@XZ 00000001400ce2c0 f i imgui.obj
 0002:0000b340       ??0ImDrawList@@QEAA@PEAUImDrawListSharedData@@@Z 00000001400ce340 f i imgui.obj
 0002:0000b4a0       ??0ImDrawListSplitter@@QEAA@XZ 00000001400ce4a0 f i imgui.obj
 0002:0000b520       ??0ImGuiColorMod@@QEAA@XZ  00000001400ce520 f i imgui.obj
 0002:0000b590       ??0ImGuiComboPreviewData@@QEAA@XZ 00000001400ce590 f i imgui.obj
 0002:0000b650       ??0ImGuiContext@@QEAA@PEAUImFontAtlas@@@Z 00000001400ce650 f i imgui.obj
 0002:0000cd30       ??0ImGuiIO@@QEAA@XZ        00000001400cfd30 f   imgui.obj
 0002:0000d380       ??0ImGuiInputEvent@@QEAA@XZ 00000001400d0380 f i imgui.obj
 0002:0000d3f0       ??0ImGuiInputTextState@@QEAA@PEAUImGuiContext@@@Z 00000001400d03f0 f i imgui.obj
 0002:0000d4d0       ??0ImGuiKeyOwnerData@@QEAA@XZ 00000001400d04d0 f i imgui.obj
 0002:0000d560       ??0ImGuiKeyRoutingData@@QEAA@XZ 00000001400d0560 f i imgui.obj
 0002:0000d600       ??0ImGuiKeyRoutingTable@@QEAA@XZ 00000001400d0600 f i imgui.obj
 0002:0000d6a0       ??0ImGuiLastItemData@@QEAA@XZ 00000001400d06a0 f i imgui.obj
 0002:0000d750       ??0ImGuiListClipper@@QEAA@XZ 00000001400d0750 f   imgui.obj
 0002:0000d7d0       ??0ImGuiListClipperData@@QEAA@XZ 00000001400d07d0 f i imgui.obj
 0002:0000d850       ??0ImGuiMenuColumns@@QEAA@XZ 00000001400d0850 f i imgui.obj
 0002:0000d8c0       ??0ImGuiMetricsConfig@@QEAA@XZ 00000001400d08c0 f i imgui.obj
 0002:0000d990       ??0ImGuiNavItemData@@QEAA@XZ 00000001400d0990 f i imgui.obj
 0002:0000da00       ??0ImGuiNextItemData@@QEAA@XZ 00000001400d0a00 f i imgui.obj
 0002:0000da70       ??0ImGuiNextWindowData@@QEAA@XZ 00000001400d0a70 f i imgui.obj
 0002:0000db80       ??0ImGuiPayload@@QEAA@XZ   00000001400d0b80 f i imgui.obj
 0002:0000dbe0       ??0ImGuiPlatformImeData@@QEAA@XZ 00000001400d0be0 f i imgui.obj
 0002:0000dc60       ??0ImGuiPopupData@@QEAA@XZ 00000001400d0c60 f i imgui.obj
 0002:0000dd20       ??0ImGuiSettingsHandler@@QEAA@XZ 00000001400d0d20 f i imgui.obj
 0002:0000dd90       ??0ImGuiSizeCallbackData@@QEAA@XZ 00000001400d0d90 f i imgui.obj
 0002:0000de30       ??0ImGuiStackLevelInfo@@QEAA@XZ 00000001400d0e30 f i imgui.obj
 0002:0000dea0       ??0ImGuiStackSizes@@QEAA@XZ 00000001400d0ea0 f i imgui.obj
 0002:0000df10       ??0ImGuiStackTool@@QEAA@XZ 00000001400d0f10 f i imgui.obj
 0002:0000dfb0       ??0ImGuiStorage@@QEAA@XZ   00000001400d0fb0 f i imgui.obj
 0002:0000e010       ??0ImGuiStoragePair@ImGuiStorage@@QEAA@IH@Z 00000001400d1010 f i imgui.obj
 0002:0000e090       ??0ImGuiStoragePair@ImGuiStorage@@QEAA@IM@Z 00000001400d1090 f i imgui.obj
 0002:0000e110       ??0ImGuiStoragePair@ImGuiStorage@@QEAA@IPEAX@Z 00000001400d1110 f i imgui.obj
 0002:0000e190       ??0ImGuiStyle@@QEAA@XZ     00000001400d1190 f   imgui.obj
 0002:0000e830       ??0ImGuiStyleMod@@QEAA@HM@Z 00000001400d1830 f i imgui.obj
 0002:0000e8c0       ??0ImGuiStyleMod@@QEAA@HUImVec2@@@Z 00000001400d18c0 f i imgui.obj
 0002:0000e970       ??0ImGuiTextBuffer@@QEAA@XZ 00000001400d1970 f i imgui.obj
 0002:0000e9d0       ??0ImGuiTextFilter@@QEAA@PEBD@Z 00000001400d19d0 f   imgui.obj
 0002:0000eac0       ??0ImGuiTextIndex@@QEAA@XZ 00000001400d1ac0 f i imgui.obj
 0002:0000eb30       ??0ImGuiTextRange@ImGuiTextFilter@@QEAA@PEBD0@Z 00000001400d1b30 f i imgui.obj
 0002:0000ebb0       ??0ImGuiViewport@@QEAA@XZ  00000001400d1bb0 f i imgui.obj
 0002:0000ec80       ??0ImGuiViewportP@@QEAA@XZ 00000001400d1c80 f i imgui.obj
 0002:0000ee00       ??0ImGuiWindow@@QEAA@PEAUImGuiContext@@PEBD@Z 00000001400d1e00 f   imgui.obj
 0002:0000f4a0       ??0ImGuiWindowSettings@@QEAA@XZ 00000001400d24a0 f i imgui.obj
 0002:0000f540       ??0ImGuiWindowStackData@@QEAA@XZ 00000001400d2540 f i imgui.obj
 0002:0000f5c0       ??0ImGuiWindowTempData@@QEAA@XZ 00000001400d25c0 f i imgui.obj
 0002:0000f7a0       ??0ImRect@@QEAA@AEBUImVec2@@0@Z 00000001400d27a0 f i imgui.obj
 0002:0000f7f0       ??0ImRect@@QEAA@AEBUImVec4@@@Z 00000001400d27f0 f i imgui.obj
 0002:0000f870       ??0ImRect@@QEAA@MMMM@Z     00000001400d2870 f i imgui.obj
 0002:0000f8f0       ??0ImRect@@QEAA@XZ         00000001400d28f0 f i imgui.obj
 0002:0000f950       ??0ImVec1@@QEAA@XZ         00000001400d2950 f i imgui.obj
 0002:0000f980       ??0ImVec2@@QEAA@MM@Z       00000001400d2980 f i imgui.obj
 0002:0000f9d0       ??0ImVec2@@QEAA@XZ         00000001400d29d0 f i imgui.obj
 0002:0000fa10       ??0ImVec2ih@@QEAA@AEBUImVec2@@@Z 00000001400d2a10 f i imgui.obj
 0002:0000fa60       ??0ImVec2ih@@QEAA@FF@Z     00000001400d2a60 f i imgui.obj
 0002:0000fab0       ??0ImVec2ih@@QEAA@XZ       00000001400d2ab0 f i imgui.obj
 0002:0000faf0       ??0ImVec4@@QEAA@MMMM@Z     00000001400d2af0 f i imgui.obj
 0002:0000fb70       ??0ImVec4@@QEAA@XZ         00000001400d2b70 f i imgui.obj
 0002:0000fbd0       ??1?$ImChunkStream@UImGuiTableSettings@@@@QEAA@XZ 00000001400d2bd0 f i imgui.obj
 0002:0000fc30       ??1?$ImChunkStream@UImGuiWindowSettings@@@@QEAA@XZ 00000001400d2c30 f i imgui.obj
 0002:0000fc90       ??1?$ImPool@UImGuiTabBar@@@@QEAA@XZ 00000001400d2c90 f i imgui.obj
 0002:0000fd20       ??1?$ImPool@UImGuiTable@@@@QEAA@XZ 00000001400d2d20 f i imgui.obj
 0002:0000fdb0       ??1?$ImVector@D@@QEAA@XZ   00000001400d2db0 f i imgui.obj
 0002:0000fe30       ??1?$ImVector@E@@QEAA@XZ   00000001400d2e30 f i imgui.obj
 0002:0000feb0       ??1?$ImVector@G@@QEAA@XZ   00000001400d2eb0 f i imgui.obj
 0002:0000ff30       ??1?$ImVector@H@@QEAA@XZ   00000001400d2f30 f i imgui.obj
 0002:0000ffb0       ??1?$ImVector@I@@QEAA@XZ   00000001400d2fb0 f i imgui.obj
 0002:00010030       ??1?$ImVector@M@@QEAA@XZ   00000001400d3030 f i imgui.obj
 0002:000100b0       ??1?$ImVector@PEAUImDrawList@@@@QEAA@XZ 00000001400d30b0 f i imgui.obj
 0002:00010130       ??1?$ImVector@PEAUImFont@@@@QEAA@XZ 00000001400d3130 f i imgui.obj
 0002:000101b0       ??1?$ImVector@PEAUImGuiViewportP@@@@QEAA@XZ 00000001400d31b0 f i imgui.obj
 0002:00010230       ??1?$ImVector@PEAUImGuiWindow@@@@QEAA@XZ 00000001400d3230 f i imgui.obj
 0002:000102b0       ??1?$ImVector@PEAX@@QEAA@XZ 00000001400d32b0 f i imgui.obj
 0002:00010330       ??1?$ImVector@UImDrawChannel@@@@QEAA@XZ 00000001400d3330 f i imgui.obj
 0002:000103b0       ??1?$ImVector@UImDrawCmd@@@@QEAA@XZ 00000001400d33b0 f i imgui.obj
 0002:00010430       ??1?$ImVector@UImDrawVert@@@@QEAA@XZ 00000001400d3430 f i imgui.obj
 0002:000104b0       ??1?$ImVector@UImGuiColorMod@@@@QEAA@XZ 00000001400d34b0 f i imgui.obj
 0002:00010530       ??1?$ImVector@UImGuiContextHook@@@@QEAA@XZ 00000001400d3530 f i imgui.obj
 0002:000105b0       ??1?$ImVector@UImGuiGroupData@@@@QEAA@XZ 00000001400d35b0 f i imgui.obj
 0002:00010630       ??1?$ImVector@UImGuiInputEvent@@@@QEAA@XZ 00000001400d3630 f i imgui.obj
 0002:000106b0       ??1?$ImVector@UImGuiKeyRoutingData@@@@QEAA@XZ 00000001400d36b0 f i imgui.obj
 0002:00010730       ??1?$ImVector@UImGuiListClipperData@@@@QEAA@XZ 00000001400d3730 f i imgui.obj
 0002:000107b0       ??1?$ImVector@UImGuiListClipperRange@@@@QEAA@XZ 00000001400d37b0 f i imgui.obj
 0002:00010830       ??1?$ImVector@UImGuiOldColumnData@@@@QEAA@XZ 00000001400d3830 f i imgui.obj
 0002:000108b0       ??1?$ImVector@UImGuiOldColumns@@@@QEAA@XZ 00000001400d38b0 f i imgui.obj
 0002:00010930       ??1?$ImVector@UImGuiPopupData@@@@QEAA@XZ 00000001400d3930 f i imgui.obj
 0002:000109b0       ??1?$ImVector@UImGuiPtrOrIndex@@@@QEAA@XZ 00000001400d39b0 f i imgui.obj
 0002:00010a30       ??1?$ImVector@UImGuiSettingsHandler@@@@QEAA@XZ 00000001400d3a30 f i imgui.obj
 0002:00010ab0       ??1?$ImVector@UImGuiShrinkWidthItem@@@@QEAA@XZ 00000001400d3ab0 f i imgui.obj
 0002:00010b30       ??1?$ImVector@UImGuiStackLevelInfo@@@@QEAA@XZ 00000001400d3b30 f i imgui.obj
 0002:00010bb0       ??1?$ImVector@UImGuiStoragePair@ImGuiStorage@@@@QEAA@XZ 00000001400d3bb0 f i imgui.obj
 0002:00010c30       ??1?$ImVector@UImGuiStyleMod@@@@QEAA@XZ 00000001400d3c30 f i imgui.obj
 0002:00010cb0       ??1?$ImVector@UImGuiTabBar@@@@QEAA@XZ 00000001400d3cb0 f i imgui.obj
 0002:00010d30       ??1?$ImVector@UImGuiTabItem@@@@QEAA@XZ 00000001400d3d30 f i imgui.obj
 0002:00010db0       ??1?$ImVector@UImGuiTable@@@@QEAA@XZ 00000001400d3db0 f i imgui.obj
 0002:00010e30       ??1?$ImVector@UImGuiTableColumnSortSpecs@@@@QEAA@XZ 00000001400d3e30 f i imgui.obj
 0002:00010eb0       ??1?$ImVector@UImGuiTableInstanceData@@@@QEAA@XZ 00000001400d3eb0 f i imgui.obj
 0002:00010f30       ??1?$ImVector@UImGuiTableTempData@@@@QEAA@XZ 00000001400d3f30 f i imgui.obj
 0002:00010fb0       ??1?$ImVector@UImGuiTextRange@ImGuiTextFilter@@@@QEAA@XZ 00000001400d3fb0 f i imgui.obj
 0002:00011030       ??1?$ImVector@UImGuiWindowStackData@@@@QEAA@XZ 00000001400d4030 f i imgui.obj
 0002:000110b0       ??1?$ImVector@UImVec2@@@@QEAA@XZ 00000001400d40b0 f i imgui.obj
 0002:00011130       ??1?$ImVector@UImVec4@@@@QEAA@XZ 00000001400d4130 f i imgui.obj
 0002:000111b0       ??1?$ImVector@_W@@QEAA@XZ  00000001400d41b0 f i imgui.obj
 0002:00011230       ??1ImDrawDataBuilder@@QEAA@XZ 00000001400d4230 f i imgui.obj
 0002:000112b0       ??1ImDrawList@@QEAA@XZ     00000001400d42b0 f i imgui.obj
 0002:000113c0       ??1ImDrawListSharedData@@QEAA@XZ 00000001400d43c0 f i imgui.obj
 0002:00011420       ??1ImDrawListSplitter@@QEAA@XZ 00000001400d4420 f i imgui.obj
 0002:000114a0       ??1ImGuiContext@@QEAA@XZ   00000001400d44a0 f i imgui.obj
 0002:00011930       ??1ImGuiIO@@QEAA@XZ        00000001400d4930 f i imgui.obj
 0002:00011990       ??1ImGuiInputTextState@@QEAA@XZ 00000001400d4990 f i imgui.obj
 0002:00011a20       ??1ImGuiKeyRoutingTable@@QEAA@XZ 00000001400d4a20 f i imgui.obj
 0002:00011aa0       ??1ImGuiListClipper@@QEAA@XZ 00000001400d4aa0 f   imgui.obj
 0002:00011b00       ??1ImGuiListClipperData@@QEAA@XZ 00000001400d4b00 f i imgui.obj
 0002:00011b60       ??1ImGuiOldColumns@@QEAA@XZ 00000001400d4b60 f i imgui.obj
 0002:00011bd0       ??1ImGuiStackTool@@QEAA@XZ 00000001400d4bd0 f i imgui.obj
 0002:00011c30       ??1ImGuiStorage@@QEAA@XZ   00000001400d4c30 f i imgui.obj
 0002:00011c90       ??1ImGuiTabBar@@QEAA@XZ    00000001400d4c90 f i imgui.obj
 0002:00011d00       ??1ImGuiTable@@QEAA@XZ     00000001400d4d00 f i imgui.obj
 0002:00011dc0       ??1ImGuiTableTempData@@QEAA@XZ 00000001400d4dc0 f i imgui.obj
 0002:00011e20       ??1ImGuiTextBuffer@@QEAA@XZ 00000001400d4e20 f i imgui.obj
 0002:00011e80       ??1ImGuiTextIndex@@QEAA@XZ 00000001400d4e80 f i imgui.obj
 0002:00011ee0       ??1ImGuiViewportP@@QEAA@XZ 00000001400d4ee0 f i imgui.obj
 0002:00011fd0       ??1ImGuiWindow@@QEAA@XZ    00000001400d4fd0 f   imgui.obj
 0002:00012130       ??1ImGuiWindowTempData@@QEAA@XZ 00000001400d5130 f i imgui.obj
 0002:000121c0       ??2@YAPEAX_KUImNewWrapper@@PEAX@Z 00000001400d51c0 f i imgui.obj
 0002:00012220       ??3@YAXPEAXUImNewWrapper@@0@Z 00000001400d5220 f i imgui.obj
 0002:00012270       ??A?$ImSpan@UImGuiTableColumn@@@@QEAAAEAUImGuiTableColumn@@H@Z 00000001400d5270 f i imgui.obj
 0002:00012330       ??A?$ImVector@D@@QEAAAEADH@Z 00000001400d5330 f i imgui.obj
 0002:000123e0       ??A?$ImVector@G@@QEAAAEAGH@Z 00000001400d53e0 f i imgui.obj
 0002:00012490       ??A?$ImVector@H@@QEAAAEAHH@Z 00000001400d5490 f i imgui.obj
 0002:00012540       ??A?$ImVector@I@@QEAAAEAIH@Z 00000001400d5540 f i imgui.obj
 0002:000125f0       ??A?$ImVector@M@@QEAAAEAMH@Z 00000001400d55f0 f i imgui.obj
 0002:000126a0       ??A?$ImVector@PEAUImDrawList@@@@QEAAAEAPEAUImDrawList@@H@Z 00000001400d56a0 f i imgui.obj
 0002:00012750       ??A?$ImVector@PEAUImFont@@@@QEAAAEAPEAUImFont@@H@Z 00000001400d5750 f i imgui.obj
 0002:00012800       ??A?$ImVector@PEAUImGuiViewportP@@@@QEAAAEAPEAUImGuiViewportP@@H@Z 00000001400d5800 f i imgui.obj
 0002:000128b0       ??A?$ImVector@PEAUImGuiWindow@@@@QEAAAEAPEAUImGuiWindow@@H@Z 00000001400d58b0 f i imgui.obj
 0002:00012960       ??A?$ImVector@UImDrawCmd@@@@QEAAAEAUImDrawCmd@@H@Z 00000001400d5960 f i imgui.obj
 0002:00012a10       ??A?$ImVector@UImGuiContextHook@@@@QEAAAEAUImGuiContextHook@@H@Z 00000001400d5a10 f i imgui.obj
 0002:00012ac0       ??A?$ImVector@UImGuiInputEvent@@@@QEAAAEAUImGuiInputEvent@@H@Z 00000001400d5ac0 f i imgui.obj
 0002:00012b70       ??A?$ImVector@UImGuiKeyRoutingData@@@@QEAAAEAUImGuiKeyRoutingData@@H@Z 00000001400d5b70 f i imgui.obj
 0002:00012c20       ??A?$ImVector@UImGuiListClipperData@@@@QEAAAEAUImGuiListClipperData@@H@Z 00000001400d5c20 f i imgui.obj
 0002:00012cd0       ??A?$ImVector@UImGuiListClipperRange@@@@QEAAAEAUImGuiListClipperRange@@H@Z 00000001400d5cd0 f i imgui.obj
 0002:00012d80       ??A?$ImVector@UImGuiOldColumnData@@@@QEAAAEAUImGuiOldColumnData@@H@Z 00000001400d5d80 f i imgui.obj
 0002:00012e30       ??A?$ImVector@UImGuiOldColumns@@@@QEAAAEAUImGuiOldColumns@@H@Z 00000001400d5e30 f i imgui.obj
 0002:00012ee0       ??A?$ImVector@UImGuiPopupData@@@@QEAAAEAUImGuiPopupData@@H@Z 00000001400d5ee0 f i imgui.obj
 0002:00012f90       ??A?$ImVector@UImGuiSettingsHandler@@@@QEAAAEAUImGuiSettingsHandler@@H@Z 00000001400d5f90 f i imgui.obj
 0002:00013040       ??A?$ImVector@UImGuiStackLevelInfo@@@@QEAAAEAUImGuiStackLevelInfo@@H@Z 00000001400d6040 f i imgui.obj
 0002:000130f0       ??A?$ImVector@UImGuiStoragePair@ImGuiStorage@@@@QEAAAEAUImGuiStoragePair@ImGuiStorage@@H@Z 00000001400d60f0 f i imgui.obj
 0002:000131a0       ??A?$ImVector@UImGuiTabBar@@@@QEAAAEAUImGuiTabBar@@H@Z 00000001400d61a0 f i imgui.obj
 0002:00013250       ??A?$ImVector@UImGuiTabItem@@@@QEAAAEAUImGuiTabItem@@H@Z 00000001400d6250 f i imgui.obj
 0002:00013300       ??A?$ImVector@UImGuiTable@@@@QEAAAEAUImGuiTable@@H@Z 00000001400d6300 f i imgui.obj
 0002:000133b0       ??A?$ImVector@UImGuiTableInstanceData@@@@QEAAAEAUImGuiTableInstanceData@@H@Z 00000001400d63b0 f i imgui.obj
 0002:00013460       ??A?$ImVector@UImGuiTableTempData@@@@QEAAAEAUImGuiTableTempData@@H@Z 00000001400d6460 f i imgui.obj
 0002:00013510       ??A?$ImVector@UImGuiTextRange@ImGuiTextFilter@@@@QEAAAEAUImGuiTextRange@ImGuiTextFilter@@H@Z 00000001400d6510 f i imgui.obj
 0002:000135c0       ??A?$ImVector@UImGuiTextRange@ImGuiTextFilter@@@@QEBAAEBUImGuiTextRange@ImGuiTextFilter@@H@Z 00000001400d65c0 f i imgui.obj
 0002:00013670       ??A?$ImVector@UImGuiWindowStackData@@@@QEAAAEAUImGuiWindowStackData@@H@Z 00000001400d6670 f i imgui.obj
 0002:00013720       ??A?$ImVector@_W@@QEAAAEA_WH@Z 00000001400d6720 f i imgui.obj
 0002:000137d0       ??AImVec2@@QEAAAEAM_K@Z    00000001400d67d0 f i imgui.obj
 0002:00013840       ??AImVec2@@QEBAM_K@Z       00000001400d6840 f i imgui.obj
 0002:00013c10       ??_GImDrawList@@QEAAPEAXI@Z 00000001400d6c10 f i imgui.obj
 0002:00013ca0       ??_GImFontAtlas@@QEAAPEAXI@Z 00000001400d6ca0 f i imgui.obj
 0002:00013d30       ??_GImGuiContext@@QEAAPEAXI@Z 00000001400d6d30 f i imgui.obj
 0002:00013dc0       ??_GImGuiListClipperData@@QEAAPEAXI@Z 00000001400d6dc0 f i imgui.obj
 0002:00013e50       ??_GImGuiOldColumns@@QEAAPEAXI@Z 00000001400d6e50 f i imgui.obj
 0002:00013ee0       ??_GImGuiTabBar@@QEAAPEAXI@Z 00000001400d6ee0 f i imgui.obj
 0002:00013f70       ??_GImGuiTable@@QEAAPEAXI@Z 00000001400d6f70 f i imgui.obj
 0002:00014000       ??_GImGuiTableTempData@@QEAAPEAXI@Z 00000001400d7000 f i imgui.obj
 0002:00014090       ??_GImGuiViewportP@@QEAAPEAXI@Z 00000001400d7090 f i imgui.obj
 0002:00014120       ??_GImGuiWindow@@QEAAPEAXI@Z 00000001400d7120 f i imgui.obj
 0002:000141b0       ??_H@YAXPEAX_K1P6APEAX0@Z@Z 00000001400d71b0 f i imgui.obj
 0002:000142a0       ?AcceptDragDropPayload@ImGui@@YAPEBUImGuiPayload@@PEBDH@Z 00000001400d72a0 f   imgui.obj
 0002:00014700       ?ActivateItem@ImGui@@YAXI@Z 00000001400d7700 f   imgui.obj
 0002:00014770       ?Add@ImRect@@QEAAXAEBU1@@Z 00000001400d7770 f i imgui.obj
 0002:00014850       ?Add@ImRect@@QEAAXAEBUImVec2@@@Z 00000001400d7850 f i imgui.obj
 0002:00014920       ?AddContextHook@ImGui@@YAIPEAUImGuiContext@@PEBUImGuiContextHook@@@Z 00000001400d7920 f   imgui.obj
 0002:00014ca0       ?AddFocusEvent@ImGuiIO@@QEAAX_N@Z 00000001400d7ca0 f   imgui.obj
 0002:00014e50       ?AddInputCharacter@ImGuiIO@@QEAAXI@Z 00000001400d7e50 f   imgui.obj
 0002:00014fa0       ?AddInputCharacterUTF16@ImGuiIO@@QEAAXG@Z 00000001400d7fa0 f   imgui.obj
 0002:00015120       ?AddInputCharactersUTF8@ImGuiIO@@QEAAXPEBD@Z 00000001400d8120 f   imgui.obj
 0002:00015220       ?AddKeyAnalogEvent@ImGuiIO@@QEAAXW4ImGuiKey@@_NM@Z 00000001400d8220 f   imgui.obj
 0002:000156c0       ?AddKeyEvent@ImGuiIO@@QEAAXW4ImGuiKey@@_N@Z 00000001400d86c0 f   imgui.obj
 0002:00015790       ?AddMouseButtonEvent@ImGuiIO@@QEAAXH_N@Z 00000001400d8790 f   imgui.obj
 0002:000159a0       ?AddMousePosEvent@ImGuiIO@@QEAAXMM@Z 00000001400d89a0 f   imgui.obj
 0002:00015c80       ?AddMouseWheelEvent@ImGuiIO@@QEAAXMM@Z 00000001400d8c80 f   imgui.obj
 0002:00015e80       ?AddSettingsHandler@ImGui@@YAXPEBUImGuiSettingsHandler@@@Z 00000001400d8e80 f   imgui.obj
 0002:00016320       ?Begin@ImGui@@YA_NPEBDPEA_NH@Z 00000001400d9320 f   imgui.obj
 0002:0001a030       ?Begin@ImGuiListClipper@@QEAAXHM@Z 00000001400dd030 f   imgui.obj
 0002:0001a2c0       ?BeginChild@ImGui@@YA_NIAEBUImVec2@@_NH@Z 00000001400dd2c0 f   imgui.obj
 0002:0001a380       ?BeginChild@ImGui@@YA_NPEBDAEBUImVec2@@_NH@Z 00000001400dd380 f   imgui.obj
 0002:0001a430       ?BeginChildEx@ImGui@@YA_NPEBDIAEBUImVec2@@_NH@Z 00000001400dd430 f   imgui.obj
 0002:0001a840       ?BeginChildFrame@ImGui@@YA_NIAEBUImVec2@@H@Z 00000001400dd840 f   imgui.obj
 0002:0001a970       ?BeginDisabled@ImGui@@YAX_N@Z 00000001400dd970 f   imgui.obj
 0002:0001aae0       ?BeginDragDropSource@ImGui@@YA_NH@Z 00000001400ddae0 f   imgui.obj
 0002:0001b050       ?BeginDragDropTarget@ImGui@@YA_NXZ 00000001400de050 f   imgui.obj
 0002:0001b280       ?BeginDragDropTargetCustom@ImGui@@YA_NAEBUImRect@@I@Z 00000001400de280 f   imgui.obj
 0002:0001b460       ?BeginGroup@ImGui@@YAXXZ   00000001400de460 f   imgui.obj
 0002:0001b6d0       ?BeginPopup@ImGui@@YA_NPEBDH@Z 00000001400de6d0 f   imgui.obj
 0002:0001b7b0       ?BeginPopupContextItem@ImGui@@YA_NPEBDH@Z 00000001400de7b0 f   imgui.obj
 0002:0001b910       ?BeginPopupContextVoid@ImGui@@YA_NPEBDH@Z 00000001400de910 f   imgui.obj
 0002:0001ba20       ?BeginPopupContextWindow@ImGui@@YA_NPEBDH@Z 00000001400dea20 f   imgui.obj
 0002:0001bb40       ?BeginPopupEx@ImGui@@YA_NIH@Z 00000001400deb40 f   imgui.obj
 0002:0001bcb0       ?BeginPopupModal@ImGui@@YA_NPEBDPEA_NH@Z 00000001400decb0 f   imgui.obj
 0002:0001be90       ?BeginTooltip@ImGui@@YAXXZ 00000001400dee90 f   imgui.obj
 0002:0001bed0       ?BeginTooltipEx@ImGui@@YAXHH@Z 00000001400deed0 f   imgui.obj
 0002:0001c160       ?BringWindowToDisplayBack@ImGui@@YAXPEAUImGuiWindow@@@Z 00000001400df160 f   imgui.obj
 0002:0001c2e0       ?BringWindowToDisplayBehind@ImGui@@YAXPEAUImGuiWindow@@0@Z 00000001400df2e0 f   imgui.obj
 0002:0001c500       ?BringWindowToDisplayFront@ImGui@@YAXPEAUImGuiWindow@@@Z 00000001400df500 f   imgui.obj
 0002:0001c6d0       ?BringWindowToFocusFront@ImGui@@YAXPEAUImGuiWindow@@@Z 00000001400df6d0 f   imgui.obj
 0002:0001c970       ?Build@ImGuiTextFilter@@QEAAXXZ 00000001400df970 f   imgui.obj
 0002:0001cc00       ?BuildSortByKey@ImGuiStorage@@QEAAXXZ 00000001400dfc00 f   imgui.obj
 0002:0001cc80       ?CalcFontSize@ImGuiWindow@@QEBAMXZ 00000001400dfc80 f i imgui.obj
 0002:0001cd40       ?CalcItemSize@ImGui@@YA?AUImVec2@@U2@MM@Z 00000001400dfd40 f   imgui.obj
 0002:0001cf50       ?CalcItemWidth@ImGui@@YAMXZ 00000001400dff50 f   imgui.obj
 0002:0001d060       ?CalcListClipping@ImGui@@YAXHMPEAH0@Z 00000001400e0060 f   imgui.obj
 0002:0001dda0       ?CalcTextSize@ImGui@@YA?AUImVec2@@PEBD0_NM@Z 00000001400e0da0 f   imgui.obj
 0002:0001df90       ?CalcTypematicRepeatAmount@ImGui@@YAHMMMM@Z 00000001400e0f90 f   imgui.obj
 0002:0001ea20       ?CalcWindowNextAutoFitSize@ImGui@@YA?AUImVec2@@PEAUImGuiWindow@@@Z 00000001400e1a20 f   imgui.obj
 0002:0001eed0       ?CalcWorkRectPos@ImGuiViewportP@@QEBA?AUImVec2@@AEBU2@@Z 00000001400e1ed0 f i imgui.obj
 0002:0001ef80       ?CalcWorkRectSize@ImGuiViewportP@@QEBA?AUImVec2@@AEBU2@0@Z 00000001400e1f80 f i imgui.obj
 0002:0001f080       ?CalcWrapWidthForPos@ImGui@@YAMAEBUImVec2@@M@Z 00000001400e2080 f   imgui.obj
 0002:0001f1b0       ?CallContextHooks@ImGui@@YAXPEAUImGuiContext@@W4ImGuiContextHookType@@@Z 00000001400e21b0 f   imgui.obj
 0002:0001f4f0       ?Clear@?$ImPool@UImGuiTabBar@@@@QEAAXXZ 00000001400e24f0 f i imgui.obj
 0002:0001f600       ?Clear@?$ImPool@UImGuiTable@@@@QEAAXXZ 00000001400e2600 f i imgui.obj
 0002:0001f710       ?Clear@ImDrawData@@QEAAXXZ 00000001400e2710 f i imgui.obj
 0002:0001f770       ?Clear@ImDrawDataBuilder@@QEAAXXZ 00000001400e2770 f i imgui.obj
 0002:0001f800       ?Clear@ImGuiKeyRoutingTable@@QEAAXXZ 00000001400e2800 f i imgui.obj
 0002:0001f8c0       ?Clear@ImGuiNavItemData@@QEAAXXZ 00000001400e28c0 f i imgui.obj
 0002:0001f990       ?Clear@ImGuiPayload@@QEAAXXZ 00000001400e2990 f i imgui.obj
 0002:0001fa70       ?Clear@ImGuiStorage@@QEAAXXZ 00000001400e2a70 f i imgui.obj
 0002:0001fad0       ?ClearActiveID@ImGui@@YAXXZ 00000001400e2ad0 f   imgui.obj
 0002:0001fb10       ?ClearAllBits@?$ImBitArray@$0CIM@$0A@@@QEAAXXZ 00000001400e2b10 f i imgui.obj
 0002:0001fb70       ?ClearDragDrop@ImGui@@YAXXZ 00000001400e2b70 f   imgui.obj
 0002:0001fc70       ?ClearFlags@ImGuiNextWindowData@@QEAAXXZ 00000001400e2c70 f i imgui.obj
 0002:0001fcc0       ?ClearFreeMemory@ImGuiInputTextState@@QEAAXXZ 00000001400e2cc0 f i imgui.obj
 0002:0001fd50       ?ClearIniSettings@ImGui@@YAXXZ 00000001400e2d50 f   imgui.obj
 0002:0001fe50       ?ClearInputCharacters@ImGuiIO@@QEAAXXZ 00000001400e2e50 f   imgui.obj
 0002:0001feb0       ?ClearInputKeys@ImGuiIO@@QEAAXXZ 00000001400e2eb0 f   imgui.obj
 0002:000200f0       ?ClipWith@ImRect@@QEAAXAEBU1@@Z 00000001400e30f0 f i imgui.obj
 0002:00020170       ?ClipWithFull@ImRect@@QEAAXAEBU1@@Z 00000001400e3170 f i imgui.obj
 0002:00020200       ?CloseCurrentPopup@ImGui@@YAXXZ 00000001400e3200 f   imgui.obj
 0002:00020410       ?ClosePopupToLevel@ImGui@@YAXH_N@Z 00000001400e3410 f   imgui.obj
 0002:00020630       ?ClosePopupsExceptModals@ImGui@@YAXXZ 00000001400e3630 f   imgui.obj
 0002:00020700       ?ClosePopupsOverWindow@ImGui@@YAXPEAUImGuiWindow@@_N@Z 00000001400e3700 f   imgui.obj
 0002:00020980       ?ColorConvertFloat4ToU32@ImGui@@YAIAEBUImVec4@@@Z 00000001400e3980 f   imgui.obj
 0002:00020ac0       ?ColorConvertHSVtoRGB@ImGui@@YAXMMMAEAM00@Z 00000001400e3ac0 f   imgui.obj
 0002:00020e90       ?ColorConvertRGBtoHSV@ImGui@@YAXMMMAEAM00@Z 00000001400e3e90 f   imgui.obj
 0002:00021070       ?ColorConvertU32ToFloat4@ImGui@@YA?AUImVec4@@I@Z 00000001400e4070 f   imgui.obj
 0002:00021180       ?CompareWithCurrentState@ImGuiStackSizes@@QEAAXXZ 00000001400e4180 f   imgui.obj
 0002:000214f0       ?Contains@ImRect@@QEBA_NAEBU1@@Z 00000001400e44f0 f i imgui.obj
 0002:00021590       ?Contains@ImRect@@QEBA_NAEBUImVec2@@@Z 00000001400e4590 f i imgui.obj
 0002:00021630       ?ConvertShortcutMod@ImGui@@YAHH@Z 00000001400e4630 f i imgui.obj
 0002:000216c0       ?ConvertSingleModFlagToKey@ImGui@@YA?AW4ImGuiKey@@W42@@Z 00000001400e46c0 f i imgui.obj
 0002:000217c0       ?CreateContext@ImGui@@YAPEAUImGuiContext@@PEAUImFontAtlas@@@Z 00000001400e47c0 f   imgui.obj
 0002:00021ce0       ?CreateNewWindowSettings@ImGui@@YAPEAUImGuiWindowSettings@@PEBD@Z 00000001400e4ce0 f   imgui.obj
 0002:00021eb0       ?DebugCheckVersionAndDataLayout@ImGui@@YA_NPEBD_K11111@Z 00000001400e4eb0 f   imgui.obj
 0002:000221d0       ?DebugHookIdInfo@ImGui@@YAXIHPEBX0@Z 00000001400e51d0 f   imgui.obj
 0002:00022640       ?DebugLocateItem@ImGui@@YAXI@Z 00000001400e5640 f   imgui.obj
 0002:000226b0       ?DebugLocateItemOnHover@ImGui@@YAXI@Z 00000001400e56b0 f   imgui.obj
 0002:00022840       ?DebugLocateItemResolveWithLastItem@ImGui@@YAXXZ 00000001400e5840 f   imgui.obj
 0002:00022b10       ?DebugLog@ImGui@@YAXPEBDZZ 00000001400e5b10 f   imgui.obj
 0002:00022be0       ?DebugLogV@ImGui@@YAXPEBDPEAD@Z 00000001400e5be0 f   imgui.obj
 0002:00022d50       ?DebugNodeColumns@ImGui@@YAXPEAUImGuiOldColumns@@@Z 00000001400e5d50 f   imgui.obj
 0002:00022f30       ?DebugNodeDrawCmdShowMeshAndBoundingBox@ImGui@@YAXPEAUImDrawList@@PEBU2@PEBUImDrawCmd@@_N3@Z 00000001400e5f30 f   imgui.obj
 0002:000233b0       ?DebugNodeDrawList@ImGui@@YAXPEAUImGuiWindow@@PEBUImDrawList@@PEBD@Z 00000001400e63b0 f   imgui.obj
 0002:00023fc0       ?DebugNodeFont@ImGui@@YAXPEAUImFont@@@Z 00000001400e6fc0 f   imgui.obj
 0002:00024990       ?DebugNodeFontGlyph@ImGui@@YAXPEAUImFont@@PEBUImFontGlyph@@@Z 00000001400e7990 f   imgui.obj
 0002:00024b50       ?DebugNodeStorage@ImGui@@YAXPEAUImGuiStorage@@PEBD@Z 00000001400e7b50 f   imgui.obj
 0002:00024c60       ?DebugNodeTabBar@ImGui@@YAXPEAUImGuiTabBar@@PEBD@Z 00000001400e7c60 f   imgui.obj
 0002:00025470       ?DebugNodeViewport@ImGui@@YAXPEAUImGuiViewportP@@@Z 00000001400e8470 f   imgui.obj
 0002:00025760       ?DebugNodeWindow@ImGui@@YAXPEAUImGuiWindow@@PEBD@Z 00000001400e8760 f   imgui.obj
 0002:000263b0       ?DebugNodeWindowSettings@ImGui@@YAXPEAUImGuiWindowSettings@@@Z 00000001400e93b0 f   imgui.obj
 0002:000264d0       ?DebugNodeWindowsList@ImGui@@YAXPEAU?$ImVector@PEAUImGuiWindow@@@@PEBD@Z 00000001400e94d0 f   imgui.obj
 0002:000265d0       ?DebugNodeWindowsListByBeginStackParent@ImGui@@YAXPEAPEAUImGuiWindow@@HPEAU2@@Z 00000001400e95d0 f   imgui.obj
 0002:00026b00       ?DebugRenderKeyboardPreview@ImGui@@YAXPEAUImDrawList@@@Z 00000001400e9b00 f   imgui.obj
 0002:00027440       ?DebugRenderViewportThumbnail@ImGui@@YAXPEAUImDrawList@@PEAUImGuiViewportP@@AEBUImRect@@@Z 00000001400ea440 f   imgui.obj
 0002:00027bb0       ?DebugStartItemPicker@ImGui@@YAXXZ 00000001400eabb0 f i imgui.obj
 0002:00027c00       ?DebugTextEncoding@ImGui@@YAXPEBD@Z 00000001400eac00 f   imgui.obj
 0002:00027ee0       ?DestroyContext@ImGui@@YAXPEAUImGuiContext@@@Z 00000001400eaee0 f   imgui.obj
 0002:00027fb0       ?Draw@ImGuiTextFilter@@QEAA_NPEBDM@Z 00000001400eafb0 f   imgui.obj
 0002:00028090       ?End@ImGui@@YAXXZ          00000001400eb090 f   imgui.obj
 0002:00028370       ?End@ImGuiListClipper@@QEAAXXZ 00000001400eb370 f   imgui.obj
 0002:00028560       ?EndChild@ImGui@@YAXXZ     00000001400eb560 f   imgui.obj
 0002:00028980       ?EndChildFrame@ImGui@@YAXXZ 00000001400eb980 f   imgui.obj
 0002:000289c0       ?EndDisabled@ImGui@@YAXXZ  00000001400eb9c0 f   imgui.obj
 0002:00028b20       ?EndDragDropSource@ImGui@@YAXXZ 00000001400ebb20 f   imgui.obj
 0002:00028c30       ?EndDragDropTarget@ImGui@@YAXXZ 00000001400ebc30 f   imgui.obj
 0002:00028d00       ?EndFrame@ImGui@@YAXXZ     00000001400ebd00 f   imgui.obj
 0002:00029200       ?EndGroup@ImGui@@YAXXZ     00000001400ec200 f   imgui.obj
 0002:00029750       ?EndPopup@ImGui@@YAXXZ     00000001400ec750 f   imgui.obj
 0002:000298c0       ?EndTooltip@ImGui@@YAXXZ   00000001400ec8c0 f   imgui.obj
 0002:00029940       ?ErrorCheckEndFrameRecover@ImGui@@YAXP6AXPEAXPEBDZZ0@Z 00000001400ec940 f   imgui.obj
 0002:00029c70       ?ErrorCheckEndWindowRecover@ImGui@@YAXP6AXPEAXPEBDZZ0@Z 00000001400ecc70 f   imgui.obj
 0002:0002a670       ?ErrorCheckUsingSetCursorPosToExtendParentBoundaries@ImGui@@YAXXZ 00000001400ed670 f   imgui.obj
 0002:0002a750       ?Expand@ImRect@@QEAAXAEBUImVec2@@@Z 00000001400ed750 f i imgui.obj
 0002:0002a7f0       ?Expand@ImRect@@QEAAXM@Z   00000001400ed7f0 f i imgui.obj
 0002:0002ac80       ?FindBestWindowPosForPopup@ImGui@@YA?AUImVec2@@PEAUImGuiWindow@@@Z 00000001400edc80 f   imgui.obj
 0002:0002b2e0       ?FindBestWindowPosForPopupEx@ImGui@@YA?AUImVec2@@AEBU2@0PEAHAEBUImRect@@2W4ImGuiPopupPositionPolicy@@@Z 00000001400ee2e0 f   imgui.obj
 0002:0002bdf0       ?FindBottomMostVisibleWindowWithinBeginStack@ImGui@@YAPEAUImGuiWindow@@PEAU2@@Z 00000001400eedf0 f   imgui.obj
 0002:0002c4b0       ?FindOrCreateWindowSettings@ImGui@@YAPEAUImGuiWindowSettings@@PEBD@Z 00000001400ef4b0 f   imgui.obj
 0002:0002c540       ?FindRenderedTextEnd@ImGui@@YAPEBDPEBD0@Z 00000001400ef540 f   imgui.obj
 0002:0002c620       ?FindSettingsHandler@ImGui@@YAPEAUImGuiSettingsHandler@@PEBD@Z 00000001400ef620 f   imgui.obj
 0002:0002c700       ?FindWindowByID@ImGui@@YAPEAUImGuiWindow@@I@Z 00000001400ef700 f   imgui.obj
 0002:0002c770       ?FindWindowByName@ImGui@@YAPEAUImGuiWindow@@PEBD@Z 00000001400ef770 f   imgui.obj
 0002:0002c7e0       ?FindWindowDisplayIndex@ImGui@@YAHPEAUImGuiWindow@@@Z 00000001400ef7e0 f   imgui.obj
 0002:0002ca80       ?FindWindowSettings@ImGui@@YAPEAUImGuiWindowSettings@@I@Z 00000001400efa80 f   imgui.obj
 0002:0002cb40       ?FlattenIntoSingleLayer@ImDrawDataBuilder@@QEAAXXZ 00000001400efb40 f   imgui.obj
 0002:0002cd20       ?FocusTopMostWindowUnderOne@ImGui@@YAXPEAUImGuiWindow@@0@Z 00000001400efd20 f   imgui.obj
 0002:0002cf00       ?FocusWindow@ImGui@@YAXPEAUImGuiWindow@@@Z 00000001400eff00 f   imgui.obj
 0002:0002d1f0       ?ForceDisplayRangeByIndices@ImGuiListClipper@@QEAAXHH@Z 00000001400f01f0 f   imgui.obj
 0002:0002d330       ?FromIndices@ImGuiListClipperRange@@SA?AU1@HH@Z 00000001400f0330 f i imgui.obj
 0002:0002d3f0       ?FromPositions@ImGuiListClipperRange@@SA?AU1@MMHH@Z 00000001400f03f0 f i imgui.obj
 0002:0002d4c0       ?GcAwakeTransientWindowBuffers@ImGui@@YAXPEAUImGuiWindow@@@Z 00000001400f04c0 f   imgui.obj
 0002:0002d5a0       ?GcCompactTransientMiscBuffers@ImGui@@YAXXZ 00000001400f05a0 f   imgui.obj
 0002:0002d620       ?GcCompactTransientWindowBuffers@ImGui@@YAXPEAUImGuiWindow@@@Z 00000001400f0620 f   imgui.obj
 0002:0002d740       ?GetAliveCount@?$ImPool@UImGuiTabBar@@@@QEBAHXZ 00000001400f0740 f i imgui.obj
 0002:0002d790       ?GetAliveCount@?$ImPool@UImGuiTable@@@@QEBAHXZ 00000001400f0790 f i imgui.obj
 0002:0002d7e0       ?GetAllocatorFunctions@ImGui@@YAXPEAP6APEAX_KPEAX@ZPEAP6AX11@ZPEAPEAX@Z 00000001400f07e0 f   imgui.obj
 0002:0002d870       ?GetBL@ImRect@@QEBA?AUImVec2@@XZ 00000001400f0870 f i imgui.obj
 0002:0002d8c0       ?GetBR@ImRect@@QEBA?AUImVec2@@XZ 00000001400f08c0 f i imgui.obj
 0002:0002d900       ?GetBackgroundDrawList@ImGui@@YAPEAUImDrawList@@PEAUImGuiViewport@@@Z 00000001400f0900 f   imgui.obj
 0002:0002d960       ?GetBackgroundDrawList@ImGui@@YAPEAUImDrawList@@XZ 00000001400f0960 f   imgui.obj
 0002:0002d9d0       ?GetBool@ImGuiStorage@@QEBA_NI_N@Z 00000001400f09d0 f   imgui.obj
 0002:0002da90       ?GetBoolRef@ImGuiStorage@@QEAAPEA_NI_N@Z 00000001400f0a90 f   imgui.obj
 0002:0002db30       ?GetByIndex@?$ImPool@UImGuiTabBar@@@@QEAAPEAUImGuiTabBar@@H@Z 00000001400f0b30 f i imgui.obj
 0002:0002db90       ?GetByIndex@?$ImPool@UImGuiTable@@@@QEAAPEAUImGuiTable@@H@Z 00000001400f0b90 f i imgui.obj
 0002:0002dbf0       ?GetCenter@ImGuiViewport@@QEBA?AUImVec2@@XZ 00000001400f0bf0 f i imgui.obj
 0002:0002dcc0       ?GetClipboardText@ImGui@@YAPEBDXZ 00000001400f0cc0 f   imgui.obj
 0002:0002df00       ?GetColorU32@ImGui@@YAIAEBUImVec4@@@Z 00000001400f0f00 f   imgui.obj
 0002:0002dfe0       ?GetColorU32@ImGui@@YAIHM@Z 00000001400f0fe0 f   imgui.obj
 0002:0002e0f0       ?GetColorU32@ImGui@@YAII@Z 00000001400f10f0 f   imgui.obj
 0002:0002e270       ?GetContentRegionAvail@ImGui@@YA?AUImVec2@@XZ 00000001400f1270 f   imgui.obj
 0002:0002e320       ?GetContentRegionMax@ImGui@@YA?AUImVec2@@XZ 00000001400f1320 f   imgui.obj
 0002:0002e450       ?GetContentRegionMaxAbs@ImGui@@YA?AUImVec2@@XZ 00000001400f1450 f   imgui.obj
 0002:0002e560       ?GetCurrentContext@ImGui@@YAPEAUImGuiContext@@XZ 00000001400f1560 f   imgui.obj
 0002:0002e5a0       ?GetCurrentWindow@ImGui@@YAPEAUImGuiWindow@@XZ 00000001400f15a0 f i imgui.obj
 0002:0002e610       ?GetCurrentWindowRead@ImGui@@YAPEAUImGuiWindow@@XZ 00000001400f1610 f i imgui.obj
 0002:0002e660       ?GetCursorPos@ImGui@@YA?AUImVec2@@XZ 00000001400f1660 f   imgui.obj
 0002:0002e720       ?GetCursorPosX@ImGui@@YAMXZ 00000001400f1720 f   imgui.obj
 0002:0002e790       ?GetCursorPosY@ImGui@@YAMXZ 00000001400f1790 f   imgui.obj
 0002:0002e800       ?GetCursorScreenPos@ImGui@@YA?AUImVec2@@XZ 00000001400f1800 f   imgui.obj
 0002:0002e870       ?GetCursorStartPos@ImGui@@YA?AUImVec2@@XZ 00000001400f1870 f   imgui.obj
 0002:0002e900       ?GetDefaultFont@ImGui@@YAPEAUImFont@@XZ 00000001400f1900 f i imgui.obj
 0002:0002e9a0       ?GetDragDropPayload@ImGui@@YAPEBUImGuiPayload@@XZ 00000001400f19a0 f   imgui.obj
 0002:0002ea30       ?GetDrawData@ImGui@@YAPEAUImDrawData@@XZ 00000001400f1a30 f   imgui.obj
 0002:0002ead0       ?GetDrawListCount@ImDrawDataBuilder@@QEBAHXZ 00000001400f1ad0 f i imgui.obj
 0002:0002eb60       ?GetDrawListSharedData@ImGui@@YAPEAUImDrawListSharedData@@XZ 00000001400f1b60 f   imgui.obj
 0002:0002ec60       ?GetFloat@ImGuiStorage@@QEBAMIM@Z 00000001400f1c60 f   imgui.obj
 0002:0002ed10       ?GetFloatRef@ImGuiStorage@@QEAAPEAMIM@Z 00000001400f1d10 f   imgui.obj
 0002:0002edf0       ?GetFont@ImGui@@YAPEAUImFont@@XZ 00000001400f1df0 f   imgui.obj
 0002:0002ee40       ?GetFontSize@ImGui@@YAMXZ  00000001400f1e40 f   imgui.obj
 0002:0002ee90       ?GetFontTexUvWhitePixel@ImGui@@YA?AUImVec2@@XZ 00000001400f1e90 f   imgui.obj
 0002:0002ef00       ?GetForegroundDrawList@ImGui@@YAPEAUImDrawList@@PEAUImGuiViewport@@@Z 00000001400f1f00 f   imgui.obj
 0002:0002ef60       ?GetForegroundDrawList@ImGui@@YAPEAUImDrawList@@PEAUImGuiWindow@@@Z 00000001400f1f60 f i imgui.obj
 0002:0002efb0       ?GetForegroundDrawList@ImGui@@YAPEAUImDrawList@@XZ 00000001400f1fb0 f   imgui.obj
 0002:0002f020       ?GetFrameCount@ImGui@@YAHXZ 00000001400f2020 f   imgui.obj
 0002:0002f060       ?GetFrameHeight@ImGui@@YAMXZ 00000001400f2060 f   imgui.obj
 0002:0002f0d0       ?GetFrameHeightWithSpacing@ImGui@@YAMXZ 00000001400f20d0 f   imgui.obj
 0002:0002f150       ?GetHeight@ImRect@@QEBAMXZ 00000001400f2150 f i imgui.obj
 0002:0002f180       ?GetHoveredID@ImGui@@YAIXZ 00000001400f2180 f   imgui.obj
 0002:0002f200       ?GetID@ImGui@@YAIPEBD0@Z   00000001400f2200 f   imgui.obj
 0002:0002f280       ?GetID@ImGui@@YAIPEBD@Z    00000001400f2280 f   imgui.obj
 0002:0002f2f0       ?GetID@ImGui@@YAIPEBX@Z    00000001400f22f0 f   imgui.obj
 0002:0002f360       ?GetID@ImGuiWindow@@QEAAIH@Z 00000001400f2360 f   imgui.obj
 0002:0002f430       ?GetID@ImGuiWindow@@QEAAIPEBD0@Z 00000001400f2430 f   imgui.obj
 0002:0002f550       ?GetID@ImGuiWindow@@QEAAIPEBX@Z 00000001400f2550 f   imgui.obj
 0002:0002f620       ?GetIDFromRectangle@ImGuiWindow@@QEAAIAEBUImRect@@@Z 00000001400f2620 f   imgui.obj
 0002:0002f710       ?GetIDWithSeed@ImGui@@YAIPEBD0I@Z 00000001400f2710 f   imgui.obj
 0002:0002f810       ?GetIO@ImGui@@YAAEAUImGuiIO@@XZ 00000001400f2810 f   imgui.obj
 0002:0002f9b0       ?GetInt@ImGuiStorage@@QEBAHIH@Z 00000001400f29b0 f   imgui.obj
 0002:0002fa60       ?GetIntRef@ImGuiStorage@@QEAAPEAHIH@Z 00000001400f2a60 f   imgui.obj
 0002:0002fb40       ?GetItemID@ImGui@@YAIXZ    00000001400f2b40 f   imgui.obj
 0002:0002fb90       ?GetItemRectMax@ImGui@@YA?AUImVec2@@XZ 00000001400f2b90 f   imgui.obj
 0002:0002fc00       ?GetItemRectMin@ImGui@@YA?AUImVec2@@XZ 00000001400f2c00 f   imgui.obj
 0002:0002fc70       ?GetItemRectSize@ImGui@@YA?AUImVec2@@XZ 00000001400f2c70 f   imgui.obj
 0002:0002fcf0       ?GetKeyChordName@ImGui@@YAXHPEADH@Z 00000001400f2cf0 f   imgui.obj
 0002:0002ff00       ?GetKeyData@ImGui@@YAPEAUImGuiKeyData@@W4ImGuiKey@@@Z 00000001400f2f00 f   imgui.obj
 0002:00030050       ?GetKeyIndex@ImGui@@YA?AW4ImGuiKey@@W42@@Z 00000001400f3050 f   imgui.obj
 0002:00030110       ?GetKeyMagnitude2d@ImGui@@YA?AUImVec2@@W4ImGuiKey@@000@Z 00000001400f3110 f   imgui.obj
 0002:00030210       ?GetKeyName@ImGui@@YAPEBDW4ImGuiKey@@@Z 00000001400f3210 f   imgui.obj
 0002:00030390       ?GetKeyOwner@ImGui@@YAIW4ImGuiKey@@@Z 00000001400f3390 f   imgui.obj
 0002:00030480       ?GetKeyOwnerData@ImGui@@YAPEAUImGuiKeyOwnerData@@W4ImGuiKey@@@Z 00000001400f3480 f i imgui.obj
 0002:00030550       ?GetKeyPressedAmount@ImGui@@YAHW4ImGuiKey@@MM@Z 00000001400f3550 f   imgui.obj
 0002:00030620       ?GetMainRect@ImGuiViewportP@@QEBA?AUImRect@@XZ 00000001400f3620 f i imgui.obj
 0002:000306f0       ?GetMainViewport@ImGui@@YAPEAUImGuiViewport@@XZ 00000001400f36f0 f   imgui.obj
 0002:00030750       ?GetMapSize@?$ImPool@UImGuiTabBar@@@@QEBAHXZ 00000001400f3750 f i imgui.obj
 0002:000307a0       ?GetMapSize@?$ImPool@UImGuiTable@@@@QEBAHXZ 00000001400f37a0 f i imgui.obj
 0002:000308c0       ?GetMouseClickedCount@ImGui@@YAHH@Z 00000001400f38c0 f   imgui.obj
 0002:00030970       ?GetMouseCursor@ImGui@@YAHXZ 00000001400f3970 f   imgui.obj
 0002:000309c0       ?GetMouseDragDelta@ImGui@@YA?AUImVec2@@HM@Z 00000001400f39c0 f   imgui.obj
 0002:00030bb0       ?GetMousePos@ImGui@@YA?AUImVec2@@XZ 00000001400f3bb0 f   imgui.obj
 0002:00030c20       ?GetMousePosOnOpeningCurrentPopup@ImGui@@YA?AUImVec2@@XZ 00000001400f3c20 f   imgui.obj
 0002:00030cf0       ?GetName@ImGuiWindowSettings@@QEAAPEADXZ 00000001400f3cf0 f i imgui.obj
 0002:00030d40       ?GetNavTweakPressedAmount@ImGui@@YAMW4ImGuiAxis@@@Z 00000001400f3d40 f   imgui.obj
 0002:00030f90       ?GetPopupAllowedExtentRect@ImGui@@YA?AUImRect@@PEAUImGuiWindow@@@Z 00000001400f3f90 f   imgui.obj
 0002:00031550       ?GetScrollMaxX@ImGui@@YAMXZ 00000001400f4550 f   imgui.obj
 0002:000315b0       ?GetScrollMaxY@ImGui@@YAMXZ 00000001400f45b0 f   imgui.obj
 0002:00031610       ?GetScrollX@ImGui@@YAMXZ   00000001400f4610 f   imgui.obj
 0002:00031670       ?GetScrollY@ImGui@@YAMXZ   00000001400f4670 f   imgui.obj
 0002:000316d0       ?GetShortcutRoutingData@ImGui@@YAPEAUImGuiKeyRoutingData@@H@Z 00000001400f46d0 f   imgui.obj
 0002:00031920       ?GetSize@ImRect@@QEBA?AUImVec2@@XZ 00000001400f4920 f i imgui.obj
 0002:00031a20       ?GetStateStorage@ImGui@@YAPEAUImGuiStorage@@XZ 00000001400f4a20 f   imgui.obj
 0002:00031a80       ?GetStyle@ImGui@@YAAEAUImGuiStyle@@XZ 00000001400f4a80 f   imgui.obj
 0002:00031b10       ?GetStyleColorName@ImGui@@YAPEBDH@Z 00000001400f4b10 f   imgui.obj
 0002:00031fd0       ?GetStyleColorVec4@ImGui@@YAAEBUImVec4@@H@Z 00000001400f4fd0 f   imgui.obj
 0002:00032790       ?GetTextLineHeight@ImGui@@YAMXZ 00000001400f5790 f   imgui.obj
 0002:000327e0       ?GetTextLineHeightWithSpacing@ImGui@@YAMXZ 00000001400f57e0 f   imgui.obj
 0002:00032840       ?GetTime@ImGui@@YANXZ      00000001400f5840 f   imgui.obj
 0002:00032890       ?GetTopMostAndVisiblePopupModal@ImGui@@YAPEAUImGuiWindow@@XZ 00000001400f5890 f   imgui.obj
 0002:00032960       ?GetTopMostPopupModal@ImGui@@YAPEAUImGuiWindow@@XZ 00000001400f5960 f   imgui.obj
 0002:00032a10       ?GetTypematicRepeatRate@ImGui@@YAXHPEAM0@Z 00000001400f5a10 f   imgui.obj
 0002:00032b70       ?GetVarPtr@ImGuiStyleVarInfo@@QEBAPEAXPEAUImGuiStyle@@@Z 00000001400f5b70 f i imgui.obj
 0002:00032be0       ?GetVersion@ImGui@@YAPEBDXZ 00000001400f5be0 f   imgui.obj
 0002:00032ea0       ?GetVoidPtr@ImGuiStorage@@QEBAPEAXI@Z 00000001400f5ea0 f   imgui.obj
 0002:00032f40       ?GetVoidPtrRef@ImGuiStorage@@QEAAPEAPEAXIPEAX@Z 00000001400f5f40 f   imgui.obj
 0002:00033020       ?GetWidth@ImRect@@QEBAMXZ  00000001400f6020 f i imgui.obj
 0002:000330e0       ?GetWindowContentRegionMax@ImGui@@YA?AUImVec2@@XZ 00000001400f60e0 f   imgui.obj
 0002:00033170       ?GetWindowContentRegionMin@ImGui@@YA?AUImVec2@@XZ 00000001400f6170 f   imgui.obj
 0002:00033280       ?GetWindowDrawList@ImGui@@YAPEAUImDrawList@@XZ 00000001400f6280 f   imgui.obj
 0002:000332d0       ?GetWindowHeight@ImGui@@YAMXZ 00000001400f62d0 f   imgui.obj
 0002:00033330       ?GetWindowPos@ImGui@@YA?AUImVec2@@XZ 00000001400f6330 f   imgui.obj
 0002:00033790       ?GetWindowResizeBorderID@ImGui@@YAIPEAUImGuiWindow@@H@Z 00000001400f6790 f   imgui.obj
 0002:000338b0       ?GetWindowResizeCornerID@ImGui@@YAIPEAUImGuiWindow@@H@Z 00000001400f68b0 f   imgui.obj
 0002:00033990       ?GetWindowSize@ImGui@@YA?AUImVec2@@XZ 00000001400f6990 f   imgui.obj
 0002:00033a00       ?GetWindowWidth@ImGui@@YAMXZ 00000001400f6a00 f   imgui.obj
 0002:00033a60       ?GetWorkRect@ImGuiViewportP@@QEBA?AUImRect@@XZ 00000001400f6a60 f i imgui.obj
 0002:00033b60       ?ImAlphaBlendColors@@YAIII@Z 00000001400f6b60 f   imgui.obj
 0002:00033c90       ?ImBezierCubicClosestPoint@@YA?AUImVec2@@AEBU1@0000H@Z 00000001400f6c90 f   imgui.obj
 0002:00033f00       ?ImBezierCubicClosestPointCasteljau@@YA?AUImVec2@@AEBU1@0000M@Z 00000001400f6f00 f   imgui.obj
 0002:000347d0       ?ImBitArraySetBit@@YAXPEAIH@Z 00000001400f77d0 f i imgui.obj
 0002:00034a40       ?ImFileClose@@YA_NPEAU_iobuf@@@Z 00000001400f7a40 f   imgui.obj
 0002:00034ac0       ?ImFileGetSize@@YA_KPEAU_iobuf@@@Z 00000001400f7ac0 f   imgui.obj
 0002:00034bb0       ?ImFileLoadToMemory@@YAPEAXPEBD0PEA_KH@Z 00000001400f7bb0 f   imgui.obj
 0002:00034da0       ?ImFileOpen@@YAPEAU_iobuf@@PEBD0@Z 00000001400f7da0 f   imgui.obj
 0002:00034fb0       ?ImFileRead@@YA_KPEAX_K1PEAU_iobuf@@@Z 00000001400f7fb0 f   imgui.obj
 0002:00035030       ?ImFileWrite@@YA_KPEBX_K1PEAU_iobuf@@@Z 00000001400f8030 f   imgui.obj
 0002:00035210       ?ImFormatString@@YAHPEAD_KPEBDZZ 00000001400f8210 f   imgui.obj
 0002:00035340       ?ImFormatStringToTempBuffer@@YAXPEAPEBD0PEBDZZ 00000001400f8340 f   imgui.obj
 0002:00035590       ?ImFormatStringToTempBufferV@@YAXPEAPEBD0PEBDPEAD@Z 00000001400f8590 f   imgui.obj
 0002:000357a0       ?ImFormatStringV@@YAHPEAD_KPEBD0@Z 00000001400f87a0 f   imgui.obj
 0002:00035870       ?ImGetDirQuadrantFromDelta@@YAHMM@Z 00000001400f8870 f   imgui.obj
 0002:00036d20       ?ImHashData@@YAIPEBX_KI@Z  00000001400f9d20 f   imgui.obj
 0002:00036e40       ?ImHashStr@@YAIPEBD_KI@Z   00000001400f9e40 f   imgui.obj
 0002:00037290       ?ImLineClosestPoint@@YA?AUImVec2@@AEBU1@00@Z 00000001400fa290 f   imgui.obj
 0002:00037700       ?ImStrSkipBlank@@YAPEBDPEBD@Z 00000001400fa700 f   imgui.obj
 0002:000377a0       ?ImStrTrimBlanks@@YAXPEAD@Z 00000001400fa7a0 f   imgui.obj
 0002:00037910       ?ImStrbolW@@YAPEBGPEBG0@Z  00000001400fa910 f   imgui.obj
 0002:000379b0       ?ImStrchrRange@@YAPEBDPEBD0D@Z 00000001400fa9b0 f   imgui.obj
 0002:00037a40       ?ImStrdup@@YAPEADPEBD@Z    00000001400faa40 f   imgui.obj
 0002:00037ad0       ?ImStrdupcpy@@YAPEADPEADPEA_KPEBD@Z 00000001400faad0 f   imgui.obj
 0002:00037bf0       ?ImStreolRange@@YAPEBDPEBD0@Z 00000001400fabf0 f   imgui.obj
 0002:00037cb0       ?ImStricmp@@YAHPEBD0@Z     00000001400facb0 f   imgui.obj
 0002:00037d90       ?ImStristr@@YAPEBDPEBD000@Z 00000001400fad90 f   imgui.obj
 0002:00037f70       ?ImStrlenW@@YAHPEBG@Z      00000001400faf70 f   imgui.obj
 0002:00038010       ?ImStrncpy@@YAXPEADPEBD_K@Z 00000001400fb010 f   imgui.obj
 0002:000380c0       ?ImStrnicmp@@YAHPEBD0_K@Z  00000001400fb0c0 f   imgui.obj
 0002:000381d0       ?ImTextCharFromUtf8@@YAHPEAIPEBD1@Z 00000001400fb1d0 f   imgui.obj
 0002:000386c0       ?ImTextCharToUtf8@@YAPEBDQEADI@Z 00000001400fb6c0 f   imgui.obj
 0002:00038920       ?ImTextCountCharsFromUtf8@@YAHPEBD0@Z 00000001400fb920 f   imgui.obj
 0002:00038a40       ?ImTextCountUtf8BytesFromChar@@YAHPEBD0@Z 00000001400fba40 f   imgui.obj
 0002:00038aa0       ?ImTextCountUtf8BytesFromStr@@YAHPEBG0@Z 00000001400fbaa0 f   imgui.obj
 0002:00038b40       ?ImTextStrFromUtf8@@YAHPEAGHPEBD1PEAPEBD@Z 00000001400fbb40 f   imgui.obj
 0002:00038c90       ?ImTextStrToUtf8@@YAHPEADHPEBG1@Z 00000001400fbc90 f   imgui.obj
 0002:00038e40       ?ImTriangleArea@@YAMAEBUImVec2@@00@Z 00000001400fbe40 f i imgui.obj
 0002:00038f50       ?ImTriangleBarycentricCoords@@YAXAEBUImVec2@@000AEAM11@Z 00000001400fbf50 f   imgui.obj
 0002:00039100       ?ImTriangleClosestPoint@@YA?AUImVec2@@AEBU1@000@Z 00000001400fc100 f   imgui.obj
 0002:00039350       ?ImTriangleContainsPoint@@YA_NAEBUImVec2@@000@Z 00000001400fc350 f   imgui.obj
 0002:00039600       ?Indent@ImGui@@YAXM@Z      00000001400fc600 f   imgui.obj
 0002:00039700       ?Initialize@ImGui@@YAXXZ   00000001400fc700 f   imgui.obj
 0002:00039980       ?IsActiveIdUsingNavDir@ImGui@@YA_NH@Z 00000001400fc980 f i imgui.obj
 0002:00039a30       ?IsAliasKey@ImGui@@YA_NW4ImGuiKey@@@Z 00000001400fca30 f i imgui.obj
 0002:00039ab0       ?IsAnyItemActive@ImGui@@YA_NXZ 00000001400fcab0 f   imgui.obj
 0002:00039b30       ?IsAnyItemFocused@ImGui@@YA_NXZ 00000001400fcb30 f   imgui.obj
 0002:00039bc0       ?IsAnyItemHovered@ImGui@@YA_NXZ 00000001400fcbc0 f   imgui.obj
 0002:00039c50       ?IsAnyMouseDown@ImGui@@YA_NXZ 00000001400fcc50 f   imgui.obj
 0002:00039cd0       ?IsBuilt@ImFontAtlas@@QEBA_NXZ 00000001400fccd0 f i imgui.obj
 0002:00039d60       ?IsClippedEx@ImGui@@YA_NAEBUImRect@@I@Z 00000001400fcd60 f   imgui.obj
 0002:00039e50       ?IsDataType@ImGuiPayload@@QEBA_NPEBD@Z 00000001400fce50 f i imgui.obj
 0002:00039f00       ?IsDragDropActive@ImGui@@YA_NXZ 00000001400fcf00 f   imgui.obj
 0002:00039f50       ?IsDragDropPayloadBeingAccepted@ImGui@@YA_NXZ 00000001400fcf50 f   imgui.obj
 0002:00039fe0       ?IsGamepadKey@ImGui@@YA_NW4ImGuiKey@@@Z 00000001400fcfe0 f i imgui.obj
 0002:0003a060       ?IsInverted@ImRect@@QEBA_NXZ 00000001400fd060 f i imgui.obj
 0002:0003a0c0       ?IsItemActivated@ImGui@@YA_NXZ 00000001400fd0c0 f   imgui.obj
 0002:0003a150       ?IsItemActive@ImGui@@YA_NXZ 00000001400fd150 f   imgui.obj
 0002:0003a1f0       ?IsItemClicked@ImGui@@YA_NH@Z 00000001400fd1f0 f   imgui.obj
 0002:0003a280       ?IsItemDeactivated@ImGui@@YA_NXZ 00000001400fd280 f   imgui.obj
 0002:0003a380       ?IsItemDeactivatedAfterEdit@ImGui@@YA_NXZ 00000001400fd380 f   imgui.obj
 0002:0003a430       ?IsItemEdited@ImGui@@YA_NXZ 00000001400fd430 f   imgui.obj
 0002:0003a4b0       ?IsItemFocused@ImGui@@YA_NXZ 00000001400fd4b0 f   imgui.obj
 0002:0003a520       ?IsItemHovered@ImGui@@YA_NH@Z 00000001400fd520 f   imgui.obj
 0002:0003a910       ?IsItemToggledOpen@ImGui@@YA_NXZ 00000001400fd910 f   imgui.obj
 0002:0003a980       ?IsItemToggledSelection@ImGui@@YA_NXZ 00000001400fd980 f   imgui.obj
 0002:0003a9f0       ?IsItemVisible@ImGui@@YA_NXZ 00000001400fd9f0 f   imgui.obj
 0002:0003aa70       ?IsKeyDown@ImGui@@YA_NW4ImGuiKey@@@Z 00000001400fda70 f   imgui.obj
 0002:0003aac0       ?IsKeyDown@ImGui@@YA_NW4ImGuiKey@@I@Z 00000001400fdac0 f   imgui.obj
 0002:0003ab50       ?IsKeyPressed@ImGui@@YA_NW4ImGuiKey@@IH@Z 00000001400fdb50 f   imgui.obj
 0002:0003ad70       ?IsKeyPressed@ImGui@@YA_NW4ImGuiKey@@_N@Z 00000001400fdd70 f   imgui.obj
 0002:0003ae00       ?IsKeyReleased@ImGui@@YA_NW4ImGuiKey@@@Z 00000001400fde00 f   imgui.obj
 0002:0003ae50       ?IsKeyReleased@ImGui@@YA_NW4ImGuiKey@@I@Z 00000001400fde50 f   imgui.obj
 0002:0003aef0       ?IsLegacyKey@ImGui@@YA_NW4ImGuiKey@@@Z 00000001400fdef0 f i imgui.obj
 0002:0003b000       ?IsLoaded@ImFont@@QEBA_NXZ 00000001400fe000 f i imgui.obj
 0002:0003b080       ?IsMouseClicked@ImGui@@YA_NHIH@Z 00000001400fe080 f   imgui.obj
 0002:0003b2b0       ?IsMouseClicked@ImGui@@YA_NH_N@Z 00000001400fe2b0 f   imgui.obj
 0002:0003b340       ?IsMouseDoubleClicked@ImGui@@YA_NH@Z 00000001400fe340 f   imgui.obj
 0002:0003b440       ?IsMouseDown@ImGui@@YA_NH@Z 00000001400fe440 f   imgui.obj
 0002:0003b530       ?IsMouseDown@ImGui@@YA_NHI@Z 00000001400fe530 f   imgui.obj
 0002:0003b630       ?IsMouseDragPastThreshold@ImGui@@YA_NHM@Z 00000001400fe630 f   imgui.obj
 0002:0003b740       ?IsMouseDragging@ImGui@@YA_NHM@Z 00000001400fe740 f   imgui.obj
 0002:0003b810       ?IsMouseHoveringRect@ImGui@@YA_NAEBUImVec2@@0_N@Z 00000001400fe810 f   imgui.obj
 0002:0003b9a0       ?IsMousePosValid@ImGui@@YA_NPEBUImVec2@@@Z 00000001400fe9a0 f   imgui.obj
 0002:0003bb10       ?IsMouseReleased@ImGui@@YA_NH@Z 00000001400feb10 f   imgui.obj
 0002:0003bc00       ?IsMouseReleased@ImGui@@YA_NHI@Z 00000001400fec00 f   imgui.obj
 0002:0003bd00       ?IsNamedKey@ImGui@@YA_NW4ImGuiKey@@@Z 00000001400fed00 f i imgui.obj
 0002:0003bd80       ?IsNamedKeyOrModKey@ImGui@@YA_NW4ImGuiKey@@@Z 00000001400fed80 f i imgui.obj
 0002:0003be50       ?IsPopupOpen@ImGui@@YA_NIH@Z 00000001400fee50 f   imgui.obj
 0002:0003c070       ?IsPopupOpen@ImGui@@YA_NPEBDH@Z 00000001400ff070 f   imgui.obj
 0002:0003c180       ?IsRectVisible@ImGui@@YA_NAEBUImVec2@@0@Z 00000001400ff180 f   imgui.obj
 0002:0003c220       ?IsRectVisible@ImGui@@YA_NAEBUImVec2@@@Z 00000001400ff220 f   imgui.obj
 0002:0003c2e0       ?IsWindowAbove@ImGui@@YA_NPEAUImGuiWindow@@0@Z 00000001400ff2e0 f   imgui.obj
 0002:0003c4b0       ?IsWindowAppearing@ImGui@@YA_NXZ 00000001400ff4b0 f   imgui.obj
 0002:0003c500       ?IsWindowChildOf@ImGui@@YA_NPEAUImGuiWindow@@0_N@Z 00000001400ff500 f   imgui.obj
 0002:0003c5e0       ?IsWindowCollapsed@ImGui@@YA_NXZ 00000001400ff5e0 f   imgui.obj
 0002:0003c770       ?IsWindowFocused@ImGui@@YA_NH@Z 00000001400ff770 f   imgui.obj
 0002:0003c900       ?IsWindowHovered@ImGui@@YA_NH@Z 00000001400ff900 f   imgui.obj
 0002:0003cb50       ?IsWindowNavFocusable@ImGui@@YA_NPEAUImGuiWindow@@@Z 00000001400ffb50 f   imgui.obj
 0002:0003cc00       ?IsWindowWithinBeginStackOf@ImGui@@YA_NPEAUImGuiWindow@@0@Z 00000001400ffc00 f   imgui.obj
 0002:0003ccb0       ?ItemAdd@ImGui@@YA_NAEBUImRect@@IPEBU2@H@Z 00000001400ffcb0 f   imgui.obj
 0002:0003d080       ?ItemHoverable@ImGui@@YA_NAEBUImRect@@I@Z 0000000140100080 f   imgui.obj
 0002:0003d390       ?ItemSize@ImGui@@YAXAEBUImVec2@@M@Z 0000000140100390 f   imgui.obj
 0002:0003d700       ?KeepAliveID@ImGui@@YAXI@Z 0000000140100700 f   imgui.obj
 0002:0003d7a0       ?LoadIniSettingsFromDisk@ImGui@@YAXPEBD@Z 00000001401007a0 f   imgui.obj
 0002:0003d880       ?LoadIniSettingsFromMemory@ImGui@@YAXPEBD_K@Z 0000000140100880 f   imgui.obj
 0002:0003dea0       ?LocalizeGetMsg@ImGui@@YAPEBDW4ImGuiLocKey@@@Z 0000000140100ea0 f i imgui.obj
 0002:0003df40       ?LocalizeRegisterEntries@ImGui@@YAXPEBUImGuiLocEntry@@H@Z 0000000140100f40 f   imgui.obj
 0002:0003e1d0       ?LogBegin@ImGui@@YAXW4ImGuiLogType@@H@Z 00000001401011d0 f   imgui.obj
 0002:0003e3d0       ?LogButtons@ImGui@@YAXXZ   00000001401013d0 f   imgui.obj
 0002:0003e590       ?LogFinish@ImGui@@YAXXZ    0000000140101590 f   imgui.obj
 0002:0003e730       ?LogRenderedText@ImGui@@YAXPEBUImVec2@@PEBD1@Z 0000000140101730 f   imgui.obj
 0002:0003eb50       ?LogSetNextTextDecoration@ImGui@@YAXPEBD0@Z 0000000140101b50 f   imgui.obj
 0002:0003ebd0       ?LogText@ImGui@@YAXPEBDZZ  0000000140101bd0 f   imgui.obj
 0002:0003ee10       ?LogTextV@ImGui@@YAXPEBDPEAD@Z 0000000140101e10 f   imgui.obj
 0002:0003eea0       ?LogToBuffer@ImGui@@YAXH@Z 0000000140101ea0 f   imgui.obj
 0002:0003ef20       ?LogToClipboard@ImGui@@YAXH@Z 0000000140101f20 f   imgui.obj
 0002:0003efa0       ?LogToFile@ImGui@@YAXHPEBD@Z 0000000140101fa0 f   imgui.obj
 0002:0003f0e0       ?LogToTTY@ImGui@@YAXH@Z    00000001401020e0 f   imgui.obj
 0002:0003f2b0       ?MarkIniSettingsDirty@ImGui@@YAXPEAUImGuiWindow@@@Z 00000001401022b0 f   imgui.obj
 0002:0003f350       ?MarkIniSettingsDirty@ImGui@@YAXXZ 0000000140102350 f   imgui.obj
 0002:0003f3c0       ?MarkItemEdited@ImGui@@YAXI@Z 00000001401023c0 f   imgui.obj
 0002:0003f4b0       ?MemAlloc@ImGui@@YAPEAX_K@Z 00000001401024b0 f   imgui.obj
 0002:0003f540       ?MemFree@ImGui@@YAXPEAX@Z  0000000140102540 f   imgui.obj
 0002:0003f5e0       ?MenuBarHeight@ImGuiWindow@@QEBAMXZ 00000001401025e0 f i imgui.obj
 0002:0003f6c0       ?MenuBarRect@ImGuiWindow@@QEBA?AUImRect@@XZ 00000001401026c0 f i imgui.obj
 0002:0003f850       ?MouseButtonToKey@ImGui@@YA?AW4ImGuiKey@@H@Z 0000000140102850 f i imgui.obj
 0002:0003ffb0       ?NavInitRequestApplyResult@ImGui@@YAXXZ 0000000140102fb0 f   imgui.obj
 0002:000400c0       ?NavInitWindow@ImGui@@YAXPEAUImGuiWindow@@_N@Z 00000001401030c0 f   imgui.obj
 0002:00040350       ?NavMoveRequestApplyResult@ImGui@@YAXXZ 0000000140103350 f   imgui.obj
 0002:00040980       ?NavMoveRequestButNoResultYet@ImGui@@YA_NXZ 0000000140103980 f   imgui.obj
 0002:00040a20       ?NavMoveRequestCancel@ImGui@@YAXXZ 0000000140103a20 f   imgui.obj
 0002:00040a90       ?NavMoveRequestForward@ImGui@@YAXHHHH@Z 0000000140103a90 f   imgui.obj
 0002:00040ba0       ?NavMoveRequestResolveWithLastItem@ImGui@@YAXPEAUImGuiNavItemData@@@Z 0000000140103ba0 f   imgui.obj
 0002:00040c20       ?NavMoveRequestSubmit@ImGui@@YAXHHHH@Z 0000000140103c20 f   imgui.obj
 0002:00040e00       ?NavMoveRequestTryWrapping@ImGui@@YAXPEAUImGuiWindow@@H@Z 0000000140103e00 f   imgui.obj
 0002:00046560       ?NewFrame@ImGui@@YAXXZ     0000000140109560 f   imgui.obj
 0002:00047870       ?OpenPopup@ImGui@@YAXIH@Z  000000014010a870 f   imgui.obj
 0002:000478d0       ?OpenPopup@ImGui@@YAXPEBDH@Z 000000014010a8d0 f   imgui.obj
 0002:000479a0       ?OpenPopupEx@ImGui@@YAXIH@Z 000000014010a9a0 f   imgui.obj
 0002:00047c90       ?OpenPopupOnItemClick@ImGui@@YAXPEBDH@Z 000000014010ac90 f   imgui.obj
 0002:00047dd0       ?Overlaps@ImRect@@QEBA_NAEBU1@@Z 000000014010add0 f i imgui.obj
 0002:00047f00       ?PassFilter@ImGuiTextFilter@@QEBA_NPEBD0@Z 000000014010af00 f   imgui.obj
 0002:000480c0       ?PathFillConvex@ImDrawList@@QEAAXI@Z 000000014010b0c0 f i imgui.obj
 0002:00048150       ?PathLineTo@ImDrawList@@QEAAXAEBUImVec2@@@Z 000000014010b150 f i imgui.obj
 0002:000481c0       ?PathStroke@ImDrawList@@QEAAXIHM@Z 000000014010b1c0 f i imgui.obj
 0002:00048280       ?PopAllowKeyboardFocus@ImGui@@YAXXZ 000000014010b280 f   imgui.obj
 0002:000482c0       ?PopButtonRepeat@ImGui@@YAXXZ 000000014010b2c0 f   imgui.obj
 0002:00048300       ?PopClipRect@ImGui@@YAXXZ  000000014010b300 f   imgui.obj
 0002:000483b0       ?PopFocusScope@ImGui@@YAXXZ 000000014010b3b0 f   imgui.obj
 0002:000484a0       ?PopFont@ImGui@@YAXXZ      000000014010b4a0 f   imgui.obj
 0002:00048580       ?PopID@ImGui@@YAXXZ        000000014010b580 f   imgui.obj
 0002:00048620       ?PopItemFlag@ImGui@@YAXXZ  000000014010b620 f   imgui.obj
 0002:000486e0       ?PopItemWidth@ImGui@@YAXXZ 000000014010b6e0 f   imgui.obj
 0002:00048760       ?PopStyleColor@ImGui@@YAXH@Z 000000014010b760 f   imgui.obj
 0002:000488b0       ?PopStyleVar@ImGui@@YAXH@Z 000000014010b8b0 f   imgui.obj
 0002:00048ad0       ?PopTextWrapPos@ImGui@@YAXXZ 000000014010bad0 f   imgui.obj
 0002:00048b50       ?PushAllowKeyboardFocus@ImGui@@YAX_N@Z 000000014010bb50 f   imgui.obj
 0002:00048bd0       ?PushButtonRepeat@ImGui@@YAX_N@Z 000000014010bbd0 f   imgui.obj
 0002:00048c30       ?PushClipRect@ImGui@@YAXAEBUImVec2@@0_N@Z 000000014010bc30 f   imgui.obj
 0002:00048d10       ?PushFocusScope@ImGui@@YAXI@Z 000000014010bd10 f   imgui.obj
 0002:00048d90       ?PushFont@ImGui@@YAXPEAUImFont@@@Z 000000014010bd90 f   imgui.obj
 0002:00048e60       ?PushID@ImGui@@YAXH@Z      000000014010be60 f   imgui.obj
 0002:00048f30       ?PushID@ImGui@@YAXPEBD0@Z  000000014010bf30 f   imgui.obj
 0002:00049010       ?PushID@ImGui@@YAXPEBD@Z   000000014010c010 f   imgui.obj
 0002:000490f0       ?PushID@ImGui@@YAXPEBX@Z   000000014010c0f0 f   imgui.obj
 0002:000491c0       ?PushItemFlag@ImGui@@YAXH_N@Z 000000014010c1c0 f   imgui.obj
 0002:00049310       ?PushItemWidth@ImGui@@YAXM@Z 000000014010c310 f   imgui.obj
 0002:00049410       ?PushMultiItemsWidths@ImGui@@YAXHM@Z 000000014010c410 f   imgui.obj
 0002:00049690       ?PushOverrideID@ImGui@@YAXI@Z 000000014010c690 f   imgui.obj
 0002:00049740       ?PushStyleColor@ImGui@@YAXHAEBUImVec4@@@Z 000000014010c740 f   imgui.obj
 0002:00049860       ?PushStyleColor@ImGui@@YAXHI@Z 000000014010c860 f   imgui.obj
 0002:00049990       ?PushStyleVar@ImGui@@YAXHAEBUImVec2@@@Z 000000014010c990 f   imgui.obj
 0002:00049ab0       ?PushStyleVar@ImGui@@YAXHM@Z 000000014010cab0 f   imgui.obj
 0002:00049bd0       ?PushTextWrapPos@ImGui@@YAXM@Z 000000014010cbd0 f   imgui.obj
 0002:00049c50       ?Rect@ImGuiWindow@@QEBA?AUImRect@@XZ 000000014010cc50 f i imgui.obj
 0002:00049d20       ?RemoveContextHook@ImGui@@YAXPEAUImGuiContext@@I@Z 000000014010cd20 f   imgui.obj
 0002:00049e20       ?RemoveSettingsHandler@ImGui@@YAXPEBD@Z 000000014010ce20 f   imgui.obj
 0002:00049eb0       ?Render@ImGui@@YAXXZ       000000014010ceb0 f   imgui.obj
 0002:0004ab20       ?RenderDragDropTargetRect@ImGui@@YAXAEBUImRect@@@Z 000000014010db20 f   imgui.obj
 0002:0004ac80       ?RenderFrame@ImGui@@YAXUImVec2@@0I_NM@Z 000000014010dc80 f   imgui.obj
 0002:0004aef0       ?RenderFrameBorder@ImGui@@YAXUImVec2@@0M@Z 000000014010def0 f   imgui.obj
 0002:0004b0f0       ?RenderMouseCursor@ImGui@@YAXUImVec2@@MHIII@Z 000000014010e0f0 f   imgui.obj
 0002:0004b7b0       ?RenderNavHighlight@ImGui@@YAXAEBUImRect@@IH@Z 000000014010e7b0 f   imgui.obj
 0002:0004bb90       ?RenderText@ImGui@@YAXUImVec2@@PEBD1_N@Z 000000014010eb90 f   imgui.obj
 0002:0004bd40       ?RenderTextClipped@ImGui@@YAXAEBUImVec2@@0PEBD1PEBU2@0PEBUImRect@@@Z 000000014010ed40 f   imgui.obj
 0002:0004be90       ?RenderTextClippedEx@ImGui@@YAXPEAUImDrawList@@AEBUImVec2@@1PEBD2PEBU3@1PEBUImRect@@@Z 000000014010ee90 f   imgui.obj
 0002:0004c300       ?RenderTextEllipsis@ImGui@@YAXPEAUImDrawList@@AEBUImVec2@@1MMPEBD2PEBU3@@Z 000000014010f300 f   imgui.obj
 0002:0004ca00       ?RenderTextWrapped@ImGui@@YAXUImVec2@@PEBD1M@Z 000000014010fa00 f   imgui.obj
 0002:0004e970       ?Reset@ImGuiListClipperData@@QEAAXPEAUImGuiListClipper@@@Z 0000000140111970 f i imgui.obj
 0002:0004ea10       ?ResetMouseDragDelta@ImGui@@YAXH@Z 0000000140111a10 f   imgui.obj
 0002:0004ead0       ?SameLine@ImGui@@YAXMM@Z   0000000140111ad0 f   imgui.obj
 0002:0004ecb0       ?SaveIniSettingsToDisk@ImGui@@YAXPEBD@Z 0000000140111cb0 f   imgui.obj
 0002:0004edd0       ?SaveIniSettingsToMemory@ImGui@@YAPEBDPEA_K@Z 0000000140111dd0 f   imgui.obj
 0002:0004ef30       ?ScaleAllSizes@ImGuiStyle@@QEAAXM@Z 0000000140111f30 f   imgui.obj
 0002:0004f550       ?ScrollToItem@ImGui@@YAXH@Z 0000000140112550 f   imgui.obj
 0002:0004f5e0       ?ScrollToRect@ImGui@@YAXPEAUImGuiWindow@@AEBUImRect@@H@Z 00000001401125e0 f   imgui.obj
 0002:0004f660       ?ScrollToRectEx@ImGui@@YA?AUImVec2@@PEAUImGuiWindow@@AEBUImRect@@H@Z 0000000140112660 f   imgui.obj
 0002:00050040       ?SetActiveID@ImGui@@YAXIPEAUImGuiWindow@@@Z 0000000140113040 f   imgui.obj
 0002:000503d0       ?SetActiveIdUsingAllKeyboardKeys@ImGui@@YAXXZ 00000001401133d0 f   imgui.obj
 0002:00050470       ?SetAllInt@ImGuiStorage@@QEAAXH@Z 0000000140113470 f   imgui.obj
 0002:00050510       ?SetAllocatorFunctions@ImGui@@YAXP6APEAX_KPEAX@ZP6AX11@Z1@Z 0000000140113510 f   imgui.obj
 0002:00050590       ?SetAppAcceptingEvents@ImGuiIO@@QEAAX_N@Z 0000000140113590 f   imgui.obj
 0002:000505f0       ?SetBit@?$ImBitArray@$0CIM@$0A@@@QEAAXH@Z 00000001401135f0 f i imgui.obj
 0002:000506a0       ?SetBool@ImGuiStorage@@QEAAXI_N@Z 00000001401136a0 f   imgui.obj
 0002:00050740       ?SetClipboardText@ImGui@@YAXPEBD@Z 0000000140113740 f   imgui.obj
 0002:00050920       ?SetCurrentContext@ImGui@@YAXPEAUImGuiContext@@@Z 0000000140113920 f   imgui.obj
 0002:00050970       ?SetCurrentFont@ImGui@@YAXPEAUImFont@@@Z 0000000140113970 f   imgui.obj
 0002:00050ce0       ?SetCursorPos@ImGui@@YAXAEBUImVec2@@@Z 0000000140113ce0 f   imgui.obj
 0002:00050da0       ?SetCursorPosX@ImGui@@YAXM@Z 0000000140113da0 f   imgui.obj
 0002:00050e20       ?SetCursorPosY@ImGui@@YAXM@Z 0000000140113e20 f   imgui.obj
 0002:00050eb0       ?SetCursorScreenPos@ImGui@@YAXAEBUImVec2@@@Z 0000000140113eb0 f   imgui.obj
 0002:00050f30       ?SetDragDropPayload@ImGui@@YA_NPEBDPEBX_KH@Z 0000000140113f30 f   imgui.obj
 0002:000512d0       ?SetFloat@ImGuiStorage@@QEAAXIM@Z 00000001401142d0 f   imgui.obj
 0002:000513c0       ?SetFocusID@ImGui@@YAXIPEAUImGuiWindow@@@Z 00000001401143c0 f   imgui.obj
 0002:00051580       ?SetHoveredID@ImGui@@YAXI@Z 0000000140114580 f   imgui.obj
 0002:00051640       ?SetInt@ImGuiStorage@@QEAAXIH@Z 0000000140114640 f   imgui.obj
 0002:00051730       ?SetItemAllowOverlap@ImGui@@YAXXZ 0000000140114730 f   imgui.obj
 0002:000517c0       ?SetItemDefaultFocus@ImGui@@YAXXZ 00000001401147c0 f   imgui.obj
 0002:00051940       ?SetItemKeyOwner@ImGui@@YAXW4ImGuiKey@@H@Z 0000000140114940 f   imgui.obj
 0002:00051aa0       ?SetKeyEventNativeData@ImGuiIO@@QEAAXW4ImGuiKey@@HHH@Z 0000000140114aa0 f   imgui.obj
 0002:00051c20       ?SetKeyOwner@ImGui@@YAXW4ImGuiKey@@IH@Z 0000000140114c20 f   imgui.obj
 0002:00051dd0       ?SetKeyboardFocusHere@ImGui@@YAXH@Z 0000000140114dd0 f   imgui.obj
 0002:00051fd0       ?SetLastItemData@ImGui@@YAXIHHAEBUImRect@@@Z 0000000140114fd0 f   imgui.obj
 0002:00052090       ?SetMouseCursor@ImGui@@YAXH@Z 0000000140115090 f   imgui.obj
 0002:000520f0       ?SetNavID@ImGui@@YAXIW4ImGuiNavLayer@@IAEBUImRect@@@Z 00000001401150f0 f   imgui.obj
 0002:00052270       ?SetNavWindow@ImGui@@YAXPEAUImGuiWindow@@@Z 0000000140115270 f   imgui.obj
 0002:00052390       ?SetNextFrameWantCaptureKeyboard@ImGui@@YAX_N@Z 0000000140115390 f   imgui.obj
 0002:00052420       ?SetNextFrameWantCaptureMouse@ImGui@@YAX_N@Z 0000000140115420 f   imgui.obj
 0002:000524b0       ?SetNextItemWidth@ImGui@@YAXM@Z 00000001401154b0 f   imgui.obj
 0002:00052530       ?SetNextWindowBgAlpha@ImGui@@YAXM@Z 0000000140115530 f   imgui.obj
 0002:000525b0       ?SetNextWindowCollapsed@ImGui@@YAX_NH@Z 00000001401155b0 f   imgui.obj
 0002:000526c0       ?SetNextWindowContentSize@ImGui@@YAXAEBUImVec2@@@Z 00000001401156c0 f   imgui.obj
 0002:00052760       ?SetNextWindowFocus@ImGui@@YAXXZ 0000000140115760 f   imgui.obj
 0002:000527c0       ?SetNextWindowPos@ImGui@@YAXAEBUImVec2@@H0@Z 00000001401157c0 f   imgui.obj
 0002:00052900       ?SetNextWindowScroll@ImGui@@YAXAEBUImVec2@@@Z 0000000140115900 f   imgui.obj
 0002:00052990       ?SetNextWindowSize@ImGui@@YAXAEBUImVec2@@H@Z 0000000140115990 f   imgui.obj
 0002:00052ab0       ?SetNextWindowSizeConstraints@ImGui@@YAXAEBUImVec2@@0P6AXPEAUImGuiSizeCallbackData@@@ZPEAX@Z 0000000140115ab0 f   imgui.obj
 0002:00052d50       ?SetScrollFromPosX@ImGui@@YAXMM@Z 0000000140115d50 f   imgui.obj
 0002:00052dd0       ?SetScrollFromPosX@ImGui@@YAXPEAUImGuiWindow@@MM@Z 0000000140115dd0 f   imgui.obj
 0002:00052f00       ?SetScrollFromPosY@ImGui@@YAXMM@Z 0000000140115f00 f   imgui.obj
 0002:00052f80       ?SetScrollFromPosY@ImGui@@YAXPEAUImGuiWindow@@MM@Z 0000000140115f80 f   imgui.obj
 0002:000530b0       ?SetScrollHereX@ImGui@@YAXM@Z 00000001401160b0 f   imgui.obj
 0002:000531f0       ?SetScrollHereY@ImGui@@YAXM@Z 00000001401161f0 f   imgui.obj
 0002:00053330       ?SetScrollX@ImGui@@YAXM@Z  0000000140116330 f   imgui.obj
 0002:000533a0       ?SetScrollX@ImGui@@YAXPEAUImGuiWindow@@M@Z 00000001401163a0 f   imgui.obj
 0002:00053430       ?SetScrollY@ImGui@@YAXM@Z  0000000140116430 f   imgui.obj
 0002:000534a0       ?SetScrollY@ImGui@@YAXPEAUImGuiWindow@@M@Z 00000001401164a0 f   imgui.obj
 0002:00053530       ?SetShortcutRouting@ImGui@@YA_NHIH@Z 0000000140116530 f   imgui.obj
 0002:00053700       ?SetStateStorage@ImGui@@YAXPEAUImGuiStorage@@@Z 0000000140116700 f   imgui.obj
 0002:000537b0       ?SetToCurrentState@ImGuiStackSizes@@QEAAXXZ 00000001401167b0 f   imgui.obj
 0002:00053910       ?SetTooltip@ImGui@@YAXPEBDZZ 0000000140116910 f   imgui.obj
 0002:000539e0       ?SetTooltipV@ImGui@@YAXPEBDPEAD@Z 00000001401169e0 f   imgui.obj
 0002:00053a60       ?SetVoidPtr@ImGuiStorage@@QEAAXIPEAX@Z 0000000140116a60 f   imgui.obj
 0002:00053b50       ?SetWindowCollapsed@ImGui@@YAXPEAUImGuiWindow@@_NH@Z 0000000140116b50 f   imgui.obj
 0002:00053c40       ?SetWindowCollapsed@ImGui@@YAXPEBD_NH@Z 0000000140116c40 f   imgui.obj
 0002:00053cd0       ?SetWindowCollapsed@ImGui@@YAX_NH@Z 0000000140116cd0 f   imgui.obj
 0002:00053f70       ?SetWindowFocus@ImGui@@YAXPEBD@Z 0000000140116f70 f   imgui.obj
 0002:00053ff0       ?SetWindowFocus@ImGui@@YAXXZ 0000000140116ff0 f   imgui.obj
 0002:00054040       ?SetWindowFontScale@ImGui@@YAXM@Z 0000000140117040 f   imgui.obj
 0002:00054130       ?SetWindowHitTestHole@ImGui@@YAXPEAUImGuiWindow@@AEBUImVec2@@1@Z 0000000140117130 f   imgui.obj
 0002:00054240       ?SetWindowPos@ImGui@@YAXAEBUImVec2@@H@Z 0000000140117240 f   imgui.obj
 0002:000542b0       ?SetWindowPos@ImGui@@YAXPEAUImGuiWindow@@AEBUImVec2@@H@Z 00000001401172b0 f   imgui.obj
 0002:00054560       ?SetWindowPos@ImGui@@YAXPEBDAEBUImVec2@@H@Z 0000000140117560 f   imgui.obj
 0002:000545f0       ?SetWindowSize@ImGui@@YAXAEBUImVec2@@H@Z 00000001401175f0 f   imgui.obj
 0002:00054660       ?SetWindowSize@ImGui@@YAXPEAUImGuiWindow@@AEBUImVec2@@H@Z 0000000140117660 f   imgui.obj
 0002:00054940       ?SetWindowSize@ImGui@@YAXPEBDAEBUImVec2@@H@Z 0000000140117940 f   imgui.obj
 0002:000549d0       ?SetWindowViewport@ImGui@@YAXPEAUImGuiWindow@@PEAUImGuiViewportP@@@Z 00000001401179d0 f   imgui.obj
 0002:00054be0       ?Shortcut@ImGui@@YA_NHIH@Z 0000000140117be0 f   imgui.obj
 0002:00054d80       ?ShowDebugLogWindow@ImGui@@YAXPEA_N@Z 0000000140117d80 f   imgui.obj
 0002:00055540       ?ShowFontAtlas@ImGui@@YAXPEAUImFontAtlas@@@Z 0000000140118540 f   imgui.obj
 0002:000557b0       ?ShowMetricsWindow@ImGui@@YAXPEA_N@Z 00000001401187b0 f   imgui.obj
 0002:00058d70       ?ShowStackToolWindow@ImGui@@YAXPEA_N@Z 000000014011bd70 f   imgui.obj
 0002:00059510       ?Shutdown@ImGui@@YAXXZ     000000014011c510 f   imgui.obj
 0002:00059b70       ?StartMouseMovingWindow@ImGui@@YAXPEAUImGuiWindow@@@Z 000000014011cb70 f   imgui.obj
 0002:00059cd0       ?Step@ImGuiListClipper@@QEAA_NXZ 000000014011ccd0 f   imgui.obj
 0002:00059ef0       ?TableGetInstanceData@ImGui@@YAPEAUImGuiTableInstanceData@@PEAUImGuiTable@@H@Z 000000014011cef0 f i imgui.obj
 0002:00059f80       ?TestBit@?$ImBitArray@$0CIM@$0A@@@QEBA_NH@Z 000000014011cf80 f i imgui.obj
 0002:0005a070       ?TestKeyOwner@ImGui@@YA_NW4ImGuiKey@@I@Z 000000014011d070 f   imgui.obj
 0002:0005a1d0       ?TestShortcutRouting@ImGui@@YA_NHI@Z 000000014011d1d0 f   imgui.obj
 0002:0005a270       ?TitleBarHeight@ImGuiWindow@@QEBAMXZ 000000014011d270 f i imgui.obj
 0002:0005a330       ?TitleBarRect@ImGuiWindow@@QEBA?AUImRect@@XZ 000000014011d330 f i imgui.obj
 0002:0005a400       ?ToVec4@ImRect@@QEBA?AUImVec4@@XZ 000000014011d400 f i imgui.obj
 0002:0005a470       ?Translate@ImRect@@QEAAXAEBUImVec2@@@Z 000000014011d470 f i imgui.obj
 0002:0005a510       ?TranslateX@ImRect@@QEAAXM@Z 000000014011d510 f i imgui.obj
 0002:0005a570       ?TranslateY@ImRect@@QEAAXM@Z 000000014011d570 f i imgui.obj
 0002:0005a5d0       ?TryGetMapData@?$ImPool@UImGuiTabBar@@@@QEAAPEAUImGuiTabBar@@H@Z 000000014011d5d0 f i imgui.obj
 0002:0005a660       ?TryGetMapData@?$ImPool@UImGuiTable@@@@QEAAPEAUImGuiTable@@H@Z 000000014011d660 f i imgui.obj
 0002:0005a6f0       ?Unindent@ImGui@@YAXM@Z    000000014011d6f0 f   imgui.obj
 0002:0005ada0       ?UpdateHoveredWindowAndCaptureFlags@ImGui@@YAXXZ 000000014011dda0 f   imgui.obj
 0002:0005b4a0       ?UpdateInputEvents@ImGui@@YAX_N@Z 000000014011e4a0 f   imgui.obj
 0002:0005dcc0       ?UpdateMouseMovingWindowEndFrame@ImGui@@YAXXZ 0000000140120cc0 f   imgui.obj
 0002:0005e020       ?UpdateMouseMovingWindowNewFrame@ImGui@@YAXXZ 0000000140121020 f   imgui.obj
 0002:00060540       ?UpdateWindowParentAndRootLinks@ImGui@@YAXPEAUImGuiWindow@@H0@Z 0000000140123540 f   imgui.obj
 0002:000607a0       ?UpdateWorkRect@ImGuiViewportP@@QEAAXXZ 00000001401237a0 f i imgui.obj
 0002:000608f0       ?WindowRectAbsToRel@ImGui@@YA?AUImRect@@PEAUImGuiWindow@@AEBU2@@Z 00000001401238f0 f i imgui.obj
 0002:00060a30       ?WindowRectRelToAbs@ImGui@@YA?AUImRect@@PEAUImGuiWindow@@AEBU2@@Z 0000000140123a30 f i imgui.obj
 0002:00061340       ?_grow_capacity@?$ImVector@D@@QEBAHH@Z 0000000140124340 f i imgui.obj
 0002:00061410       ?_grow_capacity@?$ImVector@E@@QEBAHH@Z 0000000140124410 f i imgui.obj
 0002:000614e0       ?_grow_capacity@?$ImVector@G@@QEBAHH@Z 00000001401244e0 f i imgui.obj
 0002:000615b0       ?_grow_capacity@?$ImVector@H@@QEBAHH@Z 00000001401245b0 f i imgui.obj
 0002:00061680       ?_grow_capacity@?$ImVector@I@@QEBAHH@Z 0000000140124680 f i imgui.obj
 0002:00061750       ?_grow_capacity@?$ImVector@M@@QEBAHH@Z 0000000140124750 f i imgui.obj
 0002:00061820       ?_grow_capacity@?$ImVector@PEAUImDrawList@@@@QEBAHH@Z 0000000140124820 f i imgui.obj
 0002:000618f0       ?_grow_capacity@?$ImVector@PEAUImFont@@@@QEBAHH@Z 00000001401248f0 f i imgui.obj
 0002:000619c0       ?_grow_capacity@?$ImVector@PEAUImGuiViewportP@@@@QEBAHH@Z 00000001401249c0 f i imgui.obj
 0002:00061a90       ?_grow_capacity@?$ImVector@PEAUImGuiWindow@@@@QEBAHH@Z 0000000140124a90 f i imgui.obj
 0002:00061b60       ?_grow_capacity@?$ImVector@UImDrawCmd@@@@QEBAHH@Z 0000000140124b60 f i imgui.obj
 0002:00061c30       ?_grow_capacity@?$ImVector@UImGuiColorMod@@@@QEBAHH@Z 0000000140124c30 f i imgui.obj
 0002:00061d00       ?_grow_capacity@?$ImVector@UImGuiContextHook@@@@QEBAHH@Z 0000000140124d00 f i imgui.obj
 0002:00061dd0       ?_grow_capacity@?$ImVector@UImGuiGroupData@@@@QEBAHH@Z 0000000140124dd0 f i imgui.obj
 0002:00061ea0       ?_grow_capacity@?$ImVector@UImGuiInputEvent@@@@QEBAHH@Z 0000000140124ea0 f i imgui.obj
 0002:00061f70       ?_grow_capacity@?$ImVector@UImGuiKeyRoutingData@@@@QEBAHH@Z 0000000140124f70 f i imgui.obj
 0002:00062040       ?_grow_capacity@?$ImVector@UImGuiListClipperData@@@@QEBAHH@Z 0000000140125040 f i imgui.obj
 0002:00062110       ?_grow_capacity@?$ImVector@UImGuiListClipperRange@@@@QEBAHH@Z 0000000140125110 f i imgui.obj
 0002:000621e0       ?_grow_capacity@?$ImVector@UImGuiPopupData@@@@QEBAHH@Z 00000001401251e0 f i imgui.obj
 0002:000622b0       ?_grow_capacity@?$ImVector@UImGuiSettingsHandler@@@@QEBAHH@Z 00000001401252b0 f i imgui.obj
 0002:00062380       ?_grow_capacity@?$ImVector@UImGuiStackLevelInfo@@@@QEBAHH@Z 0000000140125380 f i imgui.obj
 0002:00062450       ?_grow_capacity@?$ImVector@UImGuiStoragePair@ImGuiStorage@@@@QEBAHH@Z 0000000140125450 f i imgui.obj
 0002:00062520       ?_grow_capacity@?$ImVector@UImGuiStyleMod@@@@QEBAHH@Z 0000000140125520 f i imgui.obj
 0002:000625f0       ?_grow_capacity@?$ImVector@UImGuiTextRange@ImGuiTextFilter@@@@QEBAHH@Z 00000001401255f0 f i imgui.obj
 0002:000626c0       ?_grow_capacity@?$ImVector@UImGuiWindowStackData@@@@QEBAHH@Z 00000001401256c0 f i imgui.obj
 0002:00062790       ?_grow_capacity@?$ImVector@UImVec2@@@@QEBAHH@Z 0000000140125790 f i imgui.obj
 0002:00062860       ?_grow_capacity@?$ImVector@_W@@QEBAHH@Z 0000000140125860 f i imgui.obj
 0002:00062930       ?alloc_chunk@?$ImChunkStream@UImGuiWindowSettings@@@@QEAAPEAUImGuiWindowSettings@@_K@Z 0000000140125930 f i imgui.obj
 0002:00062a30       ?append@ImGuiTextBuffer@@QEAAXPEBD0@Z 0000000140125a30 f   imgui.obj
 0002:00062c20       ?append@ImGuiTextIndex@@QEAAXPEBDHH@Z 0000000140125c20 f   imgui.obj
 0002:00062e30       ?appendf@ImGuiTextBuffer@@QEAAXPEBDZZ 0000000140125e30 f   imgui.obj
 0002:00062f00       ?appendfv@ImGuiTextBuffer@@QEAAXPEBDPEAD@Z 0000000140125f00 f   imgui.obj
 0002:000630e0       ?back@?$ImVector@H@@QEAAAEAHXZ 00000001401260e0 f i imgui.obj
 0002:00063180       ?back@?$ImVector@I@@QEAAAEAIXZ 0000000140126180 f i imgui.obj
 0002:00063220       ?back@?$ImVector@M@@QEAAAEAMXZ 0000000140126220 f i imgui.obj
 0002:000632c0       ?back@?$ImVector@PEAUImFont@@@@QEAAAEAPEAUImFont@@XZ 00000001401262c0 f i imgui.obj
 0002:00063360       ?back@?$ImVector@PEAUImGuiWindow@@@@QEAAAEAPEAUImGuiWindow@@XZ 0000000140126360 f i imgui.obj
 0002:00063400       ?back@?$ImVector@UImDrawCmd@@@@QEAAAEAUImDrawCmd@@XZ 0000000140126400 f i imgui.obj
 0002:000634a0       ?back@?$ImVector@UImDrawCmd@@@@QEBAAEBUImDrawCmd@@XZ 00000001401264a0 f i imgui.obj
 0002:00063540       ?back@?$ImVector@UImGuiColorMod@@@@QEAAAEAUImGuiColorMod@@XZ 0000000140126540 f i imgui.obj
 0002:000635e0       ?back@?$ImVector@UImGuiContextHook@@@@QEAAAEAUImGuiContextHook@@XZ 00000001401265e0 f i imgui.obj
 0002:00063680       ?back@?$ImVector@UImGuiGroupData@@@@QEAAAEAUImGuiGroupData@@XZ 0000000140126680 f i imgui.obj
 0002:00063720       ?back@?$ImVector@UImGuiPopupData@@@@QEAAAEAUImGuiPopupData@@XZ 0000000140126720 f i imgui.obj
 0002:000637c0       ?back@?$ImVector@UImGuiStyleMod@@@@QEAAAEAUImGuiStyleMod@@XZ 00000001401267c0 f i imgui.obj
 0002:00063860       ?back@?$ImVector@UImGuiWindowStackData@@@@QEAAAEAUImGuiWindowStackData@@XZ 0000000140126860 f i imgui.obj
 0002:00063900       ?back@?$ImVector@UImVec4@@@@QEAAAEAUImVec4@@XZ 0000000140126900 f i imgui.obj
 0002:000639a0       ?begin@?$ImChunkStream@UImGuiTableSettings@@@@QEAAPEAUImGuiTableSettings@@XZ 00000001401269a0 f i imgui.obj
 0002:00063a20       ?begin@?$ImChunkStream@UImGuiWindowSettings@@@@QEAAPEAUImGuiWindowSettings@@XZ 0000000140126a20 f i imgui.obj
 0002:00063aa0       ?begin@?$ImVector@UImDrawCmd@@@@QEBAPEBUImDrawCmd@@XZ 0000000140126aa0 f i imgui.obj
 0002:00063af0       ?begin@ImGuiTextBuffer@@QEBAPEBDXZ 0000000140126af0 f i imgui.obj
 0002:00063b80       ?c_str@ImGuiTextBuffer@@QEBAPEBDXZ 0000000140126b80 f i imgui.obj
 0002:00063c10       ?chunk_size@?$ImChunkStream@UImGuiTableSettings@@@@QEAAHPEBUImGuiTableSettings@@@Z 0000000140126c10 f i imgui.obj
 0002:00063c70       ?chunk_size@?$ImChunkStream@UImGuiWindowSettings@@@@QEAAHPEBUImGuiWindowSettings@@@Z 0000000140126c70 f i imgui.obj
 0002:00063cd0       ?clear@?$ImChunkStream@UImGuiWindowSettings@@@@QEAAXXZ 0000000140126cd0 f i imgui.obj
 0002:00063d30       ?clear@?$ImVector@D@@QEAAXXZ 0000000140126d30 f i imgui.obj
 0002:00063dd0       ?clear@?$ImVector@E@@QEAAXXZ 0000000140126dd0 f i imgui.obj
 0002:00063e70       ?clear@?$ImVector@G@@QEAAXXZ 0000000140126e70 f i imgui.obj
 0002:00063f10       ?clear@?$ImVector@H@@QEAAXXZ 0000000140126f10 f i imgui.obj
 0002:00063fb0       ?clear@?$ImVector@I@@QEAAXXZ 0000000140126fb0 f i imgui.obj
 0002:00064050       ?clear@?$ImVector@M@@QEAAXXZ 0000000140127050 f i imgui.obj
 0002:000640f0       ?clear@?$ImVector@PEAUImFont@@@@QEAAXXZ 00000001401270f0 f i imgui.obj
 0002:00064190       ?clear@?$ImVector@PEAUImGuiViewportP@@@@QEAAXXZ 0000000140127190 f i imgui.obj
 0002:00064230       ?clear@?$ImVector@PEAUImGuiWindow@@@@QEAAXXZ 0000000140127230 f i imgui.obj
 0002:000642d0       ?clear@?$ImVector@UImDrawChannel@@@@QEAAXXZ 00000001401272d0 f i imgui.obj
 0002:00064370       ?clear@?$ImVector@UImGuiColorMod@@@@QEAAXXZ 0000000140127370 f i imgui.obj
 0002:00064410       ?clear@?$ImVector@UImGuiGroupData@@@@QEAAXXZ 0000000140127410 f i imgui.obj
 0002:000644b0       ?clear@?$ImVector@UImGuiKeyRoutingData@@@@QEAAXXZ 00000001401274b0 f i imgui.obj
 0002:00064550       ?clear@?$ImVector@UImGuiListClipperData@@@@QEAAXXZ 0000000140127550 f i imgui.obj
 0002:000645f0       ?clear@?$ImVector@UImGuiOldColumns@@@@QEAAXXZ 00000001401275f0 f i imgui.obj
 0002:00064690       ?clear@?$ImVector@UImGuiPopupData@@@@QEAAXXZ 0000000140127690 f i imgui.obj
 0002:00064730       ?clear@?$ImVector@UImGuiPtrOrIndex@@@@QEAAXXZ 0000000140127730 f i imgui.obj
 0002:000647d0       ?clear@?$ImVector@UImGuiSettingsHandler@@@@QEAAXXZ 00000001401277d0 f i imgui.obj
 0002:00064870       ?clear@?$ImVector@UImGuiShrinkWidthItem@@@@QEAAXXZ 0000000140127870 f i imgui.obj
 0002:00064910       ?clear@?$ImVector@UImGuiStoragePair@ImGuiStorage@@@@QEAAXXZ 0000000140127910 f i imgui.obj
 0002:000649b0       ?clear@?$ImVector@UImGuiStyleMod@@@@QEAAXXZ 00000001401279b0 f i imgui.obj
 0002:00064a50       ?clear@?$ImVector@UImGuiTabBar@@@@QEAAXXZ 0000000140127a50 f i imgui.obj
 0002:00064af0       ?clear@?$ImVector@UImGuiTable@@@@QEAAXXZ 0000000140127af0 f i imgui.obj
 0002:00064b90       ?clear@?$ImVector@UImGuiTableTempData@@@@QEAAXXZ 0000000140127b90 f i imgui.obj
 0002:00064c30       ?clear@?$ImVector@UImGuiWindowStackData@@@@QEAAXXZ 0000000140127c30 f i imgui.obj
 0002:00064cd0       ?clear@?$ImVector@UImVec2@@@@QEAAXXZ 0000000140127cd0 f i imgui.obj
 0002:00064d70       ?clear@ImGuiTextBuffer@@QEAAXXZ 0000000140127d70 f i imgui.obj
 0002:00064dd0       ?clear@ImGuiTextIndex@@QEAAXXZ 0000000140127dd0 f i imgui.obj
 0002:00064e40       ?clear_delete@?$ImVector@PEAUImGuiViewportP@@@@QEAAXXZ 0000000140127e40 f i imgui.obj
 0002:00064ee0       ?clear_delete@?$ImVector@PEAUImGuiWindow@@@@QEAAXXZ 0000000140127ee0 f i imgui.obj
 0002:00064f80       ?clear_destruct@?$ImVector@UImGuiListClipperData@@@@QEAAXXZ 0000000140127f80 f i imgui.obj
 0002:00065020       ?clear_destruct@?$ImVector@UImGuiOldColumns@@@@QEAAXXZ 0000000140128020 f i imgui.obj
 0002:000650d0       ?clear_destruct@?$ImVector@UImGuiTableTempData@@@@QEAAXXZ 00000001401280d0 f i imgui.obj
 0002:00065170       ?contains@?$ImVector@PEAUImGuiWindow@@@@QEBA_NAEBQEAUImGuiWindow@@@Z 0000000140128170 f i imgui.obj
 0002:00065280       ?empty@?$ImChunkStream@UImGuiWindowSettings@@@@QEBA_NXZ 0000000140128280 f i imgui.obj
 0002:00065300       ?empty@?$ImVector@PEAUImDrawList@@@@QEBA_NXZ 0000000140128300 f i imgui.obj
 0002:00065380       ?empty@?$ImVector@PEAUImFont@@@@QEBA_NXZ 0000000140128380 f i imgui.obj
 0002:00065400       ?empty@?$ImVector@UImGuiTextRange@ImGuiTextFilter@@@@QEBA_NXZ 0000000140128400 f i imgui.obj
 0002:00065480       ?empty@?$ImVector@UImGuiWindowStackData@@@@QEBA_NXZ 0000000140128480 f i imgui.obj
 0002:00065500       ?empty@ImGuiTextBuffer@@QEBA_NXZ 0000000140128500 f i imgui.obj
 0002:00065580       ?empty@ImGuiTextRange@ImGuiTextFilter@@QEBA_NXZ 0000000140128580 f i imgui.obj
 0002:00065600       ?end@?$ImChunkStream@UImGuiTableSettings@@@@QEAAPEAUImGuiTableSettings@@XZ 0000000140128600 f i imgui.obj
 0002:00065660       ?end@?$ImChunkStream@UImGuiWindowSettings@@@@QEAAPEAUImGuiWindowSettings@@XZ 0000000140128660 f i imgui.obj
 0002:000656c0       ?end@?$ImVector@UImGuiStoragePair@ImGuiStorage@@@@QEAAPEAUImGuiStoragePair@ImGuiStorage@@XZ 00000001401286c0 f i imgui.obj
 0002:00065720       ?end@?$ImVector@UImGuiStoragePair@ImGuiStorage@@@@QEBAPEBUImGuiStoragePair@ImGuiStorage@@XZ 0000000140128720 f i imgui.obj
 0002:00065780       ?erase@?$ImVector@PEAUImGuiWindow@@@@QEAAPEAPEAUImGuiWindow@@PEBQEAU2@@Z 0000000140128780 f i imgui.obj
 0002:00065900       ?erase@?$ImVector@UImGuiContextHook@@@@QEAAPEAUImGuiContextHook@@PEBU2@@Z 0000000140128900 f i imgui.obj
 0002:00065a70       ?erase@?$ImVector@UImGuiInputEvent@@@@QEAAPEAUImGuiInputEvent@@PEBU2@0@Z 0000000140128a70 f i imgui.obj
 0002:00065c70       ?erase@?$ImVector@UImGuiListClipperRange@@@@QEAAPEAUImGuiListClipperRange@@PEBU2@@Z 0000000140128c70 f i imgui.obj
 0002:00065df0       ?erase@?$ImVector@UImGuiSettingsHandler@@@@QEAAPEAUImGuiSettingsHandler@@PEBU2@@Z 0000000140128df0 f i imgui.obj
 0002:00065f70       ?find@?$ImVector@PEAUImGuiWindow@@@@QEAAPEAPEAUImGuiWindow@@AEBQEAU2@@Z 0000000140128f70 f i imgui.obj
 0002:00066030       ?front@?$ImVector@D@@QEBAAEBDXZ 0000000140129030 f i imgui.obj
 0002:000660c0       ?get_line_begin@ImGuiTextIndex@@QEAAPEBDPEBDH@Z 00000001401290c0 f i imgui.obj
 0002:00066140       ?get_line_end@ImGuiTextIndex@@QEAAPEBDPEBDH@Z 0000000140129140 f i imgui.obj
 0002:00066200       ?index_from_ptr@?$ImVector@PEAUImGuiWindow@@@@QEBAHPEBQEAUImGuiWindow@@@Z 0000000140129200 f i imgui.obj
 0002:000662e0       ?insert@?$ImVector@PEAUImGuiWindow@@@@QEAAPEAPEAUImGuiWindow@@PEBQEAU2@AEBQEAU2@@Z 00000001401292e0 f i imgui.obj
 0002:000664f0       ?insert@?$ImVector@UImDrawCmd@@@@QEAAPEAUImDrawCmd@@PEBU2@AEBU2@@Z 00000001401294f0 f i imgui.obj
 0002:00066700       ?insert@?$ImVector@UImGuiListClipperRange@@@@QEAAPEAUImGuiListClipperRange@@PEBU2@AEBU2@@Z 0000000140129700 f i imgui.obj
 0002:00066910       ?insert@?$ImVector@UImGuiStoragePair@ImGuiStorage@@@@QEAAPEAUImGuiStoragePair@ImGuiStorage@@PEBU23@AEBU23@@Z 0000000140129910 f i imgui.obj
 0002:00066b10       ?next_chunk@?$ImChunkStream@UImGuiTableSettings@@@@QEAAPEAUImGuiTableSettings@@PEAU2@@Z 0000000140129b10 f i imgui.obj
 0002:00066c60       ?next_chunk@?$ImChunkStream@UImGuiWindowSettings@@@@QEAAPEAUImGuiWindowSettings@@PEAU2@@Z 0000000140129c60 f i imgui.obj
 0002:00066db0       ?offset_from_ptr@?$ImChunkStream@UImGuiWindowSettings@@@@QEAAHPEBUImGuiWindowSettings@@@Z 0000000140129db0 f i imgui.obj
 0002:00066e80       ?pop_back@?$ImVector@H@@QEAAXXZ 0000000140129e80 f i imgui.obj
 0002:00066f10       ?pop_back@?$ImVector@I@@QEAAXXZ 0000000140129f10 f i imgui.obj
 0002:00066fa0       ?pop_back@?$ImVector@M@@QEAAXXZ 0000000140129fa0 f i imgui.obj
 0002:00067030       ?pop_back@?$ImVector@PEAUImFont@@@@QEAAXXZ 000000014012a030 f i imgui.obj
 0002:000670c0       ?pop_back@?$ImVector@UImDrawCmd@@@@QEAAXXZ 000000014012a0c0 f i imgui.obj
 0002:00067150       ?pop_back@?$ImVector@UImGuiColorMod@@@@QEAAXXZ 000000014012a150 f i imgui.obj
 0002:000671e0       ?pop_back@?$ImVector@UImGuiGroupData@@@@QEAAXXZ 000000014012a1e0 f i imgui.obj
 0002:00067270       ?pop_back@?$ImVector@UImGuiPopupData@@@@QEAAXXZ 000000014012a270 f i imgui.obj
 0002:00067300       ?pop_back@?$ImVector@UImGuiStyleMod@@@@QEAAXXZ 000000014012a300 f i imgui.obj
 0002:00067390       ?pop_back@?$ImVector@UImGuiWindowStackData@@@@QEAAXXZ 000000014012a390 f i imgui.obj
 0002:00067420       ?ptr_from_offset@?$ImChunkStream@UImGuiWindowSettings@@@@QEAAPEAUImGuiWindowSettings@@H@Z 000000014012a420 f i imgui.obj
 0002:000674c0       ?push_back@?$ImVector@D@@QEAAXAEBD@Z 000000014012a4c0 f i imgui.obj
 0002:000675b0       ?push_back@?$ImVector@G@@QEAAXAEBG@Z 000000014012a5b0 f i imgui.obj
 0002:000676a0       ?push_back@?$ImVector@H@@QEAAXAEBH@Z 000000014012a6a0 f i imgui.obj
 0002:00067790       ?push_back@?$ImVector@I@@QEAAXAEBI@Z 000000014012a790 f i imgui.obj
 0002:00067880       ?push_back@?$ImVector@M@@QEAAXAEBM@Z 000000014012a880 f i imgui.obj
 0002:00067970       ?push_back@?$ImVector@PEAUImDrawList@@@@QEAAXAEBQEAUImDrawList@@@Z 000000014012a970 f i imgui.obj
 0002:00067a60       ?push_back@?$ImVector@PEAUImFont@@@@QEAAXAEBQEAUImFont@@@Z 000000014012aa60 f i imgui.obj
 0002:00067b50       ?push_back@?$ImVector@PEAUImGuiViewportP@@@@QEAAXAEBQEAUImGuiViewportP@@@Z 000000014012ab50 f i imgui.obj
 0002:00067c40       ?push_back@?$ImVector@PEAUImGuiWindow@@@@QEAAXAEBQEAUImGuiWindow@@@Z 000000014012ac40 f i imgui.obj
 0002:00067d30       ?push_back@?$ImVector@UImDrawCmd@@@@QEAAXAEBUImDrawCmd@@@Z 000000014012ad30 f i imgui.obj
 0002:00067e20       ?push_back@?$ImVector@UImGuiColorMod@@@@QEAAXAEBUImGuiColorMod@@@Z 000000014012ae20 f i imgui.obj
 0002:00067f10       ?push_back@?$ImVector@UImGuiContextHook@@@@QEAAXAEBUImGuiContextHook@@@Z 000000014012af10 f i imgui.obj
 0002:00068000       ?push_back@?$ImVector@UImGuiInputEvent@@@@QEAAXAEBUImGuiInputEvent@@@Z 000000014012b000 f i imgui.obj
 0002:000680f0       ?push_back@?$ImVector@UImGuiKeyRoutingData@@@@QEAAXAEBUImGuiKeyRoutingData@@@Z 000000014012b0f0 f i imgui.obj
 0002:000681e0       ?push_back@?$ImVector@UImGuiListClipperRange@@@@QEAAXAEBUImGuiListClipperRange@@@Z 000000014012b1e0 f i imgui.obj
 0002:000682d0       ?push_back@?$ImVector@UImGuiPopupData@@@@QEAAXAEBUImGuiPopupData@@@Z 000000014012b2d0 f i imgui.obj
 0002:000683c0       ?push_back@?$ImVector@UImGuiSettingsHandler@@@@QEAAXAEBUImGuiSettingsHandler@@@Z 000000014012b3c0 f i imgui.obj
 0002:000684b0       ?push_back@?$ImVector@UImGuiStyleMod@@@@QEAAXAEBUImGuiStyleMod@@@Z 000000014012b4b0 f i imgui.obj
 0002:000685a0       ?push_back@?$ImVector@UImGuiTextRange@ImGuiTextFilter@@@@QEAAXAEBUImGuiTextRange@ImGuiTextFilter@@@Z 000000014012b5a0 f i imgui.obj
 0002:00068690       ?push_back@?$ImVector@UImGuiWindowStackData@@@@QEAAXAEBUImGuiWindowStackData@@@Z 000000014012b690 f i imgui.obj
 0002:00068780       ?push_back@?$ImVector@UImVec2@@@@QEAAXAEBUImVec2@@@Z 000000014012b780 f i imgui.obj
 0002:00068870       ?push_front@?$ImVector@PEAUImGuiWindow@@@@QEAAXAEBQEAUImGuiWindow@@@Z 000000014012b870 f i imgui.obj
 0002:00068910       ?push_front@?$ImVector@UImDrawCmd@@@@QEAAXAEBUImDrawCmd@@@Z 000000014012b910 f i imgui.obj
 0002:000689b0       ?push_front@?$ImVector@UImGuiListClipperRange@@@@QEAAXAEBUImGuiListClipperRange@@@Z 000000014012b9b0 f i imgui.obj
 0002:00068a50       ?reserve@?$ImVector@D@@QEAAXH@Z 000000014012ba50 f i imgui.obj
 0002:00068b40       ?reserve@?$ImVector@E@@QEAAXH@Z 000000014012bb40 f i imgui.obj
 0002:00068c30       ?reserve@?$ImVector@G@@QEAAXH@Z 000000014012bc30 f i imgui.obj
 0002:00068d30       ?reserve@?$ImVector@H@@QEAAXH@Z 000000014012bd30 f i imgui.obj
 0002:00068e30       ?reserve@?$ImVector@I@@QEAAXH@Z 000000014012be30 f i imgui.obj
 0002:00068f30       ?reserve@?$ImVector@M@@QEAAXH@Z 000000014012bf30 f i imgui.obj
 0002:00069030       ?reserve@?$ImVector@PEAUImDrawList@@@@QEAAXH@Z 000000014012c030 f i imgui.obj
 0002:00069130       ?reserve@?$ImVector@PEAUImFont@@@@QEAAXH@Z 000000014012c130 f i imgui.obj
 0002:00069230       ?reserve@?$ImVector@PEAUImGuiViewportP@@@@QEAAXH@Z 000000014012c230 f i imgui.obj
 0002:00069330       ?reserve@?$ImVector@PEAUImGuiWindow@@@@QEAAXH@Z 000000014012c330 f i imgui.obj
 0002:00069430       ?reserve@?$ImVector@UImDrawCmd@@@@QEAAXH@Z 000000014012c430 f i imgui.obj
 0002:00069530       ?reserve@?$ImVector@UImDrawVert@@@@QEAAXH@Z 000000014012c530 f i imgui.obj
 0002:00069630       ?reserve@?$ImVector@UImGuiColorMod@@@@QEAAXH@Z 000000014012c630 f i imgui.obj
 0002:00069730       ?reserve@?$ImVector@UImGuiContextHook@@@@QEAAXH@Z 000000014012c730 f i imgui.obj
 0002:00069830       ?reserve@?$ImVector@UImGuiGroupData@@@@QEAAXH@Z 000000014012c830 f i imgui.obj
 0002:00069930       ?reserve@?$ImVector@UImGuiInputEvent@@@@QEAAXH@Z 000000014012c930 f i imgui.obj
 0002:00069a30       ?reserve@?$ImVector@UImGuiKeyRoutingData@@@@QEAAXH@Z 000000014012ca30 f i imgui.obj
 0002:00069b30       ?reserve@?$ImVector@UImGuiListClipperData@@@@QEAAXH@Z 000000014012cb30 f i imgui.obj
 0002:00069c30       ?reserve@?$ImVector@UImGuiListClipperRange@@@@QEAAXH@Z 000000014012cc30 f i imgui.obj
 0002:00069d30       ?reserve@?$ImVector@UImGuiPopupData@@@@QEAAXH@Z 000000014012cd30 f i imgui.obj
 0002:00069e30       ?reserve@?$ImVector@UImGuiSettingsHandler@@@@QEAAXH@Z 000000014012ce30 f i imgui.obj
 0002:00069f30       ?reserve@?$ImVector@UImGuiStackLevelInfo@@@@QEAAXH@Z 000000014012cf30 f i imgui.obj
 0002:0006a030       ?reserve@?$ImVector@UImGuiStoragePair@ImGuiStorage@@@@QEAAXH@Z 000000014012d030 f i imgui.obj
 0002:0006a130       ?reserve@?$ImVector@UImGuiStyleMod@@@@QEAAXH@Z 000000014012d130 f i imgui.obj
 0002:0006a230       ?reserve@?$ImVector@UImGuiTextRange@ImGuiTextFilter@@@@QEAAXH@Z 000000014012d230 f i imgui.obj
 0002:0006a330       ?reserve@?$ImVector@UImGuiWindowStackData@@@@QEAAXH@Z 000000014012d330 f i imgui.obj
 0002:0006a430       ?reserve@?$ImVector@UImVec2@@@@QEAAXH@Z 000000014012d430 f i imgui.obj
 0002:0006a530       ?reserve@?$ImVector@_W@@QEAAXH@Z 000000014012d530 f i imgui.obj
 0002:0006a630       ?reserve@ImGuiTextBuffer@@QEAAXH@Z 000000014012d630 f i imgui.obj
 0002:0006a690       ?resize@?$ImVector@D@@QEAAXH@Z 000000014012d690 f i imgui.obj
 0002:0006a730       ?resize@?$ImVector@D@@QEAAXHAEBD@Z 000000014012d730 f i imgui.obj
 0002:0006a850       ?resize@?$ImVector@E@@QEAAXH@Z 000000014012d850 f i imgui.obj
 0002:0006a8f0       ?resize@?$ImVector@G@@QEAAXH@Z 000000014012d8f0 f i imgui.obj
 0002:0006a990       ?resize@?$ImVector@H@@QEAAXH@Z 000000014012d990 f i imgui.obj
 0002:0006aa30       ?resize@?$ImVector@I@@QEAAXH@Z 000000014012da30 f i imgui.obj
 0002:0006aad0       ?resize@?$ImVector@M@@QEAAXH@Z 000000014012dad0 f i imgui.obj
 0002:0006ab70       ?resize@?$ImVector@PEAUImDrawList@@@@QEAAXH@Z 000000014012db70 f i imgui.obj
 0002:0006ac10       ?resize@?$ImVector@PEAUImGuiWindow@@@@QEAAXH@Z 000000014012dc10 f i imgui.obj
 0002:0006acb0       ?resize@?$ImVector@UImGuiGroupData@@@@QEAAXH@Z 000000014012dcb0 f i imgui.obj
 0002:0006ad50       ?resize@?$ImVector@UImGuiInputEvent@@@@QEAAXH@Z 000000014012dd50 f i imgui.obj
 0002:0006adf0       ?resize@?$ImVector@UImGuiKeyRoutingData@@@@QEAAXH@Z 000000014012ddf0 f i imgui.obj
 0002:0006ae90       ?resize@?$ImVector@UImGuiListClipperData@@@@QEAAXHAEBUImGuiListClipperData@@@Z 000000014012de90 f i imgui.obj
 0002:0006afa0       ?resize@?$ImVector@UImGuiListClipperRange@@@@QEAAXH@Z 000000014012dfa0 f i imgui.obj
 0002:0006b040       ?resize@?$ImVector@UImGuiPopupData@@@@QEAAXH@Z 000000014012e040 f i imgui.obj
 0002:0006b0e0       ?resize@?$ImVector@UImGuiStackLevelInfo@@@@QEAAXH@Z 000000014012e0e0 f i imgui.obj
 0002:0006b180       ?resize@?$ImVector@UImGuiStackLevelInfo@@@@QEAAXHAEBUImGuiStackLevelInfo@@@Z 000000014012e180 f i imgui.obj
 0002:0006b290       ?resize@?$ImVector@UImGuiTextRange@ImGuiTextFilter@@@@QEAAXH@Z 000000014012e290 f i imgui.obj
 0002:0006b330       ?resize@?$ImVector@UImGuiWindowStackData@@@@QEAAXH@Z 000000014012e330 f i imgui.obj
 0002:0006b3d0       ?resize@?$ImVector@_W@@QEAAXH@Z 000000014012e3d0 f i imgui.obj
 0002:0006b470       ?size@?$ImChunkStream@UImGuiTableSettings@@@@QEBAHXZ 000000014012e470 f i imgui.obj
 0002:0006b4c0       ?size@?$ImChunkStream@UImGuiWindowSettings@@@@QEBAHXZ 000000014012e4c0 f i imgui.obj
 0002:0006b510       ?size@ImGuiTextBuffer@@QEBAHXZ 000000014012e510 f i imgui.obj
 0002:0006b590       ?size@ImGuiTextIndex@@QEAAHXZ 000000014012e590 f i imgui.obj
 0002:0006b5e0       ?size_in_bytes@?$ImVector@UImGuiStoragePair@ImGuiStorage@@@@QEBAHXZ 000000014012e5e0 f i imgui.obj
 0002:0006b630       ?split@ImGuiTextRange@ImGuiTextFilter@@QEBAXDPEAU?$ImVector@UImGuiTextRange@ImGuiTextFilter@@@@@Z 000000014012e630 f   imgui.obj
 0002:0006b760       ?swap@?$ImVector@PEAUImGuiWindow@@@@QEAAXAEAU1@@Z 000000014012e760 f i imgui.obj
 0002:0006b860       ?swap@?$ImVector@UImGuiKeyRoutingData@@@@QEAAXAEAU1@@Z 000000014012e860 f i imgui.obj
 0002:0006b960       __local_stdio_printf_options 000000014012e960 f i imgui.obj
 0002:0006b9a0       __local_stdio_scanf_options 000000014012e9a0 f i imgui.obj
 0002:0006b9e0       _vfprintf_l                000000014012e9e0 f i imgui.obj
 0002:0006ba70       _vsnprintf                 000000014012ea70 f i imgui.obj
 0002:0006bb00       _vsnprintf_l               000000014012eb00 f i imgui.obj
 0002:0006bbe0       _vsscanf_l                 000000014012ebe0 f i imgui.obj
 0002:0006bc80       fabsf                      000000014012ec80 f i imgui.obj
 0002:0006bcd0       printf                     000000014012ecd0 f i imgui.obj
 0002:0006bdc0       sscanf                     000000014012edc0 f i imgui.obj
 0002:0006bea0       ??0?$ImVector@PEAD@@QEAA@XZ 000000014012eea0 f i imgui_demo.obj
 0002:0006bf20       ??0?$ImVector@PEAUMyDocument@@@@QEAA@XZ 000000014012ef20 f i imgui_demo.obj
 0002:0006bfa0       ??0?$ImVector@PEBD@@QEAA@XZ 000000014012efa0 f i imgui_demo.obj
 0002:0006c020       ??0?$ImVector@UMyDocument@@@@QEAA@XZ 000000014012f020 f i imgui_demo.obj
 0002:0006c0a0       ??0?$ImVector@UMyItem@?A0x1ed25892@@@@QEAA@XZ 000000014012f0a0 f i imgui_demo.obj
 0002:0006c120       ??0ExampleAppConsole@@QEAA@XZ 000000014012f120 f i imgui_demo.obj
 0002:0006c380       ??0ExampleAppDocuments@@QEAA@XZ 000000014012f380 f i imgui_demo.obj
 0002:0006c690       ??0ExampleAppLog@@QEAA@XZ  000000014012f690 f i imgui_demo.obj
 0002:0006c760       ??0ImColor@@QEAA@AEBUImVec4@@@Z 000000014012f760 f i imgui_demo.obj
 0002:0006c7d0       ??0ImColor@@QEAA@MMMM@Z    000000014012f7d0 f i imgui_demo.obj
 0002:0006c880       ??0MyDocument@@QEAA@PEBD_NAEBUImVec4@@@Z 000000014012f880 f i imgui_demo.obj
 0002:0006c980       ??1?$ImVector@PEAD@@QEAA@XZ 000000014012f980 f i imgui_demo.obj
 0002:0006ca00       ??1?$ImVector@PEAUMyDocument@@@@QEAA@XZ 000000014012fa00 f i imgui_demo.obj
 0002:0006ca80       ??1?$ImVector@PEBD@@QEAA@XZ 000000014012fa80 f i imgui_demo.obj
 0002:0006cb00       ??1?$ImVector@UMyDocument@@@@QEAA@XZ 000000014012fb00 f i imgui_demo.obj
 0002:0006cb80       ??1?$ImVector@UMyItem@?A0x1ed25892@@@@QEAA@XZ 000000014012fb80 f i imgui_demo.obj
 0002:0006cc00       ??1ExampleAppConsole@@QEAA@XZ 000000014012fc00 f i imgui_demo.obj
 0002:0006cd30       ??1ExampleAppDocuments@@QEAA@XZ 000000014012fd30 f i imgui_demo.obj
 0002:0006cd90       ??1ExampleAppLog@@QEAA@XZ  000000014012fd90 f i imgui_demo.obj
 0002:0006ce20       ??1ImGuiTextFilter@@QEAA@XZ 000000014012fe20 f i imgui_demo.obj
 0002:0006ce80       ??A?$ImVector@PEAD@@QEAAAEAPEADH@Z 000000014012fe80 f i imgui_demo.obj
 0002:0006cf30       ??A?$ImVector@PEAUMyDocument@@@@QEAAAEAPEAUMyDocument@@H@Z 000000014012ff30 f i imgui_demo.obj
 0002:0006cfe0       ??A?$ImVector@PEBD@@QEAAAEAPEBDH@Z 000000014012ffe0 f i imgui_demo.obj
 0002:0006d090       ??A?$ImVector@UImVec2@@@@QEAAAEAUImVec2@@H@Z 0000000140130090 f i imgui_demo.obj
 0002:0006d140       ??A?$ImVector@UMyDocument@@@@QEAAAEAUMyDocument@@H@Z 0000000140130140 f i imgui_demo.obj
 0002:0006d1f0       ??A?$ImVector@UMyItem@?A0x1ed25892@@@@QEAAAEAUMyItem@?A0x1ed25892@@H@Z 00000001401301f0 f i imgui_demo.obj
 0002:0006d2a0       ??AImGuiTextBuffer@@QEBADH@Z 00000001401302a0 f i imgui_demo.obj
 0002:0006d340       ??BImColor@@QEBA?AUImVec4@@XZ 0000000140130340 f i imgui_demo.obj
 0002:0006d3b0       ??BImColor@@QEBAIXZ        00000001401303b0 f i imgui_demo.obj
 0002:0006d410       ?AddLog@ExampleAppConsole@@QEAAXPEBDZZ 0000000140130410 f i imgui_demo.obj
 0002:0006d560       ?AddLog@ExampleAppLog@@QEAAXPEBDZZ 0000000140130560 f i imgui_demo.obj
 0002:0006d7d0       ?Clear@ExampleAppLog@@QEAAXXZ 00000001401307d0 f i imgui_demo.obj
 0002:0006d870       ?ClearLog@ExampleAppConsole@@QEAAXXZ 0000000140130870 f i imgui_demo.obj
 0002:0006db80       ?DisplayContents@MyDocument@@SAXPEAU1@@Z 0000000140130b80 f i imgui_demo.obj
 0002:0006dcf0       ?DisplayContextMenu@MyDocument@@SAXPEAU1@@Z 0000000140130cf0 f i imgui_demo.obj
 0002:0006e000       ?DoForceClose@MyDocument@@QEAAXXZ 0000000140131000 f i imgui_demo.obj
 0002:0006e060       ?DoOpen@MyDocument@@QEAAXXZ 0000000140131060 f i imgui_demo.obj
 0002:0006e0b0       ?DoQueueClose@MyDocument@@QEAAXXZ 00000001401310b0 f i imgui_demo.obj
 0002:0006e100       ?DoSave@MyDocument@@QEAAXXZ 0000000140131100 f i imgui_demo.obj
 0002:0006e150       ?Draw@ExampleAppConsole@@QEAAXPEBDPEA_N@Z 0000000140131150 f i imgui_demo.obj
 0002:0006e960       ?Draw@ExampleAppLog@@QEAAXPEBDPEA_N@Z 0000000140131960 f i imgui_demo.obj
 0002:0006f610       ?ExecCommand@ExampleAppConsole@@QEAAXPEBD@Z 0000000140132610 f i imgui_demo.obj
 0002:0006fa10       ?GetDebugName@ImFont@@QEBAPEBDXZ 0000000140132a10 f i imgui_demo.obj
 0002:0006faa0       ?HSV@ImColor@@SA?AU1@MMMM@Z 0000000140132aa0 f i imgui_demo.obj
 0002:0006fc60       ?IsActive@ImGuiTextFilter@@QEBA_NXZ 0000000140132c60 f i imgui_demo.obj
 0002:000704b0       ?SelectAll@ImGuiInputTextCallbackData@@QEAAXXZ 00000001401334b0 f i imgui_demo.obj
 0002:00070520       ?ShowAboutWindow@ImGui@@YAXPEA_N@Z 0000000140133520 f   imgui_demo.obj
 0002:00070d10       ?ShowDemoWindow@ImGui@@YAXPEA_N@Z 0000000140133d10 f   imgui_demo.obj
 0002:00091c30       ?ShowFontSelector@ImGui@@YAXPEBD@Z 0000000140154c30 f   imgui_demo.obj
 0002:00092030       ?ShowStyleEditor@ImGui@@YAXPEAUImGuiStyle@@@Z 0000000140155030 f   imgui_demo.obj
 0002:00093d30       ?ShowStyleSelector@ImGui@@YA_NPEBD@Z 0000000140156d30 f   imgui_demo.obj
 0002:00093ec0       ?ShowUserGuide@ImGui@@YAXXZ 0000000140156ec0 f   imgui_demo.obj
 0002:00094270       ?Strdup@ExampleAppConsole@@SAPEADPEBD@Z 0000000140157270 f i imgui_demo.obj
 0002:00094350       ?Stricmp@ExampleAppConsole@@SAHPEBD0@Z 0000000140157350 f i imgui_demo.obj
 0002:00094430       ?Strnicmp@ExampleAppConsole@@SAHPEBD0H@Z 0000000140157430 f i imgui_demo.obj
 0002:00094540       ?Strtrim@ExampleAppConsole@@SAXPEAD@Z 0000000140157540 f i imgui_demo.obj
 0002:000945f0       ?TextEditCallback@ExampleAppConsole@@QEAAHPEAUImGuiInputTextCallbackData@@@Z 00000001401575f0 f i imgui_demo.obj
 0002:00094d90       ?TextEditCallbackStub@ExampleAppConsole@@SAHPEAUImGuiInputTextCallbackData@@@Z 0000000140157d90 f i imgui_demo.obj
 0002:00094e00       ?_grow_capacity@?$ImVector@PEAD@@QEBAHH@Z 0000000140157e00 f i imgui_demo.obj
 0002:00094ed0       ?_grow_capacity@?$ImVector@PEAUMyDocument@@@@QEBAHH@Z 0000000140157ed0 f i imgui_demo.obj
 0002:00094fa0       ?_grow_capacity@?$ImVector@PEBD@@QEBAHH@Z 0000000140157fa0 f i imgui_demo.obj
 0002:00095070       ?_grow_capacity@?$ImVector@UMyDocument@@@@QEBAHH@Z 0000000140158070 f i imgui_demo.obj
 0002:00095140       ?_grow_capacity@?$ImVector@UMyItem@?A0x1ed25892@@@@QEBAHH@Z 0000000140158140 f i imgui_demo.obj
 0002:00095210       ?back@?$ImVector@D@@QEBAAEBDXZ 0000000140158210 f i imgui_demo.obj
 0002:000952b0       ?back@?$ImVector@UImVec2@@@@QEAAAEAUImVec2@@XZ 00000001401582b0 f i imgui_demo.obj
 0002:00095350       ?begin@?$ImVector@D@@QEAAPEADXZ 0000000140158350 f i imgui_demo.obj
 0002:000953a0       ?begin@?$ImVector@PEAD@@QEAAPEAPEADXZ 00000001401583a0 f i imgui_demo.obj
 0002:000953f0       ?capacity@?$ImVector@D@@QEBAHXZ 00000001401583f0 f i imgui_demo.obj
 0002:00095440       ?clear@?$ImVector@PEAD@@QEAAXXZ 0000000140158440 f i imgui_demo.obj
 0002:000954e0       ?clear@?$ImVector@PEAUMyDocument@@@@QEAAXXZ 00000001401584e0 f i imgui_demo.obj
 0002:00095580       ?contains@?$ImVector@H@@QEBA_NAEBH@Z 0000000140158580 f i imgui_demo.obj
 0002:00095680       ?empty@?$ImVector@D@@QEBA_NXZ 0000000140158680 f i imgui_demo.obj
 0002:00095700       ?empty@?$ImVector@PEAUMyDocument@@@@QEBA_NXZ 0000000140158700 f i imgui_demo.obj
 0002:00095780       ?end@ImGuiTextBuffer@@QEBAPEBDXZ 0000000140158780 f i imgui_demo.obj
 0002:00095810       ?erase@?$ImVector@H@@QEAAPEAHPEBH@Z 0000000140158810 f i imgui_demo.obj
 0002:00095990       ?erase@?$ImVector@PEAD@@QEAAPEAPEADPEBQEAD@Z 0000000140158990 f i imgui_demo.obj
 0002:00095b10       ?erase_unsorted@?$ImVector@H@@QEAAPEAHPEBH@Z 0000000140158b10 f i imgui_demo.obj
 0002:00095c90       ?find@?$ImVector@H@@QEAAPEAHAEBH@Z 0000000140158c90 f i imgui_demo.obj
 0002:00095d50       ?find_erase_unsorted@?$ImVector@H@@QEAA_NAEBH@Z 0000000140158d50 f i imgui_demo.obj
 0002:00095e00       ?memchr@@YAPEAXPEAXH_K@Z   0000000140158e00 f i imgui_demo.obj
 0002:00095e80       ?push_back@?$ImVector@PEAD@@QEAAXAEBQEAD@Z 0000000140158e80 f i imgui_demo.obj
 0002:00095f70       ?push_back@?$ImVector@PEAUMyDocument@@@@QEAAXAEBQEAUMyDocument@@@Z 0000000140158f70 f i imgui_demo.obj
 0002:00096060       ?push_back@?$ImVector@PEBD@@QEAAXAEBQEBD@Z 0000000140159060 f i imgui_demo.obj
 0002:00096150       ?push_back@?$ImVector@UMyDocument@@@@QEAAXAEBUMyDocument@@@Z 0000000140159150 f i imgui_demo.obj
 0002:00096240       ?reserve@?$ImVector@PEAD@@QEAAXH@Z 0000000140159240 f i imgui_demo.obj
 0002:00096340       ?reserve@?$ImVector@PEAUMyDocument@@@@QEAAXH@Z 0000000140159340 f i imgui_demo.obj
 0002:00096440       ?reserve@?$ImVector@PEBD@@QEAAXH@Z 0000000140159440 f i imgui_demo.obj
 0002:00096540       ?reserve@?$ImVector@UMyDocument@@@@QEAAXH@Z 0000000140159540 f i imgui_demo.obj
 0002:00096640       ?reserve@?$ImVector@UMyItem@?A0x1ed25892@@@@QEAAXH@Z 0000000140159640 f i imgui_demo.obj
 0002:00096740       ?resize@?$ImVector@UImVec2@@@@QEAAXH@Z 0000000140159740 f i imgui_demo.obj
 0002:000967e0       ?resize@?$ImVector@UMyItem@?A0x1ed25892@@@@QEAAXHAEBUMyItem@?A0x1ed25892@@@Z 00000001401597e0 f i imgui_demo.obj
 0002:000968f0       ?size@?$ImVector@D@@QEBAHXZ 00000001401598f0 f i imgui_demo.obj
 0002:00096940       ?size@?$ImVector@UImVec2@@@@QEBAHXZ 0000000140159940 f i imgui_demo.obj
 0002:00096990       _snprintf                  0000000140159990 f i imgui_demo.obj
 0002:00096a70       _vsprintf_l                0000000140159a70 f i imgui_demo.obj
 0002:00096b00       sprintf                    0000000140159b00 f i imgui_demo.obj
 0002:00096be0       ??$IM_DELETE@UImFont@@@@YAXPEAUImFont@@@Z 0000000140159be0 f i imgui_draw.obj
 0002:00097090       ??0?$ImVector@UImFontAtlasCustomRect@@@@QEAA@XZ 000000014015a090 f i imgui_draw.obj
 0002:00097110       ??0?$ImVector@UImFontBuildDstData@@@@QEAA@XZ 000000014015a110 f i imgui_draw.obj
 0002:00097190       ??0?$ImVector@UImFontBuildSrcData@@@@QEAA@XZ 000000014015a190 f i imgui_draw.obj
 0002:00097210       ??0?$ImVector@UImFontConfig@@@@QEAA@XZ 000000014015a210 f i imgui_draw.obj
 0002:00097290       ??0?$ImVector@UImFontGlyph@@@@QEAA@XZ 000000014015a290 f i imgui_draw.obj
 0002:00097310       ??0?$ImVector@Ustbrp_rect@@@@QEAA@XZ 000000014015a310 f i imgui_draw.obj
 0002:00097390       ??0?$ImVector@Ustbtt_packedchar@@@@QEAA@XZ 000000014015a390 f i imgui_draw.obj
 0002:00097410       ??0ImDrawChannel@@QEAA@XZ  000000014015a410 f i imgui_draw.obj
 0002:000974a0       ??0ImDrawCmd@@QEAA@XZ      000000014015a4a0 f i imgui_draw.obj
 0002:00097520       ??0ImDrawListSharedData@@QEAA@XZ 000000014015a520 f   imgui_draw.obj
 0002:00097720       ??0ImFont@@QEAA@XZ         000000014015a720 f   imgui_draw.obj
 0002:00097910       ??0ImFontAtlas@@QEAA@XZ    000000014015a910 f   imgui_draw.obj
 0002:00097a70       ??0ImFontAtlasCustomRect@@QEAA@XZ 000000014015aa70 f i imgui_draw.obj
 0002:00097b80       ??0ImFontConfig@@QEAA@XZ   000000014015ab80 f   imgui_draw.obj
 0002:00097c90       ??1?$ImVector@UImFontAtlasCustomRect@@@@QEAA@XZ 000000014015ac90 f i imgui_draw.obj
 0002:00097d10       ??1?$ImVector@UImFontBuildDstData@@@@QEAA@XZ 000000014015ad10 f i imgui_draw.obj
 0002:00097d90       ??1?$ImVector@UImFontBuildSrcData@@@@QEAA@XZ 000000014015ad90 f i imgui_draw.obj
 0002:00097e10       ??1?$ImVector@UImFontConfig@@@@QEAA@XZ 000000014015ae10 f i imgui_draw.obj
 0002:00097e90       ??1?$ImVector@UImFontGlyph@@@@QEAA@XZ 000000014015ae90 f i imgui_draw.obj
 0002:00097f10       ??1?$ImVector@Ustbrp_rect@@@@QEAA@XZ 000000014015af10 f i imgui_draw.obj
 0002:00097f90       ??1?$ImVector@Ustbtt_packedchar@@@@QEAA@XZ 000000014015af90 f i imgui_draw.obj
 0002:00098010       ??1ImBitVector@@QEAA@XZ    000000014015b010 f i imgui_draw.obj
 0002:00098070       ??1ImFont@@QEAA@XZ         000000014015b070 f   imgui_draw.obj
 0002:00098120       ??1ImFontAtlas@@QEAA@XZ    000000014015b120 f   imgui_draw.obj
 0002:00098220       ??1ImFontBuildSrcData@@QEAA@XZ 000000014015b220 f i imgui_draw.obj
 0002:000982a0       ??4?$ImVector@G@@QEAAAEAU0@AEBU0@@Z 000000014015b2a0 f i imgui_draw.obj
 0002:00098360       ??4?$ImVector@UImDrawCmd@@@@QEAAAEAU0@AEBU0@@Z 000000014015b360 f i imgui_draw.obj
 0002:00098430       ??4?$ImVector@UImDrawVert@@@@QEAAAEAU0@AEBU0@@Z 000000014015b430 f i imgui_draw.obj
 0002:00098500       ??A?$ImVector@I@@QEBAAEBIH@Z 000000014015b500 f i imgui_draw.obj
 0002:000985b0       ??A?$ImVector@UImDrawChannel@@@@QEAAAEAUImDrawChannel@@H@Z 000000014015b5b0 f i imgui_draw.obj
 0002:00098660       ??A?$ImVector@UImDrawVert@@@@QEAAAEAUImDrawVert@@H@Z 000000014015b660 f i imgui_draw.obj
 0002:00098710       ??A?$ImVector@UImFontAtlasCustomRect@@@@QEAAAEAUImFontAtlasCustomRect@@H@Z 000000014015b710 f i imgui_draw.obj
 0002:000987c0       ??A?$ImVector@UImFontBuildDstData@@@@QEAAAEAUImFontBuildDstData@@H@Z 000000014015b7c0 f i imgui_draw.obj
 0002:00098870       ??A?$ImVector@UImFontBuildSrcData@@@@QEAAAEAUImFontBuildSrcData@@H@Z 000000014015b870 f i imgui_draw.obj
 0002:00098920       ??A?$ImVector@UImFontConfig@@@@QEAAAEAUImFontConfig@@H@Z 000000014015b920 f i imgui_draw.obj
 0002:000989d0       ??A?$ImVector@UImFontGlyph@@@@QEAAAEAUImFontGlyph@@H@Z 000000014015b9d0 f i imgui_draw.obj
 0002:00098a80       ??A?$ImVector@Ustbrp_rect@@@@QEAAAEAUstbrp_rect@@H@Z 000000014015ba80 f i imgui_draw.obj
 0002:00098b30       ??A?$ImVector@Ustbtt_packedchar@@@@QEAAAEAUstbtt_packedchar@@H@Z 000000014015bb30 f i imgui_draw.obj
 0002:00098e00       ??_GImFont@@QEAAPEAXI@Z    000000014015be00 f i imgui_draw.obj
 0002:00098e90       ??_GImFontBuildSrcData@@QEAAPEAXI@Z 000000014015be90 f i imgui_draw.obj
 0002:00098f20       ?AddBezierCubic@ImDrawList@@QEAAXAEBUImVec2@@000IMH@Z 000000014015bf20 f   imgui_draw.obj
 0002:00099000       ?AddBezierQuadratic@ImDrawList@@QEAAXAEBUImVec2@@00IMH@Z 000000014015c000 f   imgui_draw.obj
 0002:000990d0       ?AddCallback@ImDrawList@@QEAAXP6AXPEBU1@PEBUImDrawCmd@@@ZPEAX@Z 000000014015c0d0 f   imgui_draw.obj
 0002:00099200       ?AddChar@ImFontGlyphRangesBuilder@@QEAAXG@Z 000000014015c200 f i imgui_draw.obj
 0002:00099270       ?AddCircle@ImDrawList@@QEAAXAEBUImVec2@@MIHM@Z 000000014015c270 f   imgui_draw.obj
 0002:00099440       ?AddCircleFilled@ImDrawList@@QEAAXAEBUImVec2@@MIH@Z 000000014015c440 f   imgui_draw.obj
 0002:000995f0       ?AddConvexPolyFilled@ImDrawList@@QEAAXPEBUImVec2@@HI@Z 000000014015c5f0 f   imgui_draw.obj
 0002:0009a200       ?AddCustomRectFontGlyph@ImFontAtlas@@QEAAHPEAUImFont@@GHHMAEBUImVec2@@@Z 000000014015d200 f   imgui_draw.obj
 0002:0009a3f0       ?AddCustomRectRegular@ImFontAtlas@@QEAAHHH@Z 000000014015d3f0 f   imgui_draw.obj
 0002:0009a560       ?AddDrawCmd@ImDrawList@@QEAAXXZ 000000014015d560 f   imgui_draw.obj
 0002:0009a6b0       ?AddFont@ImFontAtlas@@QEAAPEAUImFont@@PEBUImFontConfig@@@Z 000000014015d6b0 f   imgui_draw.obj
 0002:0009aa60       ?AddFontDefault@ImFontAtlas@@QEAAPEAUImFont@@PEBUImFontConfig@@@Z 000000014015da60 f   imgui_draw.obj
 0002:0009acc0       ?AddFontFromFileTTF@ImFontAtlas@@QEAAPEAUImFont@@PEBDMPEBUImFontConfig@@PEBG@Z 000000014015dcc0 f   imgui_draw.obj
 0002:0009afd0       ?AddFontFromMemoryCompressedBase85TTF@ImFontAtlas@@QEAAPEAUImFont@@PEBDMPEBUImFontConfig@@PEBG@Z 000000014015dfd0 f   imgui_draw.obj
 0002:0009b0d0       ?AddFontFromMemoryCompressedTTF@ImFontAtlas@@QEAAPEAUImFont@@PEBXHMPEBUImFontConfig@@PEBG@Z 000000014015e0d0 f   imgui_draw.obj
 0002:0009b2b0       ?AddFontFromMemoryTTF@ImFontAtlas@@QEAAPEAUImFont@@PEAXHMPEBUImFontConfig@@PEBG@Z 000000014015e2b0 f   imgui_draw.obj
 0002:0009b4e0       ?AddGlyph@ImFont@@QEAAXPEBUImFontConfig@@GMMMMMMMMM@Z 000000014015e4e0 f   imgui_draw.obj
 0002:0009b930       ?AddImage@ImDrawList@@QEAAXPEAXAEBUImVec2@@111I@Z 000000014015e930 f   imgui_draw.obj
 0002:0009ba80       ?AddImageQuad@ImDrawList@@QEAAXPEAXAEBUImVec2@@1111111I@Z 000000014015ea80 f   imgui_draw.obj
 0002:0009bc10       ?AddImageRounded@ImDrawList@@QEAAXPEAXAEBUImVec2@@111IMH@Z 000000014015ec10 f   imgui_draw.obj
 0002:0009be60       ?AddLine@ImDrawList@@QEAAXAEBUImVec2@@0IM@Z 000000014015ee60 f   imgui_draw.obj
 0002:0009bfa0       ?AddNgon@ImDrawList@@QEAAXAEBUImVec2@@MIHM@Z 000000014015efa0 f   imgui_draw.obj
 0002:0009c0d0       ?AddNgonFilled@ImDrawList@@QEAAXAEBUImVec2@@MIH@Z 000000014015f0d0 f   imgui_draw.obj
 0002:0009c1e0       ?AddPolyline@ImDrawList@@QEAAXPEBUImVec2@@HIHM@Z 000000014015f1e0 f   imgui_draw.obj
 0002:0009eb90       ?AddQuad@ImDrawList@@QEAAXAEBUImVec2@@000IM@Z 0000000140161b90 f   imgui_draw.obj
 0002:0009ec80       ?AddQuadFilled@ImDrawList@@QEAAXAEBUImVec2@@000I@Z 0000000140161c80 f   imgui_draw.obj
 0002:0009ed60       ?AddRanges@ImFontGlyphRangesBuilder@@QEAAXPEBG@Z 0000000140161d60 f   imgui_draw.obj
 0002:0009ee50       ?AddRect@ImDrawList@@QEAAXAEBUImVec2@@0IMHM@Z 0000000140161e50 f   imgui_draw.obj
 0002:0009f080       ?AddRectFilled@ImDrawList@@QEAAXAEBUImVec2@@0IMH@Z 0000000140162080 f   imgui_draw.obj
 0002:0009f1b0       ?AddRectFilledMultiColor@ImDrawList@@QEAAXAEBUImVec2@@0IIII@Z 00000001401621b0 f   imgui_draw.obj
 0002:0009f450       ?AddRemapChar@ImFont@@QEAAXGG_N@Z 0000000140162450 f   imgui_draw.obj
 0002:0009f660       ?AddText@ImDrawList@@QEAAXAEBUImVec2@@IPEBD1@Z 0000000140162660 f   imgui_draw.obj
 0002:0009f720       ?AddText@ImDrawList@@QEAAXPEBUImFont@@MAEBUImVec2@@IPEBD2MPEBUImVec4@@@Z 0000000140162720 f   imgui_draw.obj
 0002:0009fa20       ?AddText@ImFontGlyphRangesBuilder@@QEAAXPEBD0@Z 0000000140162a20 f   imgui_draw.obj
 0002:0009fb90       ?AddTriangle@ImDrawList@@QEAAXAEBUImVec2@@00IM@Z 0000000140162b90 f   imgui_draw.obj
 0002:0009fc70       ?AddTriangleFilled@ImDrawList@@QEAAXAEBUImVec2@@00I@Z 0000000140162c70 f   imgui_draw.obj
 0002:0009fd40       ?Build@ImFontAtlas@@QEAA_NXZ 0000000140162d40 f   imgui_draw.obj
 0002:0009fe30       ?BuildLookupTable@ImFont@@QEAAXXZ 0000000140162e30 f   imgui_draw.obj
 0002:000a0690       ?BuildRanges@ImFontGlyphRangesBuilder@@QEAAXPEAU?$ImVector@G@@@Z 0000000140163690 f   imgui_draw.obj
 0002:000a07e0       ?CalcCustomRectUV@ImFontAtlas@@QEBAXPEBUImFontAtlasCustomRect@@PEAUImVec2@@1@Z 00000001401637e0 f   imgui_draw.obj
 0002:000a09b0       ?CalcTextSizeA@ImFont@@QEBA?AUImVec2@@MMMPEBD0PEAPEBD@Z 00000001401639b0 f   imgui_draw.obj
 0002:000a0f20       ?CalcWordWrapPositionA@ImFont@@QEBAPEBDMPEBD0M@Z 0000000140163f20 f   imgui_draw.obj
 0002:000a1400       ?Clear@ImBitVector@@QEAAXXZ 0000000140164400 f i imgui_draw.obj
 0002:000a1430       ?Clear@ImDrawListSplitter@@QEAAXXZ 0000000140164430 f i imgui_draw.obj
 0002:000a1490       ?Clear@ImFontAtlas@@QEAAXXZ 0000000140164490 f   imgui_draw.obj
 0002:000a1500       ?ClearFonts@ImFontAtlas@@QEAAXXZ 0000000140164500 f   imgui_draw.obj
 0002:000a15c0       ?ClearFreeMemory@ImDrawListSplitter@@QEAAXXZ 00000001401645c0 f   imgui_draw.obj
 0002:000a1700       ?ClearInputData@ImFontAtlas@@QEAAXXZ 0000000140164700 f   imgui_draw.obj
 0002:000a19b0       ?ClearOutputData@ImFont@@QEAAXXZ 00000001401649b0 f   imgui_draw.obj
 0002:000a1ad0       ?ClearTexData@ImFontAtlas@@QEAAXXZ 0000000140164ad0 f   imgui_draw.obj
 0002:000a1be0       ?CloneOutput@ImDrawList@@QEBAPEAU1@XZ 0000000140164be0 f   imgui_draw.obj
 0002:000a1d60       ?Create@ImBitVector@@QEAAXH@Z 0000000140164d60 f i imgui_draw.obj
 0002:000a1dc0       ?DeIndexAllBuffers@ImDrawData@@QEAAXXZ 0000000140164dc0 f   imgui_draw.obj
 0002:000a2360       ?FindGlyph@ImFont@@QEBAPEBUImFontGlyph@@G@Z 0000000140165360 f   imgui_draw.obj
 0002:000a2430       ?FindGlyphNoFallback@ImFont@@QEBAPEBUImFontGlyph@@G@Z 0000000140165430 f   imgui_draw.obj
 0002:000a25e0       ?GetBit@ImFontGlyphRangesBuilder@@QEBA_N_K@Z 00000001401655e0 f i imgui_draw.obj
 0002:000a26b0       ?GetCustomRectByIndex@ImFontAtlas@@QEAAPEAUImFontAtlasCustomRect@@H@Z 00000001401656b0 f i imgui_draw.obj
 0002:000a2790       ?GetGlyphRangesChineseFull@ImFontAtlas@@QEAAPEBGXZ 0000000140165790 f   imgui_draw.obj
 0002:000a27f0       ?GetGlyphRangesChineseSimplifiedCommon@ImFontAtlas@@QEAAPEBGXZ 00000001401657f0 f   imgui_draw.obj
 0002:000a28c0       ?GetGlyphRangesCyrillic@ImFontAtlas@@QEAAPEBGXZ 00000001401658c0 f   imgui_draw.obj
 0002:000a2920       ?GetGlyphRangesDefault@ImFontAtlas@@QEAAPEBGXZ 0000000140165920 f   imgui_draw.obj
 0002:000a2980       ?GetGlyphRangesGreek@ImFontAtlas@@QEAAPEBGXZ 0000000140165980 f   imgui_draw.obj
 0002:000a29e0       ?GetGlyphRangesJapanese@ImFontAtlas@@QEAAPEBGXZ 00000001401659e0 f   imgui_draw.obj
 0002:000a2ab0       ?GetGlyphRangesKorean@ImFontAtlas@@QEAAPEBGXZ 0000000140165ab0 f   imgui_draw.obj
 0002:000a2b10       ?GetGlyphRangesThai@ImFontAtlas@@QEAAPEBGXZ 0000000140165b10 f   imgui_draw.obj
 0002:000a2b70       ?GetGlyphRangesVietnamese@ImFontAtlas@@QEAAPEBGXZ 0000000140165b70 f   imgui_draw.obj
 0002:000a2bd0       ?GetMouseCursorTexData@ImFontAtlas@@QEAA_NHPEAUImVec2@@0QEAU2@1@Z 0000000140165bd0 f   imgui_draw.obj
 0002:000a2f70       ?GetTexDataAsAlpha8@ImFontAtlas@@QEAAXPEAPEAEPEAH11@Z 0000000140165f70 f   imgui_draw.obj
 0002:000a3070       ?GetTexDataAsRGBA32@ImFontAtlas@@QEAAXPEAPEAEPEAH11@Z 0000000140166070 f   imgui_draw.obj
 0002:000a32b0       ?GrowIndex@ImFont@@QEAAXH@Z 00000001401662b0 f   imgui_draw.obj
 0002:000a34b0       ?ImBezierCubicCalc@@YA?AUImVec2@@AEBU1@000M@Z 00000001401664b0 f   imgui_draw.obj
 0002:000a36a0       ?ImBezierQuadraticCalc@@YA?AUImVec2@@AEBU1@00M@Z 00000001401666a0 f   imgui_draw.obj
 0002:000a3ab0       ?ImFontAtlasBuildFinish@@YAXPEAUImFontAtlas@@@Z 0000000140166ab0 f   imgui_draw.obj
 0002:000a3e00       ?ImFontAtlasBuildInit@@YAXPEAUImFontAtlas@@@Z 0000000140166e00 f   imgui_draw.obj
 0002:000a3f20       ?ImFontAtlasBuildMultiplyCalcLookupTable@@YAXQEAEM@Z 0000000140166f20 f   imgui_draw.obj
 0002:000a3ff0       ?ImFontAtlasBuildMultiplyRectAlpha8@@YAXQEBEPEAEHHHHH@Z 0000000140166ff0 f   imgui_draw.obj
 0002:000a4110       ?ImFontAtlasBuildPackCustomRects@@YAXPEAUImFontAtlas@@PEAX@Z 0000000140167110 f   imgui_draw.obj
 0002:000a4520       ?ImFontAtlasBuildRender32bppRectFromString@@YAXPEAUImFontAtlas@@HHHHPEBDDI@Z 0000000140167520 f   imgui_draw.obj
 0002:000a4750       ?ImFontAtlasBuildRender8bppRectFromString@@YAXPEAUImFontAtlas@@HHHHPEBDDE@Z 0000000140167750 f   imgui_draw.obj
 0002:000a5450       ?ImFontAtlasBuildSetupFont@@YAXPEAUImFontAtlas@@PEAUImFont@@PEAUImFontConfig@@MM@Z 0000000140168450 f   imgui_draw.obj
 0002:000a7180       ?ImFontAtlasGetBuilderForStbTruetype@@YAPEBUImFontBuilderIO@@XZ 000000014016a180 f   imgui_draw.obj
 0002:000a7730       ?IsGlyphRangeUnused@ImFont@@QEAA_NII@Z 000000014016a730 f   imgui_draw.obj
 0002:000a7820       ?IsPacked@ImFontAtlasCustomRect@@QEBA_NXZ 000000014016a820 f i imgui_draw.obj
 0002:000a78a0       ?Merge@ImDrawListSplitter@@QEAAXPEAUImDrawList@@@Z 000000014016a8a0 f   imgui_draw.obj
 0002:000a7f60       ?PathArcTo@ImDrawList@@QEAAXAEBUImVec2@@MMMH@Z 000000014016af60 f   imgui_draw.obj
 0002:000a8630       ?PathArcToFast@ImDrawList@@QEAAXAEBUImVec2@@MHH@Z 000000014016b630 f   imgui_draw.obj
 0002:000a8730       ?PathBezierCubicCurveTo@ImDrawList@@QEAAXAEBUImVec2@@00H@Z 000000014016b730 f   imgui_draw.obj
 0002:000a8f40       ?PathBezierQuadraticCurveTo@ImDrawList@@QEAAXAEBUImVec2@@0H@Z 000000014016bf40 f   imgui_draw.obj
 0002:000a94e0       ?PathRect@ImDrawList@@QEAAXAEBUImVec2@@0MH@Z 000000014016c4e0 f   imgui_draw.obj
 0002:000a9a30       ?PopClipRect@ImDrawList@@QEAAXXZ 000000014016ca30 f   imgui_draw.obj
 0002:000a9b30       ?PopTextureID@ImDrawList@@QEAAXXZ 000000014016cb30 f   imgui_draw.obj
 0002:000a9c00       ?PrimQuadUV@ImDrawList@@QEAAXAEBUImVec2@@0000000I@Z 000000014016cc00 f   imgui_draw.obj
 0002:000a9f90       ?PrimRect@ImDrawList@@QEAAXAEBUImVec2@@0I@Z 000000014016cf90 f   imgui_draw.obj
 0002:000aa3a0       ?PrimRectUV@ImDrawList@@QEAAXAEBUImVec2@@000I@Z 000000014016d3a0 f   imgui_draw.obj
 0002:000aa810       ?PrimReserve@ImDrawList@@QEAAXHH@Z 000000014016d810 f   imgui_draw.obj
 0002:000aa9c0       ?PrimUnreserve@ImDrawList@@QEAAXHH@Z 000000014016d9c0 f   imgui_draw.obj
 0002:000aaab0       ?PrimWriteIdx@ImDrawList@@QEAAXG@Z 000000014016dab0 f i imgui_draw.obj
 0002:000aab30       ?PrimWriteVtx@ImDrawList@@QEAAXAEBUImVec2@@0I@Z 000000014016db30 f i imgui_draw.obj
 0002:000aac20       ?PushClipRect@ImDrawList@@QEAAXAEBUImVec2@@0_N@Z 000000014016dc20 f   imgui_draw.obj
 0002:000aae20       ?PushClipRectFullScreen@ImDrawList@@QEAAXXZ 000000014016de20 f   imgui_draw.obj
 0002:000aaf00       ?PushTextureID@ImDrawList@@QEAAXPEAX@Z 000000014016df00 f   imgui_draw.obj
 0002:000aafa0       ?RenderArrow@ImGui@@YAXPEAUImDrawList@@UImVec2@@IHM@Z 000000014016dfa0 f   imgui_draw.obj
 0002:000ab420       ?RenderArrowPointingAt@ImGui@@YAXPEAUImDrawList@@UImVec2@@1HI@Z 000000014016e420 f   imgui_draw.obj
 0002:000ab7b0       ?RenderBullet@ImGui@@YAXPEAUImDrawList@@UImVec2@@I@Z 000000014016e7b0 f   imgui_draw.obj
 0002:000ab850       ?RenderChar@ImFont@@QEBAXPEAUImDrawList@@MAEBUImVec2@@IG@Z 000000014016e850 f   imgui_draw.obj
 0002:000abb10       ?RenderCheckMark@ImGui@@YAXPEAUImDrawList@@UImVec2@@IM@Z 000000014016eb10 f   imgui_draw.obj
 0002:000abd60       ?RenderColorRectWithAlphaCheckerboard@ImGui@@YAXPEAUImDrawList@@UImVec2@@1IM1MH@Z 000000014016ed60 f   imgui_draw.obj
 0002:000ac260       ?RenderRectFilledRangeH@ImGui@@YAXPEAUImDrawList@@AEBUImRect@@IMMM@Z 000000014016f260 f   imgui_draw.obj
 0002:000acbf0       ?RenderRectFilledWithHole@ImGui@@YAXPEAUImDrawList@@AEBUImRect@@1IM@Z 000000014016fbf0 f   imgui_draw.obj
 0002:000ad4c0       ?RenderText@ImFont@@QEBAXPEAUImDrawList@@MAEBUImVec2@@IAEBUImVec4@@PEBD3M_N@Z 00000001401704c0 f   imgui_draw.obj
 0002:000ae5f0       ?ScaleClipRects@ImDrawData@@QEAAXAEBUImVec2@@@Z 00000001401715f0 f   imgui_draw.obj
 0002:000ae780       ?SetBit@ImBitVector@@QEAAXH@Z 0000000140171780 f i imgui_draw.obj
 0002:000ae7f0       ?SetBit@ImFontGlyphRangesBuilder@@QEAAX_K@Z 00000001401717f0 f i imgui_draw.obj
 0002:000ae8c0       ?SetCircleTessellationMaxError@ImDrawListSharedData@@QEAAXM@Z 00000001401718c0 f   imgui_draw.obj
 0002:000aeaf0       ?SetCurrentChannel@ImDrawListSplitter@@QEAAXPEAUImDrawList@@H@Z 0000000140171af0 f   imgui_draw.obj
 0002:000aedd0       ?SetGlyphVisible@ImFont@@QEAAXG_N@Z 0000000140171dd0 f   imgui_draw.obj
 0002:000aeea0       ?ShadeVertsLinearColorGradientKeepAlpha@ImGui@@YAXPEAUImDrawList@@HHUImVec2@@1II@Z 0000000140171ea0 f   imgui_draw.obj
 0002:000af1e0       ?ShadeVertsLinearUV@ImGui@@YAXPEAUImDrawList@@HHAEBUImVec2@@111_N@Z 00000001401721e0 f   imgui_draw.obj
 0002:000af5a0       ?Split@ImDrawListSplitter@@QEAAXPEAUImDrawList@@H@Z 00000001401725a0 f   imgui_draw.obj
 0002:000af850       ?StyleColorsClassic@ImGui@@YAXPEAUImGuiStyle@@@Z 0000000140172850 f   imgui_draw.obj
 0002:000b0c60       ?StyleColorsDark@ImGui@@YAXPEAUImGuiStyle@@@Z 0000000140173c60 f   imgui_draw.obj
 0002:000b2080       ?StyleColorsLight@ImGui@@YAXPEAUImGuiStyle@@@Z 0000000140175080 f   imgui_draw.obj
 0002:000b34a0       ?TestBit@ImBitVector@@QEBA_NH@Z 00000001401764a0 f i imgui_draw.obj
 0002:000b3810       ?_CalcCircleAutoSegmentCount@ImDrawList@@QEBAHM@Z 0000000140176810 f   imgui_draw.obj
 0002:000b3930       ?_ClearFreeMemory@ImDrawList@@QEAAXXZ 0000000140176930 f   imgui_draw.obj
 0002:000b3a60       ?_OnChangedClipRect@ImDrawList@@QEAAXXZ 0000000140176a60 f   imgui_draw.obj
 0002:000b3c10       ?_OnChangedTextureID@ImDrawList@@QEAAXXZ 0000000140176c10 f   imgui_draw.obj
 0002:000b3db0       ?_OnChangedVtxOffset@ImDrawList@@QEAAXXZ 0000000140176db0 f   imgui_draw.obj
 0002:000b3ea0       ?_PathArcToFastEx@ImDrawList@@QEAAXAEBUImVec2@@MHHH@Z 0000000140176ea0 f   imgui_draw.obj
 0002:000b44e0       ?_PathArcToN@ImDrawList@@QEAAXAEBUImVec2@@MMMH@Z 00000001401774e0 f   imgui_draw.obj
 0002:000b46c0       ?_PopUnusedDrawCmd@ImDrawList@@QEAAXXZ 00000001401776c0 f   imgui_draw.obj
 0002:000b4770       ?_ResetForNewFrame@ImDrawList@@QEAAXXZ 0000000140177770 f   imgui_draw.obj
 0002:000b4920       ?_TryMergeDrawCmds@ImDrawList@@QEAAXXZ 0000000140177920 f   imgui_draw.obj
 0002:000b4a20       ?_grow_capacity@?$ImVector@PEAX@@QEBAHH@Z 0000000140177a20 f i imgui_draw.obj
 0002:000b4af0       ?_grow_capacity@?$ImVector@UImDrawChannel@@@@QEBAHH@Z 0000000140177af0 f i imgui_draw.obj
 0002:000b4bc0       ?_grow_capacity@?$ImVector@UImDrawVert@@@@QEBAHH@Z 0000000140177bc0 f i imgui_draw.obj
 0002:000b4c90       ?_grow_capacity@?$ImVector@UImFontAtlasCustomRect@@@@QEBAHH@Z 0000000140177c90 f i imgui_draw.obj
 0002:000b4d60       ?_grow_capacity@?$ImVector@UImFontBuildDstData@@@@QEBAHH@Z 0000000140177d60 f i imgui_draw.obj
 0002:000b4e30       ?_grow_capacity@?$ImVector@UImFontBuildSrcData@@@@QEBAHH@Z 0000000140177e30 f i imgui_draw.obj
 0002:000b4f00       ?_grow_capacity@?$ImVector@UImFontConfig@@@@QEBAHH@Z 0000000140177f00 f i imgui_draw.obj
 0002:000b4fd0       ?_grow_capacity@?$ImVector@UImFontGlyph@@@@QEBAHH@Z 0000000140177fd0 f i imgui_draw.obj
 0002:000b50a0       ?_grow_capacity@?$ImVector@UImVec4@@@@QEBAHH@Z 00000001401780a0 f i imgui_draw.obj
 0002:000b5170       ?_grow_capacity@?$ImVector@Ustbrp_rect@@@@QEBAHH@Z 0000000140178170 f i imgui_draw.obj
 0002:000b5240       ?_grow_capacity@?$ImVector@Ustbtt_packedchar@@@@QEBAHH@Z 0000000140178240 f i imgui_draw.obj
 0002:000b5310       ?back@?$ImVector@UImFontConfig@@@@QEAAAEAUImFontConfig@@XZ 0000000140178310 f i imgui_draw.obj
 0002:000b53b0       ?back@?$ImVector@UImFontGlyph@@@@QEAAAEAUImFontGlyph@@XZ 00000001401783b0 f i imgui_draw.obj
 0002:000b5450       ?begin@?$ImVector@I@@QEBAPEBIXZ 0000000140178450 f i imgui_draw.obj
 0002:000b54a0       ?clear@?$ImVector@PEAX@@QEAAXXZ 00000001401784a0 f i imgui_draw.obj
 0002:000b5540       ?clear@?$ImVector@UImDrawCmd@@@@QEAAXXZ 0000000140178540 f i imgui_draw.obj
 0002:000b55e0       ?clear@?$ImVector@UImDrawVert@@@@QEAAXXZ 00000001401785e0 f i imgui_draw.obj
 0002:000b5680       ?clear@?$ImVector@UImFontAtlasCustomRect@@@@QEAAXXZ 0000000140178680 f i imgui_draw.obj
 0002:000b5720       ?clear@?$ImVector@UImFontBuildDstData@@@@QEAAXXZ 0000000140178720 f i imgui_draw.obj
 0002:000b57c0       ?clear@?$ImVector@UImFontBuildSrcData@@@@QEAAXXZ 00000001401787c0 f i imgui_draw.obj
 0002:000b5860       ?clear@?$ImVector@UImFontConfig@@@@QEAAXXZ 0000000140178860 f i imgui_draw.obj
 0002:000b5900       ?clear@?$ImVector@UImFontGlyph@@@@QEAAXXZ 0000000140178900 f i imgui_draw.obj
 0002:000b59a0       ?clear@?$ImVector@UImVec4@@@@QEAAXXZ 00000001401789a0 f i imgui_draw.obj
 0002:000b5a40       ?clear@?$ImVector@Ustbrp_rect@@@@QEAAXXZ 0000000140178a40 f i imgui_draw.obj
 0002:000b5ae0       ?clear_delete@?$ImVector@PEAUImFont@@@@QEAAXXZ 0000000140178ae0 f i imgui_draw.obj
 0002:000b5b80       ?clear_destruct@?$ImVector@UImFontBuildSrcData@@@@QEAAXXZ 0000000140178b80 f i imgui_draw.obj
 0002:000b5c30       ?empty@?$ImVector@G@@QEBA_NXZ 0000000140178c30 f i imgui_draw.obj
 0002:000b5cb0       ?empty@?$ImVector@I@@QEBA_NXZ 0000000140178cb0 f i imgui_draw.obj
 0002:000b5d30       ?end@?$ImVector@I@@QEBAPEBIXZ 0000000140178d30 f i imgui_draw.obj
 0002:000b5d90       ?erase@?$ImVector@UImDrawCmd@@@@QEAAPEAUImDrawCmd@@PEBU2@@Z 0000000140178d90 f i imgui_draw.obj
 0002:000b5f10       ?pop_back@?$ImVector@PEAX@@QEAAXXZ 0000000140178f10 f i imgui_draw.obj
 0002:000b5fa0       ?pop_back@?$ImVector@UImVec4@@@@QEAAXXZ 0000000140178fa0 f i imgui_draw.obj
 0002:000b6030       ?push_back@?$ImVector@PEAX@@QEAAXAEBQEAX@Z 0000000140179030 f i imgui_draw.obj
 0002:000b6120       ?push_back@?$ImVector@UImFontAtlasCustomRect@@@@QEAAXAEBUImFontAtlasCustomRect@@@Z 0000000140179120 f i imgui_draw.obj
 0002:000b6210       ?push_back@?$ImVector@UImFontConfig@@@@QEAAXAEBUImFontConfig@@@Z 0000000140179210 f i imgui_draw.obj
 0002:000b6300       ?push_back@?$ImVector@UImVec4@@@@QEAAXAEBUImVec4@@@Z 0000000140179300 f i imgui_draw.obj
 0002:000b65d0       ?reserve@?$ImVector@PEAX@@QEAAXH@Z 00000001401795d0 f i imgui_draw.obj
 0002:000b66d0       ?reserve@?$ImVector@UImDrawChannel@@@@QEAAXH@Z 00000001401796d0 f i imgui_draw.obj
 0002:000b67d0       ?reserve@?$ImVector@UImFontAtlasCustomRect@@@@QEAAXH@Z 00000001401797d0 f i imgui_draw.obj
 0002:000b68d0       ?reserve@?$ImVector@UImFontBuildDstData@@@@QEAAXH@Z 00000001401798d0 f i imgui_draw.obj
 0002:000b69d0       ?reserve@?$ImVector@UImFontBuildSrcData@@@@QEAAXH@Z 00000001401799d0 f i imgui_draw.obj
 0002:000b6ad0       ?reserve@?$ImVector@UImFontConfig@@@@QEAAXH@Z 0000000140179ad0 f i imgui_draw.obj
 0002:000b6bd0       ?reserve@?$ImVector@UImFontGlyph@@@@QEAAXH@Z 0000000140179bd0 f i imgui_draw.obj
 0002:000b6cd0       ?reserve@?$ImVector@UImVec4@@@@QEAAXH@Z 0000000140179cd0 f i imgui_draw.obj
 0002:000b6dd0       ?reserve@?$ImVector@Ustbrp_rect@@@@QEAAXH@Z 0000000140179dd0 f i imgui_draw.obj
 0002:000b6ed0       ?reserve@?$ImVector@Ustbtt_packedchar@@@@QEAAXH@Z 0000000140179ed0 f i imgui_draw.obj
 0002:000b6fd0       ?reserve_discard@?$ImVector@UImVec2@@@@QEAAXH@Z 0000000140179fd0 f i imgui_draw.obj
 0002:000b7090       ?resize@?$ImVector@G@@QEAAXHAEBG@Z 000000014017a090 f i imgui_draw.obj
 0002:000b71a0       ?resize@?$ImVector@M@@QEAAXHAEBM@Z 000000014017a1a0 f i imgui_draw.obj
 0002:000b72b0       ?resize@?$ImVector@PEAX@@QEAAXH@Z 000000014017a2b0 f i imgui_draw.obj
 0002:000b7350       ?resize@?$ImVector@UImDrawChannel@@@@QEAAXH@Z 000000014017a350 f i imgui_draw.obj
 0002:000b73f0       ?resize@?$ImVector@UImDrawCmd@@@@QEAAXH@Z 000000014017a3f0 f i imgui_draw.obj
 0002:000b7490       ?resize@?$ImVector@UImDrawVert@@@@QEAAXH@Z 000000014017a490 f i imgui_draw.obj
 0002:000b7530       ?resize@?$ImVector@UImFontBuildDstData@@@@QEAAXH@Z 000000014017a530 f i imgui_draw.obj
 0002:000b75d0       ?resize@?$ImVector@UImFontBuildSrcData@@@@QEAAXH@Z 000000014017a5d0 f i imgui_draw.obj
 0002:000b7670       ?resize@?$ImVector@UImFontGlyph@@@@QEAAXH@Z 000000014017a670 f i imgui_draw.obj
 0002:000b7710       ?resize@?$ImVector@UImVec4@@@@QEAAXH@Z 000000014017a710 f i imgui_draw.obj
 0002:000b77b0       ?resize@?$ImVector@Ustbrp_rect@@@@QEAAXH@Z 000000014017a7b0 f i imgui_draw.obj
 0002:000b7850       ?resize@?$ImVector@Ustbtt_packedchar@@@@QEAAXH@Z 000000014017a850 f i imgui_draw.obj
 0002:000b78f0       ?shrink@?$ImVector@G@@QEAAXH@Z 000000014017a8f0 f i imgui_draw.obj
 0002:000b7990       ?shrink@?$ImVector@UImDrawVert@@@@QEAAXH@Z 000000014017a990 f i imgui_draw.obj
 0002:000b7a30       ?size_in_bytes@?$ImVector@UImFontBuildDstData@@@@QEBAHXZ 000000014017aa30 f i imgui_draw.obj
 0002:000b7a80       ?size_in_bytes@?$ImVector@UImFontBuildSrcData@@@@QEBAHXZ 000000014017aa80 f i imgui_draw.obj
 0002:000b7ad0       ?size_in_bytes@?$ImVector@Ustbrp_rect@@@@QEBAHXZ 000000014017aad0 f i imgui_draw.obj
 0002:000b7b20       ?size_in_bytes@?$ImVector@Ustbtt_packedchar@@@@QEBAHXZ 000000014017ab20 f i imgui_draw.obj
 0002:000c6170       ?swap@?$ImVector@UImDrawVert@@@@QEAAXAEAU1@@Z 0000000140189170 f i imgui_draw.obj
 0002:000c9380       ??$IID_PPV_ARGS_Helper@UIDXGIAdapter@@@@YAPEAPEAXPEAPEAUIDXGIAdapter@@@Z 000000014018c380 f i imgui_impl_dx11.obj
 0002:000c93d0       ??$IID_PPV_ARGS_Helper@UIDXGIDevice@@@@YAPEAPEAXPEAPEAUIDXGIDevice@@@Z 000000014018c3d0 f i imgui_impl_dx11.obj
 0002:000c9420       ??$IID_PPV_ARGS_Helper@UIDXGIFactory@@@@YAPEAPEAXPEAPEAUIDXGIFactory@@@Z 000000014018c420 f i imgui_impl_dx11.obj
 0002:000c9470       ??$IM_DELETE@UImGui_ImplDX11_Data@@@@YAXPEAUImGui_ImplDX11_Data@@@Z 000000014018c470 f i imgui_impl_dx11.obj
 0002:000c94d0       ??0ImGui_ImplDX11_Data@@QEAA@XZ 000000014018c4d0 f i imgui_impl_dx11.obj
 0002:000c9560       ??A?$ImVector@UImDrawCmd@@@@QEBAAEBUImDrawCmd@@H@Z 000000014018c560 f i imgui_impl_dx11.obj
 0002:000c9610       ?GetTexID@ImDrawCmd@@QEBAPEAXXZ 000000014018c610 f i imgui_impl_dx11.obj
 0002:000c9660       ?ImGui_ImplDX11_CreateDeviceObjects@@YA_NXZ 000000014018c660 f   imgui_impl_dx11.obj
 0002:000ca3a0       ?ImGui_ImplDX11_Init@@YA_NPEAUID3D11Device@@PEAUID3D11DeviceContext@@@Z 000000014018d3a0 f   imgui_impl_dx11.obj
 0002:000ca710       ?ImGui_ImplDX11_InvalidateDeviceObjects@@YAXXZ 000000014018d710 f   imgui_impl_dx11.obj
 0002:000ca9e0       ?ImGui_ImplDX11_NewFrame@@YAXXZ 000000014018d9e0 f   imgui_impl_dx11.obj
 0002:000caa80       ?ImGui_ImplDX11_RenderDrawData@@YAXPEAUImDrawData@@@Z 000000014018da80 f   imgui_impl_dx11.obj
 0002:000cc200       ?ImGui_ImplDX11_Shutdown@@YAXXZ 000000014018f200 f   imgui_impl_dx11.obj
 0002:000cc340       ?SetTexID@ImFontAtlas@@QEAAXPEAX@Z 000000014018f340 f i imgui_impl_dx11.obj
 0002:000cc3a0       ??$IM_DELETE@UImGui_ImplWin32_Data@@@@YAXPEAUImGui_ImplWin32_Data@@@Z 000000014018f3a0 f i imgui_impl_win32.obj
 0002:000cc400       ??0ImGui_ImplWin32_Data@@QEAA@XZ 000000014018f400 f i imgui_impl_win32.obj
 0002:000cc520       ?ImGui_ImplWin32_EnableAlphaCompositing@@YAXPEAX@Z 000000014018f520 f   imgui_impl_win32.obj
 0002:000cc6e0       ?ImGui_ImplWin32_EnableDpiAwareness@@YAXXZ 000000014018f6e0 f   imgui_impl_win32.obj
 0002:000cc910       ?ImGui_ImplWin32_GetDpiScaleForHwnd@@YAMPEAX@Z 000000014018f910 f   imgui_impl_win32.obj
 0002:000cc980       ?ImGui_ImplWin32_GetDpiScaleForMonitor@@YAMPEAX@Z 000000014018f980 f   imgui_impl_win32.obj
 0002:000ccbf0       ?ImGui_ImplWin32_Init@@YA_NPEAX@Z 000000014018fbf0 f   imgui_impl_win32.obj
 0002:000ccf80       ?ImGui_ImplWin32_NewFrame@@YAXXZ 000000014018ff80 f   imgui_impl_win32.obj
 0002:000cd300       ?ImGui_ImplWin32_Shutdown@@YAXXZ 0000000140190300 f   imgui_impl_win32.obj
 0002:000cefc0       ?ImGui_ImplWin32_WndProcHandler@@YA_JPEAUHWND__@@I_K_J@Z 0000000140191fc0 f   imgui_impl_win32.obj
 0002:000cfe20       ??$GetSpan@F@?$ImSpanAllocator@$05@@QEAAXHPEAU?$ImSpan@F@@@Z 0000000140192e20 f i imgui_tables.obj
 0002:000cfed0       ??$GetSpan@UImGuiTableCellData@@@?$ImSpanAllocator@$05@@QEAAXHPEAU?$ImSpan@UImGuiTableCellData@@@@@Z 0000000140192ed0 f i imgui_tables.obj
 0002:000cff80       ??$GetSpan@UImGuiTableColumn@@@?$ImSpanAllocator@$05@@QEAAXHPEAU?$ImSpan@UImGuiTableColumn@@@@@Z 0000000140192f80 f i imgui_tables.obj
 0002:000d0430       ??0?$ImSpan@F@@QEAA@XZ     0000000140193430 f i imgui_tables.obj
 0002:000d04a0       ??0?$ImSpan@UImGuiTableCellData@@@@QEAA@XZ 00000001401934a0 f i imgui_tables.obj
 0002:000d0510       ??0?$ImSpan@UImGuiTableColumn@@@@QEAA@XZ 0000000140193510 f i imgui_tables.obj
 0002:000d0580       ??0?$ImSpanAllocator@$05@@QEAA@XZ 0000000140193580 f i imgui_tables.obj
 0002:000d05f0       ??0?$ImVector@UImGuiOldColumnData@@@@QEAA@XZ 00000001401935f0 f i imgui_tables.obj
 0002:000d0670       ??0?$ImVector@UImGuiTableColumnSortSpecs@@@@QEAA@XZ 0000000140193670 f i imgui_tables.obj
 0002:000d06f0       ??0?$ImVector@UImGuiTableInstanceData@@@@QEAA@XZ 00000001401936f0 f i imgui_tables.obj
 0002:000d0770       ??0ImGuiOldColumnData@@QEAA@XZ 0000000140193770 f i imgui_tables.obj
 0002:000d07f0       ??0ImGuiOldColumns@@QEAA@XZ 00000001401937f0 f i imgui_tables.obj
 0002:000d08e0       ??0ImGuiTable@@QEAA@XZ     00000001401938e0 f i imgui_tables.obj
 0002:000d0b40       ??0ImGuiTableColumn@@QEAA@XZ 0000000140193b40 f i imgui_tables.obj
 0002:000d0cc0       ??0ImGuiTableColumnSettings@@QEAA@XZ 0000000140193cc0 f i imgui_tables.obj
 0002:000d0dc0       ??0ImGuiTableColumnSortSpecs@@QEAA@XZ 0000000140193dc0 f i imgui_tables.obj
 0002:000d0e30       ??0ImGuiTableInstanceData@@QEAA@XZ 0000000140193e30 f i imgui_tables.obj
 0002:000d0eb0       ??0ImGuiTableSettings@@QEAA@XZ 0000000140193eb0 f i imgui_tables.obj
 0002:000d0f20       ??0ImGuiTableSortSpecs@@QEAA@XZ 0000000140193f20 f i imgui_tables.obj
 0002:000d0f90       ??0ImGuiTableTempData@@QEAA@XZ 0000000140193f90 f i imgui_tables.obj
 0002:000d1140       ??A?$ImSpan@F@@QEAAAEAFH@Z 0000000140194140 f i imgui_tables.obj
 0002:000d1200       ??A?$ImSpan@UImGuiTableCellData@@@@QEAAAEAUImGuiTableCellData@@H@Z 0000000140194200 f i imgui_tables.obj
 0002:000d12c0       ??A?$ImSpan@UImGuiTableColumn@@@@QEBAAEBUImGuiTableColumn@@H@Z 00000001401942c0 f i imgui_tables.obj
 0002:000d1380       ??A?$ImVector@D@@QEBAAEBDH@Z 0000000140194380 f i imgui_tables.obj
 0002:000d14a0       ?Add@?$ImPool@UImGuiTable@@@@QEAAPEAUImGuiTable@@XZ 00000001401944a0 f i imgui_tables.obj
 0002:000d1650       ?BeginColumns@ImGui@@YAXPEBDHH@Z 0000000140194650 f   imgui_tables.obj
 0002:000d1eb0       ?BeginTable@ImGui@@YA_NPEBDHHAEBUImVec2@@M@Z 0000000140194eb0 f   imgui_tables.obj
 0002:000d1f60       ?BeginTableEx@ImGui@@YA_NPEBDIHHAEBUImVec2@@M@Z 0000000140194f60 f   imgui_tables.obj
 0002:000d3980       ?Columns@ImGui@@YAXHPEBD_N@Z 0000000140196980 f   imgui_tables.obj
 0002:000d3ac0       ?DebugNodeTable@ImGui@@YAXPEAUImGuiTable@@@Z 0000000140196ac0 f   imgui_tables.obj
 0002:000d4b00       ?DebugNodeTableSettings@ImGui@@YAXPEAUImGuiTableSettings@@@Z 0000000140197b00 f   imgui_tables.obj
 0002:000d4da0       ?EndColumns@ImGui@@YAXXZ   0000000140197da0 f   imgui_tables.obj
 0002:000d54c0       ?EndTable@ImGui@@YAXXZ     00000001401984c0 f   imgui_tables.obj
 0002:000d68e0       ?FindOrCreateColumns@ImGui@@YAPEAUImGuiOldColumns@@PEAUImGuiWindow@@I@Z 00000001401998e0 f   imgui_tables.obj
 0002:000d6a40       ?GetArenaSizeInBytes@?$ImSpanAllocator@$05@@QEAAHXZ 0000000140199a40 f i imgui_tables.obj
 0002:000d6a90       ?GetByKey@?$ImPool@UImGuiTable@@@@QEAAPEAUImGuiTable@@I@Z 0000000140199a90 f i imgui_tables.obj
 0002:000d6b40       ?GetColumnIndex@ImGui@@YAHXZ 0000000140199b40 f   imgui_tables.obj
 0002:000d6bc0       ?GetColumnNormFromOffset@ImGui@@YAMPEBUImGuiOldColumns@@M@Z 0000000140199bc0 f   imgui_tables.obj
 0002:000d6c40       ?GetColumnOffset@ImGui@@YAMH@Z 0000000140199c40 f   imgui_tables.obj
 0002:000d6d60       ?GetColumnOffsetFromNorm@ImGui@@YAMPEBUImGuiOldColumns@@M@Z 0000000140199d60 f   imgui_tables.obj
 0002:000d6de0       ?GetColumnSettings@ImGuiTableSettings@@QEAAPEAUImGuiTableColumnSettings@@XZ 0000000140199de0 f i imgui_tables.obj
 0002:000d6e30       ?GetColumnWidth@ImGui@@YAMH@Z 0000000140199e30 f   imgui_tables.obj
 0002:000d7090       ?GetColumnsCount@ImGui@@YAHXZ 000000014019a090 f   imgui_tables.obj
 0002:000d7110       ?GetColumnsID@ImGui@@YAIPEBDH@Z 000000014019a110 f   imgui_tables.obj
 0002:000d73b0       ?GetIndex@?$ImPool@UImGuiTable@@@@QEBAHPEBUImGuiTable@@@Z 000000014019a3b0 f i imgui_tables.obj
 0002:000d7490       ?GetOrAddByKey@?$ImPool@UImGuiTable@@@@QEAAPEAUImGuiTable@@I@Z 000000014019a490 f i imgui_tables.obj
 0002:000d7550       ?GetSpanPtrBegin@?$ImSpanAllocator@$05@@QEAAPEAXH@Z 000000014019a550 f i imgui_tables.obj
 0002:000d7610       ?GetSpanPtrEnd@?$ImSpanAllocator@$05@@QEAAPEAXH@Z 000000014019a610 f i imgui_tables.obj
 0002:000d76f0       ?ImBitArrayClearAllBits@@YAXPEAIH@Z 000000014019a6f0 f i imgui_tables.obj
 0002:000d7730       ?ImBitArrayClearBit@@YAXPEAIH@Z 000000014019a730 f i imgui_tables.obj
 0002:000d77a0       ?ImBitArrayGetStorageSizeInBytes@@YA_KH@Z 000000014019a7a0 f i imgui_tables.obj
 0002:000d77d0       ?ImBitArraySetBitRange@@YAXPEAIHH@Z 000000014019a7d0 f i imgui_tables.obj
 0002:000d7c40       ?ItemSize@ImGui@@YAXAEBUImRect@@M@Z 000000014019ac40 f i imgui_tables.obj
 0002:000d7cc0       ?NextColumn@ImGui@@YAXXZ   000000014019acc0 f   imgui_tables.obj
 0002:000d80a0       ?PopColumnsBackground@ImGui@@YAXXZ 000000014019b0a0 f   imgui_tables.obj
 0002:000d8150       ?PushColumnClipRect@ImGui@@YAXH@Z 000000014019b150 f   imgui_tables.obj
 0002:000d8210       ?PushColumnsBackground@ImGui@@YAXXZ 000000014019b210 f   imgui_tables.obj
 0002:000d82d0       ?Remove@?$ImPool@UImGuiTable@@@@QEAAXIH@Z 000000014019b2d0 f i imgui_tables.obj
 0002:000d83d0       ?Remove@?$ImPool@UImGuiTable@@@@QEAAXIPEBUImGuiTable@@@Z 000000014019b3d0 f i imgui_tables.obj
 0002:000d8450       ?Reserve@?$ImSpanAllocator@$05@@QEAAXH_KH@Z 000000014019b450 f i imgui_tables.obj
 0002:000d85a0       ?SetArenaBasePtr@?$ImSpanAllocator@$05@@QEAAXPEAX@Z 000000014019b5a0 f i imgui_tables.obj
 0002:000d8600       ?SetColumnOffset@ImGui@@YAXHM@Z 000000014019b600 f   imgui_tables.obj
 0002:000d88d0       ?SetColumnWidth@ImGui@@YAXHM@Z 000000014019b8d0 f   imgui_tables.obj
 0002:000d89c0       ?SetWindowClipRectBeforeSetChannel@ImGui@@YAXPEAUImGuiWindow@@AEBUImRect@@@Z 000000014019b9c0 f   imgui_tables.obj
 0002:000d8b00       ?TableBeginApplyRequests@ImGui@@YAXPEAUImGuiTable@@@Z 000000014019bb00 f   imgui_tables.obj
 0002:000d9100       ?TableBeginCell@ImGui@@YAXPEAUImGuiTable@@H@Z 000000014019c100 f   imgui_tables.obj
 0002:000d94c0       ?TableBeginContextMenuPopup@ImGui@@YA_NPEAUImGuiTable@@@Z 000000014019c4c0 f   imgui_tables.obj
 0002:000d9590       ?TableBeginInitMemory@ImGui@@YAXPEAUImGuiTable@@H@Z 000000014019c590 f   imgui_tables.obj
 0002:000d9830       ?TableBeginRow@ImGui@@YAXPEAUImGuiTable@@@Z 000000014019c830 f   imgui_tables.obj
 0002:000d9b30       ?TableDrawBorders@ImGui@@YAXPEAUImGuiTable@@@Z 000000014019cb30 f   imgui_tables.obj
 0002:000da680       ?TableDrawContextMenu@ImGui@@YAXPEAUImGuiTable@@@Z 000000014019d680 f   imgui_tables.obj
 0002:000daba0       ?TableEndCell@ImGui@@YAXPEAUImGuiTable@@@Z 000000014019dba0 f   imgui_tables.obj
 0002:000dad90       ?TableEndRow@ImGui@@YAXPEAUImGuiTable@@@Z 000000014019dd90 f   imgui_tables.obj
 0002:000dbd30       ?TableFindByID@ImGui@@YAPEAUImGuiTable@@I@Z 000000014019ed30 f   imgui_tables.obj
 0002:000dbda0       ?TableFixColumnSortDirection@ImGui@@YAXPEAUImGuiTable@@PEAUImGuiTableColumn@@@Z 000000014019eda0 f   imgui_tables.obj
 0002:000dbea0       ?TableFixFlags@@YAHHPEAUImGuiWindow@@@Z 000000014019eea0 f i imgui_tables.obj
 0002:000dc050       ?TableGcCompactSettings@ImGui@@YAXXZ 000000014019f050 f   imgui_tables.obj
 0002:000dc280       ?TableGcCompactTransientBuffers@ImGui@@YAXPEAUImGuiTable@@@Z 000000014019f280 f   imgui_tables.obj
 0002:000dc420       ?TableGcCompactTransientBuffers@ImGui@@YAXPEAUImGuiTableTempData@@@Z 000000014019f420 f   imgui_tables.obj
 0002:000dc4a0       ?TableGetBoundSettings@ImGui@@YAPEAUImGuiTableSettings@@PEAUImGuiTable@@@Z 000000014019f4a0 f   imgui_tables.obj
 0002:000dc5a0       ?TableGetCellBgRect@ImGui@@YA?AUImRect@@PEBUImGuiTable@@H@Z 000000014019f5a0 f   imgui_tables.obj
 0002:000dc780       ?TableGetColumnCount@ImGui@@YAHXZ 000000014019f780 f   imgui_tables.obj
 0002:000dc800       ?TableGetColumnFlags@ImGui@@YAHH@Z 000000014019f800 f   imgui_tables.obj
 0002:000dc900       ?TableGetColumnIndex@ImGui@@YAHXZ 000000014019f900 f   imgui_tables.obj
 0002:000dc970       ?TableGetColumnName@ImGui@@YAPEBDH@Z 000000014019f970 f   imgui_tables.obj
 0002:000dca10       ?TableGetColumnName@ImGui@@YAPEBDPEBUImGuiTable@@H@Z 000000014019fa10 f   imgui_tables.obj
 0002:000dcb00       ?TableGetColumnNextSortDirection@ImGui@@YAHPEAUImGuiTableColumn@@@Z 000000014019fb00 f   imgui_tables.obj
 0002:000dcc80       ?TableGetColumnResizeID@ImGui@@YAIPEBUImGuiTable@@HH@Z 000000014019fc80 f   imgui_tables.obj
 0002:000dcd60       ?TableGetColumnWidthAuto@ImGui@@YAMPEAUImGuiTable@@PEAUImGuiTableColumn@@@Z 000000014019fd60 f   imgui_tables.obj
 0002:000dced0       ?TableGetHeaderRowHeight@ImGui@@YAMXZ 000000014019fed0 f   imgui_tables.obj
 0002:000dcff0       ?TableGetHoveredColumn@ImGui@@YAHXZ 000000014019fff0 f   imgui_tables.obj
 0002:000dd060       ?TableGetMaxColumnWidth@ImGui@@YAMPEBUImGuiTable@@H@Z 00000001401a0060 f   imgui_tables.obj
 0002:000dd310       ?TableGetRowIndex@ImGui@@YAHXZ 00000001401a0310 f   imgui_tables.obj
 0002:000dd380       ?TableGetSortSpecs@ImGui@@YAPEAUImGuiTableSortSpecs@@XZ 00000001401a0380 f   imgui_tables.obj
 0002:000dd460       ?TableHeader@ImGui@@YAXPEBD@Z 00000001401a0460 f   imgui_tables.obj
 0002:000de350       ?TableHeadersRow@ImGui@@YAXXZ 00000001401a1350 f   imgui_tables.obj
 0002:000de5f0       ?TableLoadSettings@ImGui@@YAXPEAUImGuiTable@@@Z 00000001401a15f0 f   imgui_tables.obj
 0002:000deae0       ?TableMergeDrawChannels@ImGui@@YAXPEAUImGuiTable@@@Z 00000001401a1ae0 f   imgui_tables.obj
 0002:000dfa70       ?TableNextColumn@ImGui@@YA_NXZ 00000001401a2a70 f   imgui_tables.obj
 0002:000dfb70       ?TableNextRow@ImGui@@YAXHM@Z 00000001401a2b70 f   imgui_tables.obj
 0002:000dfd50       ?TableOpenContextMenu@ImGui@@YAXH@Z 00000001401a2d50 f   imgui_tables.obj
 0002:000dfec0       ?TablePopBackgroundChannel@ImGui@@YAXXZ 00000001401a2ec0 f   imgui_tables.obj
 0002:000dffa0       ?TablePushBackgroundChannel@ImGui@@YAXXZ 00000001401a2fa0 f   imgui_tables.obj
 0002:000e0080       ?TableRemove@ImGui@@YAXPEAUImGuiTable@@@Z 00000001401a3080 f   imgui_tables.obj
 0002:000e0150       ?TableResetSettings@ImGui@@YAXPEAUImGuiTable@@@Z 00000001401a3150 f   imgui_tables.obj
 0002:000e01f0       ?TableSaveSettings@ImGui@@YAXPEAUImGuiTable@@@Z 00000001401a31f0 f   imgui_tables.obj
 0002:000e06e0       ?TableSetBgColor@ImGui@@YAXHIH@Z 00000001401a36e0 f   imgui_tables.obj
 0002:000e0a00       ?TableSetColumnEnabled@ImGui@@YAXH_N@Z 00000001401a3a00 f   imgui_tables.obj
 0002:000e0b80       ?TableSetColumnIndex@ImGui@@YA_NH@Z 00000001401a3b80 f   imgui_tables.obj
 0002:000e0c90       ?TableSetColumnSortDirection@ImGui@@YAXHH_N@Z 00000001401a3c90 f   imgui_tables.obj
 0002:000e0f70       ?TableSetColumnWidth@ImGui@@YAXHM@Z 00000001401a3f70 f   imgui_tables.obj
 0002:000e1400       ?TableSetColumnWidthAutoAll@ImGui@@YAXPEAUImGuiTable@@@Z 00000001401a4400 f   imgui_tables.obj
 0002:000e14d0       ?TableSetColumnWidthAutoSingle@ImGui@@YAXPEAUImGuiTable@@H@Z 00000001401a44d0 f   imgui_tables.obj
 0002:000e1570       ?TableSettingsAddSettingsHandler@ImGui@@YAXXZ 00000001401a4570 f   imgui_tables.obj
 0002:000e16b0       ?TableSettingsCreate@ImGui@@YAPEAUImGuiTableSettings@@IH@Z 00000001401a46b0 f   imgui_tables.obj
 0002:000e1760       ?TableSettingsFindByID@ImGui@@YAPEAUImGuiTableSettings@@I@Z 00000001401a4760 f   imgui_tables.obj
 0002:000e2820       ?TableSetupColumn@ImGui@@YAXPEBDHMI@Z 00000001401a5820 f   imgui_tables.obj
 0002:000e3260       ?TableSetupDrawChannels@ImGui@@YAXPEAUImGuiTable@@@Z 00000001401a6260 f   imgui_tables.obj
 0002:000e3730       ?TableSetupScrollFreeze@ImGui@@YAXHH@Z 00000001401a6730 f   imgui_tables.obj
 0002:000e3ba0       ?TableSortSpecsBuild@ImGui@@YAXPEAUImGuiTable@@@Z 00000001401a6ba0 f   imgui_tables.obj
 0002:000e3ed0       ?TableSortSpecsSanitize@ImGui@@YAXPEAUImGuiTable@@@Z 00000001401a6ed0 f   imgui_tables.obj
 0002:000e4510       ?TableUpdateBorders@ImGui@@YAXPEAUImGuiTable@@@Z 00000001401a7510 f   imgui_tables.obj
 0002:000e4ae0       ?TableUpdateColumnsWeightFromWidth@ImGui@@YAXPEAUImGuiTable@@@Z 00000001401a7ae0 f   imgui_tables.obj
 0002:000e4dd0       ?TableUpdateLayout@ImGui@@YAXPEAUImGuiTable@@@Z 00000001401a7dd0 f   imgui_tables.obj
 0002:000e7340       ?_grow_capacity@?$ImVector@UImGuiOldColumnData@@@@QEBAHH@Z 00000001401aa340 f i imgui_tables.obj
 0002:000e7410       ?_grow_capacity@?$ImVector@UImGuiOldColumns@@@@QEBAHH@Z 00000001401aa410 f i imgui_tables.obj
 0002:000e74e0       ?_grow_capacity@?$ImVector@UImGuiTable@@@@QEBAHH@Z 00000001401aa4e0 f i imgui_tables.obj
 0002:000e75b0       ?_grow_capacity@?$ImVector@UImGuiTableColumnSortSpecs@@@@QEBAHH@Z 00000001401aa5b0 f i imgui_tables.obj
 0002:000e7680       ?_grow_capacity@?$ImVector@UImGuiTableInstanceData@@@@QEBAHH@Z 00000001401aa680 f i imgui_tables.obj
 0002:000e7750       ?_grow_capacity@?$ImVector@UImGuiTableTempData@@@@QEBAHH@Z 00000001401aa750 f i imgui_tables.obj
 0002:000e7820       ?alloc_chunk@?$ImChunkStream@UImGuiTableSettings@@@@QEAAPEAUImGuiTableSettings@@_K@Z 00000001401aa820 f i imgui_tables.obj
 0002:000e7920       ?back@?$ImVector@UImGuiOldColumns@@@@QEAAAEAUImGuiOldColumns@@XZ 00000001401aa920 f i imgui_tables.obj
 0002:000e79c0       ?clear@?$ImChunkStream@UImGuiTableSettings@@@@QEAAXXZ 00000001401aa9c0 f i imgui_tables.obj
 0002:000e7a20       ?clear@?$ImVector@UImGuiTableColumnSortSpecs@@@@QEAAXXZ 00000001401aaa20 f i imgui_tables.obj
 0002:000e7ac0       ?index_from_ptr@?$ImSpan@UImGuiTableColumn@@@@QEBAHPEBUImGuiTableColumn@@@Z 00000001401aaac0 f i imgui_tables.obj
 0002:000e7b90       ?offset_from_ptr@?$ImChunkStream@UImGuiTableSettings@@@@QEAAHPEBUImGuiTableSettings@@@Z 00000001401aab90 f i imgui_tables.obj
 0002:000e7c60       ?ptr_from_offset@?$ImChunkStream@UImGuiTableSettings@@@@QEAAPEAUImGuiTableSettings@@H@Z 00000001401aac60 f i imgui_tables.obj
 0002:000e7d00       ?push_back@?$ImVector@UImGuiOldColumnData@@@@QEAAXAEBUImGuiOldColumnData@@@Z 00000001401aad00 f i imgui_tables.obj
 0002:000e7df0       ?push_back@?$ImVector@UImGuiOldColumns@@@@QEAAXAEBUImGuiOldColumns@@@Z 00000001401aadf0 f i imgui_tables.obj
 0002:000e7ee0       ?push_back@?$ImVector@UImGuiTableInstanceData@@@@QEAAXAEBUImGuiTableInstanceData@@@Z 00000001401aaee0 f i imgui_tables.obj
 0002:000e7fd0       ?reserve@?$ImVector@UImGuiOldColumnData@@@@QEAAXH@Z 00000001401aafd0 f i imgui_tables.obj
 0002:000e80d0       ?reserve@?$ImVector@UImGuiOldColumns@@@@QEAAXH@Z 00000001401ab0d0 f i imgui_tables.obj
 0002:000e81d0       ?reserve@?$ImVector@UImGuiTable@@@@QEAAXH@Z 00000001401ab1d0 f i imgui_tables.obj
 0002:000e82d0       ?reserve@?$ImVector@UImGuiTableColumnSortSpecs@@@@QEAAXH@Z 00000001401ab2d0 f i imgui_tables.obj
 0002:000e83d0       ?reserve@?$ImVector@UImGuiTableInstanceData@@@@QEAAXH@Z 00000001401ab3d0 f i imgui_tables.obj
 0002:000e84d0       ?reserve@?$ImVector@UImGuiTableTempData@@@@QEAAXH@Z 00000001401ab4d0 f i imgui_tables.obj
 0002:000e85d0       ?resize@?$ImVector@UImGuiOldColumnData@@@@QEAAXH@Z 00000001401ab5d0 f i imgui_tables.obj
 0002:000e8670       ?resize@?$ImVector@UImGuiTable@@@@QEAAXH@Z 00000001401ab670 f i imgui_tables.obj
 0002:000e8710       ?resize@?$ImVector@UImGuiTableColumnSortSpecs@@@@QEAAXH@Z 00000001401ab710 f i imgui_tables.obj
 0002:000e87b0       ?resize@?$ImVector@UImGuiTableTempData@@@@QEAAXHAEBUImGuiTableTempData@@@Z 00000001401ab7b0 f i imgui_tables.obj
 0002:000e88c0       ?set@?$ImSpan@F@@QEAAXPEAF0@Z 00000001401ab8c0 f i imgui_tables.obj
 0002:000e8940       ?set@?$ImSpan@UImGuiTableCellData@@@@QEAAXPEAUImGuiTableCellData@@0@Z 00000001401ab940 f i imgui_tables.obj
 0002:000e89c0       ?set@?$ImSpan@UImGuiTableColumn@@@@QEAAXPEAUImGuiTableColumn@@0@Z 00000001401ab9c0 f i imgui_tables.obj
 0002:000e8a40       ?size@?$ImSpan@UImGuiTableColumn@@@@QEBAHXZ 00000001401aba40 f i imgui_tables.obj
 0002:000e8ab0       ?swap@?$ImChunkStream@UImGuiTableSettings@@@@QEAAXAEAU1@@Z 00000001401abab0 f i imgui_tables.obj
 0002:000e8b20       ?swap@?$ImVector@D@@QEAAXAEAU1@@Z 00000001401abb20 f i imgui_tables.obj
 0002:000e8c20       ??$CheckboxFlagsT@H@ImGui@@YA_NPEBDPEAHH@Z 00000001401abc20 f i imgui_widgets.obj
 0002:000e8e40       ??$CheckboxFlagsT@I@ImGui@@YA_NPEBDPEAII@Z 00000001401abe40 f i imgui_widgets.obj
 0002:000e9060       ??$CheckboxFlagsT@_J@ImGui@@YA_NPEBDPEA_J_J@Z 00000001401ac060 f i imgui_widgets.obj
 0002:000e9290       ??$CheckboxFlagsT@_K@ImGui@@YA_NPEBDPEA_K_K@Z 00000001401ac290 f i imgui_widgets.obj
 0002:000ea380       ??$DragBehaviorT@HHM@ImGui@@YA_NHPEAHMHHPEBDH@Z 00000001401ad380 f i imgui_widgets.obj
 0002:000eae10       ??$DragBehaviorT@IHM@ImGui@@YA_NHPEAIMIIPEBDH@Z 00000001401ade10 f i imgui_widgets.obj
 0002:000eb8b0       ??$DragBehaviorT@MMM@ImGui@@YA_NHPEAMMMMPEBDH@Z 00000001401ae8b0 f i imgui_widgets.obj
 0002:000ec370       ??$DragBehaviorT@NNN@ImGui@@YA_NHPEANMNNPEBDH@Z 00000001401af370 f i imgui_widgets.obj
 0002:000ece70       ??$DragBehaviorT@_J_JN@ImGui@@YA_NHPEA_JM_J1PEBDH@Z 00000001401afe70 f i imgui_widgets.obj
 0002:000ed950       ??$DragBehaviorT@_K_JN@ImGui@@YA_NHPEA_KM_K1PEBDH@Z 00000001401b0950 f i imgui_widgets.obj
 0002:000f05d0       ??$RoundScalarWithFormatT@H@ImGui@@YAHPEBDHH@Z 00000001401b35d0 f i imgui_widgets.obj
 0002:000f0790       ??$RoundScalarWithFormatT@I@ImGui@@YAIPEBDHI@Z 00000001401b3790 f i imgui_widgets.obj
 0002:000f0950       ??$RoundScalarWithFormatT@M@ImGui@@YAMPEBDHM@Z 00000001401b3950 f i imgui_widgets.obj
 0002:000f0b30       ??$RoundScalarWithFormatT@N@ImGui@@YANPEBDHN@Z 00000001401b3b30 f i imgui_widgets.obj
 0002:000f0d10       ??$RoundScalarWithFormatT@_J@ImGui@@YA_JPEBDH_J@Z 00000001401b3d10 f i imgui_widgets.obj
 0002:000f0ee0       ??$RoundScalarWithFormatT@_K@ImGui@@YA_KPEBDH_K@Z 00000001401b3ee0 f i imgui_widgets.obj
 0002:000f10f0       ??$ScaleRatioFromValueT@HHM@ImGui@@YAMHHHH_NMM@Z 00000001401b40f0 f i imgui_widgets.obj
 0002:000f17e0       ??$ScaleRatioFromValueT@IHM@ImGui@@YAMHIII_NMM@Z 00000001401b47e0 f i imgui_widgets.obj
 0002:000f1f20       ??$ScaleRatioFromValueT@MMM@ImGui@@YAMHMMM_NMM@Z 00000001401b4f20 f i imgui_widgets.obj
 0002:000f2600       ??$ScaleRatioFromValueT@NNN@ImGui@@YAMHNNN_NMM@Z 00000001401b5600 f i imgui_widgets.obj
 0002:000f2d30       ??$ScaleRatioFromValueT@_J_JN@ImGui@@YAMH_J00_NMM@Z 00000001401b5d30 f i imgui_widgets.obj
 0002:000f3490       ??$ScaleRatioFromValueT@_K_JN@ImGui@@YAMH_K00_NMM@Z 00000001401b6490 f i imgui_widgets.obj
 0002:000f3de0       ??$ScaleValueFromRatioT@HHM@ImGui@@YAHHMHH_NMM@Z 00000001401b6de0 f i imgui_widgets.obj
 0002:000f4540       ??$ScaleValueFromRatioT@IHM@ImGui@@YAIHMII_NMM@Z 00000001401b7540 f i imgui_widgets.obj
 0002:000f4ce0       ??$ScaleValueFromRatioT@MMM@ImGui@@YAMHMMM_NMM@Z 00000001401b7ce0 f i imgui_widgets.obj
 0002:000f5440       ??$ScaleValueFromRatioT@NNN@ImGui@@YANHMNN_NMM@Z 00000001401b8440 f i imgui_widgets.obj
 0002:000f5bf0       ??$ScaleValueFromRatioT@_J_JN@ImGui@@YA_JHM_J0_NMM@Z 00000001401b8bf0 f i imgui_widgets.obj
 0002:000f63d0       ??$ScaleValueFromRatioT@_K_JN@ImGui@@YA_KHM_K0_NMM@Z 00000001401b93d0 f i imgui_widgets.obj
 0002:000f6dc0       ??$SliderBehaviorT@HHM@ImGui@@YA_NAEBUImRect@@IHPEAHHHPEBDHPEAU1@@Z 00000001401b9dc0 f i imgui_widgets.obj
 0002:000f7eb0       ??$SliderBehaviorT@IHM@ImGui@@YA_NAEBUImRect@@IHPEAIIIPEBDHPEAU1@@Z 00000001401baeb0 f i imgui_widgets.obj
 0002:000f8fa0       ??$SliderBehaviorT@MMM@ImGui@@YA_NAEBUImRect@@IHPEAMMMPEBDHPEAU1@@Z 00000001401bbfa0 f i imgui_widgets.obj
 0002:000fa0d0       ??$SliderBehaviorT@NNN@ImGui@@YA_NAEBUImRect@@IHPEANNNPEBDHPEAU1@@Z 00000001401bd0d0 f i imgui_widgets.obj
 0002:000fb210       ??$SliderBehaviorT@_J_JN@ImGui@@YA_NAEBUImRect@@IHPEA_J_J2PEBDHPEAU1@@Z 00000001401be210 f i imgui_widgets.obj
 0002:000fc320       ??$SliderBehaviorT@_K_JN@ImGui@@YA_NAEBUImRect@@IHPEA_K_K2PEBDHPEAU1@@Z 00000001401bf320 f i imgui_widgets.obj
 0002:000fd430       ??0?$ImVector@UImGuiTabItem@@@@QEAA@XZ 00000001401c0430 f i imgui_widgets.obj
 0002:000fd4b0       ??0ImGuiInputTextCallbackData@@QEAA@XZ 00000001401c04b0 f   imgui_widgets.obj
 0002:000fd520       ??0ImGuiPlotArrayGetterData@@QEAA@PEBMH@Z 00000001401c0520 f i imgui_widgets.obj
 0002:000fd5a0       ??0ImGuiPtrOrIndex@@QEAA@H@Z 00000001401c05a0 f i imgui_widgets.obj
 0002:000fd620       ??0ImGuiPtrOrIndex@@QEAA@PEAX@Z 00000001401c0620 f i imgui_widgets.obj
 0002:000fd6a0       ??0ImGuiTabBar@@QEAA@XZ    00000001401c06a0 f   imgui_widgets.obj
 0002:000fd7c0       ??0ImGuiTabBarSection@@QEAA@XZ 00000001401c07c0 f i imgui_widgets.obj
 0002:000fd830       ??0ImGuiTabItem@@QEAA@XZ   00000001401c0830 f i imgui_widgets.obj
 0002:000fd910       ??A?$ImVector@G@@QEBAAEBGH@Z 00000001401c0910 f i imgui_widgets.obj
 0002:000fd9c0       ??A?$ImVector@M@@QEBAAEBMH@Z 00000001401c09c0 f i imgui_widgets.obj
 0002:000fda70       ??A?$ImVector@UImGuiShrinkWidthItem@@@@QEAAAEAUImGuiShrinkWidthItem@@H@Z 00000001401c0a70 f i imgui_widgets.obj
 0002:000fdd40       ?Add@?$ImPool@UImGuiTabBar@@@@QEAAPEAUImGuiTabBar@@XZ 00000001401c0d40 f i imgui_widgets.obj
 0002:000fdef0       ?AlignTextToFramePadding@ImGui@@YAXXZ 00000001401c0ef0 f   imgui_widgets.obj
 0002:000fdfe0       ?ArrowButton@ImGui@@YA_NPEBDH@Z 00000001401c0fe0 f   imgui_widgets.obj
 0002:000fe070       ?ArrowButtonEx@ImGui@@YA_NPEBDHUImVec2@@H@Z 00000001401c1070 f   imgui_widgets.obj
 0002:000fe460       ?BeginCombo@ImGui@@YA_NPEBD0H@Z 00000001401c1460 f   imgui_widgets.obj
 0002:000fee50       ?BeginComboPopup@ImGui@@YA_NIAEBUImRect@@H@Z 00000001401c1e50 f   imgui_widgets.obj
 0002:000ff300       ?BeginComboPreview@ImGui@@YA_NXZ 00000001401c2300 f   imgui_widgets.obj
 0002:000ff540       ?BeginListBox@ImGui@@YA_NPEBDAEBUImVec2@@@Z 00000001401c2540 f   imgui_widgets.obj
 0002:000ff980       ?BeginMainMenuBar@ImGui@@YA_NXZ 00000001401c2980 f   imgui_widgets.obj
 0002:000ffac0       ?BeginMenu@ImGui@@YA_NPEBD_N@Z 00000001401c2ac0 f   imgui_widgets.obj
 0002:000ffb30       ?BeginMenuBar@ImGui@@YA_NXZ 00000001401c2b30 f   imgui_widgets.obj
 0002:000ffe30       ?BeginMenuEx@ImGui@@YA_NPEBD0_N@Z 00000001401c2e30 f   imgui_widgets.obj
 0002:00100ff0       ?BeginTabBar@ImGui@@YA_NPEBDH@Z 00000001401c3ff0 f   imgui_widgets.obj
 0002:001011a0       ?BeginTabBarEx@ImGui@@YA_NPEAUImGuiTabBar@@AEBUImRect@@H@Z 00000001401c41a0 f   imgui_widgets.obj
 0002:001016d0       ?BeginTabItem@ImGui@@YA_NPEBDPEA_NH@Z 00000001401c46d0 f   imgui_widgets.obj
 0002:00101890       ?BeginViewportSideBar@ImGui@@YA_NPEBDPEAUImGuiViewport@@HMH@Z 00000001401c4890 f   imgui_widgets.obj
 0002:00101c50       ?Bullet@ImGui@@YAXXZ       00000001401c4c50 f   imgui_widgets.obj
 0002:00101f00       ?BulletText@ImGui@@YAXPEBDZZ 00000001401c4f00 f   imgui_widgets.obj
 0002:00101fd0       ?BulletTextV@ImGui@@YAXPEBDPEAD@Z 00000001401c4fd0 f   imgui_widgets.obj
 0002:00102360       ?Button@ImGui@@YA_NPEBDAEBUImVec2@@@Z 00000001401c5360 f   imgui_widgets.obj
 0002:001023d0       ?ButtonBehavior@ImGui@@YA_NAEBUImRect@@IPEA_N1H@Z 00000001401c53d0 f   imgui_widgets.obj
 0002:00103180       ?ButtonEx@ImGui@@YA_NPEBDAEBUImVec2@@H@Z 00000001401c6180 f   imgui_widgets.obj
 0002:00103700       ?CalcNextTotalWidth@ImGuiMenuColumns@@QEAAX_N@Z 00000001401c6700 f   imgui_widgets.obj
 0002:00103880       ?Checkbox@ImGui@@YA_NPEBDPEA_N@Z 00000001401c6880 f   imgui_widgets.obj
 0002:00104020       ?CheckboxFlags@ImGui@@YA_NPEBDPEAHH@Z 00000001401c7020 f   imgui_widgets.obj
 0002:00104090       ?CheckboxFlags@ImGui@@YA_NPEBDPEAII@Z 00000001401c7090 f   imgui_widgets.obj
 0002:00104100       ?CheckboxFlags@ImGui@@YA_NPEBDPEA_J_J@Z 00000001401c7100 f   imgui_widgets.obj
 0002:00104170       ?CheckboxFlags@ImGui@@YA_NPEBDPEA_K_K@Z 00000001401c7170 f   imgui_widgets.obj
 0002:001041e0       ?ClearFlags@ImGuiNextItemData@@QEAAXXZ 00000001401c71e0 f i imgui_widgets.obj
 0002:00104230       ?ClearSelection@ImGuiInputTextState@@QEAAXXZ 00000001401c7230 f i imgui_widgets.obj
 0002:001042a0       ?CloseButton@ImGui@@YA_NIAEBUImVec2@@@Z 00000001401c72a0 f   imgui_widgets.obj
 0002:00104890       ?CollapseButton@ImGui@@YA_NIAEBUImVec2@@@Z 00000001401c7890 f   imgui_widgets.obj
 0002:00104c30       ?CollapsingHeader@ImGui@@YA_NPEBDH@Z 00000001401c7c30 f   imgui_widgets.obj
 0002:00104cf0       ?CollapsingHeader@ImGui@@YA_NPEBDPEA_NH@Z 00000001401c7cf0 f   imgui_widgets.obj
 0002:00104fb0       ?ColorButton@ImGui@@YA_NPEBDAEBUImVec4@@HAEBUImVec2@@@Z 00000001401c7fb0 f   imgui_widgets.obj
 0002:001059c0       ?ColorEdit3@ImGui@@YA_NPEBDQEAMH@Z 00000001401c89c0 f   imgui_widgets.obj
 0002:00105a40       ?ColorEdit4@ImGui@@YA_NPEBDQEAMH@Z 00000001401c8a40 f   imgui_widgets.obj
 0002:00107870       ?ColorEditOptionsPopup@ImGui@@YAXPEBMH@Z 00000001401ca870 f   imgui_widgets.obj
 0002:001081f0       ?ColorPicker3@ImGui@@YA_NPEBDQEAMH@Z 00000001401cb1f0 f   imgui_widgets.obj
 0002:001083b0       ?ColorPicker4@ImGui@@YA_NPEBDQEAMHPEBM@Z 00000001401cb3b0 f   imgui_widgets.obj
 0002:0010b5f0       ?ColorPickerOptionsPopup@ImGui@@YAXPEBMH@Z 00000001401ce5f0 f   imgui_widgets.obj
 0002:0010b9e0       ?ColorTooltip@ImGui@@YAXPEBDPEBMH@Z 00000001401ce9e0 f   imgui_widgets.obj
 0002:0010c110       ?Combo@ImGui@@YA_NPEBDPEAH0H@Z 00000001401cf110 f   imgui_widgets.obj
 0002:0010c200       ?Combo@ImGui@@YA_NPEBDPEAHP6A_NPEAXHPEAPEBD@Z2HH@Z 00000001401cf200 f   imgui_widgets.obj
 0002:0010c4f0       ?Combo@ImGui@@YA_NPEBDPEAHQEBQEBDHH@Z 00000001401cf4f0 f   imgui_widgets.obj
 0002:0010c590       ?Contains@?$ImPool@UImGuiTabBar@@@@QEBA_NPEBUImGuiTabBar@@@Z 00000001401cf590 f i imgui_widgets.obj
 0002:0010c640       ?CursorAnimReset@ImGuiInputTextState@@QEAAXXZ 00000001401cf640 f i imgui_widgets.obj
 0002:0010c6a0       ?CursorClamp@ImGuiInputTextState@@QEAAXXZ 00000001401cf6a0 f i imgui_widgets.obj
 0002:0010c770       ?DataTypeApplyFromText@ImGui@@YA_NPEBDHPEAX0@Z 00000001401cf770 f   imgui_widgets.obj
 0002:0010cab0       ?DataTypeApplyOp@ImGui@@YAXHHPEAXPEBX1@Z 00000001401cfab0 f   imgui_widgets.obj
 0002:0010d120       ?DataTypeClamp@ImGui@@YA_NHPEAXPEBX1@Z 00000001401d0120 f   imgui_widgets.obj
 0002:0010d390       ?DataTypeCompare@ImGui@@YAHHPEBX0@Z 00000001401d0390 f   imgui_widgets.obj
 0002:0010d5a0       ?DataTypeFormatString@ImGui@@YAHPEADHHPEBXPEBD@Z 00000001401d05a0 f   imgui_widgets.obj
 0002:0010d870       ?DataTypeGetInfo@ImGui@@YAPEBUImGuiDataTypeInfo@@H@Z 00000001401d0870 f   imgui_widgets.obj
 0002:0010d910       ?DebugNodeInputTextState@ImGui@@YAXPEAUImGuiInputTextState@@@Z 00000001401d0910 f   imgui_widgets.obj
 0002:0010dd50       ?DeclColumns@ImGuiMenuColumns@@QEAAMMMMM@Z 00000001401d0d50 f   imgui_widgets.obj
 0002:0010df10       ?DeleteChars@ImGuiInputTextCallbackData@@QEAAXHH@Z 00000001401d0f10 f   imgui_widgets.obj
 0002:0010e120       ?DragBehavior@ImGui@@YA_NIHPEAXMPEBX1PEBDH@Z 00000001401d1120 f   imgui_widgets.obj
 0002:0010ec20       ?DragFloat2@ImGui@@YA_NPEBDQEAMMMM0H@Z 00000001401d1c20 f   imgui_widgets.obj
 0002:0010ecf0       ?DragFloat3@ImGui@@YA_NPEBDQEAMMMM0H@Z 00000001401d1cf0 f   imgui_widgets.obj
 0002:0010edc0       ?DragFloat4@ImGui@@YA_NPEBDQEAMMMM0H@Z 00000001401d1dc0 f   imgui_widgets.obj
 0002:0010ee90       ?DragFloat@ImGui@@YA_NPEBDPEAMMMM0H@Z 00000001401d1e90 f   imgui_widgets.obj
 0002:0010ef50       ?DragFloatRange2@ImGui@@YA_NPEBDPEAM1MMM00H@Z 00000001401d1f50 f   imgui_widgets.obj
 0002:0010f3f0       ?DragInt2@ImGui@@YA_NPEBDQEAHMHH0H@Z 00000001401d23f0 f   imgui_widgets.obj
 0002:0010f4c0       ?DragInt3@ImGui@@YA_NPEBDQEAHMHH0H@Z 00000001401d24c0 f   imgui_widgets.obj
 0002:0010f590       ?DragInt4@ImGui@@YA_NPEBDQEAHMHH0H@Z 00000001401d2590 f   imgui_widgets.obj
 0002:0010f660       ?DragInt@ImGui@@YA_NPEBDPEAHMHH0H@Z 00000001401d2660 f   imgui_widgets.obj
 0002:0010f720       ?DragIntRange2@ImGui@@YA_NPEBDPEAH1MHH00H@Z 00000001401d2720 f   imgui_widgets.obj
 0002:0010fb00       ?DragScalar@ImGui@@YA_NPEBDHPEAXMPEBX20H@Z 00000001401d2b00 f   imgui_widgets.obj
 0002:001105f0       ?DragScalarN@ImGui@@YA_NPEBDHPEAXHMPEBX20H@Z 00000001401d35f0 f   imgui_widgets.obj
 0002:00110860       ?Dummy@ImGui@@YAXAEBUImVec2@@@Z 00000001401d3860 f   imgui_widgets.obj
 0002:00110980       ?EndCombo@ImGui@@YAXXZ     00000001401d3980 f   imgui_widgets.obj
 0002:001109c0       ?EndComboPreview@ImGui@@YAXXZ 00000001401d39c0 f   imgui_widgets.obj
 0002:00110bd0       ?EndListBox@ImGui@@YAXXZ   00000001401d3bd0 f   imgui_widgets.obj
 0002:00110c80       ?EndMainMenuBar@ImGui@@YAXXZ 00000001401d3c80 f   imgui_widgets.obj
 0002:00110d30       ?EndMenu@ImGui@@YAXXZ      00000001401d3d30 f   imgui_widgets.obj
 0002:00110e80       ?EndMenuBar@ImGui@@YAXXZ   00000001401d3e80 f   imgui_widgets.obj
 0002:00111200       ?EndTabBar@ImGui@@YAXXZ    00000001401d4200 f   imgui_widgets.obj
 0002:001114b0       ?EndTabItem@ImGui@@YAXXZ   00000001401d44b0 f   imgui_widgets.obj
 0002:001115f0       ?GetArea@ImRect@@QEBAMXZ   00000001401d45f0 f i imgui_widgets.obj
 0002:00111640       ?GetBuildWorkRect@ImGuiViewportP@@QEBA?AUImRect@@XZ 00000001401d4640 f i imgui_widgets.obj
 0002:00111780       ?GetCenter@ImRect@@QEBA?AUImVec2@@XZ 00000001401d4780 f i imgui_widgets.obj
 0002:00111800       ?GetCharAdvance@ImFont@@QEBAMG@Z 00000001401d4800 f i imgui_widgets.obj
 0002:001118b0       ?GetIndex@?$ImPool@UImGuiTabBar@@@@QEBAHPEBUImGuiTabBar@@@Z 00000001401d48b0 f i imgui_widgets.obj
 0002:00111990       ?GetInputTextState@ImGui@@YAPEAUImGuiInputTextState@@I@Z 00000001401d4990 f i imgui_widgets.obj
 0002:00111af0       ?GetOrAddByKey@?$ImPool@UImGuiTabBar@@@@QEAAPEAUImGuiTabBar@@I@Z 00000001401d4af0 f i imgui_widgets.obj
 0002:00111bb0       ?GetTL@ImRect@@QEBA?AUImVec2@@XZ 00000001401d4bb0 f i imgui_widgets.obj
 0002:00111bf0       ?GetTR@ImRect@@QEBA?AUImVec2@@XZ 00000001401d4bf0 f i imgui_widgets.obj
 0002:00111dd0       ?GetTreeNodeToLabelSpacing@ImGui@@YAMXZ 00000001401d4dd0 f   imgui_widgets.obj
 0002:00111e40       ?GetWindowScrollbarID@ImGui@@YAIPEAUImGuiWindow@@W4ImGuiAxis@@@Z 00000001401d4e40 f   imgui_widgets.obj
 0002:00111ee0       ?GetWindowScrollbarRect@ImGui@@YA?AUImRect@@PEAUImGuiWindow@@W4ImGuiAxis@@@Z 00000001401d4ee0 f   imgui_widgets.obj
 0002:00112110       ?HasSelection@ImGuiInputTextState@@QEBA_NXZ 00000001401d5110 f i imgui_widgets.obj
 0002:001127c0       ?ImParseFormatFindEnd@@YAPEBDPEBD@Z 00000001401d57c0 f   imgui_widgets.obj
 0002:00112930       ?ImParseFormatFindStart@@YAPEBDPEBD@Z 00000001401d5930 f   imgui_widgets.obj
 0002:00112a10       ?ImParseFormatPrecision@@YAHPEBDH@Z 00000001401d5a10 f   imgui_widgets.obj
 0002:00112c30       ?ImParseFormatSanitizeForPrinting@@YAXPEBDPEAD_K@Z 00000001401d5c30 f   imgui_widgets.obj
 0002:00112d70       ?ImParseFormatSanitizeForScanning@@YAPEBDPEBDPEAD_K@Z 00000001401d5d70 f   imgui_widgets.obj
 0002:00112f60       ?ImParseFormatTrimDecorations@@YAPEBDPEBDPEAD_K@Z 00000001401d5f60 f   imgui_widgets.obj
 0002:001132a0       ?Image@ImGui@@YAXPEAXAEBUImVec2@@11AEBUImVec4@@2@Z 00000001401d62a0 f   imgui_widgets.obj
 0002:001135e0       ?ImageButton@ImGui@@YA_NPEAXAEBUImVec2@@11HAEBUImVec4@@2@Z 00000001401d65e0 f   imgui_widgets.obj
 0002:00113760       ?ImageButton@ImGui@@YA_NPEBDPEAXAEBUImVec2@@22AEBUImVec4@@3@Z 00000001401d6760 f   imgui_widgets.obj
 0002:00113860       ?ImageButtonEx@ImGui@@YA_NIPEAXAEBUImVec2@@11AEBUImVec4@@2@Z 00000001401d6860 f   imgui_widgets.obj
 0002:00113c90       ?InputDouble@ImGui@@YA_NPEBDPEANNN0H@Z 00000001401d6c90 f   imgui_widgets.obj
 0002:00113dc0       ?InputFloat2@ImGui@@YA_NPEBDQEAM0H@Z 00000001401d6dc0 f   imgui_widgets.obj
 0002:00113e70       ?InputFloat3@ImGui@@YA_NPEBDQEAM0H@Z 00000001401d6e70 f   imgui_widgets.obj
 0002:00113f20       ?InputFloat4@ImGui@@YA_NPEBDQEAM0H@Z 00000001401d6f20 f   imgui_widgets.obj
 0002:00113fd0       ?InputFloat@ImGui@@YA_NPEBDPEAMMM0H@Z 00000001401d6fd0 f   imgui_widgets.obj
 0002:00114100       ?InputInt2@ImGui@@YA_NPEBDQEAHH@Z 00000001401d7100 f   imgui_widgets.obj
 0002:001141b0       ?InputInt3@ImGui@@YA_NPEBDQEAHH@Z 00000001401d71b0 f   imgui_widgets.obj
 0002:00114260       ?InputInt4@ImGui@@YA_NPEBDQEAHH@Z 00000001401d7260 f   imgui_widgets.obj
 0002:00114310       ?InputInt@ImGui@@YA_NPEBDPEAHHHH@Z 00000001401d7310 f   imgui_widgets.obj
 0002:00114450       ?InputScalar@ImGui@@YA_NPEBDHPEAXPEBX20H@Z 00000001401d7450 f   imgui_widgets.obj
 0002:00114a20       ?InputScalarN@ImGui@@YA_NPEBDHPEAXHPEBX20H@Z 00000001401d7a20 f   imgui_widgets.obj
 0002:00114d80       ?InputText@ImGui@@YA_NPEBDPEAD_KHP6AHPEAUImGuiInputTextCallbackData@@@ZPEAX@Z 00000001401d7d80 f   imgui_widgets.obj
 0002:001152a0       ?InputTextEx@ImGui@@YA_NPEBD0PEADHAEBUImVec2@@HP6AHPEAUImGuiInputTextCallbackData@@@ZPEAX@Z 00000001401d82a0 f   imgui_widgets.obj
 0002:0011b0f0       ?InputTextMultiline@ImGui@@YA_NPEBDPEAD_KAEBUImVec2@@HP6AHPEAUImGuiInputTextCallbackData@@@ZPEAX@Z 00000001401de0f0 f   imgui_widgets.obj
 0002:0011b530       ?InputTextWithHint@ImGui@@YA_NPEBD0PEAD_KHP6AHPEAUImGuiInputTextCallbackData@@@ZPEAX@Z 00000001401de530 f   imgui_widgets.obj
 0002:0011b630       ?InsertChars@ImGuiInputTextCallbackData@@QEAAXHPEBD0@Z 00000001401de630 f   imgui_widgets.obj
 0002:0011ba10       ?InvisibleButton@ImGui@@YA_NPEBDAEBUImVec2@@H@Z 00000001401dea10 f   imgui_widgets.obj
 0002:0011bee0       ?LabelText@ImGui@@YAXPEBD0ZZ 00000001401deee0 f   imgui_widgets.obj
 0002:0011bfb0       ?LabelTextV@ImGui@@YAXPEBD0PEAD@Z 00000001401defb0 f   imgui_widgets.obj
 0002:0011c3c0       ?ListBox@ImGui@@YA_NPEBDPEAHP6A_NPEAXHPEAPEBD@Z2HH@Z 00000001401df3c0 f   imgui_widgets.obj
 0002:0011c6f0       ?ListBox@ImGui@@YA_NPEBDPEAHQEBQEBDHH@Z 00000001401df6f0 f   imgui_widgets.obj
 0002:0011c790       ?ListBoxHeader@ImGui@@YA_NPEBDHH@Z 00000001401df790 f   imgui_widgets.obj
 0002:0011c8e0       ?MenuItem@ImGui@@YA_NPEBD0PEA_N_N@Z 00000001401df8e0 f   imgui_widgets.obj
 0002:0011c9f0       ?MenuItem@ImGui@@YA_NPEBD0_N1@Z 00000001401df9f0 f   imgui_widgets.obj
 0002:0011ca80       ?MenuItemEx@ImGui@@YA_NPEBD00_N1@Z 00000001401dfa80 f   imgui_widgets.obj
 0002:0011d2f0       ?NewLine@ImGui@@YAXXZ      00000001401e02f0 f   imgui_widgets.obj
 0002:0011d410       ?OnKeyPressed@ImGuiInputTextState@@QEAAXH@Z 00000001401e0410 f   imgui_widgets.obj
 0002:0011d4a0       ?PlotEx@ImGui@@YAHW4ImGuiPlotType@@PEBDP6AMPEAXH@Z2HH1MMAEBUImVec2@@@Z 00000001401e04a0 f   imgui_widgets.obj
 0002:0011e3c0       ?PlotHistogram@ImGui@@YAXPEBDP6AMPEAXH@Z1HH0MMUImVec2@@@Z 00000001401e13c0 f   imgui_widgets.obj
 0002:0011e4a0       ?PlotHistogram@ImGui@@YAXPEBDPEBMHH0MMUImVec2@@H@Z 00000001401e14a0 f   imgui_widgets.obj
 0002:0011e5d0       ?PlotLines@ImGui@@YAXPEBDP6AMPEAXH@Z1HH0MMUImVec2@@@Z 00000001401e15d0 f   imgui_widgets.obj
 0002:0011e6a0       ?PlotLines@ImGui@@YAXPEBDPEBMHH0MMUImVec2@@H@Z 00000001401e16a0 f   imgui_widgets.obj
 0002:0011e860       ?PrimVtx@ImDrawList@@QEAAXAEBUImVec2@@0I@Z 00000001401e1860 f i imgui_widgets.obj
 0002:0011e900       ?ProgressBar@ImGui@@YAXMAEBUImVec2@@PEBD@Z 00000001401e1900 f   imgui_widgets.obj
 0002:0011edb0       ?RadioButton@ImGui@@YA_NPEBDPEAHH@Z 00000001401e1db0 f   imgui_widgets.obj
 0002:0011ee70       ?RadioButton@ImGui@@YA_NPEBD_N@Z 00000001401e1e70 f   imgui_widgets.obj
 0002:00120420       ?Scrollbar@ImGui@@YAXW4ImGuiAxis@@@Z 00000001401e3420 f   imgui_widgets.obj
 0002:00120760       ?ScrollbarEx@ImGui@@YA_NAEBUImRect@@IW4ImGuiAxis@@PEA_J_J3H@Z 00000001401e3760 f   imgui_widgets.obj
 0002:00121290       ?SelectAll@ImGuiInputTextState@@QEAAXXZ 00000001401e4290 f i imgui_widgets.obj
 0002:00121320       ?Selectable@ImGui@@YA_NPEBDPEA_NHAEBUImVec2@@@Z 00000001401e4320 f   imgui_widgets.obj
 0002:00121400       ?Selectable@ImGui@@YA_NPEBD_NHAEBUImVec2@@@Z 00000001401e4400 f   imgui_widgets.obj
 0002:00122030       ?Separator@ImGui@@YAXXZ    00000001401e5030 f   imgui_widgets.obj
 0002:001220f0       ?SeparatorEx@ImGui@@YAXH@Z 00000001401e50f0 f   imgui_widgets.obj
 0002:00122750       ?SetColorEditOptions@ImGui@@YAXH@Z 00000001401e5750 f   imgui_widgets.obj
 0002:00122980       ?SetNextItemOpen@ImGui@@YAX_NH@Z 00000001401e5980 f   imgui_widgets.obj
 0002:00122a60       ?SetTabItemClosed@ImGui@@YAXPEBD@Z 00000001401e5a60 f   imgui_widgets.obj
 0002:00122c10       ?ShrinkWidths@ImGui@@YAXPEAUImGuiShrinkWidthItem@@HM@Z 00000001401e5c10 f   imgui_widgets.obj
 0002:00123140       ?SliderAngle@ImGui@@YA_NPEBDPEAMMM0H@Z 00000001401e6140 f   imgui_widgets.obj
 0002:001232a0       ?SliderBehavior@ImGui@@YA_NAEBUImRect@@IHPEAXPEBX2PEBDHPEAU2@@Z 00000001401e62a0 f   imgui_widgets.obj
 0002:00123c40       ?SliderFloat2@ImGui@@YA_NPEBDQEAMMM0H@Z 00000001401e6c40 f   imgui_widgets.obj
 0002:00123d00       ?SliderFloat3@ImGui@@YA_NPEBDQEAMMM0H@Z 00000001401e6d00 f   imgui_widgets.obj
 0002:00123dc0       ?SliderFloat4@ImGui@@YA_NPEBDQEAMMM0H@Z 00000001401e6dc0 f   imgui_widgets.obj
 0002:00123e80       ?SliderFloat@ImGui@@YA_NPEBDPEAMMM0H@Z 00000001401e6e80 f   imgui_widgets.obj
 0002:00123f30       ?SliderInt2@ImGui@@YA_NPEBDQEAHHH0H@Z 00000001401e6f30 f   imgui_widgets.obj
 0002:00123ff0       ?SliderInt3@ImGui@@YA_NPEBDQEAHHH0H@Z 00000001401e6ff0 f   imgui_widgets.obj
 0002:001240b0       ?SliderInt4@ImGui@@YA_NPEBDQEAHHH0H@Z 00000001401e70b0 f   imgui_widgets.obj
 0002:00124170       ?SliderInt@ImGui@@YA_NPEBDPEAHHH0H@Z 00000001401e7170 f   imgui_widgets.obj
 0002:00124220       ?SliderScalar@ImGui@@YA_NPEBDHPEAXPEBX20H@Z 00000001401e7220 f   imgui_widgets.obj
 0002:00124c30       ?SliderScalarN@ImGui@@YA_NPEBDHPEAXHPEBX20H@Z 00000001401e7c30 f   imgui_widgets.obj
 0002:00124e90       ?SmallButton@ImGui@@YA_NPEBD@Z 00000001401e7e90 f   imgui_widgets.obj
 0002:00124f60       ?Spacing@ImGui@@YAXXZ      00000001401e7f60 f   imgui_widgets.obj
 0002:00124fe0       ?SplitterBehavior@ImGui@@YA_NAEBUImRect@@IW4ImGuiAxis@@PEAM2MMMMI@Z 00000001401e7fe0 f   imgui_widgets.obj
 0002:00125820       ?TabBarCloseTab@ImGui@@YAXPEAUImGuiTabBar@@PEAUImGuiTabItem@@@Z 00000001401e8820 f   imgui_widgets.obj
 0002:00125930       ?TabBarFindTabByID@ImGui@@YAPEAUImGuiTabItem@@PEAUImGuiTabBar@@I@Z 00000001401e8930 f   imgui_widgets.obj
 0002:001259f0       ?TabBarFindTabByOrder@ImGui@@YAPEAUImGuiTabItem@@PEAUImGuiTabBar@@H@Z 00000001401e89f0 f   imgui_widgets.obj
 0002:00125a80       ?TabBarGetCurrentTab@ImGui@@YAPEAUImGuiTabItem@@PEAUImGuiTabBar@@@Z 00000001401e8a80 f   imgui_widgets.obj
 0002:00125b20       ?TabBarGetTabName@ImGui@@YAPEBDPEAUImGuiTabBar@@PEAUImGuiTabItem@@@Z 00000001401e8b20 f   imgui_widgets.obj
 0002:00125be0       ?TabBarGetTabOrder@ImGui@@YAHPEAUImGuiTabBar@@PEAUImGuiTabItem@@@Z 00000001401e8be0 f i imgui_widgets.obj
 0002:00127350       ?TabBarProcessReorder@ImGui@@YA_NPEAUImGuiTabBar@@@Z 00000001401ea350 f   imgui_widgets.obj
 0002:00127620       ?TabBarQueueFocus@ImGui@@YAXPEAUImGuiTabBar@@PEAUImGuiTabItem@@@Z 00000001401ea620 f   imgui_widgets.obj
 0002:00127680       ?TabBarQueueReorder@ImGui@@YAXPEAUImGuiTabBar@@PEAUImGuiTabItem@@H@Z 00000001401ea680 f   imgui_widgets.obj
 0002:00127770       ?TabBarQueueReorderFromMousePos@ImGui@@YAXPEAUImGuiTabBar@@PEAUImGuiTabItem@@UImVec2@@@Z 00000001401ea770 f   imgui_widgets.obj
 0002:00127af0       ?TabBarRemoveTab@ImGui@@YAXPEAUImGuiTabBar@@I@Z 00000001401eaaf0 f   imgui_widgets.obj
 0002:00128930       ?TabItemBackground@ImGui@@YAXPEAUImDrawList@@AEBUImRect@@HI@Z 00000001401eb930 f   imgui_widgets.obj
 0002:00128dd0       ?TabItemButton@ImGui@@YA_NPEBDH@Z 00000001401ebdd0 f   imgui_widgets.obj
 0002:00128ef0       ?TabItemCalcSize@ImGui@@YA?AUImVec2@@PEAUImGuiWindow@@@Z 00000001401ebef0 f   imgui_widgets.obj
 0002:00128f90       ?TabItemCalcSize@ImGui@@YA?AUImVec2@@PEBD_N@Z 00000001401ebf90 f   imgui_widgets.obj
 0002:001292a0       ?TabItemEx@ImGui@@YA_NPEAUImGuiTabBar@@PEBDPEA_NHPEAUImGuiWindow@@@Z 00000001401ec2a0 f   imgui_widgets.obj
 0002:0012a630       ?TabItemLabelAndCloseButton@ImGui@@YAXPEAUImDrawList@@AEBUImRect@@HUImVec2@@PEBDII_NPEA_N5@Z 00000001401ed630 f   imgui_widgets.obj
 0002:0012adb0       ?TempInputIsActive@ImGui@@YA_NI@Z 00000001401eddb0 f i imgui_widgets.obj
 0002:0012ae50       ?TempInputScalar@ImGui@@YA_NAEBUImRect@@IPEBDHPEAX1PEBX3@Z 00000001401ede50 f   imgui_widgets.obj
 0002:0012b140       ?TempInputText@ImGui@@YA_NAEBUImRect@@IPEBDPEADHH@Z 00000001401ee140 f   imgui_widgets.obj
 0002:0012b2f0       ?Text@ImGui@@YAXPEBDZZ     00000001401ee2f0 f   imgui_widgets.obj
 0002:0012b3c0       ?TextColored@ImGui@@YAXAEBUImVec4@@PEBDZZ 00000001401ee3c0 f   imgui_widgets.obj
 0002:0012b490       ?TextColoredV@ImGui@@YAXAEBUImVec4@@PEBDPEAD@Z 00000001401ee490 f   imgui_widgets.obj
 0002:0012b520       ?TextDisabled@ImGui@@YAXPEBDZZ 00000001401ee520 f   imgui_widgets.obj
 0002:0012b5f0       ?TextDisabledV@ImGui@@YAXPEBDPEAD@Z 00000001401ee5f0 f   imgui_widgets.obj
 0002:0012b690       ?TextEx@ImGui@@YAXPEBD0H@Z 00000001401ee690 f   imgui_widgets.obj
 0002:0012bf70       ?TextUnformatted@ImGui@@YAXPEBD0@Z 00000001401eef70 f   imgui_widgets.obj
 0002:0012bfe0       ?TextV@ImGui@@YAXPEBDPEAD@Z 00000001401eefe0 f   imgui_widgets.obj
 0002:0012c0c0       ?TextWrapped@ImGui@@YAXPEBDZZ 00000001401ef0c0 f   imgui_widgets.obj
 0002:0012c190       ?TextWrappedV@ImGui@@YAXPEBDPEAD@Z 00000001401ef190 f   imgui_widgets.obj
 0002:0012c260       ?TreeNode@ImGui@@YA_NPEBD0ZZ 00000001401ef260 f   imgui_widgets.obj
 0002:0012c340       ?TreeNode@ImGui@@YA_NPEBD@Z 00000001401ef340 f   imgui_widgets.obj
 0002:0012c3e0       ?TreeNode@ImGui@@YA_NPEBXPEBDZZ 00000001401ef3e0 f   imgui_widgets.obj
 0002:0012c4c0       ?TreeNodeBehavior@ImGui@@YA_NIHPEBD0@Z 00000001401ef4c0 f   imgui_widgets.obj
 0002:0012d7c0       ?TreeNodeEx@ImGui@@YA_NPEBDH0ZZ 00000001401f07c0 f   imgui_widgets.obj
 0002:0012d8a0       ?TreeNodeEx@ImGui@@YA_NPEBDH@Z 00000001401f08a0 f   imgui_widgets.obj
 0002:0012d940       ?TreeNodeEx@ImGui@@YA_NPEBXHPEBDZZ 00000001401f0940 f   imgui_widgets.obj
 0002:0012da20       ?TreeNodeExV@ImGui@@YA_NPEBDH0PEAD@Z 00000001401f0a20 f   imgui_widgets.obj
 0002:0012db30       ?TreeNodeExV@ImGui@@YA_NPEBXHPEBDPEAD@Z 00000001401f0b30 f   imgui_widgets.obj
 0002:0012dc40       ?TreeNodeSetOpen@ImGui@@YAXI_N@Z 00000001401f0c40 f   imgui_widgets.obj
 0002:0012dd00       ?TreeNodeUpdateNextOpen@ImGui@@YA_NIH@Z 00000001401f0d00 f   imgui_widgets.obj
 0002:0012df40       ?TreeNodeV@ImGui@@YA_NPEBD0PEAD@Z 00000001401f0f40 f   imgui_widgets.obj
 0002:0012dfb0       ?TreeNodeV@ImGui@@YA_NPEBXPEBDPEAD@Z 00000001401f0fb0 f   imgui_widgets.obj
 0002:0012e020       ?TreePop@ImGui@@YAXXZ      00000001401f1020 f   imgui_widgets.obj
 0002:0012e1f0       ?TreePush@ImGui@@YAXPEBD@Z 00000001401f11f0 f   imgui_widgets.obj
 0002:0012e270       ?TreePush@ImGui@@YAXPEBX@Z 00000001401f1270 f   imgui_widgets.obj
 0002:0012e2f0       ?TreePushOverrideID@ImGui@@YAXI@Z 00000001401f12f0 f   imgui_widgets.obj
 0002:0012e390       ?Update@ImGuiMenuColumns@@QEAAXM_N@Z 00000001401f1390 f   imgui_widgets.obj
 0002:0012e490       ?VSliderFloat@ImGui@@YA_NPEBDAEBUImVec2@@PEAMMM0H@Z 00000001401f1490 f   imgui_widgets.obj
 0002:0012e550       ?VSliderInt@ImGui@@YA_NPEBDAEBUImVec2@@PEAHHH0H@Z 00000001401f1550 f   imgui_widgets.obj
 0002:0012e610       ?VSliderScalar@ImGui@@YA_NPEBDAEBUImVec2@@HPEAXPEBX30H@Z 00000001401f1610 f   imgui_widgets.obj
 0002:0012ed10       ?Value@ImGui@@YAXPEBDH@Z   00000001401f1d10 f   imgui_widgets.obj
 0002:0012ed80       ?Value@ImGui@@YAXPEBDI@Z   00000001401f1d80 f   imgui_widgets.obj
 0002:0012edf0       ?Value@ImGui@@YAXPEBDM0@Z  00000001401f1df0 f   imgui_widgets.obj
 0002:0012ef00       ?Value@ImGui@@YAXPEBD_N@Z  00000001401f1f00 f   imgui_widgets.obj
 0002:0012efa0       ?_grow_capacity@?$ImVector@UImGuiPtrOrIndex@@@@QEBAHH@Z 00000001401f1fa0 f i imgui_widgets.obj
 0002:0012f070       ?_grow_capacity@?$ImVector@UImGuiShrinkWidthItem@@@@QEBAHH@Z 00000001401f2070 f i imgui_widgets.obj
 0002:0012f140       ?_grow_capacity@?$ImVector@UImGuiTabBar@@@@QEBAHH@Z 00000001401f2140 f i imgui_widgets.obj
 0002:0012f210       ?_grow_capacity@?$ImVector@UImGuiTabItem@@@@QEBAHH@Z 00000001401f2210 f i imgui_widgets.obj
 0002:0012f2e0       ?back@?$ImVector@UImGuiPtrOrIndex@@@@QEAAAEAUImGuiPtrOrIndex@@XZ 00000001401f22e0 f i imgui_widgets.obj
 0002:0012f380       ?back@?$ImVector@UImGuiTabItem@@@@QEAAAEAUImGuiTabItem@@XZ 00000001401f2380 f i imgui_widgets.obj
 0002:0012f420       ?contains@?$ImVector@I@@QEBA_NAEBI@Z 00000001401f2420 f i imgui_widgets.obj
 0002:0012f520       ?empty@?$ImVector@M@@QEBA_NXZ 00000001401f2520 f i imgui_widgets.obj
 0002:0012f5a0       ?empty@?$ImVector@UImFontGlyph@@@@QEBA_NXZ 00000001401f25a0 f i imgui_widgets.obj
 0002:0012f620       ?empty@?$ImVector@UImGuiPtrOrIndex@@@@QEBA_NXZ 00000001401f2620 f i imgui_widgets.obj
 0002:0012f6a0       ?erase@?$ImVector@UImGuiTabItem@@@@QEAAPEAUImGuiTabItem@@PEBU2@@Z 00000001401f26a0 f i imgui_widgets.obj
 0002:0012f820       ?index_from_ptr@?$ImVector@UImGuiTabItem@@@@QEBAHPEBUImGuiTabItem@@@Z 00000001401f2820 f i imgui_widgets.obj
 0002:0012fc50       ?pop_back@?$ImVector@UImGuiPtrOrIndex@@@@QEAAXXZ 00000001401f2c50 f i imgui_widgets.obj
 0002:0012fce0       ?push_back@?$ImVector@UImGuiPtrOrIndex@@@@QEAAXAEBUImGuiPtrOrIndex@@@Z 00000001401f2ce0 f i imgui_widgets.obj
 0002:0012fdd0       ?push_back@?$ImVector@UImGuiTabItem@@@@QEAAXAEBUImGuiTabItem@@@Z 00000001401f2dd0 f i imgui_widgets.obj
 0002:0012fec0       ?reserve@?$ImVector@UImGuiPtrOrIndex@@@@QEAAXH@Z 00000001401f2ec0 f i imgui_widgets.obj
 0002:0012ffc0       ?reserve@?$ImVector@UImGuiShrinkWidthItem@@@@QEAAXH@Z 00000001401f2fc0 f i imgui_widgets.obj
 0002:001300c0       ?reserve@?$ImVector@UImGuiTabBar@@@@QEAAXH@Z 00000001401f30c0 f i imgui_widgets.obj
 0002:001301c0       ?reserve@?$ImVector@UImGuiTabItem@@@@QEAAXH@Z 00000001401f31c0 f i imgui_widgets.obj
 0002:001302c0       ?reserve_discard@?$ImVector@D@@QEAAXH@Z 00000001401f32c0 f i imgui_widgets.obj
 0002:00130380       ?resize@?$ImVector@UImGuiShrinkWidthItem@@@@QEAAXH@Z 00000001401f3380 f i imgui_widgets.obj
 0002:00130420       ?resize@?$ImVector@UImGuiTabBar@@@@QEAAXH@Z 00000001401f3420 f i imgui_widgets.obj
 0002:001304c0       ?resize@?$ImVector@UImGuiTabItem@@@@QEAAXH@Z 00000001401f34c0 f i imgui_widgets.obj
 0002:00134100       ??$?0$$V@?$_Compressed_pair@U?$_Wrap_alloc@V?$allocator@_W@std@@@std@@V?$_String_val@U?$_Simple_types@_W@std@@@2@$00@std@@QEAA@U_Zero_then_variadic_args_t@1@@Z 00000001401f7100 f i Application.obj
 0002:00134170       ??$?0AEAU?$_Wrap_alloc@V?$allocator@_W@std@@@std@@@?$_Wrap_alloc@V?$allocator@U_Container_proxy@std@@@std@@@std@@QEAA@AEAU?$_Wrap_alloc@V?$allocator@_W@std@@@1@@Z 00000001401f7170 f i Application.obj
 0002:001341f0       ??$?0_W@?$allocator@U_Container_proxy@std@@@std@@QEAA@AEBV?$allocator@_W@1@@Z 00000001401f71f0 f i Application.obj
 0002:00134240       ??$Safe_AddRef@PEAVCGameInstance@Engine@@@Engine@@YAKAEAPEAVCGameInstance@0@@Z 00000001401f7240 f i Application.obj
 0002:001342c0       ??$Safe_AddRef@PEAVCRenderer@Engine@@@Engine@@YAKAEAPEAVCRenderer@0@@Z 00000001401f72c0 f i Application.obj
 0002:00134340       ??$Safe_Release@PEAUID3D11Device@@@Engine@@YAKAEAPEAUID3D11Device@@@Z 00000001401f7340 f i Application.obj
 0002:001343e0       ??$Safe_Release@PEAUID3D11DeviceContext@@@Engine@@YAKAEAPEAUID3D11DeviceContext@@@Z 00000001401f73e0 f i Application.obj
 0002:00134480       ??$Safe_Release@PEAVCApplication@Client@@@Engine@@YAKAEAPEAVCApplication@Client@@@Z 00000001401f7480 f i Application.obj
 0002:00134510       ??$Safe_Release@PEAVCGameInstance@Engine@@@Engine@@YAKAEAPEAVCGameInstance@0@@Z 00000001401f7510 f i Application.obj
 0002:001345a0       ??$Safe_Release@PEAVCRenderer@Engine@@@Engine@@YAKAEAPEAVCRenderer@0@@Z 00000001401f75a0 f i Application.obj
 0002:00134630       ??$_Debug_pointer@$$CB_W@std@@YAXPEB_W0I@Z 00000001401f7630 f i Application.obj
 0002:001346b0       ??$_Debug_pointer_if@$$CB_W@std@@YAX_NPEB_W1I@Z 00000001401f76b0 f i Application.obj
 0002:00134740       ??$_Unfancy@U_Container_proxy@std@@@std@@YAPEAU_Container_proxy@0@PEAU10@@Z 00000001401f7740 f i Application.obj
 0002:00134790       ??$_Unfancy@_W@std@@YAPEA_WPEA_W@Z 00000001401f7790 f i Application.obj
 0002:001347e0       ??$addressof@PEA_W@std@@YAPEAPEA_WAEAPEA_W@Z 00000001401f77e0 f i Application.obj
 0002:00134830       ??$addressof@U_Container_proxy@std@@@std@@YAPEAU_Container_proxy@0@AEAU10@@Z 00000001401f7830 f i Application.obj
 0002:00134880       ??$construct@PEA_WAEAPEA_W@?$_Wrap_alloc@V?$allocator@_W@std@@@std@@QEAAXPEAPEA_WAEAPEA_W@Z 00000001401f7880 f i Application.obj
 0002:00134900       ??$construct@PEA_WAEAPEA_W@?$allocator@_W@std@@QEAAXPEAPEA_WAEAPEA_W@Z 00000001401f7900 f i Application.obj
 0002:001349c0       ??$construct@PEA_WAEAPEA_W@?$allocator_traits@V?$allocator@_W@std@@@std@@SAXAEAV?$allocator@_W@1@PEAPEA_WAEAPEA_W@Z 00000001401f79c0 f i Application.obj
 0002:00134a40       ??$construct@U_Container_proxy@std@@U12@@?$_Wrap_alloc@V?$allocator@U_Container_proxy@std@@@std@@@std@@QEAAXPEAU_Container_proxy@1@$$QEAU21@@Z 00000001401f7a40 f i Application.obj
 0002:00134ac0       ??$construct@U_Container_proxy@std@@U12@@?$allocator@U_Container_proxy@std@@@std@@QEAAXPEAU_Container_proxy@1@$$QEAU21@@Z 00000001401f7ac0 f i Application.obj
 0002:00134b80       ??$construct@U_Container_proxy@std@@U12@@?$allocator_traits@V?$allocator@U_Container_proxy@std@@@std@@@std@@SAXAEAV?$allocator@U_Container_proxy@std@@@1@PEAU_Container_proxy@1@$$QEAU31@@Z 00000001401f7b80 f i Application.obj
 0002:00134c00       ??$destroy@PEA_W@?$_Wrap_alloc@V?$allocator@_W@std@@@std@@QEAAXPEAPEA_W@Z 00000001401f7c00 f i Application.obj
 0002:00134c60       ??$destroy@PEA_W@?$allocator@_W@std@@QEAAXPEAPEA_W@Z 00000001401f7c60 f i Application.obj
 0002:00134cb0       ??$destroy@PEA_W@?$allocator_traits@V?$allocator@_W@std@@@std@@SAXAEAV?$allocator@_W@1@PEAPEA_W@Z 00000001401f7cb0 f i Application.obj
 0002:00134d10       ??$destroy@U_Container_proxy@std@@@?$_Wrap_alloc@V?$allocator@U_Container_proxy@std@@@std@@@std@@QEAAXPEAU_Container_proxy@1@@Z 00000001401f7d10 f i Application.obj
 0002:00134d70       ??$destroy@U_Container_proxy@std@@@?$allocator@U_Container_proxy@std@@@std@@QEAAXPEAU_Container_proxy@1@@Z 00000001401f7d70 f i Application.obj
 0002:00134dc0       ??$destroy@U_Container_proxy@std@@@?$allocator_traits@V?$allocator@U_Container_proxy@std@@@std@@@std@@SAXAEAV?$allocator@U_Container_proxy@std@@@1@PEAU_Container_proxy@1@@Z 00000001401f7dc0 f i Application.obj
 0002:00134e20       ??$forward@AEAPEA_W@std@@YAAEAPEA_WAEAPEA_W@Z 00000001401f7e20 f i Application.obj
 0002:00134e70       ??$forward@AEAU?$_Wrap_alloc@V?$allocator@_W@std@@@std@@@std@@YAAEAU?$_Wrap_alloc@V?$allocator@_W@std@@@0@AEAU10@@Z 00000001401f7e70 f i Application.obj
 0002:00134ec0       ??$forward@U_Container_proxy@std@@@std@@YA$$QEAU_Container_proxy@0@AEAU10@@Z 00000001401f7ec0 f i Application.obj
 0002:00134f10       ??0?$_String_alloc@U?$_String_base_types@_WV?$allocator@_W@std@@@std@@@std@@QEAA@XZ 00000001401f7f10 f i Application.obj
 0002:00134fa0       ??0?$_String_val@U?$_Simple_types@_W@std@@@std@@QEAA@XZ 00000001401f7fa0 f i Application.obj
 0002:00135050       ??0?$_Wrap_alloc@V?$allocator@_W@std@@@std@@QEAA@XZ 00000001401f8050 f i Application.obj
 0002:001350b0       ??0?$allocator@_W@std@@QEAA@XZ 00000001401f80b0 f i Application.obj
 0002:00135100       ??0?$basic_string@_WU?$char_traits@_W@std@@V?$allocator@_W@2@@std@@QEAA@PEB_W@Z 00000001401f8100 f i Application.obj
 0002:001351a0       ??0?$basic_string@_WU?$char_traits@_W@std@@V?$allocator@_W@2@@std@@QEAA@XZ 00000001401f81a0 f i Application.obj
 0002:00135220       ??0CApplication@Client@@AEAA@XZ 00000001401f8220 f   Application.obj
 0002:00135380       ??0XMFLOAT4@DirectX@@QEAA@MMMM@Z 00000001401f8380 f i Application.obj
 0002:00135440       ??0_Bxty@?$_String_val@U?$_Simple_types@_W@std@@@std@@QEAA@XZ 00000001401f8440 f i Application.obj
 0002:00135490       ??0_Container_base12@std@@QEAA@XZ 00000001401f8490 f i Application.obj
 0002:001354f0       ??0_Container_proxy@std@@QEAA@XZ 00000001401f84f0 f i Application.obj
 0002:00135560       ??1?$_Compressed_pair@U?$_Wrap_alloc@V?$allocator@_W@std@@@std@@V?$_String_val@U?$_Simple_types@_W@std@@@2@$00@std@@QEAA@XZ 00000001401f8560 f i Application.obj
 0002:001355c0       ??1?$_String_alloc@U?$_String_base_types@_WV?$allocator@_W@std@@@std@@@std@@QEAA@XZ 00000001401f85c0 f i Application.obj
 0002:00135640       ??1?$_String_val@U?$_Simple_types@_W@std@@@std@@QEAA@XZ 00000001401f8640 f i Application.obj
 0002:001356b0       ??1?$basic_string@_WU?$char_traits@_W@std@@V?$allocator@_W@2@@std@@QEAA@XZ 00000001401f86b0 f i Application.obj
 0002:00135730       ??1CApplication@Client@@EEAA@XZ 00000001401f8730 f i Application.obj
 0002:00135790       ??1_Bxty@?$_String_val@U?$_Simple_types@_W@std@@@std@@QEAA@XZ 00000001401f8790 f i Application.obj
 0002:001357d0       ??1_Container_base12@std@@QEAA@XZ 00000001401f87d0 f i Application.obj
 0002:00135830       ??2@YAPEAX_KPEAX@Z         00000001401f8830 f i Application.obj
 0002:00135880       ??4?$basic_string@_WU?$char_traits@_W@std@@V?$allocator@_W@2@@std@@QEAAAEAV01@PEB_W@Z 00000001401f8880 f i Application.obj
 0002:001358e0       ??_ECApplication@Client@@EEAAPEAXI@Z 00000001401f88e0 f i Application.obj
 0002:001358e0       ??_GCApplication@Client@@EEAAPEAXI@Z 00000001401f88e0 f i Application.obj
 0002:00135970       ?Create@CApplication@Client@@SAPEAV12@XZ 00000001401f8970 f   Application.obj
 0002:00135ae0       ?DestroyManager@CApplication@Client@@AEAAXXZ 00000001401f8ae0 f   Application.obj
 0002:00135b50       ?Free@CApplication@Client@@UEAAXXZ 00000001401f8b50 f   Application.obj
 0002:00135c10       ?Initialize@CApplication@Client@@QEAAJXZ 00000001401f8c10 f   Application.obj
 0002:00135eb0       ?InitializeManager@CApplication@Client@@AEAAJXZ 00000001401f8eb0 f   Application.obj
 0002:00135f00       ?Open_Level@CApplication@Client@@AEAAJW4LEVEL_ID@2@@Z 00000001401f8f00 f   Application.obj
 0002:001360d0       ?Ready_Prototype_Static_Component@CApplication@Client@@AEAAJXZ 00000001401f90d0 f   Application.obj
 0002:00136b40       ?Ready_Prototype_Static_GameObject@CApplication@Client@@AEAAJXZ 00000001401f9b40 f   Application.obj
 0002:00136d30       ?Render@CApplication@Client@@QEAAJXZ 00000001401f9d30 f   Application.obj
 0002:00136ed0       ?Tick@CApplication@Client@@QEAAXN@Z 00000001401f9ed0 f   Application.obj
 0002:00136f90       ?_Alloc_proxy@?$_String_alloc@U?$_String_base_types@_WV?$allocator@_W@std@@@std@@@std@@QEAAXXZ 00000001401f9f90 f i Application.obj
 0002:001370f0       ?_Allocate@std@@YAPEAX_K0_N@Z 00000001401fa0f0 f i Application.obj
 0002:001373d0       ?_Bx@?$_String_alloc@U?$_String_base_types@_WV?$allocator@_W@std@@@std@@@std@@QEAAAEAT_Bxty@?$_String_val@U?$_Simple_types@_W@std@@@2@XZ 00000001401fa3d0 f i Application.obj
 0002:00137430       ?_Check_offset@?$basic_string@_WU?$char_traits@_W@std@@V?$allocator@_W@2@@std@@QEBAX_K@Z 00000001401fa430 f i Application.obj
 0002:001374b0       ?_Clamp_suffix_size@?$basic_string@_WU?$char_traits@_W@std@@V?$allocator@_W@2@@std@@QEBA_K_K0@Z 00000001401fa4b0 f i Application.obj
 0002:00137550       ?_Copy@?$basic_string@_WU?$char_traits@_W@std@@V?$allocator@_W@2@@std@@QEAAX_K0@Z 00000001401fa550 f i Application.obj
 0002:00137870       ?_Deallocate@std@@YAXPEAX_K1@Z 00000001401fa870 f i Application.obj
 0002:00137dc0       ?_Eos@?$basic_string@_WU?$char_traits@_W@std@@V?$allocator@_W@2@@std@@QEAAX_K@Z 00000001401fadc0 f i Application.obj
 0002:00137e70       ?_Free_proxy@?$_String_alloc@U?$_String_base_types@_WV?$allocator@_W@std@@@std@@@std@@QEAAXXZ 00000001401fae70 f i Application.obj
 0002:00137f90       ?_Get_data@?$_String_alloc@U?$_String_base_types@_WV?$allocator@_W@std@@@std@@@std@@QEAAAEAV?$_String_val@U?$_Simple_types@_W@std@@@2@XZ 00000001401faf90 f i Application.obj
 0002:00137ff0       ?_Get_data@?$_String_alloc@U?$_String_base_types@_WV?$allocator@_W@std@@@std@@@std@@QEBAAEBV?$_String_val@U?$_Simple_types@_W@std@@@2@XZ 00000001401faff0 f i Application.obj
 0002:00138050       ?_Get_first@?$_Compressed_pair@U?$_Wrap_alloc@V?$allocator@_W@std@@@std@@V?$_String_val@U?$_Simple_types@_W@std@@@2@$00@std@@QEAAAEAU?$_Wrap_alloc@V?$allocator@_W@std@@@2@XZ 00000001401fb050 f i Application.obj
 0002:001380a0       ?_Get_first@?$_Compressed_pair@U?$_Wrap_alloc@V?$allocator@_W@std@@@std@@V?$_String_val@U?$_Simple_types@_W@std@@@2@$00@std@@QEBAAEBU?$_Wrap_alloc@V?$allocator@_W@std@@@2@XZ 00000001401fb0a0 f i Application.obj
 0002:001380f0       ?_Get_second@?$_Compressed_pair@U?$_Wrap_alloc@V?$allocator@_W@std@@@std@@V?$_String_val@U?$_Simple_types@_W@std@@@2@$00@std@@QEAAAEAV?$_String_val@U?$_Simple_types@_W@std@@@2@XZ 00000001401fb0f0 f i Application.obj
 0002:00138140       ?_Get_second@?$_Compressed_pair@U?$_Wrap_alloc@V?$allocator@_W@std@@@std@@V?$_String_val@U?$_Simple_types@_W@std@@@2@$00@std@@QEBAAEBV?$_String_val@U?$_Simple_types@_W@std@@@2@XZ 00000001401fb140 f i Application.obj
 0002:00138190       ?_Getal@?$_String_alloc@U?$_String_base_types@_WV?$allocator@_W@std@@@std@@@std@@QEAAAEAU?$_Wrap_alloc@V?$allocator@_W@std@@@2@XZ 00000001401fb190 f i Application.obj
 0002:001381f0       ?_Getal@?$_String_alloc@U?$_String_base_types@_WV?$allocator@_W@std@@@std@@@std@@QEBAAEBU?$_Wrap_alloc@V?$allocator@_W@std@@@2@XZ 00000001401fb1f0 f i Application.obj
 0002:00138250       ?_Grow@?$basic_string@_WU?$char_traits@_W@std@@V?$allocator@_W@2@@std@@QEAA_N_K_N@Z 00000001401fb250 f i Application.obj
 0002:001383f0       ?_Inside@?$basic_string@_WU?$char_traits@_W@std@@V?$allocator@_W@2@@std@@QEAA_NPEB_W@Z 00000001401fb3f0 f i Application.obj
 0002:001384b0       ?_Myproxy@?$_String_alloc@U?$_String_base_types@_WV?$allocator@_W@std@@@std@@@std@@QEAAAEAPEAU_Container_proxy@2@XZ 00000001401fb4b0 f i Application.obj
 0002:00138500       ?_Myptr@?$_String_alloc@U?$_String_base_types@_WV?$allocator@_W@std@@@std@@@std@@QEAAPEA_WXZ 00000001401fb500 f i Application.obj
 0002:00138560       ?_Myptr@?$_String_alloc@U?$_String_base_types@_WV?$allocator@_W@std@@@std@@@std@@QEBAPEB_WXZ 00000001401fb560 f i Application.obj
 0002:001385c0       ?_Myptr@?$_String_val@U?$_Simple_types@_W@std@@@std@@QEAAPEA_WXZ 00000001401fb5c0 f i Application.obj
 0002:00138660       ?_Myptr@?$_String_val@U?$_Simple_types@_W@std@@@std@@QEBAPEB_WXZ 00000001401fb660 f i Application.obj
 0002:00138700       ?_Myres@?$_String_alloc@U?$_String_base_types@_WV?$allocator@_W@std@@@std@@@std@@QEAAAEA_KXZ 00000001401fb700 f i Application.obj
 0002:00138760       ?_Mysize@?$_String_alloc@U?$_String_base_types@_WV?$allocator@_W@std@@@std@@@std@@QEAAAEA_KXZ 00000001401fb760 f i Application.obj
 0002:001387c0       ?_Mysize@?$_String_alloc@U?$_String_base_types@_WV?$allocator@_W@std@@@std@@@std@@QEBAAEB_KXZ 00000001401fb7c0 f i Application.obj
 0002:00138820       ?_Orphan_all@?$_String_alloc@U?$_String_base_types@_WV?$allocator@_W@std@@@std@@@std@@QEAAXXZ 00000001401fb820 f i Application.obj
 0002:00138880       ?_Orphan_all@_Container_base12@std@@QEAAXXZ 00000001401fb880 f i Application.obj
 0002:001389a0       ?_Tidy@?$basic_string@_WU?$char_traits@_W@std@@V?$allocator@_W@2@@std@@QEAAX_N_K@Z 00000001401fb9a0 f i Application.obj
 0002:00138b50       ?_Xlen@?$basic_string@_WU?$char_traits@_W@std@@V?$allocator@_W@2@@std@@QEBAXXZ 00000001401fbb50 f i Application.obj
 0002:00138bb0       ?_Xran@?$basic_string@_WU?$char_traits@_W@std@@V?$allocator@_W@2@@std@@QEBAXXZ 00000001401fbbb0 f i Application.obj
 0002:00138c10       ?__empty_global_delete@@YAXPEAX@Z 00000001401fbc10 f i Application.obj
 0002:00138c50       ?__empty_global_delete@@YAXPEAX_K@Z 00000001401fbc50 f i Application.obj
 0002:00138ca0       ?address@?$_Wrap_alloc@V?$allocator@U_Container_proxy@std@@@std@@@std@@QEBAPEAU_Container_proxy@2@AEAU32@@Z 00000001401fbca0 f i Application.obj
 0002:00138d00       ?allocate@?$_Wrap_alloc@V?$allocator@U_Container_proxy@std@@@std@@@std@@QEAAPEAU_Container_proxy@2@_K@Z 00000001401fbd00 f i Application.obj
 0002:00138d60       ?allocate@?$_Wrap_alloc@V?$allocator@_W@std@@@std@@QEAAPEA_W_K@Z 00000001401fbd60 f i Application.obj
 0002:00138dc0       ?allocate@?$allocator@U_Container_proxy@std@@@std@@QEAAPEAU_Container_proxy@2@_K@Z 00000001401fbdc0 f i Application.obj
 0002:00138e20       ?allocate@?$allocator@_W@std@@QEAAPEA_W_K@Z 00000001401fbe20 f i Application.obj
 0002:00138e80       ?assign@?$basic_string@_WU?$char_traits@_W@std@@V?$allocator@_W@2@@std@@QEAAAEAV12@AEBV12@_K1@Z 00000001401fbe80 f i Application.obj
 0002:00139010       ?assign@?$basic_string@_WU?$char_traits@_W@std@@V?$allocator@_W@2@@std@@QEAAAEAV12@PEB_W@Z 00000001401fc010 f i Application.obj
 0002:001390b0       ?assign@?$basic_string@_WU?$char_traits@_W@std@@V?$allocator@_W@2@@std@@QEAAAEAV12@PEB_W_K@Z 00000001401fc0b0 f i Application.obj
 0002:00139220       ?assign@?$char_traits@_W@std@@SAXAEA_WAEB_W@Z 00000001401fc220 f i Application.obj
 0002:00139280       ?c_str@?$basic_string@_WU?$char_traits@_W@std@@V?$allocator@_W@2@@std@@QEBAPEB_WXZ 00000001401fc280 f i Application.obj
 0002:001392e0       ?copy@?$char_traits@_W@std@@SAPEA_WPEA_WPEB_W_K@Z 00000001401fc2e0 f i Application.obj
 0002:00139380       ?deallocate@?$_Wrap_alloc@V?$allocator@U_Container_proxy@std@@@std@@@std@@QEAAXPEAU_Container_proxy@2@_K@Z 00000001401fc380 f i Application.obj
 0002:001393f0       ?deallocate@?$_Wrap_alloc@V?$allocator@_W@std@@@std@@QEAAXPEA_W_K@Z 00000001401fc3f0 f i Application.obj
 0002:00139460       ?deallocate@?$allocator@U_Container_proxy@std@@@std@@QEAAXPEAU_Container_proxy@2@_K@Z 00000001401fc460 f i Application.obj
 0002:001394d0       ?deallocate@?$allocator@_W@std@@QEAAXPEA_W_K@Z 00000001401fc4d0 f i Application.obj
 0002:00139540       ?erase@?$basic_string@_WU?$char_traits@_W@std@@V?$allocator@_W@2@@std@@QEAAAEAV12@_K0@Z 00000001401fc540 f i Application.obj
 0002:001396a0       ?erase@?$basic_string@_WU?$char_traits@_W@std@@V?$allocator@_W@2@@std@@QEAAAEAV12@_K@Z 00000001401fc6a0 f i Application.obj
 0002:00139720       ?length@?$char_traits@_W@std@@SA_KPEB_W@Z 00000001401fc720 f i Application.obj
 0002:001397b0       ?max_size@?$_Wrap_alloc@V?$allocator@_W@std@@@std@@QEBA_KU_Nil@2@@Z 00000001401fc7b0 f i Application.obj
 0002:00139810       ?max_size@?$allocator@_W@std@@QEBA_KXZ 00000001401fc810 f i Application.obj
 0002:00139860       ?max_size@?$allocator_traits@V?$allocator@_W@std@@@std@@SA_KAEBV?$allocator@_W@2@@Z 00000001401fc860 f i Application.obj
 0002:001398b0       ?max_size@?$basic_string@_WU?$char_traits@_W@std@@V?$allocator@_W@2@@std@@QEBA_KXZ 00000001401fc8b0 f i Application.obj
 0002:00139950       ?move@?$char_traits@_W@std@@SAPEA_WPEA_WPEB_W_K@Z 00000001401fc950 f i Application.obj
 0002:001399f0       ?pointer_to@?$pointer_traits@PEAU_Container_proxy@std@@@std@@SAPEAU_Container_proxy@2@AEAU32@@Z 00000001401fc9f0 f i Application.obj
 0002:00139aa0       wmemcpy                    00000001401fcaa0 f i Application.obj
 0002:00139b20       wmemmove                   00000001401fcb20 f i Application.obj
 0002:00139ba0       ??$?8V?$allocator@_W@std@@V01@@std@@YA_NAEBU?$_Wrap_alloc@V?$allocator@_W@std@@@0@0@Z 00000001401fcba0 f i ApplicationManager.obj
 0002:00139c00       ??$?8_WU?$char_traits@_W@std@@V?$allocator@_W@1@@std@@YA_NAEBV?$basic_string@_WU?$char_traits@_W@std@@V?$allocator@_W@2@@0@0@Z 00000001401fcc00 f i ApplicationManager.obj
 0002:00139c90       ??$?8_W_W@std@@YA_NAEBV?$allocator@_W@0@0@Z 00000001401fcc90 f i ApplicationManager.obj
 0002:00139ce0       ??$?9V?$allocator@_W@std@@V01@@std@@YA_NAEBU?$_Wrap_alloc@V?$allocator@_W@std@@@0@0@Z 00000001401fcce0 f i ApplicationManager.obj
 0002:00139d70       ??$?9_WU?$char_traits@_W@std@@V?$allocator@_W@1@@std@@YA_NAEBV?$basic_string@_WU?$char_traits@_W@std@@V?$allocator@_W@2@@0@0@Z 00000001401fcd70 f i ApplicationManager.obj
 0002:00139e00       ??$_Pocca@U?$_Wrap_alloc@V?$allocator@_W@std@@@std@@@std@@YAXAEAU?$_Wrap_alloc@V?$allocator@_W@std@@@0@AEBU10@@Z 00000001401fce00 f i ApplicationManager.obj
 0002:00139e80       ??$_Pocca@U?$_Wrap_alloc@V?$allocator@_W@std@@@std@@@std@@YAXAEAU?$_Wrap_alloc@V?$allocator@_W@std@@@0@AEBU10@U?$integral_constant@_N$0A@@0@@Z 00000001401fce80 f i ApplicationManager.obj
 0002:00139ed0       ??0CApplicationManager@Client@@AEAA@XZ 00000001401fced0 f   ApplicationManager.obj
 0002:00139fb0       ??0XMFLOAT3@DirectX@@QEAA@MMM@Z 00000001401fcfb0 f i ApplicationManager.obj
 0002:0013a060       ??1CApplicationManager@Client@@EEAA@XZ 00000001401fd060 f i ApplicationManager.obj
 0002:0013a0d0       ??4?$basic_string@_WU?$char_traits@_W@std@@V?$allocator@_W@2@@std@@QEAAAEAV01@AEBV01@@Z 00000001401fd0d0 f i ApplicationManager.obj
 0002:0013a1d0       ??_GCApplicationManager@Client@@EEAAPEAXI@Z 00000001401fd1d0 f i ApplicationManager.obj
 0002:0013a1d0       ??_ECApplicationManager@Client@@EEAAPEAXI@Z 00000001401fd1d0 f i ApplicationManager.obj
 0002:0013a260       ?DestroyInstance@CApplicationManager@Client@@SAKXZ 00000001401fd260 f   ApplicationManager.obj
 0002:0013a2e0       ?Free@CApplicationManager@Client@@UEAAXXZ 00000001401fd2e0 f   ApplicationManager.obj
 0002:0013a320       ?GetInstance@CApplicationManager@Client@@SAPEAV12@XZ 00000001401fd320 f   ApplicationManager.obj
 0002:0013a400       ?SetTitle@CApplicationManager@Client@@QEAAXV?$basic_string@_WU?$char_traits@_W@std@@V?$allocator@_W@2@@std@@@Z 00000001401fd400 f   ApplicationManager.obj
 0002:0013a4e0       ?_Copy_alloc@?$_String_alloc@U?$_String_base_types@_WV?$allocator@_W@std@@@std@@@std@@QEAAXAEBU?$_Wrap_alloc@V?$allocator@_W@std@@@2@@Z 00000001401fd4e0 f i ApplicationManager.obj
 0002:0013a570       ?_Traits_compare@?$basic_string@_WU?$char_traits@_W@std@@V?$allocator@_W@2@@std@@SAHQEB_W_K01@Z 00000001401fd570 f i ApplicationManager.obj
 0002:0013a680       ?assign@?$basic_string@_WU?$char_traits@_W@std@@V?$allocator@_W@2@@std@@QEAAAEAV12@AEBV12@@Z 00000001401fd680 f i ApplicationManager.obj
 0002:0013a6f0       ?compare@?$basic_string@_WU?$char_traits@_W@std@@V?$allocator@_W@2@@std@@QEBAHAEBV12@@Z 00000001401fd6f0 f i ApplicationManager.obj
 0002:0013a7e0       ?compare@?$char_traits@_W@std@@SAHPEB_W0_K@Z 00000001401fd7e0 f i ApplicationManager.obj
 0002:0013a880       wmemcmp                    00000001401fd880 f i ApplicationManager.obj
 0002:0013a990       ??$Safe_Release@PEAVCBackGround@Client@@@Engine@@YAKAEAPEAVCBackGround@Client@@@Z 00000001401fd990 f i BackGround.obj
 0002:0013aa20       ??$Safe_Release@PEAVCShader@Engine@@@Engine@@YAKAEAPEAVCShader@0@@Z 00000001401fda20 f i BackGround.obj
 0002:0013aab0       ??$Safe_Release@PEAVCTexture@Engine@@@Engine@@YAKAEAPEAVCTexture@0@@Z 00000001401fdab0 f i BackGround.obj
 0002:0013ab40       ??$Safe_Release@PEAVCVIBuffer_Rect@Engine@@@Engine@@YAKAEAPEAVCVIBuffer_Rect@0@@Z 00000001401fdb40 f i BackGround.obj
 0002:0013abd0       ??0CBackGround@Client@@IEAA@AEBV01@@Z 00000001401fdbd0 f   BackGround.obj
 0002:0013ad10       ??0CBackGround@Client@@IEAA@PEAUID3D11Device@@PEAUID3D11DeviceContext@@@Z 00000001401fdd10 f   BackGround.obj
 0002:0013ae60       ??0XMFLOAT4X4@DirectX@@QEAA@XZ 00000001401fde60 f i BackGround.obj
 0002:0013aeb0       ??0XMMATRIX@DirectX@@QEAA@XZ 00000001401fdeb0 f i BackGround.obj
 0002:0013af00       ??1CBackGround@Client@@MEAA@XZ 00000001401fdf00 f i BackGround.obj
 0002:0013af60       ??BXMVECTORF32@DirectX@@QEBA?AT__m128@@XZ 00000001401fdf60 f i BackGround.obj
 0002:0013afd0       ??BXMVECTORU32@DirectX@@QEBA?AT__m128@@XZ 00000001401fdfd0 f i BackGround.obj
 0002:0013b040       ??DXMMATRIX@DirectX@@QEBQ?AU01@U01@@Z 00000001401fe040 f i BackGround.obj
 0002:0013b160       ??_ECBackGround@Client@@MEAAPEAXI@Z 00000001401fe160 f i BackGround.obj
 0002:0013b160       ??_GCBackGround@Client@@MEAAPEAXI@Z 00000001401fe160 f i BackGround.obj
 0002:0013b1f0       ?Add_Components@CBackGround@Client@@AEAAJXZ 00000001401fe1f0 f   BackGround.obj
 0002:0013b390       ?Clone@CBackGround@Client@@UEAAPEAVCGameObject@Engine@@PEAX@Z 00000001401fe390 f   BackGround.obj
 0002:0013b530       ?Create@CBackGround@Client@@SAPEAV12@PEAUID3D11Device@@PEAUID3D11DeviceContext@@@Z 00000001401fe530 f   BackGround.obj
 0002:0013b6d0       ?Free@CBackGround@Client@@UEAAXXZ 00000001401fe6d0 f   BackGround.obj
 0002:0013b790       ?Initialize@CBackGround@Client@@UEAAJPEAX@Z 00000001401fe790 f   BackGround.obj
 0002:0013bba0       ?Initialize_Prototype@CBackGround@Client@@UEAAJXZ 00000001401feba0 f   BackGround.obj
 0002:0013bc10       ?LateTick@CBackGround@Client@@UEAAXN@Z 00000001401fec10 f   BackGround.obj
 0002:0013bcb0       ?Render@CBackGround@Client@@UEAAJXZ 00000001401fecb0 f   BackGround.obj
 0002:0013bd70       ?RenderGUI@CBackGround@Client@@UEAAXXZ 00000001401fed70 f   BackGround.obj
 0002:0013bdb0       ?Setup_ShaderResources@CBackGround@Client@@AEAAJXZ 00000001401fedb0 f   BackGround.obj
 0002:0013bf40       ?Tick@CBackGround@Client@@UEAAXN@Z 00000001401fef40 f   BackGround.obj
 0002:0013bfb0       ?XMMatrixIdentity@DirectX@@YQ?AUXMMATRIX@1@XZ 00000001401fefb0 f i BackGround.obj
 0002:0013c0c0       ?XMMatrixMultiply@DirectX@@YQ?AUXMMATRIX@1@U21@AEBU21@@Z 00000001401ff0c0 f i BackGround.obj
 0002:0013cb00       ?XMMatrixOrthographicLH@DirectX@@YQ?AUXMMATRIX@1@MMMM@Z 00000001401ffb00 f i BackGround.obj
 0002:0013cf20       ?XMMatrixScaling@DirectX@@YQ?AUXMMATRIX@1@MMM@Z 00000001401fff20 f i BackGround.obj
 0002:0013d0c0       ?XMMatrixTranslation@DirectX@@YQ?AUXMMATRIX@1@MMM@Z 00000001402000c0 f i BackGround.obj
 0002:0013d220       ?XMScalarNearEqual@DirectX@@YA_NMMM@Z 0000000140200220 f i BackGround.obj
 0002:0013d2d0       ?XMStoreFloat4x4@DirectX@@YQXPEAUXMFLOAT4X4@1@UXMMATRIX@1@@Z 00000001402002d0 f i BackGround.obj
 0002:0013d410       ?XMVectorSet@DirectX@@YQ?AT__m128@@MMMM@Z 0000000140200410 f i BackGround.obj
 0002:0013d4b0       ??0CBoss@Client@@QEAA@AEBV01@@Z 00000001402004b0 f   Boss.obj
 0002:0013d5a0       ??0CBoss@Client@@QEAA@PEAUID3D11Device@@PEAUID3D11DeviceContext@@@Z 00000001402005a0 f   Boss.obj
 0002:0013d6a0       ??1CBoss@Client@@UEAA@XZ   00000001402006a0 f i Boss.obj
 0002:0013d700       ??_ECBoss@Client@@UEAAPEAXI@Z 0000000140200700 f i Boss.obj
 0002:0013d700       ??_GCBoss@Client@@UEAAPEAXI@Z 0000000140200700 f i Boss.obj
 0002:0013d790       ?AddComponents@CBoss@Client@@AEAAJXZ 0000000140200790 f   Boss.obj
 0002:0013d7e0       ?Clone@CBoss@Client@@UEAAPEAVCGameObject@Engine@@PEAX@Z 00000001402007e0 f   Boss.obj
 0002:0013d830       ?Create@CBoss@Client@@SAPEAV12@PEAUID3D11Device@@PEAUID3D11DeviceContext@@@Z 0000000140200830 f   Boss.obj
 0002:0013d880       ?Free@CBoss@Client@@UEAAXXZ 0000000140200880 f   Boss.obj
 0002:0013d8e0       ?Initialize@CBoss@Client@@UEAAJPEAX@Z 00000001402008e0 f   Boss.obj
 0002:0013d930       ?Initialize_Prototype@CBoss@Client@@UEAAJXZ 0000000140200930 f   Boss.obj
 0002:0013d980       ?LateTick@CBoss@Client@@UEAAXN@Z 0000000140200980 f   Boss.obj
 0002:0013d9d0       ?Render@CBoss@Client@@UEAAJXZ 00000001402009d0 f   Boss.obj
 0002:0013da20       ?RenderGUI@CBoss@Client@@UEAAXXZ 0000000140200a20 f   Boss.obj
 0002:0013da60       ?SetupShaderResources@CBoss@Client@@AEAAJXZ 0000000140200a60 f   Boss.obj
 0002:0013dab0       ?Tick@CBoss@Client@@UEAAXN@Z 0000000140200ab0 f   Boss.obj
 0002:0013db00       ??$?0$$V@?$_Compressed_pair@U?$_Wrap_alloc@V?$allocator@PEAVCSkillBase@Client@@@std@@@std@@V?$_Deque_val@U?$_Deque_simple_types@PEAVCSkillBase@Client@@@std@@@2@$00@std@@QEAA@U_Zero_then_variadic_args_t@1@@Z 0000000140200b00 f i SkillBallSystem.obj
 0002:0013db70       ??$?0$$V@?$_Compressed_pair@U?$_Wrap_alloc@V?$allocator@PEAVCSkillBase@Client@@@std@@@std@@V?$_Vector_val@U?$_Simple_types@PEAVCSkillBase@Client@@@std@@@2@$00@std@@QEAA@U_Zero_then_variadic_args_t@1@@Z 0000000140200b70 f i SkillBallSystem.obj
 0002:0013dbe0       ??$?0AEAU?$_Wrap_alloc@V?$allocator@PEAVCSkillBase@Client@@@std@@@std@@@?$_Wrap_alloc@V?$allocator@PEAPEAVCSkillBase@Client@@@std@@@std@@QEAA@AEAU?$_Wrap_alloc@V?$allocator@PEAVCSkillBase@Client@@@std@@@1@@Z 0000000140200be0 f i SkillBallSystem.obj
 0002:0013dc60       ??$?0AEAU?$_Wrap_alloc@V?$allocator@PEAVCSkillBase@Client@@@std@@@std@@@?$_Wrap_alloc@V?$allocator@U_Container_proxy@std@@@std@@@std@@QEAA@AEAU?$_Wrap_alloc@V?$allocator@PEAVCSkillBase@Client@@@std@@@1@@Z 0000000140200c60 f i SkillBallSystem.obj
 0002:0013dce0       ??$?0AEBV?$allocator@_W@std@@$$V@?$_Compressed_pair@U?$_Wrap_alloc@V?$allocator@_W@std@@@std@@V?$_String_val@U?$_Simple_types@_W@std@@@2@$00@std@@QEAA@U_One_then_variadic_args_t@1@AEBV?$allocator@_W@1@@Z 0000000140200ce0 f i SkillBallSystem.obj
 0002:0013dd70       ??$?0AEBV?$allocator@_W@std@@@?$_Wrap_alloc@V?$allocator@_W@std@@@std@@QEAA@AEBV?$allocator@_W@1@@Z 0000000140200d70 f i SkillBallSystem.obj
 0002:0013ddf0       ??$?0AEBV?$allocator@_W@std@@X@?$_String_alloc@U?$_String_base_types@_WV?$allocator@_W@std@@@std@@@std@@QEAA@AEBV?$allocator@_W@1@@Z 0000000140200df0 f i SkillBallSystem.obj
 0002:0013de90       ??$?0PEAVCSkillBase@Client@@@?$allocator@PEAPEAVCSkillBase@Client@@@std@@QEAA@AEBV?$allocator@PEAVCSkillBase@Client@@@1@@Z 0000000140200e90 f i SkillBallSystem.obj
 0002:0013dee0       ??$?0PEAVCSkillBase@Client@@@?$allocator@U_Container_proxy@std@@@std@@QEAA@AEBV?$allocator@PEAVCSkillBase@Client@@@1@@Z 0000000140200ee0 f i SkillBallSystem.obj
 0002:0013df30       ??$?0PEA_WX@?$basic_string@_WU?$char_traits@_W@std@@V?$allocator@_W@2@@std@@QEAA@PEA_W0AEBV?$allocator@_W@1@@Z 0000000140200f30 f i SkillBallSystem.obj
 0002:0013e060       ??$_Copy_memmove@PEAPEAPEAVCSkillBase@Client@@PEAPEAPEAV12@@std@@YAPEAPEAPEAVCSkillBase@Client@@PEAPEAPEAV12@00@Z 0000000140201060 f i SkillBallSystem.obj
 0002:0013e120       ??$_Copy_memmove@PEAPEAVCSkillBase@Client@@PEAPEAV12@@std@@YAPEAPEAVCSkillBase@Client@@PEAPEAV12@00@Z 0000000140201120 f i SkillBallSystem.obj
 0002:0013e1e0       ??$_Debug_pointer@_W@std@@YAXPEA_WPEB_WI@Z 00000001402011e0 f i SkillBallSystem.obj
 0002:0013e260       ??$_Debug_range2@PEA_W@std@@YAXPEA_W0PEB_WIUrandom_access_iterator_tag@0@@Z 0000000140201260 f i SkillBallSystem.obj
 0002:0013e340       ??$_Debug_range@PEA_W@std@@YAXPEA_W0PEB_WI@Z 0000000140201340 f i SkillBallSystem.obj
 0002:0013e3f0       ??$_Destroy_range1@V?$allocator@PEAPEAVCSkillBase@Client@@@std@@PEAPEAPEAVCSkillBase@Client@@@std@@YAXPEAPEAPEAVCSkillBase@Client@@0AEAU?$_Wrap_alloc@V?$allocator@PEAPEAVCSkillBase@Client@@@std@@@0@U?$integral_constant@_N$00@0@@Z 00000001402013f0 f i SkillBallSystem.obj
 0002:0013e450       ??$_Destroy_range1@V?$allocator@PEAVCSkillBase@Client@@@std@@PEAPEAVCSkillBase@Client@@@std@@YAXPEAPEAVCSkillBase@Client@@0AEAU?$_Wrap_alloc@V?$allocator@PEAVCSkillBase@Client@@@std@@@0@U?$integral_constant@_N$00@0@@Z 0000000140201450 f i SkillBallSystem.obj
 0002:0013e4b0       ??$_Destroy_range@V?$allocator@PEAPEAVCSkillBase@Client@@@std@@PEAPEAPEAVCSkillBase@Client@@@std@@YAXPEAPEAPEAVCSkillBase@Client@@0AEAU?$_Wrap_alloc@V?$allocator@PEAPEAVCSkillBase@Client@@@std@@@0@@Z 00000001402014b0 f i SkillBallSystem.obj
 0002:0013e530       ??$_Destroy_range@V?$allocator@PEAVCSkillBase@Client@@@std@@PEAPEAVCSkillBase@Client@@@std@@YAXPEAPEAVCSkillBase@Client@@0AEAU?$_Wrap_alloc@V?$allocator@PEAVCSkillBase@Client@@@std@@@0@@Z 0000000140201530 f i SkillBallSystem.obj
 0002:0013e5b0       ??$_Integral_to_string@_WI@std@@YA?AV?$basic_string@_WU?$char_traits@_W@std@@V?$allocator@_W@2@@0@I@Z 00000001402015b0 f i SkillBallSystem.obj
 0002:0013e720       ??$_Move_unchecked1@PEAPEAVCSkillBase@Client@@PEAPEAV12@@std@@YAPEAPEAVCSkillBase@Client@@PEAPEAV12@00U_Trivially_copyable_ptr_iterator_tag@0@@Z 0000000140201720 f i SkillBallSystem.obj
 0002:0013e7a0       ??$_Move_unchecked@PEAPEAVCSkillBase@Client@@PEAPEAV12@@std@@YAPEAPEAVCSkillBase@Client@@PEAPEAV12@00@Z 00000001402017a0 f i SkillBallSystem.obj
 0002:0013e840       ??$_Ptr_copy_cat@PEAPEAVCSkillBase@Client@@PEAPEAV12@@std@@YA?AU_Really_trivial_ptr_iterator_tag@0@AEBQEAPEAPEAVCSkillBase@Client@@0@Z 0000000140201840 f i SkillBallSystem.obj
 0002:0013e8a0       ??$_Ptr_move_cat@PEAVCSkillBase@Client@@PEAV12@@std@@YA?AU_Really_trivial_ptr_iterator_tag@0@AEBQEAPEAVCSkillBase@Client@@0@Z 00000001402018a0 f i SkillBallSystem.obj
 0002:0013e900       ??$_Rechecked@PEAPEAPEAVCSkillBase@Client@@PEAPEAPEAV12@@std@@YAAEAPEAPEAPEAVCSkillBase@Client@@AEAPEAPEAPEAV12@PEAPEAPEAV12@@Z 0000000140201900 f i SkillBallSystem.obj
 0002:0013e970       ??$_Rechecked@PEAPEAVCSkillBase@Client@@PEAPEAV12@@std@@YAAEAPEAPEAVCSkillBase@Client@@AEAPEAPEAV12@PEAPEAV12@@Z 0000000140201970 f i SkillBallSystem.obj
 0002:0013e9e0       ??$_UIntegral_to_buff@_WI@std@@YAPEA_WPEA_WI@Z 00000001402019e0 f i SkillBallSystem.obj
 0002:0013ea90       ??$_Umove@PEAPEAVCSkillBase@Client@@@?$vector@PEAVCSkillBase@Client@@V?$allocator@PEAVCSkillBase@Client@@@std@@@std@@IEAAPEAPEAVCSkillBase@Client@@PEAPEAV23@00@Z 0000000140201a90 f i SkillBallSystem.obj
 0002:0013eb20       ??$_Unchecked@PEAPEAPEAVCSkillBase@Client@@@std@@YAPEAPEAPEAVCSkillBase@Client@@PEAPEAPEAV12@@Z 0000000140201b20 f i SkillBallSystem.obj
 0002:0013eb70       ??$_Unchecked@PEAPEAVCSkillBase@Client@@@std@@YAPEAPEAVCSkillBase@Client@@PEAPEAV12@@Z 0000000140201b70 f i SkillBallSystem.obj
 0002:0013ebc0       ??$_Unchecked@PEA_W@std@@YAPEA_WPEA_W@Z 0000000140201bc0 f i SkillBallSystem.obj
 0002:0013ec10       ??$_Unfancy@PEAVCSkillBase@Client@@@std@@YAPEAPEAVCSkillBase@Client@@PEAPEAV12@@Z 0000000140201c10 f i SkillBallSystem.obj
 0002:0013ec60       ??$_Uninitialized_copy@PEAPEAPEAVCSkillBase@Client@@PEAPEAPEAV12@V?$allocator@PEAPEAVCSkillBase@Client@@@std@@@std@@YAPEAPEAPEAVCSkillBase@Client@@PEAPEAPEAV12@00AEAU?$_Wrap_alloc@V?$allocator@PEAPEAVCSkillBase@Client@@@std@@@0@@Z 0000000140201c60 f i SkillBallSystem.obj
 0002:0013ed40       ??$_Uninitialized_copy_al_unchecked1@PEAPEAVCSkillBase@Client@@PEAPEAV12@V?$allocator@PEAPEAVCSkillBase@Client@@@std@@@std@@YAPEAPEAPEAVCSkillBase@Client@@PEAPEAPEAV12@00AEAU?$_Wrap_alloc@V?$allocator@PEAPEAVCSkillBase@Client@@@std@@@0@U_Really_trivial_ptr_iterator_tag@0@U?$integral_constant@_N$00@0@@Z 0000000140201d40 f i SkillBallSystem.obj
 0002:0013edc0       ??$_Uninitialized_copy_al_unchecked@PEAPEAPEAVCSkillBase@Client@@PEAPEAPEAV12@V?$allocator@PEAPEAVCSkillBase@Client@@@std@@@std@@YAPEAPEAPEAVCSkillBase@Client@@PEAPEAPEAV12@00AEAU?$_Wrap_alloc@V?$allocator@PEAPEAVCSkillBase@Client@@@std@@@0@@Z 0000000140201dc0 f i SkillBallSystem.obj
 0002:0013ee80       ??$_Uninitialized_default_fill_n1@PEAPEAPEAVCSkillBase@Client@@_KV?$allocator@PEAPEAVCSkillBase@Client@@@std@@@std@@YAXPEAPEAPEAVCSkillBase@Client@@_KAEAU?$_Wrap_alloc@V?$allocator@PEAPEAVCSkillBase@Client@@@std@@@0@U?$integral_constant@_N$00@0@@Z 0000000140201e80 f i SkillBallSystem.obj
 0002:0013ef00       ??$_Uninitialized_default_fill_n@PEAPEAPEAVCSkillBase@Client@@_KV?$allocator@PEAPEAVCSkillBase@Client@@@std@@@std@@YAXPEAPEAPEAVCSkillBase@Client@@_KAEAU?$_Wrap_alloc@V?$allocator@PEAPEAVCSkillBase@Client@@@std@@@0@@Z 0000000140201f00 f i SkillBallSystem.obj
 0002:0013ef80       ??$_Uninitialized_move@PEAPEAVCSkillBase@Client@@PEAPEAV12@V?$allocator@PEAVCSkillBase@Client@@@std@@@std@@YAPEAPEAVCSkillBase@Client@@PEAPEAV12@00AEAU?$_Wrap_alloc@V?$allocator@PEAVCSkillBase@Client@@@std@@@0@@Z 0000000140201f80 f i SkillBallSystem.obj
 0002:0013f060       ??$_Uninitialized_move_al_unchecked1@PEAVCSkillBase@Client@@PEAV12@V?$allocator@PEAVCSkillBase@Client@@@std@@@std@@YAPEAPEAVCSkillBase@Client@@PEAPEAV12@00AEAU?$_Wrap_alloc@V?$allocator@PEAVCSkillBase@Client@@@std@@@0@U_Really_trivial_ptr_iterator_tag@0@U?$integral_constant@_N$00@0@@Z 0000000140202060 f i SkillBallSystem.obj
 0002:0013f0e0       ??$_Uninitialized_move_al_unchecked@PEAPEAVCSkillBase@Client@@PEAPEAV12@V?$allocator@PEAVCSkillBase@Client@@@std@@@std@@YAPEAPEAVCSkillBase@Client@@PEAPEAV12@00AEAU?$_Wrap_alloc@V?$allocator@PEAVCSkillBase@Client@@@std@@@0@@Z 00000001402020e0 f i SkillBallSystem.obj
 0002:0013f1a0       ??$addressof@PEAPEAVCSkillBase@Client@@@std@@YAPEAPEAPEAVCSkillBase@Client@@AEAPEAPEAV12@@Z 00000001402021a0 f i SkillBallSystem.obj
 0002:0013f1f0       ??$addressof@QEAVCSkillBase@Client@@@std@@YAPEBQEAVCSkillBase@Client@@AEBQEAV12@@Z 00000001402021f0 f i SkillBallSystem.obj
 0002:0013f240       ??$construct@PEAVCSkillBase@Client@@AEAPEAV12@@?$_Wrap_alloc@V?$allocator@PEAVCSkillBase@Client@@@std@@@std@@QEAAXPEAPEAVCSkillBase@Client@@AEAPEAV23@@Z 0000000140202240 f i SkillBallSystem.obj
 0002:0013f2c0       ??$construct@PEAVCSkillBase@Client@@AEAPEAV12@@?$allocator@PEAVCSkillBase@Client@@@std@@QEAAXPEAPEAVCSkillBase@Client@@AEAPEAV23@@Z 00000001402022c0 f i SkillBallSystem.obj
 0002:0013f380       ??$construct@PEAVCSkillBase@Client@@AEAPEAV12@@?$allocator_traits@V?$allocator@PEAVCSkillBase@Client@@@std@@@std@@SAXAEAV?$allocator@PEAVCSkillBase@Client@@@1@PEAPEAVCSkillBase@Client@@AEAPEAV34@@Z 0000000140202380 f i SkillBallSystem.obj
 0002:0013f400       ??$construct@PEAVCSkillBase@Client@@AEBQEAV12@@?$_Wrap_alloc@V?$allocator@PEAVCSkillBase@Client@@@std@@@std@@QEAAXPEAPEAVCSkillBase@Client@@AEBQEAV23@@Z 0000000140202400 f i SkillBallSystem.obj
 0002:0013f480       ??$construct@PEAVCSkillBase@Client@@AEBQEAV12@@?$allocator@PEAVCSkillBase@Client@@@std@@QEAAXPEAPEAVCSkillBase@Client@@AEBQEAV23@@Z 0000000140202480 f i SkillBallSystem.obj
 0002:0013f540       ??$construct@PEAVCSkillBase@Client@@AEBQEAV12@@?$allocator_traits@V?$allocator@PEAVCSkillBase@Client@@@std@@@std@@SAXAEAV?$allocator@PEAVCSkillBase@Client@@@1@PEAPEAVCSkillBase@Client@@AEBQEAV34@@Z 0000000140202540 f i SkillBallSystem.obj
 0002:0013f5c0       ??$destroy@PEAPEAVCSkillBase@Client@@@?$_Wrap_alloc@V?$allocator@PEAVCSkillBase@Client@@@std@@@std@@QEAAXPEAPEAPEAVCSkillBase@Client@@@Z 00000001402025c0 f i SkillBallSystem.obj
 0002:0013f620       ??$destroy@PEAPEAVCSkillBase@Client@@@?$allocator@PEAVCSkillBase@Client@@@std@@QEAAXPEAPEAPEAVCSkillBase@Client@@@Z 0000000140202620 f i SkillBallSystem.obj
 0002:0013f670       ??$destroy@PEAPEAVCSkillBase@Client@@@?$allocator_traits@V?$allocator@PEAVCSkillBase@Client@@@std@@@std@@SAXAEAV?$allocator@PEAVCSkillBase@Client@@@1@PEAPEAPEAVCSkillBase@Client@@@Z 0000000140202670 f i SkillBallSystem.obj
 0002:0013f6d0       ??$destroy@PEAVCSkillBase@Client@@@?$_Wrap_alloc@V?$allocator@PEAVCSkillBase@Client@@@std@@@std@@QEAAXPEAPEAVCSkillBase@Client@@@Z 00000001402026d0 f i SkillBallSystem.obj
 0002:0013f730       ??$destroy@PEAVCSkillBase@Client@@@?$allocator@PEAVCSkillBase@Client@@@std@@QEAAXPEAPEAVCSkillBase@Client@@@Z 0000000140202730 f i SkillBallSystem.obj
 0002:0013f780       ??$destroy@PEAVCSkillBase@Client@@@?$allocator_traits@V?$allocator@PEAVCSkillBase@Client@@@std@@@std@@SAXAEAV?$allocator@PEAVCSkillBase@Client@@@1@PEAPEAVCSkillBase@Client@@@Z 0000000140202780 f i SkillBallSystem.obj
 0002:0013f7e0       ??$end@_W$0BF@@std@@YAPEA_WAEAY0BF@_W@Z 00000001402027e0 f i SkillBallSystem.obj
 0002:0013f830       ??$forward@AEAPEAVCSkillBase@Client@@@std@@YAAEAPEAVCSkillBase@Client@@AEAPEAV12@@Z 0000000140202830 f i SkillBallSystem.obj
 0002:0013f880       ??$forward@AEAU?$_Wrap_alloc@V?$allocator@PEAVCSkillBase@Client@@@std@@@std@@@std@@YAAEAU?$_Wrap_alloc@V?$allocator@PEAVCSkillBase@Client@@@std@@@0@AEAU10@@Z 0000000140202880 f i SkillBallSystem.obj
 0002:0013f8d0       ??$forward@AEBQEAVCSkillBase@Client@@@std@@YAAEBQEAVCSkillBase@Client@@AEBQEAV12@@Z 00000001402028d0 f i SkillBallSystem.obj
 0002:0013f920       ??$forward@AEBV?$allocator@_W@std@@@std@@YAAEBV?$allocator@_W@0@AEBV10@@Z 0000000140202920 f i SkillBallSystem.obj
 0002:0013f970       ??0?$_Deque_alloc@U?$_Deque_base_types@PEAVCSkillBase@Client@@V?$allocator@PEAVCSkillBase@Client@@@std@@@std@@@std@@QEAA@XZ 0000000140202970 f i SkillBallSystem.obj
 0002:0013fa00       ??0?$_Deque_const_iterator@V?$_Deque_val@U?$_Deque_simple_types@PEAVCSkillBase@Client@@@std@@@std@@@std@@QEAA@_KPEBU_Container_base12@1@@Z 0000000140202a00 f i SkillBallSystem.obj
 0002:0013fab0       ??0?$_Deque_iterator@V?$_Deque_val@U?$_Deque_simple_types@PEAVCSkillBase@Client@@@std@@@std@@@std@@QEAA@_KPEBU_Container_base12@1@@Z 0000000140202ab0 f i SkillBallSystem.obj
 0002:0013fb30       ??0?$_Deque_val@U?$_Deque_simple_types@PEAVCSkillBase@Client@@@std@@@std@@QEAA@XZ 0000000140202b30 f i SkillBallSystem.obj
 0002:0013fbe0       ??0?$_Iterator012@Urandom_access_iterator_tag@std@@PEAVCSkillBase@Client@@_JPEBQEAV34@AEBQEAV34@U_Iterator_base12@2@@std@@QEAA@$$QEAU01@@Z 0000000140202be0 f i SkillBallSystem.obj
 0002:0013fc50       ??0?$_Iterator012@Urandom_access_iterator_tag@std@@PEAVCSkillBase@Client@@_JPEBQEAV34@AEBQEAV34@U_Iterator_base12@2@@std@@QEAA@AEBU01@@Z 0000000140202c50 f i SkillBallSystem.obj
 0002:0013fcc0       ??0?$_Iterator012@Urandom_access_iterator_tag@std@@PEAVCSkillBase@Client@@_JPEBQEAV34@AEBQEAV34@U_Iterator_base12@2@@std@@QEAA@XZ 0000000140202cc0 f i SkillBallSystem.obj
 0002:0013fd20       ??0?$_Vector_alloc@U?$_Vec_base_types@PEAVCSkillBase@Client@@V?$allocator@PEAVCSkillBase@Client@@@std@@@std@@@std@@QEAA@XZ 0000000140202d20 f i SkillBallSystem.obj
 0002:0013fdb0       ??0?$_Vector_const_iterator@V?$_Vector_val@U?$_Simple_types@PEAVCSkillBase@Client@@@std@@@std@@@std@@QEAA@$$QEAV01@@Z 0000000140202db0 f i SkillBallSystem.obj
 0002:0013fe40       ??0?$_Vector_const_iterator@V?$_Vector_val@U?$_Simple_types@PEAVCSkillBase@Client@@@std@@@std@@@std@@QEAA@AEBV01@@Z 0000000140202e40 f i SkillBallSystem.obj
 0002:0013fed0       ??0?$_Vector_const_iterator@V?$_Vector_val@U?$_Simple_types@PEAVCSkillBase@Client@@@std@@@std@@@std@@QEAA@PEAPEAVCSkillBase@Client@@PEBU_Container_base12@1@@Z 0000000140202ed0 f i SkillBallSystem.obj
 0002:0013ff80       ??0?$_Vector_iterator@V?$_Vector_val@U?$_Simple_types@PEAVCSkillBase@Client@@@std@@@std@@@std@@QEAA@$$QEAV01@@Z 0000000140202f80 f i SkillBallSystem.obj
 0002:0013fff0       ??0?$_Vector_iterator@V?$_Vector_val@U?$_Simple_types@PEAVCSkillBase@Client@@@std@@@std@@@std@@QEAA@AEBV01@@Z 0000000140202ff0 f i SkillBallSystem.obj
 0002:00140060       ??0?$_Vector_iterator@V?$_Vector_val@U?$_Simple_types@PEAVCSkillBase@Client@@@std@@@std@@@std@@QEAA@PEAPEAVCSkillBase@Client@@PEBU_Container_base12@1@@Z 0000000140203060 f i SkillBallSystem.obj
 0002:001400e0       ??0?$_Vector_val@U?$_Simple_types@PEAVCSkillBase@Client@@@std@@@std@@QEAA@XZ 00000001402030e0 f i SkillBallSystem.obj
 0002:00140180       ??0?$_Wrap_alloc@V?$allocator@PEAVCSkillBase@Client@@@std@@@std@@QEAA@XZ 0000000140203180 f i SkillBallSystem.obj
 0002:001401e0       ??0?$allocator@PEAVCSkillBase@Client@@@std@@QEAA@XZ 00000001402031e0 f i SkillBallSystem.obj
 0002:00140230       ??0?$allocator@_W@std@@QEAA@AEBV01@@Z 0000000140203230 f i SkillBallSystem.obj
 0002:00140280       ??0?$deque@PEAVCSkillBase@Client@@V?$allocator@PEAVCSkillBase@Client@@@std@@@std@@QEAA@XZ 0000000140203280 f i SkillBallSystem.obj
 0002:001402e0       ??0?$queue@PEAVCSkillBase@Client@@V?$deque@PEAVCSkillBase@Client@@V?$allocator@PEAVCSkillBase@Client@@@std@@@std@@@std@@QEAA@XZ 00000001402032e0 f i SkillBallSystem.obj
 0002:00140340       ??0?$vector@PEAVCSkillBase@Client@@V?$allocator@PEAVCSkillBase@Client@@@std@@@std@@QEAA@XZ 0000000140203340 f i SkillBallSystem.obj
 0002:001403b0       ??0CSkillBallSystem@Client@@AEAA@XZ 00000001402033b0 f i SkillBallSystem.obj
 0002:001404b0       ??0_Iterator_base12@std@@QEAA@AEBU01@@Z 00000001402034b0 f i SkillBallSystem.obj
 0002:00140540       ??0_Iterator_base12@std@@QEAA@XZ 0000000140203540 f i SkillBallSystem.obj
 0002:001405b0       ??1?$_Compressed_pair@U?$_Wrap_alloc@V?$allocator@PEAVCSkillBase@Client@@@std@@@std@@V?$_Deque_val@U?$_Deque_simple_types@PEAVCSkillBase@Client@@@std@@@2@$00@std@@QEAA@XZ 00000001402035b0 f i SkillBallSystem.obj
 0002:00140610       ??1?$_Compressed_pair@U?$_Wrap_alloc@V?$allocator@PEAVCSkillBase@Client@@@std@@@std@@V?$_Vector_val@U?$_Simple_types@PEAVCSkillBase@Client@@@std@@@2@$00@std@@QEAA@XZ 0000000140203610 f i SkillBallSystem.obj
 0002:00140670       ??1?$_Deque_alloc@U?$_Deque_base_types@PEAVCSkillBase@Client@@V?$allocator@PEAVCSkillBase@Client@@@std@@@std@@@std@@QEAA@XZ 0000000140203670 f i SkillBallSystem.obj
 0002:001406f0       ??1?$_Deque_const_iterator@V?$_Deque_val@U?$_Deque_simple_types@PEAVCSkillBase@Client@@@std@@@std@@@std@@QEAA@XZ 00000001402036f0 f i SkillBallSystem.obj
 0002:00140740       ??1?$_Deque_iterator@V?$_Deque_val@U?$_Deque_simple_types@PEAVCSkillBase@Client@@@std@@@std@@@std@@QEAA@XZ 0000000140203740 f i SkillBallSystem.obj
 0002:00140790       ??1?$_Deque_val@U?$_Deque_simple_types@PEAVCSkillBase@Client@@@std@@@std@@QEAA@XZ 0000000140203790 f i SkillBallSystem.obj
 0002:001407e0       ??1?$_Iterator012@Urandom_access_iterator_tag@std@@PEAVCSkillBase@Client@@_JPEBQEAV34@AEBQEAV34@U_Iterator_base12@2@@std@@QEAA@XZ 00000001402037e0 f i SkillBallSystem.obj
 0002:00140830       ??1?$_Vector_alloc@U?$_Vec_base_types@PEAVCSkillBase@Client@@V?$allocator@PEAVCSkillBase@Client@@@std@@@std@@@std@@QEAA@XZ 0000000140203830 f i SkillBallSystem.obj
 0002:001408b0       ??1?$_Vector_const_iterator@V?$_Vector_val@U?$_Simple_types@PEAVCSkillBase@Client@@@std@@@std@@@std@@QEAA@XZ 00000001402038b0 f i SkillBallSystem.obj
 0002:00140900       ??1?$_Vector_iterator@V?$_Vector_val@U?$_Simple_types@PEAVCSkillBase@Client@@@std@@@std@@@std@@QEAA@XZ 0000000140203900 f i SkillBallSystem.obj
 0002:00140950       ??1?$_Vector_val@U?$_Simple_types@PEAVCSkillBase@Client@@@std@@@std@@QEAA@XZ 0000000140203950 f i SkillBallSystem.obj
 0002:001409a0       ??1?$deque@PEAVCSkillBase@Client@@V?$allocator@PEAVCSkillBase@Client@@@std@@@std@@QEAA@XZ 00000001402039a0 f i SkillBallSystem.obj
 0002:00140a10       ??1?$queue@PEAVCSkillBase@Client@@V?$deque@PEAVCSkillBase@Client@@V?$allocator@PEAVCSkillBase@Client@@@std@@@std@@@std@@QEAA@XZ 0000000140203a10 f i SkillBallSystem.obj
 0002:00140a70       ??1?$vector@PEAVCSkillBase@Client@@V?$allocator@PEAVCSkillBase@Client@@@std@@@std@@QEAA@XZ 0000000140203a70 f i SkillBallSystem.obj
 0002:00140ae0       ??1CSkillBallSystem@Client@@EEAA@XZ 0000000140203ae0 f i SkillBallSystem.obj
 0002:00140b60       ??1_Iterator_base12@std@@QEAA@XZ 0000000140203b60 f i SkillBallSystem.obj
 0002:00140c20       ??4?$_Iterator012@Urandom_access_iterator_tag@std@@PEAVCSkillBase@Client@@_JPEBQEAV34@AEBQEAV34@U_Iterator_base12@2@@std@@QEAAAEAU01@$$QEAU01@@Z 0000000140203c20 f i SkillBallSystem.obj
 0002:00140c90       ??4?$_Vector_const_iterator@V?$_Vector_val@U?$_Simple_types@PEAVCSkillBase@Client@@@std@@@std@@@std@@QEAAAEAV01@$$QEAV01@@Z 0000000140203c90 f i SkillBallSystem.obj
 0002:00140d20       ??4?$_Vector_iterator@V?$_Vector_val@U?$_Simple_types@PEAVCSkillBase@Client@@@std@@@std@@@std@@QEAAAEAV01@$$QEAV01@@Z 0000000140203d20 f i SkillBallSystem.obj
 0002:00140d90       ??4_Iterator_base12@std@@QEAAAEAU01@AEBU01@@Z 0000000140203d90 f i SkillBallSystem.obj
 0002:00140ec0       ??8?$_Vector_const_iterator@V?$_Vector_val@U?$_Simple_types@PEAVCSkillBase@Client@@@std@@@std@@@std@@QEBA_NAEBV01@@Z 0000000140203ec0 f i SkillBallSystem.obj
 0002:00140f70       ??9?$_Vector_const_iterator@V?$_Vector_val@U?$_Simple_types@PEAVCSkillBase@Client@@@std@@@std@@@std@@QEBA_NAEBV01@@Z 0000000140203f70 f i SkillBallSystem.obj
 0002:00141000       ??A?$vector@PEAVCSkillBase@Client@@V?$allocator@PEAVCSkillBase@Client@@@std@@@std@@QEAAAEAPEAVCSkillBase@Client@@_K@Z 0000000140204000 f i SkillBallSystem.obj
 0002:00141140       ??D?$_Deque_const_iterator@V?$_Deque_val@U?$_Deque_simple_types@PEAVCSkillBase@Client@@@std@@@std@@@std@@QEBAAEBQEAVCSkillBase@Client@@XZ 0000000140204140 f i SkillBallSystem.obj
 0002:00141300       ??D?$_Deque_iterator@V?$_Deque_val@U?$_Deque_simple_types@PEAVCSkillBase@Client@@@std@@@std@@@std@@QEBAAEAPEAVCSkillBase@Client@@XZ 0000000140204300 f i SkillBallSystem.obj
 0002:00141350       ??D?$_Vector_const_iterator@V?$_Vector_val@U?$_Simple_types@PEAVCSkillBase@Client@@@std@@@std@@@std@@QEBAAEBQEAVCSkillBase@Client@@XZ 0000000140204350 f i SkillBallSystem.obj
 0002:001414c0       ??D?$_Vector_iterator@V?$_Vector_val@U?$_Simple_types@PEAVCSkillBase@Client@@@std@@@std@@@std@@QEBAAEAPEAVCSkillBase@Client@@XZ 00000001402044c0 f i SkillBallSystem.obj
 0002:00141510       ??E?$_Vector_const_iterator@V?$_Vector_val@U?$_Simple_types@PEAVCSkillBase@Client@@@std@@@std@@@std@@QEAAAEAV01@XZ 0000000140204510 f i SkillBallSystem.obj
 0002:00141680       ??E?$_Vector_iterator@V?$_Vector_val@U?$_Simple_types@PEAVCSkillBase@Client@@@std@@@std@@@std@@QEAA?AV01@H@Z 0000000140204680 f i SkillBallSystem.obj
 0002:001417a0       ??E?$_Vector_iterator@V?$_Vector_val@U?$_Simple_types@PEAVCSkillBase@Client@@@std@@@std@@@std@@QEAAAEAV01@XZ 00000001402047a0 f i SkillBallSystem.obj
 0002:00141800       ??_ECSkillBallSystem@Client@@EEAAPEAXI@Z 0000000140204800 f i SkillBallSystem.obj
 0002:00141800       ??_GCSkillBallSystem@Client@@EEAAPEAXI@Z 0000000140204800 f i SkillBallSystem.obj
 0002:00141890       ?Clear@CSkillBallSystem@Client@@QEAAXXZ 0000000140204890 f   SkillBallSystem.obj
 0002:00141a80       ?ComputeSkillChain@CSkillBallSystem@Client@@QEAA?AUtagSkillChainData@CSkillBase@2@I@Z 0000000140204a80 f   SkillBallSystem.obj
 0002:00141d10       ?DestroyInstance@CSkillBallSystem@Client@@SAKXZ 0000000140204d10 f   SkillBallSystem.obj
 0002:00141d90       ?Free@CSkillBallSystem@Client@@UEAAXXZ 0000000140204d90 f   SkillBallSystem.obj
 0002:00141de0       ?GetInstance@CSkillBallSystem@Client@@SAPEAV12@XZ 0000000140204de0 f   SkillBallSystem.obj
 0002:00141ec0       ?GetSkillID@CSkillBase@Client@@SAIXZ 0000000140204ec0 f i SkillBallSystem.obj
 0002:00141f00       ?GetSkillType@CSkillBase@Client@@QEBA?AW4TYPE@12@XZ 0000000140204f00 f i SkillBallSystem.obj
 0002:00141f50       ?IsSameType@CSkillBase@Client@@QEAA_NW4TYPE@12@@Z 0000000140204f50 f i SkillBallSystem.obj
 0002:00141fe0       ?PushReadyTimer@CSkillBallSystem@Client@@QEAAXN@Z 0000000140204fe0 f   SkillBallSystem.obj
 0002:001420b0       ?PushSkill@CSkillBallSystem@Client@@QEAAJPEAUID3D11Device@@PEAUID3D11DeviceContext@@W4TYPE@CSkillBase@2@@Z 00000001402050b0 f   SkillBallSystem.obj
 0002:001423d0       ?SetRender@CSkillBase@Client@@QEAAX_N@Z 00000001402053d0 f i SkillBallSystem.obj
 0002:00142430       ?UseSkill@CSkillBallSystem@Client@@QEAA?AUtagSkillInfo@CSkillBase@2@I@Z 0000000140205430 f   SkillBallSystem.obj
 0002:00142f00       ?_Adopt@_Iterator_base12@std@@QEAAXPEBU_Container_base12@2@@Z 0000000140205f00 f i SkillBallSystem.obj
 0002:00143070       ?_Alloc_proxy@?$_Deque_alloc@U?$_Deque_base_types@PEAVCSkillBase@Client@@V?$allocator@PEAVCSkillBase@Client@@@std@@@std@@@std@@QEAAXXZ 0000000140206070 f i SkillBallSystem.obj
 0002:001431d0       ?_Alloc_proxy@?$_Vector_alloc@U?$_Vec_base_types@PEAVCSkillBase@Client@@V?$allocator@PEAVCSkillBase@Client@@@std@@@std@@@std@@QEAAXXZ 00000001402061d0 f i SkillBallSystem.obj
 0002:00143330       ?_Clrcont@_Iterator_base12@std@@QEAAXXZ 0000000140206330 f i SkillBallSystem.obj
 0002:00143380       ?_Compat@?$_Vector_const_iterator@V?$_Vector_val@U?$_Simple_types@PEAVCSkillBase@Client@@@std@@@std@@@std@@QEBAXAEBV12@@Z 0000000140206380 f i SkillBallSystem.obj
 0002:001434c0       ?_Construct@?$basic_string@_WU?$char_traits@_W@std@@V?$allocator@_W@2@@std@@QEAAXPEA_W0Urandom_access_iterator_tag@2@@Z 00000001402064c0 f i SkillBallSystem.obj
 0002:00143560       ?_Destroy@?$vector@PEAVCSkillBase@Client@@V?$allocator@PEAVCSkillBase@Client@@@std@@@std@@IEAAXPEAPEAVCSkillBase@Client@@0@Z 0000000140206560 f i SkillBallSystem.obj
 0002:001435e0       ?_Free_proxy@?$_Deque_alloc@U?$_Deque_base_types@PEAVCSkillBase@Client@@V?$allocator@PEAVCSkillBase@Client@@@std@@@std@@@std@@QEAAXXZ 00000001402065e0 f i SkillBallSystem.obj
 0002:00143700       ?_Free_proxy@?$_Vector_alloc@U?$_Vec_base_types@PEAVCSkillBase@Client@@V?$allocator@PEAVCSkillBase@Client@@@std@@@std@@@std@@QEAAXXZ 0000000140206700 f i SkillBallSystem.obj
 0002:00143820       ?_Get_data@?$_Deque_alloc@U?$_Deque_base_types@PEAVCSkillBase@Client@@V?$allocator@PEAVCSkillBase@Client@@@std@@@std@@@std@@QEAAAEAV?$_Deque_val@U?$_Deque_simple_types@PEAVCSkillBase@Client@@@std@@@2@XZ 0000000140206820 f i SkillBallSystem.obj
 0002:00143880       ?_Get_data@?$_Deque_alloc@U?$_Deque_base_types@PEAVCSkillBase@Client@@V?$allocator@PEAVCSkillBase@Client@@@std@@@std@@@std@@QEBAAEBV?$_Deque_val@U?$_Deque_simple_types@PEAVCSkillBase@Client@@@std@@@2@XZ 0000000140206880 f i SkillBallSystem.obj
 0002:001438e0       ?_Get_data@?$_Vector_alloc@U?$_Vec_base_types@PEAVCSkillBase@Client@@V?$allocator@PEAVCSkillBase@Client@@@std@@@std@@@std@@QEAAAEAV?$_Vector_val@U?$_Simple_types@PEAVCSkillBase@Client@@@std@@@2@XZ 00000001402068e0 f i SkillBallSystem.obj
 0002:00143940       ?_Get_data@?$_Vector_alloc@U?$_Vec_base_types@PEAVCSkillBase@Client@@V?$allocator@PEAVCSkillBase@Client@@@std@@@std@@@std@@QEBAAEBV?$_Vector_val@U?$_Simple_types@PEAVCSkillBase@Client@@@std@@@2@XZ 0000000140206940 f i SkillBallSystem.obj
 0002:001439a0       ?_Get_first@?$_Compressed_pair@U?$_Wrap_alloc@V?$allocator@PEAVCSkillBase@Client@@@std@@@std@@V?$_Deque_val@U?$_Deque_simple_types@PEAVCSkillBase@Client@@@std@@@2@$00@std@@QEAAAEAU?$_Wrap_alloc@V?$allocator@PEAVCSkillBase@Client@@@std@@@2@XZ 00000001402069a0 f i SkillBallSystem.obj
 0002:001439f0       ?_Get_first@?$_Compressed_pair@U?$_Wrap_alloc@V?$allocator@PEAVCSkillBase@Client@@@std@@@std@@V?$_Deque_val@U?$_Deque_simple_types@PEAVCSkillBase@Client@@@std@@@2@$00@std@@QEBAAEBU?$_Wrap_alloc@V?$allocator@PEAVCSkillBase@Client@@@std@@@2@XZ 00000001402069f0 f i SkillBallSystem.obj
 0002:00143a40       ?_Get_first@?$_Compressed_pair@U?$_Wrap_alloc@V?$allocator@PEAVCSkillBase@Client@@@std@@@std@@V?$_Vector_val@U?$_Simple_types@PEAVCSkillBase@Client@@@std@@@2@$00@std@@QEAAAEAU?$_Wrap_alloc@V?$allocator@PEAVCSkillBase@Client@@@std@@@2@XZ 0000000140206a40 f i SkillBallSystem.obj
 0002:00143a90       ?_Get_first@?$_Compressed_pair@U?$_Wrap_alloc@V?$allocator@PEAVCSkillBase@Client@@@std@@@std@@V?$_Vector_val@U?$_Simple_types@PEAVCSkillBase@Client@@@std@@@2@$00@std@@QEBAAEBU?$_Wrap_alloc@V?$allocator@PEAVCSkillBase@Client@@@std@@@2@XZ 0000000140206a90 f i SkillBallSystem.obj
 0002:00143ae0       ?_Get_second@?$_Compressed_pair@U?$_Wrap_alloc@V?$allocator@PEAVCSkillBase@Client@@@std@@@std@@V?$_Deque_val@U?$_Deque_simple_types@PEAVCSkillBase@Client@@@std@@@2@$00@std@@QEAAAEAV?$_Deque_val@U?$_Deque_simple_types@PEAVCSkillBase@Client@@@std@@@2@XZ 0000000140206ae0 f i SkillBallSystem.obj
 0002:00143b30       ?_Get_second@?$_Compressed_pair@U?$_Wrap_alloc@V?$allocator@PEAVCSkillBase@Client@@@std@@@std@@V?$_Deque_val@U?$_Deque_simple_types@PEAVCSkillBase@Client@@@std@@@2@$00@std@@QEBAAEBV?$_Deque_val@U?$_Deque_simple_types@PEAVCSkillBase@Client@@@std@@@2@XZ 0000000140206b30 f i SkillBallSystem.obj
 0002:00143b80       ?_Get_second@?$_Compressed_pair@U?$_Wrap_alloc@V?$allocator@PEAVCSkillBase@Client@@@std@@@std@@V?$_Vector_val@U?$_Simple_types@PEAVCSkillBase@Client@@@std@@@2@$00@std@@QEAAAEAV?$_Vector_val@U?$_Simple_types@PEAVCSkillBase@Client@@@std@@@2@XZ 0000000140206b80 f i SkillBallSystem.obj
 0002:00143bd0       ?_Get_second@?$_Compressed_pair@U?$_Wrap_alloc@V?$allocator@PEAVCSkillBase@Client@@@std@@@std@@V?$_Vector_val@U?$_Simple_types@PEAVCSkillBase@Client@@@std@@@2@$00@std@@QEBAAEBV?$_Vector_val@U?$_Simple_types@PEAVCSkillBase@Client@@@std@@@2@XZ 0000000140206bd0 f i SkillBallSystem.obj
 0002:00143c20       ?_Getal@?$_Deque_alloc@U?$_Deque_base_types@PEAVCSkillBase@Client@@V?$allocator@PEAVCSkillBase@Client@@@std@@@std@@@std@@QEAAAEAU?$_Wrap_alloc@V?$allocator@PEAVCSkillBase@Client@@@std@@@2@XZ 0000000140206c20 f i SkillBallSystem.obj
 0002:00143c80       ?_Getal@?$_Deque_alloc@U?$_Deque_base_types@PEAVCSkillBase@Client@@V?$allocator@PEAVCSkillBase@Client@@@std@@@std@@@std@@QEBAAEBU?$_Wrap_alloc@V?$allocator@PEAVCSkillBase@Client@@@std@@@2@XZ 0000000140206c80 f i SkillBallSystem.obj
 0002:00143ce0       ?_Getal@?$_Vector_alloc@U?$_Vec_base_types@PEAVCSkillBase@Client@@V?$allocator@PEAVCSkillBase@Client@@@std@@@std@@@std@@QEAAAEAU?$_Wrap_alloc@V?$allocator@PEAVCSkillBase@Client@@@std@@@2@XZ 0000000140206ce0 f i SkillBallSystem.obj
 0002:00143d40       ?_Getal@?$_Vector_alloc@U?$_Vec_base_types@PEAVCSkillBase@Client@@V?$allocator@PEAVCSkillBase@Client@@@std@@@std@@@std@@QEBAAEBU?$_Wrap_alloc@V?$allocator@PEAVCSkillBase@Client@@@std@@@2@XZ 0000000140206d40 f i SkillBallSystem.obj
 0002:00143da0       ?_Getblock@?$_Deque_alloc@U?$_Deque_base_types@PEAVCSkillBase@Client@@V?$allocator@PEAVCSkillBase@Client@@@std@@@std@@@std@@QEBA_K_K@Z 0000000140206da0 f i SkillBallSystem.obj
 0002:00143e10       ?_Getblock@?$_Deque_val@U?$_Deque_simple_types@PEAVCSkillBase@Client@@@std@@@std@@QEBA_K_K@Z 0000000140206e10 f i SkillBallSystem.obj
 0002:00143e80       ?_Getcont@_Iterator_base12@std@@QEBAPEBU_Container_base12@2@XZ 0000000140206e80 f i SkillBallSystem.obj
 0002:00143f00       ?_Getpfirst@?$_Deque_alloc@U?$_Deque_base_types@PEAVCSkillBase@Client@@V?$allocator@PEAVCSkillBase@Client@@@std@@@std@@@std@@QEBAPEAPEAU_Iterator_base12@2@XZ 0000000140206f00 f i SkillBallSystem.obj
 0002:00143f60       ?_Getpfirst@?$_Vector_alloc@U?$_Vec_base_types@PEAVCSkillBase@Client@@V?$allocator@PEAVCSkillBase@Client@@@std@@@std@@@std@@QEBAPEAPEAU_Iterator_base12@2@XZ 0000000140206f60 f i SkillBallSystem.obj
 0002:00143fc0       ?_Getpfirst@_Container_base12@std@@QEBAPEAPEAU_Iterator_base12@2@XZ 0000000140206fc0 f i SkillBallSystem.obj
 0002:00144050       ?_Getpnext@_Iterator_base12@std@@QEAAPEAPEAU12@XZ 0000000140207050 f i SkillBallSystem.obj
 0002:001440a0       ?_Grow_to@?$vector@PEAVCSkillBase@Client@@V?$allocator@PEAVCSkillBase@Client@@@std@@@std@@IEBA_K_K@Z 00000001402070a0 f i SkillBallSystem.obj
 0002:001441b0       ?_Growmap@?$deque@PEAVCSkillBase@Client@@V?$allocator@PEAVCSkillBase@Client@@@std@@@std@@IEAAX_K@Z 00000001402071b0 f i SkillBallSystem.obj
 0002:00144710       ?_Inside@?$vector@PEAVCSkillBase@Client@@V?$allocator@PEAVCSkillBase@Client@@@std@@@std@@IEBA_NPEBQEAVCSkillBase@Client@@@Z 0000000140207710 f i SkillBallSystem.obj
 0002:001447d0       ?_Make_iter@?$vector@PEAVCSkillBase@Client@@V?$allocator@PEAVCSkillBase@Client@@@std@@@std@@QEBA?AV?$_Vector_iterator@V?$_Vector_val@U?$_Simple_types@PEAVCSkillBase@Client@@@std@@@std@@@2@V?$_Vector_const_iterator@V?$_Vector_val@U?$_Simple_types@PEAVCSkillBase@Client@@@std@@@std@@@2@@Z 00000001402077d0 f i SkillBallSystem.obj
 0002:001448a0       ?_Map@?$_Deque_alloc@U?$_Deque_base_types@PEAVCSkillBase@Client@@V?$allocator@PEAVCSkillBase@Client@@@std@@@std@@@std@@QEAAAEAPEAPEAPEAVCSkillBase@Client@@XZ 00000001402078a0 f i SkillBallSystem.obj
 0002:00144900       ?_Mapsize@?$_Deque_alloc@U?$_Deque_base_types@PEAVCSkillBase@Client@@V?$allocator@PEAVCSkillBase@Client@@@std@@@std@@@std@@QEAAAEA_KXZ 0000000140207900 f i SkillBallSystem.obj
 0002:00144960       ?_Myend@?$_Vector_alloc@U?$_Vec_base_types@PEAVCSkillBase@Client@@V?$allocator@PEAVCSkillBase@Client@@@std@@@std@@@std@@QEAAAEAPEAPEAVCSkillBase@Client@@XZ 0000000140207960 f i SkillBallSystem.obj
 0002:001449c0       ?_Myend@?$_Vector_alloc@U?$_Vec_base_types@PEAVCSkillBase@Client@@V?$allocator@PEAVCSkillBase@Client@@@std@@@std@@@std@@QEBAAEBQEAPEAVCSkillBase@Client@@XZ 00000001402079c0 f i SkillBallSystem.obj
 0002:00144a20       ?_Myfirst@?$_Vector_alloc@U?$_Vec_base_types@PEAVCSkillBase@Client@@V?$allocator@PEAVCSkillBase@Client@@@std@@@std@@@std@@QEAAAEAPEAPEAVCSkillBase@Client@@XZ 0000000140207a20 f i SkillBallSystem.obj
 0002:00144a80       ?_Myfirst@?$_Vector_alloc@U?$_Vec_base_types@PEAVCSkillBase@Client@@V?$allocator@PEAVCSkillBase@Client@@@std@@@std@@@std@@QEBAAEBQEAPEAVCSkillBase@Client@@XZ 0000000140207a80 f i SkillBallSystem.obj
 0002:00144ae0       ?_Mylast@?$_Vector_alloc@U?$_Vec_base_types@PEAVCSkillBase@Client@@V?$allocator@PEAVCSkillBase@Client@@@std@@@std@@@std@@QEAAAEAPEAPEAVCSkillBase@Client@@XZ 0000000140207ae0 f i SkillBallSystem.obj
 0002:00144b40       ?_Mylast@?$_Vector_alloc@U?$_Vec_base_types@PEAVCSkillBase@Client@@V?$allocator@PEAVCSkillBase@Client@@@std@@@std@@@std@@QEBAAEBQEAPEAVCSkillBase@Client@@XZ 0000000140207b40 f i SkillBallSystem.obj
 0002:00144ba0       ?_Myoff@?$_Deque_alloc@U?$_Deque_base_types@PEAVCSkillBase@Client@@V?$allocator@PEAVCSkillBase@Client@@@std@@@std@@@std@@QEAAAEA_KXZ 0000000140207ba0 f i SkillBallSystem.obj
 0002:00144c00       ?_Myoff@?$_Deque_alloc@U?$_Deque_base_types@PEAVCSkillBase@Client@@V?$allocator@PEAVCSkillBase@Client@@@std@@@std@@@std@@QEBAAEB_KXZ 0000000140207c00 f i SkillBallSystem.obj
 0002:00144c60       ?_Myproxy@?$_Deque_alloc@U?$_Deque_base_types@PEAVCSkillBase@Client@@V?$allocator@PEAVCSkillBase@Client@@@std@@@std@@@std@@QEAAAEAPEAU_Container_proxy@2@XZ 0000000140207c60 f i SkillBallSystem.obj
 0002:00144cb0       ?_Myproxy@?$_Vector_alloc@U?$_Vec_base_types@PEAVCSkillBase@Client@@V?$allocator@PEAVCSkillBase@Client@@@std@@@std@@@std@@QEAAAEAPEAU_Container_proxy@2@XZ 0000000140207cb0 f i SkillBallSystem.obj
 0002:00144d00       ?_Mysize@?$_Deque_alloc@U?$_Deque_base_types@PEAVCSkillBase@Client@@V?$allocator@PEAVCSkillBase@Client@@@std@@@std@@@std@@QEAAAEA_KXZ 0000000140207d00 f i SkillBallSystem.obj
 0002:00144d60       ?_Mysize@?$_Deque_alloc@U?$_Deque_base_types@PEAVCSkillBase@Client@@V?$allocator@PEAVCSkillBase@Client@@@std@@@std@@@std@@QEBAAEB_KXZ 0000000140207d60 f i SkillBallSystem.obj
 0002:00144dc0       ?_Orphan_all@?$_Deque_alloc@U?$_Deque_base_types@PEAVCSkillBase@Client@@V?$allocator@PEAVCSkillBase@Client@@@std@@@std@@@std@@QEAAXXZ 0000000140207dc0 f i SkillBallSystem.obj
 0002:00144e20       ?_Orphan_all@?$_Vector_alloc@U?$_Vec_base_types@PEAVCSkillBase@Client@@V?$allocator@PEAVCSkillBase@Client@@@std@@@std@@@std@@QEAAXXZ 0000000140207e20 f i SkillBallSystem.obj
 0002:00144e80       ?_Orphan_me@_Iterator_base12@std@@QEAAXXZ 0000000140207e80 f i SkillBallSystem.obj
 0002:00144f80       ?_Orphan_off@?$deque@PEAVCSkillBase@Client@@V?$allocator@PEAVCSkillBase@Client@@@std@@@std@@IEBAX_K@Z 0000000140207f80 f i SkillBallSystem.obj
 0002:00145180       ?_Orphan_range@?$vector@PEAVCSkillBase@Client@@V?$allocator@PEAVCSkillBase@Client@@@std@@@std@@IEBAXPEAPEAVCSkillBase@Client@@0@Z 0000000140208180 f i SkillBallSystem.obj
 0002:001452e0       ?_Reallocate@?$vector@PEAVCSkillBase@Client@@V?$allocator@PEAVCSkillBase@Client@@@std@@@std@@IEAAX_K@Z 00000001402082e0 f i SkillBallSystem.obj
 0002:00145550       ?_Reserve@?$vector@PEAVCSkillBase@Client@@V?$allocator@PEAVCSkillBase@Client@@@std@@@std@@IEAAX_K@Z 0000000140208550 f i SkillBallSystem.obj
 0002:00145640       ?_Setcont@?$_Deque_const_iterator@V?$_Deque_val@U?$_Deque_simple_types@PEAVCSkillBase@Client@@@std@@@std@@@std@@QEAAXPEBV?$_Deque_val@U?$_Deque_simple_types@PEAVCSkillBase@Client@@@std@@@2@@Z 0000000140208640 f i SkillBallSystem.obj
 0002:001456a0       ?_Tidy@?$deque@PEAVCSkillBase@Client@@V?$allocator@PEAVCSkillBase@Client@@@std@@@std@@IEAAXXZ 00000001402086a0 f i SkillBallSystem.obj
 0002:001458f0       ?_Tidy@?$vector@PEAVCSkillBase@Client@@V?$allocator@PEAVCSkillBase@Client@@@std@@@std@@IEAAXXZ 00000001402088f0 f i SkillBallSystem.obj
 0002:00145a80       ?_Unused_capacity@?$vector@PEAVCSkillBase@Client@@V?$allocator@PEAVCSkillBase@Client@@@std@@@std@@QEBA_KXZ 0000000140208a80 f i SkillBallSystem.obj
 0002:00145b10       ?_Xlen@?$deque@PEAVCSkillBase@Client@@V?$allocator@PEAVCSkillBase@Client@@@std@@@std@@IEBAXXZ 0000000140208b10 f i SkillBallSystem.obj
 0002:00145b70       ?_Xlen@?$vector@PEAVCSkillBase@Client@@V?$allocator@PEAVCSkillBase@Client@@@std@@@std@@IEBAXXZ 0000000140208b70 f i SkillBallSystem.obj
 0002:00145bd0       ?__autoclassinit2@?$_Vector_iterator@V?$_Vector_val@U?$_Simple_types@PEAVCSkillBase@Client@@@std@@@std@@@std@@QEAAX_K@Z 0000000140208bd0 f i SkillBallSystem.obj
 0002:00145c30       ?allocate@?$_Wrap_alloc@V?$allocator@PEAPEAVCSkillBase@Client@@@std@@@std@@QEAAPEAPEAPEAVCSkillBase@Client@@_K@Z 0000000140208c30 f i SkillBallSystem.obj
 0002:00145c90       ?allocate@?$_Wrap_alloc@V?$allocator@PEAVCSkillBase@Client@@@std@@@std@@QEAAPEAPEAVCSkillBase@Client@@_K@Z 0000000140208c90 f i SkillBallSystem.obj
 0002:00145cf0       ?allocate@?$allocator@PEAPEAVCSkillBase@Client@@@std@@QEAAPEAPEAPEAVCSkillBase@Client@@_K@Z 0000000140208cf0 f i SkillBallSystem.obj
 0002:00145d50       ?allocate@?$allocator@PEAVCSkillBase@Client@@@std@@QEAAPEAPEAVCSkillBase@Client@@_K@Z 0000000140208d50 f i SkillBallSystem.obj
 0002:00145db0       ?begin@?$deque@PEAVCSkillBase@Client@@V?$allocator@PEAVCSkillBase@Client@@@std@@@std@@QEAA?AV?$_Deque_iterator@V?$_Deque_val@U?$_Deque_simple_types@PEAVCSkillBase@Client@@@std@@@std@@@2@XZ 0000000140208db0 f i SkillBallSystem.obj
 0002:00145e60       ?begin@?$vector@PEAVCSkillBase@Client@@V?$allocator@PEAVCSkillBase@Client@@@std@@@std@@QEAA?AV?$_Vector_iterator@V?$_Vector_val@U?$_Simple_types@PEAVCSkillBase@Client@@@std@@@std@@@2@XZ 0000000140208e60 f i SkillBallSystem.obj
 0002:00145f10       ?capacity@?$vector@PEAVCSkillBase@Client@@V?$allocator@PEAVCSkillBase@Client@@@std@@@std@@QEBA_KXZ 0000000140208f10 f i SkillBallSystem.obj
 0002:00145fa0       ?clear@?$vector@PEAVCSkillBase@Client@@V?$allocator@PEAVCSkillBase@Client@@@std@@@std@@QEAAXXZ 0000000140208fa0 f i SkillBallSystem.obj
 0002:00146090       ?deallocate@?$_Wrap_alloc@V?$allocator@PEAPEAVCSkillBase@Client@@@std@@@std@@QEAAXPEAPEAPEAVCSkillBase@Client@@_K@Z 0000000140209090 f i SkillBallSystem.obj
 0002:00146100       ?deallocate@?$_Wrap_alloc@V?$allocator@PEAVCSkillBase@Client@@@std@@@std@@QEAAXPEAPEAVCSkillBase@Client@@_K@Z 0000000140209100 f i SkillBallSystem.obj
 0002:00146170       ?deallocate@?$allocator@PEAPEAVCSkillBase@Client@@@std@@QEAAXPEAPEAPEAVCSkillBase@Client@@_K@Z 0000000140209170 f i SkillBallSystem.obj
 0002:001461e0       ?deallocate@?$allocator@PEAVCSkillBase@Client@@@std@@QEAAXPEAPEAVCSkillBase@Client@@_K@Z 00000001402091e0 f i SkillBallSystem.obj
 0002:00146250       ?empty@?$deque@PEAVCSkillBase@Client@@V?$allocator@PEAVCSkillBase@Client@@@std@@@std@@QEBA_NXZ 0000000140209250 f i SkillBallSystem.obj
 0002:001462d0       ?empty@?$queue@PEAVCSkillBase@Client@@V?$deque@PEAVCSkillBase@Client@@V?$allocator@PEAVCSkillBase@Client@@@std@@@std@@@std@@QEBA_NXZ 00000001402092d0 f i SkillBallSystem.obj
 0002:00146330       ?end@?$vector@PEAVCSkillBase@Client@@V?$allocator@PEAVCSkillBase@Client@@@std@@@std@@QEAA?AV?$_Vector_iterator@V?$_Vector_val@U?$_Simple_types@PEAVCSkillBase@Client@@@std@@@std@@@2@XZ 0000000140209330 f i SkillBallSystem.obj
 0002:001463e0       ?erase@?$vector@PEAVCSkillBase@Client@@V?$allocator@PEAVCSkillBase@Client@@@std@@@std@@QEAA?AV?$_Vector_iterator@V?$_Vector_val@U?$_Simple_types@PEAVCSkillBase@Client@@@std@@@std@@@2@V?$_Vector_const_iterator@V?$_Vector_val@U?$_Simple_types@PEAVCSkillBase@Client@@@std@@@std@@@2@@Z 00000001402093e0 f i SkillBallSystem.obj
 0002:00146650       ?front@?$deque@PEAVCSkillBase@Client@@V?$allocator@PEAVCSkillBase@Client@@@std@@@std@@QEAAAEAPEAVCSkillBase@Client@@XZ 0000000140209650 f i SkillBallSystem.obj
 0002:00146700       ?front@?$queue@PEAVCSkillBase@Client@@V?$deque@PEAVCSkillBase@Client@@V?$allocator@PEAVCSkillBase@Client@@@std@@@std@@@std@@QEAAAEAPEAVCSkillBase@Client@@XZ 0000000140209700 f i SkillBallSystem.obj
 0002:00146760       ?max_size@?$_Wrap_alloc@V?$allocator@PEAVCSkillBase@Client@@@std@@@std@@QEBA_KU_Nil@2@@Z 0000000140209760 f i SkillBallSystem.obj
 0002:001467c0       ?max_size@?$allocator@PEAVCSkillBase@Client@@@std@@QEBA_KXZ 00000001402097c0 f i SkillBallSystem.obj
 0002:00146810       ?max_size@?$allocator_traits@V?$allocator@PEAVCSkillBase@Client@@@std@@@std@@SA_KAEBV?$allocator@PEAVCSkillBase@Client@@@2@@Z 0000000140209810 f i SkillBallSystem.obj
 0002:00146860       ?max_size@?$deque@PEAVCSkillBase@Client@@V?$allocator@PEAVCSkillBase@Client@@@std@@@std@@QEBA_KXZ 0000000140209860 f i SkillBallSystem.obj
 0002:001468d0       ?max_size@?$vector@PEAVCSkillBase@Client@@V?$allocator@PEAVCSkillBase@Client@@@std@@@std@@QEBA_KXZ 00000001402098d0 f i SkillBallSystem.obj
 0002:00146940       ?pop@?$queue@PEAVCSkillBase@Client@@V?$deque@PEAVCSkillBase@Client@@V?$allocator@PEAVCSkillBase@Client@@@std@@@std@@@std@@QEAAXXZ 0000000140209940 f i SkillBallSystem.obj
 0002:001469a0       ?pop_back@?$deque@PEAVCSkillBase@Client@@V?$allocator@PEAVCSkillBase@Client@@@std@@@std@@QEAAXXZ 00000001402099a0 f i SkillBallSystem.obj
 0002:00146b70       ?pop_front@?$deque@PEAVCSkillBase@Client@@V?$allocator@PEAVCSkillBase@Client@@@std@@@std@@QEAAXXZ 0000000140209b70 f i SkillBallSystem.obj
 0002:00146d60       ?push@?$queue@PEAVCSkillBase@Client@@V?$deque@PEAVCSkillBase@Client@@V?$allocator@PEAVCSkillBase@Client@@@std@@@std@@@std@@QEAAXAEBQEAVCSkillBase@Client@@@Z 0000000140209d60 f i SkillBallSystem.obj
 0002:00146dd0       ?push_back@?$deque@PEAVCSkillBase@Client@@V?$allocator@PEAVCSkillBase@Client@@@std@@@std@@QEAAXAEBQEAVCSkillBase@Client@@@Z 0000000140209dd0 f i SkillBallSystem.obj
 0002:001470b0       ?push_back@?$vector@PEAVCSkillBase@Client@@V?$allocator@PEAVCSkillBase@Client@@@std@@@std@@QEAAXAEBQEAVCSkillBase@Client@@@Z 000000014020a0b0 f i SkillBallSystem.obj
 0002:001473e0       ?size@?$deque@PEAVCSkillBase@Client@@V?$allocator@PEAVCSkillBase@Client@@@std@@@std@@QEBA_KXZ 000000014020a3e0 f i SkillBallSystem.obj
 0002:00147440       ?size@?$queue@PEAVCSkillBase@Client@@V?$deque@PEAVCSkillBase@Client@@V?$allocator@PEAVCSkillBase@Client@@@std@@@std@@@std@@QEBA_KXZ 000000014020a440 f i SkillBallSystem.obj
 0002:001474a0       ?size@?$vector@PEAVCSkillBase@Client@@V?$allocator@PEAVCSkillBase@Client@@@std@@@std@@QEBA_KXZ 000000014020a4a0 f i SkillBallSystem.obj
 0002:00147530       ?to_wstring@std@@YA?AV?$basic_string@_WU?$char_traits@_W@std@@V?$allocator@_W@2@@1@I@Z 000000014020a530 f i SkillBallSystem.obj
 0002:001475c0       ??$Safe_Release@PEAVCDynamicCamera@Client@@@Engine@@YAKAEAPEAVCDynamicCamera@Client@@@Z 000000014020a5c0 f i DynamicCamera.obj
 0002:00147650       ??0CDynamicCamera@Client@@AEAA@AEBV01@@Z 000000014020a650 f   DynamicCamera.obj
 0002:001476d0       ??0CDynamicCamera@Client@@AEAA@PEAUID3D11Device@@PEAUID3D11DeviceContext@@@Z 000000014020a6d0 f   DynamicCamera.obj
 0002:00147760       ??1CDynamicCamera@Client@@EEAA@XZ 000000014020a760 f i DynamicCamera.obj
 0002:001477c0       ??_ECDynamicCamera@Client@@EEAAPEAXI@Z 000000014020a7c0 f i DynamicCamera.obj
 0002:001477c0       ??_GCDynamicCamera@Client@@EEAAPEAXI@Z 000000014020a7c0 f i DynamicCamera.obj
 0002:00147850       ?Add_Components@CDynamicCamera@Client@@QEAAJXZ 000000014020a850 f   DynamicCamera.obj
 0002:001478a0       ?Clone@CDynamicCamera@Client@@UEAAPEAVCGameObject@Engine@@PEAX@Z 000000014020a8a0 f   DynamicCamera.obj
 0002:00147a10       ?Create@CDynamicCamera@Client@@SAPEAV12@PEAUID3D11Device@@PEAUID3D11DeviceContext@@@Z 000000014020aa10 f   DynamicCamera.obj
 0002:00147b80       ?Free@CDynamicCamera@Client@@UEAAXXZ 000000014020ab80 f   DynamicCamera.obj
 0002:00147be0       ?Initialize@CDynamicCamera@Client@@UEAAJPEAX@Z 000000014020abe0 f   DynamicCamera.obj
 0002:00147c50       ?Initialize_Prototype@CDynamicCamera@Client@@UEAAJXZ 000000014020ac50 f   DynamicCamera.obj
 0002:00147cc0       ?LateTick@CDynamicCamera@Client@@UEAAXN@Z 000000014020acc0 f   DynamicCamera.obj
 0002:00147d30       ?Render@CDynamicCamera@Client@@UEAAJXZ 000000014020ad30 f   DynamicCamera.obj
 0002:00147d80       ?Setup_ShaderResources@CDynamicCamera@Client@@QEAAJXZ 000000014020ad80 f   DynamicCamera.obj
 0002:00147dd0       ?Tick@CDynamicCamera@Client@@UEAAXN@Z 000000014020add0 f   DynamicCamera.obj
 0002:00148070       ??$Safe_Release@PEAVCCollider@Engine@@@Engine@@YAKAEAPEAVCCollider@0@@Z 000000014020b070 f i Enemy.obj
 0002:00148100       ??$Safe_Release@PEAVCEnemy@Client@@@Engine@@YAKAEAPEAVCEnemy@Client@@@Z 000000014020b100 f i Enemy.obj
 0002:00148190       ??$Safe_Release@PEAVCModel@Engine@@@Engine@@YAKAEAPEAVCModel@0@@Z 000000014020b190 f i Enemy.obj
 0002:00148220       ??$Safe_Release@PEAVCTransform@Engine@@@Engine@@YAKAEAPEAVCTransform@0@@Z 000000014020b220 f i Enemy.obj
 0002:001482b0       ??$isnan@M@@YA_NM@Z        000000014020b2b0 f i Enemy.obj
 0002:00148330       ??0CEnemy@Client@@QEAA@AEBV01@@Z 000000014020b330 f   Enemy.obj
 0002:00148950       ??0CEnemy@Client@@QEAA@PEAUID3D11Device@@PEAUID3D11DeviceContext@@@Z 000000014020b950 f   Enemy.obj
 0002:00148f10       ??0XMFLOAT3@DirectX@@QEAA@XZ 000000014020bf10 f i Enemy.obj
 0002:00148f60       ??0XMFLOAT4@DirectX@@QEAA@XZ 000000014020bf60 f i Enemy.obj
 0002:00148fb0       ??0tagColliderDesc@CCollider@Engine@@QEAA@XZ 000000014020bfb0 f i Enemy.obj
 0002:00149050       ??1CEnemy@Client@@UEAA@XZ  000000014020c050 f i Enemy.obj
 0002:001490b0       ??4XMFLOAT3@DirectX@@QEAAAEAU01@AEBU01@@Z 000000014020c0b0 f i Enemy.obj
 0002:00149160       ??BXMVECTORI32@DirectX@@QEBA?AT__m128@@XZ 000000014020c160 f i Enemy.obj
 0002:001491d0       ??DDirectX@@YQ?AT__m128@@T1@M@Z 000000014020c1d0 f i Enemy.obj
 0002:00149250       ??GDirectX@@YQ?AT__m128@@T1@0@Z 000000014020c250 f i Enemy.obj
 0002:001492d0       ??GDirectX@@YQ?AT__m128@@T1@@Z 000000014020c2d0 f i Enemy.obj
 0002:00149340       ??HDirectX@@YQ?AT__m128@@T1@0@Z 000000014020c340 f i Enemy.obj
 0002:001493c0       ??_GCEnemy@Client@@UEAAPEAXI@Z 000000014020c3c0 f i Enemy.obj
 0002:001493c0       ??_ECEnemy@Client@@UEAAPEAXI@Z 000000014020c3c0 f i Enemy.obj
 0002:00149450       ?AddComponents@CEnemy@Client@@AEAAJXZ 000000014020c450 f   Enemy.obj
 0002:00149a00       ?Airborne@CEnemy@Client@@AEAAXN@Z 000000014020ca00 f   Enemy.obj
 0002:00149da0       ?AnimationState@CEnemy@Client@@AEAAXN@Z 000000014020cda0 f   Enemy.obj
 0002:0014a620       ?Attack@CEnemy@Client@@AEAAXN@Z 000000014020d620 f   Enemy.obj
 0002:0014a6e0       ?Clone@CEnemy@Client@@UEAAPEAVCGameObject@Engine@@PEAX@Z 000000014020d6e0 f   Enemy.obj
 0002:0014a850       ?Create@CEnemy@Client@@SAPEAV12@PEAUID3D11Device@@PEAUID3D11DeviceContext@@W4TYPE@12@@Z 000000014020d850 f   Enemy.obj
 0002:0014a9d0       ?Die@CEnemy@Client@@AEAAXN@Z 000000014020d9d0 f   Enemy.obj
 0002:0014ab80       ?DieCheck@CEnemy@Client@@AEAA_NXZ 000000014020db80 f   Enemy.obj
 0002:0014abf0       ?Free@CEnemy@Client@@UEAAXXZ 000000014020dbf0 f   Enemy.obj
 0002:0014acf0       ?Freeze@CEnemy@Client@@AEAANN@Z 000000014020dcf0 f   Enemy.obj
 0002:0014aee0       ?GetBodyCollider@CCharacter@Client@@QEBAPEAVCCollider@Engine@@XZ 000000014020dee0 f i Enemy.obj
 0002:0014af30       ?GetCombinedMatrix@CBone@Engine@@QEBA?AUXMFLOAT4X4@DirectX@@XZ 000000014020df30 f i Enemy.obj
 0002:0014afb0       ?GetOffSetMatrix@CBone@Engine@@QEBA?AUXMFLOAT4X4@DirectX@@XZ 000000014020dfb0 f i Enemy.obj
 0002:0014b030       ?GetOverlapCollider@CEnemy@Client@@QEAAPEAVCCollider@Engine@@XZ 000000014020e030 f i Enemy.obj
 0002:0014b080       ?GetPosition@CEnemy@Client@@QEAA?AUXMFLOAT4@DirectX@@XZ 000000014020e080 f   Enemy.obj
 0002:0014b1e0       ?GetRootBonePosition@CEnemy@Client@@QEAA?AT__m128@@XZ 000000014020e1e0 f   Enemy.obj
 0002:0014b320       ?GetWeaponCollider@CCharacter@Client@@QEBAPEAVCCollider@Engine@@XZ 000000014020e320 f i Enemy.obj
 0002:0014b370       ?Hit@CEnemy@Client@@AEAA_NN@Z 000000014020e370 f   Enemy.obj
 0002:0014b620       ?Holding@CEnemy@Client@@AEAAXN@Z 000000014020e620 f   Enemy.obj
 0002:0014b670       ?Idle@CEnemy@Client@@AEAAXN@Z 000000014020e670 f   Enemy.obj
 0002:0014b770       ?Initialize@CEnemy@Client@@UEAAJPEAX@Z 000000014020e770 f   Enemy.obj
 0002:0014bd80       ?Initialize_Prototype@CEnemy@Client@@UEAAJW4TYPE@12@@Z 000000014020ed80 f   Enemy.obj
 0002:0014be60       ?IsFreeze@CApplicationManager@Client@@QEBA_NXZ 000000014020ee60 f i Enemy.obj
 0002:0014beb0       ?IsOverlap@CEnemy@Client@@QEBA_NXZ 000000014020eeb0 f i Enemy.obj
 0002:0014bf00       ?LateTick@CEnemy@Client@@UEAAXN@Z 000000014020ef00 f   Enemy.obj
 0002:0014c5e0       ?LookPlayer@CEnemy@Client@@AEAAXN@Z 000000014020f5e0 f   Enemy.obj
 0002:0014ca50       ?NuckBack@CEnemy@Client@@AEAAXN@Z 000000014020fa50 f   Enemy.obj
 0002:0014cd10       ?OnCollisionEnter@CEnemy@Client@@UEAAXPEAVCCollider@Engine@@0@Z 000000014020fd10 f   Enemy.obj
 0002:0014d410       ?OnCollisionExit@CEnemy@Client@@UEAAXPEAVCCollider@Engine@@0@Z 0000000140210410 f   Enemy.obj
 0002:0014d460       ?OnCollisionStay@CEnemy@Client@@UEAAXPEAVCCollider@Engine@@0@Z 0000000140210460 f   Enemy.obj
 0002:0014d4b0       ?OverlapProcess@CEnemy@Client@@AEAAXN@Z 00000001402104b0 f   Enemy.obj
 0002:0014dea0       ?RecvDamage@CEnemy@Client@@QEAAXM@Z 0000000140210ea0 f   Enemy.obj
 0002:0014dfb0       ?Render@CEnemy@Client@@UEAAJXZ 0000000140210fb0 f   Enemy.obj
 0002:0014e1a0       ?RenderGUI@CEnemy@Client@@UEAAXXZ 00000001402111a0 f   Enemy.obj
 0002:0014e1e0       ?Reset@CEnemy@Client@@QEAAXXZ 00000001402111e0 f   Enemy.obj
 0002:0014e3e0       ?SetAirborne@CEnemy@Client@@QEAAXM@Z 00000001402113e0 f   Enemy.obj
 0002:0014e490       ?SetHitFreeze@CApplicationManager@Client@@QEAAX_N@Z 0000000140211490 f i Enemy.obj
 0002:0014e4f0       ?SetNuckback@CEnemy@Client@@QEAAXM@Z 00000001402114f0 f   Enemy.obj
 0002:0014e580       ?SetOverlap@CEnemy@Client@@QEAAX_NUXMFLOAT3@DirectX@@@Z 0000000140211580 f i Enemy.obj
 0002:0014e610       ?SetPosition@CEnemy@Client@@QEAAXUXMFLOAT3@DirectX@@@Z 0000000140211610 f   Enemy.obj
 0002:0014e6c0       ?SetupShaderResources@CEnemy@Client@@AEAAJXZ 00000001402116c0 f   Enemy.obj
 0002:0014ea30       ?Tick@CEnemy@Client@@UEAAXN@Z 0000000140211a30 f   Enemy.obj
 0002:0014ec30       ?Trace@CEnemy@Client@@AEAAXN@Z 0000000140211c30 f   Enemy.obj
 0002:0014edf0       ?XMLoadFloat3@DirectX@@YQ?AT__m128@@PEBUXMFLOAT3@1@@Z 0000000140211df0 f i Enemy.obj
 0002:0014ef50       ?XMLoadFloat4@DirectX@@YQ?AT__m128@@PEBUXMFLOAT4@1@@Z 0000000140211f50 f i Enemy.obj
 0002:0014eff0       ?XMLoadFloat4x4@DirectX@@YQ?AUXMMATRIX@1@PEBUXMFLOAT4X4@1@@Z 0000000140211ff0 f i Enemy.obj
 0002:0014f1a0       ?XMStoreFloat3@DirectX@@YQXPEAUXMFLOAT3@1@T__m128@@@Z 00000001402121a0 f i Enemy.obj
 0002:0014f2b0       ?XMStoreFloat4@DirectX@@YQXPEAUXMFLOAT4@1@T__m128@@@Z 00000001402122b0 f i Enemy.obj
 0002:0014f350       ?XMVector3Cross@DirectX@@YQ?AT__m128@@T2@0@Z 0000000140212350 f i Enemy.obj
 0002:0014f4f0       ?XMVector3Dot@DirectX@@YQ?AT__m128@@T2@0@Z 00000001402124f0 f i Enemy.obj
 0002:0014f630       ?XMVector3Length@DirectX@@YQ?AT__m128@@T2@@Z 0000000140212630 f i Enemy.obj
 0002:0014f760       ?XMVector3Normalize@DirectX@@YQ?AT__m128@@T2@@Z 0000000140212760 f i Enemy.obj
 0002:0014fa00       ?XMVectorAdd@DirectX@@YQ?AT__m128@@T2@0@Z 0000000140212a00 f i Enemy.obj
 0002:0014fa80       ?XMVectorGetX@DirectX@@YQMT__m128@@@Z 0000000140212a80 f i Enemy.obj
 0002:0014fae0       ?XMVectorGetY@DirectX@@YQMT__m128@@@Z 0000000140212ae0 f i Enemy.obj
 0002:0014fb60       ?XMVectorLerp@DirectX@@YQ?AT__m128@@T2@0M@Z 0000000140212b60 f i Enemy.obj
 0002:0014fc60       ?XMVectorNegate@DirectX@@YQ?AT__m128@@T2@@Z 0000000140212c60 f i Enemy.obj
 0002:0014fce0       ?XMVectorScale@DirectX@@YQ?AT__m128@@T2@M@Z 0000000140212ce0 f i Enemy.obj
 0002:0014fd70       ?XMVectorSubtract@DirectX@@YQ?AT__m128@@T2@0@Z 0000000140212d70 f i Enemy.obj
 0002:0014fdf0       ?acos@@YAMM@Z              0000000140212df0 f i Enemy.obj
 0002:0014fe40       ?fpclassify@@YAHM@Z        0000000140212e40 f i Enemy.obj
 0002:0014fe90       ??$Safe_Release@PEAVCEnemyHealthBar@Client@@@Engine@@YAKAEAPEAVCEnemyHealthBar@Client@@@Z 0000000140212e90 f i EnemyHealthBar.obj
 0002:0014ff20       ??0CEnemyHealthBar@Client@@IEAA@AEBV01@@Z 0000000140212f20 f   EnemyHealthBar.obj
 0002:00150110       ??0CEnemyHealthBar@Client@@IEAA@PEAUID3D11Device@@PEAUID3D11DeviceContext@@@Z 0000000140213110 f   EnemyHealthBar.obj
 0002:00150310       ??1CEnemyHealthBar@Client@@MEAA@XZ 0000000140213310 f i EnemyHealthBar.obj
 0002:00150370       ??_ECEnemyHealthBar@Client@@MEAAPEAXI@Z 0000000140213370 f i EnemyHealthBar.obj
 0002:00150370       ??_GCEnemyHealthBar@Client@@MEAAPEAXI@Z 0000000140213370 f i EnemyHealthBar.obj
 0002:00150400       ?Add_Components@CEnemyHealthBar@Client@@AEAAJXZ 0000000140213400 f   EnemyHealthBar.obj
 0002:00150700       ?Clone@CEnemyHealthBar@Client@@UEAAPEAVCGameObject@Engine@@PEAX@Z 0000000140213700 f   EnemyHealthBar.obj
 0002:001508a0       ?Create@CEnemyHealthBar@Client@@SAPEAV12@PEAUID3D11Device@@PEAUID3D11DeviceContext@@@Z 00000001402138a0 f   EnemyHealthBar.obj
 0002:00150a40       ?Free@CEnemyHealthBar@Client@@UEAAXXZ 0000000140213a40 f   EnemyHealthBar.obj
 0002:00150b70       ?Initialize@CEnemyHealthBar@Client@@UEAAJPEAX@Z 0000000140213b70 f   EnemyHealthBar.obj
 0002:00150f80       ?Initialize_Prototype@CEnemyHealthBar@Client@@UEAAJXZ 0000000140213f80 f   EnemyHealthBar.obj
 0002:00150ff0       ?LateTick@CEnemyHealthBar@Client@@UEAAXN@Z 0000000140213ff0 f   EnemyHealthBar.obj
 0002:001510b0       ?Render@CEnemyHealthBar@Client@@UEAAJXZ 00000001402140b0 f   EnemyHealthBar.obj
 0002:00151410       ?RenderGUI@CEnemyHealthBar@Client@@UEAAXXZ 0000000140214410 f   EnemyHealthBar.obj
 0002:00151450       ?SetFillAmount@CEnemyHealthBar@Client@@QEAAXMM@Z 0000000140214450 f   EnemyHealthBar.obj
 0002:00151560       ?SetHealth@CEnemyHealthBar@Client@@QEAAXMM@Z 0000000140214560 f   EnemyHealthBar.obj
 0002:00151830       ?Setup_ShaderResources@CEnemyHealthBar@Client@@AEAAJXZ 0000000140214830 f   EnemyHealthBar.obj
 0002:00151980       ?Tick@CEnemyHealthBar@Client@@UEAAXN@Z 0000000140214980 f   EnemyHealthBar.obj
 0002:001519f0       ??$Safe_Release@PEAVCFreezeArea@Client@@@Engine@@YAKAEAPEAVCFreezeArea@Client@@@Z 00000001402149f0 f i FreezeArea.obj
 0002:00151a80       ??0CFreezeArea@Client@@AEAA@PEAUID3D11Device@@PEAUID3D11DeviceContext@@@Z 0000000140214a80 f   FreezeArea.obj
 0002:00151c00       ??0CFreezeArea@Client@@QEAA@AEBV01@@Z 0000000140214c00 f i FreezeArea.obj
 0002:00151dd0       ??1CFreezeArea@Client@@EEAA@XZ 0000000140214dd0 f i FreezeArea.obj
 0002:00151e30       ??_ECFreezeArea@Client@@EEAAPEAXI@Z 0000000140214e30 f i FreezeArea.obj
 0002:00151e30       ??_GCFreezeArea@Client@@EEAAPEAXI@Z 0000000140214e30 f i FreezeArea.obj
 0002:00151ec0       ?AddComponents@CFreezeArea@Client@@AEAAJXZ 0000000140214ec0 f   FreezeArea.obj
 0002:00152060       ?Clone@CFreezeArea@Client@@UEAAPEAVCGameObject@Engine@@PEAX@Z 0000000140215060 f   FreezeArea.obj
 0002:001521d0       ?Create@CFreezeArea@Client@@SAPEAV12@PEAUID3D11Device@@PEAUID3D11DeviceContext@@@Z 00000001402151d0 f   FreezeArea.obj
 0002:00152340       ?Free@CFreezeArea@Client@@UEAAXXZ 0000000140215340 f   FreezeArea.obj
 0002:00152400       ?GetPlayerPrevPosition@CApplicationManager@Client@@QEAA?AT__m128@@XZ 0000000140215400 f i FreezeArea.obj
 0002:00152490       ?Initialize@CFreezeArea@Client@@UEAAJPEAX@Z 0000000140215490 f   FreezeArea.obj
 0002:00152580       ?Initialize_Prototype@CFreezeArea@Client@@UEAAJXZ 0000000140215580 f   FreezeArea.obj
 0002:001525f0       ?LateTick@CFreezeArea@Client@@UEAAXN@Z 00000001402155f0 f   FreezeArea.obj
 0002:001526a0       ?Render@CFreezeArea@Client@@UEAAJXZ 00000001402156a0 f   FreezeArea.obj
 0002:001527e0       ?RenderGUI@CFreezeArea@Client@@UEAAXXZ 00000001402157e0 f   FreezeArea.obj
 0002:00152820       ?SetPosition@CFreezeArea@Client@@QEAAXT__m128@@@Z 0000000140215820 f   FreezeArea.obj
 0002:00152890       ?SetupShaderResources@CFreezeArea@Client@@AEAAJXZ 0000000140215890 f   FreezeArea.obj
 0002:00152b80       ?Tick@CFreezeArea@Client@@UEAAXN@Z 0000000140215b80 f   FreezeArea.obj
 0002:00153050       ??$Safe_AddRef@PEAUID3D11Device@@@Engine@@YAKAEAPEAUID3D11Device@@@Z 0000000140216050 f i ImGUIManager.obj
 0002:001530d0       ??$Safe_AddRef@PEAUID3D11DeviceContext@@@Engine@@YAKAEAPEAUID3D11DeviceContext@@@Z 00000001402160d0 f i ImGUIManager.obj
 0002:00153150       ??0CImGUIManager@Client@@QEAA@XZ 0000000140216150 f   ImGUIManager.obj
 0002:001531f0       ??1CImGUIManager@Client@@UEAA@XZ 00000001402161f0 f   ImGUIManager.obj
 0002:00153260       ??_GCImGUIManager@Client@@UEAAPEAXI@Z 0000000140216260 f i ImGUIManager.obj
 0002:00153260       ??_ECImGUIManager@Client@@UEAAPEAXI@Z 0000000140216260 f i ImGUIManager.obj
 0002:001532f0       ?DestroyInstance@CImGUIManager@Client@@SAKXZ 00000001402162f0 f   ImGUIManager.obj
 0002:00153370       ?Free@CImGUIManager@Client@@UEAAXXZ 0000000140216370 f   ImGUIManager.obj
 0002:001533b0       ?GetInstance@CImGUIManager@Client@@SAPEAV12@XZ 00000001402163b0 f   ImGUIManager.obj
 0002:00153490       ?Initialize@CImGUIManager@Client@@QEAAXPEAUID3D11Device@@PEAUID3D11DeviceContext@@@Z 0000000140216490 f   ImGUIManager.obj
 0002:001535d0       ?NewFrame@CImGUIManager@Client@@QEAAXXZ 00000001402165d0 f   ImGUIManager.obj
 0002:00153630       ?Render@CImGUIManager@Client@@QEAAXXZ 0000000140216630 f   ImGUIManager.obj
 0002:001537a0       ?RenderDrawData@CImGUIManager@Client@@QEAAXXZ 00000001402167a0 f   ImGUIManager.obj
 0002:00153800       ?Shutdown@CImGUIManager@Client@@QEAAXXZ 0000000140216800 f   ImGUIManager.obj
 0002:00153890       ??$?0$$V@?$_Compressed_pair@U?$_Wrap_alloc@V?$allocator@U?$_List_node@PEAVCEnemy@Client@@PEAX@std@@@std@@@std@@V?$_List_val@U?$_List_simple_types@PEAVCEnemy@Client@@@std@@@2@$00@std@@QEAA@U_Zero_then_variadic_args_t@1@@Z 0000000140216890 f i Character.obj
 0002:00153900       ??$?0$$V@?$_Compressed_pair@U?$_Wrap_alloc@V?$allocator@UtagOverlapInfo@CCharacter@Client@@@std@@@std@@V?$_Vector_val@U?$_Simple_types@UtagOverlapInfo@CCharacter@Client@@@std@@@2@$00@std@@QEAA@U_Zero_then_variadic_args_t@1@@Z 0000000140216900 f i Character.obj
 0002:00153970       ??$?0AEAU?$_Wrap_alloc@V?$allocator@U?$_List_node@PEAVCEnemy@Client@@PEAX@std@@@std@@@std@@@?$_Wrap_alloc@V?$allocator@U_Container_proxy@std@@@std@@@std@@QEAA@AEAU?$_Wrap_alloc@V?$allocator@U?$_List_node@PEAVCEnemy@Client@@PEAX@std@@@std@@@1@@Z 0000000140216970 f i Character.obj
 0002:001539f0       ??$?0AEAU?$_Wrap_alloc@V?$allocator@UtagOverlapInfo@CCharacter@Client@@@std@@@std@@@?$_Wrap_alloc@V?$allocator@U_Container_proxy@std@@@std@@@std@@QEAA@AEAU?$_Wrap_alloc@V?$allocator@UtagOverlapInfo@CCharacter@Client@@@std@@@1@@Z 00000001402169f0 f i Character.obj
 0002:00153a70       ??$?0U?$_List_node@PEAVCEnemy@Client@@PEAX@std@@@?$allocator@U_Container_proxy@std@@@std@@QEAA@AEBV?$allocator@U?$_List_node@PEAVCEnemy@Client@@PEAX@std@@@1@@Z 0000000140216a70 f i Character.obj
 0002:00153ac0       ??$?0UtagOverlapInfo@CCharacter@Client@@@?$allocator@U_Container_proxy@std@@@std@@QEAA@AEBV?$allocator@UtagOverlapInfo@CCharacter@Client@@@1@@Z 0000000140216ac0 f i Character.obj
 0002:00153b10       ??$Safe_Release@PEAVCCharacter@Client@@@Engine@@YAKAEAPEAVCCharacter@Client@@@Z 0000000140216b10 f i Character.obj
 0002:00153ba0       ??$_Buynode@AEBQEAVCEnemy@Client@@@?$_List_buy@PEAVCEnemy@Client@@V?$allocator@PEAVCEnemy@Client@@@std@@@std@@QEAAPEAU?$_List_node@PEAVCEnemy@Client@@PEAX@1@PEAU21@0AEBQEAVCEnemy@Client@@@Z 0000000140216ba0 f i Character.obj
 0002:00153cb0       ??$_Destroy_range1@V?$allocator@UtagOverlapInfo@CCharacter@Client@@@std@@PEAUtagOverlapInfo@CCharacter@Client@@@std@@YAXPEAUtagOverlapInfo@CCharacter@Client@@0AEAU?$_Wrap_alloc@V?$allocator@UtagOverlapInfo@CCharacter@Client@@@std@@@0@U?$integral_constant@_N$00@0@@Z 0000000140216cb0 f i Character.obj
 0002:00153d10       ??$_Destroy_range@V?$allocator@UtagOverlapInfo@CCharacter@Client@@@std@@PEAUtagOverlapInfo@CCharacter@Client@@@std@@YAXPEAUtagOverlapInfo@CCharacter@Client@@0AEAU?$_Wrap_alloc@V?$allocator@UtagOverlapInfo@CCharacter@Client@@@std@@@0@@Z 0000000140216d10 f i Character.obj
 0002:00153d90       ??$_Insert@AEBQEAVCEnemy@Client@@@?$list@PEAVCEnemy@Client@@V?$allocator@PEAVCEnemy@Client@@@std@@@std@@QEAAXV?$_List_unchecked_const_iterator@V?$_List_val@U?$_List_simple_types@PEAVCEnemy@Client@@@std@@@std@@U_Iterator_base0@2@@1@AEBQEAVCEnemy@Client@@@Z 0000000140216d90 f i Character.obj
 0002:00153e90       ??$addressof@PEAU?$_List_node@PEAVCEnemy@Client@@PEAX@std@@@std@@YAPEAPEAU?$_List_node@PEAVCEnemy@Client@@PEAX@0@AEAPEAU10@@Z 0000000140216e90 f i Character.obj
 0002:00153ee0       ??$addressof@PEAVCEnemy@Client@@@std@@YAPEAPEAVCEnemy@Client@@AEAPEAV12@@Z 0000000140216ee0 f i Character.obj
 0002:00153f30       ??$construct@PEAU?$_List_node@PEAVCEnemy@Client@@PEAX@std@@AEAPEAU12@@?$_Wrap_alloc@V?$allocator@U?$_List_node@PEAVCEnemy@Client@@PEAX@std@@@std@@@std@@QEAAXPEAPEAU?$_List_node@PEAVCEnemy@Client@@PEAX@1@AEAPEAU21@@Z 0000000140216f30 f i Character.obj
 0002:00153fb0       ??$construct@PEAU?$_List_node@PEAVCEnemy@Client@@PEAX@std@@AEAPEAU12@@?$allocator@U?$_List_node@PEAVCEnemy@Client@@PEAX@std@@@std@@QEAAXPEAPEAU?$_List_node@PEAVCEnemy@Client@@PEAX@1@AEAPEAU21@@Z 0000000140216fb0 f i Character.obj
 0002:00154070       ??$construct@PEAU?$_List_node@PEAVCEnemy@Client@@PEAX@std@@AEAPEAU12@@?$allocator_traits@V?$allocator@U?$_List_node@PEAVCEnemy@Client@@PEAX@std@@@std@@@std@@SAXAEAV?$allocator@U?$_List_node@PEAVCEnemy@Client@@PEAX@std@@@1@PEAPEAU?$_List_node@PEAVCEnemy@Client@@PEAX@1@AEAPEAU31@@Z 0000000140217070 f i Character.obj
 0002:001540f0       ??$construct@PEAVCEnemy@Client@@AEBQEAV12@@?$_Wrap_alloc@V?$allocator@U?$_List_node@PEAVCEnemy@Client@@PEAX@std@@@std@@@std@@QEAAXPEAPEAVCEnemy@Client@@AEBQEAV23@@Z 00000001402170f0 f i Character.obj
 0002:00154170       ??$construct@PEAVCEnemy@Client@@AEBQEAV12@@?$allocator@U?$_List_node@PEAVCEnemy@Client@@PEAX@std@@@std@@QEAAXPEAPEAVCEnemy@Client@@AEBQEAV23@@Z 0000000140217170 f i Character.obj
 0002:00154230       ??$construct@PEAVCEnemy@Client@@AEBQEAV12@@?$allocator_traits@V?$allocator@U?$_List_node@PEAVCEnemy@Client@@PEAX@std@@@std@@@std@@SAXAEAV?$allocator@U?$_List_node@PEAVCEnemy@Client@@PEAX@std@@@1@PEAPEAVCEnemy@Client@@AEBQEAV34@@Z 0000000140217230 f i Character.obj
 0002:001542b0       ??$destroy@PEAU?$_List_node@PEAVCEnemy@Client@@PEAX@std@@@?$_Wrap_alloc@V?$allocator@U?$_List_node@PEAVCEnemy@Client@@PEAX@std@@@std@@@std@@QEAAXPEAPEAU?$_List_node@PEAVCEnemy@Client@@PEAX@1@@Z 00000001402172b0 f i Character.obj
 0002:00154310       ??$destroy@PEAU?$_List_node@PEAVCEnemy@Client@@PEAX@std@@@?$allocator@U?$_List_node@PEAVCEnemy@Client@@PEAX@std@@@std@@QEAAXPEAPEAU?$_List_node@PEAVCEnemy@Client@@PEAX@1@@Z 0000000140217310 f i Character.obj
 0002:00154360       ??$destroy@PEAU?$_List_node@PEAVCEnemy@Client@@PEAX@std@@@?$allocator_traits@V?$allocator@U?$_List_node@PEAVCEnemy@Client@@PEAX@std@@@std@@@std@@SAXAEAV?$allocator@U?$_List_node@PEAVCEnemy@Client@@PEAX@std@@@1@PEAPEAU?$_List_node@PEAVCEnemy@Client@@PEAX@1@@Z 0000000140217360 f i Character.obj
 0002:001543c0       ??$destroy@PEAVCEnemy@Client@@@?$_Wrap_alloc@V?$allocator@U?$_List_node@PEAVCEnemy@Client@@PEAX@std@@@std@@@std@@QEAAXPEAPEAVCEnemy@Client@@@Z 00000001402173c0 f i Character.obj
 0002:00154420       ??$destroy@PEAVCEnemy@Client@@@?$allocator@U?$_List_node@PEAVCEnemy@Client@@PEAX@std@@@std@@QEAAXPEAPEAVCEnemy@Client@@@Z 0000000140217420 f i Character.obj
 0002:00154470       ??$destroy@PEAVCEnemy@Client@@@?$allocator_traits@V?$allocator@U?$_List_node@PEAVCEnemy@Client@@PEAX@std@@@std@@@std@@SAXAEAV?$allocator@U?$_List_node@PEAVCEnemy@Client@@PEAX@std@@@1@PEAPEAVCEnemy@Client@@@Z 0000000140217470 f i Character.obj
 0002:001544d0       ??$forward@AEAPEAU?$_List_node@PEAVCEnemy@Client@@PEAX@std@@@std@@YAAEAPEAU?$_List_node@PEAVCEnemy@Client@@PEAX@0@AEAPEAU10@@Z 00000001402174d0 f i Character.obj
 0002:00154520       ??$forward@AEAU?$_Wrap_alloc@V?$allocator@U?$_List_node@PEAVCEnemy@Client@@PEAX@std@@@std@@@std@@@std@@YAAEAU?$_Wrap_alloc@V?$allocator@U?$_List_node@PEAVCEnemy@Client@@PEAX@std@@@std@@@0@AEAU10@@Z 0000000140217520 f i Character.obj
 0002:00154570       ??$forward@AEAU?$_Wrap_alloc@V?$allocator@UtagOverlapInfo@CCharacter@Client@@@std@@@std@@@std@@YAAEAU?$_Wrap_alloc@V?$allocator@UtagOverlapInfo@CCharacter@Client@@@std@@@0@AEAU10@@Z 0000000140217570 f i Character.obj
 0002:001545c0       ??$forward@AEBQEAVCEnemy@Client@@@std@@YAAEBQEAVCEnemy@Client@@AEBQEAV12@@Z 00000001402175c0 f i Character.obj
 0002:00154610       ??0?$_Iterator012@Ubidirectional_iterator_tag@std@@PEAVCEnemy@Client@@_JPEBQEAV34@AEBQEAV34@U_Iterator_base12@2@@std@@QEAA@$$QEAU01@@Z 0000000140217610 f i Character.obj
 0002:00154680       ??0?$_Iterator012@Ubidirectional_iterator_tag@std@@PEAVCEnemy@Client@@_JPEBQEAV34@AEBQEAV34@U_Iterator_base12@2@@std@@QEAA@AEBU01@@Z 0000000140217680 f i Character.obj
 0002:001546f0       ??0?$_Iterator012@Ubidirectional_iterator_tag@std@@PEAVCEnemy@Client@@_JPEBQEAV34@AEBQEAV34@U_Iterator_base12@2@@std@@QEAA@XZ 00000001402176f0 f i Character.obj
 0002:00154750       ??0?$_List_alloc@U?$_List_base_types@PEAVCEnemy@Client@@V?$allocator@PEAVCEnemy@Client@@@std@@@std@@@std@@QEAA@XZ 0000000140217750 f i Character.obj
 0002:00154810       ??0?$_List_buy@PEAVCEnemy@Client@@V?$allocator@PEAVCEnemy@Client@@@std@@@std@@QEAA@XZ 0000000140217810 f i Character.obj
 0002:00154870       ??0?$_List_const_iterator@V?$_List_val@U?$_List_simple_types@PEAVCEnemy@Client@@@std@@@std@@@std@@QEAA@$$QEAV01@@Z 0000000140217870 f i Character.obj
 0002:001548e0       ??0?$_List_const_iterator@V?$_List_val@U?$_List_simple_types@PEAVCEnemy@Client@@@std@@@std@@@std@@QEAA@AEBV01@@Z 00000001402178e0 f i Character.obj
 0002:00154950       ??0?$_List_const_iterator@V?$_List_val@U?$_List_simple_types@PEAVCEnemy@Client@@@std@@@std@@@std@@QEAA@PEAU?$_List_node@PEAVCEnemy@Client@@PEAX@1@PEBV?$_List_val@U?$_List_simple_types@PEAVCEnemy@Client@@@std@@@1@@Z 0000000140217950 f i Character.obj
 0002:001549d0       ??0?$_List_iterator@V?$_List_val@U?$_List_simple_types@PEAVCEnemy@Client@@@std@@@std@@@std@@QEAA@PEAU?$_List_node@PEAVCEnemy@Client@@PEAX@1@PEBV?$_List_val@U?$_List_simple_types@PEAVCEnemy@Client@@@std@@@1@@Z 00000001402179d0 f i Character.obj
 0002:00154a50       ??0?$_List_unchecked_const_iterator@V?$_List_val@U?$_List_simple_types@PEAVCEnemy@Client@@@std@@@std@@U_Iterator_base0@2@@std@@QEAA@PEAU?$_List_node@PEAVCEnemy@Client@@PEAX@1@PEBV?$_List_val@U?$_List_simple_types@PEAVCEnemy@Client@@@std@@@1@@Z 0000000140217a50 f i Character.obj
 0002:00154ae0       ??0?$_List_unchecked_const_iterator@V?$_List_val@U?$_List_simple_types@PEAVCEnemy@Client@@@std@@@std@@U_Iterator_base12@2@@std@@QEAA@$$QEAV01@@Z 0000000140217ae0 f i Character.obj
 0002:00154b70       ??0?$_List_unchecked_const_iterator@V?$_List_val@U?$_List_simple_types@PEAVCEnemy@Client@@@std@@@std@@U_Iterator_base12@2@@std@@QEAA@AEBV01@@Z 0000000140217b70 f i Character.obj
 0002:00154c00       ??0?$_List_unchecked_const_iterator@V?$_List_val@U?$_List_simple_types@PEAVCEnemy@Client@@@std@@@std@@U_Iterator_base12@2@@std@@QEAA@PEAU?$_List_node@PEAVCEnemy@Client@@PEAX@1@PEBV?$_List_val@U?$_List_simple_types@PEAVCEnemy@Client@@@std@@@1@@Z 0000000140217c00 f i Character.obj
 0002:00154cb0       ??0?$_List_unchecked_iterator@V?$_List_val@U?$_List_simple_types@PEAVCEnemy@Client@@@std@@@std@@@std@@QEAA@PEAU?$_List_node@PEAVCEnemy@Client@@PEAX@1@PEBV?$_List_val@U?$_List_simple_types@PEAVCEnemy@Client@@@std@@@1@@Z 0000000140217cb0 f i Character.obj
 0002:00154d30       ??0?$_List_val@U?$_List_simple_types@PEAVCEnemy@Client@@@std@@@std@@QEAA@XZ 0000000140217d30 f i Character.obj
 0002:00154db0       ??0?$_Vector_alloc@U?$_Vec_base_types@UtagOverlapInfo@CCharacter@Client@@V?$allocator@UtagOverlapInfo@CCharacter@Client@@@std@@@std@@@std@@QEAA@XZ 0000000140217db0 f i Character.obj
 0002:00154e40       ??0?$_Vector_val@U?$_Simple_types@UtagOverlapInfo@CCharacter@Client@@@std@@@std@@QEAA@XZ 0000000140217e40 f i Character.obj
 0002:00154ee0       ??0?$_Wrap_alloc@V?$allocator@U?$_List_node@PEAVCEnemy@Client@@PEAX@std@@@std@@@std@@QEAA@XZ 0000000140217ee0 f i Character.obj
 0002:00154f40       ??0?$_Wrap_alloc@V?$allocator@UtagOverlapInfo@CCharacter@Client@@@std@@@std@@QEAA@XZ 0000000140217f40 f i Character.obj
 0002:00154fa0       ??0?$allocator@U?$_List_node@PEAVCEnemy@Client@@PEAX@std@@@std@@QEAA@XZ 0000000140217fa0 f i Character.obj
 0002:00154ff0       ??0?$allocator@UtagOverlapInfo@CCharacter@Client@@@std@@QEAA@XZ 0000000140217ff0 f i Character.obj
 0002:00155040       ??0?$list@PEAVCEnemy@Client@@V?$allocator@PEAVCEnemy@Client@@@std@@@std@@QEAA@XZ 0000000140218040 f i Character.obj
 0002:001550a0       ??0?$vector@UtagOverlapInfo@CCharacter@Client@@V?$allocator@UtagOverlapInfo@CCharacter@Client@@@std@@@std@@QEAA@XZ 00000001402180a0 f i Character.obj
 0002:00155110       ??0CCharacter@Client@@AEAA@AEBV01@@Z 0000000140218110 f   Character.obj
 0002:001558d0       ??0CCharacter@Client@@AEAA@PEAUID3D11Device@@PEAUID3D11DeviceContext@@@Z 00000001402188d0 f   Character.obj
 0002:00156080       ??1?$_Compressed_pair@U?$_Wrap_alloc@V?$allocator@U?$_List_node@PEAVCEnemy@Client@@PEAX@std@@@std@@@std@@V?$_List_val@U?$_List_simple_types@PEAVCEnemy@Client@@@std@@@2@$00@std@@QEAA@XZ 0000000140219080 f i Character.obj
 0002:001560e0       ??1?$_Compressed_pair@U?$_Wrap_alloc@V?$allocator@UtagOverlapInfo@CCharacter@Client@@@std@@@std@@V?$_Vector_val@U?$_Simple_types@UtagOverlapInfo@CCharacter@Client@@@std@@@2@$00@std@@QEAA@XZ 00000001402190e0 f i Character.obj
 0002:00156140       ??1?$_Iterator012@Ubidirectional_iterator_tag@std@@PEAVCEnemy@Client@@_JPEBQEAV34@AEBQEAV34@U_Iterator_base12@2@@std@@QEAA@XZ 0000000140219140 f i Character.obj
 0002:00156190       ??1?$_List_alloc@U?$_List_base_types@PEAVCEnemy@Client@@V?$allocator@PEAVCEnemy@Client@@@std@@@std@@@std@@QEAA@XZ 0000000140219190 f i Character.obj
 0002:00156230       ??1?$_List_buy@PEAVCEnemy@Client@@V?$allocator@PEAVCEnemy@Client@@@std@@@std@@QEAA@XZ 0000000140219230 f i Character.obj
 0002:00156280       ??1?$_List_const_iterator@V?$_List_val@U?$_List_simple_types@PEAVCEnemy@Client@@@std@@@std@@@std@@QEAA@XZ 0000000140219280 f i Character.obj
 0002:001562d0       ??1?$_List_iterator@V?$_List_val@U?$_List_simple_types@PEAVCEnemy@Client@@@std@@@std@@@std@@QEAA@XZ 00000001402192d0 f i Character.obj
 0002:00156320       ??1?$_List_unchecked_const_iterator@V?$_List_val@U?$_List_simple_types@PEAVCEnemy@Client@@@std@@@std@@U_Iterator_base12@2@@std@@QEAA@XZ 0000000140219320 f i Character.obj
 0002:00156370       ??1?$_List_val@U?$_List_simple_types@PEAVCEnemy@Client@@@std@@@std@@QEAA@XZ 0000000140219370 f i Character.obj
 0002:001563c0       ??1?$_Vector_alloc@U?$_Vec_base_types@UtagOverlapInfo@CCharacter@Client@@V?$allocator@UtagOverlapInfo@CCharacter@Client@@@std@@@std@@@std@@QEAA@XZ 00000001402193c0 f i Character.obj
 0002:00156440       ??1?$_Vector_val@U?$_Simple_types@UtagOverlapInfo@CCharacter@Client@@@std@@@std@@QEAA@XZ 0000000140219440 f i Character.obj
 0002:00156490       ??1?$list@PEAVCEnemy@Client@@V?$allocator@PEAVCEnemy@Client@@@std@@@std@@QEAA@XZ 0000000140219490 f i Character.obj
 0002:00156500       ??1?$vector@UtagOverlapInfo@CCharacter@Client@@V?$allocator@UtagOverlapInfo@CCharacter@Client@@@std@@@std@@QEAA@XZ 0000000140219500 f i Character.obj
 0002:00156570       ??1CCharacter@Client@@EEAA@XZ 0000000140219570 f i Character.obj
 0002:00156600       ??4?$_Iterator012@Ubidirectional_iterator_tag@std@@PEAVCEnemy@Client@@_JPEBQEAV34@AEBQEAV34@U_Iterator_base12@2@@std@@QEAAAEAU01@$$QEAU01@@Z 0000000140219600 f i Character.obj
 0002:00156670       ??4?$_List_const_iterator@V?$_List_val@U?$_List_simple_types@PEAVCEnemy@Client@@@std@@@std@@@std@@QEAAAEAV01@$$QEAV01@@Z 0000000140219670 f i Character.obj
 0002:001566e0       ??4?$_List_iterator@V?$_List_val@U?$_List_simple_types@PEAVCEnemy@Client@@@std@@@std@@@std@@QEAAAEAV01@$$QEAV01@@Z 00000001402196e0 f i Character.obj
 0002:00156750       ??4?$_List_unchecked_const_iterator@V?$_List_val@U?$_List_simple_types@PEAVCEnemy@Client@@@std@@@std@@U_Iterator_base12@2@@std@@QEAAAEAV01@$$QEAV01@@Z 0000000140219750 f i Character.obj
 0002:001567e0       ??4XMFLOAT4X4@DirectX@@QEAAAEAU01@AEBU01@@Z 00000001402197e0 f i Character.obj
 0002:00156960       ??8?$_List_const_iterator@V?$_List_val@U?$_List_simple_types@PEAVCEnemy@Client@@@std@@@std@@@std@@QEBA_NAEBV01@@Z 0000000140219960 f i Character.obj
 0002:00156ae0       ??9?$_List_const_iterator@V?$_List_val@U?$_List_simple_types@PEAVCEnemy@Client@@@std@@@std@@@std@@QEBA_NAEBV01@@Z 0000000140219ae0 f i Character.obj
 0002:00156b70       ??D?$_List_const_iterator@V?$_List_val@U?$_List_simple_types@PEAVCEnemy@Client@@@std@@@std@@@std@@QEBAAEBQEAVCEnemy@Client@@XZ 0000000140219b70 f i Character.obj
 0002:00156cd0       ??D?$_List_iterator@V?$_List_val@U?$_List_simple_types@PEAVCEnemy@Client@@@std@@@std@@@std@@QEBAAEAPEAVCEnemy@Client@@XZ 0000000140219cd0 f i Character.obj
 0002:00156d20       ??E?$_List_const_iterator@V?$_List_val@U?$_List_simple_types@PEAVCEnemy@Client@@@std@@@std@@@std@@QEAA?AV01@H@Z 0000000140219d20 f i Character.obj
 0002:00156e40       ??E?$_List_const_iterator@V?$_List_val@U?$_List_simple_types@PEAVCEnemy@Client@@@std@@@std@@@std@@QEAAAEAV01@XZ 0000000140219e40 f i Character.obj
 0002:00156fc0       ??E?$_List_iterator@V?$_List_val@U?$_List_simple_types@PEAVCEnemy@Client@@@std@@@std@@@std@@QEAAAEAV01@XZ 0000000140219fc0 f i Character.obj
 0002:00157020       ??_GCCharacter@Client@@EEAAPEAXI@Z 000000014021a020 f i Character.obj
 0002:00157020       ??_ECCharacter@Client@@EEAAPEAXI@Z 000000014021a020 f i Character.obj
 0002:001570b0       ?AddComponents@CCharacter@Client@@AEAAJXZ 000000014021a0b0 f   Character.obj
 0002:00157c70       ?AddWeapon@CCharacter@Client@@AEAAJXZ 000000014021ac70 f   Character.obj
 0002:00157de0       ?AnimationCompare@CCharacter@Client@@AEAA_NW4CLIP@12@@Z 000000014021ade0 f   Character.obj
 0002:00157e70       ?AnimationControl@CCharacter@Client@@AEAAXN@Z 000000014021ae70 f   Character.obj
 0002:001581e0       ?Attack@CCharacter@Client@@AEAAXN@Z 000000014021b1e0 f   Character.obj
 0002:00158a20       ?BackwardRotaion@CCharacter@Client@@AEAAXN@Z 000000014021ba20 f   Character.obj
 0002:00158d70       ?CameraSocketUpdate@CCharacter@Client@@AEAAXXZ 000000014021bd70 f   Character.obj
 0002:00159090       ?Clone@CCharacter@Client@@UEAAPEAVCGameObject@Engine@@PEAX@Z 000000014021c090 f   Character.obj
 0002:00159200       ?Create@CCharacter@Client@@SAPEAV12@PEAUID3D11Device@@PEAUID3D11DeviceContext@@@Z 000000014021c200 f   Character.obj
 0002:00159370       ?Dash@CCharacter@Client@@AEAAXN@Z 000000014021c370 f   Character.obj
 0002:00159c60       ?DeleteTargetFromList@CCharacter@Client@@QEAAXPEAVCGameObject@Engine@@@Z 000000014021cc60 f   Character.obj
 0002:00159ed0       ?FindNearTarget@CCharacter@Client@@QEAAXXZ 000000014021ced0 f   Character.obj
 0002:0015a190       ?FindTargetFromList@CCharacter@Client@@QEAA_NPEAVCGameObject@Engine@@@Z 000000014021d190 f   Character.obj
 0002:0015a330       ?FinishCheckPlay@CCharacter@Client@@AEAA_NW4CLIP@12@W4TYPE@CAnimation@Engine@@@Z 000000014021d330 f   Character.obj
 0002:0015a3d0       ?ForwardRotaion@CCharacter@Client@@AEAAXN@Z 000000014021d3d0 f   Character.obj
 0002:0015a710       ?Free@CCharacter@Client@@UEAAXXZ 000000014021d710 f   Character.obj
 0002:0015a890       ?Freeze@CCharacter@Client@@QEAANN@Z 000000014021d890 f   Character.obj
 0002:0015ac50       ?GetBodyCollider@CEnemy@Client@@QEAAPEAVCCollider@Engine@@XZ 000000014021dc50 f i Character.obj
 0002:0015aca0       ?GetBone@CCharacter@Client@@QEBAPEBVCBone@Engine@@PEBD@Z 000000014021dca0 f   Character.obj
 0002:0015ad10       ?GetDamage@CCharacter@Client@@QEAAMXZ 000000014021dd10 f   Character.obj
 0002:0015aeb0       ?GetHpState@CEnemy@Client@@QEBA?AUtagEnemyState@12@XZ 000000014021deb0 f i Character.obj
 0002:0015af20       ?GetWeaponCollider@CEnemy@Client@@QEAAPEAVCCollider@Engine@@XZ 000000014021df20 f i Character.obj
 0002:0015af70       ?Hit@CCharacter@Client@@QEAAXXZ 000000014021df70 f   Character.obj
 0002:0015b250       ?HoldEnemy@CCharacter@Client@@QEAAXXZ 000000014021e250 f   Character.obj
 0002:0015b490       ?Idle@CCharacter@Client@@AEAAXXZ 000000014021e490 f   Character.obj
 0002:0015b4f0       ?Initialize@CCharacter@Client@@UEAAJPEAX@Z 000000014021e4f0 f   Character.obj
 0002:0015b6f0       ?Initialize_Prototype@CCharacter@Client@@UEAAJXZ 000000014021e6f0 f   Character.obj
 0002:0015b7b0       ?InputMove@CCharacter@Client@@AEAAXN@Z 000000014021e7b0 f   Character.obj
 0002:0015bcc0       ?IsDeadWait@CEnemy@Client@@QEBA_NXZ 000000014021ecc0 f i Character.obj
 0002:0015bd10       ?KeyInput@CCharacter@Client@@AEAAXN@Z 000000014021ed10 f   Character.obj
 0002:0015caa0       ?LateTick@CCharacter@Client@@UEAAXN@Z 000000014021faa0 f   Character.obj
 0002:0015d3a0       ?LeftRotation@CCharacter@Client@@AEAAXN@Z 00000001402203a0 f   Character.obj
 0002:0015d6d0       ?LockOnCameraPosition@CCharacter@Client@@QEAA?AUXMFLOAT3@DirectX@@XZ 00000001402206d0 f   Character.obj
 0002:0015d920       ?MoveStop@CCharacter@Client@@AEAAXN@Z 0000000140220920 f   Character.obj
 0002:0015da00       ?Movement@CCharacter@Client@@AEAAXN@Z 0000000140220a00 f   Character.obj
 0002:0015dbb0       ?NearTargetChange@CCharacter@Client@@QEAAXXZ 0000000140220bb0 f   Character.obj
 0002:0015e020       ?OnCollisionEnter@CCharacter@Client@@UEAAXPEAVCCollider@Engine@@0@Z 0000000140221020 f   Character.obj
 0002:0015e4c0       ?OnCollisionExit@CCharacter@Client@@UEAAXPEAVCCollider@Engine@@0@Z 00000001402214c0 f   Character.obj
 0002:0015e6f0       ?OnCollisionStay@CCharacter@Client@@UEAAXPEAVCCollider@Engine@@0@Z 00000001402216f0 f   Character.obj
 0002:0015edd0       ?PositionHold@CCharacter@Client@@AEAAXN@Z 0000000140221dd0 f   Character.obj
 0002:0015ee20       ?RecvDamage@CCharacter@Client@@QEAAXM@Z 0000000140221e20 f   Character.obj
 0002:0015eec0       ?Render@CCharacter@Client@@UEAAJXZ 0000000140221ec0 f   Character.obj
 0002:0015f0b0       ?RenderEnemyHealth@CCharacter@Client@@QEAAXN@Z 00000001402220b0 f   Character.obj
 0002:0015f280       ?RenderGUI@CCharacter@Client@@UEAAXXZ 0000000140222280 f   Character.obj
 0002:0015f2c0       ?RightRotation@CCharacter@Client@@AEAAXN@Z 00000001402222c0 f   Character.obj
 0002:0015f610       ?SavePrevPos@CCharacter@Client@@QEAAXXZ 0000000140222610 f   Character.obj
 0002:0015f710       ?SetAnimation@CCharacter@Client@@AEAAXW4CLIP@12@W4TYPE@CAnimation@Engine@@@Z 0000000140222710 f   Character.obj
 0002:0015f790       ?SetFreeze@CApplicationManager@Client@@QEAAX_N@Z 0000000140222790 f i Character.obj
 0002:0015f7f0       ?SetHold@CEnemy@Client@@QEAAX_N@Z 00000001402227f0 f i Character.obj
 0002:0015f850       ?SetPlayerPrevPosition@CApplicationManager@Client@@QEAAXUXMFLOAT3@DirectX@@@Z 0000000140222850 f i Character.obj
 0002:0015f8c0       ?SetRender@CEnemyHealthBar@Client@@QEAAX_N@Z 00000001402228c0 f i Character.obj
 0002:0015f920       ?SetupShaderResources@CCharacter@Client@@AEAAJXZ 0000000140222920 f   Character.obj
 0002:0015fc10       ?SkillA@CCharacter@Client@@AEAAXN@Z 0000000140222c10 f   Character.obj
 0002:0015fd00       ?SkillB@CCharacter@Client@@AEAAXN@Z 0000000140222d00 f   Character.obj
 0002:0015fde0       ?SkillC@CCharacter@Client@@AEAAXN@Z 0000000140222de0 f   Character.obj
 0002:0015ff40       ?SkillColliderControl@CCharacter@Client@@AEAAXN@Z 0000000140222f40 f   Character.obj
 0002:00160480       ?TargetListDeastroyCehck@CCharacter@Client@@QEAAXXZ 0000000140223480 f   Character.obj
 0002:00160750       ?Tick@CCharacter@Client@@UEAAXN@Z 0000000140223750 f   Character.obj
 0002:00160a60       ?XMConvertToRadians@DirectX@@YAMM@Z 0000000140223a60 f i Character.obj
 0002:00160ab0       ?XMVectorSetY@DirectX@@YQ?AT__m128@@T2@M@Z 0000000140223ab0 f i Character.obj
 0002:00160ba0       ?_Adopt@_Iterator_base0@std@@QEAAXPEBX@Z 0000000140223ba0 f i Character.obj
 0002:00160bf0       ?_Alloc_proxy@?$_List_alloc@U?$_List_base_types@PEAVCEnemy@Client@@V?$allocator@PEAVCEnemy@Client@@@std@@@std@@@std@@QEAAXXZ 0000000140223bf0 f i Character.obj
 0002:00160d50       ?_Alloc_proxy@?$_Vector_alloc@U?$_Vec_base_types@UtagOverlapInfo@CCharacter@Client@@V?$allocator@UtagOverlapInfo@CCharacter@Client@@@std@@@std@@@std@@QEAAXXZ 0000000140223d50 f i Character.obj
 0002:00160eb0       ?_Buyheadnode@?$_List_alloc@U?$_List_base_types@PEAVCEnemy@Client@@V?$allocator@PEAVCEnemy@Client@@@std@@@std@@@std@@QEAAPEAU?$_List_node@PEAVCEnemy@Client@@PEAX@2@XZ 0000000140223eb0 f i Character.obj
 0002:00160f10       ?_Buynode0@?$_List_alloc@U?$_List_base_types@PEAVCEnemy@Client@@V?$allocator@PEAVCEnemy@Client@@@std@@@std@@@std@@QEAAPEAU?$_List_node@PEAVCEnemy@Client@@PEAX@2@PEAU32@0@Z 0000000140223f10 f i Character.obj
 0002:00161080       ?_Destroy@?$vector@UtagOverlapInfo@CCharacter@Client@@V?$allocator@UtagOverlapInfo@CCharacter@Client@@@std@@@std@@IEAAXPEAUtagOverlapInfo@CCharacter@Client@@0@Z 0000000140224080 f i Character.obj
 0002:00161100       ?_Free_proxy@?$_List_alloc@U?$_List_base_types@PEAVCEnemy@Client@@V?$allocator@PEAVCEnemy@Client@@@std@@@std@@@std@@QEAAXXZ 0000000140224100 f i Character.obj
 0002:00161220       ?_Free_proxy@?$_Vector_alloc@U?$_Vec_base_types@UtagOverlapInfo@CCharacter@Client@@V?$allocator@UtagOverlapInfo@CCharacter@Client@@@std@@@std@@@std@@QEAAXXZ 0000000140224220 f i Character.obj
 0002:00161340       ?_Freeheadnode@?$_List_alloc@U?$_List_base_types@PEAVCEnemy@Client@@V?$allocator@PEAVCEnemy@Client@@@std@@@std@@@std@@QEAAXPEAU?$_List_node@PEAVCEnemy@Client@@PEAX@2@@Z 0000000140224340 f i Character.obj
 0002:00161440       ?_Freenode@?$_List_buy@PEAVCEnemy@Client@@V?$allocator@PEAVCEnemy@Client@@@std@@@std@@QEAAXPEAU?$_List_node@PEAVCEnemy@Client@@PEAX@2@@Z 0000000140224440 f i Character.obj
 0002:00161590       ?_Get_data@?$_List_alloc@U?$_List_base_types@PEAVCEnemy@Client@@V?$allocator@PEAVCEnemy@Client@@@std@@@std@@@std@@QEAAAEAV?$_List_val@U?$_List_simple_types@PEAVCEnemy@Client@@@std@@@2@XZ 0000000140224590 f i Character.obj
 0002:001615f0       ?_Get_data@?$_List_alloc@U?$_List_base_types@PEAVCEnemy@Client@@V?$allocator@PEAVCEnemy@Client@@@std@@@std@@@std@@QEBAAEBV?$_List_val@U?$_List_simple_types@PEAVCEnemy@Client@@@std@@@2@XZ 00000001402245f0 f i Character.obj
 0002:00161650       ?_Get_data@?$_Vector_alloc@U?$_Vec_base_types@UtagOverlapInfo@CCharacter@Client@@V?$allocator@UtagOverlapInfo@CCharacter@Client@@@std@@@std@@@std@@QEAAAEAV?$_Vector_val@U?$_Simple_types@UtagOverlapInfo@CCharacter@Client@@@std@@@2@XZ 0000000140224650 f i Character.obj
 0002:001616b0       ?_Get_first@?$_Compressed_pair@U?$_Wrap_alloc@V?$allocator@U?$_List_node@PEAVCEnemy@Client@@PEAX@std@@@std@@@std@@V?$_List_val@U?$_List_simple_types@PEAVCEnemy@Client@@@std@@@2@$00@std@@QEAAAEAU?$_Wrap_alloc@V?$allocator@U?$_List_node@PEAVCEnemy@Client@@PEAX@std@@@std@@@2@XZ 00000001402246b0 f i Character.obj
 0002:00161700       ?_Get_first@?$_Compressed_pair@U?$_Wrap_alloc@V?$allocator@U?$_List_node@PEAVCEnemy@Client@@PEAX@std@@@std@@@std@@V?$_List_val@U?$_List_simple_types@PEAVCEnemy@Client@@@std@@@2@$00@std@@QEBAAEBU?$_Wrap_alloc@V?$allocator@U?$_List_node@PEAVCEnemy@Client@@PEAX@std@@@std@@@2@XZ 0000000140224700 f i Character.obj
 0002:00161750       ?_Get_first@?$_Compressed_pair@U?$_Wrap_alloc@V?$allocator@UtagOverlapInfo@CCharacter@Client@@@std@@@std@@V?$_Vector_val@U?$_Simple_types@UtagOverlapInfo@CCharacter@Client@@@std@@@2@$00@std@@QEAAAEAU?$_Wrap_alloc@V?$allocator@UtagOverlapInfo@CCharacter@Client@@@std@@@2@XZ 0000000140224750 f i Character.obj
 0002:001617a0       ?_Get_second@?$_Compressed_pair@U?$_Wrap_alloc@V?$allocator@U?$_List_node@PEAVCEnemy@Client@@PEAX@std@@@std@@@std@@V?$_List_val@U?$_List_simple_types@PEAVCEnemy@Client@@@std@@@2@$00@std@@QEAAAEAV?$_List_val@U?$_List_simple_types@PEAVCEnemy@Client@@@std@@@2@XZ 00000001402247a0 f i Character.obj
 0002:001617f0       ?_Get_second@?$_Compressed_pair@U?$_Wrap_alloc@V?$allocator@U?$_List_node@PEAVCEnemy@Client@@PEAX@std@@@std@@@std@@V?$_List_val@U?$_List_simple_types@PEAVCEnemy@Client@@@std@@@2@$00@std@@QEBAAEBV?$_List_val@U?$_List_simple_types@PEAVCEnemy@Client@@@std@@@2@XZ 00000001402247f0 f i Character.obj
 0002:00161840       ?_Get_second@?$_Compressed_pair@U?$_Wrap_alloc@V?$allocator@UtagOverlapInfo@CCharacter@Client@@@std@@@std@@V?$_Vector_val@U?$_Simple_types@UtagOverlapInfo@CCharacter@Client@@@std@@@2@$00@std@@QEAAAEAV?$_Vector_val@U?$_Simple_types@UtagOverlapInfo@CCharacter@Client@@@std@@@2@XZ 0000000140224840 f i Character.obj
 0002:00161890       ?_Getal@?$_List_alloc@U?$_List_base_types@PEAVCEnemy@Client@@V?$allocator@PEAVCEnemy@Client@@@std@@@std@@@std@@QEAAAEAU?$_Wrap_alloc@V?$allocator@U?$_List_node@PEAVCEnemy@Client@@PEAX@std@@@std@@@2@XZ 0000000140224890 f i Character.obj
 0002:001618f0       ?_Getal@?$_List_alloc@U?$_List_base_types@PEAVCEnemy@Client@@V?$allocator@PEAVCEnemy@Client@@@std@@@std@@@std@@QEBAAEBU?$_Wrap_alloc@V?$allocator@U?$_List_node@PEAVCEnemy@Client@@PEAX@std@@@std@@@2@XZ 00000001402248f0 f i Character.obj
 0002:00161950       ?_Getal@?$_Vector_alloc@U?$_Vec_base_types@UtagOverlapInfo@CCharacter@Client@@V?$allocator@UtagOverlapInfo@CCharacter@Client@@@std@@@std@@@std@@QEAAAEAU?$_Wrap_alloc@V?$allocator@UtagOverlapInfo@CCharacter@Client@@@std@@@2@XZ 0000000140224950 f i Character.obj
 0002:001619b0       ?_Getpfirst@?$_List_alloc@U?$_List_base_types@PEAVCEnemy@Client@@V?$allocator@PEAVCEnemy@Client@@@std@@@std@@@std@@QEBAPEAPEAU_Iterator_base12@2@XZ 00000001402249b0 f i Character.obj
 0002:00161a10       ?_Incsize@?$list@PEAVCEnemy@Client@@V?$allocator@PEAVCEnemy@Client@@@std@@@std@@QEAAX_K@Z 0000000140224a10 f i Character.obj
 0002:00161af0       ?_Make_iter@?$list@PEAVCEnemy@Client@@V?$allocator@PEAVCEnemy@Client@@@std@@@std@@QEBA?AV?$_List_iterator@V?$_List_val@U?$_List_simple_types@PEAVCEnemy@Client@@@std@@@std@@@2@V?$_List_const_iterator@V?$_List_val@U?$_List_simple_types@PEAVCEnemy@Client@@@std@@@std@@@2@@Z 0000000140224af0 f i Character.obj
 0002:00161ba0       ?_Myend@?$_Vector_alloc@U?$_Vec_base_types@UtagOverlapInfo@CCharacter@Client@@V?$allocator@UtagOverlapInfo@CCharacter@Client@@@std@@@std@@@std@@QEAAAEAPEAUtagOverlapInfo@CCharacter@Client@@XZ 0000000140224ba0 f i Character.obj
 0002:00161c00       ?_Myfirst@?$_Vector_alloc@U?$_Vec_base_types@UtagOverlapInfo@CCharacter@Client@@V?$allocator@UtagOverlapInfo@CCharacter@Client@@@std@@@std@@@std@@QEAAAEAPEAUtagOverlapInfo@CCharacter@Client@@XZ 0000000140224c00 f i Character.obj
 0002:00161c60       ?_Myhead@?$_List_alloc@U?$_List_base_types@PEAVCEnemy@Client@@V?$allocator@PEAVCEnemy@Client@@@std@@@std@@@std@@QEAAAEAPEAU?$_List_node@PEAVCEnemy@Client@@PEAX@2@XZ 0000000140224c60 f i Character.obj
 0002:00161cc0       ?_Mylast@?$_Vector_alloc@U?$_Vec_base_types@UtagOverlapInfo@CCharacter@Client@@V?$allocator@UtagOverlapInfo@CCharacter@Client@@@std@@@std@@@std@@QEAAAEAPEAUtagOverlapInfo@CCharacter@Client@@XZ 0000000140224cc0 f i Character.obj
 0002:00161d20       ?_Mynode@?$_List_unchecked_const_iterator@V?$_List_val@U?$_List_simple_types@PEAVCEnemy@Client@@@std@@@std@@U_Iterator_base0@2@@std@@QEBAPEAU?$_List_node@PEAVCEnemy@Client@@PEAX@2@XZ 0000000140224d20 f i Character.obj
 0002:00161d70       ?_Mynode@?$_List_unchecked_const_iterator@V?$_List_val@U?$_List_simple_types@PEAVCEnemy@Client@@@std@@@std@@U_Iterator_base12@2@@std@@QEBAPEAU?$_List_node@PEAVCEnemy@Client@@PEAX@2@XZ 0000000140224d70 f i Character.obj
 0002:00161dc0       ?_Myproxy@?$_List_alloc@U?$_List_base_types@PEAVCEnemy@Client@@V?$allocator@PEAVCEnemy@Client@@@std@@@std@@@std@@QEAAAEAPEAU_Container_proxy@2@XZ 0000000140224dc0 f i Character.obj
 0002:00161e10       ?_Myproxy@?$_Vector_alloc@U?$_Vec_base_types@UtagOverlapInfo@CCharacter@Client@@V?$allocator@UtagOverlapInfo@CCharacter@Client@@@std@@@std@@@std@@QEAAAEAPEAU_Container_proxy@2@XZ 0000000140224e10 f i Character.obj
 0002:00161e60       ?_Mysize@?$_List_alloc@U?$_List_base_types@PEAVCEnemy@Client@@V?$allocator@PEAVCEnemy@Client@@@std@@@std@@@std@@QEAAAEA_KXZ 0000000140224e60 f i Character.obj
 0002:00161ec0       ?_Mysize@?$_List_alloc@U?$_List_base_types@PEAVCEnemy@Client@@V?$allocator@PEAVCEnemy@Client@@@std@@@std@@@std@@QEBAAEB_KXZ 0000000140224ec0 f i Character.obj
 0002:00161f20       ?_Myval@?$_List_alloc@U?$_List_base_types@PEAVCEnemy@Client@@V?$allocator@PEAVCEnemy@Client@@@std@@@std@@@std@@SAAEAPEAVCEnemy@Client@@PEAU?$_List_node@PEAVCEnemy@Client@@PEAX@2@@Z 0000000140224f20 f i Character.obj
 0002:00161f70       ?_Myval@?$_List_val@U?$_List_simple_types@PEAVCEnemy@Client@@@std@@@std@@SAAEAPEAVCEnemy@Client@@PEAU?$_List_node@PEAVCEnemy@Client@@PEAX@2@@Z 0000000140224f70 f i Character.obj
 0002:00161fc0       ?_Nextnode@?$_List_alloc@U?$_List_base_types@PEAVCEnemy@Client@@V?$allocator@PEAVCEnemy@Client@@@std@@@std@@@std@@SAAEAPEAU?$_List_node@PEAVCEnemy@Client@@PEAX@2@PEAU32@@Z 0000000140224fc0 f i Character.obj
 0002:00162010       ?_Nextnode@?$_List_val@U?$_List_simple_types@PEAVCEnemy@Client@@@std@@@std@@SAAEAPEAU?$_List_node@PEAVCEnemy@Client@@PEAX@2@PEAU32@@Z 0000000140225010 f i Character.obj
 0002:00162060       ?_Orphan_all@?$_List_alloc@U?$_List_base_types@PEAVCEnemy@Client@@V?$allocator@PEAVCEnemy@Client@@@std@@@std@@@std@@QEAAXXZ 0000000140225060 f i Character.obj
 0002:001620c0       ?_Orphan_all@?$_Vector_alloc@U?$_Vec_base_types@UtagOverlapInfo@CCharacter@Client@@V?$allocator@UtagOverlapInfo@CCharacter@Client@@@std@@@std@@@std@@QEAAXXZ 00000001402250c0 f i Character.obj
 0002:00162120       ?_Orphan_ptr@?$list@PEAVCEnemy@Client@@V?$allocator@PEAVCEnemy@Client@@@std@@@std@@QEAAXPEAU?$_List_node@PEAVCEnemy@Client@@PEAX@2@@Z 0000000140225120 f i Character.obj
 0002:001622b0       ?_Prevnode@?$_List_alloc@U?$_List_base_types@PEAVCEnemy@Client@@V?$allocator@PEAVCEnemy@Client@@@std@@@std@@@std@@SAAEAPEAU?$_List_node@PEAVCEnemy@Client@@PEAX@2@PEAU32@@Z 00000001402252b0 f i Character.obj
 0002:00162300       ?_Prevnode@?$_List_val@U?$_List_simple_types@PEAVCEnemy@Client@@@std@@@std@@SAAEAPEAU?$_List_node@PEAVCEnemy@Client@@PEAX@2@PEAU32@@Z 0000000140225300 f i Character.obj
 0002:00162350       ?_Tidy@?$list@PEAVCEnemy@Client@@V?$allocator@PEAVCEnemy@Client@@@std@@@std@@QEAAXXZ 0000000140225350 f i Character.obj
 0002:001623a0       ?_Tidy@?$vector@UtagOverlapInfo@CCharacter@Client@@V?$allocator@UtagOverlapInfo@CCharacter@Client@@@std@@@std@@IEAAXXZ 00000001402253a0 f i Character.obj
 0002:00162530       ?_Unchecked_end@?$list@PEAVCEnemy@Client@@V?$allocator@PEAVCEnemy@Client@@@std@@@std@@QEAA?AV?$_List_unchecked_iterator@V?$_List_val@U?$_List_simple_types@PEAVCEnemy@Client@@@std@@@std@@@2@XZ 0000000140225530 f i Character.obj
 0002:001625d0       ?_Unlinknode@?$list@PEAVCEnemy@Client@@V?$allocator@PEAVCEnemy@Client@@@std@@@std@@QEAAPEAU?$_List_node@PEAVCEnemy@Client@@PEAX@2@V?$_List_const_iterator@V?$_List_val@U?$_List_simple_types@PEAVCEnemy@Client@@@std@@@std@@@2@@Z 00000001402255d0 f i Character.obj
 0002:001627a0       ?__autoclassinit2@?$_List_const_iterator@V?$_List_val@U?$_List_simple_types@PEAVCEnemy@Client@@@std@@@std@@@std@@QEAAX_K@Z 00000001402257a0 f i Character.obj
 0002:00162800       ?__autoclassinit2@?$_List_iterator@V?$_List_val@U?$_List_simple_types@PEAVCEnemy@Client@@@std@@@std@@@std@@QEAAX_K@Z 0000000140225800 f i Character.obj
 0002:00162860       ?allocate@?$_Wrap_alloc@V?$allocator@U?$_List_node@PEAVCEnemy@Client@@PEAX@std@@@std@@@std@@QEAAPEAU?$_List_node@PEAVCEnemy@Client@@PEAX@2@_K@Z 0000000140225860 f i Character.obj
 0002:001628c0       ?allocate@?$allocator@U?$_List_node@PEAVCEnemy@Client@@PEAX@std@@@std@@QEAAPEAU?$_List_node@PEAVCEnemy@Client@@PEAX@2@_K@Z 00000001402258c0 f i Character.obj
 0002:00162920       ?begin@?$list@PEAVCEnemy@Client@@V?$allocator@PEAVCEnemy@Client@@@std@@@std@@QEAA?AV?$_List_iterator@V?$_List_val@U?$_List_simple_types@PEAVCEnemy@Client@@@std@@@std@@@2@XZ 0000000140225920 f i Character.obj
 0002:001629e0       ?clear@?$list@PEAVCEnemy@Client@@V?$allocator@PEAVCEnemy@Client@@@std@@@std@@QEAAXXZ 00000001402259e0 f i Character.obj
 0002:00162b60       ?deallocate@?$_Wrap_alloc@V?$allocator@U?$_List_node@PEAVCEnemy@Client@@PEAX@std@@@std@@@std@@QEAAXPEAU?$_List_node@PEAVCEnemy@Client@@PEAX@2@_K@Z 0000000140225b60 f i Character.obj
 0002:00162bd0       ?deallocate@?$_Wrap_alloc@V?$allocator@UtagOverlapInfo@CCharacter@Client@@@std@@@std@@QEAAXPEAUtagOverlapInfo@CCharacter@Client@@_K@Z 0000000140225bd0 f i Character.obj
 0002:00162c40       ?deallocate@?$allocator@U?$_List_node@PEAVCEnemy@Client@@PEAX@std@@@std@@QEAAXPEAU?$_List_node@PEAVCEnemy@Client@@PEAX@2@_K@Z 0000000140225c40 f i Character.obj
 0002:00162cb0       ?deallocate@?$allocator@UtagOverlapInfo@CCharacter@Client@@@std@@QEAAXPEAUtagOverlapInfo@CCharacter@Client@@_K@Z 0000000140225cb0 f i Character.obj
 0002:00162d20       ?empty@?$list@PEAVCEnemy@Client@@V?$allocator@PEAVCEnemy@Client@@@std@@@std@@QEBA_NXZ 0000000140225d20 f i Character.obj
 0002:00162da0       ?end@?$list@PEAVCEnemy@Client@@V?$allocator@PEAVCEnemy@Client@@@std@@@std@@QEAA?AV?$_List_iterator@V?$_List_val@U?$_List_simple_types@PEAVCEnemy@Client@@@std@@@std@@@2@XZ 0000000140225da0 f i Character.obj
 0002:00162e50       ?erase@?$list@PEAVCEnemy@Client@@V?$allocator@PEAVCEnemy@Client@@@std@@@std@@QEAA?AV?$_List_iterator@V?$_List_val@U?$_List_simple_types@PEAVCEnemy@Client@@@std@@@std@@@2@V?$_List_const_iterator@V?$_List_val@U?$_List_simple_types@PEAVCEnemy@Client@@@std@@@std@@@2@@Z 0000000140225e50 f i Character.obj
 0002:00162fa0       ?max_size@?$_Wrap_alloc@V?$allocator@U?$_List_node@PEAVCEnemy@Client@@PEAX@std@@@std@@@std@@QEBA_KU_Nil@2@@Z 0000000140225fa0 f i Character.obj
 0002:00163000       ?max_size@?$allocator@U?$_List_node@PEAVCEnemy@Client@@PEAX@std@@@std@@QEBA_KXZ 0000000140226000 f i Character.obj
 0002:00163050       ?max_size@?$allocator_traits@V?$allocator@U?$_List_node@PEAVCEnemy@Client@@PEAX@std@@@std@@@std@@SA_KAEBV?$allocator@U?$_List_node@PEAVCEnemy@Client@@PEAX@std@@@2@@Z 0000000140226050 f i Character.obj
 0002:001630a0       ?max_size@?$list@PEAVCEnemy@Client@@V?$allocator@PEAVCEnemy@Client@@@std@@@std@@QEBA_KXZ 00000001402260a0 f i Character.obj
 0002:00163110       ?push_back@?$list@PEAVCEnemy@Client@@V?$allocator@PEAVCEnemy@Client@@@std@@@std@@QEAAXAEBQEAVCEnemy@Client@@@Z 0000000140226110 f i Character.obj
 0002:001631a0       ?size@?$list@PEAVCEnemy@Client@@V?$allocator@PEAVCEnemy@Client@@@std@@@std@@QEBA_KXZ 00000001402261a0 f i Character.obj
 0002:00163200       ??$Safe_Release@PEAVCLevel_BossRoom@Client@@@Engine@@YAKAEAPEAVCLevel_BossRoom@Client@@@Z 0000000140226200 f i Level_BossRoom.obj
 0002:00163290       ??0CLevel_BossRoom@Client@@AEAA@PEAUID3D11Device@@PEAUID3D11DeviceContext@@@Z 0000000140226290 f   Level_BossRoom.obj
 0002:00163330       ??0tagCameraDesc@CCamera@Engine@@QEAA@XZ 0000000140226330 f i Level_BossRoom.obj
 0002:001633d0       ??0tagLight_Desc@Engine@@QEAA@XZ 00000001402263d0 f i Level_BossRoom.obj
 0002:001634a0       ??1CLevel_BossRoom@Client@@EEAA@XZ 00000001402264a0 f i Level_BossRoom.obj
 0002:00163500       ??4XMFLOAT4@DirectX@@QEAAAEAU01@AEBU01@@Z 0000000140226500 f i Level_BossRoom.obj
 0002:001635d0       ??_GCLevel_BossRoom@Client@@EEAAPEAXI@Z 00000001402265d0 f i Level_BossRoom.obj
 0002:001635d0       ??_ECLevel_BossRoom@Client@@EEAAPEAXI@Z 00000001402265d0 f i Level_BossRoom.obj
 0002:00163660       ?Create@CLevel_BossRoom@Client@@SAPEAV12@PEAUID3D11Device@@PEAUID3D11DeviceContext@@@Z 0000000140226660 f   Level_BossRoom.obj
 0002:00163800       ?Free@CLevel_BossRoom@Client@@UEAAXXZ 0000000140226800 f   Level_BossRoom.obj
 0002:00163860       ?Initialize@CLevel_BossRoom@Client@@UEAAJXZ 0000000140226860 f   Level_BossRoom.obj
 0002:00163960       ?Ready_Layer_BackGround@CLevel_BossRoom@Client@@AEAAJPEB_W@Z 0000000140226960 f   Level_BossRoom.obj
 0002:00163a40       ?Ready_Layer_Camera@CLevel_BossRoom@Client@@AEAAJPEB_W@Z 0000000140226a40 f   Level_BossRoom.obj
 0002:00163cd0       ?Ready_Layer_Enemy@CLevel_BossRoom@Client@@AEAAJPEB_W@Z 0000000140226cd0 f   Level_BossRoom.obj
 0002:00163dc0       ?Ready_Layer_Player@CLevel_BossRoom@Client@@AEAAJPEB_W@Z 0000000140226dc0 f   Level_BossRoom.obj
 0002:00163ea0       ?Ready_Light@CLevel_BossRoom@Client@@AEAAJXZ 0000000140226ea0 f   Level_BossRoom.obj
 0002:00164110       ?Tick@CLevel_BossRoom@Client@@UEAAXN@Z 0000000140227110 f   Level_BossRoom.obj
 0002:001641b0       ??$?0$$V@?$_Compressed_pair@U?$_Wrap_alloc@V?$allocator@UtagCubeDesc@CWall@Client@@@std@@@std@@V?$_Vector_val@U?$_Simple_types@UtagCubeDesc@CWall@Client@@@std@@@2@$00@std@@QEAA@U_Zero_then_variadic_args_t@1@@Z 00000001402271b0 f i Level_GamePlay.obj
 0002:00164220       ??$?0AEAU?$_Wrap_alloc@V?$allocator@UtagCubeDesc@CWall@Client@@@std@@@std@@@?$_Wrap_alloc@V?$allocator@U_Container_proxy@std@@@std@@@std@@QEAA@AEAU?$_Wrap_alloc@V?$allocator@UtagCubeDesc@CWall@Client@@@std@@@1@@Z 0000000140227220 f i Level_GamePlay.obj
 0002:001642a0       ??$?0U?$_Wrap_alloc@V?$allocator@_W@std@@@std@@$$V@?$_Compressed_pair@U?$_Wrap_alloc@V?$allocator@_W@std@@@std@@V?$_String_val@U?$_Simple_types@_W@std@@@2@$00@std@@QEAA@U_One_then_variadic_args_t@1@$$QEAU?$_Wrap_alloc@V?$allocator@_W@std@@@1@@Z 00000001402272a0 f i Level_GamePlay.obj
 0002:00164330       ??$?0U?$_Wrap_alloc@V?$allocator@_W@std@@@std@@X@?$_String_alloc@U?$_String_base_types@_WV?$allocator@_W@std@@@std@@@std@@QEAA@$$QEAU?$_Wrap_alloc@V?$allocator@_W@std@@@1@@Z 0000000140227330 f i Level_GamePlay.obj
 0002:001643d0       ??$?0U?$integral_constant@_N$00@std@@@_Any_tag@std@@QEAA@$$QEAU?$integral_constant@_N$00@1@@Z 00000001402273d0 f i Level_GamePlay.obj
 0002:00164420       ??$?0UtagCubeDesc@CWall@Client@@@?$allocator@U_Container_proxy@std@@@std@@QEAA@AEBV?$allocator@UtagCubeDesc@CWall@Client@@@1@@Z 0000000140227420 f i Level_GamePlay.obj
 0002:00164470       ??$?H_WU?$char_traits@_W@std@@V?$allocator@_W@1@@std@@YA?AV?$basic_string@_WU?$char_traits@_W@std@@V?$allocator@_W@2@@0@PEB_W$$QEAV10@@Z 0000000140227470 f i Level_GamePlay.obj
 0002:00164520       ??$Safe_Release@PEAVCLevel_GamePlay@Client@@@Engine@@YAKAEAPEAVCLevel_GamePlay@Client@@@Z 0000000140227520 f i Level_GamePlay.obj
 0002:001645b0       ??$_Destroy_range1@V?$allocator@UtagCubeDesc@CWall@Client@@@std@@PEAUtagCubeDesc@CWall@Client@@@std@@YAXPEAUtagCubeDesc@CWall@Client@@0AEAU?$_Wrap_alloc@V?$allocator@UtagCubeDesc@CWall@Client@@@std@@@0@U?$integral_constant@_N$00@0@@Z 00000001402275b0 f i Level_GamePlay.obj
 0002:00164610       ??$_Destroy_range@V?$allocator@UtagCubeDesc@CWall@Client@@@std@@PEAUtagCubeDesc@CWall@Client@@@std@@YAXPEAUtagCubeDesc@CWall@Client@@0AEAU?$_Wrap_alloc@V?$allocator@UtagCubeDesc@CWall@Client@@@std@@@0@@Z 0000000140227610 f i Level_GamePlay.obj
 0002:00164690       ??$_Ptr_move_cat@UtagCubeDesc@CWall@Client@@U123@@std@@YA?AU_General_ptr_iterator_tag@0@AEBQEAUtagCubeDesc@CWall@Client@@0@Z 0000000140227690 f i Level_GamePlay.obj
 0002:00164700       ??$_Rechecked@PEAUtagCubeDesc@CWall@Client@@PEAU123@@std@@YAAEAPEAUtagCubeDesc@CWall@Client@@AEAPEAU123@PEAU123@@Z 0000000140227700 f i Level_GamePlay.obj
 0002:00164770       ??$_Umove@PEAUtagCubeDesc@CWall@Client@@@?$vector@UtagCubeDesc@CWall@Client@@V?$allocator@UtagCubeDesc@CWall@Client@@@std@@@std@@IEAAPEAUtagCubeDesc@CWall@Client@@PEAU234@00@Z 0000000140227770 f i Level_GamePlay.obj
 0002:00164800       ??$_Unchecked@PEAUtagCubeDesc@CWall@Client@@@std@@YAPEAUtagCubeDesc@CWall@Client@@PEAU123@@Z 0000000140227800 f i Level_GamePlay.obj
 0002:00164850       ??$_Unfancy@UtagCubeDesc@CWall@Client@@@std@@YAPEAUtagCubeDesc@CWall@Client@@PEAU123@@Z 0000000140227850 f i Level_GamePlay.obj
 0002:001648a0       ??$_Uninitialized_move@PEAUtagCubeDesc@CWall@Client@@PEAU123@V?$allocator@UtagCubeDesc@CWall@Client@@@std@@@std@@YAPEAUtagCubeDesc@CWall@Client@@PEAU123@00AEAU?$_Wrap_alloc@V?$allocator@UtagCubeDesc@CWall@Client@@@std@@@0@@Z 00000001402278a0 f i Level_GamePlay.obj
 0002:00164980       ??$_Uninitialized_move_al_unchecked1@PEAUtagCubeDesc@CWall@Client@@PEAU123@V?$allocator@UtagCubeDesc@CWall@Client@@@std@@@std@@YAPEAUtagCubeDesc@CWall@Client@@PEAU123@00AEAU?$_Wrap_alloc@V?$allocator@UtagCubeDesc@CWall@Client@@@std@@@0@U_General_ptr_iterator_tag@0@U_Any_tag@0@@Z 0000000140227980 f i Level_GamePlay.obj
 0002:00164a90       ??$_Uninitialized_move_al_unchecked@PEAUtagCubeDesc@CWall@Client@@PEAU123@V?$allocator@UtagCubeDesc@CWall@Client@@@std@@@std@@YAPEAUtagCubeDesc@CWall@Client@@PEAU123@00AEAU?$_Wrap_alloc@V?$allocator@UtagCubeDesc@CWall@Client@@@std@@@0@@Z 0000000140227a90 f i Level_GamePlay.obj
 0002:00164b70       ??$addressof@U?$pair@$$CBV?$basic_string@_WU?$char_traits@_W@std@@V?$allocator@_W@2@@std@@PEAVCGameObject@Engine@@@std@@@std@@YAPEAU?$pair@$$CBV?$basic_string@_WU?$char_traits@_W@std@@V?$allocator@_W@2@@std@@PEAVCGameObject@Engine@@@0@AEAU10@@Z 0000000140227b70 f i Level_GamePlay.obj
 0002:00164bc0       ??$construct@UtagCubeDesc@CWall@Client@@U123@@?$_Wrap_alloc@V?$allocator@UtagCubeDesc@CWall@Client@@@std@@@std@@QEAAXPEAUtagCubeDesc@CWall@Client@@$$QEAU234@@Z 0000000140227bc0 f i Level_GamePlay.obj
 0002:00164c40       ??$construct@UtagCubeDesc@CWall@Client@@U123@@?$allocator@UtagCubeDesc@CWall@Client@@@std@@QEAAXPEAUtagCubeDesc@CWall@Client@@$$QEAU234@@Z 0000000140227c40 f i Level_GamePlay.obj
 0002:00164d00       ??$construct@UtagCubeDesc@CWall@Client@@U123@@?$allocator_traits@V?$allocator@UtagCubeDesc@CWall@Client@@@std@@@std@@SAXAEAV?$allocator@UtagCubeDesc@CWall@Client@@@1@PEAUtagCubeDesc@CWall@Client@@$$QEAU345@@Z 0000000140227d00 f i Level_GamePlay.obj
 0002:00164d80       ??$forward@AEAU?$_Wrap_alloc@V?$allocator@UtagCubeDesc@CWall@Client@@@std@@@std@@@std@@YAAEAU?$_Wrap_alloc@V?$allocator@UtagCubeDesc@CWall@Client@@@std@@@0@AEAU10@@Z 0000000140227d80 f i Level_GamePlay.obj
 0002:00164dd0       ??$forward@U?$_Wrap_alloc@V?$allocator@_W@std@@@std@@@std@@YA$$QEAU?$_Wrap_alloc@V?$allocator@_W@std@@@0@AEAU10@@Z 0000000140227dd0 f i Level_GamePlay.obj
 0002:00164e20       ??$forward@UtagCubeDesc@CWall@Client@@@std@@YA$$QEAUtagCubeDesc@CWall@Client@@AEAU123@@Z 0000000140227e20 f i Level_GamePlay.obj
 0002:00164e70       ??$forward@V?$basic_string@_WU?$char_traits@_W@std@@V?$allocator@_W@2@@std@@@std@@YA$$QEAV?$basic_string@_WU?$char_traits@_W@std@@V?$allocator@_W@2@@0@AEAV10@@Z 0000000140227e70 f i Level_GamePlay.obj
 0002:00164ec0       ??$move@AEAU?$_Wrap_alloc@V?$allocator@_W@std@@@std@@@std@@YA$$QEAU?$_Wrap_alloc@V?$allocator@_W@std@@@0@AEAU10@@Z 0000000140227ec0 f i Level_GamePlay.obj
 0002:00164f10       ??$move@AEAUtagCubeDesc@CWall@Client@@@std@@YA$$QEAUtagCubeDesc@CWall@Client@@AEAU123@@Z 0000000140227f10 f i Level_GamePlay.obj
 0002:00164f60       ??$move@AEAV?$basic_string@_WU?$char_traits@_W@std@@V?$allocator@_W@2@@std@@@std@@YA$$QEAV?$basic_string@_WU?$char_traits@_W@std@@V?$allocator@_W@2@@0@AEAV10@@Z 0000000140227f60 f i Level_GamePlay.obj
 0002:00164fb0       ??0?$_Iterator012@Ubidirectional_iterator_tag@std@@U?$pair@$$CBV?$basic_string@_WU?$char_traits@_W@std@@V?$allocator@_W@2@@std@@PEAVCGameObject@Engine@@@2@_JPEBU32@AEBU32@U_Iterator_base12@2@@std@@QEAA@XZ 0000000140227fb0 f i Level_GamePlay.obj
 0002:00165010       ??0?$_List_const_iterator@V?$_List_val@U?$_List_simple_types@U?$pair@$$CBV?$basic_string@_WU?$char_traits@_W@std@@V?$allocator@_W@2@@std@@PEAVCGameObject@Engine@@@std@@@std@@@std@@@std@@QEAA@PEAU?$_List_node@U?$pair@$$CBV?$basic_string@_WU?$char_traits@_W@std@@V?$allocator@_W@2@@std@@PEAVCGameObject@Engine@@@std@@PEAX@1@PEBV?$_List_val@U?$_List_simple_types@U?$pair@$$CBV?$basic_string@_WU?$char_traits@_W@std@@V?$allocator@_W@2@@std@@PEAVCGameObject@Engine@@@std@@@std@@@1@@Z 0000000140228010 f i Level_GamePlay.obj
 0002:00165090       ??0?$_List_iterator@V?$_List_val@U?$_List_simple_types@U?$pair@$$CBV?$basic_string@_WU?$char_traits@_W@std@@V?$allocator@_W@2@@std@@PEAVCGameObject@Engine@@@std@@@std@@@std@@@std@@QEAA@PEAU?$_List_node@U?$pair@$$CBV?$basic_string@_WU?$char_traits@_W@std@@V?$allocator@_W@2@@std@@PEAVCGameObject@Engine@@@std@@PEAX@1@PEBV?$_List_val@U?$_List_simple_types@U?$pair@$$CBV?$basic_string@_WU?$char_traits@_W@std@@V?$allocator@_W@2@@std@@PEAVCGameObject@Engine@@@std@@@std@@@1@@Z 0000000140228090 f i Level_GamePlay.obj
 0002:00165110       ??0?$_List_unchecked_const_iterator@V?$_List_val@U?$_List_simple_types@U?$pair@$$CBV?$basic_string@_WU?$char_traits@_W@std@@V?$allocator@_W@2@@std@@PEAVCGameObject@Engine@@@std@@@std@@@std@@U_Iterator_base12@2@@std@@QEAA@PEAU?$_List_node@U?$pair@$$CBV?$basic_string@_WU?$char_traits@_W@std@@V?$allocator@_W@2@@std@@PEAVCGameObject@Engine@@@std@@PEAX@1@PEBV?$_List_val@U?$_List_simple_types@U?$pair@$$CBV?$basic_string@_WU?$char_traits@_W@std@@V?$allocator@_W@2@@std@@PEAVCGameObject@Engine@@@std@@@std@@@1@@Z 0000000140228110 f i Level_GamePlay.obj
 0002:001651c0       ??0?$_Vector_alloc@U?$_Vec_base_types@UtagCubeDesc@CWall@Client@@V?$allocator@UtagCubeDesc@CWall@Client@@@std@@@std@@@std@@QEAA@XZ 00000001402281c0 f i Level_GamePlay.obj
 0002:00165250       ??0?$_Vector_val@U?$_Simple_types@UtagCubeDesc@CWall@Client@@@std@@@std@@QEAA@XZ 0000000140228250 f i Level_GamePlay.obj
 0002:001652f0       ??0?$_Wrap_alloc@V?$allocator@UtagCubeDesc@CWall@Client@@@std@@@std@@QEAA@XZ 00000001402282f0 f i Level_GamePlay.obj
 0002:00165350       ??0?$_Wrap_alloc@V?$allocator@_W@std@@@std@@QEAA@$$QEAU01@@Z 0000000140228350 f i Level_GamePlay.obj
 0002:001653d0       ??0?$allocator@UtagCubeDesc@CWall@Client@@@std@@QEAA@XZ 00000001402283d0 f i Level_GamePlay.obj
 0002:00165420       ??0?$basic_string@_WU?$char_traits@_W@std@@V?$allocator@_W@2@@std@@QEAA@$$QEAV01@@Z 0000000140228420 f i Level_GamePlay.obj
 0002:001654f0       ??0?$vector@UtagCubeDesc@CWall@Client@@V?$allocator@UtagCubeDesc@CWall@Client@@@std@@@std@@QEAA@XZ 00000001402284f0 f i Level_GamePlay.obj
 0002:00165560       ??0CLevel_GamePlay@Client@@AEAA@PEAUID3D11Device@@PEAUID3D11DeviceContext@@@Z 0000000140228560 f   Level_GamePlay.obj
 0002:00165620       ??1?$_Compressed_pair@U?$_Wrap_alloc@V?$allocator@UtagCubeDesc@CWall@Client@@@std@@@std@@V?$_Vector_val@U?$_Simple_types@UtagCubeDesc@CWall@Client@@@std@@@2@$00@std@@QEAA@XZ 0000000140228620 f i Level_GamePlay.obj
 0002:00165680       ??1?$_Iterator012@Ubidirectional_iterator_tag@std@@U?$pair@$$CBV?$basic_string@_WU?$char_traits@_W@std@@V?$allocator@_W@2@@std@@PEAVCGameObject@Engine@@@2@_JPEBU32@AEBU32@U_Iterator_base12@2@@std@@QEAA@XZ 0000000140228680 f i Level_GamePlay.obj
 0002:001656d0       ??1?$_List_const_iterator@V?$_List_val@U?$_List_simple_types@U?$pair@$$CBV?$basic_string@_WU?$char_traits@_W@std@@V?$allocator@_W@2@@std@@PEAVCGameObject@Engine@@@std@@@std@@@std@@@std@@QEAA@XZ 00000001402286d0 f i Level_GamePlay.obj
 0002:00165720       ??1?$_List_iterator@V?$_List_val@U?$_List_simple_types@U?$pair@$$CBV?$basic_string@_WU?$char_traits@_W@std@@V?$allocator@_W@2@@std@@PEAVCGameObject@Engine@@@std@@@std@@@std@@@std@@QEAA@XZ 0000000140228720 f i Level_GamePlay.obj
 0002:00165770       ??1?$_List_unchecked_const_iterator@V?$_List_val@U?$_List_simple_types@U?$pair@$$CBV?$basic_string@_WU?$char_traits@_W@std@@V?$allocator@_W@2@@std@@PEAVCGameObject@Engine@@@std@@@std@@@std@@U_Iterator_base12@2@@std@@QEAA@XZ 0000000140228770 f i Level_GamePlay.obj
 0002:001657c0       ??1?$_Vector_alloc@U?$_Vec_base_types@UtagCubeDesc@CWall@Client@@V?$allocator@UtagCubeDesc@CWall@Client@@@std@@@std@@@std@@QEAA@XZ 00000001402287c0 f i Level_GamePlay.obj
 0002:00165840       ??1?$_Vector_val@U?$_Simple_types@UtagCubeDesc@CWall@Client@@@std@@@std@@QEAA@XZ 0000000140228840 f i Level_GamePlay.obj
 0002:00165890       ??1?$vector@UtagCubeDesc@CWall@Client@@V?$allocator@UtagCubeDesc@CWall@Client@@@std@@@std@@QEAA@XZ 0000000140228890 f i Level_GamePlay.obj
 0002:00165900       ??1CLevel_GamePlay@Client@@EEAA@XZ 0000000140228900 f i Level_GamePlay.obj
 0002:00165960       ??8?$_List_const_iterator@V?$_List_val@U?$_List_simple_types@U?$pair@$$CBV?$basic_string@_WU?$char_traits@_W@std@@V?$allocator@_W@2@@std@@PEAVCGameObject@Engine@@@std@@@std@@@std@@@std@@QEBA_NAEBV01@@Z 0000000140228960 f i Level_GamePlay.obj
 0002:00165ae0       ??9?$_List_const_iterator@V?$_List_val@U?$_List_simple_types@U?$pair@$$CBV?$basic_string@_WU?$char_traits@_W@std@@V?$allocator@_W@2@@std@@PEAVCGameObject@Engine@@@std@@@std@@@std@@@std@@QEBA_NAEBV01@@Z 0000000140228ae0 f i Level_GamePlay.obj
 0002:00165b70       ??A?$vector@UtagCubeDesc@CWall@Client@@V?$allocator@UtagCubeDesc@CWall@Client@@@std@@@std@@QEAAAEAUtagCubeDesc@CWall@Client@@_K@Z 0000000140228b70 f i Level_GamePlay.obj
 0002:00165cb0       ??C?$_List_iterator@V?$_List_val@U?$_List_simple_types@U?$pair@$$CBV?$basic_string@_WU?$char_traits@_W@std@@V?$allocator@_W@2@@std@@PEAVCGameObject@Engine@@@std@@@std@@@std@@@std@@QEBAPEAU?$pair@$$CBV?$basic_string@_WU?$char_traits@_W@std@@V?$allocator@_W@2@@std@@PEAVCGameObject@Engine@@@1@XZ 0000000140228cb0 f i Level_GamePlay.obj
 0002:00165d10       ??D?$_List_const_iterator@V?$_List_val@U?$_List_simple_types@U?$pair@$$CBV?$basic_string@_WU?$char_traits@_W@std@@V?$allocator@_W@2@@std@@PEAVCGameObject@Engine@@@std@@@std@@@std@@@std@@QEBAAEBU?$pair@$$CBV?$basic_string@_WU?$char_traits@_W@std@@V?$allocator@_W@2@@std@@PEAVCGameObject@Engine@@@1@XZ 0000000140228d10 f i Level_GamePlay.obj
 0002:00165e70       ??D?$_List_iterator@V?$_List_val@U?$_List_simple_types@U?$pair@$$CBV?$basic_string@_WU?$char_traits@_W@std@@V?$allocator@_W@2@@std@@PEAVCGameObject@Engine@@@std@@@std@@@std@@@std@@QEBAAEAU?$pair@$$CBV?$basic_string@_WU?$char_traits@_W@std@@V?$allocator@_W@2@@std@@PEAVCGameObject@Engine@@@1@XZ 0000000140228e70 f i Level_GamePlay.obj
 0002:00165ec0       ??E?$_List_const_iterator@V?$_List_val@U?$_List_simple_types@U?$pair@$$CBV?$basic_string@_WU?$char_traits@_W@std@@V?$allocator@_W@2@@std@@PEAVCGameObject@Engine@@@std@@@std@@@std@@@std@@QEAAAEAV01@XZ 0000000140228ec0 f i Level_GamePlay.obj
 0002:00166040       ??E?$_List_iterator@V?$_List_val@U?$_List_simple_types@U?$pair@$$CBV?$basic_string@_WU?$char_traits@_W@std@@V?$allocator@_W@2@@std@@PEAVCGameObject@Engine@@@std@@@std@@@std@@@std@@QEAAAEAV01@XZ 0000000140229040 f i Level_GamePlay.obj
 0002:001660a0       ??_GCLevel_GamePlay@Client@@EEAAPEAXI@Z 00000001402290a0 f i Level_GamePlay.obj
 0002:001660a0       ??_ECLevel_GamePlay@Client@@EEAAPEAXI@Z 00000001402290a0 f i Level_GamePlay.obj
 0002:00166130       ?Create@CLevel_GamePlay@Client@@SAPEAV12@PEAUID3D11Device@@PEAUID3D11DeviceContext@@@Z 0000000140229130 f   Level_GamePlay.obj
 0002:001662d0       ?Free@CLevel_GamePlay@Client@@UEAAXXZ 00000001402292d0 f   Level_GamePlay.obj
 0002:00166340       ?Initialize@CLevel_GamePlay@Client@@UEAAJXZ 0000000140229340 f   Level_GamePlay.obj
 0002:001664f0       ?Ready_Layer_BackGround@CLevel_GamePlay@Client@@AEAAJPEB_W@Z 00000001402294f0 f   Level_GamePlay.obj
 0002:00166650       ?Ready_Layer_Camera@CLevel_GamePlay@Client@@AEAAJPEB_W@Z 0000000140229650 f   Level_GamePlay.obj
 0002:001668e0       ?Ready_Layer_Effect@CLevel_GamePlay@Client@@AEAAJPEB_W@Z 00000001402298e0 f   Level_GamePlay.obj
 0002:001669d0       ?Ready_Layer_Enemy@CLevel_GamePlay@Client@@AEAAJPEB_WPEAVCGameObject@Engine@@@Z 00000001402299d0 f   Level_GamePlay.obj
 0002:00166d10       ?Ready_Layer_Player@CLevel_GamePlay@Client@@AEAAJPEB_W@Z 0000000140229d10 f   Level_GamePlay.obj
 0002:00166df0       ?Ready_Layer_UI@CLevel_GamePlay@Client@@AEAAJPEB_W@Z 0000000140229df0 f   Level_GamePlay.obj
 0002:00166ef0       ?Ready_Layer_Wall@CLevel_GamePlay@Client@@AEAAJPEB_W@Z 0000000140229ef0 f   Level_GamePlay.obj
 0002:00167190       ?Ready_Light@CLevel_GamePlay@Client@@AEAAJXZ 000000014022a190 f   Level_GamePlay.obj
 0002:00167400       ?SetHealthUI@CCharacter@Client@@QEAAXPEAVCEnemyHealthBar@2@@Z 000000014022a400 f i Level_GamePlay.obj
 0002:00167460       ?Tick@CLevel_GamePlay@Client@@UEAAXN@Z 000000014022a460 f   Level_GamePlay.obj
 0002:00167800       ?_Alloc_proxy@?$_Vector_alloc@U?$_Vec_base_types@UtagCubeDesc@CWall@Client@@V?$allocator@UtagCubeDesc@CWall@Client@@@std@@@std@@@std@@QEAAXXZ 000000014022a800 f i Level_GamePlay.obj
 0002:00167960       ?_Assign_rv@?$basic_string@_WU?$char_traits@_W@std@@V?$allocator@_W@2@@std@@QEAAX$$QEAV12@@Z 000000014022a960 f i Level_GamePlay.obj
 0002:00167b30       ?_Destroy@?$vector@UtagCubeDesc@CWall@Client@@V?$allocator@UtagCubeDesc@CWall@Client@@@std@@@std@@IEAAXPEAUtagCubeDesc@CWall@Client@@0@Z 000000014022ab30 f i Level_GamePlay.obj
 0002:00167bb0       ?_Free_proxy@?$_Vector_alloc@U?$_Vec_base_types@UtagCubeDesc@CWall@Client@@V?$allocator@UtagCubeDesc@CWall@Client@@@std@@@std@@@std@@QEAAXXZ 000000014022abb0 f i Level_GamePlay.obj
 0002:00167cd0       ?_Get_data@?$_List_alloc@U?$_List_base_types@U?$pair@$$CBV?$basic_string@_WU?$char_traits@_W@std@@V?$allocator@_W@2@@std@@PEAVCGameObject@Engine@@@std@@V?$allocator@U?$pair@$$CBV?$basic_string@_WU?$char_traits@_W@std@@V?$allocator@_W@2@@std@@PEAVCGameObject@Engine@@@std@@@2@@std@@@std@@QEAAAEAV?$_List_val@U?$_List_simple_types@U?$pair@$$CBV?$basic_string@_WU?$char_traits@_W@std@@V?$allocator@_W@2@@std@@PEAVCGameObject@Engine@@@std@@@std@@@2@XZ 000000014022acd0 f i Level_GamePlay.obj
 0002:00167d30       ?_Get_data@?$_Vector_alloc@U?$_Vec_base_types@UtagCubeDesc@CWall@Client@@V?$allocator@UtagCubeDesc@CWall@Client@@@std@@@std@@@std@@QEAAAEAV?$_Vector_val@U?$_Simple_types@UtagCubeDesc@CWall@Client@@@std@@@2@XZ 000000014022ad30 f i Level_GamePlay.obj
 0002:00167d90       ?_Get_data@?$_Vector_alloc@U?$_Vec_base_types@UtagCubeDesc@CWall@Client@@V?$allocator@UtagCubeDesc@CWall@Client@@@std@@@std@@@std@@QEBAAEBV?$_Vector_val@U?$_Simple_types@UtagCubeDesc@CWall@Client@@@std@@@2@XZ 000000014022ad90 f i Level_GamePlay.obj
 0002:00167df0       ?_Get_first@?$_Compressed_pair@U?$_Wrap_alloc@V?$allocator@UtagCubeDesc@CWall@Client@@@std@@@std@@V?$_Vector_val@U?$_Simple_types@UtagCubeDesc@CWall@Client@@@std@@@2@$00@std@@QEAAAEAU?$_Wrap_alloc@V?$allocator@UtagCubeDesc@CWall@Client@@@std@@@2@XZ 000000014022adf0 f i Level_GamePlay.obj
 0002:00167e40       ?_Get_first@?$_Compressed_pair@U?$_Wrap_alloc@V?$allocator@UtagCubeDesc@CWall@Client@@@std@@@std@@V?$_Vector_val@U?$_Simple_types@UtagCubeDesc@CWall@Client@@@std@@@2@$00@std@@QEBAAEBU?$_Wrap_alloc@V?$allocator@UtagCubeDesc@CWall@Client@@@std@@@2@XZ 000000014022ae40 f i Level_GamePlay.obj
 0002:00167e90       ?_Get_second@?$_Compressed_pair@U?$_Wrap_alloc@V?$allocator@U?$_List_node@U?$pair@$$CBV?$basic_string@_WU?$char_traits@_W@std@@V?$allocator@_W@2@@std@@PEAVCGameObject@Engine@@@std@@PEAX@std@@@std@@@std@@V?$_List_val@U?$_List_simple_types@U?$pair@$$CBV?$basic_string@_WU?$char_traits@_W@std@@V?$allocator@_W@2@@std@@PEAVCGameObject@Engine@@@std@@@std@@@2@$00@std@@QEAAAEAV?$_List_val@U?$_List_simple_types@U?$pair@$$CBV?$basic_string@_WU?$char_traits@_W@std@@V?$allocator@_W@2@@std@@PEAVCGameObject@Engine@@@std@@@std@@@2@XZ 000000014022ae90 f i Level_GamePlay.obj
 0002:00167ee0       ?_Get_second@?$_Compressed_pair@U?$_Wrap_alloc@V?$allocator@UtagCubeDesc@CWall@Client@@@std@@@std@@V?$_Vector_val@U?$_Simple_types@UtagCubeDesc@CWall@Client@@@std@@@2@$00@std@@QEAAAEAV?$_Vector_val@U?$_Simple_types@UtagCubeDesc@CWall@Client@@@std@@@2@XZ 000000014022aee0 f i Level_GamePlay.obj
 0002:00167f30       ?_Get_second@?$_Compressed_pair@U?$_Wrap_alloc@V?$allocator@UtagCubeDesc@CWall@Client@@@std@@@std@@V?$_Vector_val@U?$_Simple_types@UtagCubeDesc@CWall@Client@@@std@@@2@$00@std@@QEBAAEBV?$_Vector_val@U?$_Simple_types@UtagCubeDesc@CWall@Client@@@std@@@2@XZ 000000014022af30 f i Level_GamePlay.obj
 0002:00167f80       ?_Getal@?$_Vector_alloc@U?$_Vec_base_types@UtagCubeDesc@CWall@Client@@V?$allocator@UtagCubeDesc@CWall@Client@@@std@@@std@@@std@@QEAAAEAU?$_Wrap_alloc@V?$allocator@UtagCubeDesc@CWall@Client@@@std@@@2@XZ 000000014022af80 f i Level_GamePlay.obj
 0002:00167fe0       ?_Getal@?$_Vector_alloc@U?$_Vec_base_types@UtagCubeDesc@CWall@Client@@V?$allocator@UtagCubeDesc@CWall@Client@@@std@@@std@@@std@@QEBAAEBU?$_Wrap_alloc@V?$allocator@UtagCubeDesc@CWall@Client@@@std@@@2@XZ 000000014022afe0 f i Level_GamePlay.obj
 0002:00168040       ?_Myend@?$_Vector_alloc@U?$_Vec_base_types@UtagCubeDesc@CWall@Client@@V?$allocator@UtagCubeDesc@CWall@Client@@@std@@@std@@@std@@QEAAAEAPEAUtagCubeDesc@CWall@Client@@XZ 000000014022b040 f i Level_GamePlay.obj
 0002:001680a0       ?_Myend@?$_Vector_alloc@U?$_Vec_base_types@UtagCubeDesc@CWall@Client@@V?$allocator@UtagCubeDesc@CWall@Client@@@std@@@std@@@std@@QEBAAEBQEAUtagCubeDesc@CWall@Client@@XZ 000000014022b0a0 f i Level_GamePlay.obj
 0002:00168100       ?_Myfirst@?$_Vector_alloc@U?$_Vec_base_types@UtagCubeDesc@CWall@Client@@V?$allocator@UtagCubeDesc@CWall@Client@@@std@@@std@@@std@@QEAAAEAPEAUtagCubeDesc@CWall@Client@@XZ 000000014022b100 f i Level_GamePlay.obj
 0002:00168160       ?_Myfirst@?$_Vector_alloc@U?$_Vec_base_types@UtagCubeDesc@CWall@Client@@V?$allocator@UtagCubeDesc@CWall@Client@@@std@@@std@@@std@@QEBAAEBQEAUtagCubeDesc@CWall@Client@@XZ 000000014022b160 f i Level_GamePlay.obj
 0002:001681c0       ?_Myhead@?$_List_alloc@U?$_List_base_types@U?$pair@$$CBV?$basic_string@_WU?$char_traits@_W@std@@V?$allocator@_W@2@@std@@PEAVCGameObject@Engine@@@std@@V?$allocator@U?$pair@$$CBV?$basic_string@_WU?$char_traits@_W@std@@V?$allocator@_W@2@@std@@PEAVCGameObject@Engine@@@std@@@2@@std@@@std@@QEAAAEAPEAU?$_List_node@U?$pair@$$CBV?$basic_string@_WU?$char_traits@_W@std@@V?$allocator@_W@2@@std@@PEAVCGameObject@Engine@@@std@@PEAX@2@XZ 000000014022b1c0 f i Level_GamePlay.obj
 0002:00168220       ?_Mylast@?$_Vector_alloc@U?$_Vec_base_types@UtagCubeDesc@CWall@Client@@V?$allocator@UtagCubeDesc@CWall@Client@@@std@@@std@@@std@@QEAAAEAPEAUtagCubeDesc@CWall@Client@@XZ 000000014022b220 f i Level_GamePlay.obj
 0002:00168280       ?_Mylast@?$_Vector_alloc@U?$_Vec_base_types@UtagCubeDesc@CWall@Client@@V?$allocator@UtagCubeDesc@CWall@Client@@@std@@@std@@@std@@QEBAAEBQEAUtagCubeDesc@CWall@Client@@XZ 000000014022b280 f i Level_GamePlay.obj
 0002:001682e0       ?_Myproxy@?$_Vector_alloc@U?$_Vec_base_types@UtagCubeDesc@CWall@Client@@V?$allocator@UtagCubeDesc@CWall@Client@@@std@@@std@@@std@@QEAAAEAPEAU_Container_proxy@2@XZ 000000014022b2e0 f i Level_GamePlay.obj
 0002:00168330       ?_Myval@?$_List_val@U?$_List_simple_types@U?$pair@$$CBV?$basic_string@_WU?$char_traits@_W@std@@V?$allocator@_W@2@@std@@PEAVCGameObject@Engine@@@std@@@std@@@std@@SAAEAU?$pair@$$CBV?$basic_string@_WU?$char_traits@_W@std@@V?$allocator@_W@2@@std@@PEAVCGameObject@Engine@@@2@PEAU?$_List_node@U?$pair@$$CBV?$basic_string@_WU?$char_traits@_W@std@@V?$allocator@_W@2@@std@@PEAVCGameObject@Engine@@@std@@PEAX@2@@Z 000000014022b330 f i Level_GamePlay.obj
 0002:00168380       ?_Nextnode@?$_List_alloc@U?$_List_base_types@U?$pair@$$CBV?$basic_string@_WU?$char_traits@_W@std@@V?$allocator@_W@2@@std@@PEAVCGameObject@Engine@@@std@@V?$allocator@U?$pair@$$CBV?$basic_string@_WU?$char_traits@_W@std@@V?$allocator@_W@2@@std@@PEAVCGameObject@Engine@@@std@@@2@@std@@@std@@SAAEAPEAU?$_List_node@U?$pair@$$CBV?$basic_string@_WU?$char_traits@_W@std@@V?$allocator@_W@2@@std@@PEAVCGameObject@Engine@@@std@@PEAX@2@PEAU32@@Z 000000014022b380 f i Level_GamePlay.obj
 0002:001683d0       ?_Nextnode@?$_List_val@U?$_List_simple_types@U?$pair@$$CBV?$basic_string@_WU?$char_traits@_W@std@@V?$allocator@_W@2@@std@@PEAVCGameObject@Engine@@@std@@@std@@@std@@SAAEAPEAU?$_List_node@U?$pair@$$CBV?$basic_string@_WU?$char_traits@_W@std@@V?$allocator@_W@2@@std@@PEAVCGameObject@Engine@@@std@@PEAX@2@PEAU32@@Z 000000014022b3d0 f i Level_GamePlay.obj
 0002:00168420       ?_Orphan_all@?$_Vector_alloc@U?$_Vec_base_types@UtagCubeDesc@CWall@Client@@V?$allocator@UtagCubeDesc@CWall@Client@@@std@@@std@@@std@@QEAAXXZ 000000014022b420 f i Level_GamePlay.obj
 0002:00168480       ?_Reallocate@?$vector@UtagCubeDesc@CWall@Client@@V?$allocator@UtagCubeDesc@CWall@Client@@@std@@@std@@IEAAX_K@Z 000000014022b480 f i Level_GamePlay.obj
 0002:00168700       ?_Tidy@?$vector@UtagCubeDesc@CWall@Client@@V?$allocator@UtagCubeDesc@CWall@Client@@@std@@@std@@IEAAXXZ 000000014022b700 f i Level_GamePlay.obj
 0002:001688a0       ?_Xlen@?$vector@UtagCubeDesc@CWall@Client@@V?$allocator@UtagCubeDesc@CWall@Client@@@std@@@std@@IEBAXXZ 000000014022b8a0 f i Level_GamePlay.obj
 0002:00168900       ?__autoclassinit2@?$_List_iterator@V?$_List_val@U?$_List_simple_types@U?$pair@$$CBV?$basic_string@_WU?$char_traits@_W@std@@V?$allocator@_W@2@@std@@PEAVCGameObject@Engine@@@std@@@std@@@std@@@std@@QEAAX_K@Z 000000014022b900 f i Level_GamePlay.obj
 0002:00168960       ?__autoclassinit2@?$vector@UtagCubeDesc@CWall@Client@@V?$allocator@UtagCubeDesc@CWall@Client@@@std@@@std@@QEAAX_K@Z 000000014022b960 f i Level_GamePlay.obj
 0002:001689c0       ?allocate@?$_Wrap_alloc@V?$allocator@UtagCubeDesc@CWall@Client@@@std@@@std@@QEAAPEAUtagCubeDesc@CWall@Client@@_K@Z 000000014022b9c0 f i Level_GamePlay.obj
 0002:00168a20       ?allocate@?$allocator@UtagCubeDesc@CWall@Client@@@std@@QEAAPEAUtagCubeDesc@CWall@Client@@_K@Z 000000014022ba20 f i Level_GamePlay.obj
 0002:00168a80       ?begin@?$_Hash@V?$_Umap_traits@V?$basic_string@_WU?$char_traits@_W@std@@V?$allocator@_W@2@@std@@PEAVCGameObject@Engine@@V?$_Uhash_compare@V?$basic_string@_WU?$char_traits@_W@std@@V?$allocator@_W@2@@std@@U?$hash@V?$basic_string@_WU?$char_traits@_W@std@@V?$allocator@_W@2@@std@@@2@U?$equal_to@V?$basic_string@_WU?$char_traits@_W@std@@V?$allocator@_W@2@@std@@@2@@2@V?$allocator@U?$pair@$$CBV?$basic_string@_WU?$char_traits@_W@std@@V?$allocator@_W@2@@std@@PEAVCGameObject@Engine@@@std@@@2@$0A@@std@@@std@@QEAA?AV?$_List_iterator@V?$_List_val@U?$_List_simple_types@U?$pair@$$CBV?$basic_string@_WU?$char_traits@_W@std@@V?$allocator@_W@2@@std@@PEAVCGameObject@Engine@@@std@@@std@@@std@@@2@XZ 000000014022ba80 f i Level_GamePlay.obj
 0002:00168af0       ?begin@?$list@U?$pair@$$CBV?$basic_string@_WU?$char_traits@_W@std@@V?$allocator@_W@2@@std@@PEAVCGameObject@Engine@@@std@@V?$allocator@U?$pair@$$CBV?$basic_string@_WU?$char_traits@_W@std@@V?$allocator@_W@2@@std@@PEAVCGameObject@Engine@@@std@@@2@@std@@QEAA?AV?$_List_iterator@V?$_List_val@U?$_List_simple_types@U?$pair@$$CBV?$basic_string@_WU?$char_traits@_W@std@@V?$allocator@_W@2@@std@@PEAVCGameObject@Engine@@@std@@@std@@@std@@@2@XZ 000000014022baf0 f i Level_GamePlay.obj
 0002:00168bb0       ?capacity@?$vector@UtagCubeDesc@CWall@Client@@V?$allocator@UtagCubeDesc@CWall@Client@@@std@@@std@@QEBA_KXZ 000000014022bbb0 f i Level_GamePlay.obj
 0002:00168c40       ?deallocate@?$_Wrap_alloc@V?$allocator@UtagCubeDesc@CWall@Client@@@std@@@std@@QEAAXPEAUtagCubeDesc@CWall@Client@@_K@Z 000000014022bc40 f i Level_GamePlay.obj
 0002:00168cb0       ?deallocate@?$allocator@UtagCubeDesc@CWall@Client@@@std@@QEAAXPEAUtagCubeDesc@CWall@Client@@_K@Z 000000014022bcb0 f i Level_GamePlay.obj
 0002:00168d20       ?end@?$_Hash@V?$_Umap_traits@V?$basic_string@_WU?$char_traits@_W@std@@V?$allocator@_W@2@@std@@PEAVCGameObject@Engine@@V?$_Uhash_compare@V?$basic_string@_WU?$char_traits@_W@std@@V?$allocator@_W@2@@std@@U?$hash@V?$basic_string@_WU?$char_traits@_W@std@@V?$allocator@_W@2@@std@@@2@U?$equal_to@V?$basic_string@_WU?$char_traits@_W@std@@V?$allocator@_W@2@@std@@@2@@2@V?$allocator@U?$pair@$$CBV?$basic_string@_WU?$char_traits@_W@std@@V?$allocator@_W@2@@std@@PEAVCGameObject@Engine@@@std@@@2@$0A@@std@@@std@@QEAA?AV?$_List_iterator@V?$_List_val@U?$_List_simple_types@U?$pair@$$CBV?$basic_string@_WU?$char_traits@_W@std@@V?$allocator@_W@2@@std@@PEAVCGameObject@Engine@@@std@@@std@@@std@@@2@XZ 000000014022bd20 f i Level_GamePlay.obj
 0002:00168d90       ?end@?$list@U?$pair@$$CBV?$basic_string@_WU?$char_traits@_W@std@@V?$allocator@_W@2@@std@@PEAVCGameObject@Engine@@@std@@V?$allocator@U?$pair@$$CBV?$basic_string@_WU?$char_traits@_W@std@@V?$allocator@_W@2@@std@@PEAVCGameObject@Engine@@@std@@@2@@std@@QEAA?AV?$_List_iterator@V?$_List_val@U?$_List_simple_types@U?$pair@$$CBV?$basic_string@_WU?$char_traits@_W@std@@V?$allocator@_W@2@@std@@PEAVCGameObject@Engine@@@std@@@std@@@std@@@2@XZ 000000014022bd90 f i Level_GamePlay.obj
 0002:00168e40       ?insert@?$basic_string@_WU?$char_traits@_W@std@@V?$allocator@_W@2@@std@@QEAAAEAV12@_KAEBV12@00@Z 000000014022be40 f i Level_GamePlay.obj
 0002:00169160       ?insert@?$basic_string@_WU?$char_traits@_W@std@@V?$allocator@_W@2@@std@@QEAAAEAV12@_KPEB_W0@Z 000000014022c160 f i Level_GamePlay.obj
 0002:00169420       ?insert@?$basic_string@_WU?$char_traits@_W@std@@V?$allocator@_W@2@@std@@QEAAAEAV12@_KPEB_W@Z 000000014022c420 f i Level_GamePlay.obj
 0002:001694c0       ?max_size@?$_Wrap_alloc@V?$allocator@UtagCubeDesc@CWall@Client@@@std@@@std@@QEBA_KU_Nil@2@@Z 000000014022c4c0 f i Level_GamePlay.obj
 0002:00169520       ?max_size@?$allocator@UtagCubeDesc@CWall@Client@@@std@@QEBA_KXZ 000000014022c520 f i Level_GamePlay.obj
 0002:00169570       ?max_size@?$allocator_traits@V?$allocator@UtagCubeDesc@CWall@Client@@@std@@@std@@SA_KAEBV?$allocator@UtagCubeDesc@CWall@Client@@@2@@Z 000000014022c570 f i Level_GamePlay.obj
 0002:001695c0       ?max_size@?$vector@UtagCubeDesc@CWall@Client@@V?$allocator@UtagCubeDesc@CWall@Client@@@std@@@std@@QEBA_KXZ 000000014022c5c0 f i Level_GamePlay.obj
 0002:00169630       ?pointer_to@?$pointer_traits@PEAU?$pair@$$CBV?$basic_string@_WU?$char_traits@_W@std@@V?$allocator@_W@2@@std@@PEAVCGameObject@Engine@@@std@@@std@@SAPEAU?$pair@$$CBV?$basic_string@_WU?$char_traits@_W@std@@V?$allocator@_W@2@@std@@PEAVCGameObject@Engine@@@2@AEAU32@@Z 000000014022c630 f i Level_GamePlay.obj
 0002:00169680       ?reserve@?$vector@UtagCubeDesc@CWall@Client@@V?$allocator@UtagCubeDesc@CWall@Client@@@std@@@std@@QEAAX_K@Z 000000014022c680 f i Level_GamePlay.obj
 0002:00169730       ?size@?$vector@UtagCubeDesc@CWall@Client@@V?$allocator@UtagCubeDesc@CWall@Client@@@std@@@std@@QEBA_KXZ 000000014022c730 f i Level_GamePlay.obj
 0002:001697c0       ??$?0V?$allocator@_W@std@@@?$_Wrap_alloc@V?$allocator@_W@std@@@std@@QEAA@$$QEAV?$allocator@_W@1@@Z 000000014022c7c0 f i Level_Loading.obj
 0002:00169840       ??$Safe_Release@PEAVCLevel_Loading@Client@@@Engine@@YAKAEAPEAVCLevel_Loading@Client@@@Z 000000014022c840 f i Level_Loading.obj
 0002:001698d0       ??$Safe_Release@PEAVCLoader@Client@@@Engine@@YAKAEAPEAVCLoader@Client@@@Z 000000014022c8d0 f i Level_Loading.obj
 0002:00169960       ??$forward@V?$allocator@_W@std@@@std@@YA$$QEAV?$allocator@_W@0@AEAV10@@Z 000000014022c960 f i Level_Loading.obj
 0002:001699b0       ??0?$basic_string@_WU?$char_traits@_W@std@@V?$allocator@_W@2@@std@@QEAA@AEBV01@@Z 000000014022c9b0 f i Level_Loading.obj
 0002:00169a90       ??0CLevel_Loading@Client@@AEAA@PEAUID3D11Device@@PEAUID3D11DeviceContext@@@Z 000000014022ca90 f   Level_Loading.obj
 0002:00169b60       ??1CLevel_Loading@Client@@EEAA@XZ 000000014022cb60 f i Level_Loading.obj
 0002:00169bc0       ??_ECLevel_Loading@Client@@EEAAPEAXI@Z 000000014022cbc0 f i Level_Loading.obj
 0002:00169bc0       ??_GCLevel_Loading@Client@@EEAAPEAXI@Z 000000014022cbc0 f i Level_Loading.obj
 0002:00169c50       ?Create@CLevel_Loading@Client@@SAPEAV12@PEAUID3D11Device@@PEAUID3D11DeviceContext@@W4LEVEL_ID@2@@Z 000000014022cc50 f   Level_Loading.obj
 0002:00169e00       ?Free@CLevel_Loading@Client@@UEAAXXZ 000000014022ce00 f   Level_Loading.obj
 0002:00169e70       ?GetLoadingStateText@CLoader@Client@@QEBA?AV?$basic_string@_WU?$char_traits@_W@std@@V?$allocator@_W@2@@std@@XZ 000000014022ce70 f i Level_Loading.obj
 0002:00169f00       ?Initialize@CLevel_Loading@Client@@UEAAJW4LEVEL_ID@2@@Z 000000014022cf00 f   Level_Loading.obj
 0002:0016a040       ?IsFinished@CLoader@Client@@QEBA_NXZ 000000014022d040 f i Level_Loading.obj
 0002:0016a090       ?Tick@CLevel_Loading@Client@@UEAAXN@Z 000000014022d090 f   Level_Loading.obj
 0002:0016a320       ?append@?$basic_string@_WU?$char_traits@_W@std@@V?$allocator@_W@2@@std@@QEAAAEAV12@AEBV12@@Z 000000014022d320 f i Level_Loading.obj
 0002:0016a390       ?append@?$basic_string@_WU?$char_traits@_W@std@@V?$allocator@_W@2@@std@@QEAAAEAV12@AEBV12@_K1@Z 000000014022d390 f i Level_Loading.obj
 0002:0016a550       ?select_on_container_copy_construction@?$_Wrap_alloc@V?$allocator@_W@std@@@std@@QEBA?AU12@U_Nil@2@@Z 000000014022d550 f i Level_Loading.obj
 0002:0016a5d0       ?select_on_container_copy_construction@?$allocator_traits@V?$allocator@_W@std@@@std@@SA?AV?$allocator@_W@2@AEBV32@@Z 000000014022d5d0 f i Level_Loading.obj
 0002:0016a640       ??$Safe_Release@PEAVCLevel_Logo@Client@@@Engine@@YAKAEAPEAVCLevel_Logo@Client@@@Z 000000014022d640 f i Level_Logo.obj
 0002:0016a6d0       ??0CLevel_Logo@Client@@AEAA@PEAUID3D11Device@@PEAUID3D11DeviceContext@@@Z 000000014022d6d0 f   Level_Logo.obj
 0002:0016a760       ??1CLevel_Logo@Client@@EEAA@XZ 000000014022d760 f i Level_Logo.obj
 0002:0016a7c0       ??_GCLevel_Logo@Client@@EEAAPEAXI@Z 000000014022d7c0 f i Level_Logo.obj
 0002:0016a7c0       ??_ECLevel_Logo@Client@@EEAAPEAXI@Z 000000014022d7c0 f i Level_Logo.obj
 0002:0016a850       ?Create@CLevel_Logo@Client@@SAPEAV12@PEAUID3D11Device@@PEAUID3D11DeviceContext@@@Z 000000014022d850 f   Level_Logo.obj
 0002:0016a9f0       ?Free@CLevel_Logo@Client@@UEAAXXZ 000000014022d9f0 f   Level_Logo.obj
 0002:0016aa50       ?Initialize@CLevel_Logo@Client@@UEAAJXZ 000000014022da50 f   Level_Logo.obj
 0002:0016aac0       ?Ready_Layer_BackGround@CLevel_Logo@Client@@AEAAJPEB_W@Z 000000014022dac0 f   Level_Logo.obj
 0002:0016aba0       ?Tick@CLevel_Logo@Client@@UEAAXN@Z 000000014022dba0 f   Level_Logo.obj
 0002:0016aca0       ??0CLoader@Client@@AEAA@PEAUID3D11Device@@PEAUID3D11DeviceContext@@@Z 000000014022dca0 f   Loader.obj
 0002:0016adb0       ??1CLoader@Client@@EEAA@XZ 000000014022ddb0 f i Loader.obj
 0002:0016ae20       ??4XMMATRIX@DirectX@@QEAAAEAU01@AEBU01@@Z 000000014022de20 f i Loader.obj
 0002:0016af40       ??_GCLoader@Client@@EEAAPEAXI@Z 000000014022df40 f i Loader.obj
 0002:0016af40       ??_ECLoader@Client@@EEAAPEAXI@Z 000000014022df40 f i Loader.obj
 0002:0016afd0       ?Create@CLoader@Client@@SAPEAV12@PEAUID3D11Device@@PEAUID3D11DeviceContext@@W4LEVEL_ID@2@@Z 000000014022dfd0 f   Loader.obj
 0002:0016b180       ?Free@CLoader@Client@@UEAAXXZ 000000014022e180 f   Loader.obj
 0002:0016b240       ?Get_CriticalSectionPtr@CLoader@Client@@QEAAPEAU_RTL_CRITICAL_SECTION@@XZ 000000014022e240 f i Loader.obj
 0002:0016b290       ?Get_NextLevel@CLoader@Client@@QEBA?AW4LEVEL_ID@2@XZ 000000014022e290 f i Loader.obj
 0002:0016b2e0       ?Initialize@CLoader@Client@@QEAAJW4LEVEL_ID@2@@Z 000000014022e2e0 f   Loader.obj
 0002:0016b3c0       ?Load_Level_BossRoom@CLoader@Client@@QEAAJXZ 000000014022e3c0 f   Loader.obj
 0002:0016bc50       ?Load_Level_GamePlay@CLoader@Client@@QEAAJXZ 000000014022ec50 f   Loader.obj
 0002:0016c8b0       ?Load_Level_Logo@CLoader@Client@@QEAAJXZ 000000014022f8b0 f   Loader.obj
 0002:0016c9d0       ?ThreadEntry@@YAIPEAX@Z    000000014022f9d0 f   Loader.obj
 0002:0016caa0       ?XMMatrixRotationY@DirectX@@YQ?AUXMMATRIX@1@M@Z 000000014022faa0 f i Loader.obj
 0002:0016cce0       ?XMScalarSinCos@DirectX@@YAXPEAM0M@Z 000000014022fce0 f i Loader.obj
 0002:0016cfd0       ??$Safe_Release@PEAVCCity@Client@@@Engine@@YAKAEAPEAVCCity@Client@@@Z 000000014022ffd0 f i City.obj
 0002:0016d060       ??0CCity@Client@@AEAA@PEAUID3D11Device@@PEAUID3D11DeviceContext@@@Z 0000000140230060 f   City.obj
 0002:0016d150       ??0CCity@Client@@QEAA@AEBV01@@Z 0000000140230150 f i City.obj
 0002:0016d260       ??1CCity@Client@@EEAA@XZ   0000000140230260 f i City.obj
 0002:0016d2c0       ??_ECCity@Client@@EEAAPEAXI@Z 00000001402302c0 f i City.obj
 0002:0016d2c0       ??_GCCity@Client@@EEAAPEAXI@Z 00000001402302c0 f i City.obj
 0002:0016d350       ?Add_Components@CCity@Client@@AEAAJXZ 0000000140230350 f   City.obj
 0002:0016d4f0       ?Clone@CCity@Client@@UEAAPEAVCGameObject@Engine@@PEAX@Z 00000001402304f0 f   City.obj
 0002:0016d660       ?Create@CCity@Client@@SAPEAV12@PEAUID3D11Device@@PEAUID3D11DeviceContext@@@Z 0000000140230660 f   City.obj
 0002:0016d7d0       ?Free@CCity@Client@@UEAAXXZ 00000001402307d0 f   City.obj
 0002:0016d890       ?Initialize@CCity@Client@@UEAAJPEAX@Z 0000000140230890 f   City.obj
 0002:0016d920       ?Initialize_Prototype@CCity@Client@@UEAAJXZ 0000000140230920 f   City.obj
 0002:0016d990       ?LateTick@CCity@Client@@UEAAXN@Z 0000000140230990 f   City.obj
 0002:0016da30       ?Render@CCity@Client@@UEAAJXZ 0000000140230a30 f   City.obj
 0002:0016db70       ?Setup_ShaderResources@CCity@Client@@AEAAJXZ 0000000140230b70 f   City.obj
 0002:0016dcc0       ?Tick@CCity@Client@@UEAAXN@Z 0000000140230cc0 f   City.obj
 0002:0016dd30       ??$Safe_Release@PEAVCPlayerCamera@Client@@@Engine@@YAKAEAPEAVCPlayerCamera@Client@@@Z 0000000140230d30 f i PlayerCamera.obj
 0002:0016ddc0       ??0CPlayerCamera@Client@@AEAA@AEBV01@@Z 0000000140230dc0 f   PlayerCamera.obj
 0002:0016def0       ??0CPlayerCamera@Client@@AEAA@PEAUID3D11Device@@PEAUID3D11DeviceContext@@@Z 0000000140230ef0 f   PlayerCamera.obj
 0002:0016e030       ??1CPlayerCamera@Client@@EEAA@XZ 0000000140231030 f i PlayerCamera.obj
 0002:0016e090       ??_GCPlayerCamera@Client@@EEAAPEAXI@Z 0000000140231090 f i PlayerCamera.obj
 0002:0016e090       ??_ECPlayerCamera@Client@@EEAAPEAXI@Z 0000000140231090 f i PlayerCamera.obj
 0002:0016e120       ?Add_Components@CPlayerCamera@Client@@QEAAJXZ 0000000140231120 f   PlayerCamera.obj
 0002:0016e170       ?Clone@CPlayerCamera@Client@@UEAAPEAVCGameObject@Engine@@PEAX@Z 0000000140231170 f   PlayerCamera.obj
 0002:0016e2e0       ?Create@CPlayerCamera@Client@@SAPEAV12@PEAUID3D11Device@@PEAUID3D11DeviceContext@@@Z 00000001402312e0 f   PlayerCamera.obj
 0002:0016e450       ?Free@CPlayerCamera@Client@@UEAAXXZ 0000000140231450 f   PlayerCamera.obj
 0002:0016e4c0       ?GetLockOnTarget@CCharacter@Client@@QEAAPEAVCGameObject@Engine@@XZ 00000001402314c0 f i PlayerCamera.obj
 0002:0016e550       ?Initialize@CPlayerCamera@Client@@UEAAJPEAX@Z 0000000140231550 f   PlayerCamera.obj
 0002:0016e7c0       ?Initialize_Prototype@CPlayerCamera@Client@@UEAAJXZ 00000001402317c0 f   PlayerCamera.obj
 0002:0016e830       ?IsCameraLockOn@CCharacter@Client@@QEAA_NXZ 0000000140231830 f i PlayerCamera.obj
 0002:0016e8b0       ?LateTick@CPlayerCamera@Client@@UEAAXN@Z 00000001402318b0 f   PlayerCamera.obj
 0002:0016e960       ?Render@CPlayerCamera@Client@@UEAAJXZ 0000000140231960 f   PlayerCamera.obj
 0002:0016e9b0       ?Setup_ShaderResources@CPlayerCamera@Client@@QEAAJXZ 00000001402319b0 f   PlayerCamera.obj
 0002:0016ea00       ?Tick@CPlayerCamera@Client@@UEAAXN@Z 0000000140231a00 f   PlayerCamera.obj
 0002:0016f150       ??$?0AEAU?$_Wrap_alloc@V?$allocator@D@std@@@std@@@?$_Wrap_alloc@V?$allocator@U_Container_proxy@std@@@std@@@std@@QEAA@AEAU?$_Wrap_alloc@V?$allocator@D@std@@@1@@Z 0000000140232150 f i SkillBase.obj
 0002:0016f1d0       ??$?0AEBV?$allocator@D@std@@$$V@?$_Compressed_pair@U?$_Wrap_alloc@V?$allocator@D@std@@@std@@V?$_String_val@U?$_Simple_types@D@std@@@2@$00@std@@QEAA@U_One_then_variadic_args_t@1@AEBV?$allocator@D@1@@Z 00000001402321d0 f i SkillBase.obj
 0002:0016f260       ??$?0AEBV?$allocator@D@std@@@?$_Wrap_alloc@V?$allocator@D@std@@@std@@QEAA@AEBV?$allocator@D@1@@Z 0000000140232260 f i SkillBase.obj
 0002:0016f2e0       ??$?0AEBV?$allocator@D@std@@X@?$_String_alloc@U?$_String_base_types@DV?$allocator@D@std@@@std@@@std@@QEAA@AEBV?$allocator@D@1@@Z 00000001402322e0 f i SkillBase.obj
 0002:0016f380       ??$?0D@?$allocator@U_Container_proxy@std@@@std@@QEAA@AEBV?$allocator@D@1@@Z 0000000140232380 f i SkillBase.obj
 0002:0016f3d0       ??$?0PEADX@?$basic_string@DU?$char_traits@D@std@@V?$allocator@D@2@@std@@QEAA@PEAD0AEBV?$allocator@D@1@@Z 00000001402323d0 f i SkillBase.obj
 0002:0016f500       ??$?0U?$_Wrap_alloc@V?$allocator@D@std@@@std@@$$V@?$_Compressed_pair@U?$_Wrap_alloc@V?$allocator@D@std@@@std@@V?$_String_val@U?$_Simple_types@D@std@@@2@$00@std@@QEAA@U_One_then_variadic_args_t@1@$$QEAU?$_Wrap_alloc@V?$allocator@D@std@@@1@@Z 0000000140232500 f i SkillBase.obj
 0002:0016f590       ??$?0U?$_Wrap_alloc@V?$allocator@D@std@@@std@@X@?$_String_alloc@U?$_String_base_types@DV?$allocator@D@std@@@std@@@std@@QEAA@$$QEAU?$_Wrap_alloc@V?$allocator@D@std@@@1@@Z 0000000140232590 f i SkillBase.obj
 0002:0016f630       ??$?HDU?$char_traits@D@std@@V?$allocator@D@1@@std@@YA?AV?$basic_string@DU?$char_traits@D@std@@V?$allocator@D@2@@0@PEBD$$QEAV10@@Z 0000000140232630 f i SkillBase.obj
 0002:0016f6e0       ??$Safe_Release@PEAVCSkillBase@Client@@@Engine@@YAKAEAPEAVCSkillBase@Client@@@Z 00000001402326e0 f i SkillBase.obj
 0002:0016f770       ??$_Debug_pointer@$$CBD@std@@YAXPEBDPEB_WI@Z 0000000140232770 f i SkillBase.obj
 0002:0016f7f0       ??$_Debug_pointer@D@std@@YAXPEADPEB_WI@Z 00000001402327f0 f i SkillBase.obj
 0002:0016f870       ??$_Debug_pointer_if@$$CBD@std@@YAX_NPEBDPEB_WI@Z 0000000140232870 f i SkillBase.obj
 0002:0016f900       ??$_Debug_range2@PEAD@std@@YAXPEAD0PEB_WIUrandom_access_iterator_tag@0@@Z 0000000140232900 f i SkillBase.obj
 0002:0016f9e0       ??$_Debug_range@PEAD@std@@YAXPEAD0PEB_WI@Z 00000001402329e0 f i SkillBase.obj
 0002:0016fa90       ??$_Integral_to_string@DH@std@@YA?AV?$basic_string@DU?$char_traits@D@std@@V?$allocator@D@2@@0@H@Z 0000000140232a90 f i SkillBase.obj
 0002:0016fbf0       ??$_Integral_to_string@DI@std@@YA?AV?$basic_string@DU?$char_traits@D@std@@V?$allocator@D@2@@0@I@Z 0000000140232bf0 f i SkillBase.obj
 0002:0016fd50       ??$_UIntegral_to_buff@DI@std@@YAPEADPEADI@Z 0000000140232d50 f i SkillBase.obj
 0002:0016fe00       ??$_Unchecked@PEAD@std@@YAPEADPEAD@Z 0000000140232e00 f i SkillBase.obj
 0002:0016fe50       ??$_Unfancy@D@std@@YAPEADPEAD@Z 0000000140232e50 f i SkillBase.obj
 0002:0016fea0       ??$addressof@PEAD@std@@YAPEAPEADAEAPEAD@Z 0000000140232ea0 f i SkillBase.obj
 0002:0016fef0       ??$construct@PEADAEAPEAD@?$_Wrap_alloc@V?$allocator@D@std@@@std@@QEAAXPEAPEADAEAPEAD@Z 0000000140232ef0 f i SkillBase.obj
 0002:0016ff70       ??$construct@PEADAEAPEAD@?$allocator@D@std@@QEAAXPEAPEADAEAPEAD@Z 0000000140232f70 f i SkillBase.obj
 0002:00170030       ??$construct@PEADAEAPEAD@?$allocator_traits@V?$allocator@D@std@@@std@@SAXAEAV?$allocator@D@1@PEAPEADAEAPEAD@Z 0000000140233030 f i SkillBase.obj
 0002:001700b0       ??$destroy@PEAD@?$_Wrap_alloc@V?$allocator@D@std@@@std@@QEAAXPEAPEAD@Z 00000001402330b0 f i SkillBase.obj
 0002:00170110       ??$destroy@PEAD@?$allocator@D@std@@QEAAXPEAPEAD@Z 0000000140233110 f i SkillBase.obj
 0002:00170160       ??$destroy@PEAD@?$allocator_traits@V?$allocator@D@std@@@std@@SAXAEAV?$allocator@D@1@PEAPEAD@Z 0000000140233160 f i SkillBase.obj
 0002:001701c0       ??$end@D$0BF@@std@@YAPEADAEAY0BF@D@Z 00000001402331c0 f i SkillBase.obj
 0002:00170210       ??$forward@AEAPEAD@std@@YAAEAPEADAEAPEAD@Z 0000000140233210 f i SkillBase.obj
 0002:00170260       ??$forward@AEAU?$_Wrap_alloc@V?$allocator@D@std@@@std@@@std@@YAAEAU?$_Wrap_alloc@V?$allocator@D@std@@@0@AEAU10@@Z 0000000140233260 f i SkillBase.obj
 0002:001702b0       ??$forward@AEBV?$allocator@D@std@@@std@@YAAEBV?$allocator@D@0@AEBV10@@Z 00000001402332b0 f i SkillBase.obj
 0002:00170300       ??$forward@U?$_Wrap_alloc@V?$allocator@D@std@@@std@@@std@@YA$$QEAU?$_Wrap_alloc@V?$allocator@D@std@@@0@AEAU10@@Z 0000000140233300 f i SkillBase.obj
 0002:00170350       ??$forward@V?$basic_string@DU?$char_traits@D@std@@V?$allocator@D@2@@std@@@std@@YA$$QEAV?$basic_string@DU?$char_traits@D@std@@V?$allocator@D@2@@0@AEAV10@@Z 0000000140233350 f i SkillBase.obj
 0002:001703a0       ??$move@AEAU?$_Wrap_alloc@V?$allocator@D@std@@@std@@@std@@YA$$QEAU?$_Wrap_alloc@V?$allocator@D@std@@@0@AEAU10@@Z 00000001402333a0 f i SkillBase.obj
 0002:001703f0       ??$move@AEAV?$basic_string@DU?$char_traits@D@std@@V?$allocator@D@2@@std@@@std@@YA$$QEAV?$basic_string@DU?$char_traits@D@std@@V?$allocator@D@2@@0@AEAV10@@Z 00000001402333f0 f i SkillBase.obj
 0002:00170440       ??0?$_String_val@U?$_Simple_types@D@std@@@std@@QEAA@XZ 0000000140233440 f i SkillBase.obj
 0002:001704f0       ??0?$_Wrap_alloc@V?$allocator@D@std@@@std@@QEAA@$$QEAU01@@Z 00000001402334f0 f i SkillBase.obj
 0002:00170570       ??0?$allocator@D@std@@QEAA@AEBV01@@Z 0000000140233570 f i SkillBase.obj
 0002:001705c0       ??0?$allocator@D@std@@QEAA@XZ 00000001402335c0 f i SkillBase.obj
 0002:00170610       ??0?$basic_string@DU?$char_traits@D@std@@V?$allocator@D@2@@std@@QEAA@$$QEAV01@@Z 0000000140233610 f i SkillBase.obj
 0002:001706e0       ??0CSkillBase@Client@@AEAA@AEBV01@@Z 00000001402336e0 f   SkillBase.obj
 0002:001708b0       ??0CSkillBase@Client@@AEAA@PEAUID3D11Device@@PEAUID3D11DeviceContext@@@Z 00000001402338b0 f   SkillBase.obj
 0002:00170a80       ??0_Bxty@?$_String_val@U?$_Simple_types@D@std@@@std@@QEAA@XZ 0000000140233a80 f i SkillBase.obj
 0002:00170ad0       ??1?$_Compressed_pair@U?$_Wrap_alloc@V?$allocator@D@std@@@std@@V?$_String_val@U?$_Simple_types@D@std@@@2@$00@std@@QEAA@XZ 0000000140233ad0 f i SkillBase.obj
 0002:00170b30       ??1?$_String_alloc@U?$_String_base_types@DV?$allocator@D@std@@@std@@@std@@QEAA@XZ 0000000140233b30 f i SkillBase.obj
 0002:00170bb0       ??1?$_String_val@U?$_Simple_types@D@std@@@std@@QEAA@XZ 0000000140233bb0 f i SkillBase.obj
 0002:00170c20       ??1?$basic_string@DU?$char_traits@D@std@@V?$allocator@D@2@@std@@QEAA@XZ 0000000140233c20 f i SkillBase.obj
 0002:00170ca0       ??1CSkillBase@Client@@EEAA@XZ 0000000140233ca0 f i SkillBase.obj
 0002:00170d00       ??1_Bxty@?$_String_val@U?$_Simple_types@D@std@@@std@@QEAA@XZ 0000000140233d00 f i SkillBase.obj
 0002:00170d40       ??_ECSkillBase@Client@@EEAAPEAXI@Z 0000000140233d40 f i SkillBase.obj
 0002:00170d40       ??_GCSkillBase@Client@@EEAAPEAXI@Z 0000000140233d40 f i SkillBase.obj
 0002:00170dd0       ?Add_Components@CSkillBase@Client@@IEAAJXZ 0000000140233dd0 f   SkillBase.obj
 0002:001713f0       ?Clone@CSkillBase@Client@@UEAAPEAVCGameObject@Engine@@PEAX@Z 00000001402343f0 f   SkillBase.obj
 0002:00171590       ?Create@CSkillBase@Client@@SAPEAV12@PEAUID3D11Device@@PEAUID3D11DeviceContext@@@Z 0000000140234590 f   SkillBase.obj
 0002:00171730       ?Free@CSkillBase@Client@@UEAAXXZ 0000000140234730 f   SkillBase.obj
 0002:00171810       ?Initialize@CSkillBase@Client@@UEAAJPEAX@Z 0000000140234810 f   SkillBase.obj
 0002:00171eb0       ?Initialize_Prototype@CSkillBase@Client@@UEAAJXZ 0000000140234eb0 f   SkillBase.obj
 0002:00171f20       ?LateTick@CSkillBase@Client@@UEAAXN@Z 0000000140234f20 f   SkillBase.obj
 0002:00171fe0       ?Render@CSkillBase@Client@@UEAAJXZ 0000000140234fe0 f   SkillBase.obj
 0002:00172250       ?RenderGUI@CSkillBase@Client@@UEAAXXZ 0000000140235250 f   SkillBase.obj
 0002:00172400       ?SetIndex@CSkillBase@Client@@QEAAXI@Z 0000000140235400 f   SkillBase.obj
 0002:001724a0       ?Setup_ShaderResources@CSkillBase@Client@@IEAAJXZ 00000001402354a0 f   SkillBase.obj
 0002:001725f0       ?Tick@CSkillBase@Client@@UEAAXN@Z 00000001402355f0 f   SkillBase.obj
 0002:00172f50       ?_Alloc_proxy@?$_String_alloc@U?$_String_base_types@DV?$allocator@D@std@@@std@@@std@@QEAAXXZ 0000000140235f50 f i SkillBase.obj
 0002:001730b0       ?_Assign_rv@?$basic_string@DU?$char_traits@D@std@@V?$allocator@D@2@@std@@QEAAX$$QEAV12@@Z 00000001402360b0 f i SkillBase.obj
 0002:00173280       ?_Bx@?$_String_alloc@U?$_String_base_types@DV?$allocator@D@std@@@std@@@std@@QEAAAEAT_Bxty@?$_String_val@U?$_Simple_types@D@std@@@2@XZ 0000000140236280 f i SkillBase.obj
 0002:001732e0       ?_Check_offset@?$basic_string@DU?$char_traits@D@std@@V?$allocator@D@2@@std@@QEBAX_K@Z 00000001402362e0 f i SkillBase.obj
 0002:00173360       ?_Clamp_suffix_size@?$basic_string@DU?$char_traits@D@std@@V?$allocator@D@2@@std@@QEBA_K_K0@Z 0000000140236360 f i SkillBase.obj
 0002:00173400       ?_Construct@?$basic_string@DU?$char_traits@D@std@@V?$allocator@D@2@@std@@QEAAXPEAD0Urandom_access_iterator_tag@2@@Z 0000000140236400 f i SkillBase.obj
 0002:001734a0       ?_Copy@?$basic_string@DU?$char_traits@D@std@@V?$allocator@D@2@@std@@QEAAX_K0@Z 00000001402364a0 f i SkillBase.obj
 0002:001737c0       ?_Eos@?$basic_string@DU?$char_traits@D@std@@V?$allocator@D@2@@std@@QEAAX_K@Z 00000001402367c0 f i SkillBase.obj
 0002:00173860       ?_Free_proxy@?$_String_alloc@U?$_String_base_types@DV?$allocator@D@std@@@std@@@std@@QEAAXXZ 0000000140236860 f i SkillBase.obj
 0002:00173980       ?_Get_data@?$_String_alloc@U?$_String_base_types@DV?$allocator@D@std@@@std@@@std@@QEAAAEAV?$_String_val@U?$_Simple_types@D@std@@@2@XZ 0000000140236980 f i SkillBase.obj
 0002:001739e0       ?_Get_data@?$_String_alloc@U?$_String_base_types@DV?$allocator@D@std@@@std@@@std@@QEBAAEBV?$_String_val@U?$_Simple_types@D@std@@@2@XZ 00000001402369e0 f i SkillBase.obj
 0002:00173a40       ?_Get_first@?$_Compressed_pair@U?$_Wrap_alloc@V?$allocator@D@std@@@std@@V?$_String_val@U?$_Simple_types@D@std@@@2@$00@std@@QEAAAEAU?$_Wrap_alloc@V?$allocator@D@std@@@2@XZ 0000000140236a40 f i SkillBase.obj
 0002:00173a90       ?_Get_first@?$_Compressed_pair@U?$_Wrap_alloc@V?$allocator@D@std@@@std@@V?$_String_val@U?$_Simple_types@D@std@@@2@$00@std@@QEBAAEBU?$_Wrap_alloc@V?$allocator@D@std@@@2@XZ 0000000140236a90 f i SkillBase.obj
 0002:00173ae0       ?_Get_second@?$_Compressed_pair@U?$_Wrap_alloc@V?$allocator@D@std@@@std@@V?$_String_val@U?$_Simple_types@D@std@@@2@$00@std@@QEAAAEAV?$_String_val@U?$_Simple_types@D@std@@@2@XZ 0000000140236ae0 f i SkillBase.obj
 0002:00173b30       ?_Get_second@?$_Compressed_pair@U?$_Wrap_alloc@V?$allocator@D@std@@@std@@V?$_String_val@U?$_Simple_types@D@std@@@2@$00@std@@QEBAAEBV?$_String_val@U?$_Simple_types@D@std@@@2@XZ 0000000140236b30 f i SkillBase.obj
 0002:00173b80       ?_Getal@?$_String_alloc@U?$_String_base_types@DV?$allocator@D@std@@@std@@@std@@QEAAAEAU?$_Wrap_alloc@V?$allocator@D@std@@@2@XZ 0000000140236b80 f i SkillBase.obj
 0002:00173be0       ?_Getal@?$_String_alloc@U?$_String_base_types@DV?$allocator@D@std@@@std@@@std@@QEBAAEBU?$_Wrap_alloc@V?$allocator@D@std@@@2@XZ 0000000140236be0 f i SkillBase.obj
 0002:00173c40       ?_Grow@?$basic_string@DU?$char_traits@D@std@@V?$allocator@D@2@@std@@QEAA_N_K_N@Z 0000000140236c40 f i SkillBase.obj
 0002:00173de0       ?_Inside@?$basic_string@DU?$char_traits@D@std@@V?$allocator@D@2@@std@@QEAA_NPEBD@Z 0000000140236de0 f i SkillBase.obj
 0002:00173ea0       ?_Myproxy@?$_String_alloc@U?$_String_base_types@DV?$allocator@D@std@@@std@@@std@@QEAAAEAPEAU_Container_proxy@2@XZ 0000000140236ea0 f i SkillBase.obj
 0002:00173ef0       ?_Myptr@?$_String_alloc@U?$_String_base_types@DV?$allocator@D@std@@@std@@@std@@QEAAPEADXZ 0000000140236ef0 f i SkillBase.obj
 0002:00173f50       ?_Myptr@?$_String_alloc@U?$_String_base_types@DV?$allocator@D@std@@@std@@@std@@QEBAPEBDXZ 0000000140236f50 f i SkillBase.obj
 0002:00173fb0       ?_Myptr@?$_String_val@U?$_Simple_types@D@std@@@std@@QEAAPEADXZ 0000000140236fb0 f i SkillBase.obj
 0002:00174050       ?_Myptr@?$_String_val@U?$_Simple_types@D@std@@@std@@QEBAPEBDXZ 0000000140237050 f i SkillBase.obj
 0002:001740f0       ?_Myres@?$_String_alloc@U?$_String_base_types@DV?$allocator@D@std@@@std@@@std@@QEAAAEA_KXZ 00000001402370f0 f i SkillBase.obj
 0002:00174150       ?_Mysize@?$_String_alloc@U?$_String_base_types@DV?$allocator@D@std@@@std@@@std@@QEAAAEA_KXZ 0000000140237150 f i SkillBase.obj
 0002:001741b0       ?_Mysize@?$_String_alloc@U?$_String_base_types@DV?$allocator@D@std@@@std@@@std@@QEBAAEB_KXZ 00000001402371b0 f i SkillBase.obj
 0002:00174210       ?_Orphan_all@?$_String_alloc@U?$_String_base_types@DV?$allocator@D@std@@@std@@@std@@QEAAXXZ 0000000140237210 f i SkillBase.obj
 0002:00174270       ?_Tidy@?$basic_string@DU?$char_traits@D@std@@V?$allocator@D@2@@std@@QEAAX_N_K@Z 0000000140237270 f i SkillBase.obj
 0002:00174420       ?_Xlen@?$basic_string@DU?$char_traits@D@std@@V?$allocator@D@2@@std@@QEBAXXZ 0000000140237420 f i SkillBase.obj
 0002:00174480       ?_Xran@?$basic_string@DU?$char_traits@D@std@@V?$allocator@D@2@@std@@QEBAXXZ 0000000140237480 f i SkillBase.obj
 0002:001744e0       ?allocate@?$_Wrap_alloc@V?$allocator@D@std@@@std@@QEAAPEAD_K@Z 00000001402374e0 f i SkillBase.obj
 0002:00174540       ?allocate@?$allocator@D@std@@QEAAPEAD_K@Z 0000000140237540 f i SkillBase.obj
 0002:001745a0       ?assign@?$basic_string@DU?$char_traits@D@std@@V?$allocator@D@2@@std@@QEAAAEAV12@AEBV12@_K1@Z 00000001402375a0 f i SkillBase.obj
 0002:00174730       ?assign@?$basic_string@DU?$char_traits@D@std@@V?$allocator@D@2@@std@@QEAAAEAV12@PEBD_K@Z 0000000140237730 f i SkillBase.obj
 0002:001748a0       ?assign@?$char_traits@D@std@@SAXAEADAEBD@Z 00000001402378a0 f i SkillBase.obj
 0002:00174900       ?c_str@?$basic_string@DU?$char_traits@D@std@@V?$allocator@D@2@@std@@QEBAPEBDXZ 0000000140237900 f i SkillBase.obj
 0002:00174960       ?copy@?$char_traits@D@std@@SAPEADPEADPEBD_K@Z 0000000140237960 f i SkillBase.obj
 0002:00174a00       ?deallocate@?$_Wrap_alloc@V?$allocator@D@std@@@std@@QEAAXPEAD_K@Z 0000000140237a00 f i SkillBase.obj
 0002:00174a70       ?deallocate@?$allocator@D@std@@QEAAXPEAD_K@Z 0000000140237a70 f i SkillBase.obj
 0002:00174ae0       ?erase@?$basic_string@DU?$char_traits@D@std@@V?$allocator@D@2@@std@@QEAAAEAV12@_K0@Z 0000000140237ae0 f i SkillBase.obj
 0002:00174c40       ?erase@?$basic_string@DU?$char_traits@D@std@@V?$allocator@D@2@@std@@QEAAAEAV12@_K@Z 0000000140237c40 f i SkillBase.obj
 0002:00174cc0       ?insert@?$basic_string@DU?$char_traits@D@std@@V?$allocator@D@2@@std@@QEAAAEAV12@_KAEBV12@00@Z 0000000140237cc0 f i SkillBase.obj
 0002:00174fc0       ?insert@?$basic_string@DU?$char_traits@D@std@@V?$allocator@D@2@@std@@QEAAAEAV12@_KPEBD0@Z 0000000140237fc0 f i SkillBase.obj
 0002:00175260       ?insert@?$basic_string@DU?$char_traits@D@std@@V?$allocator@D@2@@std@@QEAAAEAV12@_KPEBD@Z 0000000140238260 f i SkillBase.obj
 0002:00175300       ?length@?$char_traits@D@std@@SA_KPEBD@Z 0000000140238300 f i SkillBase.obj
 0002:00175390       ?max_size@?$_Wrap_alloc@V?$allocator@D@std@@@std@@QEBA_KU_Nil@2@@Z 0000000140238390 f i SkillBase.obj
 0002:001753f0       ?max_size@?$allocator@D@std@@QEBA_KXZ 00000001402383f0 f i SkillBase.obj
 0002:00175440       ?max_size@?$allocator_traits@V?$allocator@D@std@@@std@@SA_KAEBV?$allocator@D@2@@Z 0000000140238440 f i SkillBase.obj
 0002:00175490       ?max_size@?$basic_string@DU?$char_traits@D@std@@V?$allocator@D@2@@std@@QEBA_KXZ 0000000140238490 f i SkillBase.obj
 0002:00175530       ?move@?$char_traits@D@std@@SAPEADPEADPEBD_K@Z 0000000140238530 f i SkillBase.obj
 0002:001755e0       ?to_string@std@@YA?AV?$basic_string@DU?$char_traits@D@std@@V?$allocator@D@2@@1@H@Z 00000001402385e0 f i SkillBase.obj
 0002:00175670       ?to_string@std@@YA?AV?$basic_string@DU?$char_traits@D@std@@V?$allocator@D@2@@1@I@Z 0000000140238670 f i SkillBase.obj
 0002:00175700       ??$Safe_Release@PEAVCSkybox@Client@@@Engine@@YAKAEAPEAVCSkybox@Client@@@Z 0000000140238700 f i Skybox.obj
 0002:00175790       ??0CSkybox@Client@@AEAA@PEAUID3D11Device@@PEAUID3D11DeviceContext@@@Z 0000000140238790 f   Skybox.obj
 0002:00175880       ??0CSkybox@Client@@QEAA@AEBV01@@Z 0000000140238880 f i Skybox.obj
 0002:00175990       ??1CSkybox@Client@@EEAA@XZ 0000000140238990 f i Skybox.obj
 0002:001759f0       ??_GCSkybox@Client@@EEAAPEAXI@Z 00000001402389f0 f i Skybox.obj
 0002:001759f0       ??_ECSkybox@Client@@EEAAPEAXI@Z 00000001402389f0 f i Skybox.obj
 0002:00175a80       ?Add_Components@CSkybox@Client@@AEAAJXZ 0000000140238a80 f   Skybox.obj
 0002:00175c20       ?Clone@CSkybox@Client@@UEAAPEAVCGameObject@Engine@@PEAX@Z 0000000140238c20 f   Skybox.obj
 0002:00175d90       ?Create@CSkybox@Client@@SAPEAV12@PEAUID3D11Device@@PEAUID3D11DeviceContext@@@Z 0000000140238d90 f   Skybox.obj
 0002:00175f00       ?Free@CSkybox@Client@@UEAAXXZ 0000000140238f00 f   Skybox.obj
 0002:00175fc0       ?Initialize@CSkybox@Client@@UEAAJPEAX@Z 0000000140238fc0 f   Skybox.obj
 0002:00176050       ?Initialize_Prototype@CSkybox@Client@@UEAAJXZ 0000000140239050 f   Skybox.obj
 0002:001760c0       ?LateTick@CSkybox@Client@@UEAAXN@Z 00000001402390c0 f   Skybox.obj
 0002:001761d0       ?Render@CSkybox@Client@@UEAAJXZ 00000001402391d0 f   Skybox.obj
 0002:00176310       ?Setup_ShaderResources@CSkybox@Client@@AEAAJXZ 0000000140239310 f   Skybox.obj
 0002:00176460       ?Tick@CSkybox@Client@@UEAAXN@Z 0000000140239460 f   Skybox.obj
 0002:001764d0       ??$?0$$V@?$_Compressed_pair@U?$_Wrap_alloc@V?$allocator@PEAVCWall@Client@@@std@@@std@@V?$_Vector_val@U?$_Simple_types@PEAVCWall@Client@@@std@@@2@$00@std@@QEAA@U_Zero_then_variadic_args_t@1@@Z 00000001402394d0 f i StageCollisionManager.obj
 0002:00176540       ??$?0AEAU?$_Wrap_alloc@V?$allocator@PEAVCWall@Client@@@std@@@std@@@?$_Wrap_alloc@V?$allocator@U_Container_proxy@std@@@std@@@std@@QEAA@AEAU?$_Wrap_alloc@V?$allocator@PEAVCWall@Client@@@std@@@1@@Z 0000000140239540 f i StageCollisionManager.obj
 0002:001765c0       ??$?0PEAVCWall@Client@@@?$allocator@U_Container_proxy@std@@@std@@QEAA@AEBV?$allocator@PEAVCWall@Client@@@1@@Z 00000001402395c0 f i StageCollisionManager.obj
 0002:00176610       ??$Safe_Release@PEAVCWall@Client@@@Engine@@YAKAEAPEAVCWall@Client@@@Z 0000000140239610 f i StageCollisionManager.obj
 0002:001766a0       ??$_Copy_memmove@PEAPEAVCWall@Client@@PEAPEAV12@@std@@YAPEAPEAVCWall@Client@@PEAPEAV12@00@Z 00000001402396a0 f i StageCollisionManager.obj
 0002:00176760       ??$_Destroy_range1@V?$allocator@PEAVCWall@Client@@@std@@PEAPEAVCWall@Client@@@std@@YAXPEAPEAVCWall@Client@@0AEAU?$_Wrap_alloc@V?$allocator@PEAVCWall@Client@@@std@@@0@U?$integral_constant@_N$00@0@@Z 0000000140239760 f i StageCollisionManager.obj
 0002:001767c0       ??$_Destroy_range@V?$allocator@PEAVCWall@Client@@@std@@PEAPEAVCWall@Client@@@std@@YAXPEAPEAVCWall@Client@@0AEAU?$_Wrap_alloc@V?$allocator@PEAVCWall@Client@@@std@@@0@@Z 00000001402397c0 f i StageCollisionManager.obj
 0002:00176840       ??$_Integral_to_string@_W_K@std@@YA?AV?$basic_string@_WU?$char_traits@_W@std@@V?$allocator@_W@2@@0@_K@Z 0000000140239840 f i StageCollisionManager.obj
 0002:001769b0       ??$_Ptr_move_cat@PEAVCWall@Client@@PEAV12@@std@@YA?AU_Really_trivial_ptr_iterator_tag@0@AEBQEAPEAVCWall@Client@@0@Z 00000001402399b0 f i StageCollisionManager.obj
 0002:00176a10       ??$_Rechecked@PEAPEAVCWall@Client@@PEAPEAV12@@std@@YAAEAPEAPEAVCWall@Client@@AEAPEAPEAV12@PEAPEAV12@@Z 0000000140239a10 f i StageCollisionManager.obj
 0002:00176a80       ??$_UIntegral_to_buff@_W_K@std@@YAPEA_WPEA_W_K@Z 0000000140239a80 f i StageCollisionManager.obj
 0002:00176b40       ??$_Umove@PEAPEAVCWall@Client@@@?$vector@PEAVCWall@Client@@V?$allocator@PEAVCWall@Client@@@std@@@std@@IEAAPEAPEAVCWall@Client@@PEAPEAV23@00@Z 0000000140239b40 f i StageCollisionManager.obj
 0002:00176bd0       ??$_Unchecked@PEAPEAVCWall@Client@@@std@@YAPEAPEAVCWall@Client@@PEAPEAV12@@Z 0000000140239bd0 f i StageCollisionManager.obj
 0002:00176c20       ??$_Unfancy@PEAVCWall@Client@@@std@@YAPEAPEAVCWall@Client@@PEAPEAV12@@Z 0000000140239c20 f i StageCollisionManager.obj
 0002:00176c70       ??$_Uninitialized_move@PEAPEAVCWall@Client@@PEAPEAV12@V?$allocator@PEAVCWall@Client@@@std@@@std@@YAPEAPEAVCWall@Client@@PEAPEAV12@00AEAU?$_Wrap_alloc@V?$allocator@PEAVCWall@Client@@@std@@@0@@Z 0000000140239c70 f i StageCollisionManager.obj
 0002:00176d50       ??$_Uninitialized_move_al_unchecked1@PEAVCWall@Client@@PEAV12@V?$allocator@PEAVCWall@Client@@@std@@@std@@YAPEAPEAVCWall@Client@@PEAPEAV12@00AEAU?$_Wrap_alloc@V?$allocator@PEAVCWall@Client@@@std@@@0@U_Really_trivial_ptr_iterator_tag@0@U?$integral_constant@_N$00@0@@Z 0000000140239d50 f i StageCollisionManager.obj
 0002:00176dd0       ??$_Uninitialized_move_al_unchecked@PEAPEAVCWall@Client@@PEAPEAV12@V?$allocator@PEAVCWall@Client@@@std@@@std@@YAPEAPEAVCWall@Client@@PEAPEAV12@00AEAU?$_Wrap_alloc@V?$allocator@PEAVCWall@Client@@@std@@@0@@Z 0000000140239dd0 f i StageCollisionManager.obj
 0002:00176e90       ??$addressof@$$CBUtagCubeDesc@CWall@Client@@@std@@YAPEBUtagCubeDesc@CWall@Client@@AEBU123@@Z 0000000140239e90 f i StageCollisionManager.obj
 0002:00176ee0       ??$addressof@QEAVCWall@Client@@@std@@YAPEBQEAVCWall@Client@@AEBQEAV12@@Z 0000000140239ee0 f i StageCollisionManager.obj
 0002:00176f30       ??$construct@PEAVCWall@Client@@AEAPEAV12@@?$_Wrap_alloc@V?$allocator@PEAVCWall@Client@@@std@@@std@@QEAAXPEAPEAVCWall@Client@@AEAPEAV23@@Z 0000000140239f30 f i StageCollisionManager.obj
 0002:00176fb0       ??$construct@PEAVCWall@Client@@AEAPEAV12@@?$allocator@PEAVCWall@Client@@@std@@QEAAXPEAPEAVCWall@Client@@AEAPEAV23@@Z 0000000140239fb0 f i StageCollisionManager.obj
 0002:00177070       ??$construct@PEAVCWall@Client@@AEAPEAV12@@?$allocator_traits@V?$allocator@PEAVCWall@Client@@@std@@@std@@SAXAEAV?$allocator@PEAVCWall@Client@@@1@PEAPEAVCWall@Client@@AEAPEAV34@@Z 000000014023a070 f i StageCollisionManager.obj
 0002:001770f0       ??$construct@PEAVCWall@Client@@AEBQEAV12@@?$_Wrap_alloc@V?$allocator@PEAVCWall@Client@@@std@@@std@@QEAAXPEAPEAVCWall@Client@@AEBQEAV23@@Z 000000014023a0f0 f i StageCollisionManager.obj
 0002:00177170       ??$construct@PEAVCWall@Client@@AEBQEAV12@@?$allocator@PEAVCWall@Client@@@std@@QEAAXPEAPEAVCWall@Client@@AEBQEAV23@@Z 000000014023a170 f i StageCollisionManager.obj
 0002:00177230       ??$construct@PEAVCWall@Client@@AEBQEAV12@@?$allocator_traits@V?$allocator@PEAVCWall@Client@@@std@@@std@@SAXAEAV?$allocator@PEAVCWall@Client@@@1@PEAPEAVCWall@Client@@AEBQEAV34@@Z 000000014023a230 f i StageCollisionManager.obj
 0002:001772b0       ??$construct@UtagCubeDesc@CWall@Client@@AEAU123@@?$_Wrap_alloc@V?$allocator@UtagCubeDesc@CWall@Client@@@std@@@std@@QEAAXPEAUtagCubeDesc@CWall@Client@@AEAU234@@Z 000000014023a2b0 f i StageCollisionManager.obj
 0002:00177330       ??$construct@UtagCubeDesc@CWall@Client@@AEAU123@@?$allocator@UtagCubeDesc@CWall@Client@@@std@@QEAAXPEAUtagCubeDesc@CWall@Client@@AEAU234@@Z 000000014023a330 f i StageCollisionManager.obj
 0002:001773f0       ??$construct@UtagCubeDesc@CWall@Client@@AEAU123@@?$allocator_traits@V?$allocator@UtagCubeDesc@CWall@Client@@@std@@@std@@SAXAEAV?$allocator@UtagCubeDesc@CWall@Client@@@1@PEAUtagCubeDesc@CWall@Client@@AEAU345@@Z 000000014023a3f0 f i StageCollisionManager.obj
 0002:00177470       ??$construct@UtagCubeDesc@CWall@Client@@AEBU123@@?$_Wrap_alloc@V?$allocator@UtagCubeDesc@CWall@Client@@@std@@@std@@QEAAXPEAUtagCubeDesc@CWall@Client@@AEBU234@@Z 000000014023a470 f i StageCollisionManager.obj
 0002:001774f0       ??$construct@UtagCubeDesc@CWall@Client@@AEBU123@@?$allocator@UtagCubeDesc@CWall@Client@@@std@@QEAAXPEAUtagCubeDesc@CWall@Client@@AEBU234@@Z 000000014023a4f0 f i StageCollisionManager.obj
 0002:001775b0       ??$construct@UtagCubeDesc@CWall@Client@@AEBU123@@?$allocator_traits@V?$allocator@UtagCubeDesc@CWall@Client@@@std@@@std@@SAXAEAV?$allocator@UtagCubeDesc@CWall@Client@@@1@PEAUtagCubeDesc@CWall@Client@@AEBU345@@Z 000000014023a5b0 f i StageCollisionManager.obj
 0002:00177630       ??$forward@AEAPEAVCWall@Client@@@std@@YAAEAPEAVCWall@Client@@AEAPEAV12@@Z 000000014023a630 f i StageCollisionManager.obj
 0002:00177680       ??$forward@AEAU?$_Wrap_alloc@V?$allocator@PEAVCWall@Client@@@std@@@std@@@std@@YAAEAU?$_Wrap_alloc@V?$allocator@PEAVCWall@Client@@@std@@@0@AEAU10@@Z 000000014023a680 f i StageCollisionManager.obj
 0002:001776d0       ??$forward@AEAUtagCubeDesc@CWall@Client@@@std@@YAAEAUtagCubeDesc@CWall@Client@@AEAU123@@Z 000000014023a6d0 f i StageCollisionManager.obj
 0002:00177720       ??$forward@AEBQEAVCWall@Client@@@std@@YAAEBQEAVCWall@Client@@AEBQEAV12@@Z 000000014023a720 f i StageCollisionManager.obj
 0002:00177770       ??$forward@AEBUtagCubeDesc@CWall@Client@@@std@@YAAEBUtagCubeDesc@CWall@Client@@AEBU123@@Z 000000014023a770 f i StageCollisionManager.obj
 0002:001777c0       ??0?$_Iterator012@Urandom_access_iterator_tag@std@@PEAVCWall@Client@@_JPEBQEAV34@AEBQEAV34@U_Iterator_base12@2@@std@@QEAA@XZ 000000014023a7c0 f i StageCollisionManager.obj
 0002:00177820       ??0?$_Vector_alloc@U?$_Vec_base_types@PEAVCWall@Client@@V?$allocator@PEAVCWall@Client@@@std@@@std@@@std@@QEAA@XZ 000000014023a820 f i StageCollisionManager.obj
 0002:001778b0       ??0?$_Vector_const_iterator@V?$_Vector_val@U?$_Simple_types@PEAVCWall@Client@@@std@@@std@@@std@@QEAA@PEAPEAVCWall@Client@@PEBU_Container_base12@1@@Z 000000014023a8b0 f i StageCollisionManager.obj
 0002:00177960       ??0?$_Vector_iterator@V?$_Vector_val@U?$_Simple_types@PEAVCWall@Client@@@std@@@std@@@std@@QEAA@PEAPEAVCWall@Client@@PEBU_Container_base12@1@@Z 000000014023a960 f i StageCollisionManager.obj
 0002:001779e0       ??0?$_Vector_val@U?$_Simple_types@PEAVCWall@Client@@@std@@@std@@QEAA@XZ 000000014023a9e0 f i StageCollisionManager.obj
 0002:00177a80       ??0?$_Wrap_alloc@V?$allocator@PEAVCWall@Client@@@std@@@std@@QEAA@XZ 000000014023aa80 f i StageCollisionManager.obj
 0002:00177ae0       ??0?$allocator@PEAVCWall@Client@@@std@@QEAA@XZ 000000014023aae0 f i StageCollisionManager.obj
 0002:00177b30       ??0?$vector@PEAVCWall@Client@@V?$allocator@PEAVCWall@Client@@@std@@@std@@QEAA@XZ 000000014023ab30 f i StageCollisionManager.obj
 0002:00177ba0       ??0CStageCollisionManager@Client@@AEAA@XZ 000000014023aba0 f i StageCollisionManager.obj
 0002:00177c50       ??0tagCubeDesc@CWall@Client@@QEAA@XZ 000000014023ac50 f i StageCollisionManager.obj
 0002:00177ce0       ??1?$_Compressed_pair@U?$_Wrap_alloc@V?$allocator@PEAVCWall@Client@@@std@@@std@@V?$_Vector_val@U?$_Simple_types@PEAVCWall@Client@@@std@@@2@$00@std@@QEAA@XZ 000000014023ace0 f i StageCollisionManager.obj
 0002:00177d40       ??1?$_Iterator012@Urandom_access_iterator_tag@std@@PEAVCWall@Client@@_JPEBQEAV34@AEBQEAV34@U_Iterator_base12@2@@std@@QEAA@XZ 000000014023ad40 f i StageCollisionManager.obj
 0002:00177d90       ??1?$_Vector_alloc@U?$_Vec_base_types@PEAVCWall@Client@@V?$allocator@PEAVCWall@Client@@@std@@@std@@@std@@QEAA@XZ 000000014023ad90 f i StageCollisionManager.obj
 0002:00177e10       ??1?$_Vector_const_iterator@V?$_Vector_val@U?$_Simple_types@PEAVCWall@Client@@@std@@@std@@@std@@QEAA@XZ 000000014023ae10 f i StageCollisionManager.obj
 0002:00177e60       ??1?$_Vector_iterator@V?$_Vector_val@U?$_Simple_types@PEAVCWall@Client@@@std@@@std@@@std@@QEAA@XZ 000000014023ae60 f i StageCollisionManager.obj
 0002:00177eb0       ??1?$_Vector_val@U?$_Simple_types@PEAVCWall@Client@@@std@@@std@@QEAA@XZ 000000014023aeb0 f i StageCollisionManager.obj
 0002:00177f00       ??1?$vector@PEAVCWall@Client@@V?$allocator@PEAVCWall@Client@@@std@@@std@@QEAA@XZ 000000014023af00 f i StageCollisionManager.obj
 0002:00177f70       ??1CStageCollisionManager@Client@@EEAA@XZ 000000014023af70 f i StageCollisionManager.obj
 0002:00177fe0       ??8?$_Vector_const_iterator@V?$_Vector_val@U?$_Simple_types@PEAVCWall@Client@@@std@@@std@@@std@@QEBA_NAEBV01@@Z 000000014023afe0 f i StageCollisionManager.obj
 0002:00178090       ??9?$_Vector_const_iterator@V?$_Vector_val@U?$_Simple_types@PEAVCWall@Client@@@std@@@std@@@std@@QEBA_NAEBV01@@Z 000000014023b090 f i StageCollisionManager.obj
 0002:00178120       ??A?$vector@PEAVCWall@Client@@V?$allocator@PEAVCWall@Client@@@std@@@std@@QEAAAEAPEAVCWall@Client@@_K@Z 000000014023b120 f i StageCollisionManager.obj
 0002:00178260       ??D?$_Vector_const_iterator@V?$_Vector_val@U?$_Simple_types@PEAVCWall@Client@@@std@@@std@@@std@@QEBAAEBQEAVCWall@Client@@XZ 000000014023b260 f i StageCollisionManager.obj
 0002:001783d0       ??D?$_Vector_iterator@V?$_Vector_val@U?$_Simple_types@PEAVCWall@Client@@@std@@@std@@@std@@QEBAAEAPEAVCWall@Client@@XZ 000000014023b3d0 f i StageCollisionManager.obj
 0002:00178420       ??E?$_Vector_const_iterator@V?$_Vector_val@U?$_Simple_types@PEAVCWall@Client@@@std@@@std@@@std@@QEAAAEAV01@XZ 000000014023b420 f i StageCollisionManager.obj
 0002:00178590       ??E?$_Vector_iterator@V?$_Vector_val@U?$_Simple_types@PEAVCWall@Client@@@std@@@std@@@std@@QEAAAEAV01@XZ 000000014023b590 f i StageCollisionManager.obj
 0002:001785f0       ??_ECStageCollisionManager@Client@@EEAAPEAXI@Z 000000014023b5f0 f i StageCollisionManager.obj
 0002:001785f0       ??_GCStageCollisionManager@Client@@EEAAPEAXI@Z 000000014023b5f0 f i StageCollisionManager.obj
 0002:00178680       ?AddWall@CStageCollisionManager@Client@@QEAAXPEAUID3D11Device@@PEAUID3D11DeviceContext@@@Z 000000014023b680 f   StageCollisionManager.obj
 0002:00178870       ?DeleteObject@CStageCollisionManager@Client@@QEAAXXZ 000000014023b870 f   StageCollisionManager.obj
 0002:001788b0       ?DestroyInstance@CStageCollisionManager@Client@@SAKXZ 000000014023b8b0 f   StageCollisionManager.obj
 0002:00178930       ?Free@CStageCollisionManager@Client@@UEAAXXZ 000000014023b930 f   StageCollisionManager.obj
 0002:00178a90       ?GetDesc@CWall@Client@@QEAAAEAUtagCubeDesc@12@XZ 000000014023ba90 f i StageCollisionManager.obj
 0002:00178ae0       ?GetInstance@CStageCollisionManager@Client@@SAPEAV12@XZ 000000014023bae0 f   StageCollisionManager.obj
 0002:00178ba0       ?LoadCollisionData@CStageCollisionManager@Client@@SAJPEB_WPEAV?$vector@UtagCubeDesc@CWall@Client@@V?$allocator@UtagCubeDesc@CWall@Client@@@std@@@std@@PEAI@Z 000000014023bba0 f   StageCollisionManager.obj
 0002:00178e30       ?RenderGUI@CStageCollisionManager@Client@@QEAAXXZ 000000014023be30 f   StageCollisionManager.obj
 0002:00179250       ?SaveCollisionData@CStageCollisionManager@Client@@QEAAJXZ 000000014023c250 f   StageCollisionManager.obj
 0002:00179650       ?Tick@CStageCollisionManager@Client@@QEAAXN@Z 000000014023c650 f   StageCollisionManager.obj
 0002:00179b70       ?_Alloc_proxy@?$_Vector_alloc@U?$_Vec_base_types@PEAVCWall@Client@@V?$allocator@PEAVCWall@Client@@@std@@@std@@@std@@QEAAXXZ 000000014023cb70 f i StageCollisionManager.obj
 0002:00179cd0       ?_Compat@?$_Vector_const_iterator@V?$_Vector_val@U?$_Simple_types@PEAVCWall@Client@@@std@@@std@@@std@@QEBAXAEBV12@@Z 000000014023ccd0 f i StageCollisionManager.obj
 0002:00179e10       ?_Destroy@?$vector@PEAVCWall@Client@@V?$allocator@PEAVCWall@Client@@@std@@@std@@IEAAXPEAPEAVCWall@Client@@0@Z 000000014023ce10 f i StageCollisionManager.obj
 0002:00179e90       ?_Free_proxy@?$_Vector_alloc@U?$_Vec_base_types@PEAVCWall@Client@@V?$allocator@PEAVCWall@Client@@@std@@@std@@@std@@QEAAXXZ 000000014023ce90 f i StageCollisionManager.obj
 0002:00179fb0       ?_Get_data@?$_Vector_alloc@U?$_Vec_base_types@PEAVCWall@Client@@V?$allocator@PEAVCWall@Client@@@std@@@std@@@std@@QEAAAEAV?$_Vector_val@U?$_Simple_types@PEAVCWall@Client@@@std@@@2@XZ 000000014023cfb0 f i StageCollisionManager.obj
 0002:0017a010       ?_Get_data@?$_Vector_alloc@U?$_Vec_base_types@PEAVCWall@Client@@V?$allocator@PEAVCWall@Client@@@std@@@std@@@std@@QEBAAEBV?$_Vector_val@U?$_Simple_types@PEAVCWall@Client@@@std@@@2@XZ 000000014023d010 f i StageCollisionManager.obj
 0002:0017a070       ?_Get_first@?$_Compressed_pair@U?$_Wrap_alloc@V?$allocator@PEAVCWall@Client@@@std@@@std@@V?$_Vector_val@U?$_Simple_types@PEAVCWall@Client@@@std@@@2@$00@std@@QEAAAEAU?$_Wrap_alloc@V?$allocator@PEAVCWall@Client@@@std@@@2@XZ 000000014023d070 f i StageCollisionManager.obj
 0002:0017a0c0       ?_Get_first@?$_Compressed_pair@U?$_Wrap_alloc@V?$allocator@PEAVCWall@Client@@@std@@@std@@V?$_Vector_val@U?$_Simple_types@PEAVCWall@Client@@@std@@@2@$00@std@@QEBAAEBU?$_Wrap_alloc@V?$allocator@PEAVCWall@Client@@@std@@@2@XZ 000000014023d0c0 f i StageCollisionManager.obj
 0002:0017a110       ?_Get_second@?$_Compressed_pair@U?$_Wrap_alloc@V?$allocator@PEAVCWall@Client@@@std@@@std@@V?$_Vector_val@U?$_Simple_types@PEAVCWall@Client@@@std@@@2@$00@std@@QEAAAEAV?$_Vector_val@U?$_Simple_types@PEAVCWall@Client@@@std@@@2@XZ 000000014023d110 f i StageCollisionManager.obj
 0002:0017a160       ?_Get_second@?$_Compressed_pair@U?$_Wrap_alloc@V?$allocator@PEAVCWall@Client@@@std@@@std@@V?$_Vector_val@U?$_Simple_types@PEAVCWall@Client@@@std@@@2@$00@std@@QEBAAEBV?$_Vector_val@U?$_Simple_types@PEAVCWall@Client@@@std@@@2@XZ 000000014023d160 f i StageCollisionManager.obj
 0002:0017a1b0       ?_Getal@?$_Vector_alloc@U?$_Vec_base_types@PEAVCWall@Client@@V?$allocator@PEAVCWall@Client@@@std@@@std@@@std@@QEAAAEAU?$_Wrap_alloc@V?$allocator@PEAVCWall@Client@@@std@@@2@XZ 000000014023d1b0 f i StageCollisionManager.obj
 0002:0017a210       ?_Getal@?$_Vector_alloc@U?$_Vec_base_types@PEAVCWall@Client@@V?$allocator@PEAVCWall@Client@@@std@@@std@@@std@@QEBAAEBU?$_Wrap_alloc@V?$allocator@PEAVCWall@Client@@@std@@@2@XZ 000000014023d210 f i StageCollisionManager.obj
 0002:0017a270       ?_Getpfirst@?$_Vector_alloc@U?$_Vec_base_types@PEAVCWall@Client@@V?$allocator@PEAVCWall@Client@@@std@@@std@@@std@@QEBAPEAPEAU_Iterator_base12@2@XZ 000000014023d270 f i StageCollisionManager.obj
 0002:0017a2d0       ?_Getpfirst@?$_Vector_alloc@U?$_Vec_base_types@UtagCubeDesc@CWall@Client@@V?$allocator@UtagCubeDesc@CWall@Client@@@std@@@std@@@std@@QEBAPEAPEAU_Iterator_base12@2@XZ 000000014023d2d0 f i StageCollisionManager.obj
 0002:0017a330       ?_Grow_to@?$vector@PEAVCWall@Client@@V?$allocator@PEAVCWall@Client@@@std@@@std@@IEBA_K_K@Z 000000014023d330 f i StageCollisionManager.obj
 0002:0017a440       ?_Grow_to@?$vector@UtagCubeDesc@CWall@Client@@V?$allocator@UtagCubeDesc@CWall@Client@@@std@@@std@@IEBA_K_K@Z 000000014023d440 f i StageCollisionManager.obj
 0002:0017a550       ?_Inside@?$vector@PEAVCWall@Client@@V?$allocator@PEAVCWall@Client@@@std@@@std@@IEBA_NPEBQEAVCWall@Client@@@Z 000000014023d550 f i StageCollisionManager.obj
 0002:0017a610       ?_Inside@?$vector@UtagCubeDesc@CWall@Client@@V?$allocator@UtagCubeDesc@CWall@Client@@@std@@@std@@IEBA_NPEBUtagCubeDesc@CWall@Client@@@Z 000000014023d610 f i StageCollisionManager.obj
 0002:0017a6d0       ?_Myend@?$_Vector_alloc@U?$_Vec_base_types@PEAVCWall@Client@@V?$allocator@PEAVCWall@Client@@@std@@@std@@@std@@QEAAAEAPEAPEAVCWall@Client@@XZ 000000014023d6d0 f i StageCollisionManager.obj
 0002:0017a730       ?_Myend@?$_Vector_alloc@U?$_Vec_base_types@PEAVCWall@Client@@V?$allocator@PEAVCWall@Client@@@std@@@std@@@std@@QEBAAEBQEAPEAVCWall@Client@@XZ 000000014023d730 f i StageCollisionManager.obj
 0002:0017a790       ?_Myfirst@?$_Vector_alloc@U?$_Vec_base_types@PEAVCWall@Client@@V?$allocator@PEAVCWall@Client@@@std@@@std@@@std@@QEAAAEAPEAPEAVCWall@Client@@XZ 000000014023d790 f i StageCollisionManager.obj
 0002:0017a7f0       ?_Myfirst@?$_Vector_alloc@U?$_Vec_base_types@PEAVCWall@Client@@V?$allocator@PEAVCWall@Client@@@std@@@std@@@std@@QEBAAEBQEAPEAVCWall@Client@@XZ 000000014023d7f0 f i StageCollisionManager.obj
 0002:0017a850       ?_Mylast@?$_Vector_alloc@U?$_Vec_base_types@PEAVCWall@Client@@V?$allocator@PEAVCWall@Client@@@std@@@std@@@std@@QEAAAEAPEAPEAVCWall@Client@@XZ 000000014023d850 f i StageCollisionManager.obj
 0002:0017a8b0       ?_Mylast@?$_Vector_alloc@U?$_Vec_base_types@PEAVCWall@Client@@V?$allocator@PEAVCWall@Client@@@std@@@std@@@std@@QEBAAEBQEAPEAVCWall@Client@@XZ 000000014023d8b0 f i StageCollisionManager.obj
 0002:0017a910       ?_Myproxy@?$_Vector_alloc@U?$_Vec_base_types@PEAVCWall@Client@@V?$allocator@PEAVCWall@Client@@@std@@@std@@@std@@QEAAAEAPEAU_Container_proxy@2@XZ 000000014023d910 f i StageCollisionManager.obj
 0002:0017a960       ?_Orphan_all@?$_Vector_alloc@U?$_Vec_base_types@PEAVCWall@Client@@V?$allocator@PEAVCWall@Client@@@std@@@std@@@std@@QEAAXXZ 000000014023d960 f i StageCollisionManager.obj
 0002:0017a9c0       ?_Orphan_range@?$vector@PEAVCWall@Client@@V?$allocator@PEAVCWall@Client@@@std@@@std@@IEBAXPEAPEAVCWall@Client@@0@Z 000000014023d9c0 f i StageCollisionManager.obj
 0002:0017ab20       ?_Orphan_range@?$vector@UtagCubeDesc@CWall@Client@@V?$allocator@UtagCubeDesc@CWall@Client@@@std@@@std@@IEBAXPEAUtagCubeDesc@CWall@Client@@0@Z 000000014023db20 f i StageCollisionManager.obj
 0002:0017ac80       ?_Reallocate@?$vector@PEAVCWall@Client@@V?$allocator@PEAVCWall@Client@@@std@@@std@@IEAAX_K@Z 000000014023dc80 f i StageCollisionManager.obj
 0002:0017aef0       ?_Reserve@?$vector@PEAVCWall@Client@@V?$allocator@PEAVCWall@Client@@@std@@@std@@IEAAX_K@Z 000000014023def0 f i StageCollisionManager.obj
 0002:0017afe0       ?_Reserve@?$vector@UtagCubeDesc@CWall@Client@@V?$allocator@UtagCubeDesc@CWall@Client@@@std@@@std@@IEAAX_K@Z 000000014023dfe0 f i StageCollisionManager.obj
 0002:0017b0d0       ?_Tidy@?$vector@PEAVCWall@Client@@V?$allocator@PEAVCWall@Client@@@std@@@std@@IEAAXXZ 000000014023e0d0 f i StageCollisionManager.obj
 0002:0017b260       ?_Unused_capacity@?$vector@PEAVCWall@Client@@V?$allocator@PEAVCWall@Client@@@std@@@std@@QEBA_KXZ 000000014023e260 f i StageCollisionManager.obj
 0002:0017b2f0       ?_Unused_capacity@?$vector@UtagCubeDesc@CWall@Client@@V?$allocator@UtagCubeDesc@CWall@Client@@@std@@@std@@QEBA_KXZ 000000014023e2f0 f i StageCollisionManager.obj
 0002:0017b380       ?_Xlen@?$vector@PEAVCWall@Client@@V?$allocator@PEAVCWall@Client@@@std@@@std@@IEBAXXZ 000000014023e380 f i StageCollisionManager.obj
 0002:0017b3e0       ?__autoclassinit2@?$_Vector_iterator@V?$_Vector_val@U?$_Simple_types@PEAVCWall@Client@@@std@@@std@@@std@@QEAAX_K@Z 000000014023e3e0 f i StageCollisionManager.obj
 0002:0017b440       ?allocate@?$_Wrap_alloc@V?$allocator@PEAVCWall@Client@@@std@@@std@@QEAAPEAPEAVCWall@Client@@_K@Z 000000014023e440 f i StageCollisionManager.obj
 0002:0017b4a0       ?allocate@?$allocator@PEAVCWall@Client@@@std@@QEAAPEAPEAVCWall@Client@@_K@Z 000000014023e4a0 f i StageCollisionManager.obj
 0002:0017b500       ?begin@?$vector@PEAVCWall@Client@@V?$allocator@PEAVCWall@Client@@@std@@@std@@QEAA?AV?$_Vector_iterator@V?$_Vector_val@U?$_Simple_types@PEAVCWall@Client@@@std@@@std@@@2@XZ 000000014023e500 f i StageCollisionManager.obj
 0002:0017b5b0       ?capacity@?$vector@PEAVCWall@Client@@V?$allocator@PEAVCWall@Client@@@std@@@std@@QEBA_KXZ 000000014023e5b0 f i StageCollisionManager.obj
 0002:0017b640       ?clear@?$vector@PEAVCWall@Client@@V?$allocator@PEAVCWall@Client@@@std@@@std@@QEAAXXZ 000000014023e640 f i StageCollisionManager.obj
 0002:0017b730       ?deallocate@?$_Wrap_alloc@V?$allocator@PEAVCWall@Client@@@std@@@std@@QEAAXPEAPEAVCWall@Client@@_K@Z 000000014023e730 f i StageCollisionManager.obj
 0002:0017b7a0       ?deallocate@?$allocator@PEAVCWall@Client@@@std@@QEAAXPEAPEAVCWall@Client@@_K@Z 000000014023e7a0 f i StageCollisionManager.obj
 0002:0017b810       ?empty@?$vector@PEAVCWall@Client@@V?$allocator@PEAVCWall@Client@@@std@@@std@@QEBA_NXZ 000000014023e810 f i StageCollisionManager.obj
 0002:0017b8b0       ?end@?$vector@PEAVCWall@Client@@V?$allocator@PEAVCWall@Client@@@std@@@std@@QEAA?AV?$_Vector_iterator@V?$_Vector_val@U?$_Simple_types@PEAVCWall@Client@@@std@@@std@@@2@XZ 000000014023e8b0 f i StageCollisionManager.obj
 0002:0017b960       ?max_size@?$_Wrap_alloc@V?$allocator@PEAVCWall@Client@@@std@@@std@@QEBA_KU_Nil@2@@Z 000000014023e960 f i StageCollisionManager.obj
 0002:0017b9c0       ?max_size@?$allocator@PEAVCWall@Client@@@std@@QEBA_KXZ 000000014023e9c0 f i StageCollisionManager.obj
 0002:0017ba10       ?max_size@?$allocator_traits@V?$allocator@PEAVCWall@Client@@@std@@@std@@SA_KAEBV?$allocator@PEAVCWall@Client@@@2@@Z 000000014023ea10 f i StageCollisionManager.obj
 0002:0017ba60       ?max_size@?$vector@PEAVCWall@Client@@V?$allocator@PEAVCWall@Client@@@std@@@std@@QEBA_KXZ 000000014023ea60 f i StageCollisionManager.obj
 0002:0017bad0       ?push_back@?$vector@PEAVCWall@Client@@V?$allocator@PEAVCWall@Client@@@std@@@std@@QEAAXAEBQEAVCWall@Client@@@Z 000000014023ead0 f i StageCollisionManager.obj
 0002:0017be00       ?push_back@?$vector@UtagCubeDesc@CWall@Client@@V?$allocator@UtagCubeDesc@CWall@Client@@@std@@@std@@QEAAXAEBUtagCubeDesc@CWall@Client@@@Z 000000014023ee00 f i StageCollisionManager.obj
 0002:0017c130       ?size@?$vector@PEAVCWall@Client@@V?$allocator@PEAVCWall@Client@@@std@@@std@@QEBA_KXZ 000000014023f130 f i StageCollisionManager.obj
 0002:0017c1c0       ?to_wstring@std@@YA?AV?$basic_string@_WU?$char_traits@_W@std@@V?$allocator@_W@2@@1@_K@Z 000000014023f1c0 f i StageCollisionManager.obj
 0002:0017c250       ??$Safe_Release@PEAVCGameObject@Engine@@@Engine@@YAKAEAPEAVCGameObject@0@@Z 000000014023f250 f i Wall.obj
 0002:0017c2e0       ??$Safe_Release@PEAVCOBBCollider@Engine@@@Engine@@YAKAEAPEAVCOBBCollider@0@@Z 000000014023f2e0 f i Wall.obj
 0002:0017c370       ??0CWall@Client@@IEAA@AEBVCGameObject@Engine@@@Z 000000014023f370 f   Wall.obj
 0002:0017c4a0       ??0CWall@Client@@IEAA@PEAUID3D11Device@@PEAUID3D11DeviceContext@@@Z 000000014023f4a0 f   Wall.obj
 0002:0017c5e0       ??0CWall@Client@@QEAA@AEBV01@@Z 000000014023f5e0 f i Wall.obj
 0002:0017c700       ??1CWall@Client@@MEAA@XZ   000000014023f700 f i Wall.obj
 0002:0017c760       ??_GCWall@Client@@MEAAPEAXI@Z 000000014023f760 f i Wall.obj
 0002:0017c760       ??_ECWall@Client@@MEAAPEAXI@Z 000000014023f760 f i Wall.obj
 0002:0017c7f0       ?AddComponents@CWall@Client@@AEAAJXZ 000000014023f7f0 f   Wall.obj
 0002:0017ca80       ?Clone@CWall@Client@@UEAAPEAVCGameObject@Engine@@PEAX@Z 000000014023fa80 f   Wall.obj
 0002:0017cc00       ?Create@CWall@Client@@SAPEAV12@PEAUID3D11Device@@PEAUID3D11DeviceContext@@@Z 000000014023fc00 f   Wall.obj
 0002:0017cd70       ?Free@CWall@Client@@UEAAXXZ 000000014023fd70 f   Wall.obj
 0002:0017ce00       ?GetDepth@CWall@Client@@QEAAMXZ 000000014023fe00 f   Wall.obj
 0002:0017ce80       ?GetNormal@CWall@Client@@QEAA?AT__m128@@T3@PEAM@Z 000000014023fe80 f   Wall.obj
 0002:0017d1e0       ?GetPosition@CWall@Client@@QEAA?AT__m128@@XZ 00000001402401e0 f   Wall.obj
 0002:0017d2c0       ?Initialize@CWall@Client@@UEAAJPEAX@Z 00000001402402c0 f   Wall.obj
 0002:0017d970       ?Initialize_Prototype@CWall@Client@@UEAAJXZ 0000000140240970 f   Wall.obj
 0002:0017d9c0       ?LateTick@CWall@Client@@UEAAXN@Z 00000001402409c0 f   Wall.obj
 0002:0017da10       ?Render@CWall@Client@@UEAAJXZ 0000000140240a10 f   Wall.obj
 0002:0017da60       ?RenderGUI@CWall@Client@@UEAAXXZ 0000000140240a60 f   Wall.obj
 0002:0017daa0       ?SetPosition@CWall@Client@@QEAAXUXMFLOAT3@DirectX@@@Z 0000000140240aa0 f   Wall.obj
 0002:0017db70       ?SetRotation@CWall@Client@@QEAAXUXMFLOAT3@DirectX@@@Z 0000000140240b70 f   Wall.obj
 0002:0017dc30       ?SetScale@CWall@Client@@QEAAXUXMFLOAT3@DirectX@@@Z 0000000140240c30 f   Wall.obj
 0002:0017dcf0       ?Tick@CWall@Client@@UEAAXN@Z 0000000140240cf0 f   Wall.obj
 0002:0017de20       ??$Safe_Release@PEAVCWeapon@Client@@@Engine@@YAKAEAPEAVCWeapon@Client@@@Z 0000000140240e20 f i Weapon.obj
 0002:0017deb0       ??0CWeapon@Client@@AEAA@PEAUID3D11Device@@PEAUID3D11DeviceContext@@@Z 0000000140240eb0 f   Weapon.obj
 0002:0017dfa0       ??0CWeapon@Client@@QEAA@AEBV01@@Z 0000000140240fa0 f i Weapon.obj
 0002:0017e0e0       ??1CWeapon@Client@@EEAA@XZ 00000001402410e0 f i Weapon.obj
 0002:0017e140       ??_ECWeapon@Client@@EEAAPEAXI@Z 0000000140241140 f i Weapon.obj
 0002:0017e140       ??_GCWeapon@Client@@EEAAPEAXI@Z 0000000140241140 f i Weapon.obj
 0002:0017e1d0       ?AddComponents@CWeapon@Client@@AEAAJXZ 00000001402411d0 f   Weapon.obj
 0002:0017e370       ?Clone@CWeapon@Client@@UEAAPEAVCGameObject@Engine@@PEAX@Z 0000000140241370 f   Weapon.obj
 0002:0017e4e0       ?Create@CWeapon@Client@@SAPEAV12@PEAUID3D11Device@@PEAUID3D11DeviceContext@@@Z 00000001402414e0 f   Weapon.obj
 0002:0017e650       ?Free@CWeapon@Client@@UEAAXXZ 0000000140241650 f   Weapon.obj
 0002:0017e710       ?Initialize@CWeapon@Client@@UEAAJPEAX@Z 0000000140241710 f   Weapon.obj
 0002:0017e7e0       ?Initialize_Prototype@CWeapon@Client@@UEAAJXZ 00000001402417e0 f   Weapon.obj
 0002:0017e850       ?LateTick@CWeapon@Client@@UEAAXN@Z 0000000140241850 f   Weapon.obj
 0002:0017ed80       ?Render@CWeapon@Client@@UEAAJXZ 0000000140241d80 f   Weapon.obj
 0002:0017eec0       ?RenderGUI@CWeapon@Client@@UEAAXXZ 0000000140241ec0 f   Weapon.obj
 0002:0017ef00       ?SetupShaderResources@CWeapon@Client@@AEAAJXZ 0000000140241f00 f   Weapon.obj
 0002:0017f1f0       ?Tick@CWeapon@Client@@UEAAXN@Z 00000001402421f0 f   Weapon.obj
 0002:0017f260       ??$Safe_Release@PEAVCTerrain@Client@@@Engine@@YAKAEAPEAVCTerrain@Client@@@Z 0000000140242260 f i Terrain.obj
 0002:0017f2f0       ??$Safe_Release@PEAVCVIBuffer_Terrain@Engine@@@Engine@@YAKAEAPEAVCVIBuffer_Terrain@0@@Z 00000001402422f0 f i Terrain.obj
 0002:0017f380       ??0CTerrain@Client@@IEAA@AEBV01@@Z 0000000140242380 f   Terrain.obj
 0002:0017f470       ??0CTerrain@Client@@IEAA@PEAUID3D11Device@@PEAUID3D11DeviceContext@@@Z 0000000140242470 f   Terrain.obj
 0002:0017f570       ??1CTerrain@Client@@MEAA@XZ 0000000140242570 f i Terrain.obj
 0002:0017f5d0       ??_ECTerrain@Client@@MEAAPEAXI@Z 00000001402425d0 f i Terrain.obj
 0002:0017f5d0       ??_GCTerrain@Client@@MEAAPEAXI@Z 00000001402425d0 f i Terrain.obj
 0002:0017f660       ?Add_Components@CTerrain@Client@@AEAAJXZ 0000000140242660 f   Terrain.obj
 0002:0017f8e0       ?Clone@CTerrain@Client@@UEAAPEAVCGameObject@Engine@@PEAX@Z 00000001402428e0 f   Terrain.obj
 0002:0017fa50       ?Create@CTerrain@Client@@SAPEAV12@PEAUID3D11Device@@PEAUID3D11DeviceContext@@@Z 0000000140242a50 f   Terrain.obj
 0002:0017fbc0       ?Free@CTerrain@Client@@UEAAXXZ 0000000140242bc0 f   Terrain.obj
 0002:0017fca0       ?Initialize@CTerrain@Client@@UEAAJPEAX@Z 0000000140242ca0 f   Terrain.obj
 0002:0017fd30       ?Initialize_Prototype@CTerrain@Client@@UEAAJXZ 0000000140242d30 f   Terrain.obj
 0002:0017fda0       ?LateTick@CTerrain@Client@@UEAAXN@Z 0000000140242da0 f   Terrain.obj
 0002:0017fe40       ?Render@CTerrain@Client@@UEAAJXZ 0000000140242e40 f   Terrain.obj
 0002:0017fef0       ?Setup_ShaderResources@CTerrain@Client@@AEAAJXZ 0000000140242ef0 f   Terrain.obj
 0002:001800e0       ?Tick@CTerrain@Client@@UEAAXN@Z 00000001402430e0 f   Terrain.obj
 0002:00180150       ?InitInstance@@YAHPEAUHINSTANCE__@@H@Z 0000000140243150 f   Client.obj
 0002:00180300       ?MyRegisterClass@@YAGPEAUHINSTANCE__@@@Z 0000000140243300 f   Client.obj
 0002:00180440       ?WndProc@@YA_JPEAUHWND__@@I_K_J@Z 0000000140243440 f   Client.obj
 0002:001805b0       wWinMain                   00000001402435b0 f   Client.obj
 0002:001808c2       ??0CBase@Engine@@QEAA@XZ   00000001402438c2 f   Engine:Engine.dll
 0002:001808c8       ??1CBase@Engine@@UEAA@XZ   00000001402438c8 f   Engine:Engine.dll
 0002:001808ce       ?AddRef@CBase@Engine@@QEAAKXZ 00000001402438ce f   Engine:Engine.dll
 0002:001808d4       ?Release@CBase@Engine@@QEAAKXZ 00000001402438d4 f   Engine:Engine.dll
 0002:001808da       ?Create@CVIBuffer_Rect@Engine@@SAPEAV12@PEAUID3D11Device@@PEAUID3D11DeviceContext@@@Z 00000001402438da f   Engine:Engine.dll
 0002:001808e0       ?Create@CTransform@Engine@@SAPEAV12@PEAUID3D11Device@@PEAUID3D11DeviceContext@@@Z 00000001402438e0 f   Engine:Engine.dll
 0002:001808e6       ?Draw@CRenderer@Engine@@QEAAXXZ 00000001402438e6 f   Engine:Engine.dll
 0002:001808ec       ?Create@CRenderer@Engine@@SAPEAV12@PEAUID3D11Device@@PEAUID3D11DeviceContext@@@Z 00000001402438ec f   Engine:Engine.dll
 0002:001808f2       ?Create@CTexture@Engine@@SAPEAV12@PEAUID3D11Device@@PEAUID3D11DeviceContext@@PEB_WI@Z 00000001402438f2 f   Engine:Engine.dll
 0002:001808f8       ?Create@CShader@Engine@@SAPEAV12@PEAUID3D11Device@@PEAUID3D11DeviceContext@@PEB_WPEAUD3D11_INPUT_ELEMENT_DESC@@I@Z 00000001402438f8 f   Engine:Engine.dll
 0002:001808fe       ?GetInstance@CGameInstance@Engine@@SAPEAV12@XZ 00000001402438fe f   Engine:Engine.dll
 0002:00180904       ?Engine_Initialize@CGameInstance@Engine@@QEAAJAEBUtagGraphic_Desc@2@IPEAPEAUID3D11Device@@PEAPEAUID3D11DeviceContext@@@Z 0000000140243904 f   Engine:Engine.dll
 0002:0018090a       ?Engine_Tick@CGameInstance@Engine@@QEAAJN@Z 000000014024390a f   Engine:Engine.dll
 0002:00180910       ?Clear_RenderTargetView@CGameInstance@Engine@@QEAAJUXMFLOAT4@DirectX@@@Z 0000000140243910 f   Engine:Engine.dll
 0002:00180916       ?Clear_DepthStencilView@CGameInstance@Engine@@QEAAJXZ 0000000140243916 f   Engine:Engine.dll
 0002:0018091c       ?Present@CGameInstance@Engine@@QEAAJXZ 000000014024391c f   Engine:Engine.dll
 0002:00180922       ?Open_Level@CGameInstance@Engine@@QEAAJIPEAVCLevel@2@@Z 0000000140243922 f   Engine:Engine.dll
 0002:00180928       ?RenderLevelUI@CGameInstance@Engine@@QEAAXXZ 0000000140243928 f   Engine:Engine.dll
 0002:0018092e       ?Add_Prototype@CGameInstance@Engine@@QEAAJPEB_WPEAVCGameObject@2@@Z 000000014024392e f   Engine:Engine.dll
 0002:00180934       ?RenderGUI@CGameInstance@Engine@@QEAAXXZ 0000000140243934 f   Engine:Engine.dll
 0002:0018093a       ?Add_Prototype@CGameInstance@Engine@@QEAAJIPEB_WPEAVCComponent@2@@Z 000000014024393a f   Engine:Engine.dll
 0002:00180940       ?CollisionRender@CGameInstance@Engine@@QEAAXXZ 0000000140243940 f   Engine:Engine.dll
 0002:00180946       ?Engine_Release@CGameInstance@Engine@@SAXXZ 0000000140243946 f   Engine:Engine.dll
 0002:0018094c       ??0CGameObject@Engine@@IEAA@PEAUID3D11Device@@PEAUID3D11DeviceContext@@@Z 000000014024394c f   Engine:Engine.dll
 0002:00180952       ??0CGameObject@Engine@@IEAA@AEBV01@@Z 0000000140243952 f   Engine:Engine.dll
 0002:00180958       ??1CGameObject@Engine@@MEAA@XZ 0000000140243958 f   Engine:Engine.dll
 0002:0018095e       ?Initialize_Prototype@CGameObject@Engine@@UEAAJXZ 000000014024395e f   Engine:Engine.dll
 0002:00180964       ?Initialize@CGameObject@Engine@@UEAAJPEAX@Z 0000000140243964 f   Engine:Engine.dll
 0002:0018096a       ?Tick@CGameObject@Engine@@UEAAXN@Z 000000014024396a f   Engine:Engine.dll
 0002:00180970       ?LateTick@CGameObject@Engine@@UEAAXN@Z 0000000140243970 f   Engine:Engine.dll
 0002:00180976       ?Render@CGameObject@Engine@@UEAAJXZ 0000000140243976 f   Engine:Engine.dll
 0002:0018097c       ?Add_Component@CGameObject@Engine@@IEAAJIPEB_W0PEAPEAVCComponent@2@PEAX@Z 000000014024397c f   Engine:Engine.dll
 0002:00180982       ?Free@CGameObject@Engine@@UEAAXXZ 0000000140243982 f   Engine:Engine.dll
 0002:00180988       ?Render@CVIBuffer@Engine@@UEAAJXZ 0000000140243988 f   Engine:Engine.dll
 0002:0018098e       ?Add_RenderGroup@CRenderer@Engine@@QEAAJW4RENDER_GROUP@12@PEAVCGameObject@2@@Z 000000014024398e f   Engine:Engine.dll
 0002:00180994       ?Setup_ShaderResource@CTexture@Engine@@QEAAJPEAVCShader@2@PEBDI@Z 0000000140243994 f   Engine:Engine.dll
 0002:0018099a       ?Begin@CShader@Engine@@QEAAJI@Z 000000014024399a f   Engine:Engine.dll
 0002:001809a0       ?SetMatrix@CShader@Engine@@QEAAJPEBDPEBUXMFLOAT4X4@DirectX@@@Z 00000001402439a0 f   Engine:Engine.dll
 0002:001809a6       ?Destroy@CGameObject@Engine@@QEAAXXZ 00000001402439a6 f   Engine:Engine.dll
 0002:001809ac       ?Add_GameObject@CGameInstance@Engine@@QEAAPEAVCGameObject@2@IPEB_W0V?$basic_string@_WU?$char_traits@_W@std@@V?$allocator@_W@2@@std@@PEAX@Z 00000001402439ac f   Engine:Engine.dll
 0002:001809b2       ?Get_State@CTransform@Engine@@QEAA?AT__m128@@W4STATE@12@@Z 00000001402439b2 f   Engine:Engine.dll
 0002:001809b8       ?MoveForward@CTransform@Engine@@QEAAXN@Z 00000001402439b8 f   Engine:Engine.dll
 0002:001809be       ?MoveBackward@CTransform@Engine@@QEAAXN@Z 00000001402439be f   Engine:Engine.dll
 0002:001809c4       ?MoveRight@CTransform@Engine@@QEAAXN@Z 00000001402439c4 f   Engine:Engine.dll
 0002:001809ca       ?MoveLeft@CTransform@Engine@@QEAAXN@Z 00000001402439ca f   Engine:Engine.dll
 0002:001809d0       ?Rotate@CTransform@Engine@@QEAAXT__m128@@N@Z 00000001402439d0 f   Engine:Engine.dll
 0002:001809d6       ??0CCamera@Engine@@IEAA@PEAUID3D11Device@@PEAUID3D11DeviceContext@@@Z 00000001402439d6 f   Engine:Engine.dll
 0002:001809dc       ??0CCamera@Engine@@IEAA@AEBV01@@Z 00000001402439dc f   Engine:Engine.dll
 0002:001809e2       ??1CCamera@Engine@@MEAA@XZ 00000001402439e2 f   Engine:Engine.dll
 0002:001809e8       ?Initialize_Prototype@CCamera@Engine@@UEAAJXZ 00000001402439e8 f   Engine:Engine.dll
 0002:001809ee       ?Initialize@CCamera@Engine@@UEAAJPEAX@Z 00000001402439ee f   Engine:Engine.dll
 0002:001809f4       ?Tick@CCamera@Engine@@UEAAXN@Z 00000001402439f4 f   Engine:Engine.dll
 0002:001809fa       ?LateTick@CCamera@Engine@@UEAAXN@Z 00000001402439fa f   Engine:Engine.dll
 0002:00180a00       ?Free@CCamera@Engine@@UEAAXXZ 0000000140243a00 f   Engine:Engine.dll
 0002:00180a06       ?Input_KeyState_Custom@CGameInstance@Engine@@QEAA?AW4KEY_STATE@2@H@Z 0000000140243a06 f   Engine:Engine.dll
 0002:00180a0c       ?Input_MouseState_Custom@CGameInstance@Engine@@QEAA?AW4KEY_STATE@2@W4MOUSE_KEYSTATE@2@@Z 0000000140243a0c f   Engine:Engine.dll
 0002:00180a12       ?Input_MouseMove@CGameInstance@Engine@@QEAAJW4MOUSE_MOVESTATE@2@@Z 0000000140243a12 f   Engine:Engine.dll
 0002:00180a18       ?RenderGUI@CGameObject@Engine@@UEAAXXZ 0000000140243a18 f   Engine:Engine.dll
 0002:00180a1e       ?Find_Component@CGameObject@Engine@@QEAAPEAVCComponent@2@PEB_W@Z 0000000140243a1e f   Engine:Engine.dll
 0002:00180a24       ?SetState@CGameObject@Engine@@QEAAXW4STATE@12@@Z 0000000140243a24 f   Engine:Engine.dll
 0002:00180a2a       ?IsDestroy@CGameObject@Engine@@QEAA_NXZ 0000000140243a2a f   Engine:Engine.dll
 0002:00180a30       ?SetActive@CCollider@Engine@@QEAAX_N@Z 0000000140243a30 f   Engine:Engine.dll
 0002:00180a36       ?Compare@CCollider@Engine@@QEAA_NPEAV12@@Z 0000000140243a36 f   Engine:Engine.dll
 0002:00180a3c       ?GetOwner@CCollider@Engine@@QEBAPEAVCGameObject@2@XZ 0000000140243a3c f   Engine:Engine.dll
 0002:00180a42       ??0IOnCollisionEnter@Engine@@QEAA@XZ 0000000140243a42 f   Engine:Engine.dll
 0002:00180a48       ??0IOnCollisionStay@Engine@@QEAA@XZ 0000000140243a48 f   Engine:Engine.dll
 0002:00180a4e       ??0IOnCollisionExit@Engine@@QEAA@XZ 0000000140243a4e f   Engine:Engine.dll
 0002:00180a54       ?Setup_ShaderMaterialResource@CModel@Engine@@QEAAJPEAVCShader@2@PEBDIW4aiTextureType@@@Z 0000000140243a54 f   Engine:Engine.dll
 0002:00180a5a       ?Setup_BoneMatrices@CModel@Engine@@QEAAJPEAVCShader@2@PEBDI@Z 0000000140243a5a f   Engine:Engine.dll
 0002:00180a60       ?Setup_Animation@CModel@Engine@@QEAAJIW4TYPE@CAnimation@2@_N@Z 0000000140243a60 f   Engine:Engine.dll
 0002:00180a66       ?Play_Animation@CModel@Engine@@QEAAJNPEAVCTransform@2@N_N@Z 0000000140243a66 f   Engine:Engine.dll
 0002:00180a6c       ?Render@CModel@Engine@@QEAAJI@Z 0000000140243a6c f   Engine:Engine.dll
 0002:00180a72       ?GetMeshName@CModel@Engine@@QEAAPEBDI@Z 0000000140243a72 f   Engine:Engine.dll
 0002:00180a78       ?Get_MeshCount@CModel@Engine@@QEAAIXZ 0000000140243a78 f   Engine:Engine.dll
 0002:00180a7e       ?GetBonePtr@CModel@Engine@@QEAAPEAVCBone@2@PEBD@Z 0000000140243a7e f   Engine:Engine.dll
 0002:00180a84       ?GetLocalMatrix@CModel@Engine@@QEBA?AUXMFLOAT4X4@DirectX@@XZ 0000000140243a84 f   Engine:Engine.dll
 0002:00180a8a       ?AnimationCompare@CModel@Engine@@QEBA_NI@Z 0000000140243a8a f   Engine:Engine.dll
 0002:00180a90       ?AnimationIsFinish@CModel@Engine@@QEAA_NXZ 0000000140243a90 f   Engine:Engine.dll
 0002:00180a96       ?AnimationIsFinishEx@CModel@Engine@@QEAA_NXZ 0000000140243a96 f   Engine:Engine.dll
 0002:00180a9c       ?AnimationIsPreFinish@CModel@Engine@@QEAA_NXZ 0000000140243a9c f   Engine:Engine.dll
 0002:00180aa2       ?AnimationIsPreFinishEx@CModel@Engine@@QEAA_NXZ 0000000140243aa2 f   Engine:Engine.dll
 0002:00180aa8       ?AnimationReset@CModel@Engine@@QEAAXXZ 0000000140243aa8 f   Engine:Engine.dll
 0002:00180aae       ?Get_WorldMatrix@CTransform@Engine@@QEAA?AUXMFLOAT4X4@DirectX@@XZ 0000000140243aae f   Engine:Engine.dll
 0002:00180ab4       ?Set_State@CTransform@Engine@@QEAAXW4STATE@12@T__m128@@@Z 0000000140243ab4 f   Engine:Engine.dll
 0002:00180aba       ?LookAt@CTransform@Engine@@QEAAXT__m128@@@Z 0000000140243aba f   Engine:Engine.dll
 0002:00180ac0       ?Chase@CTransform@Engine@@QEAAXT__m128@@NM@Z 0000000140243ac0 f   Engine:Engine.dll
 0002:00180ac6       ?Setup_ShaderResource@CTransform@Engine@@QEAAJPEAVCShader@2@PEBD@Z 0000000140243ac6 f   Engine:Engine.dll
 0002:00180acc       ?SetRawValue@CShader@Engine@@QEAAJPEBDPEBXI@Z 0000000140243acc f   Engine:Engine.dll
 0002:00180ad2       ?Get_Transform_float4x4@CGameInstance@Engine@@QEAA?AUXMFLOAT4X4@DirectX@@W4TRANSFORM_STATE@CPipeLine@2@@Z 0000000140243ad2 f   Engine:Engine.dll
 0002:00180ad8       ?Get_CamPosition@CGameInstance@Engine@@QEAA?AUXMFLOAT4@DirectX@@XZ 0000000140243ad8 f   Engine:Engine.dll
 0002:00180ade       ?GetLightDesc@CGameInstance@Engine@@QEAAPEBUtagLight_Desc@2@I@Z 0000000140243ade f   Engine:Engine.dll
 0002:00180ae4       ?AddCollider@CGameInstance@Engine@@QEAAJPEAVCCollider@2@I@Z 0000000140243ae4 f   Engine:Engine.dll
 0002:00180aea       ?GetTimer@CGameInstance@Engine@@QEAAMPEB_W@Z 0000000140243aea f   Engine:Engine.dll
 0002:00180af0       ?Set_Scale@CTransform@Engine@@QEAAXUXMFLOAT3@DirectX@@@Z 0000000140243af0 f   Engine:Engine.dll
 0002:00180af6       ?Compare@CGameObject@Engine@@QEAA_NPEAV12@@Z 0000000140243af6 f   Engine:Engine.dll
 0002:00180afc       ?IsDisable@CGameObject@Engine@@QEAA_NXZ 0000000140243afc f   Engine:Engine.dll
 0002:00180b02       ?HitColliderReset@CCollider@Engine@@QEAAXXZ 0000000140243b02 f   Engine:Engine.dll
 0002:00180b08       ?SetColor@CCollider@Engine@@QEAAXUXMFLOAT4@DirectX@@@Z 0000000140243b08 f   Engine:Engine.dll
 0002:00180b0e       ?SetCollision@CCollider@Engine@@QEAAX_N@Z 0000000140243b0e f   Engine:Engine.dll
 0002:00180b14       ?AnimationIsPreFinishCustom@CModel@Engine@@QEAA_NN@Z 0000000140243b14 f   Engine:Engine.dll
 0002:00180b1a       ?Get_Transform_Matrix_Inverse@CGameInstance@Engine@@QEAA?AUXMMATRIX@DirectX@@W4TRANSFORM_STATE@CPipeLine@2@@Z 0000000140243b1a f   Engine:Engine.dll
 0002:00180b20       ?CreateTimer@CGameInstance@Engine@@QEAAJPEB_W@Z 0000000140243b20 f   Engine:Engine.dll
 0002:00180b26       ??0CLevel@Engine@@IEAA@PEAUID3D11Device@@PEAUID3D11DeviceContext@@@Z 0000000140243b26 f   Engine:Engine.dll
 0002:00180b2c       ??1CLevel@Engine@@MEAA@XZ  0000000140243b2c f   Engine:Engine.dll
 0002:00180b32       ?Free@CLevel@Engine@@UEAAXXZ 0000000140243b32 f   Engine:Engine.dll
 0002:00180b38       ?AddLight@CGameInstance@Engine@@QEAAJPEAUID3D11Device@@PEAUID3D11DeviceContext@@AEBUtagLight_Desc@2@@Z 0000000140243b38 f   Engine:Engine.dll
 0002:00180b3e       ?RenderLevelUI@CLevel@Engine@@UEAAXXZ 0000000140243b3e f   Engine:Engine.dll
 0002:00180b44       ?Find_Layer@CGameInstance@Engine@@QEAAPEAVCLayer@2@IPEB_W@Z 0000000140243b44 f   Engine:Engine.dll
 0002:00180b4a       ?Initialize@CLevel@Engine@@UEAAJXZ 0000000140243b4a f   Engine:Engine.dll
 0002:00180b50       ?Create@CModel@Engine@@SAPEAV12@PEAUID3D11Device@@PEAUID3D11DeviceContext@@W4MESH_TYPE@12@PEBDUXMMATRIX@DirectX@@I@Z 0000000140243b50 f   Engine:Engine.dll
 0002:00180b56       ?Create@COBBCollider@Engine@@SAPEAV12@PEAUID3D11Device@@PEAUID3D11DeviceContext@@@Z 0000000140243b56 f   Engine:Engine.dll
 0002:00180b5c       ?Create@CSphereCollider@Engine@@SAPEAV12@PEAUID3D11Device@@PEAUID3D11DeviceContext@@@Z 0000000140243b5c f   Engine:Engine.dll
 0002:00180b62       ?Create@CVIBuffer_Terrain@Engine@@SAPEAV12@PEAUID3D11Device@@PEAUID3D11DeviceContext@@PEB_W@Z 0000000140243b62 f   Engine:Engine.dll
 0002:00180b68       ?StartShake@CCamera@Engine@@QEAAXMM@Z 0000000140243b68 f   Engine:Engine.dll
 0002:00180b6e       ?SetVisible@CCollider@Engine@@QEAAX_N@Z 0000000140243b6e f   Engine:Engine.dll
 0002:00180b74       ?Update@COBBCollider@Engine@@UEAAXUXMMATRIX@DirectX@@@Z 0000000140243b74 f   Engine:Engine.dll
 0002:00180b7a       ?Get_Scale@CTransform@Engine@@QEAA?AUXMFLOAT3@DirectX@@XZ 0000000140243b7a f   Engine:Engine.dll
 0002:00180b80       ?SetRotationXYZ@CTransform@Engine@@QEAAXUXMFLOAT3@DirectX@@@Z 0000000140243b80 f   Engine:Engine.dll
 0002:00180b86       ?Set_WorldMatrix@CTransform@Engine@@QEAAXUXMFLOAT4X4@DirectX@@@Z 0000000140243b86 f   Engine:Engine.dll
 0002:00180b8c       ?GetInstance@CPipeLine@Engine@@SAPEAV12@XZ 0000000140243b8c f   Engine:Engine.dll
 0002:00180b92       ?Get_Transform_float4x4@CPipeLine@Engine@@QEAA?AUXMFLOAT4X4@DirectX@@W4TRANSFORM_STATE@12@@Z 0000000140243b92 f   Engine:Engine.dll
 0002:00180b98       ?SetTimer@CGameInstance@Engine@@QEAAXPEB_W@Z 0000000140243b98 f   Engine:Engine.dll
 0002:00180b9e       GlobalAlloc                0000000140243b9e f   kernel32:KERNEL32.dll
 0002:00180ba4       GlobalLock                 0000000140243ba4 f   kernel32:KERNEL32.dll
 0002:00180baa       GlobalUnlock               0000000140243baa f   kernel32:KERNEL32.dll
 0002:00180bb0       GlobalFree                 0000000140243bb0 f   kernel32:KERNEL32.dll
 0002:00180bb6       MultiByteToWideChar        0000000140243bb6 f   kernel32:KERNEL32.dll
 0002:00180bbc       WideCharToMultiByte        0000000140243bbc f   kernel32:KERNEL32.dll
 0002:00180bc2       VerSetConditionMask        0000000140243bc2 f   kernel32:KERNEL32.dll
 0002:00180bc8       QueryPerformanceCounter    0000000140243bc8 f   kernel32:KERNEL32.dll
 0002:00180bce       QueryPerformanceFrequency  0000000140243bce f   kernel32:KERNEL32.dll
 0002:00180bd4       FreeLibrary                0000000140243bd4 f   kernel32:KERNEL32.dll
 0002:00180bda       GetModuleHandleA           0000000140243bda f   kernel32:KERNEL32.dll
 0002:00180be0       GetProcAddress             0000000140243be0 f   kernel32:KERNEL32.dll
 0002:00180be6       LoadLibraryA               0000000140243be6 f   kernel32:KERNEL32.dll
 0002:00180bec       CloseHandle                0000000140243bec f   kernel32:KERNEL32.dll
 0002:00180bf2       InitializeCriticalSection  0000000140243bf2 f   kernel32:KERNEL32.dll
 0002:00180bf8       EnterCriticalSection       0000000140243bf8 f   kernel32:KERNEL32.dll
 0002:00180bfe       LeaveCriticalSection       0000000140243bfe f   kernel32:KERNEL32.dll
 0002:00180c04       DeleteCriticalSection      0000000140243c04 f   kernel32:KERNEL32.dll
 0002:00180c0a       WaitForSingleObject        0000000140243c0a f   kernel32:KERNEL32.dll
 0002:00180c10       CreateFileW                0000000140243c10 f   kernel32:KERNEL32.dll
 0002:00180c16       ReadFile                   0000000140243c16 f   kernel32:KERNEL32.dll
 0002:00180c1c       WriteFile                  0000000140243c1c f   kernel32:KERNEL32.dll
 0002:00180c22       lstrcpyW                   0000000140243c22 f   kernel32:KERNEL32.dll
 0002:00180c28       OpenClipboard              0000000140243c28 f   user32:USER32.dll
 0002:00180c2e       CloseClipboard             0000000140243c2e f   user32:USER32.dll
 0002:00180c34       SetClipboardData           0000000140243c34 f   user32:USER32.dll
 0002:00180c3a       GetClipboardData           0000000140243c3a f   user32:USER32.dll
 0002:00180c40       EmptyClipboard             0000000140243c40 f   user32:USER32.dll
 0002:00180c46       TrackMouseEvent            0000000140243c46 f   user32:USER32.dll
 0002:00180c4c       GetKeyState                0000000140243c4c f   user32:USER32.dll
 0002:00180c52       GetCapture                 0000000140243c52 f   user32:USER32.dll
 0002:00180c58       SetCapture                 0000000140243c58 f   user32:USER32.dll
 0002:00180c5e       ReleaseCapture             0000000140243c5e f   user32:USER32.dll
 0002:00180c64       IsWindowUnicode            0000000140243c64 f   user32:USER32.dll
 0002:00180c6a       GetForegroundWindow        0000000140243c6a f   user32:USER32.dll
 0002:00180c70       GetDC                      0000000140243c70 f   user32:USER32.dll
 0002:00180c76       ReleaseDC                  0000000140243c76 f   user32:USER32.dll
 0002:00180c7c       GetClientRect              0000000140243c7c f   user32:USER32.dll
 0002:00180c82       SetCursorPos               0000000140243c82 f   user32:USER32.dll
 0002:00180c88       SetCursor                  0000000140243c88 f   user32:USER32.dll
 0002:00180c8e       GetCursorPos               0000000140243c8e f   user32:USER32.dll
 0002:00180c94       ClientToScreen             0000000140243c94 f   user32:USER32.dll
 0002:00180c9a       ScreenToClient             0000000140243c9a f   user32:USER32.dll
 0002:00180ca0       LoadCursorW                0000000140243ca0 f   user32:USER32.dll
 0002:00180ca6       MonitorFromWindow          0000000140243ca6 f   user32:USER32.dll
 0002:00180cac       SetProcessDPIAware         0000000140243cac f   user32:USER32.dll
 0002:00180cb2       MessageBoxW                0000000140243cb2 f   user32:USER32.dll
 0002:00180cb8       SetWindowTextW             0000000140243cb8 f   user32:USER32.dll
 0002:00180cbe       LoadStringW                0000000140243cbe f   user32:USER32.dll
 0002:00180cc4       TranslateMessage           0000000140243cc4 f   user32:USER32.dll
 0002:00180cca       DispatchMessageW           0000000140243cca f   user32:USER32.dll
 0002:00180cd0       PeekMessageW               0000000140243cd0 f   user32:USER32.dll
 0002:00180cd6       DefWindowProcW             0000000140243cd6 f   user32:USER32.dll
 0002:00180cdc       PostQuitMessage            0000000140243cdc f   user32:USER32.dll
 0002:00180ce2       RegisterClassExW           0000000140243ce2 f   user32:USER32.dll
 0002:00180ce8       CreateWindowExW            0000000140243ce8 f   user32:USER32.dll
 0002:00180cee       ShowWindow                 0000000140243cee f   user32:USER32.dll
 0002:00180cf4       LoadAcceleratorsW          0000000140243cf4 f   user32:USER32.dll
 0002:00180cfa       TranslateAcceleratorW      0000000140243cfa f   user32:USER32.dll
 0002:00180d00       UpdateWindow               0000000140243d00 f   user32:USER32.dll
 0002:00180d06       BeginPaint                 0000000140243d06 f   user32:USER32.dll
 0002:00180d0c       EndPaint                   0000000140243d0c f   user32:USER32.dll
 0002:00180d12       AdjustWindowRect           0000000140243d12 f   user32:USER32.dll
 0002:00180d18       LoadIconW                  0000000140243d18 f   user32:USER32.dll
 0002:00180d1e       CreateRectRgn              0000000140243d1e f   gdi32:GDI32.dll
 0002:00180d24       DeleteObject               0000000140243d24 f   gdi32:GDI32.dll
 0002:00180d2a       GetDeviceCaps              0000000140243d2a f   gdi32:GDI32.dll
 0002:00180d30       GetSaveFileNameW           0000000140243d30 f   comdlg32:COMDLG32.dll
 0002:00180d36       CoInitializeEx             0000000140243d36 f   ole32:ole32.dll
 0002:00180d3c       ImmGetContext              0000000140243d3c f   imm32:IMM32.dll
 0002:00180d42       ImmReleaseContext          0000000140243d42 f   imm32:IMM32.dll
 0002:00180d48       ImmSetCompositionWindow    0000000140243d48 f   imm32:IMM32.dll
 0002:00180d4e       ImmSetCandidateWindow      0000000140243d4e f   imm32:IMM32.dll
 0002:00180d60       ??_L@YAXPEAX_K1P6AX0@Z2@Z  0000000140243d60 f   MSVCRTD:ehvecctr.obj
 0002:00180e30       ??_L@YAXPEAX_KHP6AX0@Z2@Z  0000000140243e30 f   MSVCRTD:ehvecctr.obj
 0002:00180e90       ??_M@YAXPEAX_K1P6AX0@Z@Z   0000000140243e90 f   MSVCRTD:ehvecdtr.obj
 0002:00180f80       ??_M@YAXPEAX_KHP6AX0@Z@Z   0000000140243f80 f   MSVCRTD:ehvecdtr.obj
 0002:00181020       ?__ArrayUnwind@@YAXPEAX_K1P6AX0@Z@Z 0000000140244020 f   MSVCRTD:ehvecdtr.obj
 0002:001810c0       ??3@YAXPEAX_K@Z            00000001402440c0 f   MSVCRTD:delete_scalar_size.obj
 0002:001810f0       __raise_securityfailure    00000001402440f0 f   MSVCRTD:gs_report.obj
 0002:00181140       __report_gsfailure         0000000140244140 f   MSVCRTD:gs_report.obj
 0002:00181250       __report_rangecheckfailure 0000000140244250 f   MSVCRTD:gs_report.obj
 0002:00181270       __report_securityfailure   0000000140244270 f   MSVCRTD:gs_report.obj
 0002:00181340       __report_securityfailureEx 0000000140244340 f   MSVCRTD:gs_report.obj
 0002:00181640       _RTC_AllocaHelper          0000000140244640 f   MSVCRTD:_stack_.obj
 0002:00181690       _RTC_CheckStackVars        0000000140244690 f   MSVCRTD:_stack_.obj
 0002:00181740       _RTC_CheckStackVars2       0000000140244740 f   MSVCRTD:_stack_.obj
 0002:00181890       _CRT_RTC_INIT              0000000140244890 f   MSVCRTD:_init_.obj
 0002:001818a0       _CRT_RTC_INITW             00000001402448a0 f   MSVCRTD:_init_.obj
 0002:001818b0       _RTC_InitBase              00000001402448b0 f   MSVCRTD:_init_.obj
 0002:00181900       _RTC_Shutdown              0000000140244900 f   MSVCRTD:_init_.obj
 0002:00181930       __GSHandlerCheck           0000000140244930 f   MSVCRTD:_gshandler_.obj
 0002:00181980       __GSHandlerCheckCommon     0000000140244980 f   MSVCRTD:_gshandler_.obj
 0002:00181ac0       __GSHandlerCheck_EH        0000000140244ac0 f   MSVCRTD:gshandlereh.obj
 0002:00181ba0       __chkstk                   0000000140244ba0 f   MSVCRTD:_chkstk_.obj
 0002:00181ba0       _alloca_probe              0000000140244ba0 f   MSVCRTD:_chkstk_.obj
 0002:00181c20       __security_check_cookie    0000000140244c20 f   MSVCRTD:_amdsecgs_.obj
 0002:00181c50       ??$__crt_fast_decode_pointer@PEAP6AXXZ@@YAPEAP6AXXZQEAP6AXXZ@Z 0000000140244c50 f i MSVCRTD:utility.obj
 0002:00181ca0       ??$__crt_fast_encode_pointer@PEAP6AXXZ@@YAPEAP6AXXZQEAP6AXXZ@Z 0000000140244ca0 f i MSVCRTD:utility.obj
 0002:00181cf0       ?__crt_rotate_pointer_value@@YA_K_KH@Z 0000000140244cf0 f i MSVCRTD:utility.obj
 0002:00181d10       ?configure_argv@__scrt_narrow_argv_policy@@SAHXZ 0000000140244d10 f i MSVCRTD:utility.obj
 0002:00181ee0       NtCurrentTeb               0000000140244ee0 f i MSVCRTD:utility.obj
 0002:00181ef0       __scrt_acquire_startup_lock 0000000140244ef0 f   MSVCRTD:utility.obj
 0002:00181f70       __scrt_dllmain_after_initialize_c 0000000140244f70 f   MSVCRTD:utility.obj
 0002:00181fb0       __scrt_dllmain_before_initialize_c 0000000140244fb0 f   MSVCRTD:utility.obj
 0002:00181fe0       __scrt_dllmain_crt_thread_attach 0000000140244fe0 f   MSVCRTD:utility.obj
 0002:00182020       __scrt_dllmain_crt_thread_detach 0000000140245020 f   MSVCRTD:utility.obj
 0002:00182040       __scrt_dllmain_exception_filter 0000000140245040 f   MSVCRTD:utility.obj
 0002:001820c0       __scrt_dllmain_uninitialize_c 00000001402450c0 f   MSVCRTD:utility.obj
 0002:00182100       __scrt_dllmain_uninitialize_critical 0000000140245100 f   MSVCRTD:utility.obj
 0002:00182120       __scrt_initialize_crt      0000000140245120 f   MSVCRTD:utility.obj
 0002:00182180       __scrt_initialize_onexit_tables 0000000140245180 f   MSVCRTD:utility.obj
 0002:001822c0       __scrt_is_nonwritable_in_current_image 00000001402452c0 f   MSVCRTD:utility.obj
 0002:00182370       __scrt_release_startup_lock 0000000140245370 f   MSVCRTD:utility.obj
 0002:001823b0       __scrt_uninitialize_crt    00000001402453b0 f   MSVCRTD:utility.obj
 0002:00182400       _onexit                    0000000140245400 f   MSVCRTD:utility.obj
 0002:001824b0       at_quick_exit              00000001402454b0 f   MSVCRTD:utility.obj
 0002:00182520       atexit                     0000000140245520 f   MSVCRTD:utility.obj
 0002:001826e0       ??$__crt_fast_decode_pointer@P6AHPEAU_RTL_CONDITION_VARIABLE@@PEAU_RTL_CRITICAL_SECTION@@K@Z@@YAP6AHPEAU_RTL_CONDITION_VARIABLE@@PEAU_RTL_CRITICAL_SECTION@@K@ZQ6AH01K@Z@Z 00000001402456e0 f i MSVCRTD:thread_safe_statics.obj
 0002:00182730       ??$__crt_fast_decode_pointer@P6AXPEAU_RTL_CONDITION_VARIABLE@@@Z@@YAP6AXPEAU_RTL_CONDITION_VARIABLE@@@ZQ6AX0@Z@Z 0000000140245730 f i MSVCRTD:thread_safe_statics.obj
 0002:00182780       ??$__crt_fast_encode_pointer@P6AHPEAU_RTL_CONDITION_VARIABLE@@PEAU_RTL_CRITICAL_SECTION@@K@Z@@YAP6AHPEAU_RTL_CONDITION_VARIABLE@@PEAU_RTL_CRITICAL_SECTION@@K@ZQ6AH01K@Z@Z 0000000140245780 f i MSVCRTD:thread_safe_statics.obj
 0002:001827d0       ??$__crt_fast_encode_pointer@P6AXPEAU_RTL_CONDITION_VARIABLE@@@Z@@YAP6AXPEAU_RTL_CONDITION_VARIABLE@@@ZQ6AX0@Z@Z 00000001402457d0 f i MSVCRTD:thread_safe_statics.obj
 0002:00182860       _Init_thread_abort         0000000140245860 f   MSVCRTD:thread_safe_statics.obj
 0002:001828a0       _Init_thread_footer        00000001402458a0 f   MSVCRTD:thread_safe_statics.obj
 0002:00182920       _Init_thread_header        0000000140245920 f   MSVCRTD:thread_safe_statics.obj
 0002:001829d0       _Init_thread_lock          00000001402459d0 f   MSVCRTD:thread_safe_statics.obj
 0002:001829f0       _Init_thread_notify        00000001402459f0 f   MSVCRTD:thread_safe_statics.obj
 0002:00182a60       _Init_thread_unlock        0000000140245a60 f   MSVCRTD:thread_safe_statics.obj
 0002:00182a80       _Init_thread_wait          0000000140245a80 f   MSVCRTD:thread_safe_statics.obj
 0002:00182bb0       ??2@YAPEAX_K@Z             0000000140245bb0 f   MSVCRTD:new_scalar.obj
 0002:00182c20       ??3@YAXPEAX@Z              0000000140245c20 f   MSVCRTD:delete_scalar.obj
 0002:00182c50       ??2@YAPEAX_KHPEBDH@Z       0000000140245c50 f   MSVCRTD:new_debug.obj
 0002:00182ce0       ??_U@YAPEAX_KHPEBDH@Z      0000000140245ce0 f   MSVCRTD:new_debug.obj
 0002:00182d30       ??3@YAXPEAXHPEBDH@Z        0000000140245d30 f   MSVCRTD:delete_debug.obj
 0002:00182d70       ??_V@YAXPEAXHPEBDH@Z       0000000140245d70 f   MSVCRTD:delete_debug.obj
 0002:00182dc0       ??1type_info@@UEAA@XZ      0000000140245dc0 f   MSVCRTD:std_type_info_static.obj
 0002:00182de0       ??_Gtype_info@@UEAAPEAXI@Z 0000000140245de0 f i MSVCRTD:std_type_info_static.obj
 0002:00182de0       ??_Etype_info@@UEAAPEAXI@Z 0000000140245de0 f i MSVCRTD:std_type_info_static.obj
 0002:00182f00       ?_RTC_AllocaFailure@@YAXPEAXPEAU_RTC_ALLOCA_NODE@@H@Z 0000000140245f00 f   MSVCRTD:_error_.obj
 0002:001830f0       ?_RTC_Failure@@YAXPEAXH@Z  00000001402460f0 f   MSVCRTD:_error_.obj
 0002:00183160       ?_RTC_StackFailure@@YAXPEAXPEBD@Z 0000000140246160 f   MSVCRTD:_error_.obj
 0002:001836f0       _RTC_UninitUse             00000001402466f0 f   MSVCRTD:_error_.obj
 0002:00183860       _vsprintf_s_l              0000000140246860 f i MSVCRTD:_error_.obj
 0002:001838e0       sprintf_s                  00000001402468e0 f i MSVCRTD:_error_.obj
 0002:00183c80       ?configure_argv@__scrt_wide_argv_policy@@SAHXZ 0000000140246c80 f i MSVCRTD:exe_wwinmain.obj
 0002:00183ca0       ?get_app_type@__scrt_winmain_policy@@SA?AW4_crt_app_type@@XZ 0000000140246ca0 f i MSVCRTD:exe_wwinmain.obj
 0002:00183d10       wWinMainCRTStartup         0000000140246d10 f   MSVCRTD:exe_wwinmain.obj
 0002:00183d30       _guard_check_icall         0000000140246d30 f i MSVCRTD:checkcfg.obj
 0002:00183d50       ?_RTC_GetErrorFunc@@YAP6AHHPEBDH00ZZPEBX@Z 0000000140246d50 f   MSVCRTD:_userapi_.obj
 0002:00183d60       ?_RTC_GetErrorFuncW@@YAP6AHHPEB_WH00ZZPEBX@Z 0000000140246d60 f   MSVCRTD:_userapi_.obj
 0002:00183d70       _RTC_GetErrDesc            0000000140246d70 f   MSVCRTD:_userapi_.obj
 0002:00183d90       _RTC_NumErrors             0000000140246d90 f   MSVCRTD:_userapi_.obj
 0002:00183da0       _RTC_SetErrorFunc          0000000140246da0 f   MSVCRTD:_userapi_.obj
 0002:00183dc0       _RTC_SetErrorFuncW         0000000140246dc0 f   MSVCRTD:_userapi_.obj
 0002:00183de0       _RTC_SetErrorType          0000000140246de0 f   MSVCRTD:_userapi_.obj
 0002:00183e10       __isa_available_init       0000000140246e10 f   MSVCRTD:_cpu_disp_.obj
 0002:00184270       _get_startup_argv_mode     0000000140247270 f   MSVCRTD:argv_mode.obj
 0002:00184280       __scrt_is_ucrt_dll_in_use  0000000140247280 f   MSVCRTD:ucrt_detection.obj
 0002:001842b0       __crt_debugger_hook        00000001402472b0 f   MSVCRTD:utility_desktop.obj
 0002:001842d0       __scrt_fastfail            00000001402472d0 f   MSVCRTD:utility_desktop.obj
 0002:001844d0       __scrt_get_show_window_mode 00000001402474d0 f   MSVCRTD:utility_desktop.obj
 0002:00184540       __scrt_initialize_winrt    0000000140247540 f   MSVCRTD:utility_desktop.obj
 0002:00184550       __scrt_is_managed_app      0000000140247550 f   MSVCRTD:utility_desktop.obj
 0002:00184620       __scrt_set_unhandled_exception_filter 0000000140247620 f   MSVCRTD:utility_desktop.obj
 0002:00184640       __scrt_unhandled_exception_filter 0000000140247640 f   MSVCRTD:utility_desktop.obj
 0002:001846d0       ??0bad_alloc@std@@AEAA@QEBD@Z 00000001402476d0 f i MSVCRTD:throw_bad_alloc.obj
 0002:00184720       ??0bad_alloc@std@@QEAA@AEBV01@@Z 0000000140247720 f i MSVCRTD:throw_bad_alloc.obj
 0002:00184770       ??0bad_alloc@std@@QEAA@XZ  0000000140247770 f i MSVCRTD:throw_bad_alloc.obj
 0002:001847c0       ??0bad_array_new_length@std@@QEAA@AEBV01@@Z 00000001402477c0 f i MSVCRTD:throw_bad_alloc.obj
 0002:00184810       ??0bad_array_new_length@std@@QEAA@XZ 0000000140247810 f i MSVCRTD:throw_bad_alloc.obj
 0002:00184850       ??0exception@std@@QEAA@AEBV01@@Z 0000000140247850 f i MSVCRTD:throw_bad_alloc.obj
 0002:001848c0       ??0exception@std@@QEAA@QEBDH@Z 00000001402478c0 f i MSVCRTD:throw_bad_alloc.obj
 0002:00184920       ??1bad_alloc@std@@UEAA@XZ  0000000140247920 f i MSVCRTD:throw_bad_alloc.obj
 0002:00184940       ??1bad_array_new_length@std@@UEAA@XZ 0000000140247940 f i MSVCRTD:throw_bad_alloc.obj
 0002:00184960       ??1exception@std@@UEAA@XZ  0000000140247960 f i MSVCRTD:throw_bad_alloc.obj
 0002:001849a0       ??_Ebad_alloc@std@@UEAAPEAXI@Z 00000001402479a0 f i MSVCRTD:throw_bad_alloc.obj
 0002:001849a0       ??_Gbad_alloc@std@@UEAAPEAXI@Z 00000001402479a0 f i MSVCRTD:throw_bad_alloc.obj
 0002:001849f0       ??_Ebad_array_new_length@std@@UEAAPEAXI@Z 00000001402479f0 f i MSVCRTD:throw_bad_alloc.obj
 0002:001849f0       ??_Gbad_array_new_length@std@@UEAAPEAXI@Z 00000001402479f0 f i MSVCRTD:throw_bad_alloc.obj
 0002:00184a40       ??_Eexception@std@@UEAAPEAXI@Z 0000000140247a40 f i MSVCRTD:throw_bad_alloc.obj
 0002:00184a40       ??_Gexception@std@@UEAAPEAXI@Z 0000000140247a40 f i MSVCRTD:throw_bad_alloc.obj
 0002:00184a90       ?__scrt_throw_std_bad_alloc@@YAXXZ 0000000140247a90 f   MSVCRTD:throw_bad_alloc.obj
 0002:00184ac0       ?__scrt_throw_std_bad_array_new_length@@YAXXZ 0000000140247ac0 f   MSVCRTD:throw_bad_alloc.obj
 0002:00184af0       ?what@exception@std@@UEBAPEBDXZ 0000000140247af0 f i MSVCRTD:throw_bad_alloc.obj
 0002:00185160       ?_RTC_GetSrcLine@@YAHPEAEPEA_WKPEAH1K@Z 0000000140248160 f   MSVCRTD:_pdblkup_.obj
 0002:001856f0       __security_init_cookie     00000001402486f0 f   MSVCRTD:gs_support.obj
 0002:00185850       _matherr                   0000000140248850 f   MSVCRTD:matherr.obj
 0002:00185860       _get_startup_commit_mode   0000000140248860 f   MSVCRTD:commit_mode.obj
 0002:00185870       _get_startup_file_mode     0000000140248870 f   MSVCRTD:file_mode.obj
 0002:00185880       _get_startup_new_mode      0000000140248880 f   MSVCRTD:new_mode.obj
 0002:00185890       _get_startup_thread_locale_mode 0000000140248890 f   MSVCRTD:thread_locale.obj
 0002:001858a0       ?__scrt_initialize_type_info@@YAXXZ 00000001402488a0 f   MSVCRTD:tncleanup.obj
 0002:001858c0       ?__scrt_uninitialize_type_info@@YAXXZ 00000001402488c0 f   MSVCRTD:tncleanup.obj
 0002:001858e0       _should_initialize_environment 00000001402488e0 f   MSVCRTD:env_mode.obj
 0002:001858f0       _initialize_invalid_parameter_handler 00000001402488f0 f   MSVCRTD:invalid_parameter_handler.obj
 0002:00185900       _initialize_denormal_control 0000000140248900 f   MSVCRTD:denormal_control.obj
 0002:00185910       __scrt_initialize_default_local_stdio_options 0000000140248910 f   MSVCRTD:default_local_stdio_options.obj
 0002:00185970       __scrt_is_user_matherr_present 0000000140248970 f   MSVCRTD:matherr_detection.obj
 0002:001859a0       __scrt_get_dyn_tls_init_callback 00000001402489a0 f   MSVCRTD:dyn_tls_init.obj
 0002:001859b0       __scrt_get_dyn_tls_dtor_callback 00000001402489b0 f   MSVCRTD:dyn_tls_dtor.obj
 0002:001859c0       _RTC_Initialize            00000001402489c0 f   MSVCRTD:_initsect_.obj
 0002:00185a20       _RTC_Terminate             0000000140248a20 f   MSVCRTD:_initsect_.obj
 0002:00185a80       _guard_check_icall_nop     0000000140248a80 f i MSVCRTD:guard_support.obj
 0002:00185a90       _guard_icall_checks_enforced 0000000140248a90 f i MSVCRTD:guard_support.obj
 0002:00185ad0       D3DCompile                 0000000140248ad0 f   d3dcompiler:D3DCOMPILER_47.dll
 0002:00185ad6       DwmEnableBlurBehindWindow  0000000140248ad6 f   dwmapi:dwmapi.dll
 0002:00185adc       DwmGetColorizationColor    0000000140248adc f   dwmapi:dwmapi.dll
 0002:00185ae2       DwmIsCompositionEnabled    0000000140248ae2 f   dwmapi:dwmapi.dll
 0002:00185ae8       ??0_Lockit@std@@QEAA@H@Z   0000000140248ae8 f   msvcprtd:MSVCP140D.dll
 0002:00185aee       ??1_Lockit@std@@QEAA@XZ    0000000140248aee f   msvcprtd:MSVCP140D.dll
 0002:00185af4       ?_Debug_message@std@@YAXPEB_W0I@Z 0000000140248af4 f   msvcprtd:MSVCP140D.dll
 0002:00185afa       ?_Xbad_alloc@std@@YAXXZ    0000000140248afa f   msvcprtd:MSVCP140D.dll
 0002:00185b00       ?_Xlength_error@std@@YAXPEBD@Z 0000000140248b00 f   msvcprtd:MSVCP140D.dll
 0002:00185b06       ?_Xout_of_range@std@@YAXPEBD@Z 0000000140248b06 f   msvcprtd:MSVCP140D.dll
 0002:00185b0c       memchr                     0000000140248b0c f   vcruntimed:VCRUNTIME140D.dll
 0002:00185b12       memcmp                     0000000140248b12 f   vcruntimed:VCRUNTIME140D.dll
 0002:00185b18       memcpy                     0000000140248b18 f   vcruntimed:VCRUNTIME140D.dll
 0002:00185b1e       memmove                    0000000140248b1e f   vcruntimed:VCRUNTIME140D.dll
 0002:00185b24       memset                     0000000140248b24 f   vcruntimed:VCRUNTIME140D.dll
 0002:00185b2a       strstr                     0000000140248b2a f   vcruntimed:VCRUNTIME140D.dll
 0002:00185b30       __CxxFrameHandler3         0000000140248b30 f   vcruntimed:VCRUNTIME140D.dll
 0002:00185b36       strchr                     0000000140248b36 f   vcruntimed:VCRUNTIME140D.dll
 0002:00185b3c       _CxxThrowException         0000000140248b3c f   vcruntimed:VCRUNTIME140D.dll
 0002:00185b42       __RTDynamicCast            0000000140248b42 f   vcruntimed:VCRUNTIME140D.dll
 0002:00185b48       __C_specific_handler       0000000140248b48 f   vcruntimed:VCRUNTIME140D.dll
 0002:00185b4e       __vcrt_InitializeCriticalSectionEx 0000000140248b4e f   vcruntimed:VCRUNTIME140D.dll
 0002:00185b54       __std_exception_copy       0000000140248b54 f   vcruntimed:VCRUNTIME140D.dll
 0002:00185b5a       __std_exception_destroy    0000000140248b5a f   vcruntimed:VCRUNTIME140D.dll
 0002:00185b60       __vcrt_GetModuleFileNameW  0000000140248b60 f   vcruntimed:VCRUNTIME140D.dll
 0002:00185b66       __vcrt_GetModuleHandleW    0000000140248b66 f   vcruntimed:VCRUNTIME140D.dll
 0002:00185b6c       __vcrt_LoadLibraryExW      0000000140248b6c f   vcruntimed:VCRUNTIME140D.dll
 0002:00185b72       __std_type_info_destroy_list 0000000140248b72 f   vcruntimed:VCRUNTIME140D.dll
 0002:00185b78       strcmp                     0000000140248b78 f   ucrtd:ucrtbased.dll
 0002:00185b7e       strlen                     0000000140248b7e f   ucrtd:ucrtbased.dll
 0002:00185b84       strncpy                    0000000140248b84 f   ucrtd:ucrtbased.dll
 0002:00185b8a       _wassert                   0000000140248b8a f   ucrtd:ucrtbased.dll
 0002:00185b90       __acrt_iob_func            0000000140248b90 f   ucrtd:ucrtbased.dll
 0002:00185b96       _wfopen                    0000000140248b96 f   ucrtd:ucrtbased.dll
 0002:00185b9c       fclose                     0000000140248b9c f   ucrtd:ucrtbased.dll
 0002:00185ba2       fflush                     0000000140248ba2 f   ucrtd:ucrtbased.dll
 0002:00185ba8       fread                      0000000140248ba8 f   ucrtd:ucrtbased.dll
 0002:00185bae       fseek                      0000000140248bae f   ucrtd:ucrtbased.dll
 0002:00185bb4       ftell                      0000000140248bb4 f   ucrtd:ucrtbased.dll
 0002:00185bba       fwrite                     0000000140248bba f   ucrtd:ucrtbased.dll
 0002:00185bc0       __stdio_common_vfprintf    0000000140248bc0 f   ucrtd:ucrtbased.dll
 0002:00185bc6       __stdio_common_vsprintf    0000000140248bc6 f   ucrtd:ucrtbased.dll
 0002:00185bcc       __stdio_common_vsscanf     0000000140248bcc f   ucrtd:ucrtbased.dll
 0002:00185bd2       free                       0000000140248bd2 f   ucrtd:ucrtbased.dll
 0002:00185bd8       malloc                     0000000140248bd8 f   ucrtd:ucrtbased.dll
 0002:00185bde       qsort                      0000000140248bde f   ucrtd:ucrtbased.dll
 0002:00185be4       fabs                       0000000140248be4 f   ucrtd:ucrtbased.dll
 0002:00185bea       fmodf                      0000000140248bea f   ucrtd:ucrtbased.dll
 0002:00185bf0       sqrtf                      0000000140248bf0 f   ucrtd:ucrtbased.dll
 0002:00185bf6       strcpy                     0000000140248bf6 f   ucrtd:ucrtbased.dll
 0002:00185bfc       strncmp                    0000000140248bfc f   ucrtd:ucrtbased.dll
 0002:00185c02       toupper                    0000000140248c02 f   ucrtd:ucrtbased.dll
 0002:00185c08       cosf                       0000000140248c08 f   ucrtd:ucrtbased.dll
 0002:00185c0e       floorf                     0000000140248c0e f   ucrtd:ucrtbased.dll
 0002:00185c14       sinf                       0000000140248c14 f   ucrtd:ucrtbased.dll
 0002:00185c1a       acosf                      0000000140248c1a f   ucrtd:ucrtbased.dll
 0002:00185c20       ceilf                      0000000140248c20 f   ucrtd:ucrtbased.dll
 0002:00185c26       atof                       0000000140248c26 f   ucrtd:ucrtbased.dll
 0002:00185c2c       log                        0000000140248c2c f   ucrtd:ucrtbased.dll
 0002:00185c32       pow                        0000000140248c32 f   ucrtd:ucrtbased.dll
 0002:00185c38       atan2f                     0000000140248c38 f   ucrtd:ucrtbased.dll
 0002:00185c3e       logf                       0000000140248c3e f   ucrtd:ucrtbased.dll
 0002:00185c44       powf                       0000000140248c44 f   ucrtd:ucrtbased.dll
 0002:00185c4a       _invalid_parameter         0000000140248c4a f   ucrtd:ucrtbased.dll
 0002:00185c50       wcslen                     0000000140248c50 f   ucrtd:ucrtbased.dll
 0002:00185c56       srand                      0000000140248c56 f   ucrtd:ucrtbased.dll
 0002:00185c5c       _CrtDbgReportW             0000000140248c5c f   ucrtd:ucrtbased.dll
 0002:00185c62       _time64                    0000000140248c62 f   ucrtd:ucrtbased.dll
 0002:00185c68       rand                       0000000140248c68 f   ucrtd:ucrtbased.dll
 0002:00185c6e       _fdtest                    0000000140248c6e f   ucrtd:ucrtbased.dll
 0002:00185c74       _beginthreadex             0000000140248c74 f   ucrtd:ucrtbased.dll
 0002:00185c7a       terminate                  0000000140248c7a f   ucrtd:ucrtbased.dll
 0002:00185c80       _CrtDbgReport              0000000140248c80 f   ucrtd:ucrtbased.dll
 0002:00185c86       _seh_filter_dll            0000000140248c86 f   ucrtd:ucrtbased.dll
 0002:00185c8c       _configure_narrow_argv     0000000140248c8c f   ucrtd:ucrtbased.dll
 0002:00185c92       _initialize_narrow_environment 0000000140248c92 f   ucrtd:ucrtbased.dll
 0002:00185c98       _initialize_onexit_table   0000000140248c98 f   ucrtd:ucrtbased.dll
 0002:00185c9e       _register_onexit_function  0000000140248c9e f   ucrtd:ucrtbased.dll
 0002:00185ca4       _execute_onexit_table      0000000140248ca4 f   ucrtd:ucrtbased.dll
 0002:00185caa       _crt_atexit                0000000140248caa f   ucrtd:ucrtbased.dll
 0002:00185cb0       _crt_at_quick_exit         0000000140248cb0 f   ucrtd:ucrtbased.dll
 0002:00185cb6       _cexit                     0000000140248cb6 f   ucrtd:ucrtbased.dll
 0002:00185cbc       _callnewh                  0000000140248cbc f   ucrtd:ucrtbased.dll
 0002:00185cc2       _free_dbg                  0000000140248cc2 f   ucrtd:ucrtbased.dll
 0002:00185cc8       _malloc_dbg                0000000140248cc8 f   ucrtd:ucrtbased.dll
 0002:00185cce       __stdio_common_vsprintf_s  0000000140248cce f   ucrtd:ucrtbased.dll
 0002:00185cd4       _seh_filter_exe            0000000140248cd4 f   ucrtd:ucrtbased.dll
 0002:00185cda       _set_app_type              0000000140248cda f   ucrtd:ucrtbased.dll
 0002:00185ce0       __setusermatherr           0000000140248ce0 f   ucrtd:ucrtbased.dll
 0002:00185ce6       _configure_wide_argv       0000000140248ce6 f   ucrtd:ucrtbased.dll
 0002:00185cec       _initialize_wide_environment 0000000140248cec f   ucrtd:ucrtbased.dll
 0002:00185cf2       _get_wide_winmain_command_line 0000000140248cf2 f   ucrtd:ucrtbased.dll
 0002:00185cf8       _initterm                  0000000140248cf8 f   ucrtd:ucrtbased.dll
 0002:00185cfe       _initterm_e                0000000140248cfe f   ucrtd:ucrtbased.dll
 0002:00185d04       exit                       0000000140248d04 f   ucrtd:ucrtbased.dll
 0002:00185d0a       _exit                      0000000140248d0a f   ucrtd:ucrtbased.dll
 0002:00185d10       _set_fmode                 0000000140248d10 f   ucrtd:ucrtbased.dll
 0002:00185d16       _c_exit                    0000000140248d16 f   ucrtd:ucrtbased.dll
 0002:00185d1c       _register_thread_local_exe_atexit_callback 0000000140248d1c f   ucrtd:ucrtbased.dll
 0002:00185d22       _configthreadlocale        0000000140248d22 f   ucrtd:ucrtbased.dll
 0002:00185d28       _set_new_mode              0000000140248d28 f   ucrtd:ucrtbased.dll
 0002:00185d2e       __p__commode               0000000140248d2e f   ucrtd:ucrtbased.dll
 0002:00185d34       _wmakepath_s               0000000140248d34 f   ucrtd:ucrtbased.dll
 0002:00185d3a       _wsplitpath_s              0000000140248d3a f   ucrtd:ucrtbased.dll
 0002:00185d40       wcscpy_s                   0000000140248d40 f   ucrtd:ucrtbased.dll
 0002:00185d46       RtlCaptureContext          0000000140248d46 f   kernel32:KERNEL32.dll
 0002:00185d4c       RtlLookupFunctionEntry     0000000140248d4c f   kernel32:KERNEL32.dll
 0002:00185d52       RtlVirtualUnwind           0000000140248d52 f   kernel32:KERNEL32.dll
 0002:00185d58       UnhandledExceptionFilter   0000000140248d58 f   kernel32:KERNEL32.dll
 0002:00185d5e       SetUnhandledExceptionFilter 0000000140248d5e f   kernel32:KERNEL32.dll
 0002:00185d64       GetCurrentProcess          0000000140248d64 f   kernel32:KERNEL32.dll
 0002:00185d6a       TerminateProcess           0000000140248d6a f   kernel32:KERNEL32.dll
 0002:00185d70       IsProcessorFeaturePresent  0000000140248d70 f   kernel32:KERNEL32.dll
 0002:00185d76       SetEvent                   0000000140248d76 f   kernel32:KERNEL32.dll
 0002:00185d7c       ResetEvent                 0000000140248d7c f   kernel32:KERNEL32.dll
 0002:00185d82       WaitForSingleObjectEx      0000000140248d82 f   kernel32:KERNEL32.dll
 0002:00185d88       CreateEventW               0000000140248d88 f   kernel32:KERNEL32.dll
 0002:00185d8e       GetModuleHandleW           0000000140248d8e f   kernel32:KERNEL32.dll
 0002:00185d94       IsDebuggerPresent          0000000140248d94 f   kernel32:KERNEL32.dll
 0002:00185d9a       RaiseException             0000000140248d9a f   kernel32:KERNEL32.dll
 0002:00185da0       GetStartupInfoW            0000000140248da0 f   kernel32:KERNEL32.dll
 0002:00185da6       GetLastError               0000000140248da6 f   kernel32:KERNEL32.dll
 0002:00185dac       HeapAlloc                  0000000140248dac f   kernel32:KERNEL32.dll
 0002:00185db2       HeapFree                   0000000140248db2 f   kernel32:KERNEL32.dll
 0002:00185db8       GetProcessHeap             0000000140248db8 f   kernel32:KERNEL32.dll
 0002:00185dbe       VirtualQuery               0000000140248dbe f   kernel32:KERNEL32.dll
 0002:00185dc4       GetCurrentProcessId        0000000140248dc4 f   kernel32:KERNEL32.dll
 0002:00185dca       GetCurrentThreadId         0000000140248dca f   kernel32:KERNEL32.dll
 0002:00185dd0       GetSystemTimeAsFileTime    0000000140248dd0 f   kernel32:KERNEL32.dll
 0002:00185dd6       InitializeSListHead        0000000140248dd6 f   kernel32:KERNEL32.dll
 0002:00185de0       __scrt_stub_for_acrt_initialize 0000000140248de0 f   MSVCRTD:ucrt_stubs.obj
 0002:00185de0       __acrt_initialize          0000000140248de0 f   MSVCRTD:ucrt_stubs.obj
 0002:00185de0       __vcrt_initialize          0000000140248de0 f   MSVCRTD:ucrt_stubs.obj
 0002:00185df0       __scrt_stub_for_acrt_thread_attach 0000000140248df0 f   MSVCRTD:ucrt_stubs.obj
 0002:00185df0       __acrt_thread_attach       0000000140248df0 f   MSVCRTD:ucrt_stubs.obj
 0002:00185df0       __vcrt_thread_attach       0000000140248df0 f   MSVCRTD:ucrt_stubs.obj
 0002:00185e00       __acrt_thread_detach       0000000140248e00 f   MSVCRTD:ucrt_stubs.obj
 0002:00185e00       __scrt_stub_for_acrt_thread_detach 0000000140248e00 f   MSVCRTD:ucrt_stubs.obj
 0002:00185e00       __vcrt_thread_detach       0000000140248e00 f   MSVCRTD:ucrt_stubs.obj
 0002:00185e10       __vcrt_uninitialize        0000000140248e10 f   MSVCRTD:ucrt_stubs.obj
 0002:00185e10       __scrt_stub_for_acrt_uninitialize 0000000140248e10 f   MSVCRTD:ucrt_stubs.obj
 0002:00185e10       __acrt_uninitialize        0000000140248e10 f   MSVCRTD:ucrt_stubs.obj
 0002:00185e20       __acrt_uninitialize_critical 0000000140248e20 f   MSVCRTD:ucrt_stubs.obj
 0002:00185e20       __scrt_stub_for_acrt_uninitialize_critical 0000000140248e20 f   MSVCRTD:ucrt_stubs.obj
 0002:00185e20       __vcrt_uninitialize_critical 0000000140248e20 f   MSVCRTD:ucrt_stubs.obj
 0002:00185e30       __scrt_stub_for_is_c_termination_complete 0000000140248e30 f   MSVCRTD:ucrt_stubs.obj
 0002:00185e30       _is_c_termination_complete 0000000140248e30 f   MSVCRTD:ucrt_stubs.obj
 0002:00189250       _guard_dispatch_icall_nop  000000014024c250 f   MSVCRTD:_guard_dispatch_.obj
 0003:00000000       __xc_a                     0000000140255000     MSVCRTD:initializers.obj
 0003:00000348       __xc_z                     0000000140255348     MSVCRTD:initializers.obj
 0003:00000458       __xi_a                     0000000140255458     MSVCRTD:initializers.obj
 0003:00000898       __xi_z                     0000000140255898     MSVCRTD:initializers.obj
 0003:000009a8       __xl_a                     00000001402559a8     MSVCRTD:tlssup.obj
 0003:000009b0       __xl_z                     00000001402559b0     MSVCRTD:tlssup.obj
 0003:000009b8       __xp_a                     00000001402559b8     MSVCRTD:initializers.obj
 0003:00000ac8       __xp_z                     0000000140255ac8     MSVCRTD:initializers.obj
 0003:00000bd8       __xt_a                     0000000140255bd8     MSVCRTD:initializers.obj
 0003:00000ce8       __xt_z                     0000000140255ce8     MSVCRTD:initializers.obj
 0003:00001a9c       ??_C@_03IEAKBACE@Tab?$AA@  0000000140256a9c     imgui.obj
 0003:00001aa0       ??_C@_09CFHBIIBF@LeftArrow?$AA@ 0000000140256aa0     imgui.obj
 0003:00001ab0       ??_C@_0L@BPKGMHEK@RightArrow?$AA@ 0000000140256ab0     imgui.obj
 0003:00001ac0       ??_C@_07MOKGGMEC@UpArrow?$AA@ 0000000140256ac0     imgui.obj
 0003:00001ad0       ??_C@_09NADHLAEK@DownArrow?$AA@ 0000000140256ad0     imgui.obj
 0003:00001adc       ??_C@_06OAEMCMAI@PageUp?$AA@ 0000000140256adc     imgui.obj
 0003:00001ae8       ??_C@_08FDLMHKA@PageDown?$AA@ 0000000140256ae8     imgui.obj
 0003:00001af4       ??_C@_04GKJODLKO@Home?$AA@ 0000000140256af4     imgui.obj
 0003:00001afc       ??_C@_03DBKJMAGF@End?$AA@  0000000140256afc     imgui.obj
 0003:00001b00       ??_C@_06CPFCODOD@Insert?$AA@ 0000000140256b00     imgui.obj
 0003:00001b08       ??_C@_06JBKGCNBB@Delete?$AA@ 0000000140256b08     imgui.obj
 0003:00001b10       ??_C@_09LPBCIPOJ@Backspace?$AA@ 0000000140256b10     imgui.obj
 0003:00001b1c       ??_C@_05OMHELODH@Space?$AA@ 0000000140256b1c     imgui.obj
 0003:00001b24       ??_C@_05IAOCCJNL@Enter?$AA@ 0000000140256b24     imgui.obj
 0003:00001b2c       ??_C@_06OIGFGPHJ@Escape?$AA@ 0000000140256b2c     imgui.obj
 0003:00001b38       ??_C@_08KELNAOFC@LeftCtrl?$AA@ 0000000140256b38     imgui.obj
 0003:00001b48       ??_C@_09OCNLBMHE@LeftShift?$AA@ 0000000140256b48     imgui.obj
 0003:00001b58       ??_C@_07MGKIIPNA@LeftAlt?$AA@ 0000000140256b58     imgui.obj
 0003:00001b68       ??_C@_09DKGEOIN@LeftSuper?$AA@ 0000000140256b68     imgui.obj
 0003:00001b78       ??_C@_09MGKDJPDD@RightCtrl?$AA@ 0000000140256b78     imgui.obj
 0003:00001b88       ??_C@_0L@NIAMFDCL@RightShift?$AA@ 0000000140256b88     imgui.obj
 0003:00001b98       ??_C@_08FCEDBIM@RightAlt?$AA@ 0000000140256b98     imgui.obj
 0003:00001ba8       ??_C@_0L@DJHBABNC@RightSuper?$AA@ 0000000140256ba8     imgui.obj
 0003:00001bb8       ??_C@_04IFEHPILC@Menu?$AA@ 0000000140256bb8     imgui.obj
 0003:00001bc0       ??_C@_01GBGANLPD@0?$AA@    0000000140256bc0     imgui.obj
 0003:00001bc4       ??_C@_01HIHLOKLC@1?$AA@    0000000140256bc4     imgui.obj
 0003:00001bc8       ??_C@_01FDFGLJHB@2?$AA@    0000000140256bc8     imgui.obj
 0003:00001bcc       ??_C@_01EKENIIDA@3?$AA@    0000000140256bcc     imgui.obj
 0003:00001bd0       ??_C@_01FAMBOPH@4?$AA@     0000000140256bd0     imgui.obj
 0003:00001bd4       ??_C@_01BMBHCPLG@5?$AA@    0000000140256bd4     imgui.obj
 0003:00001bd8       ??_C@_01DHDKHMHF@6?$AA@    0000000140256bd8     imgui.obj
 0003:00001bdc       ??_C@_01COCBENDE@7?$AA@    0000000140256bdc     imgui.obj
 0003:00001be0       ??_C@_01KJLJFBPL@8?$AA@    0000000140256be0     imgui.obj
 0003:00001be4       ??_C@_01LAKCGALK@9?$AA@    0000000140256be4     imgui.obj
 0003:00001be8       ??_C@_01FHEEJDEE@A?$AA@    0000000140256be8     imgui.obj
 0003:00001bec       ??_C@_01HMGJMAIH@B?$AA@    0000000140256bec     imgui.obj
 0003:00001bf0       ??_C@_01GFHCPBMG@C?$AA@    0000000140256bf0     imgui.obj
 0003:00001bf4       ??_C@_01CKDDGHAB@D?$AA@    0000000140256bf4     imgui.obj
 0003:00001bf8       ??_C@_01DDCIFGEA@E?$AA@    0000000140256bf8     imgui.obj
 0003:00001bfc       ??_C@_01BIAFAFID@F?$AA@    0000000140256bfc     imgui.obj
 0003:00001c00       ??_C@_01BBODEMC@G?$AA@     0000000140256c00     imgui.obj
 0003:00001c04       ??_C@_01IGIGCIAN@H?$AA@    0000000140256c04     imgui.obj
 0003:00001c08       ??_C@_01JPJNBJEM@I?$AA@    0000000140256c08     imgui.obj
 0003:00001c0c       ??_C@_01LELAEKIP@J?$AA@    0000000140256c0c     imgui.obj
 0003:00001c10       ??_C@_01KNKLHLMO@K?$AA@    0000000140256c10     imgui.obj
 0003:00001c14       ??_C@_01OCOKONAJ@L?$AA@    0000000140256c14     imgui.obj
 0003:00001c18       ??_C@_01PLPBNMEI@M?$AA@    0000000140256c18     imgui.obj
 0003:00001c1c       ??_C@_01NANMIPIL@N?$AA@    0000000140256c1c     imgui.obj
 0003:00001c20       ??_C@_01MJMHLOMK@O?$AA@    0000000140256c20     imgui.obj
 0003:00001c24       ??_C@_01EJNLAFE@P?$AA@     0000000140256c24     imgui.obj
 0003:00001c28       ??_C@_01BNIGIBBF@Q?$AA@    0000000140256c28     imgui.obj
 0003:00001c2c       ??_C@_01DGKLNCNG@R?$AA@    0000000140256c2c     imgui.obj
 0003:00001c30       ??_C@_01CPLAODJH@S?$AA@    0000000140256c30     imgui.obj
 0003:00001c34       ??_C@_01GAPBHFFA@T?$AA@    0000000140256c34     imgui.obj
 0003:00001c38       ??_C@_01HJOKEEBB@U?$AA@    0000000140256c38     imgui.obj
 0003:00001c3c       ??_C@_01FCMHBHNC@V?$AA@    0000000140256c3c     imgui.obj
 0003:00001c40       ??_C@_01ELNMCGJD@W?$AA@    0000000140256c40     imgui.obj
 0003:00001c44       ??_C@_01MMEEDKFM@X?$AA@    0000000140256c44     imgui.obj
 0003:00001c48       ??_C@_01NFFPALBN@Y?$AA@    0000000140256c48     imgui.obj
 0003:00001c4c       ??_C@_01POHCFINO@Z?$AA@    0000000140256c4c     imgui.obj
 0003:00001c50       ??_C@_02LCPENACN@F1?$AA@   0000000140256c50     imgui.obj
 0003:00001c54       ??_C@_02JJNJIDOO@F2?$AA@   0000000140256c54     imgui.obj
 0003:00001c58       ??_C@_02IAMCLCKP@F3?$AA@   0000000140256c58     imgui.obj
 0003:00001c5c       ??_C@_02MPIDCEGI@F4?$AA@   0000000140256c5c     imgui.obj
 0003:00001c60       ??_C@_02NGJIBFCJ@F5?$AA@   0000000140256c60     imgui.obj
 0003:00001c64       ??_C@_02PNLFEGOK@F6?$AA@   0000000140256c64     imgui.obj
 0003:00001c68       ??_C@_02OEKOHHKL@F7?$AA@   0000000140256c68     imgui.obj
 0003:00001c6c       ??_C@_02GDDGGLGE@F8?$AA@   0000000140256c6c     imgui.obj
 0003:00001c70       ??_C@_02HKCNFKCF@F9?$AA@   0000000140256c70     imgui.obj
 0003:00001c74       ??_C@_03JKCLJOFG@F10?$AA@  0000000140256c74     imgui.obj
 0003:00001c78       ??_C@_03IDDAKPBH@F11?$AA@  0000000140256c78     imgui.obj
 0003:00001c7c       ??_C@_03KIBNPMNE@F12?$AA@  0000000140256c7c     imgui.obj
 0003:00001c80       ??_C@_0L@KECMMICK@Apostrophe?$AA@ 0000000140256c80     imgui.obj
 0003:00001c90       ??_C@_05CJDGOLEJ@Comma?$AA@ 0000000140256c90     imgui.obj
 0003:00001c98       ??_C@_05OEAIFCGM@Minus?$AA@ 0000000140256c98     imgui.obj
 0003:00001ca0       ??_C@_06JOFJHOEH@Period?$AA@ 0000000140256ca0     imgui.obj
 0003:00001ca8       ??_C@_05OAOMBJIJ@Slash?$AA@ 0000000140256ca8     imgui.obj
 0003:00001cb0       ??_C@_09FBGFMNJC@Semicolon?$AA@ 0000000140256cb0     imgui.obj
 0003:00001cbc       ??_C@_05JKGNJOO@Equal?$AA@ 0000000140256cbc     imgui.obj
 0003:00001cc8       ??_C@_0M@FGLAPLO@LeftBracket?$AA@ 0000000140256cc8     imgui.obj
 0003:00001cd8       ??_C@_09LDIKCIFH@Backslash?$AA@ 0000000140256cd8     imgui.obj
 0003:00001ce8       ??_C@_0N@NOCLCIPD@RightBracket?$AA@ 0000000140256ce8     imgui.obj
 0003:00001cf8       ??_C@_0M@PEGEKEFO@GraveAccent?$AA@ 0000000140256cf8     imgui.obj
 0003:00001d08       ??_C@_08LBKIEOPK@CapsLock?$AA@ 0000000140256d08     imgui.obj
 0003:00001d18       ??_C@_0L@JJJEGPLJ@ScrollLock?$AA@ 0000000140256d18     imgui.obj
 0003:00001d28       ??_C@_07JOCOIGEJ@NumLock?$AA@ 0000000140256d28     imgui.obj
 0003:00001d38       ??_C@_0M@CJIDBHOK@PrintScreen?$AA@ 0000000140256d38     imgui.obj
 0003:00001d48       ??_C@_05PEDNBBBD@Pause?$AA@ 0000000140256d48     imgui.obj
 0003:00001d50       ??_C@_07PBFJOEMA@Keypad0?$AA@ 0000000140256d50     imgui.obj
 0003:00001d60       ??_C@_07OIECNFIB@Keypad1?$AA@ 0000000140256d60     imgui.obj
 0003:00001d70       ??_C@_07MDGPIGEC@Keypad2?$AA@ 0000000140256d70     imgui.obj
 0003:00001d80       ??_C@_07NKHELHAD@Keypad3?$AA@ 0000000140256d80     imgui.obj
 0003:00001d90       ??_C@_07JFDFCBME@Keypad4?$AA@ 0000000140256d90     imgui.obj
 0003:00001da0       ??_C@_07IMCOBAIF@Keypad5?$AA@ 0000000140256da0     imgui.obj
 0003:00001db0       ??_C@_07KHADEDEG@Keypad6?$AA@ 0000000140256db0     imgui.obj
 0003:00001dc0       ??_C@_07LOBIHCAH@Keypad7?$AA@ 0000000140256dc0     imgui.obj
 0003:00001dd0       ??_C@_07DJIAGOMI@Keypad8?$AA@ 0000000140256dd0     imgui.obj
 0003:00001de0       ??_C@_07CAJLFPIJ@Keypad9?$AA@ 0000000140256de0     imgui.obj
 0003:00001df0       ??_C@_0O@GMHIBIOG@KeypadDecimal?$AA@ 0000000140256df0     imgui.obj
 0003:00001e00       ??_C@_0N@IOPGAACF@KeypadDivide?$AA@ 0000000140256e00     imgui.obj
 0003:00001e10       ??_C@_0P@DDMFINAM@KeypadMultiply?$AA@ 0000000140256e10     imgui.obj
 0003:00001e28       ??_C@_0P@EGJPMAKL@KeypadSubtract?$AA@ 0000000140256e28     imgui.obj
 0003:00001e40       ??_C@_09PBFBAKNA@KeypadAdd?$AA@ 0000000140256e40     imgui.obj
 0003:00001e50       ??_C@_0M@LDMAMCMH@KeypadEnter?$AA@ 0000000140256e50     imgui.obj
 0003:00001e60       ??_C@_0M@DKIEDCPC@KeypadEqual?$AA@ 0000000140256e60     imgui.obj
 0003:00001e70       ??_C@_0N@KFODLNBI@GamepadStart?$AA@ 0000000140256e70     imgui.obj
 0003:00001e80       ??_C@_0M@BMKDKCOL@GamepadBack?$AA@ 0000000140256e80     imgui.obj
 0003:00001e90       ??_C@_0BA@LLLNHFDH@GamepadFaceLeft?$AA@ 0000000140256e90     imgui.obj
 0003:00001ea8       ??_C@_0BB@KCPJBHBD@GamepadFaceRight?$AA@ 0000000140256ea8     imgui.obj
 0003:00001ec0       ??_C@_0O@NEIKDCMN@GamepadFaceUp?$AA@ 0000000140256ec0     imgui.obj
 0003:00001ed0       ??_C@_0BA@EJLJONAO@GamepadFaceDown?$AA@ 0000000140256ed0     imgui.obj
 0003:00001ee8       ??_C@_0BA@HJJJKOII@GamepadDpadLeft?$AA@ 0000000140256ee8     imgui.obj
 0003:00001f00       ??_C@_0BB@PJOFJNNF@GamepadDpadRight?$AA@ 0000000140256f00     imgui.obj
 0003:00001f18       ??_C@_0O@EJODMGNP@GamepadDpadUp?$AA@ 0000000140256f18     imgui.obj
 0003:00001f28       ??_C@_0BA@ILJNDGLB@GamepadDpadDown?$AA@ 0000000140256f28     imgui.obj
 0003:00001f40       ??_C@_09BNICIIOB@GamepadL1?$AA@ 0000000140256f40     imgui.obj
 0003:00001f50       ??_C@_09LDKAGJL@GamepadR1?$AA@ 0000000140256f50     imgui.obj
 0003:00001f60       ??_C@_09DGKPNLCC@GamepadL2?$AA@ 0000000140256f60     imgui.obj
 0003:00001f70       ??_C@_09CABHFFFI@GamepadR2?$AA@ 0000000140256f70     imgui.obj
 0003:00001f80       ??_C@_09CPLEOKGD@GamepadL3?$AA@ 0000000140256f80     imgui.obj
 0003:00001f90       ??_C@_09DJAMGEBJ@GamepadR3?$AA@ 0000000140256f90     imgui.obj
 0003:00001fa0       ??_C@_0BC@MGONIKHG@GamepadLStickLeft?$AA@ 0000000140256fa0     imgui.obj
 0003:00001fb8       ??_C@_0BD@KDFPDGOK@GamepadLStickRight?$AA@ 0000000140256fb8     imgui.obj
 0003:00001fd0       ??_C@_0BA@NNMPJILJ@GamepadLStickUp?$AA@ 0000000140256fd0     imgui.obj
 0003:00001fe8       ??_C@_0BC@DEOJBCEP@GamepadLStickDown?$AA@ 0000000140256fe8     imgui.obj
 0003:00002000       ??_C@_0BC@DKGNGFLL@GamepadRStickLeft?$AA@ 0000000140257000     imgui.obj
 0003:00002018       ??_C@_0BD@EGHGAIAI@GamepadRStickRight?$AA@ 0000000140257018     imgui.obj
 0003:00002030       ??_C@_0BA@LJMNABFK@GamepadRStickUp?$AA@ 0000000140257030     imgui.obj
 0003:00002048       ??_C@_0BC@MIGJPNIC@GamepadRStickDown?$AA@ 0000000140257048     imgui.obj
 0003:00002060       ??_C@_09DBACHFO@MouseLeft?$AA@ 0000000140257060     imgui.obj
 0003:00002070       ??_C@_0L@JGCPGDLN@MouseRight?$AA@ 0000000140257070     imgui.obj
 0003:00002080       ??_C@_0M@CDBJKEDH@MouseMiddle?$AA@ 0000000140257080     imgui.obj
 0003:00002090       ??_C@_07BICMLCEA@MouseX1?$AA@ 0000000140257090     imgui.obj
 0003:000020a0       ??_C@_07DDABOBID@MouseX2?$AA@ 00000001402570a0     imgui.obj
 0003:000020b0       ??_C@_0M@MENPLCHJ@MouseWheelX?$AA@ 00000001402570b0     imgui.obj
 0003:000020c0       ??_C@_0M@NNMEIDDI@MouseWheelY?$AA@ 00000001402570c0     imgui.obj
 0003:000020d0       ??_C@_07KDONALCN@ModCtrl?$AA@ 00000001402570d0     imgui.obj
 0003:000020e0       ??_C@_08CCGGCANM@ModShift?$AA@ 00000001402570e0     imgui.obj
 0003:000020ec       ??_C@_06PLGJOJNE@ModAlt?$AA@ 00000001402570ec     imgui.obj
 0003:000020f8       ??_C@_08MDBLHCCF@ModSuper?$AA@ 00000001402570f8     imgui.obj
 0003:00002108       ??_C@_0BN@CNPDCOK@Size?5column?5to?5fit?$CD?$CD?$CDSizeOne?$AA@ 0000000140257108     imgui.obj
 0003:00002130       ??_C@_0CC@MJIBPDCL@Size?5all?5columns?5to?5fit?$CD?$CD?$CDSizeAl@ 0000000140257130     imgui.obj
 0003:00002158       ??_C@_0CG@CFICKNDA@Size?5all?5columns?5to?5default?$CD?$CD?$CDSi@ 0000000140257158     imgui.obj
 0003:00002188       ??_C@_0BJ@BBKAOKNK@Reset?5order?$CD?$CD?$CDResetOrder?$AA@ 0000000140257188     imgui.obj
 0003:000021a8       ??_C@_0BA@KDPNEDEH@?$CIMain?5menu?5bar?$CJ?$AA@ 00000001402571a8     imgui.obj
 0003:000021c0       ??_C@_07NPLNEKJH@?$CIPopup?$CJ?$AA@ 00000001402571c0     imgui.obj
 0003:000021d0       ??_C@_0L@JOJOIPFK@?$CIUntitled?$CJ?$AA@ 00000001402571d0     imgui.obj
 0003:0000a570       ??_C@_1EO@MGODAGF@?$AAc?$AA?3?$AA?2?$AAg?$AAi?$AAt?$AAh?$AAu?$AAb?$AA?2?$AAf?$AAr?$AAa?$AAm?$AAe?$AAw?$AAo?$AAr?$AAk?$AA?2?$AAt?$AAo?$AAo?$AAl?$AA?2?$AAi?$AAm?$AAg?$AAu?$AAi?$AA?2?$AAi@ 000000014025f570     imgui.obj
 0003:0000a5d0       ??_C@_1CK@JJMIFKKC@?$AAi?$AAd?$AAx?$AA?5?$AA?$DN?$AA?$DN?$AA?5?$AA0?$AA?5?$AA?$HM?$AA?$HM?$AA?5?$AAi?$AAd?$AAx?$AA?5?$AA?$DN?$AA?$DN?$AA?5?$AA1?$AA?$AA@ 000000014025f5d0     imgui.obj
 0003:0000a610       ??_C@_1GA@FAIKKLKG@?$AAc?$AA?3?$AA?2?$AAg?$AAi?$AAt?$AAh?$AAu?$AAb?$AA?2?$AAf?$AAr?$AAa?$AAm?$AAe?$AAw?$AAo?$AAr?$AAk?$AA?2?$AAt?$AAo?$AAo?$AAl?$AA?2?$AAi?$AAm?$AAg?$AAu?$AAi?$AA?2?$AAi@ 000000014025f610     imgui.obj
 0003:0000a688       ??_C@_0P@HEMCFMMD@?$CKMissing?5Text?$CK?$AA@ 000000014025f688     imgui.obj
 0003:0000a6a0       ??_C@_1FO@FMIBGDCD@?$AAb?$AAu?$AAt?$AAt?$AAo?$AAn?$AA?5?$AA?$DO?$AA?$DN?$AA?5?$AA0?$AA?5?$AA?$CG?$AA?$CG?$AA?5?$AAb?$AAu?$AAt?$AAt?$AAo?$AAn?$AA?5?$AA?$DM?$AA?5?$AAI?$AAm?$AAG?$AAu?$AAi?$AAM?$AAo?$AAu@ 000000014025f6a0     imgui.obj
 0003:0000a710       ??_C@_1CA@BBLMKGEM@?$AAI?$AAs?$AAN?$AAa?$AAm?$AAe?$AAd?$AAK?$AAe?$AAy?$AA?$CI?$AAk?$AAe?$AAy?$AA?$CJ?$AA?$AA@ 000000014025f710     imgui.obj
 0003:0000a738       ??_C@_13COJANIEC@?$AA0?$AA?$AA@ 000000014025f738     imgui.obj
 0003:0000a740       ??_C@_09BJIHMJFE@imgui?4ini?$AA@ 000000014025f740     imgui.obj
 0003:0000a750       ??_C@_0O@HCOAADPE@imgui_log?4txt?$AA@ 000000014025f750     imgui.obj
 0003:0000a760       ??_C@_0CI@LNLNKKBP@Can?5only?5add?5events?5to?5current?5c@ 000000014025f760     imgui.obj
 0003:0000a790       ??_C@_1FC@OHCMFJKI@?$AAc?$AA?3?$AA?2?$AAg?$AAi?$AAt?$AAh?$AAu?$AAb?$AA?2?$AAf?$AAr?$AAa?$AAm?$AAe?$AAw?$AAo?$AAr?$AAk?$AA?2?$AAt?$AAo?$AAo?$AAl?$AA?2?$AAi?$AAm?$AAg?$AAu?$AAi?$AA?2?$AAi@ 000000014025f790     imgui.obj
 0003:0000a800       ??_C@_1HG@JECAFLFP@?$AA?$CG?$AAg?$AA?4?$AAI?$AAO?$AA?5?$AA?$DN?$AA?$DN?$AA?5?$AAt?$AAh?$AAi?$AAs?$AA?5?$AA?$CG?$AA?$CG?$AA?5?$AA?$CC?$AAC?$AAa?$AAn?$AA?5?$AAo?$AAn?$AAl?$AAy?$AA?5?$AAa?$AAd?$AAd?$AA?5?$AAe@ 000000014025f800     imgui.obj
 0003:0000a890       ??_C@_1DO@LIHGEDDC@?$AAI?$AAm?$AAG?$AAu?$AAi?$AA?3?$AA?3?$AAI?$AAs?$AAN?$AAa?$AAm?$AAe?$AAd?$AAK?$AAe?$AAy?$AAO?$AAr?$AAM?$AAo?$AAd?$AAK?$AAe?$AAy?$AA?$CI?$AAk?$AAe?$AAy?$AA?$CJ?$AA?$AA@ 000000014025f890     imgui.obj
 0003:0000a8e0       ??_C@_1DA@LAHBKLDC@?$AA?$CB?$AAI?$AAm?$AAG?$AAu?$AAi?$AA?3?$AA?3?$AAI?$AAs?$AAA?$AAl?$AAi?$AAa?$AAs?$AAK?$AAe?$AAy?$AA?$CI?$AAk?$AAe?$AAy?$AA?$CJ?$AA?$AA@ 000000014025f8e0     imgui.obj
 0003:0000a920       ??_C@_1DC@GHKNLCOD@?$AAk?$AAe?$AAy?$AA?5?$AA?$CB?$AA?$DN?$AA?5?$AAI?$AAm?$AAG?$AAu?$AAi?$AAM?$AAo?$AAd?$AA_?$AAS?$AAh?$AAo?$AAr?$AAt?$AAc?$AAu?$AAt?$AA?$AA@ 000000014025f920     imgui.obj
 0003:0000a960       ??_C@_0HC@JFACPAD@Backend?5needs?5to?5either?5only?5use@ 000000014025f960     imgui.obj
 0003:0000a9f0       ??_C@_1BHO@NLGKKLM@?$AA?$CI?$AAB?$AAa?$AAc?$AAk?$AAe?$AAn?$AAd?$AAU?$AAs?$AAi?$AAn?$AAg?$AAL?$AAe?$AAg?$AAa?$AAc?$AAy?$AAK?$AAe?$AAy?$AAA?$AAr?$AAr?$AAa?$AAy?$AAs?$AA?5?$AA?$DN?$AA?$DN?$AA?5@ 000000014025f9f0     imgui.obj
 0003:0000abc0       ??_C@_1BAO@IMIAKPPJ@?$AAK?$AAe?$AAy?$AAM?$AAa?$AAp?$AA?$FL?$AAn?$AA?$FN?$AA?5?$AA?$DN?$AA?$DN?$AA?5?$AA?9?$AA1?$AA?5?$AA?$CG?$AA?$CG?$AA?5?$AA?$CC?$AAB?$AAa?$AAc?$AAk?$AAe?$AAn?$AAd?$AA?5?$AAn?$AAe?$AAe?$AAd@ 000000014025fbc0     imgui.obj
 0003:0000ad08       ??_C@_1CO@CONHILD@?$AAI?$AAm?$AAG?$AAu?$AAi?$AA?3?$AA?3?$AAI?$AAs?$AAN?$AAa?$AAm?$AAe?$AAd?$AAK?$AAe?$AAy?$AA?$CI?$AAk?$AAe?$AAy?$AA?$CJ?$AA?$AA@ 000000014025fd08     imgui.obj
 0003:0000ad40       ??_C@_1JO@BMLJDDEB@?$AAn?$AAa?$AAt?$AAi?$AAv?$AAe?$AA_?$AAl?$AAe?$AAg?$AAa?$AAc?$AAy?$AA_?$AAi?$AAn?$AAd?$AAe?$AAx?$AA?5?$AA?$DN?$AA?$DN?$AA?5?$AA?9?$AA1?$AA?5?$AA?$HM?$AA?$HM?$AA?5?$AAI?$AAm?$AAG@ 000000014025fd40     imgui.obj
 0003:0000ae00       ??_C@_1HG@LHACLJHI@?$AAm?$AAo?$AAu?$AAs?$AAe?$AA_?$AAb?$AAu?$AAt?$AAt?$AAo?$AAn?$AA?5?$AA?$DO?$AA?$DN?$AA?5?$AA0?$AA?5?$AA?$CG?$AA?$CG?$AA?5?$AAm?$AAo?$AAu?$AAs?$AAe?$AA_?$AAb?$AAu?$AAt?$AAt?$AAo@ 000000014025fe00     imgui.obj
 0003:0000ae90       ??_C@_1CC@OJIGCPJC@?$AAn?$AAu?$AAm?$AA_?$AAs?$AAe?$AAg?$AAm?$AAe?$AAn?$AAt?$AAs?$AA?5?$AA?$DO?$AA?5?$AA0?$AA?$AA@ 000000014025fe90     imgui.obj
 0003:0000aeb8       ??_C@_1CA@PELHDBHK@?$AAt?$AAe?$AAs?$AAs?$AA_?$AAt?$AAo?$AAl?$AA?5?$AA?$DO?$AA?5?$AA0?$AA?4?$AA0?$AAf?$AA?$AA@ 000000014025feb8     imgui.obj
 0003:0000aee0       ??_C@_1CC@MDBCLFOC@?$AAf?$AAi?$AAl?$AAe?$AAn?$AAa?$AAm?$AAe?$AA?5?$AA?$CG?$AA?$CG?$AA?5?$AAm?$AAo?$AAd?$AAe?$AA?$AA@ 000000014025fee0     imgui.obj
 0003:0000af08       ??_C@_00CNPNBAHC@?$AA@     000000014025ff08     imgui.obj
 0003:0000af10       ??_C@_1HO@CCLMOLIF@?$AAo?$AAl?$AAd?$AA_?$AAs?$AAi?$AAz?$AAe?$AA?5?$AA?$DO?$AA?$DN?$AA?5?$AA0?$AA?5?$AA?$CG?$AA?$CG?$AA?5?$AAn?$AAe?$AAw?$AA_?$AAs?$AAi?$AAz?$AAe?$AA?5?$AA?$DO?$AA?$DN?$AA?5?$AAo?$AAl?$AAd@ 000000014025ff10     imgui.obj
 0003:0000afb0       ??_C@_1IC@MIOFPCGM@?$AA?$CB?$AAr?$AAa?$AAn?$AAg?$AAe?$AAs?$AA?$FL?$AAi?$AA?$FN?$AA?4?$AAP?$AAo?$AAs?$AAT?$AAo?$AAI?$AAn?$AAd?$AAe?$AAx?$AAC?$AAo?$AAn?$AAv?$AAe?$AAr?$AAt?$AA?5?$AA?$CG?$AA?$CG?$AA?5@ 000000014025ffb0     imgui.obj
 0003:0000b050       ??_C@_0CB@GNIOCDHI@Clipper?3?5Begin?$CI?$CFd?0?$CF?42f?$CJ?5in?5?8?$CFs?8?6@ 0000000140260050     imgui.obj
 0003:0000b078       ??_C@_0BI@CAOKIKBG@Clipper?3?5End?$CI?$CJ?5in?5?8?$CFs?8?6?$AA@ 0000000140260078     imgui.obj
 0003:0000b098       ??_C@_1DE@PAMNKHLD@?$AAd?$AAa?$AAt?$AAa?$AA?9?$AA?$DO?$AAL?$AAi?$AAs?$AAt?$AAC?$AAl?$AAi?$AAp?$AAp?$AAe?$AAr?$AA?5?$AA?$DN?$AA?$DN?$AA?5?$AAt?$AAh?$AAi?$AAs?$AA?$AA@ 0000000140260098     imgui.obj
 0003:0000b0d8       ??_C@_1CC@CLNGJMEE@?$AAD?$AAi?$AAs?$AAp?$AAl?$AAa?$AAy?$AAS?$AAt?$AAa?$AAr?$AAt?$AA?5?$AA?$DM?$AA?5?$AA0?$AA?$AA@ 00000001402600d8     imgui.obj
 0003:0000b100       ??_C@_1CK@JPOCBLN@?$AAi?$AAt?$AAe?$AAm?$AA_?$AAm?$AAi?$AAn?$AA?5?$AA?$DM?$AA?$DN?$AA?5?$AAi?$AAt?$AAe?$AAm?$AA_?$AAm?$AAa?$AAx?$AA?$AA@ 0000000140260100     imgui.obj
 0003:0000b140       ??_C@_0FG@OANOMCEC@Called?5ImGuiListClipper?3?3Step?$CI?$CJ?5@ 0000000140260140     imgui.obj
 0003:0000b1b0       ??_C@_1MK@LNGOFCMN@?$AAd?$AAa?$AAt?$AAa?$AA?5?$AA?$CB?$AA?$DN?$AA?5?$AA0?$AA?5?$AA?$CG?$AA?$CG?$AA?5?$AA?$CC?$AAC?$AAa?$AAl?$AAl?$AAe?$AAd?$AA?5?$AAI?$AAm?$AAG?$AAu?$AAi?$AAL?$AAi?$AAs?$AAt?$AAC?$AAl@ 00000001402601b0     imgui.obj
 0003:0000b2a8       ??_C@_1CE@JAPGLFFA@?$AAd?$AAa?$AAt?$AAa?$AA?9?$AA?$DO?$AAS?$AAt?$AAe?$AAp?$AAN?$AAo?$AA?5?$AA?$DN?$AA?$DN?$AA?5?$AA1?$AA?$AA@ 00000001402602a8     imgui.obj
 0003:0000b2e0       ??_C@_1KG@FMJJLCOM@?$AAt?$AAa?$AAb?$AAl?$AAe?$AA?9?$AA?$DO?$AAR?$AAo?$AAw?$AAP?$AAo?$AAs?$AAY?$AA1?$AA?5?$AA?$DN?$AA?$DN?$AA?5?$AAc?$AAl?$AAi?$AAp?$AAp?$AAe?$AAr?$AA?9?$AA?$DO?$AAS?$AAt?$AAa?$AAr@ 00000001402602e0     imgui.obj
 0003:0000b3b0       ??_C@_0FA@HACOCONG@Unable?5to?5calculate?5item?5height?$CB@ 00000001402603b0     imgui.obj
 0003:0000b410       ??_C@_1OC@JHLLHLLP@?$AAc?$AAl?$AAi?$AAp?$AAp?$AAe?$AAr?$AA?9?$AA?$DO?$AAI?$AAt?$AAe?$AAm?$AAs?$AAH?$AAe?$AAi?$AAg?$AAh?$AAt?$AA?5?$AA?$DO?$AA?5?$AA0?$AA?4?$AA0?$AAf?$AA?5?$AA?$CG?$AA?$CG?$AA?5?$AA?$CC@ 0000000140260410     imgui.obj
 0003:0000b520       ??_C@_0CL@INMALPKG@Clipper?3?5Step?$CI?$CJ?3?5inside?5frozen?5t@ 0000000140260520     imgui.obj
 0003:0000b558       ??_C@_0CO@DPDPBJBN@Clipper?3?5Step?$CI?$CJ?3?5computed?5ItemsH@ 0000000140260558     imgui.obj
 0003:0000b590       ??_C@_0CE@JEMCBOCJ@Clipper?3?5Step?$CI?$CJ?3?5display?5?$CFd?5to?5?$CF@ 0000000140260590     imgui.obj
 0003:0000b5c0       ??_C@_0BH@MKOKNAKC@Clipper?3?5Step?$CI?$CJ?3?5End?4?6?$AA@ 00000001402605c0     imgui.obj
 0003:0000b5e0       ??_C@_0FJ@JBAFLEHG@No?5current?5context?4?5Did?5you?5call@ 00000001402605e0     imgui.obj
 0003:0000b650       ??_C@_1NE@MGLAEJCB@?$AAG?$AAI?$AAm?$AAG?$AAu?$AAi?$AA?5?$AA?$CB?$AA?$DN?$AA?5?$AA0?$AA?5?$AA?$CG?$AA?$CG?$AA?5?$AA?$CC?$AAN?$AAo?$AA?5?$AAc?$AAu?$AAr?$AAr?$AAe?$AAn?$AAt?$AA?5?$AAc?$AAo?$AAn?$AAt?$AAe@ 0000000140260650     imgui.obj
 0003:0000b750       ??_C@_0DJ@CFJOCFBB@Calling?5PopStyleColor?$CI?$CJ?5too?5many@ 0000000140260750     imgui.obj
 0003:0000b7a0       ??_C@_1LE@CHMFADCM@?$AA?$CI?$AAg?$AA?4?$AAC?$AAo?$AAl?$AAo?$AAr?$AAS?$AAt?$AAa?$AAc?$AAk?$AA?4?$AAS?$AAi?$AAz?$AAe?$AA?5?$AA?$DO?$AA?5?$AAc?$AAo?$AAu?$AAn?$AAt?$AA?$CJ?$AA?5?$AA?$CG?$AA?$CG?$AA?5?$AA?$CC@ 00000001402607a0     imgui.obj
 0003:0000b880       ??_C@_1EM@KGOACLAI@?$AAi?$AAd?$AAx?$AA?5?$AA?$DO?$AA?$DN?$AA?5?$AA0?$AA?5?$AA?$CG?$AA?$CG?$AA?5?$AAi?$AAd?$AAx?$AA?5?$AA?$DM?$AA?5?$AAI?$AAm?$AAG?$AAu?$AAi?$AAS?$AAt?$AAy?$AAl?$AAe?$AAV?$AAa?$AAr?$AA_@ 0000000140260880     imgui.obj
 0003:0000b8e0       ??_C@_1JA@BICGEIG@?$AA0?$AA?5?$AA?$CG?$AA?$CG?$AA?5?$AA?$CC?$AAC?$AAa?$AAl?$AAl?$AAe?$AAd?$AA?5?$AAP?$AAu?$AAs?$AAh?$AAS?$AAt?$AAy?$AAl?$AAe?$AAV?$AAa?$AAr?$AA?$CI?$AA?$CJ?$AA?5?$AAf?$AAl?$AAo?$AAa@ 00000001402608e0     imgui.obj
 0003:0000b990       ??_C@_1JE@EECEMJDC@?$AA0?$AA?5?$AA?$CG?$AA?$CG?$AA?5?$AA?$CC?$AAC?$AAa?$AAl?$AAl?$AAe?$AAd?$AA?5?$AAP?$AAu?$AAs?$AAh?$AAS?$AAt?$AAy?$AAl?$AAe?$AAV?$AAa?$AAr?$AA?$CI?$AA?$CJ?$AA?5?$AAI?$AAm?$AAV?$AAe@ 0000000140260990     imgui.obj
 0003:0000ba48       ??_C@_0DH@HAEMKDBF@Calling?5PopStyleVar?$CI?$CJ?5too?5many?5t@ 0000000140260a48     imgui.obj
 0003:0000ba90       ??_C@_1LG@DIBHFCBP@?$AA?$CI?$AAg?$AA?4?$AAS?$AAt?$AAy?$AAl?$AAe?$AAV?$AAa?$AAr?$AAS?$AAt?$AAa?$AAc?$AAk?$AA?4?$AAS?$AAi?$AAz?$AAe?$AA?5?$AA?$DO?$AA?5?$AAc?$AAo?$AAu?$AAn?$AAt?$AA?$CJ?$AA?5?$AA?$CG@ 0000000140260a90     imgui.obj
 0003:0000bb6c       ??_C@_04OJAHODMC@Text?$AA@ 0000000140260b6c     imgui.obj
 0003:0000bb78       ??_C@_0N@LNHHFNPK@TextDisabled?$AA@ 0000000140260b78     imgui.obj
 0003:0000bb88       ??_C@_08DMKFNKPN@WindowBg?$AA@ 0000000140260b88     imgui.obj
 0003:0000bb98       ??_C@_07BLEJOHFO@ChildBg?$AA@ 0000000140260b98     imgui.obj
 0003:0000bba8       ??_C@_07LKIIIJHA@PopupBg?$AA@ 0000000140260ba8     imgui.obj
 0003:0000bbb4       ??_C@_06CMOGDIBK@Border?$AA@ 0000000140260bb4     imgui.obj
 0003:0000bbc0       ??_C@_0N@DECGFAEC@BorderShadow?$AA@ 0000000140260bc0     imgui.obj
 0003:0000bbd0       ??_C@_07PJIIOGAC@FrameBg?$AA@ 0000000140260bd0     imgui.obj
 0003:0000bbe0       ??_C@_0P@KIOOHHAC@FrameBgHovered?$AA@ 0000000140260be0     imgui.obj
 0003:0000bbf8       ??_C@_0O@BGDCDDEA@FrameBgActive?$AA@ 0000000140260bf8     imgui.obj
 0003:0000bc08       ??_C@_07MMLEKCPI@TitleBg?$AA@ 0000000140260c08     imgui.obj
 0003:0000bc18       ??_C@_0O@JHBFJHNE@TitleBgActive?$AA@ 0000000140260c18     imgui.obj
 0003:0000bc28       ??_C@_0BB@EGCOMBJG@TitleBgCollapsed?$AA@ 0000000140260c28     imgui.obj
 0003:0000bc40       ??_C@_09GEKCKLDE@MenuBarBg?$AA@ 0000000140260c40     imgui.obj
 0003:0000bc50       ??_C@_0M@MFDHPFJF@ScrollbarBg?$AA@ 0000000140260c50     imgui.obj
 0003:0000bc60       ??_C@_0O@HABIDNBE@ScrollbarGrab?$AA@ 0000000140260c60     imgui.obj
 0003:0000bc70       ??_C@_0BF@JFEOOMLL@ScrollbarGrabHovered?$AA@ 0000000140260c70     imgui.obj
 0003:0000bc90       ??_C@_0BE@GODMFNCF@ScrollbarGrabActive?$AA@ 0000000140260c90     imgui.obj
 0003:0000bca8       ??_C@_09DMKAANGE@CheckMark?$AA@ 0000000140260ca8     imgui.obj
 0003:0000bcb8       ??_C@_0L@LAMBADIC@SliderGrab?$AA@ 0000000140260cb8     imgui.obj
 0003:0000bcc8       ??_C@_0BB@HBOBMOMP@SliderGrabActive?$AA@ 0000000140260cc8     imgui.obj
 0003:0000bcdc       ??_C@_06LKBCGDFD@Button?$AA@ 0000000140260cdc     imgui.obj
 0003:0000bce8       ??_C@_0O@HBCGNIAI@ButtonHovered?$AA@ 0000000140260ce8     imgui.obj
 0003:0000bcf8       ??_C@_0N@IMHOFKJ@ButtonActive?$AA@ 0000000140260cf8     imgui.obj
 0003:0000bd08       ??_C@_06OENKJGA@Header?$AA@ 0000000140260d08     imgui.obj
 0003:0000bd10       ??_C@_0O@HAINNLMC@HeaderHovered?$AA@ 0000000140260d10     imgui.obj
 0003:0000bd20       ??_C@_0N@HILFCJOI@HeaderActive?$AA@ 0000000140260d20     imgui.obj
 0003:0000bd30       ??_C@_09IBFEOKHN@Separator?$AA@ 0000000140260d30     imgui.obj
 0003:0000bd40       ??_C@_0BB@CHICANJA@SeparatorHovered?$AA@ 0000000140260d40     imgui.obj
 0003:0000bd58       ??_C@_0BA@BPNGFOJM@SeparatorActive?$AA@ 0000000140260d58     imgui.obj
 0003:0000bd70       ??_C@_0L@NGBDNFNJ@ResizeGrip?$AA@ 0000000140260d70     imgui.obj
 0003:0000bd80       ??_C@_0BC@NNEDPMNH@ResizeGripHovered?$AA@ 0000000140260d80     imgui.obj
 0003:0000bd98       ??_C@_0BB@NBBKHKIC@ResizeGripActive?$AA@ 0000000140260d98     imgui.obj
 0003:0000bdb0       ??_C@_0L@JFDLBKBD@TabHovered?$AA@ 0000000140260db0     imgui.obj
 0003:0000bdc0       ??_C@_09BLMKPFCF@TabActive?$AA@ 0000000140260dc0     imgui.obj
 0003:0000bdd0       ??_C@_0N@KLEENDFP@TabUnfocused?$AA@ 0000000140260dd0     imgui.obj
 0003:0000bde0       ??_C@_0BD@JMEALEPP@TabUnfocusedActive?$AA@ 0000000140260de0     imgui.obj
 0003:0000bdf8       ??_C@_09HDJFFJLL@PlotLines?$AA@ 0000000140260df8     imgui.obj
 0003:0000be08       ??_C@_0BB@OMALNJLN@PlotLinesHovered?$AA@ 0000000140260e08     imgui.obj
 0003:0000be20       ??_C@_0O@EEKOCENA@PlotHistogram?$AA@ 0000000140260e20     imgui.obj
 0003:0000be30       ??_C@_0BF@GJALJGDC@PlotHistogramHovered?$AA@ 0000000140260e30     imgui.obj
 0003:0000be50       ??_C@_0O@OAEMMJAA@TableHeaderBg?$AA@ 0000000140260e50     imgui.obj
 0003:0000be60       ??_C@_0BC@EJINMLMM@TableBorderStrong?$AA@ 0000000140260e60     imgui.obj
 0003:0000be78       ??_C@_0BB@IPAPNNJD@TableBorderLight?$AA@ 0000000140260e78     imgui.obj
 0003:0000be90       ??_C@_0L@LLALIFOE@TableRowBg?$AA@ 0000000140260e90     imgui.obj
 0003:0000bea0       ??_C@_0O@FGPLHMKP@TableRowBgAlt?$AA@ 0000000140260ea0     imgui.obj
 0003:0000beb0       ??_C@_0P@IBBLAEBJ@TextSelectedBg?$AA@ 0000000140260eb0     imgui.obj
 0003:0000bec8       ??_C@_0P@GDDMCLOI@DragDropTarget?$AA@ 0000000140260ec8     imgui.obj
 0003:0000bee0       ??_C@_0N@ENCIHEPH@NavHighlight?$AA@ 0000000140260ee0     imgui.obj
 0003:0000bef0       ??_C@_0BG@MCGDEFOI@NavWindowingHighlight?$AA@ 0000000140260ef0     imgui.obj
 0003:0000bf10       ??_C@_0BC@JHKONDGH@NavWindowingDimBg?$AA@ 0000000140260f10     imgui.obj
 0003:0000bf28       ??_C@_0BB@JOEAHKNC@ModalWindowDimBg?$AA@ 0000000140260f28     imgui.obj
 0003:0000bf40       ??_C@_07NBCGADJA@Unknown?$AA@ 0000000140260f40     imgui.obj
 0003:0000bf50       ??_C@_1JM@LKKCKIOL@?$AAm?$AAo?$AAu?$AAs?$AAe?$AA_?$AAc?$AAu?$AAr?$AAs?$AAo?$AAr?$AA?5?$AA?$DO?$AA?5?$AAI?$AAm?$AAG?$AAu?$AAi?$AAM?$AAo?$AAu?$AAs?$AAe?$AAC?$AAu?$AAr?$AAs?$AAo?$AAr?$AA_@ 0000000140260f50     imgui.obj
 0003:0000c010       ??_C@_1EI@IBBBPCIN@?$AA?$CB?$AAg?$AA?4?$AAI?$AAn?$AAi?$AAt?$AAi?$AAa?$AAl?$AAi?$AAz?$AAe?$AAd?$AA?5?$AA?$CG?$AA?$CG?$AA?5?$AA?$CB?$AAg?$AA?4?$AAS?$AAe?$AAt?$AAt?$AAi?$AAn?$AAg?$AAs?$AAL?$AAo?$AAa@ 0000000140261010     imgui.obj
 0003:0000c068       ??_C@_06BKKJGDHO@Window?$AA@ 0000000140261068     imgui.obj
 0003:0000c070       ??_C@_1LO@DGOFJFDA@?$AAh?$AAo?$AAo?$AAk?$AA?9?$AA?$DO?$AAC?$AAa?$AAl?$AAl?$AAb?$AAa?$AAc?$AAk?$AA?5?$AA?$CB?$AA?$DN?$AA?5?$AA0?$AA?5?$AA?$CG?$AA?$CG?$AA?5?$AAh?$AAo?$AAo?$AAk?$AA?9?$AA?$DO?$AAH?$AAo?$AAo@ 0000000140261070     imgui.obj
 0003:0000c158       ??_C@_1BK@LEOMHFJC@?$AAh?$AAo?$AAo?$AAk?$AA_?$AAi?$AAd?$AA?5?$AA?$CB?$AA?$DN?$AA?5?$AA0?$AA?$AA@ 0000000140261158     imgui.obj
 0003:0000c178       ??_C@_05EJCOBEBF@?$CDMOVE?$AA@ 0000000140261178     imgui.obj
 0003:0000c180       ??_C@_1DE@OJBIPCGA@?$AAD?$AAr?$AAa?$AAw?$AAL?$AAi?$AAs?$AAt?$AA?5?$AA?$DN?$AA?$DN?$AA?5?$AA?$CG?$AAD?$AAr?$AAa?$AAw?$AAL?$AAi?$AAs?$AAt?$AAI?$AAn?$AAs?$AAt?$AA?$AA@ 0000000140261180     imgui.obj
 0003:0000c1c0       ??_C@_0CD@PNHNJJBD@SetActiveID?$CI?$CJ?5cancel?5MovingWindo@ 00000001402611c0     imgui.obj
 0003:0000c1f0       ??_C@_0EE@BGNDHHFI@SetActiveID?$CI?$CJ?5old?30x?$CF08X?5?$CIwindow@ 00000001402611f0     imgui.obj
 0003:0000c250       ??_C@_1HA@DMBDPHAC@?$AAg?$AA?4?$AAA?$AAc?$AAt?$AAi?$AAv?$AAe?$AAI?$AAd?$AA?5?$AA?$DN?$AA?$DN?$AA?5?$AAi?$AAd?$AA?5?$AA?$HM?$AA?$HM?$AA?5?$AAg?$AA?4?$AAA?$AAc?$AAt?$AAi?$AAv?$AAe?$AAI?$AAd?$AA?5?$AA?$DN@ 0000000140261250     imgui.obj
 0003:0000c2e0       ??_C@_1BCE@KJDOILGC@?$AA?$CI?$AAf?$AAl?$AAa?$AAg?$AAs?$AA?5?$AA?$CG?$AA?5?$AA?$CI?$AAI?$AAm?$AAG?$AAu?$AAi?$AAH?$AAo?$AAv?$AAe?$AAr?$AAe?$AAd?$AAF?$AAl?$AAa?$AAg?$AAs?$AA_?$AAA?$AAn?$AAy?$AAW@ 00000001402612e0     imgui.obj
 0003:0000c440       ??_C@_0L@GMOEAHPG@1?489?43?5WIP?$AA@ 0000000140261440     imgui.obj
 0003:0000c450       ??_C@_1KI@ECMHEDEI@?$AAd?$AAr?$AAa?$AAw?$AAl?$AAi?$AAs?$AAt?$AA_?$AAn?$AAo?$AA?5?$AA?$DM?$AA?5?$AA?$CI?$AA?$CI?$AAi?$AAn?$AAt?$AA?$CJ?$AA?$CI?$AAs?$AAi?$AAz?$AAe?$AAo?$AAf?$AA?$CI?$AAv?$AAi?$AAe?$AAw@ 0000000140261450     imgui.obj
 0003:0000c520       ??_C@_0N@MFFOHPLI@?$CD?$CDBackground?$AA@ 0000000140261520     imgui.obj
 0003:0000c530       ??_C@_0N@MFHPHIIJ@?$CD?$CDForeground?$AA@ 0000000140261530     imgui.obj
 0003:0000c540       ??_C@_1FK@PIJFGHBG@?$AAg?$AA?4?$AAM?$AAo?$AAv?$AAi?$AAn?$AAg?$AAW?$AAi?$AAn?$AAd?$AAo?$AAw?$AA?5?$AA?$CG?$AA?$CG?$AA?5?$AAg?$AA?4?$AAM?$AAo?$AAv?$AAi?$AAn?$AAg?$AAW?$AAi?$AAn?$AAd?$AAo?$AAw@ 0000000140261540     imgui.obj
 0003:0000c5b0       ??_C@_1CG@DCCAIGN@?$AAg?$AA?4?$AAF?$AAo?$AAn?$AAt?$AA?9?$AA?$DO?$AAI?$AAs?$AAL?$AAo?$AAa?$AAd?$AAe?$AAd?$AA?$CI?$AA?$CJ?$AA?$AA@ 00000001402615b0     imgui.obj
 0003:0000c5e0       ??_C@_0EE@CAHEIKBO@NewFrame?$CI?$CJ?3?5ClearActiveID?$CI?$CJ?5beca@ 00000001402615e0     imgui.obj
 0003:0000c640       ??_C@_1FG@PEGMPHDA@?$AAg?$AA?4?$AAW?$AAi?$AAn?$AAd?$AAo?$AAw?$AAs?$AAF?$AAo?$AAc?$AAu?$AAs?$AAO?$AAr?$AAd?$AAe?$AAr?$AA?4?$AAS?$AAi?$AAz?$AAe?$AA?5?$AA?$DM?$AA?$DN?$AA?5?$AAg?$AA?4?$AAW?$AAi@ 0000000140261640     imgui.obj
 0003:0000c6a8       ??_C@_0P@IMLDNMEK@Debug?$CD?$CDDefault?$AA@ 00000001402616a8     imgui.obj
 0003:0000c6c0       ??_C@_1FE@JJEPGBAD@?$AAg?$AA?4?$AAC?$AAu?$AAr?$AAr?$AAe?$AAn?$AAt?$AAW?$AAi?$AAn?$AAd?$AAo?$AAw?$AA?9?$AA?$DO?$AAI?$AAs?$AAF?$AAa?$AAl?$AAl?$AAb?$AAa?$AAc?$AAk?$AAW?$AAi?$AAn?$AAd?$AAo@ 00000001402616c0     imgui.obj
 0003:0000c730       ??_C@_1OG@INBPPELJ@?$AAd?$AAr?$AAa?$AAw?$AA_?$AAl?$AAi?$AAs?$AAt?$AA?9?$AA?$DO?$AAV?$AAt?$AAx?$AAB?$AAu?$AAf?$AAf?$AAe?$AAr?$AA?4?$AAS?$AAi?$AAz?$AAe?$AA?5?$AA?$DN?$AA?$DN?$AA?5?$AA0?$AA?5?$AA?$HM@ 0000000140261730     imgui.obj
 0003:0000c850       ??_C@_1OG@ICPLNDEC@?$AAd?$AAr?$AAa?$AAw?$AA_?$AAl?$AAi?$AAs?$AAt?$AA?9?$AA?$DO?$AAI?$AAd?$AAx?$AAB?$AAu?$AAf?$AAf?$AAe?$AAr?$AA?4?$AAS?$AAi?$AAz?$AAe?$AA?5?$AA?$DN?$AA?$DN?$AA?5?$AA0?$AA?5?$AA?$HM@ 0000000140261850     imgui.obj
 0003:0000c970       ??_C@_1HI@ENCAIJO@?$AA?$CI?$AAi?$AAn?$AAt?$AA?$CJ?$AAd?$AAr?$AAa?$AAw?$AA_?$AAl?$AAi?$AAs?$AAt?$AA?9?$AA?$DO?$AA_?$AAV?$AAt?$AAx?$AAC?$AAu?$AAr?$AAr?$AAe?$AAn?$AAt?$AAI?$AAd?$AAx?$AA?5?$AA?$DN@ 0000000140261970     imgui.obj
 0003:0000ca00       ??_C@_0EJ@CDENJONN@Too?5many?5vertices?5in?5ImDrawList?5@ 0000000140261a00     imgui.obj
 0003:0000ca60       ??_C@_1OI@BGNIEPFI@?$AAd?$AAr?$AAa?$AAw?$AA_?$AAl?$AAi?$AAs?$AAt?$AA?9?$AA?$DO?$AA_?$AAV?$AAt?$AAx?$AAC?$AAu?$AAr?$AAr?$AAe?$AAn?$AAt?$AAI?$AAd?$AAx?$AA?5?$AA?$DM?$AA?5?$AA?$CI?$AA1?$AA?5?$AA?$DM@ 0000000140261a60     imgui.obj
 0003:0000cb78       ??_C@_1CG@MGHNBJHF@?$AAc?$AAm?$AAd?$AA?4?$AAE?$AAl?$AAe?$AAm?$AAC?$AAo?$AAu?$AAn?$AAt?$AA?5?$AA?$DN?$AA?$DN?$AA?5?$AA6?$AA?$AA@ 0000000140261b78     imgui.obj
 0003:0000cba8       ??_C@_1BM@ICEHPMG@?$AAg?$AA?4?$AAI?$AAn?$AAi?$AAt?$AAi?$AAa?$AAl?$AAi?$AAz?$AAe?$AAd?$AA?$AA@ 0000000140261ba8     imgui.obj
 0003:0000cbd0       ??_C@_0CC@DPHJAHCA@Forgot?5to?5call?5ImGui?3?3NewFrame?$CI?$CJ@ 0000000140261bd0     imgui.obj
 0003:0000cc00       ??_C@_1HE@BFIFNNBB@?$AAg?$AA?4?$AAW?$AAi?$AAt?$AAh?$AAi?$AAn?$AAF?$AAr?$AAa?$AAm?$AAe?$AAS?$AAc?$AAo?$AAp?$AAe?$AA?5?$AA?$CG?$AA?$CG?$AA?5?$AA?$CC?$AAF?$AAo?$AAr?$AAg?$AAo?$AAt?$AA?5?$AAt?$AAo@ 0000000140261c00     imgui.obj
 0003:0000cc8c       ??_C@_03KHICJKCI@?4?4?4?$AA@ 0000000140261c8c     imgui.obj
 0003:0000cc90       ??_C@_1FO@HCCAMJFH@?$AAg?$AA?4?$AAW?$AAi?$AAn?$AAd?$AAo?$AAw?$AAs?$AA?4?$AAS?$AAi?$AAz?$AAe?$AA?5?$AA?$DN?$AA?$DN?$AA?5?$AAg?$AA?4?$AAW?$AAi?$AAn?$AAd?$AAo?$AAw?$AAs?$AAT?$AAe?$AAm?$AAp?$AAS@ 0000000140261c90     imgui.obj
 0003:0000cd00       ??_C@_1CA@MJFBPLLL@?$AAg?$AA?4?$AAA?$AAc?$AAt?$AAi?$AAv?$AAe?$AAI?$AAd?$AA?5?$AA?$CB?$AA?$DN?$AA?5?$AA0?$AA?$AA@ 0000000140261d00     imgui.obj
 0003:0000cd28       ??_C@_0L@BDFLDJGI@?$CFs?1?$CFs_?$CF08X?$AA@ 0000000140261d28     imgui.obj
 0003:0000cd38       ??_C@_07KBCBAKFA@?$CFs?1?$CF08X?$AA@ 0000000140261d38     imgui.obj
 0003:0000cd48       ??_C@_1BA@DDOODPOM@?$AAi?$AAd?$AA?5?$AA?$CB?$AA?$DN?$AA?5?$AA0?$AA?$AA@ 0000000140261d48     imgui.obj
 0003:0000cd60       ??_C@_1DE@LOOJAFFK@?$AAg?$AA?4?$AAW?$AAi?$AAt?$AAh?$AAi?$AAn?$AAE?$AAn?$AAd?$AAC?$AAh?$AAi?$AAl?$AAd?$AA?5?$AA?$DN?$AA?$DN?$AA?5?$AAf?$AAa?$AAl?$AAs?$AAe?$AA?$AA@ 0000000140261d60     imgui.obj
 0003:0000cda0       ??_C@_1FK@ONDIMCKL@?$AAw?$AAi?$AAn?$AAd?$AAo?$AAw?$AA?9?$AA?$DO?$AAF?$AAl?$AAa?$AAg?$AAs?$AA?5?$AA?$CG?$AA?5?$AAI?$AAm?$AAG?$AAu?$AAi?$AAW?$AAi?$AAn?$AAd?$AAo?$AAw?$AAF?$AAl?$AAa?$AAg?$AAs@ 0000000140261da0     imgui.obj
 0003:0000ce10       ??_C@_1EM@KENICNEK@?$AA?$CB?$AAg?$AA?4?$AAW?$AAi?$AAn?$AAd?$AAo?$AAw?$AAs?$AAF?$AAo?$AAc?$AAu?$AAs?$AAO?$AAr?$AAd?$AAe?$AAr?$AA?4?$AAc?$AAo?$AAn?$AAt?$AAa?$AAi?$AAn?$AAs?$AA?$CI?$AAw?$AAi@ 0000000140261e10     imgui.obj
 0003:0000ce70       ??_C@_1GE@PMHEOEPH@?$AAg?$AA?4?$AAW?$AAi?$AAn?$AAd?$AAo?$AAw?$AAs?$AAF?$AAo?$AAc?$AAu?$AAs?$AAO?$AAr?$AAd?$AAe?$AAr?$AA?$FL?$AAw?$AAi?$AAn?$AAd?$AAo?$AAw?$AA?9?$AA?$DO?$AAF?$AAo?$AAc?$AAu@ 0000000140261e70     imgui.obj
 0003:0000cee8       ??_C@_1CA@EBHOHNJC@?$AAn?$AA?5?$AA?$DO?$AA?$DN?$AA?5?$AA0?$AA?5?$AA?$CG?$AA?$CG?$AA?5?$AAn?$AA?5?$AA?$DM?$AA?5?$AA4?$AA?$AA@ 0000000140261ee8     imgui.obj
 0003:0000cf10       ??_C@_07HDHBJEOI@?$CDRESIZE?$AA@ 0000000140261f10     imgui.obj
 0003:0000cf20       ??_C@_1CI@OAHDFFF@?$AAd?$AAi?$AAr?$AA?5?$AA?$DO?$AA?$DN?$AA?5?$AA0?$AA?5?$AA?$CG?$AA?$CG?$AA?5?$AAd?$AAi?$AAr?$AA?5?$AA?$DM?$AA?5?$AA4?$AA?$AA@ 0000000140261f20     imgui.obj
 0003:0000cf50       ??_C@_1DA@CEGNFBKM@?$AAw?$AAi?$AAn?$AAd?$AAo?$AAw?$AA?9?$AA?$DO?$AAB?$AAe?$AAg?$AAi?$AAn?$AAC?$AAo?$AAu?$AAn?$AAt?$AA?5?$AA?$DN?$AA?$DN?$AA?5?$AA0?$AA?$AA@ 0000000140261f50     imgui.obj
 0003:0000cf90       ??_C@_09BJOGEADB@?$CDCOLLAPSE?$AA@ 0000000140261f90     imgui.obj
 0003:0000cf9c       ??_C@_06KIIKKNMI@?$CDCLOSE?$AA@ 0000000140261f9c     imgui.obj
 0003:0000cfb0       ??_C@_1FI@JBDNHGBD@?$AAw?$AAi?$AAn?$AAd?$AAo?$AAw?$AA?9?$AA?$DO?$AAR?$AAo?$AAo?$AAt?$AAW?$AAi?$AAn?$AAd?$AAo?$AAw?$AAF?$AAo?$AAr?$AAN?$AAa?$AAv?$AA?9?$AA?$DO?$AAP?$AAa?$AAr?$AAe?$AAn?$AAt@ 0000000140261fb0     imgui.obj
 0003:0000d020       ??_C@_1DK@CDEKKEL@?$AAn?$AAa?$AAm?$AAe?$AA?5?$AA?$CB?$AA?$DN?$AA?5?$AA0?$AA?5?$AA?$CG?$AA?$CG?$AA?5?$AAn?$AAa?$AAm?$AAe?$AA?$FL?$AA0?$AA?$FN?$AA?5?$AA?$CB?$AA?$DN?$AA?5?$AA?8?$AA?2?$AA0?$AA?8?$AA?$AA@ 0000000140262020     imgui.obj
 0003:0000d068       ??_C@_1CG@FEBKCKMN@?$AAg?$AA?4?$AAW?$AAi?$AAt?$AAh?$AAi?$AAn?$AAF?$AAr?$AAa?$AAm?$AAe?$AAS?$AAc?$AAo?$AAp?$AAe?$AA?$AA@ 0000000140262068     imgui.obj
 0003:0000d0a0       ??_C@_1EE@GGBMECGG@?$AAg?$AA?4?$AAF?$AAr?$AAa?$AAm?$AAe?$AAC?$AAo?$AAu?$AAn?$AAt?$AAE?$AAn?$AAd?$AAe?$AAd?$AA?5?$AA?$CB?$AA?$DN?$AA?5?$AAg?$AA?4?$AAF?$AAr?$AAa?$AAm?$AAe?$AAC?$AAo?$AAu?$AAn@ 00000001402620a0     imgui.obj
 0003:0000d100       ??_C@_1EK@IADLALGG@?$AAf?$AAl?$AAa?$AAg?$AAs?$AA?5?$AA?$CG?$AA?5?$AAI?$AAm?$AAG?$AAu?$AAi?$AAW?$AAi?$AAn?$AAd?$AAo?$AAw?$AAF?$AAl?$AAa?$AAg?$AAs?$AA_?$AAC?$AAh?$AAi?$AAl?$AAd?$AAW?$AAi@ 0000000140262100     imgui.obj
 0003:0000d160       ??_C@_1HM@BDHFFAHO@?$AAp?$AAa?$AAr?$AAe?$AAn?$AAt?$AA_?$AAw?$AAi?$AAn?$AAd?$AAo?$AAw?$AA?5?$AA?$CB?$AA?$DN?$AA?5?$AA0?$AA?5?$AA?$HM?$AA?$HM?$AA?5?$AA?$CB?$AA?$CI?$AAf?$AAl?$AAa?$AAg?$AAs?$AA?5?$AA?$CG?$AA?5@ 0000000140262160     imgui.obj
 0003:0000d200       ??_C@_1EO@GBMDJNAA@?$AAp?$AAa?$AAr?$AAe?$AAn?$AAt?$AA_?$AAw?$AAi?$AAn?$AAd?$AAo?$AAw?$AA?5?$AA?$CG?$AA?$CG?$AA?5?$AAp?$AAa?$AAr?$AAe?$AAn?$AAt?$AA_?$AAw?$AAi?$AAn?$AAd?$AAo?$AAw?$AA?9?$AA?$DO@ 0000000140262200     imgui.obj
 0003:0000d260       ??_C@_1CI@BIOMENFA@?$AAb?$AAl?$AAo?$AAc?$AAk?$AAi?$AAn?$AAg?$AA_?$AAm?$AAo?$AAd?$AAa?$AAl?$AA?5?$AA?$CB?$AA?$DN?$AA?5?$AA0?$AA?$AA@ 0000000140262260     imgui.obj
 0003:0000d290       ??_C@_1KO@GJELMBN@?$AAw?$AAi?$AAn?$AAd?$AAo?$AAw?$AA?9?$AA?$DO?$AAD?$AAr?$AAa?$AAw?$AAL?$AAi?$AAs?$AAt?$AA?9?$AA?$DO?$AAC?$AAm?$AAd?$AAB?$AAu?$AAf?$AAf?$AAe?$AAr?$AA?4?$AAS?$AAi?$AAz?$AAe@ 0000000140262290     imgui.obj
 0003:0000d360       ??_C@_1FG@JPKHCDHL@?$AA?$CI?$AAf?$AAl?$AAa?$AAg?$AAs?$AA?5?$AA?$CG?$AA?5?$AAI?$AAm?$AAG?$AAu?$AAi?$AAW?$AAi?$AAn?$AAd?$AAo?$AAw?$AAF?$AAl?$AAa?$AAg?$AAs?$AA_?$AAN?$AAo?$AAT?$AAi?$AAt?$AAl@ 0000000140262360     imgui.obj
 0003:0000d3c8       ??_C@_0BO@JOGPJJCM@Calling?5End?$CI?$CJ?5too?5many?5times?$CB?$AA@ 00000001402623c8     imgui.obj
 0003:0000d3f0       ??_C@_1IG@DKOLGHNA@?$AA?$CI?$AAg?$AA?4?$AAC?$AAu?$AAr?$AAr?$AAe?$AAn?$AAt?$AAW?$AAi?$AAn?$AAd?$AAo?$AAw?$AAS?$AAt?$AAa?$AAc?$AAk?$AA?4?$AAS?$AAi?$AAz?$AAe?$AA?5?$AA?$DO?$AA?5?$AA1?$AA?$CJ?$AA?5@ 00000001402623f0     imgui.obj
 0003:0000d490       ??_C@_1DM@FOOGCAMP@?$AAg?$AA?4?$AAC?$AAu?$AAr?$AAr?$AAe?$AAn?$AAt?$AAW?$AAi?$AAn?$AAd?$AAo?$AAw?$AAS?$AAt?$AAa?$AAc?$AAk?$AA?4?$AAS?$AAi?$AAz?$AAe?$AA?5?$AA?$DO?$AA?5?$AA0?$AA?$AA@ 0000000140262490     imgui.obj
 0003:0000d4d8       ??_C@_0CE@DEHLBEMA@Must?5call?5EndChild?$CI?$CJ?5and?5not?5End@ 00000001402624d8     imgui.obj
 0003:0000d510       ??_C@_1HI@MIOLBHIM@?$AA?$CI?$AAg?$AA?4?$AAW?$AAi?$AAt?$AAh?$AAi?$AAn?$AAE?$AAn?$AAd?$AAC?$AAh?$AAi?$AAl?$AAd?$AA?$CJ?$AA?5?$AA?$CG?$AA?$CG?$AA?5?$AA?$CC?$AAM?$AAu?$AAs?$AAt?$AA?5?$AAc?$AAa?$AAl?$AAl@ 0000000140262510     imgui.obj
 0003:0000d5a0       ??_C@_1DK@MAFHBAAP@?$AAw?$AAi?$AAn?$AAd?$AAo?$AAw?$AA?5?$AA?$DN?$AA?$DN?$AA?5?$AAw?$AAi?$AAn?$AAd?$AAo?$AAw?$AA?9?$AA?$DO?$AAR?$AAo?$AAo?$AAt?$AAW?$AAi?$AAn?$AAd?$AAo?$AAw?$AA?$AA@ 00000001402625a0     imgui.obj
 0003:0000d5f0       ??_C@_1FC@LPBCMIDE@?$AAg?$AA?4?$AAW?$AAi?$AAn?$AAd?$AAo?$AAw?$AAs?$AAF?$AAo?$AAc?$AAu?$AAs?$AAO?$AAr?$AAd?$AAe?$AAr?$AA?$FL?$AAc?$AAu?$AAr?$AA_?$AAo?$AAr?$AAd?$AAe?$AAr?$AA?$FN?$AA?5?$AA?$DN@ 00000001402625f0     imgui.obj
 0003:0000d660       ??_C@_1FA@BPAOPAIC@?$AAg?$AA?4?$AAW?$AAi?$AAn?$AAd?$AAo?$AAw?$AAs?$AAF?$AAo?$AAc?$AAu?$AAs?$AAO?$AAr?$AAd?$AAe?$AAr?$AA?$FL?$AAn?$AA?$FN?$AA?9?$AA?$DO?$AAF?$AAo?$AAc?$AAu?$AAs?$AAO?$AAr?$AAd@ 0000000140262660     imgui.obj
 0003:0000d6c0       ??_C@_1EE@NNHJDCPJ@?$AAw?$AAi?$AAn?$AAd?$AAo?$AAw?$AA?5?$AA?$CB?$AA?$DN?$AA?5?$AA0?$AA?5?$AA?$CG?$AA?$CG?$AA?5?$AAb?$AAe?$AAh?$AAi?$AAn?$AAd?$AA_?$AAw?$AAi?$AAn?$AAd?$AAo?$AAw?$AA?5?$AA?$CB?$AA?$DN?$AA?5@ 00000001402626c0     imgui.obj
 0003:0000d720       ??_C@_1EO@CDDKCBBF@?$AAw?$AAi?$AAn?$AAd?$AAo?$AAw?$AA?5?$AA?$DN?$AA?$DN?$AA?5?$AA0?$AA?5?$AA?$HM?$AA?$HM?$AA?5?$AAw?$AAi?$AAn?$AAd?$AAo?$AAw?$AA?9?$AA?$DO?$AAR?$AAo?$AAo?$AAt?$AAW?$AAi?$AAn?$AAd?$AAo@ 0000000140262720     imgui.obj
 0003:0000d780       ??_C@_1DC@JABAIOEL@?$AAf?$AAo?$AAn?$AAt?$AA?5?$AA?$CG?$AA?$CG?$AA?5?$AAf?$AAo?$AAn?$AAt?$AA?9?$AA?$DO?$AAI?$AAs?$AAL?$AAo?$AAa?$AAd?$AAe?$AAd?$AA?$CI?$AA?$CJ?$AA?$AA@ 0000000140262780     imgui.obj
 0003:0000d7c0       ??_C@_1CG@FNLEAELN@?$AAf?$AAo?$AAn?$AAt?$AA?9?$AA?$DO?$AAS?$AAc?$AAa?$AAl?$AAe?$AA?5?$AA?$DO?$AA?5?$AA0?$AA?4?$AA0?$AAf?$AA?$AA@ 00000001402627c0     imgui.obj
 0003:0000d7f0       ??_C@_1EM@MHLLLNGK@?$AAi?$AAt?$AAe?$AAm?$AA_?$AAf?$AAl?$AAa?$AAg?$AAs?$AA?5?$AA?$DN?$AA?$DN?$AA?5?$AAg?$AA?4?$AAI?$AAt?$AAe?$AAm?$AAF?$AAl?$AAa?$AAg?$AAs?$AAS?$AAt?$AAa?$AAc?$AAk?$AA?4?$AAb@ 00000001402627f0     imgui.obj
 0003:0000d850       ??_C@_1DE@LBPOLBMJ@?$AAg?$AA?4?$AAI?$AAt?$AAe?$AAm?$AAF?$AAl?$AAa?$AAg?$AAs?$AAS?$AAt?$AAa?$AAc?$AAk?$AA?4?$AAS?$AAi?$AAz?$AAe?$AA?5?$AA?$DO?$AA?5?$AA1?$AA?$AA@ 0000000140262850     imgui.obj
 0003:0000d890       ??_C@_1DA@JJNGNPHA@?$AAg?$AA?4?$AAD?$AAi?$AAs?$AAa?$AAb?$AAl?$AAe?$AAd?$AAS?$AAt?$AAa?$AAc?$AAk?$AAS?$AAi?$AAz?$AAe?$AA?5?$AA?$DO?$AA?5?$AA0?$AA?$AA@ 0000000140262890     imgui.obj
 0003:0000d8d0       ??_C@_1LK@HAPNCELK@?$AA?$CI?$AAf?$AAl?$AAa?$AAg?$AAs?$AA?5?$AA?$CG?$AA?5?$AA?$CI?$AAI?$AAm?$AAG?$AAu?$AAi?$AAH?$AAo?$AAv?$AAe?$AAr?$AAe?$AAd?$AAF?$AAl?$AAa?$AAg?$AAs?$AA_?$AAA?$AAl?$AAl?$AAo@ 00000001402628d0     imgui.obj
 0003:0000d9b0       ??_C@_1BG@OMKEHJNN@?$AAc?$AAu?$AAr?$AA_?$AAw?$AAi?$AAn?$AAd?$AAo?$AAw?$AA?$AA@ 00000001402629b0     imgui.obj
 0003:0000d9d0       ??_C@_1EE@PBEDMJFL@?$AAc?$AAo?$AAn?$AAd?$AA?5?$AA?$DN?$AA?$DN?$AA?5?$AA0?$AA?5?$AA?$HM?$AA?$HM?$AA?5?$AAI?$AAm?$AAI?$AAs?$AAP?$AAo?$AAw?$AAe?$AAr?$AAO?$AAf?$AAT?$AAw?$AAo?$AA?$CI?$AAc?$AAo?$AAn?$AAd@ 00000001402629d0     imgui.obj
 0003:0000da28       ??_C@_1DO@GKCJBPLO@?$AAw?$AAi?$AAn?$AAd?$AAo?$AAw?$AA?9?$AA?$DO?$AAH?$AAi?$AAt?$AAT?$AAe?$AAs?$AAt?$AAH?$AAo?$AAl?$AAe?$AAS?$AAi?$AAz?$AAe?$AA?4?$AAx?$AA?5?$AA?$DN?$AA?$DN?$AA?5?$AA0?$AA?$AA@ 0000000140262a28     imgui.obj
 0003:0000da78       ??_C@_1BK@JIIMNACC@?$AAs?$AAc?$AAa?$AAl?$AAe?$AA?5?$AA?$DO?$AA?5?$AA0?$AA?4?$AA0?$AAf?$AA?$AA@ 0000000140262a78     imgui.obj
 0003:0000da98       ??_C@_1DG@FEBJKFDF@?$AAg?$AA?4?$AAF?$AAo?$AAc?$AAu?$AAs?$AAS?$AAc?$AAo?$AAp?$AAe?$AAS?$AAt?$AAa?$AAc?$AAk?$AA?4?$AAS?$AAi?$AAz?$AAe?$AA?5?$AA?$DO?$AA?5?$AA0?$AA?$AA@ 0000000140262a98     imgui.obj
 0003:0000dad8       ??_C@_1BK@BEOECDF@?$AAo?$AAf?$AAf?$AAs?$AAe?$AAt?$AA?5?$AA?$DO?$AA?$DN?$AA?5?$AA?9?$AA1?$AA?$AA@ 0000000140262ad8     imgui.obj
 0003:0000daf8       ??_C@_0CJ@HBEFDIPK@SetKeyboardFocusHere?$CI?$CFd?$CJ?5in?5wind@ 0000000140262af8     imgui.obj
 0003:0000db30       ??_C@_0DG@HEGBDNMN@SetKeyboardFocusHere?$CI?$CJ?5ignored?5w@ 0000000140262b30     imgui.obj
 0003:0000db70       ??_C@_1DC@KOOPJPAL@?$AAw?$AAi?$AAn?$AAd?$AAo?$AAw?$AA?9?$AA?$DO?$AAI?$AAD?$AAS?$AAt?$AAa?$AAc?$AAk?$AA?4?$AAS?$AAi?$AAz?$AAe?$AA?5?$AA?$DO?$AA?5?$AA1?$AA?$AA@ 0000000140262b70     imgui.obj
 0003:0000dbb0       ??_C@_1FA@ELJMCEOI@?$AAk?$AAe?$AAy?$AA?5?$AA?$DO?$AA?$DN?$AA?5?$AA0?$AA?5?$AA?$CG?$AA?$CG?$AA?5?$AAk?$AAe?$AAy?$AA?5?$AA?$DM?$AA?5?$AAI?$AAm?$AAG?$AAu?$AAi?$AAK?$AAe?$AAy?$AA_?$AAN?$AAa?$AAm?$AAe?$AAd@ 0000000140262bb0     imgui.obj
 0003:0000dc10       ??_C@_03HPADHAHE@N?1A?$AA@ 0000000140262c10     imgui.obj
 0003:0000dc20       ??_C@_1EK@OPPAIMOD@?$AAI?$AAs?$AAN?$AAa?$AAm?$AAe?$AAd?$AAK?$AAe?$AAy?$AA?$CI?$AA?$CI?$AAI?$AAm?$AAG?$AAu?$AAi?$AAK?$AAe?$AAy?$AA?$CJ?$AAi?$AAo?$AA?4?$AAK?$AAe?$AAy?$AAM?$AAa?$AAp?$AA?$FL?$AAk@ 0000000140262c20     imgui.obj
 0003:0000dc78       ??_C@_04OHJIHAFH@None?$AA@ 0000000140262c78     imgui.obj
 0003:0000dc80       ??_C@_04NGGMJLDA@Cmd?$CL?$AA@ 0000000140262c80     imgui.obj
 0003:0000dc88       ??_C@_06PPGOOJHA@Super?$CL?$AA@ 0000000140262c88     imgui.obj
 0003:0000dc90       ??_C@_04IDGAMEF@Alt?$CL?$AA@ 0000000140262c90     imgui.obj
 0003:0000dc98       ??_C@_06DLOONOJK@Shift?$CL?$AA@ 0000000140262c98     imgui.obj
 0003:0000dca0       ??_C@_05DNCIMHKL@Ctrl?$CL?$AA@ 0000000140262ca0     imgui.obj
 0003:0000dca8       ??_C@_0L@MOHIGKOO@?$CFs?$CFs?$CFs?$CFs?$CFs?$AA@ 0000000140262ca8     imgui.obj
 0003:0000dcb8       ??_C@_1CC@DCDPKJP@?$AAn?$AAe?$AAx?$AAt?$AA_?$AAs?$AAc?$AAo?$AAr?$AAe?$AA?5?$AA?$DM?$AA?5?$AA2?$AA5?$AA5?$AA?$AA@ 0000000140262cb8     imgui.obj
 0003:0000dce0       ??_C@_1GG@NENLELII@?$AAI?$AAm?$AAI?$AAs?$AAP?$AAo?$AAw?$AAe?$AAr?$AAO?$AAf?$AAT?$AAw?$AAo?$AA?$CI?$AAf?$AAl?$AAa?$AAg?$AAs?$AA?5?$AA?$CG?$AA?5?$AAI?$AAm?$AAG?$AAu?$AAi?$AAI?$AAn?$AAp?$AAu@ 0000000140262ce0     imgui.obj
 0003:0000dd60       ??_C@_1HA@DEMINBMK@?$AA?$CI?$AAf?$AAl?$AAa?$AAg?$AAs?$AA?5?$AA?$CG?$AA?5?$AA?$HO?$AAI?$AAm?$AAG?$AAu?$AAi?$AAI?$AAn?$AAp?$AAu?$AAt?$AAF?$AAl?$AAa?$AAg?$AAs?$AA_?$AAS?$AAu?$AAp?$AAp?$AAo?$AAr@ 0000000140262d60     imgui.obj
 0003:0000ddf0       ??_C@_1KI@IKDPMEHK@?$AAb?$AAu?$AAt?$AAt?$AAo?$AAn?$AA?5?$AA?$DO?$AA?$DN?$AA?5?$AA0?$AA?5?$AA?$CG?$AA?$CG?$AA?5?$AAb?$AAu?$AAt?$AAt?$AAo?$AAn?$AA?5?$AA?$DM?$AA?5?$AA?$CI?$AA?$CI?$AAi?$AAn?$AAt?$AA?$CJ?$AA?$CI?$AAs@ 0000000140262df0     imgui.obj
 0003:0000dec0       ??_C@_1BI@DLHMADOF@?$AAG?$AAI?$AAm?$AAG?$AAu?$AAi?$AA?5?$AA?$CB?$AA?$DN?$AA?5?$AA0?$AA?$AA@ 0000000140262ec0     imgui.obj
 0003:0000dee0       ??_C@_1CO@KHMOHOBE@?$AAI?$AAm?$AAG?$AAu?$AAi?$AA?3?$AA?3?$AAI?$AAs?$AAA?$AAl?$AAi?$AAa?$AAs?$AAK?$AAe?$AAy?$AA?$CI?$AAk?$AAe?$AAy?$AA?$CJ?$AA?$AA@ 0000000140262ee0     imgui.obj
 0003:0000df20       ??_C@_1BFG@FMPGODCB@?$AA?$CI?$AAi?$AAo?$AA?4?$AAK?$AAe?$AAy?$AAs?$AAD?$AAo?$AAw?$AAn?$AA?$FL?$AAn?$AA?$FN?$AA?5?$AA?$DN?$AA?$DN?$AA?5?$AAf?$AAa?$AAl?$AAs?$AAe?$AA?5?$AA?$HM?$AA?$HM?$AA?5?$AAI?$AAs?$AAK?$AAe@ 0000000140262f20     imgui.obj
 0003:0000e0c0       ??_C@_0DG@HIBMCFCI@Backend?5is?5not?5allowed?5to?5write?5@ 00000001402630c0     imgui.obj
 0003:0000e100       ??_C@_1KA@FBPFEPKB@?$AAg?$AA?4?$AAI?$AAO?$AA?4?$AAK?$AAe?$AAy?$AAM?$AAa?$AAp?$AA?$FL?$AAn?$AA?$FN?$AA?5?$AA?$DN?$AA?$DN?$AA?5?$AA?9?$AA1?$AA?5?$AA?$CG?$AA?$CG?$AA?5?$AA?$CC?$AAB?$AAa?$AAc?$AAk?$AAe?$AAn?$AAd@ 0000000140263100     imgui.obj
 0003:0000e1c0       ??_C@_1EI@LPLLBOEH@?$AAI?$AAs?$AAL?$AAe?$AAg?$AAa?$AAc?$AAy?$AAK?$AAe?$AAy?$AA?$CI?$AA?$CI?$AAI?$AAm?$AAG?$AAu?$AAi?$AAK?$AAe?$AAy?$AA?$CJ?$AAi?$AAo?$AA?4?$AAK?$AAe?$AAy?$AAM?$AAa?$AAp?$AA?$FL@ 00000001402631c0     imgui.obj
 0003:0000e220       ??_C@_1EM@LGGOAEHP@?$AAi?$AAo?$AA?4?$AAK?$AAe?$AAy?$AAM?$AAa?$AAp?$AA?$FL?$AAn?$AA?$FN?$AA?5?$AA?$DN?$AA?$DN?$AA?5?$AA?9?$AA1?$AA?5?$AA?$HM?$AA?$HM?$AA?5?$AAI?$AAs?$AAN?$AAa?$AAm?$AAe?$AAd?$AAK?$AAe?$AAy@ 0000000140263220     imgui.obj
 0003:0000e27c       ??_C@_04HIBGFPH@NULL?$AA@  000000014026327c     imgui.obj
 0003:0000e288       ??_C@_0BL@JLLLOAEH@LockWheelingWindow?$CI?$CJ?5?$CC?$CFs?$CC?6?$AA@ 0000000140263288     imgui.obj
 0003:0000e2a8       ??_C@_05PEEFLODH@Mouse?$AA@ 00000001402632a8     imgui.obj
 0003:0000e2b0       ??_C@_08CPOKIBJK@Keyboard?$AA@ 00000001402632b0     imgui.obj
 0003:0000e2c0       ??_C@_07FCEHOHKC@Gamepad?$AA@ 00000001402632c0     imgui.obj
 0003:0000e2cc       ??_C@_03JFAAHAIK@Nav?$AA@  00000001402632cc     imgui.obj
 0003:0000e2d0       ??_C@_09HLEDPOBH@Clipboard?$AA@ 00000001402632d0     imgui.obj
 0003:0000e2e0       ??_C@_1BCA@FPIIAONE@?$AA?$CI?$AA?$CI?$AAi?$AAn?$AAt?$AA?$CJ?$AA?$CI?$AAs?$AAi?$AAz?$AAe?$AAo?$AAf?$AA?$CI?$AAi?$AAn?$AAp?$AAu?$AAt?$AA_?$AAs?$AAo?$AAu?$AAr?$AAc?$AAe?$AA_?$AAn?$AAa?$AAm?$AAe?$AAs@ 00000001402632e0     imgui.obj
 0003:0000e440       ??_C@_0CD@LELIKCBN@?$CFs?3?5MousePos?5?$CI?9FLT_MAX?0?5?9FLT_MAX@ 0000000140263440     imgui.obj
 0003:0000e470       ??_C@_0BL@MGABEGBA@?$CFs?3?5MousePos?5?$CI?$CF?41f?0?5?$CF?41f?$CJ?6?$AA@ 0000000140263470     imgui.obj
 0003:0000e490       ??_C@_04FNCLCJMC@Down?$AA@ 0000000140263490     imgui.obj
 0003:0000e498       ??_C@_02EFPGLDEA@Up?$AA@   0000000140263498     imgui.obj
 0003:0000e4a0       ??_C@_0BH@GKKCHOFG@?$CFs?3?5MouseButton?5?$CFd?5?$CFs?6?$AA@ 00000001402634a0     imgui.obj
 0003:0000e4c0       ??_C@_0BN@HFCBLHOI@?$CFs?3?5MouseWheel?5?$CI?$CF?43f?0?5?$CF?43f?$CJ?6?$AA@ 00000001402634c0     imgui.obj
 0003:0000e4e8       ??_C@_0BB@CMPIMPGB@?$CFs?3?5Key?5?$CC?$CFs?$CC?5?$CFs?6?$AA@ 00000001402634e8     imgui.obj
 0003:0000e500       ??_C@_0BH@OGDHKMOD@?$CFs?3?5Text?3?5?$CFc?5?$CIU?$CL?$CF08X?$CJ?6?$AA@ 0000000140263500     imgui.obj
 0003:0000e520       ??_C@_0BD@DGNDOOOH@?$CFs?3?5AppFocused?5?$CFd?6?$AA@ 0000000140263520     imgui.obj
 0003:0000e538       ??_C@_1CK@FEMPCNOI@?$AAk?$AAe?$AAy?$AA?5?$AA?$CB?$AA?$DN?$AA?5?$AAI?$AAm?$AAG?$AAu?$AAi?$AAK?$AAe?$AAy?$AA_?$AAN?$AAo?$AAn?$AAe?$AA?$AA@ 0000000140263538     imgui.obj
 0003:0000e570       ??_C@_1CM@EMIHFHMN@?$AA0?$AA?5?$AA?$CG?$AA?$CG?$AA?5?$AA?$CC?$AAU?$AAn?$AAk?$AAn?$AAo?$AAw?$AAn?$AA?5?$AAe?$AAv?$AAe?$AAn?$AAt?$AA?$CB?$AA?$CC?$AA?$AA@ 0000000140263570     imgui.obj
 0003:0000e5a8       ??_C@_09BIONLCBB@Processed?$AA@ 00000001402635a8     imgui.obj
 0003:0000e5b8       ??_C@_09PGGNMDFB@Remaining?$AA@ 00000001402635b8     imgui.obj
 0003:0000e5d0       ??_C@_1BAM@IDBKCLPK@?$AAI?$AAs?$AAN?$AAa?$AAm?$AAe?$AAd?$AAK?$AAe?$AAy?$AAO?$AAr?$AAM?$AAo?$AAd?$AAK?$AAe?$AAy?$AA?$CI?$AAk?$AAe?$AAy?$AA?$CJ?$AA?5?$AA?$CG?$AA?$CG?$AA?5?$AA?$CI?$AAo?$AAw?$AAn?$AAe@ 00000001402635d0     imgui.obj
 0003:0000e720       ??_C@_1GO@PDOEELEG@?$AA?$CI?$AAf?$AAl?$AAa?$AAg?$AAs?$AA?5?$AA?$CG?$AA?5?$AA?$HO?$AAI?$AAm?$AAG?$AAu?$AAi?$AAI?$AAn?$AAp?$AAu?$AAt?$AAF?$AAl?$AAa?$AAg?$AAs?$AA_?$AAS?$AAu?$AAp?$AAp?$AAo?$AAr@ 0000000140263720     imgui.obj
 0003:0000e7b0       ??_C@_1HG@JNGFACEO@?$AA?$CI?$AAf?$AAl?$AAa?$AAg?$AAs?$AA?5?$AA?$CG?$AA?5?$AA?$HO?$AAI?$AAm?$AAG?$AAu?$AAi?$AAI?$AAn?$AAp?$AAu?$AAt?$AAF?$AAl?$AAa?$AAg?$AAs?$AA_?$AAS?$AAu?$AAp?$AAp?$AAo?$AAr@ 00000001402637b0     imgui.obj
 0003:0000e840       ??_C@_1GI@LJFFCJDI@?$AA?$CI?$AAf?$AAl?$AAa?$AAg?$AAs?$AA?5?$AA?$CG?$AA?5?$AA?$HO?$AAI?$AAm?$AAG?$AAu?$AAi?$AAI?$AAn?$AAp?$AAu?$AAt?$AAF?$AAl?$AAa?$AAg?$AAs?$AA_?$AAS?$AAu?$AAp?$AAp?$AAo?$AAr@ 0000000140263840     imgui.obj
 0003:0000e8c0       ??_C@_0BL@NJMNENPC@Mismatched?5version?5string?$CB?$AA@ 00000001402638c0     imgui.obj
 0003:0000e8e0       ??_C@_1IG@FIGCMBME@?$AAs?$AAt?$AAr?$AAc?$AAm?$AAp?$AA?$CI?$AAv?$AAe?$AAr?$AAs?$AAi?$AAo?$AAn?$AA?0?$AA?5?$AA?$CC?$AA1?$AA?4?$AA8?$AA9?$AA?4?$AA3?$AA?5?$AAW?$AAI?$AAP?$AA?$CC?$AA?$CJ?$AA?5?$AA?$DN?$AA?$DN@ 00000001402638e0     imgui.obj
 0003:0000e980       ??_C@_0BK@FMAIDOGC@Mismatched?5struct?5layout?$CB?$AA@ 0000000140263980     imgui.obj
 0003:0000e9a0       ??_C@_1HA@BDEJLFJB@?$AAs?$AAz?$AA_?$AAi?$AAo?$AA?5?$AA?$DN?$AA?$DN?$AA?5?$AAs?$AAi?$AAz?$AAe?$AAo?$AAf?$AA?$CI?$AAI?$AAm?$AAG?$AAu?$AAi?$AAI?$AAO?$AA?$CJ?$AA?5?$AA?$CG?$AA?$CG?$AA?5?$AA?$CC?$AAM?$AAi?$AAs@ 00000001402639a0     imgui.obj
 0003:0000ea30       ??_C@_1HM@KECEGJKN@?$AAs?$AAz?$AA_?$AAs?$AAt?$AAy?$AAl?$AAe?$AA?5?$AA?$DN?$AA?$DN?$AA?5?$AAs?$AAi?$AAz?$AAe?$AAo?$AAf?$AA?$CI?$AAI?$AAm?$AAG?$AAu?$AAi?$AAS?$AAt?$AAy?$AAl?$AAe?$AA?$CJ?$AA?5?$AA?$CG@ 0000000140263a30     imgui.obj
 0003:0000ead0       ??_C@_1HC@KAEGCKOM@?$AAs?$AAz?$AA_?$AAv?$AAe?$AAc?$AA2?$AA?5?$AA?$DN?$AA?$DN?$AA?5?$AAs?$AAi?$AAz?$AAe?$AAo?$AAf?$AA?$CI?$AAI?$AAm?$AAV?$AAe?$AAc?$AA2?$AA?$CJ?$AA?5?$AA?$CG?$AA?$CG?$AA?5?$AA?$CC?$AAM?$AAi@ 0000000140263ad0     imgui.obj
 0003:0000eb60       ??_C@_1HC@CFCKCFEN@?$AAs?$AAz?$AA_?$AAv?$AAe?$AAc?$AA4?$AA?5?$AA?$DN?$AA?$DN?$AA?5?$AAs?$AAi?$AAz?$AAe?$AAo?$AAf?$AA?$CI?$AAI?$AAm?$AAV?$AAe?$AAc?$AA4?$AA?$CJ?$AA?5?$AA?$CG?$AA?$CG?$AA?5?$AA?$CC?$AAM?$AAi@ 0000000140263b60     imgui.obj
 0003:0000ebf0       ??_C@_1HK@HMLAJPFG@?$AAs?$AAz?$AA_?$AAv?$AAe?$AAr?$AAt?$AA?5?$AA?$DN?$AA?$DN?$AA?5?$AAs?$AAi?$AAz?$AAe?$AAo?$AAf?$AA?$CI?$AAI?$AAm?$AAD?$AAr?$AAa?$AAw?$AAV?$AAe?$AAr?$AAt?$AA?$CJ?$AA?5?$AA?$CG?$AA?$CG@ 0000000140263bf0     imgui.obj
 0003:0000ec90       ??_C@_1HG@IIMLENED@?$AAs?$AAz?$AA_?$AAi?$AAd?$AAx?$AA?5?$AA?$DN?$AA?$DN?$AA?5?$AAs?$AAi?$AAz?$AAe?$AAo?$AAf?$AA?$CI?$AAI?$AAm?$AAD?$AAr?$AAa?$AAw?$AAI?$AAd?$AAx?$AA?$CJ?$AA?5?$AA?$CG?$AA?$CG?$AA?5?$AA?$CC@ 0000000140263c90     imgui.obj
 0003:0000ed20       ??_C@_1CI@DDBIANLG@?$AAw?$AAi?$AAn?$AAd?$AAo?$AAw?$AA?9?$AA?$DO?$AAD?$AAC?$AA?4?$AAI?$AAs?$AAS?$AAe?$AAt?$AAP?$AAo?$AAs?$AA?$AA@ 0000000140263d20     imgui.obj
 0003:0000ed50       ??_C@_0BL@INIAEKJF@Need?5a?5positive?5DeltaTime?$CB?$AA@ 0000000140263d50     imgui.obj
 0003:0000ed70       ??_C@_1JK@GMCNDFJ@?$AA?$CI?$AAg?$AA?4?$AAI?$AAO?$AA?4?$AAD?$AAe?$AAl?$AAt?$AAa?$AAT?$AAi?$AAm?$AAe?$AA?5?$AA?$DO?$AA?5?$AA0?$AA?4?$AA0?$AAf?$AA?5?$AA?$HM?$AA?$HM?$AA?5?$AAg?$AA?4?$AAF?$AAr?$AAa?$AAm@ 0000000140263d70     imgui.obj
 0003:0000ee30       ??_C@_0EI@GHMDJNFG@Forgot?5to?5call?5Render?$CI?$CJ?5or?5EndFr@ 0000000140263e30     imgui.obj
 0003:0000ee90       ??_C@_1BAM@KGEBLPLP@?$AA?$CI?$AAg?$AA?4?$AAF?$AAr?$AAa?$AAm?$AAe?$AAC?$AAo?$AAu?$AAn?$AAt?$AA?5?$AA?$DN?$AA?$DN?$AA?5?$AA0?$AA?5?$AA?$HM?$AA?$HM?$AA?5?$AAg?$AA?4?$AAF?$AAr?$AAa?$AAm?$AAe?$AAC?$AAo?$AAu@ 0000000140263e90     imgui.obj
 0003:0000efd8       ??_C@_0BL@LDNBLEGM@Invalid?5DisplaySize?5value?$CB?$AA@ 0000000140263fd8     imgui.obj
 0003:0000f000       ??_C@_1LC@PGGPGCKP@?$AAg?$AA?4?$AAI?$AAO?$AA?4?$AAD?$AAi?$AAs?$AAp?$AAl?$AAa?$AAy?$AAS?$AAi?$AAz?$AAe?$AA?4?$AAx?$AA?5?$AA?$DO?$AA?$DN?$AA?5?$AA0?$AA?4?$AA0?$AAf?$AA?5?$AA?$CG?$AA?$CG?$AA?5?$AAg?$AA?4@ 0000000140264000     imgui.obj
 0003:0000f0e0       ??_C@_0KM@BGIGOFPN@Font?5Atlas?5not?5built?$CB?5Make?5sure?5@ 00000001402640e0     imgui.obj
 0003:0000f1b0       ??_C@_1BIO@NEOCPKAM@?$AAg?$AA?4?$AAI?$AAO?$AA?4?$AAF?$AAo?$AAn?$AAt?$AAs?$AA?9?$AA?$DO?$AAI?$AAs?$AAB?$AAu?$AAi?$AAl?$AAt?$AA?$CI?$AA?$CJ?$AA?5?$AA?$CG?$AA?$CG?$AA?5?$AA?$CC?$AAF?$AAo?$AAn?$AAt?$AA?5?$AAA@ 00000001402641b0     imgui.obj
 0003:0000f390       ??_C@_0BH@EAJIBGFB@Invalid?5style?5setting?$CB?$AA@ 0000000140264390     imgui.obj
 0003:0000f3b0       ??_C@_1IA@HHCKGFKM@?$AAg?$AA?4?$AAS?$AAt?$AAy?$AAl?$AAe?$AA?4?$AAC?$AAu?$AAr?$AAv?$AAe?$AAT?$AAe?$AAs?$AAs?$AAe?$AAl?$AAl?$AAa?$AAt?$AAi?$AAo?$AAn?$AAT?$AAo?$AAl?$AA?5?$AA?$DO?$AA?5?$AA0@ 00000001402643b0     imgui.obj
 0003:0000f450       ??_C@_1IM@BBAKCECH@?$AAg?$AA?4?$AAS?$AAt?$AAy?$AAl?$AAe?$AA?4?$AAC?$AAi?$AAr?$AAc?$AAl?$AAe?$AAT?$AAe?$AAs?$AAs?$AAe?$AAl?$AAl?$AAa?$AAt?$AAi?$AAo?$AAn?$AAM?$AAa?$AAx?$AAE?$AAr?$AAr@ 0000000140264450     imgui.obj
 0003:0000f500       ??_C@_1JG@HBCMMEC@?$AAg?$AA?4?$AAS?$AAt?$AAy?$AAl?$AAe?$AA?4?$AAA?$AAl?$AAp?$AAh?$AAa?$AA?5?$AA?$DO?$AA?$DN?$AA?5?$AA0?$AA?4?$AA0?$AAf?$AA?5?$AA?$CG?$AA?$CG?$AA?5?$AAg?$AA?4?$AAS?$AAt?$AAy?$AAl?$AAe@ 0000000140264500     imgui.obj
 0003:0000f5b8       ??_C@_0BH@MHAAAKJO@Invalid?5style?5setting?4?$AA@ 00000001402645b8     imgui.obj
 0003:0000f5e0       ??_C@_1LO@BODAGONP@?$AAg?$AA?4?$AAS?$AAt?$AAy?$AAl?$AAe?$AA?4?$AAW?$AAi?$AAn?$AAd?$AAo?$AAw?$AAM?$AAi?$AAn?$AAS?$AAi?$AAz?$AAe?$AA?4?$AAx?$AA?5?$AA?$DO?$AA?$DN?$AA?5?$AA1?$AA?4?$AA0?$AAf?$AA?5@ 00000001402645e0     imgui.obj
 0003:0000f6d0       ??_C@_1BDK@FANHHEDI@?$AAg?$AA?4?$AAS?$AAt?$AAy?$AAl?$AAe?$AA?4?$AAW?$AAi?$AAn?$AAd?$AAo?$AAw?$AAM?$AAe?$AAn?$AAu?$AAB?$AAu?$AAt?$AAt?$AAo?$AAn?$AAP?$AAo?$AAs?$AAi?$AAt?$AAi?$AAo?$AAn@ 00000001402646d0     imgui.obj
 0003:0000f850       ??_C@_1LM@JKIDKAMC@?$AAg?$AA?4?$AAS?$AAt?$AAy?$AAl?$AAe?$AA?4?$AAC?$AAo?$AAl?$AAo?$AAr?$AAB?$AAu?$AAt?$AAt?$AAo?$AAn?$AAP?$AAo?$AAs?$AAi?$AAt?$AAi?$AAo?$AAn?$AA?5?$AA?$DN?$AA?$DN?$AA?5?$AAI@ 0000000140264850     imgui.obj
 0003:0000f940       ??_C@_0FH@LOBECBNC@io?4KeyMap?$FL?$FN?5contains?5an?5out?5of?5b@ 0000000140264940     imgui.obj
 0003:0000f9b0       ??_C@_1BBC@FEJJJDOL@?$AAg?$AA?4?$AAI?$AAO?$AA?4?$AAK?$AAe?$AAy?$AAM?$AAa?$AAp?$AA?$FL?$AAn?$AA?$FN?$AA?5?$AA?$DO?$AA?$DN?$AA?5?$AA?9?$AA1?$AA?5?$AA?$CG?$AA?$CG?$AA?5?$AAg?$AA?4?$AAI?$AAO?$AA?4?$AAK?$AAe?$AAy@ 00000001402649b0     imgui.obj
 0003:0000fb00       ??_C@_0EA@IDFJHFOM@ImGuiKey_Space?5is?5not?5mapped?0?5re@ 0000000140264b00     imgui.obj
 0003:0000fb50       ??_C@_1MO@ONPFNFPJ@?$AAg?$AA?4?$AAI?$AAO?$AA?4?$AAK?$AAe?$AAy?$AAM?$AAa?$AAp?$AA?$FL?$AAI?$AAm?$AAG?$AAu?$AAi?$AAK?$AAe?$AAy?$AA_?$AAS?$AAp?$AAa?$AAc?$AAe?$AA?$FN?$AA?5?$AA?$CB?$AA?$DN?$AA?5?$AA?9@ 0000000140264b50     imgui.obj
 0003:0000fc50       ??_C@_0EH@IKLAPCIG@Mismatching?5io?4KeyCtrl?1io?4KeyShi@ 0000000140264c50     imgui.obj
 0003:0000fcb0       ??_C@_1PA@LCIAGPIP@?$AA?$CI?$AAk?$AAe?$AAy?$AA_?$AAm?$AAo?$AAd?$AAs?$AA?5?$AA?$DN?$AA?$DN?$AA?5?$AA0?$AA?5?$AA?$HM?$AA?$HM?$AA?5?$AAg?$AA?4?$AAI?$AAO?$AA?4?$AAK?$AAe?$AAy?$AAM?$AAo?$AAd?$AAs?$AA?5?$AA?$DN@ 0000000140264cb0     imgui.obj
 0003:0000fdd0       ??_C@_0FI@LNDFABED@Mismatched?5Begin?1BeginChild?5vs?5E@ 0000000140264dd0     imgui.obj
 0003:0000fe40       ??_C@_1PM@PNPJAGAO@?$AA?$CI?$AAg?$AA?4?$AAC?$AAu?$AAr?$AAr?$AAe?$AAn?$AAt?$AAW?$AAi?$AAn?$AAd?$AAo?$AAw?$AAS?$AAt?$AAa?$AAc?$AAk?$AA?4?$AAS?$AAi?$AAz?$AAe?$AA?5?$AA?$DN?$AA?$DN?$AA?5?$AA1?$AA?$CJ@ 0000000140264e40     imgui.obj
 0003:0000ff70       ??_C@_0FH@BPHEKLEJ@Mismatched?5Begin?1BeginChild?5vs?5E@ 0000000140264f70     imgui.obj
 0003:0000ffe0       ??_C@_1PK@KPEOFHN@?$AA?$CI?$AAg?$AA?4?$AAC?$AAu?$AAr?$AAr?$AAe?$AAn?$AAt?$AAW?$AAi?$AAn?$AAd?$AAo?$AAw?$AAS?$AAt?$AAa?$AAc?$AAk?$AA?4?$AAS?$AAi?$AAz?$AAe?$AA?5?$AA?$DN?$AA?$DN?$AA?5?$AA1?$AA?$CJ@ 0000000140264fe0     imgui.obj
 0003:00010110       ??_C@_0BH@DOAAHNFO@Missing?5EndGroup?5call?$CB?$AA@ 0000000140265110     imgui.obj
 0003:00010130       ??_C@_1GK@BADAAGFG@?$AA?$CI?$AAg?$AA?4?$AAG?$AAr?$AAo?$AAu?$AAp?$AAS?$AAt?$AAa?$AAc?$AAk?$AA?4?$AAS?$AAi?$AAz?$AAe?$AA?5?$AA?$DN?$AA?$DN?$AA?5?$AA0?$AA?$CJ?$AA?5?$AA?$CG?$AA?$CG?$AA?5?$AA?$CC?$AAM?$AAi?$AAs@ 0000000140265130     imgui.obj
 0003:000101b0       ??_C@_1DC@IDCPNCPB@?$AAw?$AAi?$AAn?$AAd?$AAo?$AAw?$AA?9?$AA?$DO?$AAI?$AAs?$AAF?$AAa?$AAl?$AAl?$AAb?$AAa?$AAc?$AAk?$AAW?$AAi?$AAn?$AAd?$AAo?$AAw?$AA?$AA@ 00000001402651b0     imgui.obj
 0003:000101f0       ??_C@_0CL@PKEBJEJO@Recovered?5from?5missing?5EndChild?$CI@ 00000001402651f0     imgui.obj
 0003:00010228       ??_C@_0CG@PCFKFCHL@Recovered?5from?5missing?5End?$CI?$CJ?5for@ 0000000140265228     imgui.obj
 0003:00010258       ??_C@_0CK@MCEMIAFO@Recovered?5from?5missing?5EndTable?$CI@ 0000000140265258     imgui.obj
 0003:00010290       ??_C@_1BI@JFIKNFKH@?$AAw?$AAi?$AAn?$AAd?$AAo?$AAw?$AA?5?$AA?$CB?$AA?$DN?$AA?5?$AA0?$AA?$AA@ 0000000140265290     imgui.obj
 0003:000102b0       ??_C@_0CL@PFJDIEBE@Recovered?5from?5missing?5EndTabBar@ 00000001402652b0     imgui.obj
 0003:000102e8       ??_C@_0CJ@OIELACHL@Recovered?5from?5missing?5TreePop?$CI?$CJ@ 00000001402652e8     imgui.obj
 0003:00010320       ??_C@_0CK@EIGPLJIB@Recovered?5from?5missing?5EndGroup?$CI@ 0000000140265320     imgui.obj
 0003:00010358       ??_C@_0CH@CBEJECIE@Recovered?5from?5missing?5PopID?$CI?$CJ?5i@ 0000000140265358     imgui.obj
 0003:00010388       ??_C@_0CN@OIBMKKFF@Recovered?5from?5missing?5EndDisabl@ 0000000140265388     imgui.obj
 0003:000103c0       ??_C@_0DP@GKCPPFKN@Recovered?5from?5missing?5PopStyleC@ 00000001402653c0     imgui.obj
 0003:00010410       ??_C@_0CN@HDGJMJNM@Recovered?5from?5missing?5PopItemFl@ 0000000140265410     imgui.obj
 0003:00010448       ??_C@_0CN@EFPNNJDL@Recovered?5from?5missing?5PopStyleV@ 0000000140265448     imgui.obj
 0003:00010480       ??_C@_0CP@NEGGJCEB@Recovered?5from?5missing?5PopFocusS@ 0000000140265480     imgui.obj
 0003:000104b8       ??_C@_0CL@ILEOFLMG@PushID?1PopID?5or?5TreeNode?1TreePop@ 00000001402654b8     imgui.obj
 0003:000104f0       ??_C@_1KM@GPENMPEF@?$AAS?$AAi?$AAz?$AAe?$AAO?$AAf?$AAI?$AAD?$AAS?$AAt?$AAa?$AAc?$AAk?$AA?5?$AA?$DN?$AA?$DN?$AA?5?$AAw?$AAi?$AAn?$AAd?$AAo?$AAw?$AA?9?$AA?$DO?$AAI?$AAD?$AAS?$AAt?$AAa?$AAc?$AAk@ 00000001402654f0     imgui.obj
 0003:000105c0       ??_C@_0BO@DCHDJEI@BeginGroup?1EndGroup?5Mismatch?$CB?$AA@ 00000001402655c0     imgui.obj
 0003:000105f0       ??_C@_1JC@FNBHEOLL@?$AAS?$AAi?$AAz?$AAe?$AAO?$AAf?$AAG?$AAr?$AAo?$AAu?$AAp?$AAS?$AAt?$AAa?$AAc?$AAk?$AA?5?$AA?$DN?$AA?$DN?$AA?5?$AAg?$AA?4?$AAG?$AAr?$AAo?$AAu?$AAp?$AAS?$AAt?$AAa?$AAc?$AAk@ 00000001402655f0     imgui.obj
 0003:000106a0       ??_C@_0DD@CEJDOFG@BeginPopup?1EndPopup?5or?5BeginMenu@ 00000001402656a0     imgui.obj
 0003:000106e0       ??_C@_1NA@IJOEJOEN@?$AAS?$AAi?$AAz?$AAe?$AAO?$AAf?$AAB?$AAe?$AAg?$AAi?$AAn?$AAP?$AAo?$AAp?$AAu?$AAp?$AAS?$AAt?$AAa?$AAc?$AAk?$AA?5?$AA?$DN?$AA?$DN?$AA?5?$AAg?$AA?4?$AAB?$AAe?$AAg?$AAi?$AAn@ 00000001402656e0     imgui.obj
 0003:000107e0       ??_C@_0CE@POGENMGN@BeginDisabled?1EndDisabled?5Mismat@ 00000001402657e0     imgui.obj
 0003:00010810       ??_C@_1KI@IJCCNMFL@?$AAS?$AAi?$AAz?$AAe?$AAO?$AAf?$AAD?$AAi?$AAs?$AAa?$AAb?$AAl?$AAe?$AAd?$AAS?$AAt?$AAa?$AAc?$AAk?$AA?5?$AA?$DN?$AA?$DN?$AA?5?$AAg?$AA?4?$AAD?$AAi?$AAs?$AAa?$AAb?$AAl?$AAe@ 0000000140265810     imgui.obj
 0003:000108e0       ??_C@_0CD@LPACIFP@PushItemFlag?1PopItemFlag?5Mismatc@ 00000001402658e0     imgui.obj
 0003:00010910       ??_C@_1KM@KDIHIOOG@?$AAS?$AAi?$AAz?$AAe?$AAO?$AAf?$AAI?$AAt?$AAe?$AAm?$AAF?$AAl?$AAa?$AAg?$AAs?$AAS?$AAt?$AAa?$AAc?$AAk?$AA?5?$AA?$DO?$AA?$DN?$AA?5?$AAg?$AA?4?$AAI?$AAt?$AAe?$AAm?$AAF?$AAl@ 0000000140265910     imgui.obj
 0003:000109e0       ??_C@_0CH@CECAGKKJ@PushStyleColor?1PopStyleColor?5Mis@ 00000001402659e0     imgui.obj
 0003:00010a10       ??_C@_1KE@NCANFJNK@?$AAS?$AAi?$AAz?$AAe?$AAO?$AAf?$AAC?$AAo?$AAl?$AAo?$AAr?$AAS?$AAt?$AAa?$AAc?$AAk?$AA?5?$AA?$DO?$AA?$DN?$AA?5?$AAg?$AA?4?$AAC?$AAo?$AAl?$AAo?$AAr?$AAS?$AAt?$AAa?$AAc?$AAk@ 0000000140265a10     imgui.obj
 0003:00010ad8       ??_C@_0CD@DKPEIHNP@PushStyleVar?1PopStyleVar?5Mismatc@ 0000000140265ad8     imgui.obj
 0003:00010b10       ??_C@_1KI@DHADCEOH@?$AAS?$AAi?$AAz?$AAe?$AAO?$AAf?$AAS?$AAt?$AAy?$AAl?$AAe?$AAV?$AAa?$AAr?$AAS?$AAt?$AAa?$AAc?$AAk?$AA?5?$AA?$DO?$AA?$DN?$AA?5?$AAg?$AA?4?$AAS?$AAt?$AAy?$AAl?$AAe?$AAV?$AAa@ 0000000140265b10     imgui.obj
 0003:00010be0       ??_C@_0BL@JNELFKGN@PushFont?1PopFont?5Mismatch?$CB?$AA@ 0000000140265be0     imgui.obj
 0003:00010c00       ??_C@_1II@EKMLEPAG@?$AAS?$AAi?$AAz?$AAe?$AAO?$AAf?$AAF?$AAo?$AAn?$AAt?$AAS?$AAt?$AAa?$AAc?$AAk?$AA?5?$AA?$DO?$AA?$DN?$AA?5?$AAg?$AA?4?$AAF?$AAo?$AAn?$AAt?$AAS?$AAt?$AAa?$AAc?$AAk?$AA?4?$AAS@ 0000000140265c00     imgui.obj
 0003:00010ca8       ??_C@_0CH@BLGIKBOK@PushFocusScope?1PopFocusScope?5Mis@ 0000000140265ca8     imgui.obj
 0003:00010ce0       ??_C@_1LI@DNMDNCBF@?$AAS?$AAi?$AAz?$AAe?$AAO?$AAf?$AAF?$AAo?$AAc?$AAu?$AAs?$AAS?$AAc?$AAo?$AAp?$AAe?$AAS?$AAt?$AAa?$AAc?$AAk?$AA?5?$AA?$DN?$AA?$DN?$AA?5?$AAg?$AA?4?$AAF?$AAo?$AAc?$AAu?$AAs@ 0000000140265ce0     imgui.obj
 0003:00010dc0       ??_C@_0ID@FLOMBDOB@Cannot?5have?5an?5empty?5ID?5at?5the?5r@ 0000000140265dc0     imgui.obj
 0003:00010e60       ??_C@_1BDC@OHDJAFCF@?$AAi?$AAd?$AA?5?$AA?$CB?$AA?$DN?$AA?5?$AAw?$AAi?$AAn?$AAd?$AAo?$AAw?$AA?9?$AA?$DO?$AAI?$AAD?$AA?5?$AA?$CG?$AA?$CG?$AA?5?$AA?$CC?$AAC?$AAa?$AAn?$AAn?$AAo?$AAt?$AA?5?$AAh?$AAa?$AAv?$AAe@ 0000000140265e60     imgui.obj
 0003:00010fd0       ??_C@_1CM@HMCHNBOE@?$AAg?$AA?4?$AAG?$AAr?$AAo?$AAu?$AAp?$AAS?$AAt?$AAa?$AAc?$AAk?$AA?4?$AAS?$AAi?$AAz?$AAe?$AA?5?$AA?$DO?$AA?5?$AA0?$AA?$AA@ 0000000140265fd0     imgui.obj
 0003:00011010       ??_C@_1EE@BNODPOAB@?$AAg?$AAr?$AAo?$AAu?$AAp?$AA_?$AAd?$AAa?$AAt?$AAa?$AA?4?$AAW?$AAi?$AAn?$AAd?$AAo?$AAw?$AAI?$AAD?$AA?5?$AA?$DN?$AA?$DN?$AA?5?$AAw?$AAi?$AAn?$AAd?$AAo?$AAw?$AA?9?$AA?$DO?$AAI@ 0000000140266010     imgui.obj
 0003:00011070       ??_C@_1LE@BJPKKBML@?$AA?$CI?$AAf?$AAl?$AAa?$AAg?$AAs?$AA?5?$AA?$CG?$AA?5?$AAI?$AAm?$AAG?$AAu?$AAi?$AAS?$AAc?$AAr?$AAo?$AAl?$AAl?$AAF?$AAl?$AAa?$AAg?$AAs?$AA_?$AAM?$AAa?$AAs?$AAk?$AAX?$AA_@ 0000000140266070     imgui.obj
 0003:00011150       ??_C@_1LE@EEFOEPJE@?$AA?$CI?$AAf?$AAl?$AAa?$AAg?$AAs?$AA?5?$AA?$CG?$AA?5?$AAI?$AAm?$AAG?$AAu?$AAi?$AAS?$AAc?$AAr?$AAo?$AAl?$AAl?$AAF?$AAl?$AAa?$AAg?$AAs?$AA_?$AAM?$AAa?$AAs?$AAk?$AAY?$AA_@ 0000000140266150     imgui.obj
 0003:00011230       ??_C@_1GC@BIJJIADH@?$AAc?$AAe?$AAn?$AAt?$AAe?$AAr?$AA_?$AAx?$AA_?$AAr?$AAa?$AAt?$AAi?$AAo?$AA?5?$AA?$DO?$AA?$DN?$AA?5?$AA0?$AA?4?$AA0?$AAf?$AA?5?$AA?$CG?$AA?$CG?$AA?5?$AAc?$AAe?$AAn?$AAt?$AAe?$AAr@ 0000000140266230     imgui.obj
 0003:000112b0       ??_C@_1GC@LDEACFFC@?$AAc?$AAe?$AAn?$AAt?$AAe?$AAr?$AA_?$AAy?$AA_?$AAr?$AAa?$AAt?$AAi?$AAo?$AA?5?$AA?$DO?$AA?$DN?$AA?5?$AA0?$AA?4?$AA0?$AAf?$AA?5?$AA?$CG?$AA?$CG?$AA?5?$AAc?$AAe?$AAn?$AAt?$AAe?$AAr@ 00000001402662b0     imgui.obj
