 Client

 Timestamp is 640eb1a5 (Mon Mar 13 14:16:21 2023)

 Preferred load address is 0000000140000000

 Start         Length     Name                   Class
 0001:00000000 000b7f80H .textbss                DATA
 0002:00000000 00008800H .text$di                CODE
 0002:00008800 0016e3f0H .text$mn                CODE
 0002:00176bf0 00001020H .text$mn$00             CODE
 0002:00177c10 00005240H .text$x                 CODE
 0002:0017ce50 0000142eH .text$yd                CODE
 0003:00000000 00000110H .CRT$XCA                DATA
 0003:00000110 00000110H .CRT$XCAA               DATA
 0003:00000220 00000128H .CRT$XCU                DATA
 0003:00000348 00000110H .CRT$XCZ                DATA
 0003:00000458 00000110H .CRT$XIA                DATA
 0003:00000568 00000110H .CRT$XIAA               DATA
 0003:00000678 00000110H .CRT$XIAC               DATA
 0003:00000788 00000110H .CRT$XIC                DATA
 0003:00000898 00000110H .CRT$XIZ                DATA
 0003:000009a8 00000008H .CRT$XLA                DATA
 0003:000009b0 00000008H .CRT$XLZ                DATA
 0003:000009b8 00000110H .CRT$XPA                DATA
 0003:00000ac8 00000110H .CRT$XPZ                DATA
 0003:00000bd8 00000110H .CRT$XTA                DATA
 0003:00000ce8 00000118H .CRT$XTZ                DATA
 0003:00000e00 00059160H .rdata                  DATA
 0003:00059f60 00000130H .rdata$T                DATA
 0003:0005a090 00001500H .rdata$r                DATA
 0003:0005b590 00000170H .rdata$zzzdbg           DATA
 0003:0005b700 00000110H .rtc$IAA                DATA
 0003:0005b810 00000318H .rtc$IMZ                DATA
 0003:0005bb28 00000110H .rtc$IZZ                DATA
 0003:0005bc38 00000110H .rtc$TAA                DATA
 0003:0005bd48 00000318H .rtc$TMZ                DATA
 0003:0005c060 00000110H .rtc$TZZ                DATA
 0003:0005c170 000168f0H .xdata                  DATA
 0003:00072a60 0000020aH .xdata$x                DATA
 0003:00072c6a 00000000H .edata                  DATA
 0004:00000000 00005e28H .data                   DATA
 0004:00005e28 000007b8H .data$r                 DATA
 0004:000065e0 00008c81H .bss                    DATA
 0005:00000000 0000ddacH .pdata                  DATA
 0006:00000000 00001028H .idata$5                DATA
 0006:00001028 000000f0H .idata$2                DATA
 0006:00001118 00000018H .idata$3                DATA
 0006:00001130 00001028H .idata$4                DATA
 0006:00002158 00002f9fH .idata$6                DATA
 0007:00000000 0000016cH .gfids$y                DATA
 0008:00000000 00000104H .tls                    DATA
 0008:00000104 00000104H .tls$                   DATA
 0008:00000208 00000101H .tls$ZZZ                DATA
 0009:00000000 0000011bH .00cfg                  DATA
 000a:00000000 00000780H .rsrc$01                DATA
 000a:00000780 0001b640H .rsrc$02                DATA

  Address         Publics by Value              Rva+Base               Lib:Object

 0000:00000000       __guard_fids_table         0000000000000000     <absolute>
 0000:00000000       ___safe_se_handler_count   0000000000000000     <absolute>
 0000:00000000       __guard_fids_count         0000000000000000     <absolute>
 0000:00000000       __guard_iat_table          0000000000000000     <absolute>
 0000:00000000       __guard_longjmp_table      0000000000000000     <absolute>
 0000:00000000       ___safe_se_handler_table   0000000000000000     <absolute>
 0000:00000000       __guard_longjmp_count      0000000000000000     <absolute>
 0000:00000000       __dynamic_value_reloc_table 0000000000000000     <absolute>
 0000:00000000       __guard_iat_count          0000000000000000     <absolute>
 0000:00000100       __guard_flags              0000000000000100     <absolute>
 0000:00000000       __ImageBase                0000000140000000     <linker-defined>
 0001:00000000       __enc$textbss$begin        0000000140001000     <linker-defined>
 0001:000b7f80       __enc$textbss$end          00000001400b8f80     <linker-defined>
 0002:000088c0       ??$IM_DELETE@D@@YAXPEAD@Z  00000001400c18c0 f i imgui.obj
 0002:00008920       ??$IM_DELETE@UImDrawList@@@@YAXPEAUImDrawList@@@Z 00000001400c1920 f i imgui.obj
 0002:00008990       ??$IM_DELETE@UImFontAtlas@@@@YAXPEAUImFontAtlas@@@Z 00000001400c1990 f i imgui.obj
 0002:00008a00       ??$IM_DELETE@UImGuiContext@@@@YAXPEAUImGuiContext@@@Z 00000001400c1a00 f i imgui.obj
 0002:00008a70       ??$IM_DELETE@UImGuiViewportP@@@@YAXPEAUImGuiViewportP@@@Z 00000001400c1a70 f i imgui.obj
 0002:00008ae0       ??$IM_DELETE@UImGuiWindow@@@@YAXPEAUImGuiWindow@@@Z 00000001400c1ae0 f i imgui.obj
 0002:00009140       ??$__vcrt_va_start_verify_argument_type@PEBD@@YAXXZ 00000001400c2140 f i imgui.obj
 0002:00009170       ??$__vcrt_va_start_verify_argument_type@QEBD@@YAXXZ 00000001400c2170 f i imgui.obj
 0002:000091a0       ??0?$ImBitArray@$0CIM@$0A@@@QEAA@XZ 00000001400c21a0 f i imgui.obj
 0002:00009200       ??0?$ImChunkStream@UImGuiTableSettings@@@@QEAA@XZ 00000001400c2200 f i imgui.obj
 0002:00009260       ??0?$ImChunkStream@UImGuiWindowSettings@@@@QEAA@XZ 00000001400c2260 f i imgui.obj
 0002:000092c0       ??0?$ImPool@UImGuiTabBar@@@@QEAA@XZ 00000001400c22c0 f i imgui.obj
 0002:00009370       ??0?$ImPool@UImGuiTable@@@@QEAA@XZ 00000001400c2370 f i imgui.obj
 0002:00009420       ??0?$ImVector@D@@QEAA@XZ   00000001400c2420 f i imgui.obj
 0002:000094a0       ??0?$ImVector@E@@QEAA@XZ   00000001400c24a0 f i imgui.obj
 0002:00009520       ??0?$ImVector@G@@QEAA@XZ   00000001400c2520 f i imgui.obj
 0002:000095a0       ??0?$ImVector@H@@QEAA@XZ   00000001400c25a0 f i imgui.obj
 0002:00009620       ??0?$ImVector@I@@QEAA@XZ   00000001400c2620 f i imgui.obj
 0002:000096a0       ??0?$ImVector@M@@QEAA@XZ   00000001400c26a0 f i imgui.obj
 0002:00009720       ??0?$ImVector@PEAUImDrawList@@@@QEAA@XZ 00000001400c2720 f i imgui.obj
 0002:000097a0       ??0?$ImVector@PEAUImFont@@@@QEAA@XZ 00000001400c27a0 f i imgui.obj
 0002:00009820       ??0?$ImVector@PEAUImGuiViewportP@@@@QEAA@XZ 00000001400c2820 f i imgui.obj
 0002:000098a0       ??0?$ImVector@PEAUImGuiWindow@@@@QEAA@XZ 00000001400c28a0 f i imgui.obj
 0002:00009920       ??0?$ImVector@PEAX@@QEAA@XZ 00000001400c2920 f i imgui.obj
 0002:000099a0       ??0?$ImVector@UImDrawChannel@@@@QEAA@XZ 00000001400c29a0 f i imgui.obj
 0002:00009a20       ??0?$ImVector@UImDrawCmd@@@@QEAA@XZ 00000001400c2a20 f i imgui.obj
 0002:00009aa0       ??0?$ImVector@UImDrawVert@@@@QEAA@XZ 00000001400c2aa0 f i imgui.obj
 0002:00009b20       ??0?$ImVector@UImGuiColorMod@@@@QEAA@XZ 00000001400c2b20 f i imgui.obj
 0002:00009ba0       ??0?$ImVector@UImGuiContextHook@@@@QEAA@XZ 00000001400c2ba0 f i imgui.obj
 0002:00009c20       ??0?$ImVector@UImGuiGroupData@@@@QEAA@XZ 00000001400c2c20 f i imgui.obj
 0002:00009ca0       ??0?$ImVector@UImGuiInputEvent@@@@QEAA@XZ 00000001400c2ca0 f i imgui.obj
 0002:00009d20       ??0?$ImVector@UImGuiKeyRoutingData@@@@QEAA@XZ 00000001400c2d20 f i imgui.obj
 0002:00009da0       ??0?$ImVector@UImGuiListClipperData@@@@QEAA@XZ 00000001400c2da0 f i imgui.obj
 0002:00009e20       ??0?$ImVector@UImGuiListClipperRange@@@@QEAA@XZ 00000001400c2e20 f i imgui.obj
 0002:00009ea0       ??0?$ImVector@UImGuiOldColumns@@@@QEAA@XZ 00000001400c2ea0 f i imgui.obj
 0002:00009f20       ??0?$ImVector@UImGuiPopupData@@@@QEAA@XZ 00000001400c2f20 f i imgui.obj
 0002:00009fa0       ??0?$ImVector@UImGuiPtrOrIndex@@@@QEAA@XZ 00000001400c2fa0 f i imgui.obj
 0002:0000a020       ??0?$ImVector@UImGuiSettingsHandler@@@@QEAA@XZ 00000001400c3020 f i imgui.obj
 0002:0000a0a0       ??0?$ImVector@UImGuiShrinkWidthItem@@@@QEAA@XZ 00000001400c30a0 f i imgui.obj
 0002:0000a120       ??0?$ImVector@UImGuiStackLevelInfo@@@@QEAA@XZ 00000001400c3120 f i imgui.obj
 0002:0000a1a0       ??0?$ImVector@UImGuiStoragePair@ImGuiStorage@@@@QEAA@XZ 00000001400c31a0 f i imgui.obj
 0002:0000a220       ??0?$ImVector@UImGuiStyleMod@@@@QEAA@XZ 00000001400c3220 f i imgui.obj
 0002:0000a2a0       ??0?$ImVector@UImGuiTabBar@@@@QEAA@XZ 00000001400c32a0 f i imgui.obj
 0002:0000a320       ??0?$ImVector@UImGuiTable@@@@QEAA@XZ 00000001400c3320 f i imgui.obj
 0002:0000a3a0       ??0?$ImVector@UImGuiTableTempData@@@@QEAA@XZ 00000001400c33a0 f i imgui.obj
 0002:0000a420       ??0?$ImVector@UImGuiTextRange@ImGuiTextFilter@@@@QEAA@XZ 00000001400c3420 f i imgui.obj
 0002:0000a4a0       ??0?$ImVector@UImGuiWindowStackData@@@@QEAA@XZ 00000001400c34a0 f i imgui.obj
 0002:0000a520       ??0?$ImVector@UImVec2@@@@QEAA@XZ 00000001400c3520 f i imgui.obj
 0002:0000a5a0       ??0?$ImVector@UImVec4@@@@QEAA@XZ 00000001400c35a0 f i imgui.obj
 0002:0000a620       ??0?$ImVector@_W@@QEAA@XZ  00000001400c3620 f i imgui.obj
 0002:0000a6a0       ??0ImDrawCmdHeader@@QEAA@XZ 00000001400c36a0 f i imgui.obj
 0002:0000a700       ??0ImDrawData@@QEAA@XZ     00000001400c3700 f i imgui.obj
 0002:0000a7a0       ??0ImDrawDataBuilder@@QEAA@XZ 00000001400c37a0 f i imgui.obj
 0002:0000a820       ??0ImDrawList@@QEAA@PEAUImDrawListSharedData@@@Z 00000001400c3820 f i imgui.obj
 0002:0000a980       ??0ImDrawListSplitter@@QEAA@XZ 00000001400c3980 f i imgui.obj
 0002:0000aa00       ??0ImGuiColorMod@@QEAA@XZ  00000001400c3a00 f i imgui.obj
 0002:0000aa70       ??0ImGuiComboPreviewData@@QEAA@XZ 00000001400c3a70 f i imgui.obj
 0002:0000ab30       ??0ImGuiContext@@QEAA@PEAUImFontAtlas@@@Z 00000001400c3b30 f i imgui.obj
 0002:0000c210       ??0ImGuiIO@@QEAA@XZ        00000001400c5210 f   imgui.obj
 0002:0000c860       ??0ImGuiInputEvent@@QEAA@XZ 00000001400c5860 f i imgui.obj
 0002:0000c8d0       ??0ImGuiInputTextState@@QEAA@PEAUImGuiContext@@@Z 00000001400c58d0 f i imgui.obj
 0002:0000c9b0       ??0ImGuiKeyOwnerData@@QEAA@XZ 00000001400c59b0 f i imgui.obj
 0002:0000ca40       ??0ImGuiKeyRoutingData@@QEAA@XZ 00000001400c5a40 f i imgui.obj
 0002:0000cae0       ??0ImGuiKeyRoutingTable@@QEAA@XZ 00000001400c5ae0 f i imgui.obj
 0002:0000cb80       ??0ImGuiLastItemData@@QEAA@XZ 00000001400c5b80 f i imgui.obj
 0002:0000cc30       ??0ImGuiListClipper@@QEAA@XZ 00000001400c5c30 f   imgui.obj
 0002:0000ccb0       ??0ImGuiListClipperData@@QEAA@XZ 00000001400c5cb0 f i imgui.obj
 0002:0000cd30       ??0ImGuiMenuColumns@@QEAA@XZ 00000001400c5d30 f i imgui.obj
 0002:0000cda0       ??0ImGuiMetricsConfig@@QEAA@XZ 00000001400c5da0 f i imgui.obj
 0002:0000ce70       ??0ImGuiNavItemData@@QEAA@XZ 00000001400c5e70 f i imgui.obj
 0002:0000cee0       ??0ImGuiNextItemData@@QEAA@XZ 00000001400c5ee0 f i imgui.obj
 0002:0000cf50       ??0ImGuiNextWindowData@@QEAA@XZ 00000001400c5f50 f i imgui.obj
 0002:0000d060       ??0ImGuiPayload@@QEAA@XZ   00000001400c6060 f i imgui.obj
 0002:0000d0c0       ??0ImGuiPlatformImeData@@QEAA@XZ 00000001400c60c0 f i imgui.obj
 0002:0000d140       ??0ImGuiPopupData@@QEAA@XZ 00000001400c6140 f i imgui.obj
 0002:0000d200       ??0ImGuiSettingsHandler@@QEAA@XZ 00000001400c6200 f i imgui.obj
 0002:0000d270       ??0ImGuiSizeCallbackData@@QEAA@XZ 00000001400c6270 f i imgui.obj
 0002:0000d310       ??0ImGuiStackLevelInfo@@QEAA@XZ 00000001400c6310 f i imgui.obj
 0002:0000d380       ??0ImGuiStackSizes@@QEAA@XZ 00000001400c6380 f i imgui.obj
 0002:0000d3f0       ??0ImGuiStackTool@@QEAA@XZ 00000001400c63f0 f i imgui.obj
 0002:0000d490       ??0ImGuiStorage@@QEAA@XZ   00000001400c6490 f i imgui.obj
 0002:0000d4f0       ??0ImGuiStoragePair@ImGuiStorage@@QEAA@IH@Z 00000001400c64f0 f i imgui.obj
 0002:0000d570       ??0ImGuiStoragePair@ImGuiStorage@@QEAA@IM@Z 00000001400c6570 f i imgui.obj
 0002:0000d5f0       ??0ImGuiStoragePair@ImGuiStorage@@QEAA@IPEAX@Z 00000001400c65f0 f i imgui.obj
 0002:0000d670       ??0ImGuiStyle@@QEAA@XZ     00000001400c6670 f   imgui.obj
 0002:0000dd10       ??0ImGuiStyleMod@@QEAA@HM@Z 00000001400c6d10 f i imgui.obj
 0002:0000dda0       ??0ImGuiStyleMod@@QEAA@HUImVec2@@@Z 00000001400c6da0 f i imgui.obj
 0002:0000de50       ??0ImGuiTextBuffer@@QEAA@XZ 00000001400c6e50 f i imgui.obj
 0002:0000deb0       ??0ImGuiTextFilter@@QEAA@PEBD@Z 00000001400c6eb0 f   imgui.obj
 0002:0000dfa0       ??0ImGuiTextIndex@@QEAA@XZ 00000001400c6fa0 f i imgui.obj
 0002:0000e010       ??0ImGuiTextRange@ImGuiTextFilter@@QEAA@PEBD0@Z 00000001400c7010 f i imgui.obj
 0002:0000e090       ??0ImGuiViewport@@QEAA@XZ  00000001400c7090 f i imgui.obj
 0002:0000e160       ??0ImGuiViewportP@@QEAA@XZ 00000001400c7160 f i imgui.obj
 0002:0000e2e0       ??0ImGuiWindow@@QEAA@PEAUImGuiContext@@PEBD@Z 00000001400c72e0 f   imgui.obj
 0002:0000e980       ??0ImGuiWindowSettings@@QEAA@XZ 00000001400c7980 f i imgui.obj
 0002:0000ea20       ??0ImGuiWindowStackData@@QEAA@XZ 00000001400c7a20 f i imgui.obj
 0002:0000eaa0       ??0ImGuiWindowTempData@@QEAA@XZ 00000001400c7aa0 f i imgui.obj
 0002:0000ec80       ??0ImRect@@QEAA@AEBUImVec2@@0@Z 00000001400c7c80 f i imgui.obj
 0002:0000ecd0       ??0ImRect@@QEAA@AEBUImVec4@@@Z 00000001400c7cd0 f i imgui.obj
 0002:0000ed50       ??0ImRect@@QEAA@MMMM@Z     00000001400c7d50 f i imgui.obj
 0002:0000edd0       ??0ImRect@@QEAA@XZ         00000001400c7dd0 f i imgui.obj
 0002:0000ee30       ??0ImVec1@@QEAA@XZ         00000001400c7e30 f i imgui.obj
 0002:0000ee60       ??0ImVec2@@QEAA@MM@Z       00000001400c7e60 f i imgui.obj
 0002:0000eeb0       ??0ImVec2@@QEAA@XZ         00000001400c7eb0 f i imgui.obj
 0002:0000eef0       ??0ImVec2ih@@QEAA@AEBUImVec2@@@Z 00000001400c7ef0 f i imgui.obj
 0002:0000ef40       ??0ImVec2ih@@QEAA@FF@Z     00000001400c7f40 f i imgui.obj
 0002:0000ef90       ??0ImVec2ih@@QEAA@XZ       00000001400c7f90 f i imgui.obj
 0002:0000efd0       ??0ImVec4@@QEAA@MMMM@Z     00000001400c7fd0 f i imgui.obj
 0002:0000f050       ??0ImVec4@@QEAA@XZ         00000001400c8050 f i imgui.obj
 0002:0000f0b0       ??1?$ImChunkStream@UImGuiTableSettings@@@@QEAA@XZ 00000001400c80b0 f i imgui.obj
 0002:0000f110       ??1?$ImChunkStream@UImGuiWindowSettings@@@@QEAA@XZ 00000001400c8110 f i imgui.obj
 0002:0000f170       ??1?$ImPool@UImGuiTabBar@@@@QEAA@XZ 00000001400c8170 f i imgui.obj
 0002:0000f200       ??1?$ImPool@UImGuiTable@@@@QEAA@XZ 00000001400c8200 f i imgui.obj
 0002:0000f290       ??1?$ImVector@D@@QEAA@XZ   00000001400c8290 f i imgui.obj
 0002:0000f310       ??1?$ImVector@E@@QEAA@XZ   00000001400c8310 f i imgui.obj
 0002:0000f390       ??1?$ImVector@G@@QEAA@XZ   00000001400c8390 f i imgui.obj
 0002:0000f410       ??1?$ImVector@H@@QEAA@XZ   00000001400c8410 f i imgui.obj
 0002:0000f490       ??1?$ImVector@I@@QEAA@XZ   00000001400c8490 f i imgui.obj
 0002:0000f510       ??1?$ImVector@M@@QEAA@XZ   00000001400c8510 f i imgui.obj
 0002:0000f590       ??1?$ImVector@PEAUImDrawList@@@@QEAA@XZ 00000001400c8590 f i imgui.obj
 0002:0000f610       ??1?$ImVector@PEAUImFont@@@@QEAA@XZ 00000001400c8610 f i imgui.obj
 0002:0000f690       ??1?$ImVector@PEAUImGuiViewportP@@@@QEAA@XZ 00000001400c8690 f i imgui.obj
 0002:0000f710       ??1?$ImVector@PEAUImGuiWindow@@@@QEAA@XZ 00000001400c8710 f i imgui.obj
 0002:0000f790       ??1?$ImVector@PEAX@@QEAA@XZ 00000001400c8790 f i imgui.obj
 0002:0000f810       ??1?$ImVector@UImDrawChannel@@@@QEAA@XZ 00000001400c8810 f i imgui.obj
 0002:0000f890       ??1?$ImVector@UImDrawCmd@@@@QEAA@XZ 00000001400c8890 f i imgui.obj
 0002:0000f910       ??1?$ImVector@UImDrawVert@@@@QEAA@XZ 00000001400c8910 f i imgui.obj
 0002:0000f990       ??1?$ImVector@UImGuiColorMod@@@@QEAA@XZ 00000001400c8990 f i imgui.obj
 0002:0000fa10       ??1?$ImVector@UImGuiContextHook@@@@QEAA@XZ 00000001400c8a10 f i imgui.obj
 0002:0000fa90       ??1?$ImVector@UImGuiGroupData@@@@QEAA@XZ 00000001400c8a90 f i imgui.obj
 0002:0000fb10       ??1?$ImVector@UImGuiInputEvent@@@@QEAA@XZ 00000001400c8b10 f i imgui.obj
 0002:0000fb90       ??1?$ImVector@UImGuiKeyRoutingData@@@@QEAA@XZ 00000001400c8b90 f i imgui.obj
 0002:0000fc10       ??1?$ImVector@UImGuiListClipperData@@@@QEAA@XZ 00000001400c8c10 f i imgui.obj
 0002:0000fc90       ??1?$ImVector@UImGuiListClipperRange@@@@QEAA@XZ 00000001400c8c90 f i imgui.obj
 0002:0000fd10       ??1?$ImVector@UImGuiOldColumnData@@@@QEAA@XZ 00000001400c8d10 f i imgui.obj
 0002:0000fd90       ??1?$ImVector@UImGuiOldColumns@@@@QEAA@XZ 00000001400c8d90 f i imgui.obj
 0002:0000fe10       ??1?$ImVector@UImGuiPopupData@@@@QEAA@XZ 00000001400c8e10 f i imgui.obj
 0002:0000fe90       ??1?$ImVector@UImGuiPtrOrIndex@@@@QEAA@XZ 00000001400c8e90 f i imgui.obj
 0002:0000ff10       ??1?$ImVector@UImGuiSettingsHandler@@@@QEAA@XZ 00000001400c8f10 f i imgui.obj
 0002:0000ff90       ??1?$ImVector@UImGuiShrinkWidthItem@@@@QEAA@XZ 00000001400c8f90 f i imgui.obj
 0002:00010010       ??1?$ImVector@UImGuiStackLevelInfo@@@@QEAA@XZ 00000001400c9010 f i imgui.obj
 0002:00010090       ??1?$ImVector@UImGuiStoragePair@ImGuiStorage@@@@QEAA@XZ 00000001400c9090 f i imgui.obj
 0002:00010110       ??1?$ImVector@UImGuiStyleMod@@@@QEAA@XZ 00000001400c9110 f i imgui.obj
 0002:00010190       ??1?$ImVector@UImGuiTabBar@@@@QEAA@XZ 00000001400c9190 f i imgui.obj
 0002:00010210       ??1?$ImVector@UImGuiTabItem@@@@QEAA@XZ 00000001400c9210 f i imgui.obj
 0002:00010290       ??1?$ImVector@UImGuiTable@@@@QEAA@XZ 00000001400c9290 f i imgui.obj
 0002:00010310       ??1?$ImVector@UImGuiTableColumnSortSpecs@@@@QEAA@XZ 00000001400c9310 f i imgui.obj
 0002:00010390       ??1?$ImVector@UImGuiTableInstanceData@@@@QEAA@XZ 00000001400c9390 f i imgui.obj
 0002:00010410       ??1?$ImVector@UImGuiTableTempData@@@@QEAA@XZ 00000001400c9410 f i imgui.obj
 0002:00010490       ??1?$ImVector@UImGuiTextRange@ImGuiTextFilter@@@@QEAA@XZ 00000001400c9490 f i imgui.obj
 0002:00010510       ??1?$ImVector@UImGuiWindowStackData@@@@QEAA@XZ 00000001400c9510 f i imgui.obj
 0002:00010590       ??1?$ImVector@UImVec2@@@@QEAA@XZ 00000001400c9590 f i imgui.obj
 0002:00010610       ??1?$ImVector@UImVec4@@@@QEAA@XZ 00000001400c9610 f i imgui.obj
 0002:00010690       ??1?$ImVector@_W@@QEAA@XZ  00000001400c9690 f i imgui.obj
 0002:00010710       ??1ImDrawDataBuilder@@QEAA@XZ 00000001400c9710 f i imgui.obj
 0002:00010790       ??1ImDrawList@@QEAA@XZ     00000001400c9790 f i imgui.obj
 0002:000108a0       ??1ImDrawListSharedData@@QEAA@XZ 00000001400c98a0 f i imgui.obj
 0002:00010900       ??1ImDrawListSplitter@@QEAA@XZ 00000001400c9900 f i imgui.obj
 0002:00010980       ??1ImGuiContext@@QEAA@XZ   00000001400c9980 f i imgui.obj
 0002:00010e10       ??1ImGuiIO@@QEAA@XZ        00000001400c9e10 f i imgui.obj
 0002:00010e70       ??1ImGuiInputTextState@@QEAA@XZ 00000001400c9e70 f i imgui.obj
 0002:00010f00       ??1ImGuiKeyRoutingTable@@QEAA@XZ 00000001400c9f00 f i imgui.obj
 0002:00010f80       ??1ImGuiListClipper@@QEAA@XZ 00000001400c9f80 f   imgui.obj
 0002:00010fe0       ??1ImGuiListClipperData@@QEAA@XZ 00000001400c9fe0 f i imgui.obj
 0002:00011040       ??1ImGuiOldColumns@@QEAA@XZ 00000001400ca040 f i imgui.obj
 0002:000110b0       ??1ImGuiStackTool@@QEAA@XZ 00000001400ca0b0 f i imgui.obj
 0002:00011110       ??1ImGuiStorage@@QEAA@XZ   00000001400ca110 f i imgui.obj
 0002:00011170       ??1ImGuiTabBar@@QEAA@XZ    00000001400ca170 f i imgui.obj
 0002:000111e0       ??1ImGuiTable@@QEAA@XZ     00000001400ca1e0 f i imgui.obj
 0002:000112a0       ??1ImGuiTableTempData@@QEAA@XZ 00000001400ca2a0 f i imgui.obj
 0002:00011300       ??1ImGuiTextBuffer@@QEAA@XZ 00000001400ca300 f i imgui.obj
 0002:00011360       ??1ImGuiTextIndex@@QEAA@XZ 00000001400ca360 f i imgui.obj
 0002:000113c0       ??1ImGuiViewportP@@QEAA@XZ 00000001400ca3c0 f i imgui.obj
 0002:000114b0       ??1ImGuiWindow@@QEAA@XZ    00000001400ca4b0 f   imgui.obj
 0002:00011610       ??1ImGuiWindowTempData@@QEAA@XZ 00000001400ca610 f i imgui.obj
 0002:000116a0       ??2@YAPEAX_KUImNewWrapper@@PEAX@Z 00000001400ca6a0 f i imgui.obj
 0002:00011700       ??3@YAXPEAXUImNewWrapper@@0@Z 00000001400ca700 f i imgui.obj
 0002:00011750       ??A?$ImSpan@UImGuiTableColumn@@@@QEAAAEAUImGuiTableColumn@@H@Z 00000001400ca750 f i imgui.obj
 0002:00011810       ??A?$ImVector@D@@QEAAAEADH@Z 00000001400ca810 f i imgui.obj
 0002:000118c0       ??A?$ImVector@G@@QEAAAEAGH@Z 00000001400ca8c0 f i imgui.obj
 0002:00011970       ??A?$ImVector@H@@QEAAAEAHH@Z 00000001400ca970 f i imgui.obj
 0002:00011a20       ??A?$ImVector@I@@QEAAAEAIH@Z 00000001400caa20 f i imgui.obj
 0002:00011ad0       ??A?$ImVector@M@@QEAAAEAMH@Z 00000001400caad0 f i imgui.obj
 0002:00011b80       ??A?$ImVector@PEAUImDrawList@@@@QEAAAEAPEAUImDrawList@@H@Z 00000001400cab80 f i imgui.obj
 0002:00011c30       ??A?$ImVector@PEAUImFont@@@@QEAAAEAPEAUImFont@@H@Z 00000001400cac30 f i imgui.obj
 0002:00011ce0       ??A?$ImVector@PEAUImGuiViewportP@@@@QEAAAEAPEAUImGuiViewportP@@H@Z 00000001400cace0 f i imgui.obj
 0002:00011d90       ??A?$ImVector@PEAUImGuiWindow@@@@QEAAAEAPEAUImGuiWindow@@H@Z 00000001400cad90 f i imgui.obj
 0002:00011e40       ??A?$ImVector@UImDrawCmd@@@@QEAAAEAUImDrawCmd@@H@Z 00000001400cae40 f i imgui.obj
 0002:00011ef0       ??A?$ImVector@UImGuiContextHook@@@@QEAAAEAUImGuiContextHook@@H@Z 00000001400caef0 f i imgui.obj
 0002:00011fa0       ??A?$ImVector@UImGuiInputEvent@@@@QEAAAEAUImGuiInputEvent@@H@Z 00000001400cafa0 f i imgui.obj
 0002:00012050       ??A?$ImVector@UImGuiKeyRoutingData@@@@QEAAAEAUImGuiKeyRoutingData@@H@Z 00000001400cb050 f i imgui.obj
 0002:00012100       ??A?$ImVector@UImGuiListClipperData@@@@QEAAAEAUImGuiListClipperData@@H@Z 00000001400cb100 f i imgui.obj
 0002:000121b0       ??A?$ImVector@UImGuiListClipperRange@@@@QEAAAEAUImGuiListClipperRange@@H@Z 00000001400cb1b0 f i imgui.obj
 0002:00012260       ??A?$ImVector@UImGuiOldColumnData@@@@QEAAAEAUImGuiOldColumnData@@H@Z 00000001400cb260 f i imgui.obj
 0002:00012310       ??A?$ImVector@UImGuiOldColumns@@@@QEAAAEAUImGuiOldColumns@@H@Z 00000001400cb310 f i imgui.obj
 0002:000123c0       ??A?$ImVector@UImGuiPopupData@@@@QEAAAEAUImGuiPopupData@@H@Z 00000001400cb3c0 f i imgui.obj
 0002:00012470       ??A?$ImVector@UImGuiSettingsHandler@@@@QEAAAEAUImGuiSettingsHandler@@H@Z 00000001400cb470 f i imgui.obj
 0002:00012520       ??A?$ImVector@UImGuiStackLevelInfo@@@@QEAAAEAUImGuiStackLevelInfo@@H@Z 00000001400cb520 f i imgui.obj
 0002:000125d0       ??A?$ImVector@UImGuiStoragePair@ImGuiStorage@@@@QEAAAEAUImGuiStoragePair@ImGuiStorage@@H@Z 00000001400cb5d0 f i imgui.obj
 0002:00012680       ??A?$ImVector@UImGuiTabBar@@@@QEAAAEAUImGuiTabBar@@H@Z 00000001400cb680 f i imgui.obj
 0002:00012730       ??A?$ImVector@UImGuiTabItem@@@@QEAAAEAUImGuiTabItem@@H@Z 00000001400cb730 f i imgui.obj
 0002:000127e0       ??A?$ImVector@UImGuiTable@@@@QEAAAEAUImGuiTable@@H@Z 00000001400cb7e0 f i imgui.obj
 0002:00012890       ??A?$ImVector@UImGuiTableInstanceData@@@@QEAAAEAUImGuiTableInstanceData@@H@Z 00000001400cb890 f i imgui.obj
 0002:00012940       ??A?$ImVector@UImGuiTableTempData@@@@QEAAAEAUImGuiTableTempData@@H@Z 00000001400cb940 f i imgui.obj
 0002:000129f0       ??A?$ImVector@UImGuiTextRange@ImGuiTextFilter@@@@QEAAAEAUImGuiTextRange@ImGuiTextFilter@@H@Z 00000001400cb9f0 f i imgui.obj
 0002:00012aa0       ??A?$ImVector@UImGuiTextRange@ImGuiTextFilter@@@@QEBAAEBUImGuiTextRange@ImGuiTextFilter@@H@Z 00000001400cbaa0 f i imgui.obj
 0002:00012b50       ??A?$ImVector@UImGuiWindowStackData@@@@QEAAAEAUImGuiWindowStackData@@H@Z 00000001400cbb50 f i imgui.obj
 0002:00012c00       ??A?$ImVector@_W@@QEAAAEA_WH@Z 00000001400cbc00 f i imgui.obj
 0002:00012cb0       ??AImVec2@@QEAAAEAM_K@Z    00000001400cbcb0 f i imgui.obj
 0002:00012d20       ??AImVec2@@QEBAM_K@Z       00000001400cbd20 f i imgui.obj
 0002:000130f0       ??_GImDrawList@@QEAAPEAXI@Z 00000001400cc0f0 f i imgui.obj
 0002:00013180       ??_GImFontAtlas@@QEAAPEAXI@Z 00000001400cc180 f i imgui.obj
 0002:00013210       ??_GImGuiContext@@QEAAPEAXI@Z 00000001400cc210 f i imgui.obj
 0002:000132a0       ??_GImGuiListClipperData@@QEAAPEAXI@Z 00000001400cc2a0 f i imgui.obj
 0002:00013330       ??_GImGuiOldColumns@@QEAAPEAXI@Z 00000001400cc330 f i imgui.obj
 0002:000133c0       ??_GImGuiTabBar@@QEAAPEAXI@Z 00000001400cc3c0 f i imgui.obj
 0002:00013450       ??_GImGuiTable@@QEAAPEAXI@Z 00000001400cc450 f i imgui.obj
 0002:000134e0       ??_GImGuiTableTempData@@QEAAPEAXI@Z 00000001400cc4e0 f i imgui.obj
 0002:00013570       ??_GImGuiViewportP@@QEAAPEAXI@Z 00000001400cc570 f i imgui.obj
 0002:00013600       ??_GImGuiWindow@@QEAAPEAXI@Z 00000001400cc600 f i imgui.obj
 0002:00013690       ??_H@YAXPEAX_K1P6APEAX0@Z@Z 00000001400cc690 f i imgui.obj
 0002:00013780       ?AcceptDragDropPayload@ImGui@@YAPEBUImGuiPayload@@PEBDH@Z 00000001400cc780 f   imgui.obj
 0002:00013be0       ?ActivateItem@ImGui@@YAXI@Z 00000001400ccbe0 f   imgui.obj
 0002:00013c50       ?Add@ImRect@@QEAAXAEBU1@@Z 00000001400ccc50 f i imgui.obj
 0002:00013d30       ?Add@ImRect@@QEAAXAEBUImVec2@@@Z 00000001400ccd30 f i imgui.obj
 0002:00013e00       ?AddContextHook@ImGui@@YAIPEAUImGuiContext@@PEBUImGuiContextHook@@@Z 00000001400cce00 f   imgui.obj
 0002:00014180       ?AddFocusEvent@ImGuiIO@@QEAAX_N@Z 00000001400cd180 f   imgui.obj
 0002:00014330       ?AddInputCharacter@ImGuiIO@@QEAAXI@Z 00000001400cd330 f   imgui.obj
 0002:00014480       ?AddInputCharacterUTF16@ImGuiIO@@QEAAXG@Z 00000001400cd480 f   imgui.obj
 0002:00014600       ?AddInputCharactersUTF8@ImGuiIO@@QEAAXPEBD@Z 00000001400cd600 f   imgui.obj
 0002:00014700       ?AddKeyAnalogEvent@ImGuiIO@@QEAAXW4ImGuiKey@@_NM@Z 00000001400cd700 f   imgui.obj
 0002:00014ba0       ?AddKeyEvent@ImGuiIO@@QEAAXW4ImGuiKey@@_N@Z 00000001400cdba0 f   imgui.obj
 0002:00014c70       ?AddMouseButtonEvent@ImGuiIO@@QEAAXH_N@Z 00000001400cdc70 f   imgui.obj
 0002:00014e80       ?AddMousePosEvent@ImGuiIO@@QEAAXMM@Z 00000001400cde80 f   imgui.obj
 0002:00015160       ?AddMouseWheelEvent@ImGuiIO@@QEAAXMM@Z 00000001400ce160 f   imgui.obj
 0002:00015360       ?AddSettingsHandler@ImGui@@YAXPEBUImGuiSettingsHandler@@@Z 00000001400ce360 f   imgui.obj
 0002:00015800       ?Begin@ImGui@@YA_NPEBDPEA_NH@Z 00000001400ce800 f   imgui.obj
 0002:00019510       ?Begin@ImGuiListClipper@@QEAAXHM@Z 00000001400d2510 f   imgui.obj
 0002:000197a0       ?BeginChild@ImGui@@YA_NIAEBUImVec2@@_NH@Z 00000001400d27a0 f   imgui.obj
 0002:00019860       ?BeginChild@ImGui@@YA_NPEBDAEBUImVec2@@_NH@Z 00000001400d2860 f   imgui.obj
 0002:00019910       ?BeginChildEx@ImGui@@YA_NPEBDIAEBUImVec2@@_NH@Z 00000001400d2910 f   imgui.obj
 0002:00019d20       ?BeginChildFrame@ImGui@@YA_NIAEBUImVec2@@H@Z 00000001400d2d20 f   imgui.obj
 0002:00019e50       ?BeginDisabled@ImGui@@YAX_N@Z 00000001400d2e50 f   imgui.obj
 0002:00019fc0       ?BeginDragDropSource@ImGui@@YA_NH@Z 00000001400d2fc0 f   imgui.obj
 0002:0001a530       ?BeginDragDropTarget@ImGui@@YA_NXZ 00000001400d3530 f   imgui.obj
 0002:0001a760       ?BeginDragDropTargetCustom@ImGui@@YA_NAEBUImRect@@I@Z 00000001400d3760 f   imgui.obj
 0002:0001a940       ?BeginGroup@ImGui@@YAXXZ   00000001400d3940 f   imgui.obj
 0002:0001abb0       ?BeginPopup@ImGui@@YA_NPEBDH@Z 00000001400d3bb0 f   imgui.obj
 0002:0001ac90       ?BeginPopupContextItem@ImGui@@YA_NPEBDH@Z 00000001400d3c90 f   imgui.obj
 0002:0001adf0       ?BeginPopupContextVoid@ImGui@@YA_NPEBDH@Z 00000001400d3df0 f   imgui.obj
 0002:0001af00       ?BeginPopupContextWindow@ImGui@@YA_NPEBDH@Z 00000001400d3f00 f   imgui.obj
 0002:0001b020       ?BeginPopupEx@ImGui@@YA_NIH@Z 00000001400d4020 f   imgui.obj
 0002:0001b190       ?BeginPopupModal@ImGui@@YA_NPEBDPEA_NH@Z 00000001400d4190 f   imgui.obj
 0002:0001b370       ?BeginTooltip@ImGui@@YAXXZ 00000001400d4370 f   imgui.obj
 0002:0001b3b0       ?BeginTooltipEx@ImGui@@YAXHH@Z 00000001400d43b0 f   imgui.obj
 0002:0001b640       ?BringWindowToDisplayBack@ImGui@@YAXPEAUImGuiWindow@@@Z 00000001400d4640 f   imgui.obj
 0002:0001b7c0       ?BringWindowToDisplayBehind@ImGui@@YAXPEAUImGuiWindow@@0@Z 00000001400d47c0 f   imgui.obj
 0002:0001b9e0       ?BringWindowToDisplayFront@ImGui@@YAXPEAUImGuiWindow@@@Z 00000001400d49e0 f   imgui.obj
 0002:0001bbb0       ?BringWindowToFocusFront@ImGui@@YAXPEAUImGuiWindow@@@Z 00000001400d4bb0 f   imgui.obj
 0002:0001be50       ?Build@ImGuiTextFilter@@QEAAXXZ 00000001400d4e50 f   imgui.obj
 0002:0001c0e0       ?BuildSortByKey@ImGuiStorage@@QEAAXXZ 00000001400d50e0 f   imgui.obj
 0002:0001c160       ?CalcFontSize@ImGuiWindow@@QEBAMXZ 00000001400d5160 f i imgui.obj
 0002:0001c220       ?CalcItemSize@ImGui@@YA?AUImVec2@@U2@MM@Z 00000001400d5220 f   imgui.obj
 0002:0001c430       ?CalcItemWidth@ImGui@@YAMXZ 00000001400d5430 f   imgui.obj
 0002:0001c540       ?CalcListClipping@ImGui@@YAXHMPEAH0@Z 00000001400d5540 f   imgui.obj
 0002:0001d280       ?CalcTextSize@ImGui@@YA?AUImVec2@@PEBD0_NM@Z 00000001400d6280 f   imgui.obj
 0002:0001d470       ?CalcTypematicRepeatAmount@ImGui@@YAHMMMM@Z 00000001400d6470 f   imgui.obj
 0002:0001df00       ?CalcWindowNextAutoFitSize@ImGui@@YA?AUImVec2@@PEAUImGuiWindow@@@Z 00000001400d6f00 f   imgui.obj
 0002:0001e3b0       ?CalcWorkRectPos@ImGuiViewportP@@QEBA?AUImVec2@@AEBU2@@Z 00000001400d73b0 f i imgui.obj
 0002:0001e460       ?CalcWorkRectSize@ImGuiViewportP@@QEBA?AUImVec2@@AEBU2@0@Z 00000001400d7460 f i imgui.obj
 0002:0001e560       ?CalcWrapWidthForPos@ImGui@@YAMAEBUImVec2@@M@Z 00000001400d7560 f   imgui.obj
 0002:0001e690       ?CallContextHooks@ImGui@@YAXPEAUImGuiContext@@W4ImGuiContextHookType@@@Z 00000001400d7690 f   imgui.obj
 0002:0001e9d0       ?Clear@?$ImPool@UImGuiTabBar@@@@QEAAXXZ 00000001400d79d0 f i imgui.obj
 0002:0001eae0       ?Clear@?$ImPool@UImGuiTable@@@@QEAAXXZ 00000001400d7ae0 f i imgui.obj
 0002:0001ebf0       ?Clear@ImDrawData@@QEAAXXZ 00000001400d7bf0 f i imgui.obj
 0002:0001ec50       ?Clear@ImDrawDataBuilder@@QEAAXXZ 00000001400d7c50 f i imgui.obj
 0002:0001ece0       ?Clear@ImGuiKeyRoutingTable@@QEAAXXZ 00000001400d7ce0 f i imgui.obj
 0002:0001eda0       ?Clear@ImGuiNavItemData@@QEAAXXZ 00000001400d7da0 f i imgui.obj
 0002:0001ee70       ?Clear@ImGuiPayload@@QEAAXXZ 00000001400d7e70 f i imgui.obj
 0002:0001ef50       ?Clear@ImGuiStorage@@QEAAXXZ 00000001400d7f50 f i imgui.obj
 0002:0001efb0       ?ClearActiveID@ImGui@@YAXXZ 00000001400d7fb0 f   imgui.obj
 0002:0001eff0       ?ClearAllBits@?$ImBitArray@$0CIM@$0A@@@QEAAXXZ 00000001400d7ff0 f i imgui.obj
 0002:0001f050       ?ClearDragDrop@ImGui@@YAXXZ 00000001400d8050 f   imgui.obj
 0002:0001f150       ?ClearFlags@ImGuiNextWindowData@@QEAAXXZ 00000001400d8150 f i imgui.obj
 0002:0001f1a0       ?ClearFreeMemory@ImGuiInputTextState@@QEAAXXZ 00000001400d81a0 f i imgui.obj
 0002:0001f230       ?ClearIniSettings@ImGui@@YAXXZ 00000001400d8230 f   imgui.obj
 0002:0001f330       ?ClearInputCharacters@ImGuiIO@@QEAAXXZ 00000001400d8330 f   imgui.obj
 0002:0001f390       ?ClearInputKeys@ImGuiIO@@QEAAXXZ 00000001400d8390 f   imgui.obj
 0002:0001f5d0       ?ClipWith@ImRect@@QEAAXAEBU1@@Z 00000001400d85d0 f i imgui.obj
 0002:0001f650       ?ClipWithFull@ImRect@@QEAAXAEBU1@@Z 00000001400d8650 f i imgui.obj
 0002:0001f6e0       ?CloseCurrentPopup@ImGui@@YAXXZ 00000001400d86e0 f   imgui.obj
 0002:0001f8f0       ?ClosePopupToLevel@ImGui@@YAXH_N@Z 00000001400d88f0 f   imgui.obj
 0002:0001fb10       ?ClosePopupsExceptModals@ImGui@@YAXXZ 00000001400d8b10 f   imgui.obj
 0002:0001fbe0       ?ClosePopupsOverWindow@ImGui@@YAXPEAUImGuiWindow@@_N@Z 00000001400d8be0 f   imgui.obj
 0002:0001fe60       ?ColorConvertFloat4ToU32@ImGui@@YAIAEBUImVec4@@@Z 00000001400d8e60 f   imgui.obj
 0002:0001ffa0       ?ColorConvertHSVtoRGB@ImGui@@YAXMMMAEAM00@Z 00000001400d8fa0 f   imgui.obj
 0002:00020370       ?ColorConvertRGBtoHSV@ImGui@@YAXMMMAEAM00@Z 00000001400d9370 f   imgui.obj
 0002:00020550       ?ColorConvertU32ToFloat4@ImGui@@YA?AUImVec4@@I@Z 00000001400d9550 f   imgui.obj
 0002:00020660       ?CompareWithCurrentState@ImGuiStackSizes@@QEAAXXZ 00000001400d9660 f   imgui.obj
 0002:000209d0       ?Contains@ImRect@@QEBA_NAEBU1@@Z 00000001400d99d0 f i imgui.obj
 0002:00020a70       ?Contains@ImRect@@QEBA_NAEBUImVec2@@@Z 00000001400d9a70 f i imgui.obj
 0002:00020b10       ?ConvertShortcutMod@ImGui@@YAHH@Z 00000001400d9b10 f i imgui.obj
 0002:00020ba0       ?ConvertSingleModFlagToKey@ImGui@@YA?AW4ImGuiKey@@W42@@Z 00000001400d9ba0 f i imgui.obj
 0002:00020ca0       ?CreateContext@ImGui@@YAPEAUImGuiContext@@PEAUImFontAtlas@@@Z 00000001400d9ca0 f   imgui.obj
 0002:000211c0       ?CreateNewWindowSettings@ImGui@@YAPEAUImGuiWindowSettings@@PEBD@Z 00000001400da1c0 f   imgui.obj
 0002:00021390       ?DebugCheckVersionAndDataLayout@ImGui@@YA_NPEBD_K11111@Z 00000001400da390 f   imgui.obj
 0002:000216b0       ?DebugHookIdInfo@ImGui@@YAXIHPEBX0@Z 00000001400da6b0 f   imgui.obj
 0002:00021b20       ?DebugLocateItem@ImGui@@YAXI@Z 00000001400dab20 f   imgui.obj
 0002:00021b90       ?DebugLocateItemOnHover@ImGui@@YAXI@Z 00000001400dab90 f   imgui.obj
 0002:00021d20       ?DebugLocateItemResolveWithLastItem@ImGui@@YAXXZ 00000001400dad20 f   imgui.obj
 0002:00021ff0       ?DebugLog@ImGui@@YAXPEBDZZ 00000001400daff0 f   imgui.obj
 0002:000220c0       ?DebugLogV@ImGui@@YAXPEBDPEAD@Z 00000001400db0c0 f   imgui.obj
 0002:00022230       ?DebugNodeColumns@ImGui@@YAXPEAUImGuiOldColumns@@@Z 00000001400db230 f   imgui.obj
 0002:00022410       ?DebugNodeDrawCmdShowMeshAndBoundingBox@ImGui@@YAXPEAUImDrawList@@PEBU2@PEBUImDrawCmd@@_N3@Z 00000001400db410 f   imgui.obj
 0002:00022890       ?DebugNodeDrawList@ImGui@@YAXPEAUImGuiWindow@@PEBUImDrawList@@PEBD@Z 00000001400db890 f   imgui.obj
 0002:000234a0       ?DebugNodeFont@ImGui@@YAXPEAUImFont@@@Z 00000001400dc4a0 f   imgui.obj
 0002:00023e70       ?DebugNodeFontGlyph@ImGui@@YAXPEAUImFont@@PEBUImFontGlyph@@@Z 00000001400dce70 f   imgui.obj
 0002:00024030       ?DebugNodeStorage@ImGui@@YAXPEAUImGuiStorage@@PEBD@Z 00000001400dd030 f   imgui.obj
 0002:00024140       ?DebugNodeTabBar@ImGui@@YAXPEAUImGuiTabBar@@PEBD@Z 00000001400dd140 f   imgui.obj
 0002:00024950       ?DebugNodeViewport@ImGui@@YAXPEAUImGuiViewportP@@@Z 00000001400dd950 f   imgui.obj
 0002:00024c40       ?DebugNodeWindow@ImGui@@YAXPEAUImGuiWindow@@PEBD@Z 00000001400ddc40 f   imgui.obj
 0002:00025890       ?DebugNodeWindowSettings@ImGui@@YAXPEAUImGuiWindowSettings@@@Z 00000001400de890 f   imgui.obj
 0002:000259b0       ?DebugNodeWindowsList@ImGui@@YAXPEAU?$ImVector@PEAUImGuiWindow@@@@PEBD@Z 00000001400de9b0 f   imgui.obj
 0002:00025ab0       ?DebugNodeWindowsListByBeginStackParent@ImGui@@YAXPEAPEAUImGuiWindow@@HPEAU2@@Z 00000001400deab0 f   imgui.obj
 0002:00025fe0       ?DebugRenderKeyboardPreview@ImGui@@YAXPEAUImDrawList@@@Z 00000001400defe0 f   imgui.obj
 0002:00026920       ?DebugRenderViewportThumbnail@ImGui@@YAXPEAUImDrawList@@PEAUImGuiViewportP@@AEBUImRect@@@Z 00000001400df920 f   imgui.obj
 0002:00027090       ?DebugStartItemPicker@ImGui@@YAXXZ 00000001400e0090 f i imgui.obj
 0002:000270e0       ?DebugTextEncoding@ImGui@@YAXPEBD@Z 00000001400e00e0 f   imgui.obj
 0002:000273c0       ?DestroyContext@ImGui@@YAXPEAUImGuiContext@@@Z 00000001400e03c0 f   imgui.obj
 0002:00027490       ?Draw@ImGuiTextFilter@@QEAA_NPEBDM@Z 00000001400e0490 f   imgui.obj
 0002:00027570       ?End@ImGui@@YAXXZ          00000001400e0570 f   imgui.obj
 0002:00027850       ?End@ImGuiListClipper@@QEAAXXZ 00000001400e0850 f   imgui.obj
 0002:00027a40       ?EndChild@ImGui@@YAXXZ     00000001400e0a40 f   imgui.obj
 0002:00027e60       ?EndChildFrame@ImGui@@YAXXZ 00000001400e0e60 f   imgui.obj
 0002:00027ea0       ?EndDisabled@ImGui@@YAXXZ  00000001400e0ea0 f   imgui.obj
 0002:00028000       ?EndDragDropSource@ImGui@@YAXXZ 00000001400e1000 f   imgui.obj
 0002:00028110       ?EndDragDropTarget@ImGui@@YAXXZ 00000001400e1110 f   imgui.obj
 0002:000281e0       ?EndFrame@ImGui@@YAXXZ     00000001400e11e0 f   imgui.obj
 0002:000286e0       ?EndGroup@ImGui@@YAXXZ     00000001400e16e0 f   imgui.obj
 0002:00028c30       ?EndPopup@ImGui@@YAXXZ     00000001400e1c30 f   imgui.obj
 0002:00028da0       ?EndTooltip@ImGui@@YAXXZ   00000001400e1da0 f   imgui.obj
 0002:00028e20       ?ErrorCheckEndFrameRecover@ImGui@@YAXP6AXPEAXPEBDZZ0@Z 00000001400e1e20 f   imgui.obj
 0002:00029150       ?ErrorCheckEndWindowRecover@ImGui@@YAXP6AXPEAXPEBDZZ0@Z 00000001400e2150 f   imgui.obj
 0002:00029b50       ?ErrorCheckUsingSetCursorPosToExtendParentBoundaries@ImGui@@YAXXZ 00000001400e2b50 f   imgui.obj
 0002:00029c30       ?Expand@ImRect@@QEAAXAEBUImVec2@@@Z 00000001400e2c30 f i imgui.obj
 0002:00029cd0       ?Expand@ImRect@@QEAAXM@Z   00000001400e2cd0 f i imgui.obj
 0002:0002a160       ?FindBestWindowPosForPopup@ImGui@@YA?AUImVec2@@PEAUImGuiWindow@@@Z 00000001400e3160 f   imgui.obj
 0002:0002a7c0       ?FindBestWindowPosForPopupEx@ImGui@@YA?AUImVec2@@AEBU2@0PEAHAEBUImRect@@2W4ImGuiPopupPositionPolicy@@@Z 00000001400e37c0 f   imgui.obj
 0002:0002b2d0       ?FindBottomMostVisibleWindowWithinBeginStack@ImGui@@YAPEAUImGuiWindow@@PEAU2@@Z 00000001400e42d0 f   imgui.obj
 0002:0002b990       ?FindOrCreateWindowSettings@ImGui@@YAPEAUImGuiWindowSettings@@PEBD@Z 00000001400e4990 f   imgui.obj
 0002:0002ba20       ?FindRenderedTextEnd@ImGui@@YAPEBDPEBD0@Z 00000001400e4a20 f   imgui.obj
 0002:0002bb00       ?FindSettingsHandler@ImGui@@YAPEAUImGuiSettingsHandler@@PEBD@Z 00000001400e4b00 f   imgui.obj
 0002:0002bbe0       ?FindWindowByID@ImGui@@YAPEAUImGuiWindow@@I@Z 00000001400e4be0 f   imgui.obj
 0002:0002bc50       ?FindWindowByName@ImGui@@YAPEAUImGuiWindow@@PEBD@Z 00000001400e4c50 f   imgui.obj
 0002:0002bcc0       ?FindWindowDisplayIndex@ImGui@@YAHPEAUImGuiWindow@@@Z 00000001400e4cc0 f   imgui.obj
 0002:0002bf60       ?FindWindowSettings@ImGui@@YAPEAUImGuiWindowSettings@@I@Z 00000001400e4f60 f   imgui.obj
 0002:0002c020       ?FlattenIntoSingleLayer@ImDrawDataBuilder@@QEAAXXZ 00000001400e5020 f   imgui.obj
 0002:0002c200       ?FocusTopMostWindowUnderOne@ImGui@@YAXPEAUImGuiWindow@@0@Z 00000001400e5200 f   imgui.obj
 0002:0002c3e0       ?FocusWindow@ImGui@@YAXPEAUImGuiWindow@@@Z 00000001400e53e0 f   imgui.obj
 0002:0002c6d0       ?ForceDisplayRangeByIndices@ImGuiListClipper@@QEAAXHH@Z 00000001400e56d0 f   imgui.obj
 0002:0002c810       ?FromIndices@ImGuiListClipperRange@@SA?AU1@HH@Z 00000001400e5810 f i imgui.obj
 0002:0002c8d0       ?FromPositions@ImGuiListClipperRange@@SA?AU1@MMHH@Z 00000001400e58d0 f i imgui.obj
 0002:0002c9a0       ?GcAwakeTransientWindowBuffers@ImGui@@YAXPEAUImGuiWindow@@@Z 00000001400e59a0 f   imgui.obj
 0002:0002ca80       ?GcCompactTransientMiscBuffers@ImGui@@YAXXZ 00000001400e5a80 f   imgui.obj
 0002:0002cb00       ?GcCompactTransientWindowBuffers@ImGui@@YAXPEAUImGuiWindow@@@Z 00000001400e5b00 f   imgui.obj
 0002:0002cc20       ?GetAliveCount@?$ImPool@UImGuiTabBar@@@@QEBAHXZ 00000001400e5c20 f i imgui.obj
 0002:0002cc70       ?GetAliveCount@?$ImPool@UImGuiTable@@@@QEBAHXZ 00000001400e5c70 f i imgui.obj
 0002:0002ccc0       ?GetAllocatorFunctions@ImGui@@YAXPEAP6APEAX_KPEAX@ZPEAP6AX11@ZPEAPEAX@Z 00000001400e5cc0 f   imgui.obj
 0002:0002cd50       ?GetBL@ImRect@@QEBA?AUImVec2@@XZ 00000001400e5d50 f i imgui.obj
 0002:0002cda0       ?GetBR@ImRect@@QEBA?AUImVec2@@XZ 00000001400e5da0 f i imgui.obj
 0002:0002cde0       ?GetBackgroundDrawList@ImGui@@YAPEAUImDrawList@@PEAUImGuiViewport@@@Z 00000001400e5de0 f   imgui.obj
 0002:0002ce40       ?GetBackgroundDrawList@ImGui@@YAPEAUImDrawList@@XZ 00000001400e5e40 f   imgui.obj
 0002:0002ceb0       ?GetBool@ImGuiStorage@@QEBA_NI_N@Z 00000001400e5eb0 f   imgui.obj
 0002:0002cf70       ?GetBoolRef@ImGuiStorage@@QEAAPEA_NI_N@Z 00000001400e5f70 f   imgui.obj
 0002:0002d010       ?GetByIndex@?$ImPool@UImGuiTabBar@@@@QEAAPEAUImGuiTabBar@@H@Z 00000001400e6010 f i imgui.obj
 0002:0002d070       ?GetByIndex@?$ImPool@UImGuiTable@@@@QEAAPEAUImGuiTable@@H@Z 00000001400e6070 f i imgui.obj
 0002:0002d0d0       ?GetCenter@ImGuiViewport@@QEBA?AUImVec2@@XZ 00000001400e60d0 f i imgui.obj
 0002:0002d1a0       ?GetClipboardText@ImGui@@YAPEBDXZ 00000001400e61a0 f   imgui.obj
 0002:0002d3e0       ?GetColorU32@ImGui@@YAIAEBUImVec4@@@Z 00000001400e63e0 f   imgui.obj
 0002:0002d4c0       ?GetColorU32@ImGui@@YAIHM@Z 00000001400e64c0 f   imgui.obj
 0002:0002d5d0       ?GetColorU32@ImGui@@YAII@Z 00000001400e65d0 f   imgui.obj
 0002:0002d750       ?GetContentRegionAvail@ImGui@@YA?AUImVec2@@XZ 00000001400e6750 f   imgui.obj
 0002:0002d800       ?GetContentRegionMax@ImGui@@YA?AUImVec2@@XZ 00000001400e6800 f   imgui.obj
 0002:0002d930       ?GetContentRegionMaxAbs@ImGui@@YA?AUImVec2@@XZ 00000001400e6930 f   imgui.obj
 0002:0002da40       ?GetCurrentContext@ImGui@@YAPEAUImGuiContext@@XZ 00000001400e6a40 f   imgui.obj
 0002:0002da80       ?GetCurrentWindow@ImGui@@YAPEAUImGuiWindow@@XZ 00000001400e6a80 f i imgui.obj
 0002:0002daf0       ?GetCurrentWindowRead@ImGui@@YAPEAUImGuiWindow@@XZ 00000001400e6af0 f i imgui.obj
 0002:0002db40       ?GetCursorPos@ImGui@@YA?AUImVec2@@XZ 00000001400e6b40 f   imgui.obj
 0002:0002dc00       ?GetCursorPosX@ImGui@@YAMXZ 00000001400e6c00 f   imgui.obj
 0002:0002dc70       ?GetCursorPosY@ImGui@@YAMXZ 00000001400e6c70 f   imgui.obj
 0002:0002dce0       ?GetCursorScreenPos@ImGui@@YA?AUImVec2@@XZ 00000001400e6ce0 f   imgui.obj
 0002:0002dd50       ?GetCursorStartPos@ImGui@@YA?AUImVec2@@XZ 00000001400e6d50 f   imgui.obj
 0002:0002dde0       ?GetDefaultFont@ImGui@@YAPEAUImFont@@XZ 00000001400e6de0 f i imgui.obj
 0002:0002de80       ?GetDragDropPayload@ImGui@@YAPEBUImGuiPayload@@XZ 00000001400e6e80 f   imgui.obj
 0002:0002df10       ?GetDrawData@ImGui@@YAPEAUImDrawData@@XZ 00000001400e6f10 f   imgui.obj
 0002:0002dfb0       ?GetDrawListCount@ImDrawDataBuilder@@QEBAHXZ 00000001400e6fb0 f i imgui.obj
 0002:0002e040       ?GetDrawListSharedData@ImGui@@YAPEAUImDrawListSharedData@@XZ 00000001400e7040 f   imgui.obj
 0002:0002e140       ?GetFloat@ImGuiStorage@@QEBAMIM@Z 00000001400e7140 f   imgui.obj
 0002:0002e1f0       ?GetFloatRef@ImGuiStorage@@QEAAPEAMIM@Z 00000001400e71f0 f   imgui.obj
 0002:0002e2d0       ?GetFont@ImGui@@YAPEAUImFont@@XZ 00000001400e72d0 f   imgui.obj
 0002:0002e320       ?GetFontSize@ImGui@@YAMXZ  00000001400e7320 f   imgui.obj
 0002:0002e370       ?GetFontTexUvWhitePixel@ImGui@@YA?AUImVec2@@XZ 00000001400e7370 f   imgui.obj
 0002:0002e3e0       ?GetForegroundDrawList@ImGui@@YAPEAUImDrawList@@PEAUImGuiViewport@@@Z 00000001400e73e0 f   imgui.obj
 0002:0002e440       ?GetForegroundDrawList@ImGui@@YAPEAUImDrawList@@PEAUImGuiWindow@@@Z 00000001400e7440 f i imgui.obj
 0002:0002e490       ?GetForegroundDrawList@ImGui@@YAPEAUImDrawList@@XZ 00000001400e7490 f   imgui.obj
 0002:0002e500       ?GetFrameCount@ImGui@@YAHXZ 00000001400e7500 f   imgui.obj
 0002:0002e540       ?GetFrameHeight@ImGui@@YAMXZ 00000001400e7540 f   imgui.obj
 0002:0002e5b0       ?GetFrameHeightWithSpacing@ImGui@@YAMXZ 00000001400e75b0 f   imgui.obj
 0002:0002e630       ?GetHeight@ImRect@@QEBAMXZ 00000001400e7630 f i imgui.obj
 0002:0002e660       ?GetHoveredID@ImGui@@YAIXZ 00000001400e7660 f   imgui.obj
 0002:0002e6e0       ?GetID@ImGui@@YAIPEBD0@Z   00000001400e76e0 f   imgui.obj
 0002:0002e760       ?GetID@ImGui@@YAIPEBD@Z    00000001400e7760 f   imgui.obj
 0002:0002e7d0       ?GetID@ImGui@@YAIPEBX@Z    00000001400e77d0 f   imgui.obj
 0002:0002e840       ?GetID@ImGuiWindow@@QEAAIH@Z 00000001400e7840 f   imgui.obj
 0002:0002e910       ?GetID@ImGuiWindow@@QEAAIPEBD0@Z 00000001400e7910 f   imgui.obj
 0002:0002ea30       ?GetID@ImGuiWindow@@QEAAIPEBX@Z 00000001400e7a30 f   imgui.obj
 0002:0002eb00       ?GetIDFromRectangle@ImGuiWindow@@QEAAIAEBUImRect@@@Z 00000001400e7b00 f   imgui.obj
 0002:0002ebf0       ?GetIDWithSeed@ImGui@@YAIPEBD0I@Z 00000001400e7bf0 f   imgui.obj
 0002:0002ecf0       ?GetIO@ImGui@@YAAEAUImGuiIO@@XZ 00000001400e7cf0 f   imgui.obj
 0002:0002ee90       ?GetInt@ImGuiStorage@@QEBAHIH@Z 00000001400e7e90 f   imgui.obj
 0002:0002ef40       ?GetIntRef@ImGuiStorage@@QEAAPEAHIH@Z 00000001400e7f40 f   imgui.obj
 0002:0002f020       ?GetItemID@ImGui@@YAIXZ    00000001400e8020 f   imgui.obj
 0002:0002f070       ?GetItemRectMax@ImGui@@YA?AUImVec2@@XZ 00000001400e8070 f   imgui.obj
 0002:0002f0e0       ?GetItemRectMin@ImGui@@YA?AUImVec2@@XZ 00000001400e80e0 f   imgui.obj
 0002:0002f150       ?GetItemRectSize@ImGui@@YA?AUImVec2@@XZ 00000001400e8150 f   imgui.obj
 0002:0002f1d0       ?GetKeyChordName@ImGui@@YAXHPEADH@Z 00000001400e81d0 f   imgui.obj
 0002:0002f3e0       ?GetKeyData@ImGui@@YAPEAUImGuiKeyData@@W4ImGuiKey@@@Z 00000001400e83e0 f   imgui.obj
 0002:0002f530       ?GetKeyIndex@ImGui@@YA?AW4ImGuiKey@@W42@@Z 00000001400e8530 f   imgui.obj
 0002:0002f5f0       ?GetKeyMagnitude2d@ImGui@@YA?AUImVec2@@W4ImGuiKey@@000@Z 00000001400e85f0 f   imgui.obj
 0002:0002f6f0       ?GetKeyName@ImGui@@YAPEBDW4ImGuiKey@@@Z 00000001400e86f0 f   imgui.obj
 0002:0002f870       ?GetKeyOwner@ImGui@@YAIW4ImGuiKey@@@Z 00000001400e8870 f   imgui.obj
 0002:0002f960       ?GetKeyOwnerData@ImGui@@YAPEAUImGuiKeyOwnerData@@W4ImGuiKey@@@Z 00000001400e8960 f i imgui.obj
 0002:0002fa30       ?GetKeyPressedAmount@ImGui@@YAHW4ImGuiKey@@MM@Z 00000001400e8a30 f   imgui.obj
 0002:0002fb00       ?GetMainRect@ImGuiViewportP@@QEBA?AUImRect@@XZ 00000001400e8b00 f i imgui.obj
 0002:0002fbd0       ?GetMainViewport@ImGui@@YAPEAUImGuiViewport@@XZ 00000001400e8bd0 f   imgui.obj
 0002:0002fc30       ?GetMapSize@?$ImPool@UImGuiTabBar@@@@QEBAHXZ 00000001400e8c30 f i imgui.obj
 0002:0002fc80       ?GetMapSize@?$ImPool@UImGuiTable@@@@QEBAHXZ 00000001400e8c80 f i imgui.obj
 0002:0002fda0       ?GetMouseClickedCount@ImGui@@YAHH@Z 00000001400e8da0 f   imgui.obj
 0002:0002fe50       ?GetMouseCursor@ImGui@@YAHXZ 00000001400e8e50 f   imgui.obj
 0002:0002fea0       ?GetMouseDragDelta@ImGui@@YA?AUImVec2@@HM@Z 00000001400e8ea0 f   imgui.obj
 0002:00030090       ?GetMousePos@ImGui@@YA?AUImVec2@@XZ 00000001400e9090 f   imgui.obj
 0002:00030100       ?GetMousePosOnOpeningCurrentPopup@ImGui@@YA?AUImVec2@@XZ 00000001400e9100 f   imgui.obj
 0002:000301d0       ?GetName@ImGuiWindowSettings@@QEAAPEADXZ 00000001400e91d0 f i imgui.obj
 0002:00030220       ?GetNavTweakPressedAmount@ImGui@@YAMW4ImGuiAxis@@@Z 00000001400e9220 f   imgui.obj
 0002:00030470       ?GetPopupAllowedExtentRect@ImGui@@YA?AUImRect@@PEAUImGuiWindow@@@Z 00000001400e9470 f   imgui.obj
 0002:00030a30       ?GetScrollMaxX@ImGui@@YAMXZ 00000001400e9a30 f   imgui.obj
 0002:00030a90       ?GetScrollMaxY@ImGui@@YAMXZ 00000001400e9a90 f   imgui.obj
 0002:00030af0       ?GetScrollX@ImGui@@YAMXZ   00000001400e9af0 f   imgui.obj
 0002:00030b50       ?GetScrollY@ImGui@@YAMXZ   00000001400e9b50 f   imgui.obj
 0002:00030bb0       ?GetShortcutRoutingData@ImGui@@YAPEAUImGuiKeyRoutingData@@H@Z 00000001400e9bb0 f   imgui.obj
 0002:00030e00       ?GetSize@ImRect@@QEBA?AUImVec2@@XZ 00000001400e9e00 f i imgui.obj
 0002:00030f00       ?GetStateStorage@ImGui@@YAPEAUImGuiStorage@@XZ 00000001400e9f00 f   imgui.obj
 0002:00030f60       ?GetStyle@ImGui@@YAAEAUImGuiStyle@@XZ 00000001400e9f60 f   imgui.obj
 0002:00030ff0       ?GetStyleColorName@ImGui@@YAPEBDH@Z 00000001400e9ff0 f   imgui.obj
 0002:000314b0       ?GetStyleColorVec4@ImGui@@YAAEBUImVec4@@H@Z 00000001400ea4b0 f   imgui.obj
 0002:00031c70       ?GetTextLineHeight@ImGui@@YAMXZ 00000001400eac70 f   imgui.obj
 0002:00031cc0       ?GetTextLineHeightWithSpacing@ImGui@@YAMXZ 00000001400eacc0 f   imgui.obj
 0002:00031d20       ?GetTime@ImGui@@YANXZ      00000001400ead20 f   imgui.obj
 0002:00031d70       ?GetTopMostAndVisiblePopupModal@ImGui@@YAPEAUImGuiWindow@@XZ 00000001400ead70 f   imgui.obj
 0002:00031e40       ?GetTopMostPopupModal@ImGui@@YAPEAUImGuiWindow@@XZ 00000001400eae40 f   imgui.obj
 0002:00031ef0       ?GetTypematicRepeatRate@ImGui@@YAXHPEAM0@Z 00000001400eaef0 f   imgui.obj
 0002:00032050       ?GetVarPtr@ImGuiStyleVarInfo@@QEBAPEAXPEAUImGuiStyle@@@Z 00000001400eb050 f i imgui.obj
 0002:000320c0       ?GetVersion@ImGui@@YAPEBDXZ 00000001400eb0c0 f   imgui.obj
 0002:00032380       ?GetVoidPtr@ImGuiStorage@@QEBAPEAXI@Z 00000001400eb380 f   imgui.obj
 0002:00032420       ?GetVoidPtrRef@ImGuiStorage@@QEAAPEAPEAXIPEAX@Z 00000001400eb420 f   imgui.obj
 0002:00032500       ?GetWidth@ImRect@@QEBAMXZ  00000001400eb500 f i imgui.obj
 0002:000325c0       ?GetWindowContentRegionMax@ImGui@@YA?AUImVec2@@XZ 00000001400eb5c0 f   imgui.obj
 0002:00032650       ?GetWindowContentRegionMin@ImGui@@YA?AUImVec2@@XZ 00000001400eb650 f   imgui.obj
 0002:00032760       ?GetWindowDrawList@ImGui@@YAPEAUImDrawList@@XZ 00000001400eb760 f   imgui.obj
 0002:000327b0       ?GetWindowHeight@ImGui@@YAMXZ 00000001400eb7b0 f   imgui.obj
 0002:00032810       ?GetWindowPos@ImGui@@YA?AUImVec2@@XZ 00000001400eb810 f   imgui.obj
 0002:00032c70       ?GetWindowResizeBorderID@ImGui@@YAIPEAUImGuiWindow@@H@Z 00000001400ebc70 f   imgui.obj
 0002:00032d90       ?GetWindowResizeCornerID@ImGui@@YAIPEAUImGuiWindow@@H@Z 00000001400ebd90 f   imgui.obj
 0002:00032e70       ?GetWindowSize@ImGui@@YA?AUImVec2@@XZ 00000001400ebe70 f   imgui.obj
 0002:00032ee0       ?GetWindowWidth@ImGui@@YAMXZ 00000001400ebee0 f   imgui.obj
 0002:00032f40       ?GetWorkRect@ImGuiViewportP@@QEBA?AUImRect@@XZ 00000001400ebf40 f i imgui.obj
 0002:00033040       ?ImAlphaBlendColors@@YAIII@Z 00000001400ec040 f   imgui.obj
 0002:00033170       ?ImBezierCubicClosestPoint@@YA?AUImVec2@@AEBU1@0000H@Z 00000001400ec170 f   imgui.obj
 0002:000333e0       ?ImBezierCubicClosestPointCasteljau@@YA?AUImVec2@@AEBU1@0000M@Z 00000001400ec3e0 f   imgui.obj
 0002:00033cb0       ?ImBitArraySetBit@@YAXPEAIH@Z 00000001400eccb0 f i imgui.obj
 0002:00033f20       ?ImFileClose@@YA_NPEAU_iobuf@@@Z 00000001400ecf20 f   imgui.obj
 0002:00033fa0       ?ImFileGetSize@@YA_KPEAU_iobuf@@@Z 00000001400ecfa0 f   imgui.obj
 0002:00034090       ?ImFileLoadToMemory@@YAPEAXPEBD0PEA_KH@Z 00000001400ed090 f   imgui.obj
 0002:00034280       ?ImFileOpen@@YAPEAU_iobuf@@PEBD0@Z 00000001400ed280 f   imgui.obj
 0002:00034490       ?ImFileRead@@YA_KPEAX_K1PEAU_iobuf@@@Z 00000001400ed490 f   imgui.obj
 0002:00034510       ?ImFileWrite@@YA_KPEBX_K1PEAU_iobuf@@@Z 00000001400ed510 f   imgui.obj
 0002:000346f0       ?ImFormatString@@YAHPEAD_KPEBDZZ 00000001400ed6f0 f   imgui.obj
 0002:00034820       ?ImFormatStringToTempBuffer@@YAXPEAPEBD0PEBDZZ 00000001400ed820 f   imgui.obj
 0002:00034a70       ?ImFormatStringToTempBufferV@@YAXPEAPEBD0PEBDPEAD@Z 00000001400eda70 f   imgui.obj
 0002:00034c80       ?ImFormatStringV@@YAHPEAD_KPEBD0@Z 00000001400edc80 f   imgui.obj
 0002:00034d50       ?ImGetDirQuadrantFromDelta@@YAHMM@Z 00000001400edd50 f   imgui.obj
 0002:00036200       ?ImHashData@@YAIPEBX_KI@Z  00000001400ef200 f   imgui.obj
 0002:00036320       ?ImHashStr@@YAIPEBD_KI@Z   00000001400ef320 f   imgui.obj
 0002:00036770       ?ImLineClosestPoint@@YA?AUImVec2@@AEBU1@00@Z 00000001400ef770 f   imgui.obj
 0002:00036be0       ?ImStrSkipBlank@@YAPEBDPEBD@Z 00000001400efbe0 f   imgui.obj
 0002:00036c80       ?ImStrTrimBlanks@@YAXPEAD@Z 00000001400efc80 f   imgui.obj
 0002:00036df0       ?ImStrbolW@@YAPEBGPEBG0@Z  00000001400efdf0 f   imgui.obj
 0002:00036e90       ?ImStrchrRange@@YAPEBDPEBD0D@Z 00000001400efe90 f   imgui.obj
 0002:00036f20       ?ImStrdup@@YAPEADPEBD@Z    00000001400eff20 f   imgui.obj
 0002:00036fb0       ?ImStrdupcpy@@YAPEADPEADPEA_KPEBD@Z 00000001400effb0 f   imgui.obj
 0002:000370d0       ?ImStreolRange@@YAPEBDPEBD0@Z 00000001400f00d0 f   imgui.obj
 0002:00037190       ?ImStricmp@@YAHPEBD0@Z     00000001400f0190 f   imgui.obj
 0002:00037270       ?ImStristr@@YAPEBDPEBD000@Z 00000001400f0270 f   imgui.obj
 0002:00037450       ?ImStrlenW@@YAHPEBG@Z      00000001400f0450 f   imgui.obj
 0002:000374f0       ?ImStrncpy@@YAXPEADPEBD_K@Z 00000001400f04f0 f   imgui.obj
 0002:000375a0       ?ImStrnicmp@@YAHPEBD0_K@Z  00000001400f05a0 f   imgui.obj
 0002:000376b0       ?ImTextCharFromUtf8@@YAHPEAIPEBD1@Z 00000001400f06b0 f   imgui.obj
 0002:00037ba0       ?ImTextCharToUtf8@@YAPEBDQEADI@Z 00000001400f0ba0 f   imgui.obj
 0002:00037e00       ?ImTextCountCharsFromUtf8@@YAHPEBD0@Z 00000001400f0e00 f   imgui.obj
 0002:00037f20       ?ImTextCountUtf8BytesFromChar@@YAHPEBD0@Z 00000001400f0f20 f   imgui.obj
 0002:00037f80       ?ImTextCountUtf8BytesFromStr@@YAHPEBG0@Z 00000001400f0f80 f   imgui.obj
 0002:00038020       ?ImTextStrFromUtf8@@YAHPEAGHPEBD1PEAPEBD@Z 00000001400f1020 f   imgui.obj
 0002:00038170       ?ImTextStrToUtf8@@YAHPEADHPEBG1@Z 00000001400f1170 f   imgui.obj
 0002:00038320       ?ImTriangleArea@@YAMAEBUImVec2@@00@Z 00000001400f1320 f i imgui.obj
 0002:00038430       ?ImTriangleBarycentricCoords@@YAXAEBUImVec2@@000AEAM11@Z 00000001400f1430 f   imgui.obj
 0002:000385e0       ?ImTriangleClosestPoint@@YA?AUImVec2@@AEBU1@000@Z 00000001400f15e0 f   imgui.obj
 0002:00038830       ?ImTriangleContainsPoint@@YA_NAEBUImVec2@@000@Z 00000001400f1830 f   imgui.obj
 0002:00038ae0       ?Indent@ImGui@@YAXM@Z      00000001400f1ae0 f   imgui.obj
 0002:00038be0       ?Initialize@ImGui@@YAXXZ   00000001400f1be0 f   imgui.obj
 0002:00038e60       ?IsActiveIdUsingNavDir@ImGui@@YA_NH@Z 00000001400f1e60 f i imgui.obj
 0002:00038f10       ?IsAliasKey@ImGui@@YA_NW4ImGuiKey@@@Z 00000001400f1f10 f i imgui.obj
 0002:00038f90       ?IsAnyItemActive@ImGui@@YA_NXZ 00000001400f1f90 f   imgui.obj
 0002:00039010       ?IsAnyItemFocused@ImGui@@YA_NXZ 00000001400f2010 f   imgui.obj
 0002:000390a0       ?IsAnyItemHovered@ImGui@@YA_NXZ 00000001400f20a0 f   imgui.obj
 0002:00039130       ?IsAnyMouseDown@ImGui@@YA_NXZ 00000001400f2130 f   imgui.obj
 0002:000391b0       ?IsBuilt@ImFontAtlas@@QEBA_NXZ 00000001400f21b0 f i imgui.obj
 0002:00039240       ?IsClippedEx@ImGui@@YA_NAEBUImRect@@I@Z 00000001400f2240 f   imgui.obj
 0002:00039330       ?IsDataType@ImGuiPayload@@QEBA_NPEBD@Z 00000001400f2330 f i imgui.obj
 0002:000393e0       ?IsDragDropActive@ImGui@@YA_NXZ 00000001400f23e0 f   imgui.obj
 0002:00039430       ?IsDragDropPayloadBeingAccepted@ImGui@@YA_NXZ 00000001400f2430 f   imgui.obj
 0002:000394c0       ?IsGamepadKey@ImGui@@YA_NW4ImGuiKey@@@Z 00000001400f24c0 f i imgui.obj
 0002:00039540       ?IsInverted@ImRect@@QEBA_NXZ 00000001400f2540 f i imgui.obj
 0002:000395a0       ?IsItemActivated@ImGui@@YA_NXZ 00000001400f25a0 f   imgui.obj
 0002:00039630       ?IsItemActive@ImGui@@YA_NXZ 00000001400f2630 f   imgui.obj
 0002:000396d0       ?IsItemClicked@ImGui@@YA_NH@Z 00000001400f26d0 f   imgui.obj
 0002:00039760       ?IsItemDeactivated@ImGui@@YA_NXZ 00000001400f2760 f   imgui.obj
 0002:00039860       ?IsItemDeactivatedAfterEdit@ImGui@@YA_NXZ 00000001400f2860 f   imgui.obj
 0002:00039910       ?IsItemEdited@ImGui@@YA_NXZ 00000001400f2910 f   imgui.obj
 0002:00039990       ?IsItemFocused@ImGui@@YA_NXZ 00000001400f2990 f   imgui.obj
 0002:00039a00       ?IsItemHovered@ImGui@@YA_NH@Z 00000001400f2a00 f   imgui.obj
 0002:00039df0       ?IsItemToggledOpen@ImGui@@YA_NXZ 00000001400f2df0 f   imgui.obj
 0002:00039e60       ?IsItemToggledSelection@ImGui@@YA_NXZ 00000001400f2e60 f   imgui.obj
 0002:00039ed0       ?IsItemVisible@ImGui@@YA_NXZ 00000001400f2ed0 f   imgui.obj
 0002:00039f50       ?IsKeyDown@ImGui@@YA_NW4ImGuiKey@@@Z 00000001400f2f50 f   imgui.obj
 0002:00039fa0       ?IsKeyDown@ImGui@@YA_NW4ImGuiKey@@I@Z 00000001400f2fa0 f   imgui.obj
 0002:0003a030       ?IsKeyPressed@ImGui@@YA_NW4ImGuiKey@@IH@Z 00000001400f3030 f   imgui.obj
 0002:0003a250       ?IsKeyPressed@ImGui@@YA_NW4ImGuiKey@@_N@Z 00000001400f3250 f   imgui.obj
 0002:0003a2e0       ?IsKeyReleased@ImGui@@YA_NW4ImGuiKey@@@Z 00000001400f32e0 f   imgui.obj
 0002:0003a330       ?IsKeyReleased@ImGui@@YA_NW4ImGuiKey@@I@Z 00000001400f3330 f   imgui.obj
 0002:0003a3d0       ?IsLegacyKey@ImGui@@YA_NW4ImGuiKey@@@Z 00000001400f33d0 f i imgui.obj
 0002:0003a4e0       ?IsLoaded@ImFont@@QEBA_NXZ 00000001400f34e0 f i imgui.obj
 0002:0003a560       ?IsMouseClicked@ImGui@@YA_NHIH@Z 00000001400f3560 f   imgui.obj
 0002:0003a790       ?IsMouseClicked@ImGui@@YA_NH_N@Z 00000001400f3790 f   imgui.obj
 0002:0003a820       ?IsMouseDoubleClicked@ImGui@@YA_NH@Z 00000001400f3820 f   imgui.obj
 0002:0003a920       ?IsMouseDown@ImGui@@YA_NH@Z 00000001400f3920 f   imgui.obj
 0002:0003aa10       ?IsMouseDown@ImGui@@YA_NHI@Z 00000001400f3a10 f   imgui.obj
 0002:0003ab10       ?IsMouseDragPastThreshold@ImGui@@YA_NHM@Z 00000001400f3b10 f   imgui.obj
 0002:0003ac20       ?IsMouseDragging@ImGui@@YA_NHM@Z 00000001400f3c20 f   imgui.obj
 0002:0003acf0       ?IsMouseHoveringRect@ImGui@@YA_NAEBUImVec2@@0_N@Z 00000001400f3cf0 f   imgui.obj
 0002:0003ae80       ?IsMousePosValid@ImGui@@YA_NPEBUImVec2@@@Z 00000001400f3e80 f   imgui.obj
 0002:0003aff0       ?IsMouseReleased@ImGui@@YA_NH@Z 00000001400f3ff0 f   imgui.obj
 0002:0003b0e0       ?IsMouseReleased@ImGui@@YA_NHI@Z 00000001400f40e0 f   imgui.obj
 0002:0003b1e0       ?IsNamedKey@ImGui@@YA_NW4ImGuiKey@@@Z 00000001400f41e0 f i imgui.obj
 0002:0003b260       ?IsNamedKeyOrModKey@ImGui@@YA_NW4ImGuiKey@@@Z 00000001400f4260 f i imgui.obj
 0002:0003b330       ?IsPopupOpen@ImGui@@YA_NIH@Z 00000001400f4330 f   imgui.obj
 0002:0003b550       ?IsPopupOpen@ImGui@@YA_NPEBDH@Z 00000001400f4550 f   imgui.obj
 0002:0003b660       ?IsRectVisible@ImGui@@YA_NAEBUImVec2@@0@Z 00000001400f4660 f   imgui.obj
 0002:0003b700       ?IsRectVisible@ImGui@@YA_NAEBUImVec2@@@Z 00000001400f4700 f   imgui.obj
 0002:0003b7c0       ?IsWindowAbove@ImGui@@YA_NPEAUImGuiWindow@@0@Z 00000001400f47c0 f   imgui.obj
 0002:0003b990       ?IsWindowAppearing@ImGui@@YA_NXZ 00000001400f4990 f   imgui.obj
 0002:0003b9e0       ?IsWindowChildOf@ImGui@@YA_NPEAUImGuiWindow@@0_N@Z 00000001400f49e0 f   imgui.obj
 0002:0003bac0       ?IsWindowCollapsed@ImGui@@YA_NXZ 00000001400f4ac0 f   imgui.obj
 0002:0003bc50       ?IsWindowFocused@ImGui@@YA_NH@Z 00000001400f4c50 f   imgui.obj
 0002:0003bde0       ?IsWindowHovered@ImGui@@YA_NH@Z 00000001400f4de0 f   imgui.obj
 0002:0003c030       ?IsWindowNavFocusable@ImGui@@YA_NPEAUImGuiWindow@@@Z 00000001400f5030 f   imgui.obj
 0002:0003c0e0       ?IsWindowWithinBeginStackOf@ImGui@@YA_NPEAUImGuiWindow@@0@Z 00000001400f50e0 f   imgui.obj
 0002:0003c190       ?ItemAdd@ImGui@@YA_NAEBUImRect@@IPEBU2@H@Z 00000001400f5190 f   imgui.obj
 0002:0003c560       ?ItemHoverable@ImGui@@YA_NAEBUImRect@@I@Z 00000001400f5560 f   imgui.obj
 0002:0003c870       ?ItemSize@ImGui@@YAXAEBUImVec2@@M@Z 00000001400f5870 f   imgui.obj
 0002:0003cbe0       ?KeepAliveID@ImGui@@YAXI@Z 00000001400f5be0 f   imgui.obj
 0002:0003cc80       ?LoadIniSettingsFromDisk@ImGui@@YAXPEBD@Z 00000001400f5c80 f   imgui.obj
 0002:0003cd60       ?LoadIniSettingsFromMemory@ImGui@@YAXPEBD_K@Z 00000001400f5d60 f   imgui.obj
 0002:0003d380       ?LocalizeGetMsg@ImGui@@YAPEBDW4ImGuiLocKey@@@Z 00000001400f6380 f i imgui.obj
 0002:0003d420       ?LocalizeRegisterEntries@ImGui@@YAXPEBUImGuiLocEntry@@H@Z 00000001400f6420 f   imgui.obj
 0002:0003d6b0       ?LogBegin@ImGui@@YAXW4ImGuiLogType@@H@Z 00000001400f66b0 f   imgui.obj
 0002:0003d8b0       ?LogButtons@ImGui@@YAXXZ   00000001400f68b0 f   imgui.obj
 0002:0003da70       ?LogFinish@ImGui@@YAXXZ    00000001400f6a70 f   imgui.obj
 0002:0003dc10       ?LogRenderedText@ImGui@@YAXPEBUImVec2@@PEBD1@Z 00000001400f6c10 f   imgui.obj
 0002:0003e030       ?LogSetNextTextDecoration@ImGui@@YAXPEBD0@Z 00000001400f7030 f   imgui.obj
 0002:0003e0b0       ?LogText@ImGui@@YAXPEBDZZ  00000001400f70b0 f   imgui.obj
 0002:0003e2f0       ?LogTextV@ImGui@@YAXPEBDPEAD@Z 00000001400f72f0 f   imgui.obj
 0002:0003e380       ?LogToBuffer@ImGui@@YAXH@Z 00000001400f7380 f   imgui.obj
 0002:0003e400       ?LogToClipboard@ImGui@@YAXH@Z 00000001400f7400 f   imgui.obj
 0002:0003e480       ?LogToFile@ImGui@@YAXHPEBD@Z 00000001400f7480 f   imgui.obj
 0002:0003e5c0       ?LogToTTY@ImGui@@YAXH@Z    00000001400f75c0 f   imgui.obj
 0002:0003e790       ?MarkIniSettingsDirty@ImGui@@YAXPEAUImGuiWindow@@@Z 00000001400f7790 f   imgui.obj
 0002:0003e830       ?MarkIniSettingsDirty@ImGui@@YAXXZ 00000001400f7830 f   imgui.obj
 0002:0003e8a0       ?MarkItemEdited@ImGui@@YAXI@Z 00000001400f78a0 f   imgui.obj
 0002:0003e990       ?MemAlloc@ImGui@@YAPEAX_K@Z 00000001400f7990 f   imgui.obj
 0002:0003ea20       ?MemFree@ImGui@@YAXPEAX@Z  00000001400f7a20 f   imgui.obj
 0002:0003eac0       ?MenuBarHeight@ImGuiWindow@@QEBAMXZ 00000001400f7ac0 f i imgui.obj
 0002:0003eba0       ?MenuBarRect@ImGuiWindow@@QEBA?AUImRect@@XZ 00000001400f7ba0 f i imgui.obj
 0002:0003ed30       ?MouseButtonToKey@ImGui@@YA?AW4ImGuiKey@@H@Z 00000001400f7d30 f i imgui.obj
 0002:0003f490       ?NavInitRequestApplyResult@ImGui@@YAXXZ 00000001400f8490 f   imgui.obj
 0002:0003f5a0       ?NavInitWindow@ImGui@@YAXPEAUImGuiWindow@@_N@Z 00000001400f85a0 f   imgui.obj
 0002:0003f830       ?NavMoveRequestApplyResult@ImGui@@YAXXZ 00000001400f8830 f   imgui.obj
 0002:0003fe60       ?NavMoveRequestButNoResultYet@ImGui@@YA_NXZ 00000001400f8e60 f   imgui.obj
 0002:0003ff00       ?NavMoveRequestCancel@ImGui@@YAXXZ 00000001400f8f00 f   imgui.obj
 0002:0003ff70       ?NavMoveRequestForward@ImGui@@YAXHHHH@Z 00000001400f8f70 f   imgui.obj
 0002:00040080       ?NavMoveRequestResolveWithLastItem@ImGui@@YAXPEAUImGuiNavItemData@@@Z 00000001400f9080 f   imgui.obj
 0002:00040100       ?NavMoveRequestSubmit@ImGui@@YAXHHHH@Z 00000001400f9100 f   imgui.obj
 0002:000402e0       ?NavMoveRequestTryWrapping@ImGui@@YAXPEAUImGuiWindow@@H@Z 00000001400f92e0 f   imgui.obj
 0002:00045a40       ?NewFrame@ImGui@@YAXXZ     00000001400fea40 f   imgui.obj
 0002:00046d50       ?OpenPopup@ImGui@@YAXIH@Z  00000001400ffd50 f   imgui.obj
 0002:00046db0       ?OpenPopup@ImGui@@YAXPEBDH@Z 00000001400ffdb0 f   imgui.obj
 0002:00046e80       ?OpenPopupEx@ImGui@@YAXIH@Z 00000001400ffe80 f   imgui.obj
 0002:00047170       ?OpenPopupOnItemClick@ImGui@@YAXPEBDH@Z 0000000140100170 f   imgui.obj
 0002:000472b0       ?Overlaps@ImRect@@QEBA_NAEBU1@@Z 00000001401002b0 f i imgui.obj
 0002:000473e0       ?PassFilter@ImGuiTextFilter@@QEBA_NPEBD0@Z 00000001401003e0 f   imgui.obj
 0002:000475a0       ?PathFillConvex@ImDrawList@@QEAAXI@Z 00000001401005a0 f i imgui.obj
 0002:00047630       ?PathLineTo@ImDrawList@@QEAAXAEBUImVec2@@@Z 0000000140100630 f i imgui.obj
 0002:000476a0       ?PathStroke@ImDrawList@@QEAAXIHM@Z 00000001401006a0 f i imgui.obj
 0002:00047760       ?PopAllowKeyboardFocus@ImGui@@YAXXZ 0000000140100760 f   imgui.obj
 0002:000477a0       ?PopButtonRepeat@ImGui@@YAXXZ 00000001401007a0 f   imgui.obj
 0002:000477e0       ?PopClipRect@ImGui@@YAXXZ  00000001401007e0 f   imgui.obj
 0002:00047890       ?PopFocusScope@ImGui@@YAXXZ 0000000140100890 f   imgui.obj
 0002:00047980       ?PopFont@ImGui@@YAXXZ      0000000140100980 f   imgui.obj
 0002:00047a60       ?PopID@ImGui@@YAXXZ        0000000140100a60 f   imgui.obj
 0002:00047b00       ?PopItemFlag@ImGui@@YAXXZ  0000000140100b00 f   imgui.obj
 0002:00047bc0       ?PopItemWidth@ImGui@@YAXXZ 0000000140100bc0 f   imgui.obj
 0002:00047c40       ?PopStyleColor@ImGui@@YAXH@Z 0000000140100c40 f   imgui.obj
 0002:00047d90       ?PopStyleVar@ImGui@@YAXH@Z 0000000140100d90 f   imgui.obj
 0002:00047fb0       ?PopTextWrapPos@ImGui@@YAXXZ 0000000140100fb0 f   imgui.obj
 0002:00048030       ?PushAllowKeyboardFocus@ImGui@@YAX_N@Z 0000000140101030 f   imgui.obj
 0002:000480b0       ?PushButtonRepeat@ImGui@@YAX_N@Z 00000001401010b0 f   imgui.obj
 0002:00048110       ?PushClipRect@ImGui@@YAXAEBUImVec2@@0_N@Z 0000000140101110 f   imgui.obj
 0002:000481f0       ?PushFocusScope@ImGui@@YAXI@Z 00000001401011f0 f   imgui.obj
 0002:00048270       ?PushFont@ImGui@@YAXPEAUImFont@@@Z 0000000140101270 f   imgui.obj
 0002:00048340       ?PushID@ImGui@@YAXH@Z      0000000140101340 f   imgui.obj
 0002:00048410       ?PushID@ImGui@@YAXPEBD0@Z  0000000140101410 f   imgui.obj
 0002:000484f0       ?PushID@ImGui@@YAXPEBD@Z   00000001401014f0 f   imgui.obj
 0002:000485d0       ?PushID@ImGui@@YAXPEBX@Z   00000001401015d0 f   imgui.obj
 0002:000486a0       ?PushItemFlag@ImGui@@YAXH_N@Z 00000001401016a0 f   imgui.obj
 0002:000487f0       ?PushItemWidth@ImGui@@YAXM@Z 00000001401017f0 f   imgui.obj
 0002:000488f0       ?PushMultiItemsWidths@ImGui@@YAXHM@Z 00000001401018f0 f   imgui.obj
 0002:00048b70       ?PushOverrideID@ImGui@@YAXI@Z 0000000140101b70 f   imgui.obj
 0002:00048c20       ?PushStyleColor@ImGui@@YAXHAEBUImVec4@@@Z 0000000140101c20 f   imgui.obj
 0002:00048d40       ?PushStyleColor@ImGui@@YAXHI@Z 0000000140101d40 f   imgui.obj
 0002:00048e70       ?PushStyleVar@ImGui@@YAXHAEBUImVec2@@@Z 0000000140101e70 f   imgui.obj
 0002:00048f90       ?PushStyleVar@ImGui@@YAXHM@Z 0000000140101f90 f   imgui.obj
 0002:000490b0       ?PushTextWrapPos@ImGui@@YAXM@Z 00000001401020b0 f   imgui.obj
 0002:00049130       ?Rect@ImGuiWindow@@QEBA?AUImRect@@XZ 0000000140102130 f i imgui.obj
 0002:00049200       ?RemoveContextHook@ImGui@@YAXPEAUImGuiContext@@I@Z 0000000140102200 f   imgui.obj
 0002:00049300       ?RemoveSettingsHandler@ImGui@@YAXPEBD@Z 0000000140102300 f   imgui.obj
 0002:00049390       ?Render@ImGui@@YAXXZ       0000000140102390 f   imgui.obj
 0002:0004a000       ?RenderDragDropTargetRect@ImGui@@YAXAEBUImRect@@@Z 0000000140103000 f   imgui.obj
 0002:0004a160       ?RenderFrame@ImGui@@YAXUImVec2@@0I_NM@Z 0000000140103160 f   imgui.obj
 0002:0004a3d0       ?RenderFrameBorder@ImGui@@YAXUImVec2@@0M@Z 00000001401033d0 f   imgui.obj
 0002:0004a5d0       ?RenderMouseCursor@ImGui@@YAXUImVec2@@MHIII@Z 00000001401035d0 f   imgui.obj
 0002:0004ac90       ?RenderNavHighlight@ImGui@@YAXAEBUImRect@@IH@Z 0000000140103c90 f   imgui.obj
 0002:0004b070       ?RenderText@ImGui@@YAXUImVec2@@PEBD1_N@Z 0000000140104070 f   imgui.obj
 0002:0004b220       ?RenderTextClipped@ImGui@@YAXAEBUImVec2@@0PEBD1PEBU2@0PEBUImRect@@@Z 0000000140104220 f   imgui.obj
 0002:0004b370       ?RenderTextClippedEx@ImGui@@YAXPEAUImDrawList@@AEBUImVec2@@1PEBD2PEBU3@1PEBUImRect@@@Z 0000000140104370 f   imgui.obj
 0002:0004b7e0       ?RenderTextEllipsis@ImGui@@YAXPEAUImDrawList@@AEBUImVec2@@1MMPEBD2PEBU3@@Z 00000001401047e0 f   imgui.obj
 0002:0004bee0       ?RenderTextWrapped@ImGui@@YAXUImVec2@@PEBD1M@Z 0000000140104ee0 f   imgui.obj
 0002:0004de50       ?Reset@ImGuiListClipperData@@QEAAXPEAUImGuiListClipper@@@Z 0000000140106e50 f i imgui.obj
 0002:0004def0       ?ResetMouseDragDelta@ImGui@@YAXH@Z 0000000140106ef0 f   imgui.obj
 0002:0004dfb0       ?SameLine@ImGui@@YAXMM@Z   0000000140106fb0 f   imgui.obj
 0002:0004e190       ?SaveIniSettingsToDisk@ImGui@@YAXPEBD@Z 0000000140107190 f   imgui.obj
 0002:0004e2b0       ?SaveIniSettingsToMemory@ImGui@@YAPEBDPEA_K@Z 00000001401072b0 f   imgui.obj
 0002:0004e410       ?ScaleAllSizes@ImGuiStyle@@QEAAXM@Z 0000000140107410 f   imgui.obj
 0002:0004ea30       ?ScrollToItem@ImGui@@YAXH@Z 0000000140107a30 f   imgui.obj
 0002:0004eac0       ?ScrollToRect@ImGui@@YAXPEAUImGuiWindow@@AEBUImRect@@H@Z 0000000140107ac0 f   imgui.obj
 0002:0004eb40       ?ScrollToRectEx@ImGui@@YA?AUImVec2@@PEAUImGuiWindow@@AEBUImRect@@H@Z 0000000140107b40 f   imgui.obj
 0002:0004f520       ?SetActiveID@ImGui@@YAXIPEAUImGuiWindow@@@Z 0000000140108520 f   imgui.obj
 0002:0004f8b0       ?SetActiveIdUsingAllKeyboardKeys@ImGui@@YAXXZ 00000001401088b0 f   imgui.obj
 0002:0004f950       ?SetAllInt@ImGuiStorage@@QEAAXH@Z 0000000140108950 f   imgui.obj
 0002:0004f9f0       ?SetAllocatorFunctions@ImGui@@YAXP6APEAX_KPEAX@ZP6AX11@Z1@Z 00000001401089f0 f   imgui.obj
 0002:0004fa70       ?SetAppAcceptingEvents@ImGuiIO@@QEAAX_N@Z 0000000140108a70 f   imgui.obj
 0002:0004fad0       ?SetBit@?$ImBitArray@$0CIM@$0A@@@QEAAXH@Z 0000000140108ad0 f i imgui.obj
 0002:0004fb80       ?SetBool@ImGuiStorage@@QEAAXI_N@Z 0000000140108b80 f   imgui.obj
 0002:0004fc20       ?SetClipboardText@ImGui@@YAXPEBD@Z 0000000140108c20 f   imgui.obj
 0002:0004fe00       ?SetCurrentContext@ImGui@@YAXPEAUImGuiContext@@@Z 0000000140108e00 f   imgui.obj
 0002:0004fe50       ?SetCurrentFont@ImGui@@YAXPEAUImFont@@@Z 0000000140108e50 f   imgui.obj
 0002:000501c0       ?SetCursorPos@ImGui@@YAXAEBUImVec2@@@Z 00000001401091c0 f   imgui.obj
 0002:00050280       ?SetCursorPosX@ImGui@@YAXM@Z 0000000140109280 f   imgui.obj
 0002:00050300       ?SetCursorPosY@ImGui@@YAXM@Z 0000000140109300 f   imgui.obj
 0002:00050390       ?SetCursorScreenPos@ImGui@@YAXAEBUImVec2@@@Z 0000000140109390 f   imgui.obj
 0002:00050410       ?SetDragDropPayload@ImGui@@YA_NPEBDPEBX_KH@Z 0000000140109410 f   imgui.obj
 0002:000507b0       ?SetFloat@ImGuiStorage@@QEAAXIM@Z 00000001401097b0 f   imgui.obj
 0002:000508a0       ?SetFocusID@ImGui@@YAXIPEAUImGuiWindow@@@Z 00000001401098a0 f   imgui.obj
 0002:00050a60       ?SetHoveredID@ImGui@@YAXI@Z 0000000140109a60 f   imgui.obj
 0002:00050b20       ?SetInt@ImGuiStorage@@QEAAXIH@Z 0000000140109b20 f   imgui.obj
 0002:00050c10       ?SetItemAllowOverlap@ImGui@@YAXXZ 0000000140109c10 f   imgui.obj
 0002:00050ca0       ?SetItemDefaultFocus@ImGui@@YAXXZ 0000000140109ca0 f   imgui.obj
 0002:00050e20       ?SetItemKeyOwner@ImGui@@YAXW4ImGuiKey@@H@Z 0000000140109e20 f   imgui.obj
 0002:00050f80       ?SetKeyEventNativeData@ImGuiIO@@QEAAXW4ImGuiKey@@HHH@Z 0000000140109f80 f   imgui.obj
 0002:00051100       ?SetKeyOwner@ImGui@@YAXW4ImGuiKey@@IH@Z 000000014010a100 f   imgui.obj
 0002:000512b0       ?SetKeyboardFocusHere@ImGui@@YAXH@Z 000000014010a2b0 f   imgui.obj
 0002:000514b0       ?SetLastItemData@ImGui@@YAXIHHAEBUImRect@@@Z 000000014010a4b0 f   imgui.obj
 0002:00051570       ?SetMouseCursor@ImGui@@YAXH@Z 000000014010a570 f   imgui.obj
 0002:000515d0       ?SetNavID@ImGui@@YAXIW4ImGuiNavLayer@@IAEBUImRect@@@Z 000000014010a5d0 f   imgui.obj
 0002:00051750       ?SetNavWindow@ImGui@@YAXPEAUImGuiWindow@@@Z 000000014010a750 f   imgui.obj
 0002:00051870       ?SetNextFrameWantCaptureKeyboard@ImGui@@YAX_N@Z 000000014010a870 f   imgui.obj
 0002:00051900       ?SetNextFrameWantCaptureMouse@ImGui@@YAX_N@Z 000000014010a900 f   imgui.obj
 0002:00051990       ?SetNextItemWidth@ImGui@@YAXM@Z 000000014010a990 f   imgui.obj
 0002:00051a10       ?SetNextWindowBgAlpha@ImGui@@YAXM@Z 000000014010aa10 f   imgui.obj
 0002:00051a90       ?SetNextWindowCollapsed@ImGui@@YAX_NH@Z 000000014010aa90 f   imgui.obj
 0002:00051ba0       ?SetNextWindowContentSize@ImGui@@YAXAEBUImVec2@@@Z 000000014010aba0 f   imgui.obj
 0002:00051c40       ?SetNextWindowFocus@ImGui@@YAXXZ 000000014010ac40 f   imgui.obj
 0002:00051ca0       ?SetNextWindowPos@ImGui@@YAXAEBUImVec2@@H0@Z 000000014010aca0 f   imgui.obj
 0002:00051de0       ?SetNextWindowScroll@ImGui@@YAXAEBUImVec2@@@Z 000000014010ade0 f   imgui.obj
 0002:00051e70       ?SetNextWindowSize@ImGui@@YAXAEBUImVec2@@H@Z 000000014010ae70 f   imgui.obj
 0002:00051f90       ?SetNextWindowSizeConstraints@ImGui@@YAXAEBUImVec2@@0P6AXPEAUImGuiSizeCallbackData@@@ZPEAX@Z 000000014010af90 f   imgui.obj
 0002:00052230       ?SetScrollFromPosX@ImGui@@YAXMM@Z 000000014010b230 f   imgui.obj
 0002:000522b0       ?SetScrollFromPosX@ImGui@@YAXPEAUImGuiWindow@@MM@Z 000000014010b2b0 f   imgui.obj
 0002:000523e0       ?SetScrollFromPosY@ImGui@@YAXMM@Z 000000014010b3e0 f   imgui.obj
 0002:00052460       ?SetScrollFromPosY@ImGui@@YAXPEAUImGuiWindow@@MM@Z 000000014010b460 f   imgui.obj
 0002:00052590       ?SetScrollHereX@ImGui@@YAXM@Z 000000014010b590 f   imgui.obj
 0002:000526d0       ?SetScrollHereY@ImGui@@YAXM@Z 000000014010b6d0 f   imgui.obj
 0002:00052810       ?SetScrollX@ImGui@@YAXM@Z  000000014010b810 f   imgui.obj
 0002:00052880       ?SetScrollX@ImGui@@YAXPEAUImGuiWindow@@M@Z 000000014010b880 f   imgui.obj
 0002:00052910       ?SetScrollY@ImGui@@YAXM@Z  000000014010b910 f   imgui.obj
 0002:00052980       ?SetScrollY@ImGui@@YAXPEAUImGuiWindow@@M@Z 000000014010b980 f   imgui.obj
 0002:00052a10       ?SetShortcutRouting@ImGui@@YA_NHIH@Z 000000014010ba10 f   imgui.obj
 0002:00052be0       ?SetStateStorage@ImGui@@YAXPEAUImGuiStorage@@@Z 000000014010bbe0 f   imgui.obj
 0002:00052c90       ?SetToCurrentState@ImGuiStackSizes@@QEAAXXZ 000000014010bc90 f   imgui.obj
 0002:00052df0       ?SetTooltip@ImGui@@YAXPEBDZZ 000000014010bdf0 f   imgui.obj
 0002:00052ec0       ?SetTooltipV@ImGui@@YAXPEBDPEAD@Z 000000014010bec0 f   imgui.obj
 0002:00052f40       ?SetVoidPtr@ImGuiStorage@@QEAAXIPEAX@Z 000000014010bf40 f   imgui.obj
 0002:00053030       ?SetWindowCollapsed@ImGui@@YAXPEAUImGuiWindow@@_NH@Z 000000014010c030 f   imgui.obj
 0002:00053120       ?SetWindowCollapsed@ImGui@@YAXPEBD_NH@Z 000000014010c120 f   imgui.obj
 0002:000531b0       ?SetWindowCollapsed@ImGui@@YAX_NH@Z 000000014010c1b0 f   imgui.obj
 0002:00053450       ?SetWindowFocus@ImGui@@YAXPEBD@Z 000000014010c450 f   imgui.obj
 0002:000534d0       ?SetWindowFocus@ImGui@@YAXXZ 000000014010c4d0 f   imgui.obj
 0002:00053520       ?SetWindowFontScale@ImGui@@YAXM@Z 000000014010c520 f   imgui.obj
 0002:00053610       ?SetWindowHitTestHole@ImGui@@YAXPEAUImGuiWindow@@AEBUImVec2@@1@Z 000000014010c610 f   imgui.obj
 0002:00053720       ?SetWindowPos@ImGui@@YAXAEBUImVec2@@H@Z 000000014010c720 f   imgui.obj
 0002:00053790       ?SetWindowPos@ImGui@@YAXPEAUImGuiWindow@@AEBUImVec2@@H@Z 000000014010c790 f   imgui.obj
 0002:00053a40       ?SetWindowPos@ImGui@@YAXPEBDAEBUImVec2@@H@Z 000000014010ca40 f   imgui.obj
 0002:00053ad0       ?SetWindowSize@ImGui@@YAXAEBUImVec2@@H@Z 000000014010cad0 f   imgui.obj
 0002:00053b40       ?SetWindowSize@ImGui@@YAXPEAUImGuiWindow@@AEBUImVec2@@H@Z 000000014010cb40 f   imgui.obj
 0002:00053e20       ?SetWindowSize@ImGui@@YAXPEBDAEBUImVec2@@H@Z 000000014010ce20 f   imgui.obj
 0002:00053eb0       ?SetWindowViewport@ImGui@@YAXPEAUImGuiWindow@@PEAUImGuiViewportP@@@Z 000000014010ceb0 f   imgui.obj
 0002:000540c0       ?Shortcut@ImGui@@YA_NHIH@Z 000000014010d0c0 f   imgui.obj
 0002:00054260       ?ShowDebugLogWindow@ImGui@@YAXPEA_N@Z 000000014010d260 f   imgui.obj
 0002:00054a20       ?ShowFontAtlas@ImGui@@YAXPEAUImFontAtlas@@@Z 000000014010da20 f   imgui.obj
 0002:00054c90       ?ShowMetricsWindow@ImGui@@YAXPEA_N@Z 000000014010dc90 f   imgui.obj
 0002:00058250       ?ShowStackToolWindow@ImGui@@YAXPEA_N@Z 0000000140111250 f   imgui.obj
 0002:000589f0       ?Shutdown@ImGui@@YAXXZ     00000001401119f0 f   imgui.obj
 0002:00059050       ?StartMouseMovingWindow@ImGui@@YAXPEAUImGuiWindow@@@Z 0000000140112050 f   imgui.obj
 0002:000591b0       ?Step@ImGuiListClipper@@QEAA_NXZ 00000001401121b0 f   imgui.obj
 0002:000593d0       ?TableGetInstanceData@ImGui@@YAPEAUImGuiTableInstanceData@@PEAUImGuiTable@@H@Z 00000001401123d0 f i imgui.obj
 0002:00059460       ?TestBit@?$ImBitArray@$0CIM@$0A@@@QEBA_NH@Z 0000000140112460 f i imgui.obj
 0002:00059550       ?TestKeyOwner@ImGui@@YA_NW4ImGuiKey@@I@Z 0000000140112550 f   imgui.obj
 0002:000596b0       ?TestShortcutRouting@ImGui@@YA_NHI@Z 00000001401126b0 f   imgui.obj
 0002:00059750       ?TitleBarHeight@ImGuiWindow@@QEBAMXZ 0000000140112750 f i imgui.obj
 0002:00059810       ?TitleBarRect@ImGuiWindow@@QEBA?AUImRect@@XZ 0000000140112810 f i imgui.obj
 0002:000598e0       ?ToVec4@ImRect@@QEBA?AUImVec4@@XZ 00000001401128e0 f i imgui.obj
 0002:00059950       ?Translate@ImRect@@QEAAXAEBUImVec2@@@Z 0000000140112950 f i imgui.obj
 0002:000599f0       ?TranslateX@ImRect@@QEAAXM@Z 00000001401129f0 f i imgui.obj
 0002:00059a50       ?TranslateY@ImRect@@QEAAXM@Z 0000000140112a50 f i imgui.obj
 0002:00059ab0       ?TryGetMapData@?$ImPool@UImGuiTabBar@@@@QEAAPEAUImGuiTabBar@@H@Z 0000000140112ab0 f i imgui.obj
 0002:00059b40       ?TryGetMapData@?$ImPool@UImGuiTable@@@@QEAAPEAUImGuiTable@@H@Z 0000000140112b40 f i imgui.obj
 0002:00059bd0       ?Unindent@ImGui@@YAXM@Z    0000000140112bd0 f   imgui.obj
 0002:0005a280       ?UpdateHoveredWindowAndCaptureFlags@ImGui@@YAXXZ 0000000140113280 f   imgui.obj
 0002:0005a980       ?UpdateInputEvents@ImGui@@YAX_N@Z 0000000140113980 f   imgui.obj
 0002:0005d1a0       ?UpdateMouseMovingWindowEndFrame@ImGui@@YAXXZ 00000001401161a0 f   imgui.obj
 0002:0005d500       ?UpdateMouseMovingWindowNewFrame@ImGui@@YAXXZ 0000000140116500 f   imgui.obj
 0002:0005fa20       ?UpdateWindowParentAndRootLinks@ImGui@@YAXPEAUImGuiWindow@@H0@Z 0000000140118a20 f   imgui.obj
 0002:0005fc80       ?UpdateWorkRect@ImGuiViewportP@@QEAAXXZ 0000000140118c80 f i imgui.obj
 0002:0005fdd0       ?WindowRectAbsToRel@ImGui@@YA?AUImRect@@PEAUImGuiWindow@@AEBU2@@Z 0000000140118dd0 f i imgui.obj
 0002:0005ff10       ?WindowRectRelToAbs@ImGui@@YA?AUImRect@@PEAUImGuiWindow@@AEBU2@@Z 0000000140118f10 f i imgui.obj
 0002:00060820       ?_grow_capacity@?$ImVector@D@@QEBAHH@Z 0000000140119820 f i imgui.obj
 0002:000608f0       ?_grow_capacity@?$ImVector@E@@QEBAHH@Z 00000001401198f0 f i imgui.obj
 0002:000609c0       ?_grow_capacity@?$ImVector@G@@QEBAHH@Z 00000001401199c0 f i imgui.obj
 0002:00060a90       ?_grow_capacity@?$ImVector@H@@QEBAHH@Z 0000000140119a90 f i imgui.obj
 0002:00060b60       ?_grow_capacity@?$ImVector@I@@QEBAHH@Z 0000000140119b60 f i imgui.obj
 0002:00060c30       ?_grow_capacity@?$ImVector@M@@QEBAHH@Z 0000000140119c30 f i imgui.obj
 0002:00060d00       ?_grow_capacity@?$ImVector@PEAUImDrawList@@@@QEBAHH@Z 0000000140119d00 f i imgui.obj
 0002:00060dd0       ?_grow_capacity@?$ImVector@PEAUImFont@@@@QEBAHH@Z 0000000140119dd0 f i imgui.obj
 0002:00060ea0       ?_grow_capacity@?$ImVector@PEAUImGuiViewportP@@@@QEBAHH@Z 0000000140119ea0 f i imgui.obj
 0002:00060f70       ?_grow_capacity@?$ImVector@PEAUImGuiWindow@@@@QEBAHH@Z 0000000140119f70 f i imgui.obj
 0002:00061040       ?_grow_capacity@?$ImVector@UImDrawCmd@@@@QEBAHH@Z 000000014011a040 f i imgui.obj
 0002:00061110       ?_grow_capacity@?$ImVector@UImGuiColorMod@@@@QEBAHH@Z 000000014011a110 f i imgui.obj
 0002:000611e0       ?_grow_capacity@?$ImVector@UImGuiContextHook@@@@QEBAHH@Z 000000014011a1e0 f i imgui.obj
 0002:000612b0       ?_grow_capacity@?$ImVector@UImGuiGroupData@@@@QEBAHH@Z 000000014011a2b0 f i imgui.obj
 0002:00061380       ?_grow_capacity@?$ImVector@UImGuiInputEvent@@@@QEBAHH@Z 000000014011a380 f i imgui.obj
 0002:00061450       ?_grow_capacity@?$ImVector@UImGuiKeyRoutingData@@@@QEBAHH@Z 000000014011a450 f i imgui.obj
 0002:00061520       ?_grow_capacity@?$ImVector@UImGuiListClipperData@@@@QEBAHH@Z 000000014011a520 f i imgui.obj
 0002:000615f0       ?_grow_capacity@?$ImVector@UImGuiListClipperRange@@@@QEBAHH@Z 000000014011a5f0 f i imgui.obj
 0002:000616c0       ?_grow_capacity@?$ImVector@UImGuiPopupData@@@@QEBAHH@Z 000000014011a6c0 f i imgui.obj
 0002:00061790       ?_grow_capacity@?$ImVector@UImGuiSettingsHandler@@@@QEBAHH@Z 000000014011a790 f i imgui.obj
 0002:00061860       ?_grow_capacity@?$ImVector@UImGuiStackLevelInfo@@@@QEBAHH@Z 000000014011a860 f i imgui.obj
 0002:00061930       ?_grow_capacity@?$ImVector@UImGuiStoragePair@ImGuiStorage@@@@QEBAHH@Z 000000014011a930 f i imgui.obj
 0002:00061a00       ?_grow_capacity@?$ImVector@UImGuiStyleMod@@@@QEBAHH@Z 000000014011aa00 f i imgui.obj
 0002:00061ad0       ?_grow_capacity@?$ImVector@UImGuiTextRange@ImGuiTextFilter@@@@QEBAHH@Z 000000014011aad0 f i imgui.obj
 0002:00061ba0       ?_grow_capacity@?$ImVector@UImGuiWindowStackData@@@@QEBAHH@Z 000000014011aba0 f i imgui.obj
 0002:00061c70       ?_grow_capacity@?$ImVector@UImVec2@@@@QEBAHH@Z 000000014011ac70 f i imgui.obj
 0002:00061d40       ?_grow_capacity@?$ImVector@_W@@QEBAHH@Z 000000014011ad40 f i imgui.obj
 0002:00061e10       ?alloc_chunk@?$ImChunkStream@UImGuiWindowSettings@@@@QEAAPEAUImGuiWindowSettings@@_K@Z 000000014011ae10 f i imgui.obj
 0002:00061f10       ?append@ImGuiTextBuffer@@QEAAXPEBD0@Z 000000014011af10 f   imgui.obj
 0002:00062100       ?append@ImGuiTextIndex@@QEAAXPEBDHH@Z 000000014011b100 f   imgui.obj
 0002:00062310       ?appendf@ImGuiTextBuffer@@QEAAXPEBDZZ 000000014011b310 f   imgui.obj
 0002:000623e0       ?appendfv@ImGuiTextBuffer@@QEAAXPEBDPEAD@Z 000000014011b3e0 f   imgui.obj
 0002:000625c0       ?back@?$ImVector@H@@QEAAAEAHXZ 000000014011b5c0 f i imgui.obj
 0002:00062660       ?back@?$ImVector@I@@QEAAAEAIXZ 000000014011b660 f i imgui.obj
 0002:00062700       ?back@?$ImVector@M@@QEAAAEAMXZ 000000014011b700 f i imgui.obj
 0002:000627a0       ?back@?$ImVector@PEAUImFont@@@@QEAAAEAPEAUImFont@@XZ 000000014011b7a0 f i imgui.obj
 0002:00062840       ?back@?$ImVector@PEAUImGuiWindow@@@@QEAAAEAPEAUImGuiWindow@@XZ 000000014011b840 f i imgui.obj
 0002:000628e0       ?back@?$ImVector@UImDrawCmd@@@@QEAAAEAUImDrawCmd@@XZ 000000014011b8e0 f i imgui.obj
 0002:00062980       ?back@?$ImVector@UImDrawCmd@@@@QEBAAEBUImDrawCmd@@XZ 000000014011b980 f i imgui.obj
 0002:00062a20       ?back@?$ImVector@UImGuiColorMod@@@@QEAAAEAUImGuiColorMod@@XZ 000000014011ba20 f i imgui.obj
 0002:00062ac0       ?back@?$ImVector@UImGuiContextHook@@@@QEAAAEAUImGuiContextHook@@XZ 000000014011bac0 f i imgui.obj
 0002:00062b60       ?back@?$ImVector@UImGuiGroupData@@@@QEAAAEAUImGuiGroupData@@XZ 000000014011bb60 f i imgui.obj
 0002:00062c00       ?back@?$ImVector@UImGuiPopupData@@@@QEAAAEAUImGuiPopupData@@XZ 000000014011bc00 f i imgui.obj
 0002:00062ca0       ?back@?$ImVector@UImGuiStyleMod@@@@QEAAAEAUImGuiStyleMod@@XZ 000000014011bca0 f i imgui.obj
 0002:00062d40       ?back@?$ImVector@UImGuiWindowStackData@@@@QEAAAEAUImGuiWindowStackData@@XZ 000000014011bd40 f i imgui.obj
 0002:00062de0       ?back@?$ImVector@UImVec4@@@@QEAAAEAUImVec4@@XZ 000000014011bde0 f i imgui.obj
 0002:00062e80       ?begin@?$ImChunkStream@UImGuiTableSettings@@@@QEAAPEAUImGuiTableSettings@@XZ 000000014011be80 f i imgui.obj
 0002:00062f00       ?begin@?$ImChunkStream@UImGuiWindowSettings@@@@QEAAPEAUImGuiWindowSettings@@XZ 000000014011bf00 f i imgui.obj
 0002:00062f80       ?begin@?$ImVector@UImDrawCmd@@@@QEBAPEBUImDrawCmd@@XZ 000000014011bf80 f i imgui.obj
 0002:00062fd0       ?begin@ImGuiTextBuffer@@QEBAPEBDXZ 000000014011bfd0 f i imgui.obj
 0002:00063060       ?c_str@ImGuiTextBuffer@@QEBAPEBDXZ 000000014011c060 f i imgui.obj
 0002:000630f0       ?chunk_size@?$ImChunkStream@UImGuiTableSettings@@@@QEAAHPEBUImGuiTableSettings@@@Z 000000014011c0f0 f i imgui.obj
 0002:00063150       ?chunk_size@?$ImChunkStream@UImGuiWindowSettings@@@@QEAAHPEBUImGuiWindowSettings@@@Z 000000014011c150 f i imgui.obj
 0002:000631b0       ?clear@?$ImChunkStream@UImGuiWindowSettings@@@@QEAAXXZ 000000014011c1b0 f i imgui.obj
 0002:00063210       ?clear@?$ImVector@D@@QEAAXXZ 000000014011c210 f i imgui.obj
 0002:000632b0       ?clear@?$ImVector@E@@QEAAXXZ 000000014011c2b0 f i imgui.obj
 0002:00063350       ?clear@?$ImVector@G@@QEAAXXZ 000000014011c350 f i imgui.obj
 0002:000633f0       ?clear@?$ImVector@H@@QEAAXXZ 000000014011c3f0 f i imgui.obj
 0002:00063490       ?clear@?$ImVector@I@@QEAAXXZ 000000014011c490 f i imgui.obj
 0002:00063530       ?clear@?$ImVector@M@@QEAAXXZ 000000014011c530 f i imgui.obj
 0002:000635d0       ?clear@?$ImVector@PEAUImFont@@@@QEAAXXZ 000000014011c5d0 f i imgui.obj
 0002:00063670       ?clear@?$ImVector@PEAUImGuiViewportP@@@@QEAAXXZ 000000014011c670 f i imgui.obj
 0002:00063710       ?clear@?$ImVector@PEAUImGuiWindow@@@@QEAAXXZ 000000014011c710 f i imgui.obj
 0002:000637b0       ?clear@?$ImVector@UImDrawChannel@@@@QEAAXXZ 000000014011c7b0 f i imgui.obj
 0002:00063850       ?clear@?$ImVector@UImGuiColorMod@@@@QEAAXXZ 000000014011c850 f i imgui.obj
 0002:000638f0       ?clear@?$ImVector@UImGuiGroupData@@@@QEAAXXZ 000000014011c8f0 f i imgui.obj
 0002:00063990       ?clear@?$ImVector@UImGuiKeyRoutingData@@@@QEAAXXZ 000000014011c990 f i imgui.obj
 0002:00063a30       ?clear@?$ImVector@UImGuiListClipperData@@@@QEAAXXZ 000000014011ca30 f i imgui.obj
 0002:00063ad0       ?clear@?$ImVector@UImGuiOldColumns@@@@QEAAXXZ 000000014011cad0 f i imgui.obj
 0002:00063b70       ?clear@?$ImVector@UImGuiPopupData@@@@QEAAXXZ 000000014011cb70 f i imgui.obj
 0002:00063c10       ?clear@?$ImVector@UImGuiPtrOrIndex@@@@QEAAXXZ 000000014011cc10 f i imgui.obj
 0002:00063cb0       ?clear@?$ImVector@UImGuiSettingsHandler@@@@QEAAXXZ 000000014011ccb0 f i imgui.obj
 0002:00063d50       ?clear@?$ImVector@UImGuiShrinkWidthItem@@@@QEAAXXZ 000000014011cd50 f i imgui.obj
 0002:00063df0       ?clear@?$ImVector@UImGuiStoragePair@ImGuiStorage@@@@QEAAXXZ 000000014011cdf0 f i imgui.obj
 0002:00063e90       ?clear@?$ImVector@UImGuiStyleMod@@@@QEAAXXZ 000000014011ce90 f i imgui.obj
 0002:00063f30       ?clear@?$ImVector@UImGuiTabBar@@@@QEAAXXZ 000000014011cf30 f i imgui.obj
 0002:00063fd0       ?clear@?$ImVector@UImGuiTable@@@@QEAAXXZ 000000014011cfd0 f i imgui.obj
 0002:00064070       ?clear@?$ImVector@UImGuiTableTempData@@@@QEAAXXZ 000000014011d070 f i imgui.obj
 0002:00064110       ?clear@?$ImVector@UImGuiWindowStackData@@@@QEAAXXZ 000000014011d110 f i imgui.obj
 0002:000641b0       ?clear@?$ImVector@UImVec2@@@@QEAAXXZ 000000014011d1b0 f i imgui.obj
 0002:00064250       ?clear@ImGuiTextBuffer@@QEAAXXZ 000000014011d250 f i imgui.obj
 0002:000642b0       ?clear@ImGuiTextIndex@@QEAAXXZ 000000014011d2b0 f i imgui.obj
 0002:00064320       ?clear_delete@?$ImVector@PEAUImGuiViewportP@@@@QEAAXXZ 000000014011d320 f i imgui.obj
 0002:000643c0       ?clear_delete@?$ImVector@PEAUImGuiWindow@@@@QEAAXXZ 000000014011d3c0 f i imgui.obj
 0002:00064460       ?clear_destruct@?$ImVector@UImGuiListClipperData@@@@QEAAXXZ 000000014011d460 f i imgui.obj
 0002:00064500       ?clear_destruct@?$ImVector@UImGuiOldColumns@@@@QEAAXXZ 000000014011d500 f i imgui.obj
 0002:000645b0       ?clear_destruct@?$ImVector@UImGuiTableTempData@@@@QEAAXXZ 000000014011d5b0 f i imgui.obj
 0002:00064650       ?contains@?$ImVector@PEAUImGuiWindow@@@@QEBA_NAEBQEAUImGuiWindow@@@Z 000000014011d650 f i imgui.obj
 0002:00064760       ?empty@?$ImChunkStream@UImGuiWindowSettings@@@@QEBA_NXZ 000000014011d760 f i imgui.obj
 0002:000647e0       ?empty@?$ImVector@PEAUImDrawList@@@@QEBA_NXZ 000000014011d7e0 f i imgui.obj
 0002:00064860       ?empty@?$ImVector@PEAUImFont@@@@QEBA_NXZ 000000014011d860 f i imgui.obj
 0002:000648e0       ?empty@?$ImVector@UImGuiTextRange@ImGuiTextFilter@@@@QEBA_NXZ 000000014011d8e0 f i imgui.obj
 0002:00064960       ?empty@?$ImVector@UImGuiWindowStackData@@@@QEBA_NXZ 000000014011d960 f i imgui.obj
 0002:000649e0       ?empty@ImGuiTextBuffer@@QEBA_NXZ 000000014011d9e0 f i imgui.obj
 0002:00064a60       ?empty@ImGuiTextRange@ImGuiTextFilter@@QEBA_NXZ 000000014011da60 f i imgui.obj
 0002:00064ae0       ?end@?$ImChunkStream@UImGuiTableSettings@@@@QEAAPEAUImGuiTableSettings@@XZ 000000014011dae0 f i imgui.obj
 0002:00064b40       ?end@?$ImChunkStream@UImGuiWindowSettings@@@@QEAAPEAUImGuiWindowSettings@@XZ 000000014011db40 f i imgui.obj
 0002:00064ba0       ?end@?$ImVector@UImGuiStoragePair@ImGuiStorage@@@@QEAAPEAUImGuiStoragePair@ImGuiStorage@@XZ 000000014011dba0 f i imgui.obj
 0002:00064c00       ?end@?$ImVector@UImGuiStoragePair@ImGuiStorage@@@@QEBAPEBUImGuiStoragePair@ImGuiStorage@@XZ 000000014011dc00 f i imgui.obj
 0002:00064c60       ?erase@?$ImVector@PEAUImGuiWindow@@@@QEAAPEAPEAUImGuiWindow@@PEBQEAU2@@Z 000000014011dc60 f i imgui.obj
 0002:00064de0       ?erase@?$ImVector@UImGuiContextHook@@@@QEAAPEAUImGuiContextHook@@PEBU2@@Z 000000014011dde0 f i imgui.obj
 0002:00064f50       ?erase@?$ImVector@UImGuiInputEvent@@@@QEAAPEAUImGuiInputEvent@@PEBU2@0@Z 000000014011df50 f i imgui.obj
 0002:00065150       ?erase@?$ImVector@UImGuiListClipperRange@@@@QEAAPEAUImGuiListClipperRange@@PEBU2@@Z 000000014011e150 f i imgui.obj
 0002:000652d0       ?erase@?$ImVector@UImGuiSettingsHandler@@@@QEAAPEAUImGuiSettingsHandler@@PEBU2@@Z 000000014011e2d0 f i imgui.obj
 0002:00065450       ?find@?$ImVector@PEAUImGuiWindow@@@@QEAAPEAPEAUImGuiWindow@@AEBQEAU2@@Z 000000014011e450 f i imgui.obj
 0002:00065510       ?front@?$ImVector@D@@QEBAAEBDXZ 000000014011e510 f i imgui.obj
 0002:000655a0       ?get_line_begin@ImGuiTextIndex@@QEAAPEBDPEBDH@Z 000000014011e5a0 f i imgui.obj
 0002:00065620       ?get_line_end@ImGuiTextIndex@@QEAAPEBDPEBDH@Z 000000014011e620 f i imgui.obj
 0002:000656e0       ?index_from_ptr@?$ImVector@PEAUImGuiWindow@@@@QEBAHPEBQEAUImGuiWindow@@@Z 000000014011e6e0 f i imgui.obj
 0002:000657c0       ?insert@?$ImVector@PEAUImGuiWindow@@@@QEAAPEAPEAUImGuiWindow@@PEBQEAU2@AEBQEAU2@@Z 000000014011e7c0 f i imgui.obj
 0002:000659d0       ?insert@?$ImVector@UImDrawCmd@@@@QEAAPEAUImDrawCmd@@PEBU2@AEBU2@@Z 000000014011e9d0 f i imgui.obj
 0002:00065be0       ?insert@?$ImVector@UImGuiListClipperRange@@@@QEAAPEAUImGuiListClipperRange@@PEBU2@AEBU2@@Z 000000014011ebe0 f i imgui.obj
 0002:00065df0       ?insert@?$ImVector@UImGuiStoragePair@ImGuiStorage@@@@QEAAPEAUImGuiStoragePair@ImGuiStorage@@PEBU23@AEBU23@@Z 000000014011edf0 f i imgui.obj
 0002:00065ff0       ?next_chunk@?$ImChunkStream@UImGuiTableSettings@@@@QEAAPEAUImGuiTableSettings@@PEAU2@@Z 000000014011eff0 f i imgui.obj
 0002:00066140       ?next_chunk@?$ImChunkStream@UImGuiWindowSettings@@@@QEAAPEAUImGuiWindowSettings@@PEAU2@@Z 000000014011f140 f i imgui.obj
 0002:00066290       ?offset_from_ptr@?$ImChunkStream@UImGuiWindowSettings@@@@QEAAHPEBUImGuiWindowSettings@@@Z 000000014011f290 f i imgui.obj
 0002:00066360       ?pop_back@?$ImVector@H@@QEAAXXZ 000000014011f360 f i imgui.obj
 0002:000663f0       ?pop_back@?$ImVector@I@@QEAAXXZ 000000014011f3f0 f i imgui.obj
 0002:00066480       ?pop_back@?$ImVector@M@@QEAAXXZ 000000014011f480 f i imgui.obj
 0002:00066510       ?pop_back@?$ImVector@PEAUImFont@@@@QEAAXXZ 000000014011f510 f i imgui.obj
 0002:000665a0       ?pop_back@?$ImVector@UImDrawCmd@@@@QEAAXXZ 000000014011f5a0 f i imgui.obj
 0002:00066630       ?pop_back@?$ImVector@UImGuiColorMod@@@@QEAAXXZ 000000014011f630 f i imgui.obj
 0002:000666c0       ?pop_back@?$ImVector@UImGuiGroupData@@@@QEAAXXZ 000000014011f6c0 f i imgui.obj
 0002:00066750       ?pop_back@?$ImVector@UImGuiPopupData@@@@QEAAXXZ 000000014011f750 f i imgui.obj
 0002:000667e0       ?pop_back@?$ImVector@UImGuiStyleMod@@@@QEAAXXZ 000000014011f7e0 f i imgui.obj
 0002:00066870       ?pop_back@?$ImVector@UImGuiWindowStackData@@@@QEAAXXZ 000000014011f870 f i imgui.obj
 0002:00066900       ?ptr_from_offset@?$ImChunkStream@UImGuiWindowSettings@@@@QEAAPEAUImGuiWindowSettings@@H@Z 000000014011f900 f i imgui.obj
 0002:000669a0       ?push_back@?$ImVector@D@@QEAAXAEBD@Z 000000014011f9a0 f i imgui.obj
 0002:00066a90       ?push_back@?$ImVector@G@@QEAAXAEBG@Z 000000014011fa90 f i imgui.obj
 0002:00066b80       ?push_back@?$ImVector@H@@QEAAXAEBH@Z 000000014011fb80 f i imgui.obj
 0002:00066c70       ?push_back@?$ImVector@I@@QEAAXAEBI@Z 000000014011fc70 f i imgui.obj
 0002:00066d60       ?push_back@?$ImVector@M@@QEAAXAEBM@Z 000000014011fd60 f i imgui.obj
 0002:00066e50       ?push_back@?$ImVector@PEAUImDrawList@@@@QEAAXAEBQEAUImDrawList@@@Z 000000014011fe50 f i imgui.obj
 0002:00066f40       ?push_back@?$ImVector@PEAUImFont@@@@QEAAXAEBQEAUImFont@@@Z 000000014011ff40 f i imgui.obj
 0002:00067030       ?push_back@?$ImVector@PEAUImGuiViewportP@@@@QEAAXAEBQEAUImGuiViewportP@@@Z 0000000140120030 f i imgui.obj
 0002:00067120       ?push_back@?$ImVector@PEAUImGuiWindow@@@@QEAAXAEBQEAUImGuiWindow@@@Z 0000000140120120 f i imgui.obj
 0002:00067210       ?push_back@?$ImVector@UImDrawCmd@@@@QEAAXAEBUImDrawCmd@@@Z 0000000140120210 f i imgui.obj
 0002:00067300       ?push_back@?$ImVector@UImGuiColorMod@@@@QEAAXAEBUImGuiColorMod@@@Z 0000000140120300 f i imgui.obj
 0002:000673f0       ?push_back@?$ImVector@UImGuiContextHook@@@@QEAAXAEBUImGuiContextHook@@@Z 00000001401203f0 f i imgui.obj
 0002:000674e0       ?push_back@?$ImVector@UImGuiInputEvent@@@@QEAAXAEBUImGuiInputEvent@@@Z 00000001401204e0 f i imgui.obj
 0002:000675d0       ?push_back@?$ImVector@UImGuiKeyRoutingData@@@@QEAAXAEBUImGuiKeyRoutingData@@@Z 00000001401205d0 f i imgui.obj
 0002:000676c0       ?push_back@?$ImVector@UImGuiListClipperRange@@@@QEAAXAEBUImGuiListClipperRange@@@Z 00000001401206c0 f i imgui.obj
 0002:000677b0       ?push_back@?$ImVector@UImGuiPopupData@@@@QEAAXAEBUImGuiPopupData@@@Z 00000001401207b0 f i imgui.obj
 0002:000678a0       ?push_back@?$ImVector@UImGuiSettingsHandler@@@@QEAAXAEBUImGuiSettingsHandler@@@Z 00000001401208a0 f i imgui.obj
 0002:00067990       ?push_back@?$ImVector@UImGuiStyleMod@@@@QEAAXAEBUImGuiStyleMod@@@Z 0000000140120990 f i imgui.obj
 0002:00067a80       ?push_back@?$ImVector@UImGuiTextRange@ImGuiTextFilter@@@@QEAAXAEBUImGuiTextRange@ImGuiTextFilter@@@Z 0000000140120a80 f i imgui.obj
 0002:00067b70       ?push_back@?$ImVector@UImGuiWindowStackData@@@@QEAAXAEBUImGuiWindowStackData@@@Z 0000000140120b70 f i imgui.obj
 0002:00067c60       ?push_back@?$ImVector@UImVec2@@@@QEAAXAEBUImVec2@@@Z 0000000140120c60 f i imgui.obj
 0002:00067d50       ?push_front@?$ImVector@PEAUImGuiWindow@@@@QEAAXAEBQEAUImGuiWindow@@@Z 0000000140120d50 f i imgui.obj
 0002:00067df0       ?push_front@?$ImVector@UImDrawCmd@@@@QEAAXAEBUImDrawCmd@@@Z 0000000140120df0 f i imgui.obj
 0002:00067e90       ?push_front@?$ImVector@UImGuiListClipperRange@@@@QEAAXAEBUImGuiListClipperRange@@@Z 0000000140120e90 f i imgui.obj
 0002:00067f30       ?reserve@?$ImVector@D@@QEAAXH@Z 0000000140120f30 f i imgui.obj
 0002:00068020       ?reserve@?$ImVector@E@@QEAAXH@Z 0000000140121020 f i imgui.obj
 0002:00068110       ?reserve@?$ImVector@G@@QEAAXH@Z 0000000140121110 f i imgui.obj
 0002:00068210       ?reserve@?$ImVector@H@@QEAAXH@Z 0000000140121210 f i imgui.obj
 0002:00068310       ?reserve@?$ImVector@I@@QEAAXH@Z 0000000140121310 f i imgui.obj
 0002:00068410       ?reserve@?$ImVector@M@@QEAAXH@Z 0000000140121410 f i imgui.obj
 0002:00068510       ?reserve@?$ImVector@PEAUImDrawList@@@@QEAAXH@Z 0000000140121510 f i imgui.obj
 0002:00068610       ?reserve@?$ImVector@PEAUImFont@@@@QEAAXH@Z 0000000140121610 f i imgui.obj
 0002:00068710       ?reserve@?$ImVector@PEAUImGuiViewportP@@@@QEAAXH@Z 0000000140121710 f i imgui.obj
 0002:00068810       ?reserve@?$ImVector@PEAUImGuiWindow@@@@QEAAXH@Z 0000000140121810 f i imgui.obj
 0002:00068910       ?reserve@?$ImVector@UImDrawCmd@@@@QEAAXH@Z 0000000140121910 f i imgui.obj
 0002:00068a10       ?reserve@?$ImVector@UImDrawVert@@@@QEAAXH@Z 0000000140121a10 f i imgui.obj
 0002:00068b10       ?reserve@?$ImVector@UImGuiColorMod@@@@QEAAXH@Z 0000000140121b10 f i imgui.obj
 0002:00068c10       ?reserve@?$ImVector@UImGuiContextHook@@@@QEAAXH@Z 0000000140121c10 f i imgui.obj
 0002:00068d10       ?reserve@?$ImVector@UImGuiGroupData@@@@QEAAXH@Z 0000000140121d10 f i imgui.obj
 0002:00068e10       ?reserve@?$ImVector@UImGuiInputEvent@@@@QEAAXH@Z 0000000140121e10 f i imgui.obj
 0002:00068f10       ?reserve@?$ImVector@UImGuiKeyRoutingData@@@@QEAAXH@Z 0000000140121f10 f i imgui.obj
 0002:00069010       ?reserve@?$ImVector@UImGuiListClipperData@@@@QEAAXH@Z 0000000140122010 f i imgui.obj
 0002:00069110       ?reserve@?$ImVector@UImGuiListClipperRange@@@@QEAAXH@Z 0000000140122110 f i imgui.obj
 0002:00069210       ?reserve@?$ImVector@UImGuiPopupData@@@@QEAAXH@Z 0000000140122210 f i imgui.obj
 0002:00069310       ?reserve@?$ImVector@UImGuiSettingsHandler@@@@QEAAXH@Z 0000000140122310 f i imgui.obj
 0002:00069410       ?reserve@?$ImVector@UImGuiStackLevelInfo@@@@QEAAXH@Z 0000000140122410 f i imgui.obj
 0002:00069510       ?reserve@?$ImVector@UImGuiStoragePair@ImGuiStorage@@@@QEAAXH@Z 0000000140122510 f i imgui.obj
 0002:00069610       ?reserve@?$ImVector@UImGuiStyleMod@@@@QEAAXH@Z 0000000140122610 f i imgui.obj
 0002:00069710       ?reserve@?$ImVector@UImGuiTextRange@ImGuiTextFilter@@@@QEAAXH@Z 0000000140122710 f i imgui.obj
 0002:00069810       ?reserve@?$ImVector@UImGuiWindowStackData@@@@QEAAXH@Z 0000000140122810 f i imgui.obj
 0002:00069910       ?reserve@?$ImVector@UImVec2@@@@QEAAXH@Z 0000000140122910 f i imgui.obj
 0002:00069a10       ?reserve@?$ImVector@_W@@QEAAXH@Z 0000000140122a10 f i imgui.obj
 0002:00069b10       ?reserve@ImGuiTextBuffer@@QEAAXH@Z 0000000140122b10 f i imgui.obj
 0002:00069b70       ?resize@?$ImVector@D@@QEAAXH@Z 0000000140122b70 f i imgui.obj
 0002:00069c10       ?resize@?$ImVector@D@@QEAAXHAEBD@Z 0000000140122c10 f i imgui.obj
 0002:00069d30       ?resize@?$ImVector@E@@QEAAXH@Z 0000000140122d30 f i imgui.obj
 0002:00069dd0       ?resize@?$ImVector@G@@QEAAXH@Z 0000000140122dd0 f i imgui.obj
 0002:00069e70       ?resize@?$ImVector@H@@QEAAXH@Z 0000000140122e70 f i imgui.obj
 0002:00069f10       ?resize@?$ImVector@I@@QEAAXH@Z 0000000140122f10 f i imgui.obj
 0002:00069fb0       ?resize@?$ImVector@M@@QEAAXH@Z 0000000140122fb0 f i imgui.obj
 0002:0006a050       ?resize@?$ImVector@PEAUImDrawList@@@@QEAAXH@Z 0000000140123050 f i imgui.obj
 0002:0006a0f0       ?resize@?$ImVector@PEAUImGuiWindow@@@@QEAAXH@Z 00000001401230f0 f i imgui.obj
 0002:0006a190       ?resize@?$ImVector@UImGuiGroupData@@@@QEAAXH@Z 0000000140123190 f i imgui.obj
 0002:0006a230       ?resize@?$ImVector@UImGuiInputEvent@@@@QEAAXH@Z 0000000140123230 f i imgui.obj
 0002:0006a2d0       ?resize@?$ImVector@UImGuiKeyRoutingData@@@@QEAAXH@Z 00000001401232d0 f i imgui.obj
 0002:0006a370       ?resize@?$ImVector@UImGuiListClipperData@@@@QEAAXHAEBUImGuiListClipperData@@@Z 0000000140123370 f i imgui.obj
 0002:0006a480       ?resize@?$ImVector@UImGuiListClipperRange@@@@QEAAXH@Z 0000000140123480 f i imgui.obj
 0002:0006a520       ?resize@?$ImVector@UImGuiPopupData@@@@QEAAXH@Z 0000000140123520 f i imgui.obj
 0002:0006a5c0       ?resize@?$ImVector@UImGuiStackLevelInfo@@@@QEAAXH@Z 00000001401235c0 f i imgui.obj
 0002:0006a660       ?resize@?$ImVector@UImGuiStackLevelInfo@@@@QEAAXHAEBUImGuiStackLevelInfo@@@Z 0000000140123660 f i imgui.obj
 0002:0006a770       ?resize@?$ImVector@UImGuiTextRange@ImGuiTextFilter@@@@QEAAXH@Z 0000000140123770 f i imgui.obj
 0002:0006a810       ?resize@?$ImVector@UImGuiWindowStackData@@@@QEAAXH@Z 0000000140123810 f i imgui.obj
 0002:0006a8b0       ?resize@?$ImVector@_W@@QEAAXH@Z 00000001401238b0 f i imgui.obj
 0002:0006a950       ?size@?$ImChunkStream@UImGuiTableSettings@@@@QEBAHXZ 0000000140123950 f i imgui.obj
 0002:0006a9a0       ?size@?$ImChunkStream@UImGuiWindowSettings@@@@QEBAHXZ 00000001401239a0 f i imgui.obj
 0002:0006a9f0       ?size@ImGuiTextBuffer@@QEBAHXZ 00000001401239f0 f i imgui.obj
 0002:0006aa70       ?size@ImGuiTextIndex@@QEAAHXZ 0000000140123a70 f i imgui.obj
 0002:0006aac0       ?size_in_bytes@?$ImVector@UImGuiStoragePair@ImGuiStorage@@@@QEBAHXZ 0000000140123ac0 f i imgui.obj
 0002:0006ab10       ?split@ImGuiTextRange@ImGuiTextFilter@@QEBAXDPEAU?$ImVector@UImGuiTextRange@ImGuiTextFilter@@@@@Z 0000000140123b10 f   imgui.obj
 0002:0006ac40       ?swap@?$ImVector@PEAUImGuiWindow@@@@QEAAXAEAU1@@Z 0000000140123c40 f i imgui.obj
 0002:0006ad40       ?swap@?$ImVector@UImGuiKeyRoutingData@@@@QEAAXAEAU1@@Z 0000000140123d40 f i imgui.obj
 0002:0006ae40       __local_stdio_printf_options 0000000140123e40 f i imgui.obj
 0002:0006ae80       __local_stdio_scanf_options 0000000140123e80 f i imgui.obj
 0002:0006aec0       _vfprintf_l                0000000140123ec0 f i imgui.obj
 0002:0006af50       _vsnprintf                 0000000140123f50 f i imgui.obj
 0002:0006afe0       _vsnprintf_l               0000000140123fe0 f i imgui.obj
 0002:0006b0c0       _vsscanf_l                 00000001401240c0 f i imgui.obj
 0002:0006b160       fabsf                      0000000140124160 f i imgui.obj
 0002:0006b1b0       printf                     00000001401241b0 f i imgui.obj
 0002:0006b2a0       sscanf                     00000001401242a0 f i imgui.obj
 0002:0006b380       ??0?$ImVector@PEAD@@QEAA@XZ 0000000140124380 f i imgui_demo.obj
 0002:0006b400       ??0?$ImVector@PEAUMyDocument@@@@QEAA@XZ 0000000140124400 f i imgui_demo.obj
 0002:0006b480       ??0?$ImVector@PEBD@@QEAA@XZ 0000000140124480 f i imgui_demo.obj
 0002:0006b500       ??0?$ImVector@UMyDocument@@@@QEAA@XZ 0000000140124500 f i imgui_demo.obj
 0002:0006b580       ??0?$ImVector@UMyItem@?A0x1ed25892@@@@QEAA@XZ 0000000140124580 f i imgui_demo.obj
 0002:0006b600       ??0ExampleAppConsole@@QEAA@XZ 0000000140124600 f i imgui_demo.obj
 0002:0006b860       ??0ExampleAppDocuments@@QEAA@XZ 0000000140124860 f i imgui_demo.obj
 0002:0006bb70       ??0ExampleAppLog@@QEAA@XZ  0000000140124b70 f i imgui_demo.obj
 0002:0006bc40       ??0ImColor@@QEAA@AEBUImVec4@@@Z 0000000140124c40 f i imgui_demo.obj
 0002:0006bcb0       ??0ImColor@@QEAA@MMMM@Z    0000000140124cb0 f i imgui_demo.obj
 0002:0006bd60       ??0MyDocument@@QEAA@PEBD_NAEBUImVec4@@@Z 0000000140124d60 f i imgui_demo.obj
 0002:0006be60       ??1?$ImVector@PEAD@@QEAA@XZ 0000000140124e60 f i imgui_demo.obj
 0002:0006bee0       ??1?$ImVector@PEAUMyDocument@@@@QEAA@XZ 0000000140124ee0 f i imgui_demo.obj
 0002:0006bf60       ??1?$ImVector@PEBD@@QEAA@XZ 0000000140124f60 f i imgui_demo.obj
 0002:0006bfe0       ??1?$ImVector@UMyDocument@@@@QEAA@XZ 0000000140124fe0 f i imgui_demo.obj
 0002:0006c060       ??1?$ImVector@UMyItem@?A0x1ed25892@@@@QEAA@XZ 0000000140125060 f i imgui_demo.obj
 0002:0006c0e0       ??1ExampleAppConsole@@QEAA@XZ 00000001401250e0 f i imgui_demo.obj
 0002:0006c210       ??1ExampleAppDocuments@@QEAA@XZ 0000000140125210 f i imgui_demo.obj
 0002:0006c270       ??1ExampleAppLog@@QEAA@XZ  0000000140125270 f i imgui_demo.obj
 0002:0006c300       ??1ImGuiTextFilter@@QEAA@XZ 0000000140125300 f i imgui_demo.obj
 0002:0006c360       ??A?$ImVector@PEAD@@QEAAAEAPEADH@Z 0000000140125360 f i imgui_demo.obj
 0002:0006c410       ??A?$ImVector@PEAUMyDocument@@@@QEAAAEAPEAUMyDocument@@H@Z 0000000140125410 f i imgui_demo.obj
 0002:0006c4c0       ??A?$ImVector@PEBD@@QEAAAEAPEBDH@Z 00000001401254c0 f i imgui_demo.obj
 0002:0006c570       ??A?$ImVector@UImVec2@@@@QEAAAEAUImVec2@@H@Z 0000000140125570 f i imgui_demo.obj
 0002:0006c620       ??A?$ImVector@UMyDocument@@@@QEAAAEAUMyDocument@@H@Z 0000000140125620 f i imgui_demo.obj
 0002:0006c6d0       ??A?$ImVector@UMyItem@?A0x1ed25892@@@@QEAAAEAUMyItem@?A0x1ed25892@@H@Z 00000001401256d0 f i imgui_demo.obj
 0002:0006c780       ??AImGuiTextBuffer@@QEBADH@Z 0000000140125780 f i imgui_demo.obj
 0002:0006c820       ??BImColor@@QEBA?AUImVec4@@XZ 0000000140125820 f i imgui_demo.obj
 0002:0006c890       ??BImColor@@QEBAIXZ        0000000140125890 f i imgui_demo.obj
 0002:0006c8f0       ?AddLog@ExampleAppConsole@@QEAAXPEBDZZ 00000001401258f0 f i imgui_demo.obj
 0002:0006ca40       ?AddLog@ExampleAppLog@@QEAAXPEBDZZ 0000000140125a40 f i imgui_demo.obj
 0002:0006ccb0       ?Clear@ExampleAppLog@@QEAAXXZ 0000000140125cb0 f i imgui_demo.obj
 0002:0006cd50       ?ClearLog@ExampleAppConsole@@QEAAXXZ 0000000140125d50 f i imgui_demo.obj
 0002:0006d060       ?DisplayContents@MyDocument@@SAXPEAU1@@Z 0000000140126060 f i imgui_demo.obj
 0002:0006d1d0       ?DisplayContextMenu@MyDocument@@SAXPEAU1@@Z 00000001401261d0 f i imgui_demo.obj
 0002:0006d4e0       ?DoForceClose@MyDocument@@QEAAXXZ 00000001401264e0 f i imgui_demo.obj
 0002:0006d540       ?DoOpen@MyDocument@@QEAAXXZ 0000000140126540 f i imgui_demo.obj
 0002:0006d590       ?DoQueueClose@MyDocument@@QEAAXXZ 0000000140126590 f i imgui_demo.obj
 0002:0006d5e0       ?DoSave@MyDocument@@QEAAXXZ 00000001401265e0 f i imgui_demo.obj
 0002:0006d630       ?Draw@ExampleAppConsole@@QEAAXPEBDPEA_N@Z 0000000140126630 f i imgui_demo.obj
 0002:0006de40       ?Draw@ExampleAppLog@@QEAAXPEBDPEA_N@Z 0000000140126e40 f i imgui_demo.obj
 0002:0006eaf0       ?ExecCommand@ExampleAppConsole@@QEAAXPEBD@Z 0000000140127af0 f i imgui_demo.obj
 0002:0006eef0       ?GetDebugName@ImFont@@QEBAPEBDXZ 0000000140127ef0 f i imgui_demo.obj
 0002:0006ef80       ?HSV@ImColor@@SA?AU1@MMMM@Z 0000000140127f80 f i imgui_demo.obj
 0002:0006f140       ?IsActive@ImGuiTextFilter@@QEBA_NXZ 0000000140128140 f i imgui_demo.obj
 0002:0006f990       ?SelectAll@ImGuiInputTextCallbackData@@QEAAXXZ 0000000140128990 f i imgui_demo.obj
 0002:0006fa00       ?ShowAboutWindow@ImGui@@YAXPEA_N@Z 0000000140128a00 f   imgui_demo.obj
 0002:000701f0       ?ShowDemoWindow@ImGui@@YAXPEA_N@Z 00000001401291f0 f   imgui_demo.obj
 0002:00091110       ?ShowFontSelector@ImGui@@YAXPEBD@Z 000000014014a110 f   imgui_demo.obj
 0002:00091510       ?ShowStyleEditor@ImGui@@YAXPEAUImGuiStyle@@@Z 000000014014a510 f   imgui_demo.obj
 0002:00093210       ?ShowStyleSelector@ImGui@@YA_NPEBD@Z 000000014014c210 f   imgui_demo.obj
 0002:000933a0       ?ShowUserGuide@ImGui@@YAXXZ 000000014014c3a0 f   imgui_demo.obj
 0002:00093750       ?Strdup@ExampleAppConsole@@SAPEADPEBD@Z 000000014014c750 f i imgui_demo.obj
 0002:00093830       ?Stricmp@ExampleAppConsole@@SAHPEBD0@Z 000000014014c830 f i imgui_demo.obj
 0002:00093910       ?Strnicmp@ExampleAppConsole@@SAHPEBD0H@Z 000000014014c910 f i imgui_demo.obj
 0002:00093a20       ?Strtrim@ExampleAppConsole@@SAXPEAD@Z 000000014014ca20 f i imgui_demo.obj
 0002:00093ad0       ?TextEditCallback@ExampleAppConsole@@QEAAHPEAUImGuiInputTextCallbackData@@@Z 000000014014cad0 f i imgui_demo.obj
 0002:00094270       ?TextEditCallbackStub@ExampleAppConsole@@SAHPEAUImGuiInputTextCallbackData@@@Z 000000014014d270 f i imgui_demo.obj
 0002:000942e0       ?_grow_capacity@?$ImVector@PEAD@@QEBAHH@Z 000000014014d2e0 f i imgui_demo.obj
 0002:000943b0       ?_grow_capacity@?$ImVector@PEAUMyDocument@@@@QEBAHH@Z 000000014014d3b0 f i imgui_demo.obj
 0002:00094480       ?_grow_capacity@?$ImVector@PEBD@@QEBAHH@Z 000000014014d480 f i imgui_demo.obj
 0002:00094550       ?_grow_capacity@?$ImVector@UMyDocument@@@@QEBAHH@Z 000000014014d550 f i imgui_demo.obj
 0002:00094620       ?_grow_capacity@?$ImVector@UMyItem@?A0x1ed25892@@@@QEBAHH@Z 000000014014d620 f i imgui_demo.obj
 0002:000946f0       ?back@?$ImVector@D@@QEBAAEBDXZ 000000014014d6f0 f i imgui_demo.obj
 0002:00094790       ?back@?$ImVector@UImVec2@@@@QEAAAEAUImVec2@@XZ 000000014014d790 f i imgui_demo.obj
 0002:00094830       ?begin@?$ImVector@D@@QEAAPEADXZ 000000014014d830 f i imgui_demo.obj
 0002:00094880       ?begin@?$ImVector@PEAD@@QEAAPEAPEADXZ 000000014014d880 f i imgui_demo.obj
 0002:000948d0       ?capacity@?$ImVector@D@@QEBAHXZ 000000014014d8d0 f i imgui_demo.obj
 0002:00094920       ?clear@?$ImVector@PEAD@@QEAAXXZ 000000014014d920 f i imgui_demo.obj
 0002:000949c0       ?clear@?$ImVector@PEAUMyDocument@@@@QEAAXXZ 000000014014d9c0 f i imgui_demo.obj
 0002:00094a60       ?contains@?$ImVector@H@@QEBA_NAEBH@Z 000000014014da60 f i imgui_demo.obj
 0002:00094b60       ?empty@?$ImVector@D@@QEBA_NXZ 000000014014db60 f i imgui_demo.obj
 0002:00094be0       ?empty@?$ImVector@PEAUMyDocument@@@@QEBA_NXZ 000000014014dbe0 f i imgui_demo.obj
 0002:00094c60       ?end@ImGuiTextBuffer@@QEBAPEBDXZ 000000014014dc60 f i imgui_demo.obj
 0002:00094cf0       ?erase@?$ImVector@H@@QEAAPEAHPEBH@Z 000000014014dcf0 f i imgui_demo.obj
 0002:00094e70       ?erase@?$ImVector@PEAD@@QEAAPEAPEADPEBQEAD@Z 000000014014de70 f i imgui_demo.obj
 0002:00094ff0       ?erase_unsorted@?$ImVector@H@@QEAAPEAHPEBH@Z 000000014014dff0 f i imgui_demo.obj
 0002:00095170       ?find@?$ImVector@H@@QEAAPEAHAEBH@Z 000000014014e170 f i imgui_demo.obj
 0002:00095230       ?find_erase_unsorted@?$ImVector@H@@QEAA_NAEBH@Z 000000014014e230 f i imgui_demo.obj
 0002:000952e0       ?memchr@@YAPEAXPEAXH_K@Z   000000014014e2e0 f i imgui_demo.obj
 0002:00095360       ?push_back@?$ImVector@PEAD@@QEAAXAEBQEAD@Z 000000014014e360 f i imgui_demo.obj
 0002:00095450       ?push_back@?$ImVector@PEAUMyDocument@@@@QEAAXAEBQEAUMyDocument@@@Z 000000014014e450 f i imgui_demo.obj
 0002:00095540       ?push_back@?$ImVector@PEBD@@QEAAXAEBQEBD@Z 000000014014e540 f i imgui_demo.obj
 0002:00095630       ?push_back@?$ImVector@UMyDocument@@@@QEAAXAEBUMyDocument@@@Z 000000014014e630 f i imgui_demo.obj
 0002:00095720       ?reserve@?$ImVector@PEAD@@QEAAXH@Z 000000014014e720 f i imgui_demo.obj
 0002:00095820       ?reserve@?$ImVector@PEAUMyDocument@@@@QEAAXH@Z 000000014014e820 f i imgui_demo.obj
 0002:00095920       ?reserve@?$ImVector@PEBD@@QEAAXH@Z 000000014014e920 f i imgui_demo.obj
 0002:00095a20       ?reserve@?$ImVector@UMyDocument@@@@QEAAXH@Z 000000014014ea20 f i imgui_demo.obj
 0002:00095b20       ?reserve@?$ImVector@UMyItem@?A0x1ed25892@@@@QEAAXH@Z 000000014014eb20 f i imgui_demo.obj
 0002:00095c20       ?resize@?$ImVector@UImVec2@@@@QEAAXH@Z 000000014014ec20 f i imgui_demo.obj
 0002:00095cc0       ?resize@?$ImVector@UMyItem@?A0x1ed25892@@@@QEAAXHAEBUMyItem@?A0x1ed25892@@@Z 000000014014ecc0 f i imgui_demo.obj
 0002:00095dd0       ?size@?$ImVector@D@@QEBAHXZ 000000014014edd0 f i imgui_demo.obj
 0002:00095e20       ?size@?$ImVector@UImVec2@@@@QEBAHXZ 000000014014ee20 f i imgui_demo.obj
 0002:00095e70       _snprintf                  000000014014ee70 f i imgui_demo.obj
 0002:00095f50       _vsprintf_l                000000014014ef50 f i imgui_demo.obj
 0002:00095fe0       sprintf                    000000014014efe0 f i imgui_demo.obj
 0002:000960c0       ??$IM_DELETE@UImFont@@@@YAXPEAUImFont@@@Z 000000014014f0c0 f i imgui_draw.obj
 0002:00096570       ??0?$ImVector@UImFontAtlasCustomRect@@@@QEAA@XZ 000000014014f570 f i imgui_draw.obj
 0002:000965f0       ??0?$ImVector@UImFontBuildDstData@@@@QEAA@XZ 000000014014f5f0 f i imgui_draw.obj
 0002:00096670       ??0?$ImVector@UImFontBuildSrcData@@@@QEAA@XZ 000000014014f670 f i imgui_draw.obj
 0002:000966f0       ??0?$ImVector@UImFontConfig@@@@QEAA@XZ 000000014014f6f0 f i imgui_draw.obj
 0002:00096770       ??0?$ImVector@UImFontGlyph@@@@QEAA@XZ 000000014014f770 f i imgui_draw.obj
 0002:000967f0       ??0?$ImVector@Ustbrp_rect@@@@QEAA@XZ 000000014014f7f0 f i imgui_draw.obj
 0002:00096870       ??0?$ImVector@Ustbtt_packedchar@@@@QEAA@XZ 000000014014f870 f i imgui_draw.obj
 0002:000968f0       ??0ImDrawChannel@@QEAA@XZ  000000014014f8f0 f i imgui_draw.obj
 0002:00096980       ??0ImDrawCmd@@QEAA@XZ      000000014014f980 f i imgui_draw.obj
 0002:00096a00       ??0ImDrawListSharedData@@QEAA@XZ 000000014014fa00 f   imgui_draw.obj
 0002:00096c00       ??0ImFont@@QEAA@XZ         000000014014fc00 f   imgui_draw.obj
 0002:00096df0       ??0ImFontAtlas@@QEAA@XZ    000000014014fdf0 f   imgui_draw.obj
 0002:00096f50       ??0ImFontAtlasCustomRect@@QEAA@XZ 000000014014ff50 f i imgui_draw.obj
 0002:00097060       ??0ImFontConfig@@QEAA@XZ   0000000140150060 f   imgui_draw.obj
 0002:00097170       ??1?$ImVector@UImFontAtlasCustomRect@@@@QEAA@XZ 0000000140150170 f i imgui_draw.obj
 0002:000971f0       ??1?$ImVector@UImFontBuildDstData@@@@QEAA@XZ 00000001401501f0 f i imgui_draw.obj
 0002:00097270       ??1?$ImVector@UImFontBuildSrcData@@@@QEAA@XZ 0000000140150270 f i imgui_draw.obj
 0002:000972f0       ??1?$ImVector@UImFontConfig@@@@QEAA@XZ 00000001401502f0 f i imgui_draw.obj
 0002:00097370       ??1?$ImVector@UImFontGlyph@@@@QEAA@XZ 0000000140150370 f i imgui_draw.obj
 0002:000973f0       ??1?$ImVector@Ustbrp_rect@@@@QEAA@XZ 00000001401503f0 f i imgui_draw.obj
 0002:00097470       ??1?$ImVector@Ustbtt_packedchar@@@@QEAA@XZ 0000000140150470 f i imgui_draw.obj
 0002:000974f0       ??1ImBitVector@@QEAA@XZ    00000001401504f0 f i imgui_draw.obj
 0002:00097550       ??1ImFont@@QEAA@XZ         0000000140150550 f   imgui_draw.obj
 0002:00097600       ??1ImFontAtlas@@QEAA@XZ    0000000140150600 f   imgui_draw.obj
 0002:00097700       ??1ImFontBuildSrcData@@QEAA@XZ 0000000140150700 f i imgui_draw.obj
 0002:00097780       ??4?$ImVector@G@@QEAAAEAU0@AEBU0@@Z 0000000140150780 f i imgui_draw.obj
 0002:00097840       ??4?$ImVector@UImDrawCmd@@@@QEAAAEAU0@AEBU0@@Z 0000000140150840 f i imgui_draw.obj
 0002:00097910       ??4?$ImVector@UImDrawVert@@@@QEAAAEAU0@AEBU0@@Z 0000000140150910 f i imgui_draw.obj
 0002:000979e0       ??A?$ImVector@I@@QEBAAEBIH@Z 00000001401509e0 f i imgui_draw.obj
 0002:00097a90       ??A?$ImVector@UImDrawChannel@@@@QEAAAEAUImDrawChannel@@H@Z 0000000140150a90 f i imgui_draw.obj
 0002:00097b40       ??A?$ImVector@UImDrawVert@@@@QEAAAEAUImDrawVert@@H@Z 0000000140150b40 f i imgui_draw.obj
 0002:00097bf0       ??A?$ImVector@UImFontAtlasCustomRect@@@@QEAAAEAUImFontAtlasCustomRect@@H@Z 0000000140150bf0 f i imgui_draw.obj
 0002:00097ca0       ??A?$ImVector@UImFontBuildDstData@@@@QEAAAEAUImFontBuildDstData@@H@Z 0000000140150ca0 f i imgui_draw.obj
 0002:00097d50       ??A?$ImVector@UImFontBuildSrcData@@@@QEAAAEAUImFontBuildSrcData@@H@Z 0000000140150d50 f i imgui_draw.obj
 0002:00097e00       ??A?$ImVector@UImFontConfig@@@@QEAAAEAUImFontConfig@@H@Z 0000000140150e00 f i imgui_draw.obj
 0002:00097eb0       ??A?$ImVector@UImFontGlyph@@@@QEAAAEAUImFontGlyph@@H@Z 0000000140150eb0 f i imgui_draw.obj
 0002:00097f60       ??A?$ImVector@Ustbrp_rect@@@@QEAAAEAUstbrp_rect@@H@Z 0000000140150f60 f i imgui_draw.obj
 0002:00098010       ??A?$ImVector@Ustbtt_packedchar@@@@QEAAAEAUstbtt_packedchar@@H@Z 0000000140151010 f i imgui_draw.obj
 0002:000982e0       ??_GImFont@@QEAAPEAXI@Z    00000001401512e0 f i imgui_draw.obj
 0002:00098370       ??_GImFontBuildSrcData@@QEAAPEAXI@Z 0000000140151370 f i imgui_draw.obj
 0002:00098400       ?AddBezierCubic@ImDrawList@@QEAAXAEBUImVec2@@000IMH@Z 0000000140151400 f   imgui_draw.obj
 0002:000984e0       ?AddBezierQuadratic@ImDrawList@@QEAAXAEBUImVec2@@00IMH@Z 00000001401514e0 f   imgui_draw.obj
 0002:000985b0       ?AddCallback@ImDrawList@@QEAAXP6AXPEBU1@PEBUImDrawCmd@@@ZPEAX@Z 00000001401515b0 f   imgui_draw.obj
 0002:000986e0       ?AddChar@ImFontGlyphRangesBuilder@@QEAAXG@Z 00000001401516e0 f i imgui_draw.obj
 0002:00098750       ?AddCircle@ImDrawList@@QEAAXAEBUImVec2@@MIHM@Z 0000000140151750 f   imgui_draw.obj
 0002:00098920       ?AddCircleFilled@ImDrawList@@QEAAXAEBUImVec2@@MIH@Z 0000000140151920 f   imgui_draw.obj
 0002:00098ad0       ?AddConvexPolyFilled@ImDrawList@@QEAAXPEBUImVec2@@HI@Z 0000000140151ad0 f   imgui_draw.obj
 0002:000996e0       ?AddCustomRectFontGlyph@ImFontAtlas@@QEAAHPEAUImFont@@GHHMAEBUImVec2@@@Z 00000001401526e0 f   imgui_draw.obj
 0002:000998d0       ?AddCustomRectRegular@ImFontAtlas@@QEAAHHH@Z 00000001401528d0 f   imgui_draw.obj
 0002:00099a40       ?AddDrawCmd@ImDrawList@@QEAAXXZ 0000000140152a40 f   imgui_draw.obj
 0002:00099b90       ?AddFont@ImFontAtlas@@QEAAPEAUImFont@@PEBUImFontConfig@@@Z 0000000140152b90 f   imgui_draw.obj
 0002:00099f40       ?AddFontDefault@ImFontAtlas@@QEAAPEAUImFont@@PEBUImFontConfig@@@Z 0000000140152f40 f   imgui_draw.obj
 0002:0009a1a0       ?AddFontFromFileTTF@ImFontAtlas@@QEAAPEAUImFont@@PEBDMPEBUImFontConfig@@PEBG@Z 00000001401531a0 f   imgui_draw.obj
 0002:0009a4b0       ?AddFontFromMemoryCompressedBase85TTF@ImFontAtlas@@QEAAPEAUImFont@@PEBDMPEBUImFontConfig@@PEBG@Z 00000001401534b0 f   imgui_draw.obj
 0002:0009a5b0       ?AddFontFromMemoryCompressedTTF@ImFontAtlas@@QEAAPEAUImFont@@PEBXHMPEBUImFontConfig@@PEBG@Z 00000001401535b0 f   imgui_draw.obj
 0002:0009a790       ?AddFontFromMemoryTTF@ImFontAtlas@@QEAAPEAUImFont@@PEAXHMPEBUImFontConfig@@PEBG@Z 0000000140153790 f   imgui_draw.obj
 0002:0009a9c0       ?AddGlyph@ImFont@@QEAAXPEBUImFontConfig@@GMMMMMMMMM@Z 00000001401539c0 f   imgui_draw.obj
 0002:0009ae10       ?AddImage@ImDrawList@@QEAAXPEAXAEBUImVec2@@111I@Z 0000000140153e10 f   imgui_draw.obj
 0002:0009af60       ?AddImageQuad@ImDrawList@@QEAAXPEAXAEBUImVec2@@1111111I@Z 0000000140153f60 f   imgui_draw.obj
 0002:0009b0f0       ?AddImageRounded@ImDrawList@@QEAAXPEAXAEBUImVec2@@111IMH@Z 00000001401540f0 f   imgui_draw.obj
 0002:0009b340       ?AddLine@ImDrawList@@QEAAXAEBUImVec2@@0IM@Z 0000000140154340 f   imgui_draw.obj
 0002:0009b480       ?AddNgon@ImDrawList@@QEAAXAEBUImVec2@@MIHM@Z 0000000140154480 f   imgui_draw.obj
 0002:0009b5b0       ?AddNgonFilled@ImDrawList@@QEAAXAEBUImVec2@@MIH@Z 00000001401545b0 f   imgui_draw.obj
 0002:0009b6c0       ?AddPolyline@ImDrawList@@QEAAXPEBUImVec2@@HIHM@Z 00000001401546c0 f   imgui_draw.obj
 0002:0009e070       ?AddQuad@ImDrawList@@QEAAXAEBUImVec2@@000IM@Z 0000000140157070 f   imgui_draw.obj
 0002:0009e160       ?AddQuadFilled@ImDrawList@@QEAAXAEBUImVec2@@000I@Z 0000000140157160 f   imgui_draw.obj
 0002:0009e240       ?AddRanges@ImFontGlyphRangesBuilder@@QEAAXPEBG@Z 0000000140157240 f   imgui_draw.obj
 0002:0009e330       ?AddRect@ImDrawList@@QEAAXAEBUImVec2@@0IMHM@Z 0000000140157330 f   imgui_draw.obj
 0002:0009e560       ?AddRectFilled@ImDrawList@@QEAAXAEBUImVec2@@0IMH@Z 0000000140157560 f   imgui_draw.obj
 0002:0009e690       ?AddRectFilledMultiColor@ImDrawList@@QEAAXAEBUImVec2@@0IIII@Z 0000000140157690 f   imgui_draw.obj
 0002:0009e930       ?AddRemapChar@ImFont@@QEAAXGG_N@Z 0000000140157930 f   imgui_draw.obj
 0002:0009eb40       ?AddText@ImDrawList@@QEAAXAEBUImVec2@@IPEBD1@Z 0000000140157b40 f   imgui_draw.obj
 0002:0009ec00       ?AddText@ImDrawList@@QEAAXPEBUImFont@@MAEBUImVec2@@IPEBD2MPEBUImVec4@@@Z 0000000140157c00 f   imgui_draw.obj
 0002:0009ef00       ?AddText@ImFontGlyphRangesBuilder@@QEAAXPEBD0@Z 0000000140157f00 f   imgui_draw.obj
 0002:0009f070       ?AddTriangle@ImDrawList@@QEAAXAEBUImVec2@@00IM@Z 0000000140158070 f   imgui_draw.obj
 0002:0009f150       ?AddTriangleFilled@ImDrawList@@QEAAXAEBUImVec2@@00I@Z 0000000140158150 f   imgui_draw.obj
 0002:0009f220       ?Build@ImFontAtlas@@QEAA_NXZ 0000000140158220 f   imgui_draw.obj
 0002:0009f310       ?BuildLookupTable@ImFont@@QEAAXXZ 0000000140158310 f   imgui_draw.obj
 0002:0009fb70       ?BuildRanges@ImFontGlyphRangesBuilder@@QEAAXPEAU?$ImVector@G@@@Z 0000000140158b70 f   imgui_draw.obj
 0002:0009fcc0       ?CalcCustomRectUV@ImFontAtlas@@QEBAXPEBUImFontAtlasCustomRect@@PEAUImVec2@@1@Z 0000000140158cc0 f   imgui_draw.obj
 0002:0009fe90       ?CalcTextSizeA@ImFont@@QEBA?AUImVec2@@MMMPEBD0PEAPEBD@Z 0000000140158e90 f   imgui_draw.obj
 0002:000a0400       ?CalcWordWrapPositionA@ImFont@@QEBAPEBDMPEBD0M@Z 0000000140159400 f   imgui_draw.obj
 0002:000a08e0       ?Clear@ImBitVector@@QEAAXXZ 00000001401598e0 f i imgui_draw.obj
 0002:000a0910       ?Clear@ImDrawListSplitter@@QEAAXXZ 0000000140159910 f i imgui_draw.obj
 0002:000a0970       ?Clear@ImFontAtlas@@QEAAXXZ 0000000140159970 f   imgui_draw.obj
 0002:000a09e0       ?ClearFonts@ImFontAtlas@@QEAAXXZ 00000001401599e0 f   imgui_draw.obj
 0002:000a0aa0       ?ClearFreeMemory@ImDrawListSplitter@@QEAAXXZ 0000000140159aa0 f   imgui_draw.obj
 0002:000a0be0       ?ClearInputData@ImFontAtlas@@QEAAXXZ 0000000140159be0 f   imgui_draw.obj
 0002:000a0e90       ?ClearOutputData@ImFont@@QEAAXXZ 0000000140159e90 f   imgui_draw.obj
 0002:000a0fb0       ?ClearTexData@ImFontAtlas@@QEAAXXZ 0000000140159fb0 f   imgui_draw.obj
 0002:000a10c0       ?CloneOutput@ImDrawList@@QEBAPEAU1@XZ 000000014015a0c0 f   imgui_draw.obj
 0002:000a1240       ?Create@ImBitVector@@QEAAXH@Z 000000014015a240 f i imgui_draw.obj
 0002:000a12a0       ?DeIndexAllBuffers@ImDrawData@@QEAAXXZ 000000014015a2a0 f   imgui_draw.obj
 0002:000a1840       ?FindGlyph@ImFont@@QEBAPEBUImFontGlyph@@G@Z 000000014015a840 f   imgui_draw.obj
 0002:000a1910       ?FindGlyphNoFallback@ImFont@@QEBAPEBUImFontGlyph@@G@Z 000000014015a910 f   imgui_draw.obj
 0002:000a1ac0       ?GetBit@ImFontGlyphRangesBuilder@@QEBA_N_K@Z 000000014015aac0 f i imgui_draw.obj
 0002:000a1b90       ?GetCustomRectByIndex@ImFontAtlas@@QEAAPEAUImFontAtlasCustomRect@@H@Z 000000014015ab90 f i imgui_draw.obj
 0002:000a1c70       ?GetGlyphRangesChineseFull@ImFontAtlas@@QEAAPEBGXZ 000000014015ac70 f   imgui_draw.obj
 0002:000a1cd0       ?GetGlyphRangesChineseSimplifiedCommon@ImFontAtlas@@QEAAPEBGXZ 000000014015acd0 f   imgui_draw.obj
 0002:000a1da0       ?GetGlyphRangesCyrillic@ImFontAtlas@@QEAAPEBGXZ 000000014015ada0 f   imgui_draw.obj
 0002:000a1e00       ?GetGlyphRangesDefault@ImFontAtlas@@QEAAPEBGXZ 000000014015ae00 f   imgui_draw.obj
 0002:000a1e60       ?GetGlyphRangesGreek@ImFontAtlas@@QEAAPEBGXZ 000000014015ae60 f   imgui_draw.obj
 0002:000a1ec0       ?GetGlyphRangesJapanese@ImFontAtlas@@QEAAPEBGXZ 000000014015aec0 f   imgui_draw.obj
 0002:000a1f90       ?GetGlyphRangesKorean@ImFontAtlas@@QEAAPEBGXZ 000000014015af90 f   imgui_draw.obj
 0002:000a1ff0       ?GetGlyphRangesThai@ImFontAtlas@@QEAAPEBGXZ 000000014015aff0 f   imgui_draw.obj
 0002:000a2050       ?GetGlyphRangesVietnamese@ImFontAtlas@@QEAAPEBGXZ 000000014015b050 f   imgui_draw.obj
 0002:000a20b0       ?GetMouseCursorTexData@ImFontAtlas@@QEAA_NHPEAUImVec2@@0QEAU2@1@Z 000000014015b0b0 f   imgui_draw.obj
 0002:000a2450       ?GetTexDataAsAlpha8@ImFontAtlas@@QEAAXPEAPEAEPEAH11@Z 000000014015b450 f   imgui_draw.obj
 0002:000a2550       ?GetTexDataAsRGBA32@ImFontAtlas@@QEAAXPEAPEAEPEAH11@Z 000000014015b550 f   imgui_draw.obj
 0002:000a2790       ?GrowIndex@ImFont@@QEAAXH@Z 000000014015b790 f   imgui_draw.obj
 0002:000a2990       ?ImBezierCubicCalc@@YA?AUImVec2@@AEBU1@000M@Z 000000014015b990 f   imgui_draw.obj
 0002:000a2b80       ?ImBezierQuadraticCalc@@YA?AUImVec2@@AEBU1@00M@Z 000000014015bb80 f   imgui_draw.obj
 0002:000a2f90       ?ImFontAtlasBuildFinish@@YAXPEAUImFontAtlas@@@Z 000000014015bf90 f   imgui_draw.obj
 0002:000a32e0       ?ImFontAtlasBuildInit@@YAXPEAUImFontAtlas@@@Z 000000014015c2e0 f   imgui_draw.obj
 0002:000a3400       ?ImFontAtlasBuildMultiplyCalcLookupTable@@YAXQEAEM@Z 000000014015c400 f   imgui_draw.obj
 0002:000a34d0       ?ImFontAtlasBuildMultiplyRectAlpha8@@YAXQEBEPEAEHHHHH@Z 000000014015c4d0 f   imgui_draw.obj
 0002:000a35f0       ?ImFontAtlasBuildPackCustomRects@@YAXPEAUImFontAtlas@@PEAX@Z 000000014015c5f0 f   imgui_draw.obj
 0002:000a3a00       ?ImFontAtlasBuildRender32bppRectFromString@@YAXPEAUImFontAtlas@@HHHHPEBDDI@Z 000000014015ca00 f   imgui_draw.obj
 0002:000a3c30       ?ImFontAtlasBuildRender8bppRectFromString@@YAXPEAUImFontAtlas@@HHHHPEBDDE@Z 000000014015cc30 f   imgui_draw.obj
 0002:000a4930       ?ImFontAtlasBuildSetupFont@@YAXPEAUImFontAtlas@@PEAUImFont@@PEAUImFontConfig@@MM@Z 000000014015d930 f   imgui_draw.obj
 0002:000a6660       ?ImFontAtlasGetBuilderForStbTruetype@@YAPEBUImFontBuilderIO@@XZ 000000014015f660 f   imgui_draw.obj
 0002:000a6c10       ?IsGlyphRangeUnused@ImFont@@QEAA_NII@Z 000000014015fc10 f   imgui_draw.obj
 0002:000a6d00       ?IsPacked@ImFontAtlasCustomRect@@QEBA_NXZ 000000014015fd00 f i imgui_draw.obj
 0002:000a6d80       ?Merge@ImDrawListSplitter@@QEAAXPEAUImDrawList@@@Z 000000014015fd80 f   imgui_draw.obj
 0002:000a7440       ?PathArcTo@ImDrawList@@QEAAXAEBUImVec2@@MMMH@Z 0000000140160440 f   imgui_draw.obj
 0002:000a7b10       ?PathArcToFast@ImDrawList@@QEAAXAEBUImVec2@@MHH@Z 0000000140160b10 f   imgui_draw.obj
 0002:000a7c10       ?PathBezierCubicCurveTo@ImDrawList@@QEAAXAEBUImVec2@@00H@Z 0000000140160c10 f   imgui_draw.obj
 0002:000a8420       ?PathBezierQuadraticCurveTo@ImDrawList@@QEAAXAEBUImVec2@@0H@Z 0000000140161420 f   imgui_draw.obj
 0002:000a89c0       ?PathRect@ImDrawList@@QEAAXAEBUImVec2@@0MH@Z 00000001401619c0 f   imgui_draw.obj
 0002:000a8f10       ?PopClipRect@ImDrawList@@QEAAXXZ 0000000140161f10 f   imgui_draw.obj
 0002:000a9010       ?PopTextureID@ImDrawList@@QEAAXXZ 0000000140162010 f   imgui_draw.obj
 0002:000a90e0       ?PrimQuadUV@ImDrawList@@QEAAXAEBUImVec2@@0000000I@Z 00000001401620e0 f   imgui_draw.obj
 0002:000a9470       ?PrimRect@ImDrawList@@QEAAXAEBUImVec2@@0I@Z 0000000140162470 f   imgui_draw.obj
 0002:000a9880       ?PrimRectUV@ImDrawList@@QEAAXAEBUImVec2@@000I@Z 0000000140162880 f   imgui_draw.obj
 0002:000a9cf0       ?PrimReserve@ImDrawList@@QEAAXHH@Z 0000000140162cf0 f   imgui_draw.obj
 0002:000a9ea0       ?PrimUnreserve@ImDrawList@@QEAAXHH@Z 0000000140162ea0 f   imgui_draw.obj
 0002:000a9f90       ?PrimWriteIdx@ImDrawList@@QEAAXG@Z 0000000140162f90 f i imgui_draw.obj
 0002:000aa010       ?PrimWriteVtx@ImDrawList@@QEAAXAEBUImVec2@@0I@Z 0000000140163010 f i imgui_draw.obj
 0002:000aa100       ?PushClipRect@ImDrawList@@QEAAXAEBUImVec2@@0_N@Z 0000000140163100 f   imgui_draw.obj
 0002:000aa300       ?PushClipRectFullScreen@ImDrawList@@QEAAXXZ 0000000140163300 f   imgui_draw.obj
 0002:000aa3e0       ?PushTextureID@ImDrawList@@QEAAXPEAX@Z 00000001401633e0 f   imgui_draw.obj
 0002:000aa480       ?RenderArrow@ImGui@@YAXPEAUImDrawList@@UImVec2@@IHM@Z 0000000140163480 f   imgui_draw.obj
 0002:000aa900       ?RenderArrowPointingAt@ImGui@@YAXPEAUImDrawList@@UImVec2@@1HI@Z 0000000140163900 f   imgui_draw.obj
 0002:000aac90       ?RenderBullet@ImGui@@YAXPEAUImDrawList@@UImVec2@@I@Z 0000000140163c90 f   imgui_draw.obj
 0002:000aad30       ?RenderChar@ImFont@@QEBAXPEAUImDrawList@@MAEBUImVec2@@IG@Z 0000000140163d30 f   imgui_draw.obj
 0002:000aaff0       ?RenderCheckMark@ImGui@@YAXPEAUImDrawList@@UImVec2@@IM@Z 0000000140163ff0 f   imgui_draw.obj
 0002:000ab240       ?RenderColorRectWithAlphaCheckerboard@ImGui@@YAXPEAUImDrawList@@UImVec2@@1IM1MH@Z 0000000140164240 f   imgui_draw.obj
 0002:000ab740       ?RenderRectFilledRangeH@ImGui@@YAXPEAUImDrawList@@AEBUImRect@@IMMM@Z 0000000140164740 f   imgui_draw.obj
 0002:000ac0d0       ?RenderRectFilledWithHole@ImGui@@YAXPEAUImDrawList@@AEBUImRect@@1IM@Z 00000001401650d0 f   imgui_draw.obj
 0002:000ac9a0       ?RenderText@ImFont@@QEBAXPEAUImDrawList@@MAEBUImVec2@@IAEBUImVec4@@PEBD3M_N@Z 00000001401659a0 f   imgui_draw.obj
 0002:000adad0       ?ScaleClipRects@ImDrawData@@QEAAXAEBUImVec2@@@Z 0000000140166ad0 f   imgui_draw.obj
 0002:000adc60       ?SetBit@ImBitVector@@QEAAXH@Z 0000000140166c60 f i imgui_draw.obj
 0002:000adcd0       ?SetBit@ImFontGlyphRangesBuilder@@QEAAX_K@Z 0000000140166cd0 f i imgui_draw.obj
 0002:000adda0       ?SetCircleTessellationMaxError@ImDrawListSharedData@@QEAAXM@Z 0000000140166da0 f   imgui_draw.obj
 0002:000adfd0       ?SetCurrentChannel@ImDrawListSplitter@@QEAAXPEAUImDrawList@@H@Z 0000000140166fd0 f   imgui_draw.obj
 0002:000ae2b0       ?SetGlyphVisible@ImFont@@QEAAXG_N@Z 00000001401672b0 f   imgui_draw.obj
 0002:000ae380       ?ShadeVertsLinearColorGradientKeepAlpha@ImGui@@YAXPEAUImDrawList@@HHUImVec2@@1II@Z 0000000140167380 f   imgui_draw.obj
 0002:000ae6c0       ?ShadeVertsLinearUV@ImGui@@YAXPEAUImDrawList@@HHAEBUImVec2@@111_N@Z 00000001401676c0 f   imgui_draw.obj
 0002:000aea80       ?Split@ImDrawListSplitter@@QEAAXPEAUImDrawList@@H@Z 0000000140167a80 f   imgui_draw.obj
 0002:000aed30       ?StyleColorsClassic@ImGui@@YAXPEAUImGuiStyle@@@Z 0000000140167d30 f   imgui_draw.obj
 0002:000b0140       ?StyleColorsDark@ImGui@@YAXPEAUImGuiStyle@@@Z 0000000140169140 f   imgui_draw.obj
 0002:000b1560       ?StyleColorsLight@ImGui@@YAXPEAUImGuiStyle@@@Z 000000014016a560 f   imgui_draw.obj
 0002:000b2980       ?TestBit@ImBitVector@@QEBA_NH@Z 000000014016b980 f i imgui_draw.obj
 0002:000b2cf0       ?_CalcCircleAutoSegmentCount@ImDrawList@@QEBAHM@Z 000000014016bcf0 f   imgui_draw.obj
 0002:000b2e10       ?_ClearFreeMemory@ImDrawList@@QEAAXXZ 000000014016be10 f   imgui_draw.obj
 0002:000b2f40       ?_OnChangedClipRect@ImDrawList@@QEAAXXZ 000000014016bf40 f   imgui_draw.obj
 0002:000b30f0       ?_OnChangedTextureID@ImDrawList@@QEAAXXZ 000000014016c0f0 f   imgui_draw.obj
 0002:000b3290       ?_OnChangedVtxOffset@ImDrawList@@QEAAXXZ 000000014016c290 f   imgui_draw.obj
 0002:000b3380       ?_PathArcToFastEx@ImDrawList@@QEAAXAEBUImVec2@@MHHH@Z 000000014016c380 f   imgui_draw.obj
 0002:000b39c0       ?_PathArcToN@ImDrawList@@QEAAXAEBUImVec2@@MMMH@Z 000000014016c9c0 f   imgui_draw.obj
 0002:000b3ba0       ?_PopUnusedDrawCmd@ImDrawList@@QEAAXXZ 000000014016cba0 f   imgui_draw.obj
 0002:000b3c50       ?_ResetForNewFrame@ImDrawList@@QEAAXXZ 000000014016cc50 f   imgui_draw.obj
 0002:000b3e00       ?_TryMergeDrawCmds@ImDrawList@@QEAAXXZ 000000014016ce00 f   imgui_draw.obj
 0002:000b3f00       ?_grow_capacity@?$ImVector@PEAX@@QEBAHH@Z 000000014016cf00 f i imgui_draw.obj
 0002:000b3fd0       ?_grow_capacity@?$ImVector@UImDrawChannel@@@@QEBAHH@Z 000000014016cfd0 f i imgui_draw.obj
 0002:000b40a0       ?_grow_capacity@?$ImVector@UImDrawVert@@@@QEBAHH@Z 000000014016d0a0 f i imgui_draw.obj
 0002:000b4170       ?_grow_capacity@?$ImVector@UImFontAtlasCustomRect@@@@QEBAHH@Z 000000014016d170 f i imgui_draw.obj
 0002:000b4240       ?_grow_capacity@?$ImVector@UImFontBuildDstData@@@@QEBAHH@Z 000000014016d240 f i imgui_draw.obj
 0002:000b4310       ?_grow_capacity@?$ImVector@UImFontBuildSrcData@@@@QEBAHH@Z 000000014016d310 f i imgui_draw.obj
 0002:000b43e0       ?_grow_capacity@?$ImVector@UImFontConfig@@@@QEBAHH@Z 000000014016d3e0 f i imgui_draw.obj
 0002:000b44b0       ?_grow_capacity@?$ImVector@UImFontGlyph@@@@QEBAHH@Z 000000014016d4b0 f i imgui_draw.obj
 0002:000b4580       ?_grow_capacity@?$ImVector@UImVec4@@@@QEBAHH@Z 000000014016d580 f i imgui_draw.obj
 0002:000b4650       ?_grow_capacity@?$ImVector@Ustbrp_rect@@@@QEBAHH@Z 000000014016d650 f i imgui_draw.obj
 0002:000b4720       ?_grow_capacity@?$ImVector@Ustbtt_packedchar@@@@QEBAHH@Z 000000014016d720 f i imgui_draw.obj
 0002:000b47f0       ?back@?$ImVector@UImFontConfig@@@@QEAAAEAUImFontConfig@@XZ 000000014016d7f0 f i imgui_draw.obj
 0002:000b4890       ?back@?$ImVector@UImFontGlyph@@@@QEAAAEAUImFontGlyph@@XZ 000000014016d890 f i imgui_draw.obj
 0002:000b4930       ?begin@?$ImVector@I@@QEBAPEBIXZ 000000014016d930 f i imgui_draw.obj
 0002:000b4980       ?clear@?$ImVector@PEAX@@QEAAXXZ 000000014016d980 f i imgui_draw.obj
 0002:000b4a20       ?clear@?$ImVector@UImDrawCmd@@@@QEAAXXZ 000000014016da20 f i imgui_draw.obj
 0002:000b4ac0       ?clear@?$ImVector@UImDrawVert@@@@QEAAXXZ 000000014016dac0 f i imgui_draw.obj
 0002:000b4b60       ?clear@?$ImVector@UImFontAtlasCustomRect@@@@QEAAXXZ 000000014016db60 f i imgui_draw.obj
 0002:000b4c00       ?clear@?$ImVector@UImFontBuildDstData@@@@QEAAXXZ 000000014016dc00 f i imgui_draw.obj
 0002:000b4ca0       ?clear@?$ImVector@UImFontBuildSrcData@@@@QEAAXXZ 000000014016dca0 f i imgui_draw.obj
 0002:000b4d40       ?clear@?$ImVector@UImFontConfig@@@@QEAAXXZ 000000014016dd40 f i imgui_draw.obj
 0002:000b4de0       ?clear@?$ImVector@UImFontGlyph@@@@QEAAXXZ 000000014016dde0 f i imgui_draw.obj
 0002:000b4e80       ?clear@?$ImVector@UImVec4@@@@QEAAXXZ 000000014016de80 f i imgui_draw.obj
 0002:000b4f20       ?clear@?$ImVector@Ustbrp_rect@@@@QEAAXXZ 000000014016df20 f i imgui_draw.obj
 0002:000b4fc0       ?clear_delete@?$ImVector@PEAUImFont@@@@QEAAXXZ 000000014016dfc0 f i imgui_draw.obj
 0002:000b5060       ?clear_destruct@?$ImVector@UImFontBuildSrcData@@@@QEAAXXZ 000000014016e060 f i imgui_draw.obj
 0002:000b5110       ?empty@?$ImVector@G@@QEBA_NXZ 000000014016e110 f i imgui_draw.obj
 0002:000b5190       ?empty@?$ImVector@I@@QEBA_NXZ 000000014016e190 f i imgui_draw.obj
 0002:000b5210       ?end@?$ImVector@I@@QEBAPEBIXZ 000000014016e210 f i imgui_draw.obj
 0002:000b5270       ?erase@?$ImVector@UImDrawCmd@@@@QEAAPEAUImDrawCmd@@PEBU2@@Z 000000014016e270 f i imgui_draw.obj
 0002:000b53f0       ?pop_back@?$ImVector@PEAX@@QEAAXXZ 000000014016e3f0 f i imgui_draw.obj
 0002:000b5480       ?pop_back@?$ImVector@UImVec4@@@@QEAAXXZ 000000014016e480 f i imgui_draw.obj
 0002:000b5510       ?push_back@?$ImVector@PEAX@@QEAAXAEBQEAX@Z 000000014016e510 f i imgui_draw.obj
 0002:000b5600       ?push_back@?$ImVector@UImFontAtlasCustomRect@@@@QEAAXAEBUImFontAtlasCustomRect@@@Z 000000014016e600 f i imgui_draw.obj
 0002:000b56f0       ?push_back@?$ImVector@UImFontConfig@@@@QEAAXAEBUImFontConfig@@@Z 000000014016e6f0 f i imgui_draw.obj
 0002:000b57e0       ?push_back@?$ImVector@UImVec4@@@@QEAAXAEBUImVec4@@@Z 000000014016e7e0 f i imgui_draw.obj
 0002:000b5ab0       ?reserve@?$ImVector@PEAX@@QEAAXH@Z 000000014016eab0 f i imgui_draw.obj
 0002:000b5bb0       ?reserve@?$ImVector@UImDrawChannel@@@@QEAAXH@Z 000000014016ebb0 f i imgui_draw.obj
 0002:000b5cb0       ?reserve@?$ImVector@UImFontAtlasCustomRect@@@@QEAAXH@Z 000000014016ecb0 f i imgui_draw.obj
 0002:000b5db0       ?reserve@?$ImVector@UImFontBuildDstData@@@@QEAAXH@Z 000000014016edb0 f i imgui_draw.obj
 0002:000b5eb0       ?reserve@?$ImVector@UImFontBuildSrcData@@@@QEAAXH@Z 000000014016eeb0 f i imgui_draw.obj
 0002:000b5fb0       ?reserve@?$ImVector@UImFontConfig@@@@QEAAXH@Z 000000014016efb0 f i imgui_draw.obj
 0002:000b60b0       ?reserve@?$ImVector@UImFontGlyph@@@@QEAAXH@Z 000000014016f0b0 f i imgui_draw.obj
 0002:000b61b0       ?reserve@?$ImVector@UImVec4@@@@QEAAXH@Z 000000014016f1b0 f i imgui_draw.obj
 0002:000b62b0       ?reserve@?$ImVector@Ustbrp_rect@@@@QEAAXH@Z 000000014016f2b0 f i imgui_draw.obj
 0002:000b63b0       ?reserve@?$ImVector@Ustbtt_packedchar@@@@QEAAXH@Z 000000014016f3b0 f i imgui_draw.obj
 0002:000b64b0       ?reserve_discard@?$ImVector@UImVec2@@@@QEAAXH@Z 000000014016f4b0 f i imgui_draw.obj
 0002:000b6570       ?resize@?$ImVector@G@@QEAAXHAEBG@Z 000000014016f570 f i imgui_draw.obj
 0002:000b6680       ?resize@?$ImVector@M@@QEAAXHAEBM@Z 000000014016f680 f i imgui_draw.obj
 0002:000b6790       ?resize@?$ImVector@PEAX@@QEAAXH@Z 000000014016f790 f i imgui_draw.obj
 0002:000b6830       ?resize@?$ImVector@UImDrawChannel@@@@QEAAXH@Z 000000014016f830 f i imgui_draw.obj
 0002:000b68d0       ?resize@?$ImVector@UImDrawCmd@@@@QEAAXH@Z 000000014016f8d0 f i imgui_draw.obj
 0002:000b6970       ?resize@?$ImVector@UImDrawVert@@@@QEAAXH@Z 000000014016f970 f i imgui_draw.obj
 0002:000b6a10       ?resize@?$ImVector@UImFontBuildDstData@@@@QEAAXH@Z 000000014016fa10 f i imgui_draw.obj
 0002:000b6ab0       ?resize@?$ImVector@UImFontBuildSrcData@@@@QEAAXH@Z 000000014016fab0 f i imgui_draw.obj
 0002:000b6b50       ?resize@?$ImVector@UImFontGlyph@@@@QEAAXH@Z 000000014016fb50 f i imgui_draw.obj
 0002:000b6bf0       ?resize@?$ImVector@UImVec4@@@@QEAAXH@Z 000000014016fbf0 f i imgui_draw.obj
 0002:000b6c90       ?resize@?$ImVector@Ustbrp_rect@@@@QEAAXH@Z 000000014016fc90 f i imgui_draw.obj
 0002:000b6d30       ?resize@?$ImVector@Ustbtt_packedchar@@@@QEAAXH@Z 000000014016fd30 f i imgui_draw.obj
 0002:000b6dd0       ?shrink@?$ImVector@G@@QEAAXH@Z 000000014016fdd0 f i imgui_draw.obj
 0002:000b6e70       ?shrink@?$ImVector@UImDrawVert@@@@QEAAXH@Z 000000014016fe70 f i imgui_draw.obj
 0002:000b6f10       ?size_in_bytes@?$ImVector@UImFontBuildDstData@@@@QEBAHXZ 000000014016ff10 f i imgui_draw.obj
 0002:000b6f60       ?size_in_bytes@?$ImVector@UImFontBuildSrcData@@@@QEBAHXZ 000000014016ff60 f i imgui_draw.obj
 0002:000b6fb0       ?size_in_bytes@?$ImVector@Ustbrp_rect@@@@QEBAHXZ 000000014016ffb0 f i imgui_draw.obj
 0002:000b7000       ?size_in_bytes@?$ImVector@Ustbtt_packedchar@@@@QEBAHXZ 0000000140170000 f i imgui_draw.obj
 0002:000c5650       ?swap@?$ImVector@UImDrawVert@@@@QEAAXAEAU1@@Z 000000014017e650 f i imgui_draw.obj
 0002:000c8860       ??$IID_PPV_ARGS_Helper@UIDXGIAdapter@@@@YAPEAPEAXPEAPEAUIDXGIAdapter@@@Z 0000000140181860 f i imgui_impl_dx11.obj
 0002:000c88b0       ??$IID_PPV_ARGS_Helper@UIDXGIDevice@@@@YAPEAPEAXPEAPEAUIDXGIDevice@@@Z 00000001401818b0 f i imgui_impl_dx11.obj
 0002:000c8900       ??$IID_PPV_ARGS_Helper@UIDXGIFactory@@@@YAPEAPEAXPEAPEAUIDXGIFactory@@@Z 0000000140181900 f i imgui_impl_dx11.obj
 0002:000c8950       ??$IM_DELETE@UImGui_ImplDX11_Data@@@@YAXPEAUImGui_ImplDX11_Data@@@Z 0000000140181950 f i imgui_impl_dx11.obj
 0002:000c89b0       ??0ImGui_ImplDX11_Data@@QEAA@XZ 00000001401819b0 f i imgui_impl_dx11.obj
 0002:000c8a40       ??A?$ImVector@UImDrawCmd@@@@QEBAAEBUImDrawCmd@@H@Z 0000000140181a40 f i imgui_impl_dx11.obj
 0002:000c8af0       ?GetTexID@ImDrawCmd@@QEBAPEAXXZ 0000000140181af0 f i imgui_impl_dx11.obj
 0002:000c8b40       ?ImGui_ImplDX11_CreateDeviceObjects@@YA_NXZ 0000000140181b40 f   imgui_impl_dx11.obj
 0002:000c9880       ?ImGui_ImplDX11_Init@@YA_NPEAUID3D11Device@@PEAUID3D11DeviceContext@@@Z 0000000140182880 f   imgui_impl_dx11.obj
 0002:000c9bf0       ?ImGui_ImplDX11_InvalidateDeviceObjects@@YAXXZ 0000000140182bf0 f   imgui_impl_dx11.obj
 0002:000c9ec0       ?ImGui_ImplDX11_NewFrame@@YAXXZ 0000000140182ec0 f   imgui_impl_dx11.obj
 0002:000c9f60       ?ImGui_ImplDX11_RenderDrawData@@YAXPEAUImDrawData@@@Z 0000000140182f60 f   imgui_impl_dx11.obj
 0002:000cb6e0       ?ImGui_ImplDX11_Shutdown@@YAXXZ 00000001401846e0 f   imgui_impl_dx11.obj
 0002:000cb820       ?SetTexID@ImFontAtlas@@QEAAXPEAX@Z 0000000140184820 f i imgui_impl_dx11.obj
 0002:000cb880       ??$IM_DELETE@UImGui_ImplWin32_Data@@@@YAXPEAUImGui_ImplWin32_Data@@@Z 0000000140184880 f i imgui_impl_win32.obj
 0002:000cb8e0       ??0ImGui_ImplWin32_Data@@QEAA@XZ 00000001401848e0 f i imgui_impl_win32.obj
 0002:000cba00       ?ImGui_ImplWin32_EnableAlphaCompositing@@YAXPEAX@Z 0000000140184a00 f   imgui_impl_win32.obj
 0002:000cbbc0       ?ImGui_ImplWin32_EnableDpiAwareness@@YAXXZ 0000000140184bc0 f   imgui_impl_win32.obj
 0002:000cbdf0       ?ImGui_ImplWin32_GetDpiScaleForHwnd@@YAMPEAX@Z 0000000140184df0 f   imgui_impl_win32.obj
 0002:000cbe60       ?ImGui_ImplWin32_GetDpiScaleForMonitor@@YAMPEAX@Z 0000000140184e60 f   imgui_impl_win32.obj
 0002:000cc0d0       ?ImGui_ImplWin32_Init@@YA_NPEAX@Z 00000001401850d0 f   imgui_impl_win32.obj
 0002:000cc460       ?ImGui_ImplWin32_NewFrame@@YAXXZ 0000000140185460 f   imgui_impl_win32.obj
 0002:000cc7e0       ?ImGui_ImplWin32_Shutdown@@YAXXZ 00000001401857e0 f   imgui_impl_win32.obj
 0002:000ce4a0       ?ImGui_ImplWin32_WndProcHandler@@YA_JPEAUHWND__@@I_K_J@Z 00000001401874a0 f   imgui_impl_win32.obj
 0002:000cf300       ??$GetSpan@F@?$ImSpanAllocator@$05@@QEAAXHPEAU?$ImSpan@F@@@Z 0000000140188300 f i imgui_tables.obj
 0002:000cf3b0       ??$GetSpan@UImGuiTableCellData@@@?$ImSpanAllocator@$05@@QEAAXHPEAU?$ImSpan@UImGuiTableCellData@@@@@Z 00000001401883b0 f i imgui_tables.obj
 0002:000cf460       ??$GetSpan@UImGuiTableColumn@@@?$ImSpanAllocator@$05@@QEAAXHPEAU?$ImSpan@UImGuiTableColumn@@@@@Z 0000000140188460 f i imgui_tables.obj
 0002:000cf910       ??0?$ImSpan@F@@QEAA@XZ     0000000140188910 f i imgui_tables.obj
 0002:000cf980       ??0?$ImSpan@UImGuiTableCellData@@@@QEAA@XZ 0000000140188980 f i imgui_tables.obj
 0002:000cf9f0       ??0?$ImSpan@UImGuiTableColumn@@@@QEAA@XZ 00000001401889f0 f i imgui_tables.obj
 0002:000cfa60       ??0?$ImSpanAllocator@$05@@QEAA@XZ 0000000140188a60 f i imgui_tables.obj
 0002:000cfad0       ??0?$ImVector@UImGuiOldColumnData@@@@QEAA@XZ 0000000140188ad0 f i imgui_tables.obj
 0002:000cfb50       ??0?$ImVector@UImGuiTableColumnSortSpecs@@@@QEAA@XZ 0000000140188b50 f i imgui_tables.obj
 0002:000cfbd0       ??0?$ImVector@UImGuiTableInstanceData@@@@QEAA@XZ 0000000140188bd0 f i imgui_tables.obj
 0002:000cfc50       ??0ImGuiOldColumnData@@QEAA@XZ 0000000140188c50 f i imgui_tables.obj
 0002:000cfcd0       ??0ImGuiOldColumns@@QEAA@XZ 0000000140188cd0 f i imgui_tables.obj
 0002:000cfdc0       ??0ImGuiTable@@QEAA@XZ     0000000140188dc0 f i imgui_tables.obj
 0002:000d0020       ??0ImGuiTableColumn@@QEAA@XZ 0000000140189020 f i imgui_tables.obj
 0002:000d01a0       ??0ImGuiTableColumnSettings@@QEAA@XZ 00000001401891a0 f i imgui_tables.obj
 0002:000d02a0       ??0ImGuiTableColumnSortSpecs@@QEAA@XZ 00000001401892a0 f i imgui_tables.obj
 0002:000d0310       ??0ImGuiTableInstanceData@@QEAA@XZ 0000000140189310 f i imgui_tables.obj
 0002:000d0390       ??0ImGuiTableSettings@@QEAA@XZ 0000000140189390 f i imgui_tables.obj
 0002:000d0400       ??0ImGuiTableSortSpecs@@QEAA@XZ 0000000140189400 f i imgui_tables.obj
 0002:000d0470       ??0ImGuiTableTempData@@QEAA@XZ 0000000140189470 f i imgui_tables.obj
 0002:000d0620       ??A?$ImSpan@F@@QEAAAEAFH@Z 0000000140189620 f i imgui_tables.obj
 0002:000d06e0       ??A?$ImSpan@UImGuiTableCellData@@@@QEAAAEAUImGuiTableCellData@@H@Z 00000001401896e0 f i imgui_tables.obj
 0002:000d07a0       ??A?$ImSpan@UImGuiTableColumn@@@@QEBAAEBUImGuiTableColumn@@H@Z 00000001401897a0 f i imgui_tables.obj
 0002:000d0860       ??A?$ImVector@D@@QEBAAEBDH@Z 0000000140189860 f i imgui_tables.obj
 0002:000d0980       ?Add@?$ImPool@UImGuiTable@@@@QEAAPEAUImGuiTable@@XZ 0000000140189980 f i imgui_tables.obj
 0002:000d0b30       ?BeginColumns@ImGui@@YAXPEBDHH@Z 0000000140189b30 f   imgui_tables.obj
 0002:000d1390       ?BeginTable@ImGui@@YA_NPEBDHHAEBUImVec2@@M@Z 000000014018a390 f   imgui_tables.obj
 0002:000d1440       ?BeginTableEx@ImGui@@YA_NPEBDIHHAEBUImVec2@@M@Z 000000014018a440 f   imgui_tables.obj
 0002:000d2e60       ?Columns@ImGui@@YAXHPEBD_N@Z 000000014018be60 f   imgui_tables.obj
 0002:000d2fa0       ?DebugNodeTable@ImGui@@YAXPEAUImGuiTable@@@Z 000000014018bfa0 f   imgui_tables.obj
 0002:000d3fe0       ?DebugNodeTableSettings@ImGui@@YAXPEAUImGuiTableSettings@@@Z 000000014018cfe0 f   imgui_tables.obj
 0002:000d4280       ?EndColumns@ImGui@@YAXXZ   000000014018d280 f   imgui_tables.obj
 0002:000d49a0       ?EndTable@ImGui@@YAXXZ     000000014018d9a0 f   imgui_tables.obj
 0002:000d5dc0       ?FindOrCreateColumns@ImGui@@YAPEAUImGuiOldColumns@@PEAUImGuiWindow@@I@Z 000000014018edc0 f   imgui_tables.obj
 0002:000d5f20       ?GetArenaSizeInBytes@?$ImSpanAllocator@$05@@QEAAHXZ 000000014018ef20 f i imgui_tables.obj
 0002:000d5f70       ?GetByKey@?$ImPool@UImGuiTable@@@@QEAAPEAUImGuiTable@@I@Z 000000014018ef70 f i imgui_tables.obj
 0002:000d6020       ?GetColumnIndex@ImGui@@YAHXZ 000000014018f020 f   imgui_tables.obj
 0002:000d60a0       ?GetColumnNormFromOffset@ImGui@@YAMPEBUImGuiOldColumns@@M@Z 000000014018f0a0 f   imgui_tables.obj
 0002:000d6120       ?GetColumnOffset@ImGui@@YAMH@Z 000000014018f120 f   imgui_tables.obj
 0002:000d6240       ?GetColumnOffsetFromNorm@ImGui@@YAMPEBUImGuiOldColumns@@M@Z 000000014018f240 f   imgui_tables.obj
 0002:000d62c0       ?GetColumnSettings@ImGuiTableSettings@@QEAAPEAUImGuiTableColumnSettings@@XZ 000000014018f2c0 f i imgui_tables.obj
 0002:000d6310       ?GetColumnWidth@ImGui@@YAMH@Z 000000014018f310 f   imgui_tables.obj
 0002:000d6570       ?GetColumnsCount@ImGui@@YAHXZ 000000014018f570 f   imgui_tables.obj
 0002:000d65f0       ?GetColumnsID@ImGui@@YAIPEBDH@Z 000000014018f5f0 f   imgui_tables.obj
 0002:000d6890       ?GetIndex@?$ImPool@UImGuiTable@@@@QEBAHPEBUImGuiTable@@@Z 000000014018f890 f i imgui_tables.obj
 0002:000d6970       ?GetOrAddByKey@?$ImPool@UImGuiTable@@@@QEAAPEAUImGuiTable@@I@Z 000000014018f970 f i imgui_tables.obj
 0002:000d6a30       ?GetSpanPtrBegin@?$ImSpanAllocator@$05@@QEAAPEAXH@Z 000000014018fa30 f i imgui_tables.obj
 0002:000d6af0       ?GetSpanPtrEnd@?$ImSpanAllocator@$05@@QEAAPEAXH@Z 000000014018faf0 f i imgui_tables.obj
 0002:000d6bd0       ?ImBitArrayClearAllBits@@YAXPEAIH@Z 000000014018fbd0 f i imgui_tables.obj
 0002:000d6c10       ?ImBitArrayClearBit@@YAXPEAIH@Z 000000014018fc10 f i imgui_tables.obj
 0002:000d6c80       ?ImBitArrayGetStorageSizeInBytes@@YA_KH@Z 000000014018fc80 f i imgui_tables.obj
 0002:000d6cb0       ?ImBitArraySetBitRange@@YAXPEAIHH@Z 000000014018fcb0 f i imgui_tables.obj
 0002:000d7120       ?ItemSize@ImGui@@YAXAEBUImRect@@M@Z 0000000140190120 f i imgui_tables.obj
 0002:000d71a0       ?NextColumn@ImGui@@YAXXZ   00000001401901a0 f   imgui_tables.obj
 0002:000d7580       ?PopColumnsBackground@ImGui@@YAXXZ 0000000140190580 f   imgui_tables.obj
 0002:000d7630       ?PushColumnClipRect@ImGui@@YAXH@Z 0000000140190630 f   imgui_tables.obj
 0002:000d76f0       ?PushColumnsBackground@ImGui@@YAXXZ 00000001401906f0 f   imgui_tables.obj
 0002:000d77b0       ?Remove@?$ImPool@UImGuiTable@@@@QEAAXIH@Z 00000001401907b0 f i imgui_tables.obj
 0002:000d78b0       ?Remove@?$ImPool@UImGuiTable@@@@QEAAXIPEBUImGuiTable@@@Z 00000001401908b0 f i imgui_tables.obj
 0002:000d7930       ?Reserve@?$ImSpanAllocator@$05@@QEAAXH_KH@Z 0000000140190930 f i imgui_tables.obj
 0002:000d7a80       ?SetArenaBasePtr@?$ImSpanAllocator@$05@@QEAAXPEAX@Z 0000000140190a80 f i imgui_tables.obj
 0002:000d7ae0       ?SetColumnOffset@ImGui@@YAXHM@Z 0000000140190ae0 f   imgui_tables.obj
 0002:000d7db0       ?SetColumnWidth@ImGui@@YAXHM@Z 0000000140190db0 f   imgui_tables.obj
 0002:000d7ea0       ?SetWindowClipRectBeforeSetChannel@ImGui@@YAXPEAUImGuiWindow@@AEBUImRect@@@Z 0000000140190ea0 f   imgui_tables.obj
 0002:000d7fe0       ?TableBeginApplyRequests@ImGui@@YAXPEAUImGuiTable@@@Z 0000000140190fe0 f   imgui_tables.obj
 0002:000d85e0       ?TableBeginCell@ImGui@@YAXPEAUImGuiTable@@H@Z 00000001401915e0 f   imgui_tables.obj
 0002:000d89a0       ?TableBeginContextMenuPopup@ImGui@@YA_NPEAUImGuiTable@@@Z 00000001401919a0 f   imgui_tables.obj
 0002:000d8a70       ?TableBeginInitMemory@ImGui@@YAXPEAUImGuiTable@@H@Z 0000000140191a70 f   imgui_tables.obj
 0002:000d8d10       ?TableBeginRow@ImGui@@YAXPEAUImGuiTable@@@Z 0000000140191d10 f   imgui_tables.obj
 0002:000d9010       ?TableDrawBorders@ImGui@@YAXPEAUImGuiTable@@@Z 0000000140192010 f   imgui_tables.obj
 0002:000d9b60       ?TableDrawContextMenu@ImGui@@YAXPEAUImGuiTable@@@Z 0000000140192b60 f   imgui_tables.obj
 0002:000da080       ?TableEndCell@ImGui@@YAXPEAUImGuiTable@@@Z 0000000140193080 f   imgui_tables.obj
 0002:000da270       ?TableEndRow@ImGui@@YAXPEAUImGuiTable@@@Z 0000000140193270 f   imgui_tables.obj
 0002:000db210       ?TableFindByID@ImGui@@YAPEAUImGuiTable@@I@Z 0000000140194210 f   imgui_tables.obj
 0002:000db280       ?TableFixColumnSortDirection@ImGui@@YAXPEAUImGuiTable@@PEAUImGuiTableColumn@@@Z 0000000140194280 f   imgui_tables.obj
 0002:000db380       ?TableFixFlags@@YAHHPEAUImGuiWindow@@@Z 0000000140194380 f i imgui_tables.obj
 0002:000db530       ?TableGcCompactSettings@ImGui@@YAXXZ 0000000140194530 f   imgui_tables.obj
 0002:000db760       ?TableGcCompactTransientBuffers@ImGui@@YAXPEAUImGuiTable@@@Z 0000000140194760 f   imgui_tables.obj
 0002:000db900       ?TableGcCompactTransientBuffers@ImGui@@YAXPEAUImGuiTableTempData@@@Z 0000000140194900 f   imgui_tables.obj
 0002:000db980       ?TableGetBoundSettings@ImGui@@YAPEAUImGuiTableSettings@@PEAUImGuiTable@@@Z 0000000140194980 f   imgui_tables.obj
 0002:000dba80       ?TableGetCellBgRect@ImGui@@YA?AUImRect@@PEBUImGuiTable@@H@Z 0000000140194a80 f   imgui_tables.obj
 0002:000dbc60       ?TableGetColumnCount@ImGui@@YAHXZ 0000000140194c60 f   imgui_tables.obj
 0002:000dbce0       ?TableGetColumnFlags@ImGui@@YAHH@Z 0000000140194ce0 f   imgui_tables.obj
 0002:000dbde0       ?TableGetColumnIndex@ImGui@@YAHXZ 0000000140194de0 f   imgui_tables.obj
 0002:000dbe50       ?TableGetColumnName@ImGui@@YAPEBDH@Z 0000000140194e50 f   imgui_tables.obj
 0002:000dbef0       ?TableGetColumnName@ImGui@@YAPEBDPEBUImGuiTable@@H@Z 0000000140194ef0 f   imgui_tables.obj
 0002:000dbfe0       ?TableGetColumnNextSortDirection@ImGui@@YAHPEAUImGuiTableColumn@@@Z 0000000140194fe0 f   imgui_tables.obj
 0002:000dc160       ?TableGetColumnResizeID@ImGui@@YAIPEBUImGuiTable@@HH@Z 0000000140195160 f   imgui_tables.obj
 0002:000dc240       ?TableGetColumnWidthAuto@ImGui@@YAMPEAUImGuiTable@@PEAUImGuiTableColumn@@@Z 0000000140195240 f   imgui_tables.obj
 0002:000dc3b0       ?TableGetHeaderRowHeight@ImGui@@YAMXZ 00000001401953b0 f   imgui_tables.obj
 0002:000dc4d0       ?TableGetHoveredColumn@ImGui@@YAHXZ 00000001401954d0 f   imgui_tables.obj
 0002:000dc540       ?TableGetMaxColumnWidth@ImGui@@YAMPEBUImGuiTable@@H@Z 0000000140195540 f   imgui_tables.obj
 0002:000dc7f0       ?TableGetRowIndex@ImGui@@YAHXZ 00000001401957f0 f   imgui_tables.obj
 0002:000dc860       ?TableGetSortSpecs@ImGui@@YAPEAUImGuiTableSortSpecs@@XZ 0000000140195860 f   imgui_tables.obj
 0002:000dc940       ?TableHeader@ImGui@@YAXPEBD@Z 0000000140195940 f   imgui_tables.obj
 0002:000dd830       ?TableHeadersRow@ImGui@@YAXXZ 0000000140196830 f   imgui_tables.obj
 0002:000ddad0       ?TableLoadSettings@ImGui@@YAXPEAUImGuiTable@@@Z 0000000140196ad0 f   imgui_tables.obj
 0002:000ddfc0       ?TableMergeDrawChannels@ImGui@@YAXPEAUImGuiTable@@@Z 0000000140196fc0 f   imgui_tables.obj
 0002:000def50       ?TableNextColumn@ImGui@@YA_NXZ 0000000140197f50 f   imgui_tables.obj
 0002:000df050       ?TableNextRow@ImGui@@YAXHM@Z 0000000140198050 f   imgui_tables.obj
 0002:000df230       ?TableOpenContextMenu@ImGui@@YAXH@Z 0000000140198230 f   imgui_tables.obj
 0002:000df3a0       ?TablePopBackgroundChannel@ImGui@@YAXXZ 00000001401983a0 f   imgui_tables.obj
 0002:000df480       ?TablePushBackgroundChannel@ImGui@@YAXXZ 0000000140198480 f   imgui_tables.obj
 0002:000df560       ?TableRemove@ImGui@@YAXPEAUImGuiTable@@@Z 0000000140198560 f   imgui_tables.obj
 0002:000df630       ?TableResetSettings@ImGui@@YAXPEAUImGuiTable@@@Z 0000000140198630 f   imgui_tables.obj
 0002:000df6d0       ?TableSaveSettings@ImGui@@YAXPEAUImGuiTable@@@Z 00000001401986d0 f   imgui_tables.obj
 0002:000dfbc0       ?TableSetBgColor@ImGui@@YAXHIH@Z 0000000140198bc0 f   imgui_tables.obj
 0002:000dfee0       ?TableSetColumnEnabled@ImGui@@YAXH_N@Z 0000000140198ee0 f   imgui_tables.obj
 0002:000e0060       ?TableSetColumnIndex@ImGui@@YA_NH@Z 0000000140199060 f   imgui_tables.obj
 0002:000e0170       ?TableSetColumnSortDirection@ImGui@@YAXHH_N@Z 0000000140199170 f   imgui_tables.obj
 0002:000e0450       ?TableSetColumnWidth@ImGui@@YAXHM@Z 0000000140199450 f   imgui_tables.obj
 0002:000e08e0       ?TableSetColumnWidthAutoAll@ImGui@@YAXPEAUImGuiTable@@@Z 00000001401998e0 f   imgui_tables.obj
 0002:000e09b0       ?TableSetColumnWidthAutoSingle@ImGui@@YAXPEAUImGuiTable@@H@Z 00000001401999b0 f   imgui_tables.obj
 0002:000e0a50       ?TableSettingsAddSettingsHandler@ImGui@@YAXXZ 0000000140199a50 f   imgui_tables.obj
 0002:000e0b90       ?TableSettingsCreate@ImGui@@YAPEAUImGuiTableSettings@@IH@Z 0000000140199b90 f   imgui_tables.obj
 0002:000e0c40       ?TableSettingsFindByID@ImGui@@YAPEAUImGuiTableSettings@@I@Z 0000000140199c40 f   imgui_tables.obj
 0002:000e1d00       ?TableSetupColumn@ImGui@@YAXPEBDHMI@Z 000000014019ad00 f   imgui_tables.obj
 0002:000e2740       ?TableSetupDrawChannels@ImGui@@YAXPEAUImGuiTable@@@Z 000000014019b740 f   imgui_tables.obj
 0002:000e2c10       ?TableSetupScrollFreeze@ImGui@@YAXHH@Z 000000014019bc10 f   imgui_tables.obj
 0002:000e3080       ?TableSortSpecsBuild@ImGui@@YAXPEAUImGuiTable@@@Z 000000014019c080 f   imgui_tables.obj
 0002:000e33b0       ?TableSortSpecsSanitize@ImGui@@YAXPEAUImGuiTable@@@Z 000000014019c3b0 f   imgui_tables.obj
 0002:000e39f0       ?TableUpdateBorders@ImGui@@YAXPEAUImGuiTable@@@Z 000000014019c9f0 f   imgui_tables.obj
 0002:000e3fc0       ?TableUpdateColumnsWeightFromWidth@ImGui@@YAXPEAUImGuiTable@@@Z 000000014019cfc0 f   imgui_tables.obj
 0002:000e42b0       ?TableUpdateLayout@ImGui@@YAXPEAUImGuiTable@@@Z 000000014019d2b0 f   imgui_tables.obj
 0002:000e6820       ?_grow_capacity@?$ImVector@UImGuiOldColumnData@@@@QEBAHH@Z 000000014019f820 f i imgui_tables.obj
 0002:000e68f0       ?_grow_capacity@?$ImVector@UImGuiOldColumns@@@@QEBAHH@Z 000000014019f8f0 f i imgui_tables.obj
 0002:000e69c0       ?_grow_capacity@?$ImVector@UImGuiTable@@@@QEBAHH@Z 000000014019f9c0 f i imgui_tables.obj
 0002:000e6a90       ?_grow_capacity@?$ImVector@UImGuiTableColumnSortSpecs@@@@QEBAHH@Z 000000014019fa90 f i imgui_tables.obj
 0002:000e6b60       ?_grow_capacity@?$ImVector@UImGuiTableInstanceData@@@@QEBAHH@Z 000000014019fb60 f i imgui_tables.obj
 0002:000e6c30       ?_grow_capacity@?$ImVector@UImGuiTableTempData@@@@QEBAHH@Z 000000014019fc30 f i imgui_tables.obj
 0002:000e6d00       ?alloc_chunk@?$ImChunkStream@UImGuiTableSettings@@@@QEAAPEAUImGuiTableSettings@@_K@Z 000000014019fd00 f i imgui_tables.obj
 0002:000e6e00       ?back@?$ImVector@UImGuiOldColumns@@@@QEAAAEAUImGuiOldColumns@@XZ 000000014019fe00 f i imgui_tables.obj
 0002:000e6ea0       ?clear@?$ImChunkStream@UImGuiTableSettings@@@@QEAAXXZ 000000014019fea0 f i imgui_tables.obj
 0002:000e6f00       ?clear@?$ImVector@UImGuiTableColumnSortSpecs@@@@QEAAXXZ 000000014019ff00 f i imgui_tables.obj
 0002:000e6fa0       ?index_from_ptr@?$ImSpan@UImGuiTableColumn@@@@QEBAHPEBUImGuiTableColumn@@@Z 000000014019ffa0 f i imgui_tables.obj
 0002:000e7070       ?offset_from_ptr@?$ImChunkStream@UImGuiTableSettings@@@@QEAAHPEBUImGuiTableSettings@@@Z 00000001401a0070 f i imgui_tables.obj
 0002:000e7140       ?ptr_from_offset@?$ImChunkStream@UImGuiTableSettings@@@@QEAAPEAUImGuiTableSettings@@H@Z 00000001401a0140 f i imgui_tables.obj
 0002:000e71e0       ?push_back@?$ImVector@UImGuiOldColumnData@@@@QEAAXAEBUImGuiOldColumnData@@@Z 00000001401a01e0 f i imgui_tables.obj
 0002:000e72d0       ?push_back@?$ImVector@UImGuiOldColumns@@@@QEAAXAEBUImGuiOldColumns@@@Z 00000001401a02d0 f i imgui_tables.obj
 0002:000e73c0       ?push_back@?$ImVector@UImGuiTableInstanceData@@@@QEAAXAEBUImGuiTableInstanceData@@@Z 00000001401a03c0 f i imgui_tables.obj
 0002:000e74b0       ?reserve@?$ImVector@UImGuiOldColumnData@@@@QEAAXH@Z 00000001401a04b0 f i imgui_tables.obj
 0002:000e75b0       ?reserve@?$ImVector@UImGuiOldColumns@@@@QEAAXH@Z 00000001401a05b0 f i imgui_tables.obj
 0002:000e76b0       ?reserve@?$ImVector@UImGuiTable@@@@QEAAXH@Z 00000001401a06b0 f i imgui_tables.obj
 0002:000e77b0       ?reserve@?$ImVector@UImGuiTableColumnSortSpecs@@@@QEAAXH@Z 00000001401a07b0 f i imgui_tables.obj
 0002:000e78b0       ?reserve@?$ImVector@UImGuiTableInstanceData@@@@QEAAXH@Z 00000001401a08b0 f i imgui_tables.obj
 0002:000e79b0       ?reserve@?$ImVector@UImGuiTableTempData@@@@QEAAXH@Z 00000001401a09b0 f i imgui_tables.obj
 0002:000e7ab0       ?resize@?$ImVector@UImGuiOldColumnData@@@@QEAAXH@Z 00000001401a0ab0 f i imgui_tables.obj
 0002:000e7b50       ?resize@?$ImVector@UImGuiTable@@@@QEAAXH@Z 00000001401a0b50 f i imgui_tables.obj
 0002:000e7bf0       ?resize@?$ImVector@UImGuiTableColumnSortSpecs@@@@QEAAXH@Z 00000001401a0bf0 f i imgui_tables.obj
 0002:000e7c90       ?resize@?$ImVector@UImGuiTableTempData@@@@QEAAXHAEBUImGuiTableTempData@@@Z 00000001401a0c90 f i imgui_tables.obj
 0002:000e7da0       ?set@?$ImSpan@F@@QEAAXPEAF0@Z 00000001401a0da0 f i imgui_tables.obj
 0002:000e7e20       ?set@?$ImSpan@UImGuiTableCellData@@@@QEAAXPEAUImGuiTableCellData@@0@Z 00000001401a0e20 f i imgui_tables.obj
 0002:000e7ea0       ?set@?$ImSpan@UImGuiTableColumn@@@@QEAAXPEAUImGuiTableColumn@@0@Z 00000001401a0ea0 f i imgui_tables.obj
 0002:000e7f20       ?size@?$ImSpan@UImGuiTableColumn@@@@QEBAHXZ 00000001401a0f20 f i imgui_tables.obj
 0002:000e7f90       ?swap@?$ImChunkStream@UImGuiTableSettings@@@@QEAAXAEAU1@@Z 00000001401a0f90 f i imgui_tables.obj
 0002:000e8000       ?swap@?$ImVector@D@@QEAAXAEAU1@@Z 00000001401a1000 f i imgui_tables.obj
 0002:000e8100       ??$CheckboxFlagsT@H@ImGui@@YA_NPEBDPEAHH@Z 00000001401a1100 f i imgui_widgets.obj
 0002:000e8320       ??$CheckboxFlagsT@I@ImGui@@YA_NPEBDPEAII@Z 00000001401a1320 f i imgui_widgets.obj
 0002:000e8540       ??$CheckboxFlagsT@_J@ImGui@@YA_NPEBDPEA_J_J@Z 00000001401a1540 f i imgui_widgets.obj
 0002:000e8770       ??$CheckboxFlagsT@_K@ImGui@@YA_NPEBDPEA_K_K@Z 00000001401a1770 f i imgui_widgets.obj
 0002:000e9860       ??$DragBehaviorT@HHM@ImGui@@YA_NHPEAHMHHPEBDH@Z 00000001401a2860 f i imgui_widgets.obj
 0002:000ea2f0       ??$DragBehaviorT@IHM@ImGui@@YA_NHPEAIMIIPEBDH@Z 00000001401a32f0 f i imgui_widgets.obj
 0002:000ead90       ??$DragBehaviorT@MMM@ImGui@@YA_NHPEAMMMMPEBDH@Z 00000001401a3d90 f i imgui_widgets.obj
 0002:000eb850       ??$DragBehaviorT@NNN@ImGui@@YA_NHPEANMNNPEBDH@Z 00000001401a4850 f i imgui_widgets.obj
 0002:000ec350       ??$DragBehaviorT@_J_JN@ImGui@@YA_NHPEA_JM_J1PEBDH@Z 00000001401a5350 f i imgui_widgets.obj
 0002:000ece30       ??$DragBehaviorT@_K_JN@ImGui@@YA_NHPEA_KM_K1PEBDH@Z 00000001401a5e30 f i imgui_widgets.obj
 0002:000efab0       ??$RoundScalarWithFormatT@H@ImGui@@YAHPEBDHH@Z 00000001401a8ab0 f i imgui_widgets.obj
 0002:000efc70       ??$RoundScalarWithFormatT@I@ImGui@@YAIPEBDHI@Z 00000001401a8c70 f i imgui_widgets.obj
 0002:000efe30       ??$RoundScalarWithFormatT@M@ImGui@@YAMPEBDHM@Z 00000001401a8e30 f i imgui_widgets.obj
 0002:000f0010       ??$RoundScalarWithFormatT@N@ImGui@@YANPEBDHN@Z 00000001401a9010 f i imgui_widgets.obj
 0002:000f01f0       ??$RoundScalarWithFormatT@_J@ImGui@@YA_JPEBDH_J@Z 00000001401a91f0 f i imgui_widgets.obj
 0002:000f03c0       ??$RoundScalarWithFormatT@_K@ImGui@@YA_KPEBDH_K@Z 00000001401a93c0 f i imgui_widgets.obj
 0002:000f05d0       ??$ScaleRatioFromValueT@HHM@ImGui@@YAMHHHH_NMM@Z 00000001401a95d0 f i imgui_widgets.obj
 0002:000f0cc0       ??$ScaleRatioFromValueT@IHM@ImGui@@YAMHIII_NMM@Z 00000001401a9cc0 f i imgui_widgets.obj
 0002:000f1400       ??$ScaleRatioFromValueT@MMM@ImGui@@YAMHMMM_NMM@Z 00000001401aa400 f i imgui_widgets.obj
 0002:000f1ae0       ??$ScaleRatioFromValueT@NNN@ImGui@@YAMHNNN_NMM@Z 00000001401aaae0 f i imgui_widgets.obj
 0002:000f2210       ??$ScaleRatioFromValueT@_J_JN@ImGui@@YAMH_J00_NMM@Z 00000001401ab210 f i imgui_widgets.obj
 0002:000f2970       ??$ScaleRatioFromValueT@_K_JN@ImGui@@YAMH_K00_NMM@Z 00000001401ab970 f i imgui_widgets.obj
 0002:000f32c0       ??$ScaleValueFromRatioT@HHM@ImGui@@YAHHMHH_NMM@Z 00000001401ac2c0 f i imgui_widgets.obj
 0002:000f3a20       ??$ScaleValueFromRatioT@IHM@ImGui@@YAIHMII_NMM@Z 00000001401aca20 f i imgui_widgets.obj
 0002:000f41c0       ??$ScaleValueFromRatioT@MMM@ImGui@@YAMHMMM_NMM@Z 00000001401ad1c0 f i imgui_widgets.obj
 0002:000f4920       ??$ScaleValueFromRatioT@NNN@ImGui@@YANHMNN_NMM@Z 00000001401ad920 f i imgui_widgets.obj
 0002:000f50d0       ??$ScaleValueFromRatioT@_J_JN@ImGui@@YA_JHM_J0_NMM@Z 00000001401ae0d0 f i imgui_widgets.obj
 0002:000f58b0       ??$ScaleValueFromRatioT@_K_JN@ImGui@@YA_KHM_K0_NMM@Z 00000001401ae8b0 f i imgui_widgets.obj
 0002:000f62a0       ??$SliderBehaviorT@HHM@ImGui@@YA_NAEBUImRect@@IHPEAHHHPEBDHPEAU1@@Z 00000001401af2a0 f i imgui_widgets.obj
 0002:000f7390       ??$SliderBehaviorT@IHM@ImGui@@YA_NAEBUImRect@@IHPEAIIIPEBDHPEAU1@@Z 00000001401b0390 f i imgui_widgets.obj
 0002:000f8480       ??$SliderBehaviorT@MMM@ImGui@@YA_NAEBUImRect@@IHPEAMMMPEBDHPEAU1@@Z 00000001401b1480 f i imgui_widgets.obj
 0002:000f95b0       ??$SliderBehaviorT@NNN@ImGui@@YA_NAEBUImRect@@IHPEANNNPEBDHPEAU1@@Z 00000001401b25b0 f i imgui_widgets.obj
 0002:000fa6f0       ??$SliderBehaviorT@_J_JN@ImGui@@YA_NAEBUImRect@@IHPEA_J_J2PEBDHPEAU1@@Z 00000001401b36f0 f i imgui_widgets.obj
 0002:000fb800       ??$SliderBehaviorT@_K_JN@ImGui@@YA_NAEBUImRect@@IHPEA_K_K2PEBDHPEAU1@@Z 00000001401b4800 f i imgui_widgets.obj
 0002:000fc910       ??0?$ImVector@UImGuiTabItem@@@@QEAA@XZ 00000001401b5910 f i imgui_widgets.obj
 0002:000fc990       ??0ImGuiInputTextCallbackData@@QEAA@XZ 00000001401b5990 f   imgui_widgets.obj
 0002:000fca00       ??0ImGuiPlotArrayGetterData@@QEAA@PEBMH@Z 00000001401b5a00 f i imgui_widgets.obj
 0002:000fca80       ??0ImGuiPtrOrIndex@@QEAA@H@Z 00000001401b5a80 f i imgui_widgets.obj
 0002:000fcb00       ??0ImGuiPtrOrIndex@@QEAA@PEAX@Z 00000001401b5b00 f i imgui_widgets.obj
 0002:000fcb80       ??0ImGuiTabBar@@QEAA@XZ    00000001401b5b80 f   imgui_widgets.obj
 0002:000fcca0       ??0ImGuiTabBarSection@@QEAA@XZ 00000001401b5ca0 f i imgui_widgets.obj
 0002:000fcd10       ??0ImGuiTabItem@@QEAA@XZ   00000001401b5d10 f i imgui_widgets.obj
 0002:000fcdf0       ??A?$ImVector@G@@QEBAAEBGH@Z 00000001401b5df0 f i imgui_widgets.obj
 0002:000fcea0       ??A?$ImVector@M@@QEBAAEBMH@Z 00000001401b5ea0 f i imgui_widgets.obj
 0002:000fcf50       ??A?$ImVector@UImGuiShrinkWidthItem@@@@QEAAAEAUImGuiShrinkWidthItem@@H@Z 00000001401b5f50 f i imgui_widgets.obj
 0002:000fd220       ?Add@?$ImPool@UImGuiTabBar@@@@QEAAPEAUImGuiTabBar@@XZ 00000001401b6220 f i imgui_widgets.obj
 0002:000fd3d0       ?AlignTextToFramePadding@ImGui@@YAXXZ 00000001401b63d0 f   imgui_widgets.obj
 0002:000fd4c0       ?ArrowButton@ImGui@@YA_NPEBDH@Z 00000001401b64c0 f   imgui_widgets.obj
 0002:000fd550       ?ArrowButtonEx@ImGui@@YA_NPEBDHUImVec2@@H@Z 00000001401b6550 f   imgui_widgets.obj
 0002:000fd940       ?BeginCombo@ImGui@@YA_NPEBD0H@Z 00000001401b6940 f   imgui_widgets.obj
 0002:000fe330       ?BeginComboPopup@ImGui@@YA_NIAEBUImRect@@H@Z 00000001401b7330 f   imgui_widgets.obj
 0002:000fe7e0       ?BeginComboPreview@ImGui@@YA_NXZ 00000001401b77e0 f   imgui_widgets.obj
 0002:000fea20       ?BeginListBox@ImGui@@YA_NPEBDAEBUImVec2@@@Z 00000001401b7a20 f   imgui_widgets.obj
 0002:000fee60       ?BeginMainMenuBar@ImGui@@YA_NXZ 00000001401b7e60 f   imgui_widgets.obj
 0002:000fefa0       ?BeginMenu@ImGui@@YA_NPEBD_N@Z 00000001401b7fa0 f   imgui_widgets.obj
 0002:000ff010       ?BeginMenuBar@ImGui@@YA_NXZ 00000001401b8010 f   imgui_widgets.obj
 0002:000ff310       ?BeginMenuEx@ImGui@@YA_NPEBD0_N@Z 00000001401b8310 f   imgui_widgets.obj
 0002:001004d0       ?BeginTabBar@ImGui@@YA_NPEBDH@Z 00000001401b94d0 f   imgui_widgets.obj
 0002:00100680       ?BeginTabBarEx@ImGui@@YA_NPEAUImGuiTabBar@@AEBUImRect@@H@Z 00000001401b9680 f   imgui_widgets.obj
 0002:00100bb0       ?BeginTabItem@ImGui@@YA_NPEBDPEA_NH@Z 00000001401b9bb0 f   imgui_widgets.obj
 0002:00100d70       ?BeginViewportSideBar@ImGui@@YA_NPEBDPEAUImGuiViewport@@HMH@Z 00000001401b9d70 f   imgui_widgets.obj
 0002:00101130       ?Bullet@ImGui@@YAXXZ       00000001401ba130 f   imgui_widgets.obj
 0002:001013e0       ?BulletText@ImGui@@YAXPEBDZZ 00000001401ba3e0 f   imgui_widgets.obj
 0002:001014b0       ?BulletTextV@ImGui@@YAXPEBDPEAD@Z 00000001401ba4b0 f   imgui_widgets.obj
 0002:00101840       ?Button@ImGui@@YA_NPEBDAEBUImVec2@@@Z 00000001401ba840 f   imgui_widgets.obj
 0002:001018b0       ?ButtonBehavior@ImGui@@YA_NAEBUImRect@@IPEA_N1H@Z 00000001401ba8b0 f   imgui_widgets.obj
 0002:00102660       ?ButtonEx@ImGui@@YA_NPEBDAEBUImVec2@@H@Z 00000001401bb660 f   imgui_widgets.obj
 0002:00102be0       ?CalcNextTotalWidth@ImGuiMenuColumns@@QEAAX_N@Z 00000001401bbbe0 f   imgui_widgets.obj
 0002:00102d60       ?Checkbox@ImGui@@YA_NPEBDPEA_N@Z 00000001401bbd60 f   imgui_widgets.obj
 0002:00103500       ?CheckboxFlags@ImGui@@YA_NPEBDPEAHH@Z 00000001401bc500 f   imgui_widgets.obj
 0002:00103570       ?CheckboxFlags@ImGui@@YA_NPEBDPEAII@Z 00000001401bc570 f   imgui_widgets.obj
 0002:001035e0       ?CheckboxFlags@ImGui@@YA_NPEBDPEA_J_J@Z 00000001401bc5e0 f   imgui_widgets.obj
 0002:00103650       ?CheckboxFlags@ImGui@@YA_NPEBDPEA_K_K@Z 00000001401bc650 f   imgui_widgets.obj
 0002:001036c0       ?ClearFlags@ImGuiNextItemData@@QEAAXXZ 00000001401bc6c0 f i imgui_widgets.obj
 0002:00103710       ?ClearSelection@ImGuiInputTextState@@QEAAXXZ 00000001401bc710 f i imgui_widgets.obj
 0002:00103780       ?CloseButton@ImGui@@YA_NIAEBUImVec2@@@Z 00000001401bc780 f   imgui_widgets.obj
 0002:00103d70       ?CollapseButton@ImGui@@YA_NIAEBUImVec2@@@Z 00000001401bcd70 f   imgui_widgets.obj
 0002:00104110       ?CollapsingHeader@ImGui@@YA_NPEBDH@Z 00000001401bd110 f   imgui_widgets.obj
 0002:001041d0       ?CollapsingHeader@ImGui@@YA_NPEBDPEA_NH@Z 00000001401bd1d0 f   imgui_widgets.obj
 0002:00104490       ?ColorButton@ImGui@@YA_NPEBDAEBUImVec4@@HAEBUImVec2@@@Z 00000001401bd490 f   imgui_widgets.obj
 0002:00104ea0       ?ColorEdit3@ImGui@@YA_NPEBDQEAMH@Z 00000001401bdea0 f   imgui_widgets.obj
 0002:00104f20       ?ColorEdit4@ImGui@@YA_NPEBDQEAMH@Z 00000001401bdf20 f   imgui_widgets.obj
 0002:00106d50       ?ColorEditOptionsPopup@ImGui@@YAXPEBMH@Z 00000001401bfd50 f   imgui_widgets.obj
 0002:001076d0       ?ColorPicker3@ImGui@@YA_NPEBDQEAMH@Z 00000001401c06d0 f   imgui_widgets.obj
 0002:00107890       ?ColorPicker4@ImGui@@YA_NPEBDQEAMHPEBM@Z 00000001401c0890 f   imgui_widgets.obj
 0002:0010aad0       ?ColorPickerOptionsPopup@ImGui@@YAXPEBMH@Z 00000001401c3ad0 f   imgui_widgets.obj
 0002:0010aec0       ?ColorTooltip@ImGui@@YAXPEBDPEBMH@Z 00000001401c3ec0 f   imgui_widgets.obj
 0002:0010b5f0       ?Combo@ImGui@@YA_NPEBDPEAH0H@Z 00000001401c45f0 f   imgui_widgets.obj
 0002:0010b6e0       ?Combo@ImGui@@YA_NPEBDPEAHP6A_NPEAXHPEAPEBD@Z2HH@Z 00000001401c46e0 f   imgui_widgets.obj
 0002:0010b9d0       ?Combo@ImGui@@YA_NPEBDPEAHQEBQEBDHH@Z 00000001401c49d0 f   imgui_widgets.obj
 0002:0010ba70       ?Contains@?$ImPool@UImGuiTabBar@@@@QEBA_NPEBUImGuiTabBar@@@Z 00000001401c4a70 f i imgui_widgets.obj
 0002:0010bb20       ?CursorAnimReset@ImGuiInputTextState@@QEAAXXZ 00000001401c4b20 f i imgui_widgets.obj
 0002:0010bb80       ?CursorClamp@ImGuiInputTextState@@QEAAXXZ 00000001401c4b80 f i imgui_widgets.obj
 0002:0010bc50       ?DataTypeApplyFromText@ImGui@@YA_NPEBDHPEAX0@Z 00000001401c4c50 f   imgui_widgets.obj
 0002:0010bf90       ?DataTypeApplyOp@ImGui@@YAXHHPEAXPEBX1@Z 00000001401c4f90 f   imgui_widgets.obj
 0002:0010c600       ?DataTypeClamp@ImGui@@YA_NHPEAXPEBX1@Z 00000001401c5600 f   imgui_widgets.obj
 0002:0010c870       ?DataTypeCompare@ImGui@@YAHHPEBX0@Z 00000001401c5870 f   imgui_widgets.obj
 0002:0010ca80       ?DataTypeFormatString@ImGui@@YAHPEADHHPEBXPEBD@Z 00000001401c5a80 f   imgui_widgets.obj
 0002:0010cd50       ?DataTypeGetInfo@ImGui@@YAPEBUImGuiDataTypeInfo@@H@Z 00000001401c5d50 f   imgui_widgets.obj
 0002:0010cdf0       ?DebugNodeInputTextState@ImGui@@YAXPEAUImGuiInputTextState@@@Z 00000001401c5df0 f   imgui_widgets.obj
 0002:0010d230       ?DeclColumns@ImGuiMenuColumns@@QEAAMMMMM@Z 00000001401c6230 f   imgui_widgets.obj
 0002:0010d3f0       ?DeleteChars@ImGuiInputTextCallbackData@@QEAAXHH@Z 00000001401c63f0 f   imgui_widgets.obj
 0002:0010d600       ?DragBehavior@ImGui@@YA_NIHPEAXMPEBX1PEBDH@Z 00000001401c6600 f   imgui_widgets.obj
 0002:0010e100       ?DragFloat2@ImGui@@YA_NPEBDQEAMMMM0H@Z 00000001401c7100 f   imgui_widgets.obj
 0002:0010e1d0       ?DragFloat3@ImGui@@YA_NPEBDQEAMMMM0H@Z 00000001401c71d0 f   imgui_widgets.obj
 0002:0010e2a0       ?DragFloat4@ImGui@@YA_NPEBDQEAMMMM0H@Z 00000001401c72a0 f   imgui_widgets.obj
 0002:0010e370       ?DragFloat@ImGui@@YA_NPEBDPEAMMMM0H@Z 00000001401c7370 f   imgui_widgets.obj
 0002:0010e430       ?DragFloatRange2@ImGui@@YA_NPEBDPEAM1MMM00H@Z 00000001401c7430 f   imgui_widgets.obj
 0002:0010e8d0       ?DragInt2@ImGui@@YA_NPEBDQEAHMHH0H@Z 00000001401c78d0 f   imgui_widgets.obj
 0002:0010e9a0       ?DragInt3@ImGui@@YA_NPEBDQEAHMHH0H@Z 00000001401c79a0 f   imgui_widgets.obj
 0002:0010ea70       ?DragInt4@ImGui@@YA_NPEBDQEAHMHH0H@Z 00000001401c7a70 f   imgui_widgets.obj
 0002:0010eb40       ?DragInt@ImGui@@YA_NPEBDPEAHMHH0H@Z 00000001401c7b40 f   imgui_widgets.obj
 0002:0010ec00       ?DragIntRange2@ImGui@@YA_NPEBDPEAH1MHH00H@Z 00000001401c7c00 f   imgui_widgets.obj
 0002:0010efe0       ?DragScalar@ImGui@@YA_NPEBDHPEAXMPEBX20H@Z 00000001401c7fe0 f   imgui_widgets.obj
 0002:0010fad0       ?DragScalarN@ImGui@@YA_NPEBDHPEAXHMPEBX20H@Z 00000001401c8ad0 f   imgui_widgets.obj
 0002:0010fd40       ?Dummy@ImGui@@YAXAEBUImVec2@@@Z 00000001401c8d40 f   imgui_widgets.obj
 0002:0010fe60       ?EndCombo@ImGui@@YAXXZ     00000001401c8e60 f   imgui_widgets.obj
 0002:0010fea0       ?EndComboPreview@ImGui@@YAXXZ 00000001401c8ea0 f   imgui_widgets.obj
 0002:001100b0       ?EndListBox@ImGui@@YAXXZ   00000001401c90b0 f   imgui_widgets.obj
 0002:00110160       ?EndMainMenuBar@ImGui@@YAXXZ 00000001401c9160 f   imgui_widgets.obj
 0002:00110210       ?EndMenu@ImGui@@YAXXZ      00000001401c9210 f   imgui_widgets.obj
 0002:00110360       ?EndMenuBar@ImGui@@YAXXZ   00000001401c9360 f   imgui_widgets.obj
 0002:001106e0       ?EndTabBar@ImGui@@YAXXZ    00000001401c96e0 f   imgui_widgets.obj
 0002:00110990       ?EndTabItem@ImGui@@YAXXZ   00000001401c9990 f   imgui_widgets.obj
 0002:00110ad0       ?GetArea@ImRect@@QEBAMXZ   00000001401c9ad0 f i imgui_widgets.obj
 0002:00110b20       ?GetBuildWorkRect@ImGuiViewportP@@QEBA?AUImRect@@XZ 00000001401c9b20 f i imgui_widgets.obj
 0002:00110c60       ?GetCenter@ImRect@@QEBA?AUImVec2@@XZ 00000001401c9c60 f i imgui_widgets.obj
 0002:00110ce0       ?GetCharAdvance@ImFont@@QEBAMG@Z 00000001401c9ce0 f i imgui_widgets.obj
 0002:00110d90       ?GetIndex@?$ImPool@UImGuiTabBar@@@@QEBAHPEBUImGuiTabBar@@@Z 00000001401c9d90 f i imgui_widgets.obj
 0002:00110e70       ?GetInputTextState@ImGui@@YAPEAUImGuiInputTextState@@I@Z 00000001401c9e70 f i imgui_widgets.obj
 0002:00110fd0       ?GetOrAddByKey@?$ImPool@UImGuiTabBar@@@@QEAAPEAUImGuiTabBar@@I@Z 00000001401c9fd0 f i imgui_widgets.obj
 0002:00111090       ?GetTL@ImRect@@QEBA?AUImVec2@@XZ 00000001401ca090 f i imgui_widgets.obj
 0002:001110d0       ?GetTR@ImRect@@QEBA?AUImVec2@@XZ 00000001401ca0d0 f i imgui_widgets.obj
 0002:001112b0       ?GetTreeNodeToLabelSpacing@ImGui@@YAMXZ 00000001401ca2b0 f   imgui_widgets.obj
 0002:00111320       ?GetWindowScrollbarID@ImGui@@YAIPEAUImGuiWindow@@W4ImGuiAxis@@@Z 00000001401ca320 f   imgui_widgets.obj
 0002:001113c0       ?GetWindowScrollbarRect@ImGui@@YA?AUImRect@@PEAUImGuiWindow@@W4ImGuiAxis@@@Z 00000001401ca3c0 f   imgui_widgets.obj
 0002:001115f0       ?HasSelection@ImGuiInputTextState@@QEBA_NXZ 00000001401ca5f0 f i imgui_widgets.obj
 0002:00111ca0       ?ImParseFormatFindEnd@@YAPEBDPEBD@Z 00000001401caca0 f   imgui_widgets.obj
 0002:00111e10       ?ImParseFormatFindStart@@YAPEBDPEBD@Z 00000001401cae10 f   imgui_widgets.obj
 0002:00111ef0       ?ImParseFormatPrecision@@YAHPEBDH@Z 00000001401caef0 f   imgui_widgets.obj
 0002:00112110       ?ImParseFormatSanitizeForPrinting@@YAXPEBDPEAD_K@Z 00000001401cb110 f   imgui_widgets.obj
 0002:00112250       ?ImParseFormatSanitizeForScanning@@YAPEBDPEBDPEAD_K@Z 00000001401cb250 f   imgui_widgets.obj
 0002:00112440       ?ImParseFormatTrimDecorations@@YAPEBDPEBDPEAD_K@Z 00000001401cb440 f   imgui_widgets.obj
 0002:00112780       ?Image@ImGui@@YAXPEAXAEBUImVec2@@11AEBUImVec4@@2@Z 00000001401cb780 f   imgui_widgets.obj
 0002:00112ac0       ?ImageButton@ImGui@@YA_NPEAXAEBUImVec2@@11HAEBUImVec4@@2@Z 00000001401cbac0 f   imgui_widgets.obj
 0002:00112c40       ?ImageButton@ImGui@@YA_NPEBDPEAXAEBUImVec2@@22AEBUImVec4@@3@Z 00000001401cbc40 f   imgui_widgets.obj
 0002:00112d40       ?ImageButtonEx@ImGui@@YA_NIPEAXAEBUImVec2@@11AEBUImVec4@@2@Z 00000001401cbd40 f   imgui_widgets.obj
 0002:00113170       ?InputDouble@ImGui@@YA_NPEBDPEANNN0H@Z 00000001401cc170 f   imgui_widgets.obj
 0002:001132a0       ?InputFloat2@ImGui@@YA_NPEBDQEAM0H@Z 00000001401cc2a0 f   imgui_widgets.obj
 0002:00113350       ?InputFloat3@ImGui@@YA_NPEBDQEAM0H@Z 00000001401cc350 f   imgui_widgets.obj
 0002:00113400       ?InputFloat4@ImGui@@YA_NPEBDQEAM0H@Z 00000001401cc400 f   imgui_widgets.obj
 0002:001134b0       ?InputFloat@ImGui@@YA_NPEBDPEAMMM0H@Z 00000001401cc4b0 f   imgui_widgets.obj
 0002:001135e0       ?InputInt2@ImGui@@YA_NPEBDQEAHH@Z 00000001401cc5e0 f   imgui_widgets.obj
 0002:00113690       ?InputInt3@ImGui@@YA_NPEBDQEAHH@Z 00000001401cc690 f   imgui_widgets.obj
 0002:00113740       ?InputInt4@ImGui@@YA_NPEBDQEAHH@Z 00000001401cc740 f   imgui_widgets.obj
 0002:001137f0       ?InputInt@ImGui@@YA_NPEBDPEAHHHH@Z 00000001401cc7f0 f   imgui_widgets.obj
 0002:00113930       ?InputScalar@ImGui@@YA_NPEBDHPEAXPEBX20H@Z 00000001401cc930 f   imgui_widgets.obj
 0002:00113f00       ?InputScalarN@ImGui@@YA_NPEBDHPEAXHPEBX20H@Z 00000001401ccf00 f   imgui_widgets.obj
 0002:00114260       ?InputText@ImGui@@YA_NPEBDPEAD_KHP6AHPEAUImGuiInputTextCallbackData@@@ZPEAX@Z 00000001401cd260 f   imgui_widgets.obj
 0002:00114780       ?InputTextEx@ImGui@@YA_NPEBD0PEADHAEBUImVec2@@HP6AHPEAUImGuiInputTextCallbackData@@@ZPEAX@Z 00000001401cd780 f   imgui_widgets.obj
 0002:0011a5d0       ?InputTextMultiline@ImGui@@YA_NPEBDPEAD_KAEBUImVec2@@HP6AHPEAUImGuiInputTextCallbackData@@@ZPEAX@Z 00000001401d35d0 f   imgui_widgets.obj
 0002:0011aa10       ?InputTextWithHint@ImGui@@YA_NPEBD0PEAD_KHP6AHPEAUImGuiInputTextCallbackData@@@ZPEAX@Z 00000001401d3a10 f   imgui_widgets.obj
 0002:0011ab10       ?InsertChars@ImGuiInputTextCallbackData@@QEAAXHPEBD0@Z 00000001401d3b10 f   imgui_widgets.obj
 0002:0011aef0       ?InvisibleButton@ImGui@@YA_NPEBDAEBUImVec2@@H@Z 00000001401d3ef0 f   imgui_widgets.obj
 0002:0011b3c0       ?LabelText@ImGui@@YAXPEBD0ZZ 00000001401d43c0 f   imgui_widgets.obj
 0002:0011b490       ?LabelTextV@ImGui@@YAXPEBD0PEAD@Z 00000001401d4490 f   imgui_widgets.obj
 0002:0011b8a0       ?ListBox@ImGui@@YA_NPEBDPEAHP6A_NPEAXHPEAPEBD@Z2HH@Z 00000001401d48a0 f   imgui_widgets.obj
 0002:0011bbd0       ?ListBox@ImGui@@YA_NPEBDPEAHQEBQEBDHH@Z 00000001401d4bd0 f   imgui_widgets.obj
 0002:0011bc70       ?ListBoxHeader@ImGui@@YA_NPEBDHH@Z 00000001401d4c70 f   imgui_widgets.obj
 0002:0011bdc0       ?MenuItem@ImGui@@YA_NPEBD0PEA_N_N@Z 00000001401d4dc0 f   imgui_widgets.obj
 0002:0011bed0       ?MenuItem@ImGui@@YA_NPEBD0_N1@Z 00000001401d4ed0 f   imgui_widgets.obj
 0002:0011bf60       ?MenuItemEx@ImGui@@YA_NPEBD00_N1@Z 00000001401d4f60 f   imgui_widgets.obj
 0002:0011c7d0       ?NewLine@ImGui@@YAXXZ      00000001401d57d0 f   imgui_widgets.obj
 0002:0011c8f0       ?OnKeyPressed@ImGuiInputTextState@@QEAAXH@Z 00000001401d58f0 f   imgui_widgets.obj
 0002:0011c980       ?PlotEx@ImGui@@YAHW4ImGuiPlotType@@PEBDP6AMPEAXH@Z2HH1MMAEBUImVec2@@@Z 00000001401d5980 f   imgui_widgets.obj
 0002:0011d8a0       ?PlotHistogram@ImGui@@YAXPEBDP6AMPEAXH@Z1HH0MMUImVec2@@@Z 00000001401d68a0 f   imgui_widgets.obj
 0002:0011d980       ?PlotHistogram@ImGui@@YAXPEBDPEBMHH0MMUImVec2@@H@Z 00000001401d6980 f   imgui_widgets.obj
 0002:0011dab0       ?PlotLines@ImGui@@YAXPEBDP6AMPEAXH@Z1HH0MMUImVec2@@@Z 00000001401d6ab0 f   imgui_widgets.obj
 0002:0011db80       ?PlotLines@ImGui@@YAXPEBDPEBMHH0MMUImVec2@@H@Z 00000001401d6b80 f   imgui_widgets.obj
 0002:0011dd40       ?PrimVtx@ImDrawList@@QEAAXAEBUImVec2@@0I@Z 00000001401d6d40 f i imgui_widgets.obj
 0002:0011dde0       ?ProgressBar@ImGui@@YAXMAEBUImVec2@@PEBD@Z 00000001401d6de0 f   imgui_widgets.obj
 0002:0011e290       ?RadioButton@ImGui@@YA_NPEBDPEAHH@Z 00000001401d7290 f   imgui_widgets.obj
 0002:0011e350       ?RadioButton@ImGui@@YA_NPEBD_N@Z 00000001401d7350 f   imgui_widgets.obj
 0002:0011f900       ?Scrollbar@ImGui@@YAXW4ImGuiAxis@@@Z 00000001401d8900 f   imgui_widgets.obj
 0002:0011fc40       ?ScrollbarEx@ImGui@@YA_NAEBUImRect@@IW4ImGuiAxis@@PEA_J_J3H@Z 00000001401d8c40 f   imgui_widgets.obj
 0002:00120770       ?SelectAll@ImGuiInputTextState@@QEAAXXZ 00000001401d9770 f i imgui_widgets.obj
 0002:00120800       ?Selectable@ImGui@@YA_NPEBDPEA_NHAEBUImVec2@@@Z 00000001401d9800 f   imgui_widgets.obj
 0002:001208e0       ?Selectable@ImGui@@YA_NPEBD_NHAEBUImVec2@@@Z 00000001401d98e0 f   imgui_widgets.obj
 0002:00121510       ?Separator@ImGui@@YAXXZ    00000001401da510 f   imgui_widgets.obj
 0002:001215d0       ?SeparatorEx@ImGui@@YAXH@Z 00000001401da5d0 f   imgui_widgets.obj
 0002:00121c30       ?SetColorEditOptions@ImGui@@YAXH@Z 00000001401dac30 f   imgui_widgets.obj
 0002:00121e60       ?SetNextItemOpen@ImGui@@YAX_NH@Z 00000001401dae60 f   imgui_widgets.obj
 0002:00121f40       ?SetTabItemClosed@ImGui@@YAXPEBD@Z 00000001401daf40 f   imgui_widgets.obj
 0002:001220f0       ?ShrinkWidths@ImGui@@YAXPEAUImGuiShrinkWidthItem@@HM@Z 00000001401db0f0 f   imgui_widgets.obj
 0002:00122620       ?SliderAngle@ImGui@@YA_NPEBDPEAMMM0H@Z 00000001401db620 f   imgui_widgets.obj
 0002:00122780       ?SliderBehavior@ImGui@@YA_NAEBUImRect@@IHPEAXPEBX2PEBDHPEAU2@@Z 00000001401db780 f   imgui_widgets.obj
 0002:00123120       ?SliderFloat2@ImGui@@YA_NPEBDQEAMMM0H@Z 00000001401dc120 f   imgui_widgets.obj
 0002:001231e0       ?SliderFloat3@ImGui@@YA_NPEBDQEAMMM0H@Z 00000001401dc1e0 f   imgui_widgets.obj
 0002:001232a0       ?SliderFloat4@ImGui@@YA_NPEBDQEAMMM0H@Z 00000001401dc2a0 f   imgui_widgets.obj
 0002:00123360       ?SliderFloat@ImGui@@YA_NPEBDPEAMMM0H@Z 00000001401dc360 f   imgui_widgets.obj
 0002:00123410       ?SliderInt2@ImGui@@YA_NPEBDQEAHHH0H@Z 00000001401dc410 f   imgui_widgets.obj
 0002:001234d0       ?SliderInt3@ImGui@@YA_NPEBDQEAHHH0H@Z 00000001401dc4d0 f   imgui_widgets.obj
 0002:00123590       ?SliderInt4@ImGui@@YA_NPEBDQEAHHH0H@Z 00000001401dc590 f   imgui_widgets.obj
 0002:00123650       ?SliderInt@ImGui@@YA_NPEBDPEAHHH0H@Z 00000001401dc650 f   imgui_widgets.obj
 0002:00123700       ?SliderScalar@ImGui@@YA_NPEBDHPEAXPEBX20H@Z 00000001401dc700 f   imgui_widgets.obj
 0002:00124110       ?SliderScalarN@ImGui@@YA_NPEBDHPEAXHPEBX20H@Z 00000001401dd110 f   imgui_widgets.obj
 0002:00124370       ?SmallButton@ImGui@@YA_NPEBD@Z 00000001401dd370 f   imgui_widgets.obj
 0002:00124440       ?Spacing@ImGui@@YAXXZ      00000001401dd440 f   imgui_widgets.obj
 0002:001244c0       ?SplitterBehavior@ImGui@@YA_NAEBUImRect@@IW4ImGuiAxis@@PEAM2MMMMI@Z 00000001401dd4c0 f   imgui_widgets.obj
 0002:00124d00       ?TabBarCloseTab@ImGui@@YAXPEAUImGuiTabBar@@PEAUImGuiTabItem@@@Z 00000001401ddd00 f   imgui_widgets.obj
 0002:00124e10       ?TabBarFindTabByID@ImGui@@YAPEAUImGuiTabItem@@PEAUImGuiTabBar@@I@Z 00000001401dde10 f   imgui_widgets.obj
 0002:00124ed0       ?TabBarFindTabByOrder@ImGui@@YAPEAUImGuiTabItem@@PEAUImGuiTabBar@@H@Z 00000001401dded0 f   imgui_widgets.obj
 0002:00124f60       ?TabBarGetCurrentTab@ImGui@@YAPEAUImGuiTabItem@@PEAUImGuiTabBar@@@Z 00000001401ddf60 f   imgui_widgets.obj
 0002:00125000       ?TabBarGetTabName@ImGui@@YAPEBDPEAUImGuiTabBar@@PEAUImGuiTabItem@@@Z 00000001401de000 f   imgui_widgets.obj
 0002:001250c0       ?TabBarGetTabOrder@ImGui@@YAHPEAUImGuiTabBar@@PEAUImGuiTabItem@@@Z 00000001401de0c0 f i imgui_widgets.obj
 0002:00126830       ?TabBarProcessReorder@ImGui@@YA_NPEAUImGuiTabBar@@@Z 00000001401df830 f   imgui_widgets.obj
 0002:00126b00       ?TabBarQueueFocus@ImGui@@YAXPEAUImGuiTabBar@@PEAUImGuiTabItem@@@Z 00000001401dfb00 f   imgui_widgets.obj
 0002:00126b60       ?TabBarQueueReorder@ImGui@@YAXPEAUImGuiTabBar@@PEAUImGuiTabItem@@H@Z 00000001401dfb60 f   imgui_widgets.obj
 0002:00126c50       ?TabBarQueueReorderFromMousePos@ImGui@@YAXPEAUImGuiTabBar@@PEAUImGuiTabItem@@UImVec2@@@Z 00000001401dfc50 f   imgui_widgets.obj
 0002:00126fd0       ?TabBarRemoveTab@ImGui@@YAXPEAUImGuiTabBar@@I@Z 00000001401dffd0 f   imgui_widgets.obj
 0002:00127e10       ?TabItemBackground@ImGui@@YAXPEAUImDrawList@@AEBUImRect@@HI@Z 00000001401e0e10 f   imgui_widgets.obj
 0002:001282b0       ?TabItemButton@ImGui@@YA_NPEBDH@Z 00000001401e12b0 f   imgui_widgets.obj
 0002:001283d0       ?TabItemCalcSize@ImGui@@YA?AUImVec2@@PEAUImGuiWindow@@@Z 00000001401e13d0 f   imgui_widgets.obj
 0002:00128470       ?TabItemCalcSize@ImGui@@YA?AUImVec2@@PEBD_N@Z 00000001401e1470 f   imgui_widgets.obj
 0002:00128780       ?TabItemEx@ImGui@@YA_NPEAUImGuiTabBar@@PEBDPEA_NHPEAUImGuiWindow@@@Z 00000001401e1780 f   imgui_widgets.obj
 0002:00129b10       ?TabItemLabelAndCloseButton@ImGui@@YAXPEAUImDrawList@@AEBUImRect@@HUImVec2@@PEBDII_NPEA_N5@Z 00000001401e2b10 f   imgui_widgets.obj
 0002:0012a290       ?TempInputIsActive@ImGui@@YA_NI@Z 00000001401e3290 f i imgui_widgets.obj
 0002:0012a330       ?TempInputScalar@ImGui@@YA_NAEBUImRect@@IPEBDHPEAX1PEBX3@Z 00000001401e3330 f   imgui_widgets.obj
 0002:0012a620       ?TempInputText@ImGui@@YA_NAEBUImRect@@IPEBDPEADHH@Z 00000001401e3620 f   imgui_widgets.obj
 0002:0012a7d0       ?Text@ImGui@@YAXPEBDZZ     00000001401e37d0 f   imgui_widgets.obj
 0002:0012a8a0       ?TextColored@ImGui@@YAXAEBUImVec4@@PEBDZZ 00000001401e38a0 f   imgui_widgets.obj
 0002:0012a970       ?TextColoredV@ImGui@@YAXAEBUImVec4@@PEBDPEAD@Z 00000001401e3970 f   imgui_widgets.obj
 0002:0012aa00       ?TextDisabled@ImGui@@YAXPEBDZZ 00000001401e3a00 f   imgui_widgets.obj
 0002:0012aad0       ?TextDisabledV@ImGui@@YAXPEBDPEAD@Z 00000001401e3ad0 f   imgui_widgets.obj
 0002:0012ab70       ?TextEx@ImGui@@YAXPEBD0H@Z 00000001401e3b70 f   imgui_widgets.obj
 0002:0012b450       ?TextUnformatted@ImGui@@YAXPEBD0@Z 00000001401e4450 f   imgui_widgets.obj
 0002:0012b4c0       ?TextV@ImGui@@YAXPEBDPEAD@Z 00000001401e44c0 f   imgui_widgets.obj
 0002:0012b5a0       ?TextWrapped@ImGui@@YAXPEBDZZ 00000001401e45a0 f   imgui_widgets.obj
 0002:0012b670       ?TextWrappedV@ImGui@@YAXPEBDPEAD@Z 00000001401e4670 f   imgui_widgets.obj
 0002:0012b740       ?TreeNode@ImGui@@YA_NPEBD0ZZ 00000001401e4740 f   imgui_widgets.obj
 0002:0012b820       ?TreeNode@ImGui@@YA_NPEBD@Z 00000001401e4820 f   imgui_widgets.obj
 0002:0012b8c0       ?TreeNode@ImGui@@YA_NPEBXPEBDZZ 00000001401e48c0 f   imgui_widgets.obj
 0002:0012b9a0       ?TreeNodeBehavior@ImGui@@YA_NIHPEBD0@Z 00000001401e49a0 f   imgui_widgets.obj
 0002:0012cca0       ?TreeNodeEx@ImGui@@YA_NPEBDH0ZZ 00000001401e5ca0 f   imgui_widgets.obj
 0002:0012cd80       ?TreeNodeEx@ImGui@@YA_NPEBDH@Z 00000001401e5d80 f   imgui_widgets.obj
 0002:0012ce20       ?TreeNodeEx@ImGui@@YA_NPEBXHPEBDZZ 00000001401e5e20 f   imgui_widgets.obj
 0002:0012cf00       ?TreeNodeExV@ImGui@@YA_NPEBDH0PEAD@Z 00000001401e5f00 f   imgui_widgets.obj
 0002:0012d010       ?TreeNodeExV@ImGui@@YA_NPEBXHPEBDPEAD@Z 00000001401e6010 f   imgui_widgets.obj
 0002:0012d120       ?TreeNodeSetOpen@ImGui@@YAXI_N@Z 00000001401e6120 f   imgui_widgets.obj
 0002:0012d1e0       ?TreeNodeUpdateNextOpen@ImGui@@YA_NIH@Z 00000001401e61e0 f   imgui_widgets.obj
 0002:0012d420       ?TreeNodeV@ImGui@@YA_NPEBD0PEAD@Z 00000001401e6420 f   imgui_widgets.obj
 0002:0012d490       ?TreeNodeV@ImGui@@YA_NPEBXPEBDPEAD@Z 00000001401e6490 f   imgui_widgets.obj
 0002:0012d500       ?TreePop@ImGui@@YAXXZ      00000001401e6500 f   imgui_widgets.obj
 0002:0012d6d0       ?TreePush@ImGui@@YAXPEBD@Z 00000001401e66d0 f   imgui_widgets.obj
 0002:0012d750       ?TreePush@ImGui@@YAXPEBX@Z 00000001401e6750 f   imgui_widgets.obj
 0002:0012d7d0       ?TreePushOverrideID@ImGui@@YAXI@Z 00000001401e67d0 f   imgui_widgets.obj
 0002:0012d870       ?Update@ImGuiMenuColumns@@QEAAXM_N@Z 00000001401e6870 f   imgui_widgets.obj
 0002:0012d970       ?VSliderFloat@ImGui@@YA_NPEBDAEBUImVec2@@PEAMMM0H@Z 00000001401e6970 f   imgui_widgets.obj
 0002:0012da30       ?VSliderInt@ImGui@@YA_NPEBDAEBUImVec2@@PEAHHH0H@Z 00000001401e6a30 f   imgui_widgets.obj
 0002:0012daf0       ?VSliderScalar@ImGui@@YA_NPEBDAEBUImVec2@@HPEAXPEBX30H@Z 00000001401e6af0 f   imgui_widgets.obj
 0002:0012e1f0       ?Value@ImGui@@YAXPEBDH@Z   00000001401e71f0 f   imgui_widgets.obj
 0002:0012e260       ?Value@ImGui@@YAXPEBDI@Z   00000001401e7260 f   imgui_widgets.obj
 0002:0012e2d0       ?Value@ImGui@@YAXPEBDM0@Z  00000001401e72d0 f   imgui_widgets.obj
 0002:0012e3e0       ?Value@ImGui@@YAXPEBD_N@Z  00000001401e73e0 f   imgui_widgets.obj
 0002:0012e480       ?_grow_capacity@?$ImVector@UImGuiPtrOrIndex@@@@QEBAHH@Z 00000001401e7480 f i imgui_widgets.obj
 0002:0012e550       ?_grow_capacity@?$ImVector@UImGuiShrinkWidthItem@@@@QEBAHH@Z 00000001401e7550 f i imgui_widgets.obj
 0002:0012e620       ?_grow_capacity@?$ImVector@UImGuiTabBar@@@@QEBAHH@Z 00000001401e7620 f i imgui_widgets.obj
 0002:0012e6f0       ?_grow_capacity@?$ImVector@UImGuiTabItem@@@@QEBAHH@Z 00000001401e76f0 f i imgui_widgets.obj
 0002:0012e7c0       ?back@?$ImVector@UImGuiPtrOrIndex@@@@QEAAAEAUImGuiPtrOrIndex@@XZ 00000001401e77c0 f i imgui_widgets.obj
 0002:0012e860       ?back@?$ImVector@UImGuiTabItem@@@@QEAAAEAUImGuiTabItem@@XZ 00000001401e7860 f i imgui_widgets.obj
 0002:0012e900       ?contains@?$ImVector@I@@QEBA_NAEBI@Z 00000001401e7900 f i imgui_widgets.obj
 0002:0012ea00       ?empty@?$ImVector@M@@QEBA_NXZ 00000001401e7a00 f i imgui_widgets.obj
 0002:0012ea80       ?empty@?$ImVector@UImFontGlyph@@@@QEBA_NXZ 00000001401e7a80 f i imgui_widgets.obj
 0002:0012eb00       ?empty@?$ImVector@UImGuiPtrOrIndex@@@@QEBA_NXZ 00000001401e7b00 f i imgui_widgets.obj
 0002:0012eb80       ?erase@?$ImVector@UImGuiTabItem@@@@QEAAPEAUImGuiTabItem@@PEBU2@@Z 00000001401e7b80 f i imgui_widgets.obj
 0002:0012ed00       ?index_from_ptr@?$ImVector@UImGuiTabItem@@@@QEBAHPEBUImGuiTabItem@@@Z 00000001401e7d00 f i imgui_widgets.obj
 0002:0012f130       ?pop_back@?$ImVector@UImGuiPtrOrIndex@@@@QEAAXXZ 00000001401e8130 f i imgui_widgets.obj
 0002:0012f1c0       ?push_back@?$ImVector@UImGuiPtrOrIndex@@@@QEAAXAEBUImGuiPtrOrIndex@@@Z 00000001401e81c0 f i imgui_widgets.obj
 0002:0012f2b0       ?push_back@?$ImVector@UImGuiTabItem@@@@QEAAXAEBUImGuiTabItem@@@Z 00000001401e82b0 f i imgui_widgets.obj
 0002:0012f3a0       ?reserve@?$ImVector@UImGuiPtrOrIndex@@@@QEAAXH@Z 00000001401e83a0 f i imgui_widgets.obj
 0002:0012f4a0       ?reserve@?$ImVector@UImGuiShrinkWidthItem@@@@QEAAXH@Z 00000001401e84a0 f i imgui_widgets.obj
 0002:0012f5a0       ?reserve@?$ImVector@UImGuiTabBar@@@@QEAAXH@Z 00000001401e85a0 f i imgui_widgets.obj
 0002:0012f6a0       ?reserve@?$ImVector@UImGuiTabItem@@@@QEAAXH@Z 00000001401e86a0 f i imgui_widgets.obj
 0002:0012f7a0       ?reserve_discard@?$ImVector@D@@QEAAXH@Z 00000001401e87a0 f i imgui_widgets.obj
 0002:0012f860       ?resize@?$ImVector@UImGuiShrinkWidthItem@@@@QEAAXH@Z 00000001401e8860 f i imgui_widgets.obj
 0002:0012f900       ?resize@?$ImVector@UImGuiTabBar@@@@QEAAXH@Z 00000001401e8900 f i imgui_widgets.obj
 0002:0012f9a0       ?resize@?$ImVector@UImGuiTabItem@@@@QEAAXH@Z 00000001401e89a0 f i imgui_widgets.obj
 0002:001335e0       ??$?0$$V@?$_Compressed_pair@U?$_Wrap_alloc@V?$allocator@_W@std@@@std@@V?$_String_val@U?$_Simple_types@_W@std@@@2@$00@std@@QEAA@U_Zero_then_variadic_args_t@1@@Z 00000001401ec5e0 f i Application.obj
 0002:00133650       ??$?0AEAU?$_Wrap_alloc@V?$allocator@_W@std@@@std@@@?$_Wrap_alloc@V?$allocator@U_Container_proxy@std@@@std@@@std@@QEAA@AEAU?$_Wrap_alloc@V?$allocator@_W@std@@@1@@Z 00000001401ec650 f i Application.obj
 0002:001336d0       ??$?0_W@?$allocator@U_Container_proxy@std@@@std@@QEAA@AEBV?$allocator@_W@1@@Z 00000001401ec6d0 f i Application.obj
 0002:00133720       ??$Safe_AddRef@PEAVCGameInstance@Engine@@@Engine@@YAKAEAPEAVCGameInstance@0@@Z 00000001401ec720 f i Application.obj
 0002:001337a0       ??$Safe_AddRef@PEAVCRenderer@Engine@@@Engine@@YAKAEAPEAVCRenderer@0@@Z 00000001401ec7a0 f i Application.obj
 0002:00133820       ??$Safe_Release@PEAUID3D11Device@@@Engine@@YAKAEAPEAUID3D11Device@@@Z 00000001401ec820 f i Application.obj
 0002:001338c0       ??$Safe_Release@PEAUID3D11DeviceContext@@@Engine@@YAKAEAPEAUID3D11DeviceContext@@@Z 00000001401ec8c0 f i Application.obj
 0002:00133960       ??$Safe_Release@PEAVCApplication@Client@@@Engine@@YAKAEAPEAVCApplication@Client@@@Z 00000001401ec960 f i Application.obj
 0002:001339f0       ??$Safe_Release@PEAVCGameInstance@Engine@@@Engine@@YAKAEAPEAVCGameInstance@0@@Z 00000001401ec9f0 f i Application.obj
 0002:00133a80       ??$Safe_Release@PEAVCRenderer@Engine@@@Engine@@YAKAEAPEAVCRenderer@0@@Z 00000001401eca80 f i Application.obj
 0002:00133b10       ??$_Debug_pointer@$$CB_W@std@@YAXPEB_W0I@Z 00000001401ecb10 f i Application.obj
 0002:00133b90       ??$_Debug_pointer_if@$$CB_W@std@@YAX_NPEB_W1I@Z 00000001401ecb90 f i Application.obj
 0002:00133c20       ??$_Unfancy@U_Container_proxy@std@@@std@@YAPEAU_Container_proxy@0@PEAU10@@Z 00000001401ecc20 f i Application.obj
 0002:00133c70       ??$_Unfancy@_W@std@@YAPEA_WPEA_W@Z 00000001401ecc70 f i Application.obj
 0002:00133cc0       ??$addressof@PEA_W@std@@YAPEAPEA_WAEAPEA_W@Z 00000001401eccc0 f i Application.obj
 0002:00133d10       ??$addressof@U_Container_proxy@std@@@std@@YAPEAU_Container_proxy@0@AEAU10@@Z 00000001401ecd10 f i Application.obj
 0002:00133d60       ??$construct@PEA_WAEAPEA_W@?$_Wrap_alloc@V?$allocator@_W@std@@@std@@QEAAXPEAPEA_WAEAPEA_W@Z 00000001401ecd60 f i Application.obj
 0002:00133de0       ??$construct@PEA_WAEAPEA_W@?$allocator@_W@std@@QEAAXPEAPEA_WAEAPEA_W@Z 00000001401ecde0 f i Application.obj
 0002:00133ea0       ??$construct@PEA_WAEAPEA_W@?$allocator_traits@V?$allocator@_W@std@@@std@@SAXAEAV?$allocator@_W@1@PEAPEA_WAEAPEA_W@Z 00000001401ecea0 f i Application.obj
 0002:00133f20       ??$construct@U_Container_proxy@std@@U12@@?$_Wrap_alloc@V?$allocator@U_Container_proxy@std@@@std@@@std@@QEAAXPEAU_Container_proxy@1@$$QEAU21@@Z 00000001401ecf20 f i Application.obj
 0002:00133fa0       ??$construct@U_Container_proxy@std@@U12@@?$allocator@U_Container_proxy@std@@@std@@QEAAXPEAU_Container_proxy@1@$$QEAU21@@Z 00000001401ecfa0 f i Application.obj
 0002:00134060       ??$construct@U_Container_proxy@std@@U12@@?$allocator_traits@V?$allocator@U_Container_proxy@std@@@std@@@std@@SAXAEAV?$allocator@U_Container_proxy@std@@@1@PEAU_Container_proxy@1@$$QEAU31@@Z 00000001401ed060 f i Application.obj
 0002:001340e0       ??$destroy@PEA_W@?$_Wrap_alloc@V?$allocator@_W@std@@@std@@QEAAXPEAPEA_W@Z 00000001401ed0e0 f i Application.obj
 0002:00134140       ??$destroy@PEA_W@?$allocator@_W@std@@QEAAXPEAPEA_W@Z 00000001401ed140 f i Application.obj
 0002:00134190       ??$destroy@PEA_W@?$allocator_traits@V?$allocator@_W@std@@@std@@SAXAEAV?$allocator@_W@1@PEAPEA_W@Z 00000001401ed190 f i Application.obj
 0002:001341f0       ??$destroy@U_Container_proxy@std@@@?$_Wrap_alloc@V?$allocator@U_Container_proxy@std@@@std@@@std@@QEAAXPEAU_Container_proxy@1@@Z 00000001401ed1f0 f i Application.obj
 0002:00134250       ??$destroy@U_Container_proxy@std@@@?$allocator@U_Container_proxy@std@@@std@@QEAAXPEAU_Container_proxy@1@@Z 00000001401ed250 f i Application.obj
 0002:001342a0       ??$destroy@U_Container_proxy@std@@@?$allocator_traits@V?$allocator@U_Container_proxy@std@@@std@@@std@@SAXAEAV?$allocator@U_Container_proxy@std@@@1@PEAU_Container_proxy@1@@Z 00000001401ed2a0 f i Application.obj
 0002:00134300       ??$forward@AEAPEA_W@std@@YAAEAPEA_WAEAPEA_W@Z 00000001401ed300 f i Application.obj
 0002:00134350       ??$forward@AEAU?$_Wrap_alloc@V?$allocator@_W@std@@@std@@@std@@YAAEAU?$_Wrap_alloc@V?$allocator@_W@std@@@0@AEAU10@@Z 00000001401ed350 f i Application.obj
 0002:001343a0       ??$forward@U_Container_proxy@std@@@std@@YA$$QEAU_Container_proxy@0@AEAU10@@Z 00000001401ed3a0 f i Application.obj
 0002:001343f0       ??0?$_String_alloc@U?$_String_base_types@_WV?$allocator@_W@std@@@std@@@std@@QEAA@XZ 00000001401ed3f0 f i Application.obj
 0002:00134480       ??0?$_String_val@U?$_Simple_types@_W@std@@@std@@QEAA@XZ 00000001401ed480 f i Application.obj
 0002:00134530       ??0?$_Wrap_alloc@V?$allocator@_W@std@@@std@@QEAA@XZ 00000001401ed530 f i Application.obj
 0002:00134590       ??0?$allocator@_W@std@@QEAA@XZ 00000001401ed590 f i Application.obj
 0002:001345e0       ??0?$basic_string@_WU?$char_traits@_W@std@@V?$allocator@_W@2@@std@@QEAA@PEB_W@Z 00000001401ed5e0 f i Application.obj
 0002:00134680       ??0?$basic_string@_WU?$char_traits@_W@std@@V?$allocator@_W@2@@std@@QEAA@XZ 00000001401ed680 f i Application.obj
 0002:00134700       ??0CApplication@Client@@AEAA@XZ 00000001401ed700 f   Application.obj
 0002:00134810       ??0XMFLOAT4@DirectX@@QEAA@MMMM@Z 00000001401ed810 f i Application.obj
 0002:001348d0       ??0_Bxty@?$_String_val@U?$_Simple_types@_W@std@@@std@@QEAA@XZ 00000001401ed8d0 f i Application.obj
 0002:00134920       ??0_Container_base12@std@@QEAA@XZ 00000001401ed920 f i Application.obj
 0002:00134980       ??0_Container_proxy@std@@QEAA@XZ 00000001401ed980 f i Application.obj
 0002:001349f0       ??1?$_Compressed_pair@U?$_Wrap_alloc@V?$allocator@_W@std@@@std@@V?$_String_val@U?$_Simple_types@_W@std@@@2@$00@std@@QEAA@XZ 00000001401ed9f0 f i Application.obj
 0002:00134a50       ??1?$_String_alloc@U?$_String_base_types@_WV?$allocator@_W@std@@@std@@@std@@QEAA@XZ 00000001401eda50 f i Application.obj
 0002:00134ad0       ??1?$_String_val@U?$_Simple_types@_W@std@@@std@@QEAA@XZ 00000001401edad0 f i Application.obj
 0002:00134b40       ??1?$basic_string@_WU?$char_traits@_W@std@@V?$allocator@_W@2@@std@@QEAA@XZ 00000001401edb40 f i Application.obj
 0002:00134bc0       ??1CApplication@Client@@EEAA@XZ 00000001401edbc0 f i Application.obj
 0002:00134c20       ??1_Bxty@?$_String_val@U?$_Simple_types@_W@std@@@std@@QEAA@XZ 00000001401edc20 f i Application.obj
 0002:00134c60       ??1_Container_base12@std@@QEAA@XZ 00000001401edc60 f i Application.obj
 0002:00134cc0       ??2@YAPEAX_KPEAX@Z         00000001401edcc0 f i Application.obj
 0002:00134d10       ??4?$basic_string@_WU?$char_traits@_W@std@@V?$allocator@_W@2@@std@@QEAAAEAV01@PEB_W@Z 00000001401edd10 f i Application.obj
 0002:00134d70       ??_GCApplication@Client@@EEAAPEAXI@Z 00000001401edd70 f i Application.obj
 0002:00134d70       ??_ECApplication@Client@@EEAAPEAXI@Z 00000001401edd70 f i Application.obj
 0002:00134e00       ?Create@CApplication@Client@@SAPEAV12@XZ 00000001401ede00 f   Application.obj
 0002:00134f70       ?DestroyManager@CApplication@Client@@AEAAXXZ 00000001401edf70 f   Application.obj
 0002:00134fe0       ?Free@CApplication@Client@@UEAAXXZ 00000001401edfe0 f   Application.obj
 0002:001350a0       ?Initialize@CApplication@Client@@QEAAJXZ 00000001401ee0a0 f   Application.obj
 0002:00135340       ?InitializeManager@CApplication@Client@@AEAAJXZ 00000001401ee340 f   Application.obj
 0002:00135390       ?Open_Level@CApplication@Client@@AEAAJW4LEVEL_ID@2@@Z 00000001401ee390 f   Application.obj
 0002:00135560       ?Ready_Prototype_Static_Component@CApplication@Client@@AEAAJXZ 00000001401ee560 f   Application.obj
 0002:00135920       ?Ready_Prototype_Static_GameObject@CApplication@Client@@AEAAJXZ 00000001401ee920 f   Application.obj
 0002:00135a60       ?Render@CApplication@Client@@QEAAJXZ 00000001401eea60 f   Application.obj
 0002:00135c00       ?Tick@CApplication@Client@@QEAAXN@Z 00000001401eec00 f   Application.obj
 0002:00135c80       ?_Alloc_proxy@?$_String_alloc@U?$_String_base_types@_WV?$allocator@_W@std@@@std@@@std@@QEAAXXZ 00000001401eec80 f i Application.obj
 0002:00135de0       ?_Allocate@std@@YAPEAX_K0_N@Z 00000001401eede0 f i Application.obj
 0002:001360c0       ?_Bx@?$_String_alloc@U?$_String_base_types@_WV?$allocator@_W@std@@@std@@@std@@QEAAAEAT_Bxty@?$_String_val@U?$_Simple_types@_W@std@@@2@XZ 00000001401ef0c0 f i Application.obj
 0002:00136120       ?_Check_offset@?$basic_string@_WU?$char_traits@_W@std@@V?$allocator@_W@2@@std@@QEBAX_K@Z 00000001401ef120 f i Application.obj
 0002:001361a0       ?_Clamp_suffix_size@?$basic_string@_WU?$char_traits@_W@std@@V?$allocator@_W@2@@std@@QEBA_K_K0@Z 00000001401ef1a0 f i Application.obj
 0002:00136240       ?_Copy@?$basic_string@_WU?$char_traits@_W@std@@V?$allocator@_W@2@@std@@QEAAX_K0@Z 00000001401ef240 f i Application.obj
 0002:00136560       ?_Deallocate@std@@YAXPEAX_K1@Z 00000001401ef560 f i Application.obj
 0002:00136ab0       ?_Eos@?$basic_string@_WU?$char_traits@_W@std@@V?$allocator@_W@2@@std@@QEAAX_K@Z 00000001401efab0 f i Application.obj
 0002:00136b60       ?_Free_proxy@?$_String_alloc@U?$_String_base_types@_WV?$allocator@_W@std@@@std@@@std@@QEAAXXZ 00000001401efb60 f i Application.obj
 0002:00136c80       ?_Get_data@?$_String_alloc@U?$_String_base_types@_WV?$allocator@_W@std@@@std@@@std@@QEAAAEAV?$_String_val@U?$_Simple_types@_W@std@@@2@XZ 00000001401efc80 f i Application.obj
 0002:00136ce0       ?_Get_data@?$_String_alloc@U?$_String_base_types@_WV?$allocator@_W@std@@@std@@@std@@QEBAAEBV?$_String_val@U?$_Simple_types@_W@std@@@2@XZ 00000001401efce0 f i Application.obj
 0002:00136d40       ?_Get_first@?$_Compressed_pair@U?$_Wrap_alloc@V?$allocator@_W@std@@@std@@V?$_String_val@U?$_Simple_types@_W@std@@@2@$00@std@@QEAAAEAU?$_Wrap_alloc@V?$allocator@_W@std@@@2@XZ 00000001401efd40 f i Application.obj
 0002:00136d90       ?_Get_first@?$_Compressed_pair@U?$_Wrap_alloc@V?$allocator@_W@std@@@std@@V?$_String_val@U?$_Simple_types@_W@std@@@2@$00@std@@QEBAAEBU?$_Wrap_alloc@V?$allocator@_W@std@@@2@XZ 00000001401efd90 f i Application.obj
 0002:00136de0       ?_Get_second@?$_Compressed_pair@U?$_Wrap_alloc@V?$allocator@_W@std@@@std@@V?$_String_val@U?$_Simple_types@_W@std@@@2@$00@std@@QEAAAEAV?$_String_val@U?$_Simple_types@_W@std@@@2@XZ 00000001401efde0 f i Application.obj
 0002:00136e30       ?_Get_second@?$_Compressed_pair@U?$_Wrap_alloc@V?$allocator@_W@std@@@std@@V?$_String_val@U?$_Simple_types@_W@std@@@2@$00@std@@QEBAAEBV?$_String_val@U?$_Simple_types@_W@std@@@2@XZ 00000001401efe30 f i Application.obj
 0002:00136e80       ?_Getal@?$_String_alloc@U?$_String_base_types@_WV?$allocator@_W@std@@@std@@@std@@QEAAAEAU?$_Wrap_alloc@V?$allocator@_W@std@@@2@XZ 00000001401efe80 f i Application.obj
 0002:00136ee0       ?_Getal@?$_String_alloc@U?$_String_base_types@_WV?$allocator@_W@std@@@std@@@std@@QEBAAEBU?$_Wrap_alloc@V?$allocator@_W@std@@@2@XZ 00000001401efee0 f i Application.obj
 0002:00136f40       ?_Grow@?$basic_string@_WU?$char_traits@_W@std@@V?$allocator@_W@2@@std@@QEAA_N_K_N@Z 00000001401eff40 f i Application.obj
 0002:001370e0       ?_Inside@?$basic_string@_WU?$char_traits@_W@std@@V?$allocator@_W@2@@std@@QEAA_NPEB_W@Z 00000001401f00e0 f i Application.obj
 0002:001371a0       ?_Myproxy@?$_String_alloc@U?$_String_base_types@_WV?$allocator@_W@std@@@std@@@std@@QEAAAEAPEAU_Container_proxy@2@XZ 00000001401f01a0 f i Application.obj
 0002:001371f0       ?_Myptr@?$_String_alloc@U?$_String_base_types@_WV?$allocator@_W@std@@@std@@@std@@QEAAPEA_WXZ 00000001401f01f0 f i Application.obj
 0002:00137250       ?_Myptr@?$_String_alloc@U?$_String_base_types@_WV?$allocator@_W@std@@@std@@@std@@QEBAPEB_WXZ 00000001401f0250 f i Application.obj
 0002:001372b0       ?_Myptr@?$_String_val@U?$_Simple_types@_W@std@@@std@@QEAAPEA_WXZ 00000001401f02b0 f i Application.obj
 0002:00137350       ?_Myptr@?$_String_val@U?$_Simple_types@_W@std@@@std@@QEBAPEB_WXZ 00000001401f0350 f i Application.obj
 0002:001373f0       ?_Myres@?$_String_alloc@U?$_String_base_types@_WV?$allocator@_W@std@@@std@@@std@@QEAAAEA_KXZ 00000001401f03f0 f i Application.obj
 0002:00137450       ?_Mysize@?$_String_alloc@U?$_String_base_types@_WV?$allocator@_W@std@@@std@@@std@@QEAAAEA_KXZ 00000001401f0450 f i Application.obj
 0002:001374b0       ?_Mysize@?$_String_alloc@U?$_String_base_types@_WV?$allocator@_W@std@@@std@@@std@@QEBAAEB_KXZ 00000001401f04b0 f i Application.obj
 0002:00137510       ?_Orphan_all@?$_String_alloc@U?$_String_base_types@_WV?$allocator@_W@std@@@std@@@std@@QEAAXXZ 00000001401f0510 f i Application.obj
 0002:00137570       ?_Orphan_all@_Container_base12@std@@QEAAXXZ 00000001401f0570 f i Application.obj
 0002:00137690       ?_Tidy@?$basic_string@_WU?$char_traits@_W@std@@V?$allocator@_W@2@@std@@QEAAX_N_K@Z 00000001401f0690 f i Application.obj
 0002:00137840       ?_Xlen@?$basic_string@_WU?$char_traits@_W@std@@V?$allocator@_W@2@@std@@QEBAXXZ 00000001401f0840 f i Application.obj
 0002:001378a0       ?_Xran@?$basic_string@_WU?$char_traits@_W@std@@V?$allocator@_W@2@@std@@QEBAXXZ 00000001401f08a0 f i Application.obj
 0002:00137900       ?__empty_global_delete@@YAXPEAX@Z 00000001401f0900 f i Application.obj
 0002:00137940       ?__empty_global_delete@@YAXPEAX_K@Z 00000001401f0940 f i Application.obj
 0002:00137990       ?address@?$_Wrap_alloc@V?$allocator@U_Container_proxy@std@@@std@@@std@@QEBAPEAU_Container_proxy@2@AEAU32@@Z 00000001401f0990 f i Application.obj
 0002:001379f0       ?allocate@?$_Wrap_alloc@V?$allocator@U_Container_proxy@std@@@std@@@std@@QEAAPEAU_Container_proxy@2@_K@Z 00000001401f09f0 f i Application.obj
 0002:00137a50       ?allocate@?$_Wrap_alloc@V?$allocator@_W@std@@@std@@QEAAPEA_W_K@Z 00000001401f0a50 f i Application.obj
 0002:00137ab0       ?allocate@?$allocator@U_Container_proxy@std@@@std@@QEAAPEAU_Container_proxy@2@_K@Z 00000001401f0ab0 f i Application.obj
 0002:00137b10       ?allocate@?$allocator@_W@std@@QEAAPEA_W_K@Z 00000001401f0b10 f i Application.obj
 0002:00137b70       ?assign@?$basic_string@_WU?$char_traits@_W@std@@V?$allocator@_W@2@@std@@QEAAAEAV12@AEBV12@_K1@Z 00000001401f0b70 f i Application.obj
 0002:00137d00       ?assign@?$basic_string@_WU?$char_traits@_W@std@@V?$allocator@_W@2@@std@@QEAAAEAV12@PEB_W@Z 00000001401f0d00 f i Application.obj
 0002:00137da0       ?assign@?$basic_string@_WU?$char_traits@_W@std@@V?$allocator@_W@2@@std@@QEAAAEAV12@PEB_W_K@Z 00000001401f0da0 f i Application.obj
 0002:00137f10       ?assign@?$char_traits@_W@std@@SAXAEA_WAEB_W@Z 00000001401f0f10 f i Application.obj
 0002:00137f70       ?c_str@?$basic_string@_WU?$char_traits@_W@std@@V?$allocator@_W@2@@std@@QEBAPEB_WXZ 00000001401f0f70 f i Application.obj
 0002:00137fd0       ?copy@?$char_traits@_W@std@@SAPEA_WPEA_WPEB_W_K@Z 00000001401f0fd0 f i Application.obj
 0002:00138070       ?deallocate@?$_Wrap_alloc@V?$allocator@U_Container_proxy@std@@@std@@@std@@QEAAXPEAU_Container_proxy@2@_K@Z 00000001401f1070 f i Application.obj
 0002:001380e0       ?deallocate@?$_Wrap_alloc@V?$allocator@_W@std@@@std@@QEAAXPEA_W_K@Z 00000001401f10e0 f i Application.obj
 0002:00138150       ?deallocate@?$allocator@U_Container_proxy@std@@@std@@QEAAXPEAU_Container_proxy@2@_K@Z 00000001401f1150 f i Application.obj
 0002:001381c0       ?deallocate@?$allocator@_W@std@@QEAAXPEA_W_K@Z 00000001401f11c0 f i Application.obj
 0002:00138230       ?erase@?$basic_string@_WU?$char_traits@_W@std@@V?$allocator@_W@2@@std@@QEAAAEAV12@_K0@Z 00000001401f1230 f i Application.obj
 0002:00138390       ?erase@?$basic_string@_WU?$char_traits@_W@std@@V?$allocator@_W@2@@std@@QEAAAEAV12@_K@Z 00000001401f1390 f i Application.obj
 0002:00138410       ?length@?$char_traits@_W@std@@SA_KPEB_W@Z 00000001401f1410 f i Application.obj
 0002:001384a0       ?max_size@?$_Wrap_alloc@V?$allocator@_W@std@@@std@@QEBA_KU_Nil@2@@Z 00000001401f14a0 f i Application.obj
 0002:00138500       ?max_size@?$allocator@_W@std@@QEBA_KXZ 00000001401f1500 f i Application.obj
 0002:00138550       ?max_size@?$allocator_traits@V?$allocator@_W@std@@@std@@SA_KAEBV?$allocator@_W@2@@Z 00000001401f1550 f i Application.obj
 0002:001385a0       ?max_size@?$basic_string@_WU?$char_traits@_W@std@@V?$allocator@_W@2@@std@@QEBA_KXZ 00000001401f15a0 f i Application.obj
 0002:00138640       ?move@?$char_traits@_W@std@@SAPEA_WPEA_WPEB_W_K@Z 00000001401f1640 f i Application.obj
 0002:001386e0       ?pointer_to@?$pointer_traits@PEAU_Container_proxy@std@@@std@@SAPEAU_Container_proxy@2@AEAU32@@Z 00000001401f16e0 f i Application.obj
 0002:00138730       wmemcpy                    00000001401f1730 f i Application.obj
 0002:001387b0       wmemmove                   00000001401f17b0 f i Application.obj
 0002:00138830       ??$?8V?$allocator@_W@std@@V01@@std@@YA_NAEBU?$_Wrap_alloc@V?$allocator@_W@std@@@0@0@Z 00000001401f1830 f i ApplicationManager.obj
 0002:00138890       ??$?8_WU?$char_traits@_W@std@@V?$allocator@_W@1@@std@@YA_NAEBV?$basic_string@_WU?$char_traits@_W@std@@V?$allocator@_W@2@@0@0@Z 00000001401f1890 f i ApplicationManager.obj
 0002:00138920       ??$?8_W_W@std@@YA_NAEBV?$allocator@_W@0@0@Z 00000001401f1920 f i ApplicationManager.obj
 0002:00138970       ??$?9V?$allocator@_W@std@@V01@@std@@YA_NAEBU?$_Wrap_alloc@V?$allocator@_W@std@@@0@0@Z 00000001401f1970 f i ApplicationManager.obj
 0002:00138a00       ??$?9_WU?$char_traits@_W@std@@V?$allocator@_W@1@@std@@YA_NAEBV?$basic_string@_WU?$char_traits@_W@std@@V?$allocator@_W@2@@0@0@Z 00000001401f1a00 f i ApplicationManager.obj
 0002:00138a90       ??$_Pocca@U?$_Wrap_alloc@V?$allocator@_W@std@@@std@@@std@@YAXAEAU?$_Wrap_alloc@V?$allocator@_W@std@@@0@AEBU10@@Z 00000001401f1a90 f i ApplicationManager.obj
 0002:00138b10       ??$_Pocca@U?$_Wrap_alloc@V?$allocator@_W@std@@@std@@@std@@YAXAEAU?$_Wrap_alloc@V?$allocator@_W@std@@@0@AEBU10@U?$integral_constant@_N$0A@@0@@Z 00000001401f1b10 f i ApplicationManager.obj
 0002:00138b60       ??0CApplicationManager@Client@@AEAA@XZ 00000001401f1b60 f   ApplicationManager.obj
 0002:00138c30       ??0XMFLOAT3@DirectX@@QEAA@MMM@Z 00000001401f1c30 f i ApplicationManager.obj
 0002:00138ce0       ??1CApplicationManager@Client@@EEAA@XZ 00000001401f1ce0 f i ApplicationManager.obj
 0002:00138d50       ??4?$basic_string@_WU?$char_traits@_W@std@@V?$allocator@_W@2@@std@@QEAAAEAV01@AEBV01@@Z 00000001401f1d50 f i ApplicationManager.obj
 0002:00138e50       ??_ECApplicationManager@Client@@EEAAPEAXI@Z 00000001401f1e50 f i ApplicationManager.obj
 0002:00138e50       ??_GCApplicationManager@Client@@EEAAPEAXI@Z 00000001401f1e50 f i ApplicationManager.obj
 0002:00138ee0       ?DestroyInstance@CApplicationManager@Client@@SAKXZ 00000001401f1ee0 f   ApplicationManager.obj
 0002:00138f60       ?Free@CApplicationManager@Client@@UEAAXXZ 00000001401f1f60 f   ApplicationManager.obj
 0002:00138fa0       ?GetInstance@CApplicationManager@Client@@SAPEAV12@XZ 00000001401f1fa0 f   ApplicationManager.obj
 0002:00139080       ?SetTitle@CApplicationManager@Client@@QEAAXV?$basic_string@_WU?$char_traits@_W@std@@V?$allocator@_W@2@@std@@@Z 00000001401f2080 f   ApplicationManager.obj
 0002:00139160       ?_Copy_alloc@?$_String_alloc@U?$_String_base_types@_WV?$allocator@_W@std@@@std@@@std@@QEAAXAEBU?$_Wrap_alloc@V?$allocator@_W@std@@@2@@Z 00000001401f2160 f i ApplicationManager.obj
 0002:001391f0       ?_Traits_compare@?$basic_string@_WU?$char_traits@_W@std@@V?$allocator@_W@2@@std@@SAHQEB_W_K01@Z 00000001401f21f0 f i ApplicationManager.obj
 0002:00139300       ?assign@?$basic_string@_WU?$char_traits@_W@std@@V?$allocator@_W@2@@std@@QEAAAEAV12@AEBV12@@Z 00000001401f2300 f i ApplicationManager.obj
 0002:00139370       ?compare@?$basic_string@_WU?$char_traits@_W@std@@V?$allocator@_W@2@@std@@QEBAHAEBV12@@Z 00000001401f2370 f i ApplicationManager.obj
 0002:00139460       ?compare@?$char_traits@_W@std@@SAHPEB_W0_K@Z 00000001401f2460 f i ApplicationManager.obj
 0002:00139500       wmemcmp                    00000001401f2500 f i ApplicationManager.obj
 0002:00139610       ??$Safe_Release@PEAVCBackGround@Client@@@Engine@@YAKAEAPEAVCBackGround@Client@@@Z 00000001401f2610 f i BackGround.obj
 0002:001396a0       ??$Safe_Release@PEAVCShader@Engine@@@Engine@@YAKAEAPEAVCShader@0@@Z 00000001401f26a0 f i BackGround.obj
 0002:00139730       ??$Safe_Release@PEAVCTexture@Engine@@@Engine@@YAKAEAPEAVCTexture@0@@Z 00000001401f2730 f i BackGround.obj
 0002:001397c0       ??$Safe_Release@PEAVCVIBuffer_Rect@Engine@@@Engine@@YAKAEAPEAVCVIBuffer_Rect@0@@Z 00000001401f27c0 f i BackGround.obj
 0002:00139850       ??0CBackGround@Client@@IEAA@AEBV01@@Z 00000001401f2850 f   BackGround.obj
 0002:00139990       ??0CBackGround@Client@@IEAA@PEAUID3D11Device@@PEAUID3D11DeviceContext@@@Z 00000001401f2990 f   BackGround.obj
 0002:00139ae0       ??0XMFLOAT4X4@DirectX@@QEAA@XZ 00000001401f2ae0 f i BackGround.obj
 0002:00139b30       ??0XMMATRIX@DirectX@@QEAA@XZ 00000001401f2b30 f i BackGround.obj
 0002:00139b80       ??1CBackGround@Client@@MEAA@XZ 00000001401f2b80 f i BackGround.obj
 0002:00139be0       ??BXMVECTORF32@DirectX@@QEBA?AT__m128@@XZ 00000001401f2be0 f i BackGround.obj
 0002:00139c50       ??BXMVECTORU32@DirectX@@QEBA?AT__m128@@XZ 00000001401f2c50 f i BackGround.obj
 0002:00139cc0       ??DXMMATRIX@DirectX@@QEBQ?AU01@U01@@Z 00000001401f2cc0 f i BackGround.obj
 0002:00139de0       ??_ECBackGround@Client@@MEAAPEAXI@Z 00000001401f2de0 f i BackGround.obj
 0002:00139de0       ??_GCBackGround@Client@@MEAAPEAXI@Z 00000001401f2de0 f i BackGround.obj
 0002:00139e70       ?Add_Components@CBackGround@Client@@AEAAJXZ 00000001401f2e70 f   BackGround.obj
 0002:0013a010       ?Clone@CBackGround@Client@@UEAAPEAVCGameObject@Engine@@PEAX@Z 00000001401f3010 f   BackGround.obj
 0002:0013a1b0       ?Create@CBackGround@Client@@SAPEAV12@PEAUID3D11Device@@PEAUID3D11DeviceContext@@@Z 00000001401f31b0 f   BackGround.obj
 0002:0013a350       ?Free@CBackGround@Client@@UEAAXXZ 00000001401f3350 f   BackGround.obj
 0002:0013a410       ?Initialize@CBackGround@Client@@UEAAJPEAX@Z 00000001401f3410 f   BackGround.obj
 0002:0013a820       ?Initialize_Prototype@CBackGround@Client@@UEAAJXZ 00000001401f3820 f   BackGround.obj
 0002:0013a890       ?LateTick@CBackGround@Client@@UEAAXN@Z 00000001401f3890 f   BackGround.obj
 0002:0013a930       ?Render@CBackGround@Client@@UEAAJXZ 00000001401f3930 f   BackGround.obj
 0002:0013a9f0       ?RenderGUI@CBackGround@Client@@UEAAXXZ 00000001401f39f0 f   BackGround.obj
 0002:0013aa30       ?Setup_ShaderResources@CBackGround@Client@@AEAAJXZ 00000001401f3a30 f   BackGround.obj
 0002:0013abc0       ?Tick@CBackGround@Client@@UEAAXN@Z 00000001401f3bc0 f   BackGround.obj
 0002:0013ac30       ?XMMatrixIdentity@DirectX@@YQ?AUXMMATRIX@1@XZ 00000001401f3c30 f i BackGround.obj
 0002:0013ad40       ?XMMatrixMultiply@DirectX@@YQ?AUXMMATRIX@1@U21@AEBU21@@Z 00000001401f3d40 f i BackGround.obj
 0002:0013b780       ?XMMatrixOrthographicLH@DirectX@@YQ?AUXMMATRIX@1@MMMM@Z 00000001401f4780 f i BackGround.obj
 0002:0013bba0       ?XMMatrixScaling@DirectX@@YQ?AUXMMATRIX@1@MMM@Z 00000001401f4ba0 f i BackGround.obj
 0002:0013bd40       ?XMMatrixTranslation@DirectX@@YQ?AUXMMATRIX@1@MMM@Z 00000001401f4d40 f i BackGround.obj
 0002:0013bea0       ?XMScalarNearEqual@DirectX@@YA_NMMM@Z 00000001401f4ea0 f i BackGround.obj
 0002:0013bf50       ?XMStoreFloat4x4@DirectX@@YQXPEAUXMFLOAT4X4@1@UXMMATRIX@1@@Z 00000001401f4f50 f i BackGround.obj
 0002:0013c090       ?XMVectorSet@DirectX@@YQ?AT__m128@@MMMM@Z 00000001401f5090 f i BackGround.obj
 0002:0013c130       ??0CBoss@Client@@QEAA@AEBV01@@Z 00000001401f5130 f   Boss.obj
 0002:0013c220       ??0CBoss@Client@@QEAA@PEAUID3D11Device@@PEAUID3D11DeviceContext@@@Z 00000001401f5220 f   Boss.obj
 0002:0013c320       ??1CBoss@Client@@UEAA@XZ   00000001401f5320 f i Boss.obj
 0002:0013c380       ??_ECBoss@Client@@UEAAPEAXI@Z 00000001401f5380 f i Boss.obj
 0002:0013c380       ??_GCBoss@Client@@UEAAPEAXI@Z 00000001401f5380 f i Boss.obj
 0002:0013c410       ?AddComponents@CBoss@Client@@AEAAJXZ 00000001401f5410 f   Boss.obj
 0002:0013c460       ?Clone@CBoss@Client@@UEAAPEAVCGameObject@Engine@@PEAX@Z 00000001401f5460 f   Boss.obj
 0002:0013c4b0       ?Create@CBoss@Client@@SAPEAV12@PEAUID3D11Device@@PEAUID3D11DeviceContext@@@Z 00000001401f54b0 f   Boss.obj
 0002:0013c500       ?Free@CBoss@Client@@UEAAXXZ 00000001401f5500 f   Boss.obj
 0002:0013c560       ?Initialize@CBoss@Client@@UEAAJPEAX@Z 00000001401f5560 f   Boss.obj
 0002:0013c5b0       ?Initialize_Prototype@CBoss@Client@@UEAAJXZ 00000001401f55b0 f   Boss.obj
 0002:0013c600       ?LateTick@CBoss@Client@@UEAAXN@Z 00000001401f5600 f   Boss.obj
 0002:0013c650       ?Render@CBoss@Client@@UEAAJXZ 00000001401f5650 f   Boss.obj
 0002:0013c6a0       ?RenderGUI@CBoss@Client@@UEAAXXZ 00000001401f56a0 f   Boss.obj
 0002:0013c6e0       ?SetupShaderResources@CBoss@Client@@AEAAJXZ 00000001401f56e0 f   Boss.obj
 0002:0013c730       ?Tick@CBoss@Client@@UEAAXN@Z 00000001401f5730 f   Boss.obj
 0002:0013c780       ??0CCommandSystem@@QEAA@XZ 00000001401f5780 f   CommandSystem.obj
 0002:0013c7d0       ??1CCommandSystem@@QEAA@XZ 00000001401f57d0 f   CommandSystem.obj
 0002:0013c810       ??$Safe_Release@PEAVCDynamicCamera@Client@@@Engine@@YAKAEAPEAVCDynamicCamera@Client@@@Z 00000001401f5810 f i DynamicCamera.obj
 0002:0013c8a0       ??0CDynamicCamera@Client@@AEAA@AEBV01@@Z 00000001401f58a0 f   DynamicCamera.obj
 0002:0013c920       ??0CDynamicCamera@Client@@AEAA@PEAUID3D11Device@@PEAUID3D11DeviceContext@@@Z 00000001401f5920 f   DynamicCamera.obj
 0002:0013c9b0       ??1CDynamicCamera@Client@@EEAA@XZ 00000001401f59b0 f i DynamicCamera.obj
 0002:0013ca10       ??_GCDynamicCamera@Client@@EEAAPEAXI@Z 00000001401f5a10 f i DynamicCamera.obj
 0002:0013ca10       ??_ECDynamicCamera@Client@@EEAAPEAXI@Z 00000001401f5a10 f i DynamicCamera.obj
 0002:0013caa0       ?Add_Components@CDynamicCamera@Client@@QEAAJXZ 00000001401f5aa0 f   DynamicCamera.obj
 0002:0013caf0       ?Clone@CDynamicCamera@Client@@UEAAPEAVCGameObject@Engine@@PEAX@Z 00000001401f5af0 f   DynamicCamera.obj
 0002:0013cc60       ?Create@CDynamicCamera@Client@@SAPEAV12@PEAUID3D11Device@@PEAUID3D11DeviceContext@@@Z 00000001401f5c60 f   DynamicCamera.obj
 0002:0013cdd0       ?Free@CDynamicCamera@Client@@UEAAXXZ 00000001401f5dd0 f   DynamicCamera.obj
 0002:0013ce30       ?Initialize@CDynamicCamera@Client@@UEAAJPEAX@Z 00000001401f5e30 f   DynamicCamera.obj
 0002:0013cea0       ?Initialize_Prototype@CDynamicCamera@Client@@UEAAJXZ 00000001401f5ea0 f   DynamicCamera.obj
 0002:0013cf10       ?LateTick@CDynamicCamera@Client@@UEAAXN@Z 00000001401f5f10 f   DynamicCamera.obj
 0002:0013cf80       ?Render@CDynamicCamera@Client@@UEAAJXZ 00000001401f5f80 f   DynamicCamera.obj
 0002:0013cfd0       ?Setup_ShaderResources@CDynamicCamera@Client@@QEAAJXZ 00000001401f5fd0 f   DynamicCamera.obj
 0002:0013d020       ?Tick@CDynamicCamera@Client@@UEAAXN@Z 00000001401f6020 f   DynamicCamera.obj
 0002:0013d2c0       ??$Safe_Release@PEAVCCollider@Engine@@@Engine@@YAKAEAPEAVCCollider@0@@Z 00000001401f62c0 f i Enemy.obj
 0002:0013d350       ??$Safe_Release@PEAVCEnemy@Client@@@Engine@@YAKAEAPEAVCEnemy@Client@@@Z 00000001401f6350 f i Enemy.obj
 0002:0013d3e0       ??$Safe_Release@PEAVCModel@Engine@@@Engine@@YAKAEAPEAVCModel@0@@Z 00000001401f63e0 f i Enemy.obj
 0002:0013d470       ??$Safe_Release@PEAVCTransform@Engine@@@Engine@@YAKAEAPEAVCTransform@0@@Z 00000001401f6470 f i Enemy.obj
 0002:0013d500       ??$isnan@M@@YA_NM@Z        00000001401f6500 f i Enemy.obj
 0002:0013d580       ??0CEnemy@Client@@QEAA@AEBV01@@Z 00000001401f6580 f   Enemy.obj
 0002:0013dad0       ??0CEnemy@Client@@QEAA@PEAUID3D11Device@@PEAUID3D11DeviceContext@@@Z 00000001401f6ad0 f   Enemy.obj
 0002:0013dfb0       ??0XMFLOAT3@DirectX@@QEAA@XZ 00000001401f6fb0 f i Enemy.obj
 0002:0013e000       ??0XMFLOAT4@DirectX@@QEAA@XZ 00000001401f7000 f i Enemy.obj
 0002:0013e050       ??0tagColliderDesc@CCollider@Engine@@QEAA@XZ 00000001401f7050 f i Enemy.obj
 0002:0013e0f0       ??1CEnemy@Client@@UEAA@XZ  00000001401f70f0 f i Enemy.obj
 0002:0013e150       ??4XMFLOAT3@DirectX@@QEAAAEAU01@AEBU01@@Z 00000001401f7150 f i Enemy.obj
 0002:0013e200       ??BXMVECTORI32@DirectX@@QEBA?AT__m128@@XZ 00000001401f7200 f i Enemy.obj
 0002:0013e270       ??DDirectX@@YQ?AT__m128@@T1@M@Z 00000001401f7270 f i Enemy.obj
 0002:0013e2f0       ??GDirectX@@YQ?AT__m128@@T1@0@Z 00000001401f72f0 f i Enemy.obj
 0002:0013e370       ??GDirectX@@YQ?AT__m128@@T1@@Z 00000001401f7370 f i Enemy.obj
 0002:0013e3e0       ??HDirectX@@YQ?AT__m128@@T1@0@Z 00000001401f73e0 f i Enemy.obj
 0002:0013e460       ??_GCEnemy@Client@@UEAAPEAXI@Z 00000001401f7460 f i Enemy.obj
 0002:0013e460       ??_ECEnemy@Client@@UEAAPEAXI@Z 00000001401f7460 f i Enemy.obj
 0002:0013e4f0       ?AddComponents@CEnemy@Client@@AEAAJXZ 00000001401f74f0 f   Enemy.obj
 0002:0013eaa0       ?AnimationState@CEnemy@Client@@AEAAXN@Z 00000001401f7aa0 f   Enemy.obj
 0002:0013f0c0       ?Attack@CEnemy@Client@@AEAAXN@Z 00000001401f80c0 f   Enemy.obj
 0002:0013f180       ?Clone@CEnemy@Client@@UEAAPEAVCGameObject@Engine@@PEAX@Z 00000001401f8180 f   Enemy.obj
 0002:0013f2f0       ?Create@CEnemy@Client@@SAPEAV12@PEAUID3D11Device@@PEAUID3D11DeviceContext@@W4TYPE@12@@Z 00000001401f82f0 f   Enemy.obj
 0002:0013f470       ?Die@CEnemy@Client@@AEAAXN@Z 00000001401f8470 f   Enemy.obj
 0002:0013f610       ?DieCheck@CEnemy@Client@@AEAA_NXZ 00000001401f8610 f   Enemy.obj
 0002:0013f680       ?Free@CEnemy@Client@@UEAAXXZ 00000001401f8680 f   Enemy.obj
 0002:0013f770       ?Freeze@CEnemy@Client@@AEAANN@Z 00000001401f8770 f   Enemy.obj
 0002:0013f950       ?GetBodyCollider@CCharacter@Client@@QEBAPEAVCCollider@Engine@@XZ 00000001401f8950 f i Enemy.obj
 0002:0013f9a0       ?GetCombinedMatrix@CBone@Engine@@QEBA?AUXMFLOAT4X4@DirectX@@XZ 00000001401f89a0 f i Enemy.obj
 0002:0013fa20       ?GetOffSetMatrix@CBone@Engine@@QEBA?AUXMFLOAT4X4@DirectX@@XZ 00000001401f8a20 f i Enemy.obj
 0002:0013faa0       ?GetOverlapCollider@CEnemy@Client@@QEAAPEAVCCollider@Engine@@XZ 00000001401f8aa0 f i Enemy.obj
 0002:0013faf0       ?GetPosition@CEnemy@Client@@QEAA?AUXMFLOAT4@DirectX@@XZ 00000001401f8af0 f   Enemy.obj
 0002:0013fc50       ?GetRootBonePosition@CEnemy@Client@@QEAA?AT__m128@@XZ 00000001401f8c50 f   Enemy.obj
 0002:0013fd90       ?GetWeaponCollider@CCharacter@Client@@QEBAPEAVCCollider@Engine@@XZ 00000001401f8d90 f i Enemy.obj
 0002:0013fde0       ?Hit@CEnemy@Client@@AEAA_NN@Z 00000001401f8de0 f   Enemy.obj
 0002:0013ffb0       ?Idle@CEnemy@Client@@AEAAXN@Z 00000001401f8fb0 f   Enemy.obj
 0002:001400b0       ?Initialize@CEnemy@Client@@UEAAJPEAX@Z 00000001401f90b0 f   Enemy.obj
 0002:001406b0       ?Initialize_Prototype@CEnemy@Client@@UEAAJW4TYPE@12@@Z 00000001401f96b0 f   Enemy.obj
 0002:00140790       ?IsFreeze@CApplicationManager@Client@@QEBA_NXZ 00000001401f9790 f i Enemy.obj
 0002:001407e0       ?IsOverlap@CEnemy@Client@@QEBA_NXZ 00000001401f97e0 f i Enemy.obj
 0002:00140830       ?LateTick@CEnemy@Client@@UEAAXN@Z 00000001401f9830 f   Enemy.obj
 0002:00140f10       ?LookPlayer@CEnemy@Client@@AEAAXN@Z 00000001401f9f10 f   Enemy.obj
 0002:00141380       ?NuckBack@CEnemy@Client@@AEAAXN@Z 00000001401fa380 f   Enemy.obj
 0002:00141670       ?OnCollisionEnter@CEnemy@Client@@UEAAXPEAVCCollider@Engine@@0@Z 00000001401fa670 f   Enemy.obj
 0002:00141c80       ?OnCollisionExit@CEnemy@Client@@UEAAXPEAVCCollider@Engine@@0@Z 00000001401fac80 f   Enemy.obj
 0002:00141cd0       ?OnCollisionStay@CEnemy@Client@@UEAAXPEAVCCollider@Engine@@0@Z 00000001401facd0 f   Enemy.obj
 0002:00141d20       ?OverlapProcess@CEnemy@Client@@AEAAXN@Z 00000001401fad20 f   Enemy.obj
 0002:00142700       ?RecvDamage@CEnemy@Client@@AEAAXM@Z 00000001401fb700 f   Enemy.obj
 0002:00142790       ?Render@CEnemy@Client@@UEAAJXZ 00000001401fb790 f   Enemy.obj
 0002:00142980       ?RenderGUI@CEnemy@Client@@UEAAXXZ 00000001401fb980 f   Enemy.obj
 0002:001429c0       ?SetNuckback@CEnemy@Client@@QEAAXM@Z 00000001401fb9c0 f   Enemy.obj
 0002:00142a50       ?SetOverlap@CEnemy@Client@@QEAAX_NUXMFLOAT3@DirectX@@@Z 00000001401fba50 f i Enemy.obj
 0002:00142ae0       ?SetPosition@CEnemy@Client@@QEAAXUXMFLOAT3@DirectX@@@Z 00000001401fbae0 f   Enemy.obj
 0002:00142b90       ?SetupShaderResources@CEnemy@Client@@AEAAJXZ 00000001401fbb90 f   Enemy.obj
 0002:00142f00       ?Tick@CEnemy@Client@@UEAAXN@Z 00000001401fbf00 f   Enemy.obj
 0002:00143100       ?Trace@CEnemy@Client@@AEAAXN@Z 00000001401fc100 f   Enemy.obj
 0002:001432b0       ?XMLoadFloat3@DirectX@@YQ?AT__m128@@PEBUXMFLOAT3@1@@Z 00000001401fc2b0 f i Enemy.obj
 0002:00143410       ?XMLoadFloat4@DirectX@@YQ?AT__m128@@PEBUXMFLOAT4@1@@Z 00000001401fc410 f i Enemy.obj
 0002:001434b0       ?XMLoadFloat4x4@DirectX@@YQ?AUXMMATRIX@1@PEBUXMFLOAT4X4@1@@Z 00000001401fc4b0 f i Enemy.obj
 0002:00143660       ?XMStoreFloat3@DirectX@@YQXPEAUXMFLOAT3@1@T__m128@@@Z 00000001401fc660 f i Enemy.obj
 0002:00143770       ?XMStoreFloat4@DirectX@@YQXPEAUXMFLOAT4@1@T__m128@@@Z 00000001401fc770 f i Enemy.obj
 0002:00143810       ?XMVector3Cross@DirectX@@YQ?AT__m128@@T2@0@Z 00000001401fc810 f i Enemy.obj
 0002:001439b0       ?XMVector3Dot@DirectX@@YQ?AT__m128@@T2@0@Z 00000001401fc9b0 f i Enemy.obj
 0002:00143af0       ?XMVector3Length@DirectX@@YQ?AT__m128@@T2@@Z 00000001401fcaf0 f i Enemy.obj
 0002:00143c20       ?XMVector3Normalize@DirectX@@YQ?AT__m128@@T2@@Z 00000001401fcc20 f i Enemy.obj
 0002:00143ec0       ?XMVectorAdd@DirectX@@YQ?AT__m128@@T2@0@Z 00000001401fcec0 f i Enemy.obj
 0002:00143f40       ?XMVectorGetX@DirectX@@YQMT__m128@@@Z 00000001401fcf40 f i Enemy.obj
 0002:00143fa0       ?XMVectorGetY@DirectX@@YQMT__m128@@@Z 00000001401fcfa0 f i Enemy.obj
 0002:00144020       ?XMVectorLerp@DirectX@@YQ?AT__m128@@T2@0M@Z 00000001401fd020 f i Enemy.obj
 0002:00144120       ?XMVectorNegate@DirectX@@YQ?AT__m128@@T2@@Z 00000001401fd120 f i Enemy.obj
 0002:001441a0       ?XMVectorScale@DirectX@@YQ?AT__m128@@T2@M@Z 00000001401fd1a0 f i Enemy.obj
 0002:00144230       ?XMVectorSubtract@DirectX@@YQ?AT__m128@@T2@0@Z 00000001401fd230 f i Enemy.obj
 0002:001442b0       ?acos@@YAMM@Z              00000001401fd2b0 f i Enemy.obj
 0002:00144300       ?fpclassify@@YAHM@Z        00000001401fd300 f i Enemy.obj
 0002:001443b0       ??$Safe_Release@PEAVCFreezeArea@Client@@@Engine@@YAKAEAPEAVCFreezeArea@Client@@@Z 00000001401fd3b0 f i FreezeArea.obj
 0002:00144440       ??0CFreezeArea@Client@@AEAA@PEAUID3D11Device@@PEAUID3D11DeviceContext@@@Z 00000001401fd440 f   FreezeArea.obj
 0002:001445c0       ??0CFreezeArea@Client@@QEAA@AEBV01@@Z 00000001401fd5c0 f i FreezeArea.obj
 0002:00144790       ??1CFreezeArea@Client@@EEAA@XZ 00000001401fd790 f i FreezeArea.obj
 0002:001447f0       ??_GCFreezeArea@Client@@EEAAPEAXI@Z 00000001401fd7f0 f i FreezeArea.obj
 0002:001447f0       ??_ECFreezeArea@Client@@EEAAPEAXI@Z 00000001401fd7f0 f i FreezeArea.obj
 0002:00144880       ?AddComponents@CFreezeArea@Client@@AEAAJXZ 00000001401fd880 f   FreezeArea.obj
 0002:00144a20       ?Clone@CFreezeArea@Client@@UEAAPEAVCGameObject@Engine@@PEAX@Z 00000001401fda20 f   FreezeArea.obj
 0002:00144b90       ?Create@CFreezeArea@Client@@SAPEAV12@PEAUID3D11Device@@PEAUID3D11DeviceContext@@@Z 00000001401fdb90 f   FreezeArea.obj
 0002:00144d00       ?Free@CFreezeArea@Client@@UEAAXXZ 00000001401fdd00 f   FreezeArea.obj
 0002:00144dc0       ?GetPlayerPrevPosition@CApplicationManager@Client@@QEAA?AT__m128@@XZ 00000001401fddc0 f i FreezeArea.obj
 0002:00144e50       ?Initialize@CFreezeArea@Client@@UEAAJPEAX@Z 00000001401fde50 f   FreezeArea.obj
 0002:00144f40       ?Initialize_Prototype@CFreezeArea@Client@@UEAAJXZ 00000001401fdf40 f   FreezeArea.obj
 0002:00144fb0       ?LateTick@CFreezeArea@Client@@UEAAXN@Z 00000001401fdfb0 f   FreezeArea.obj
 0002:00145060       ?Render@CFreezeArea@Client@@UEAAJXZ 00000001401fe060 f   FreezeArea.obj
 0002:001451a0       ?RenderGUI@CFreezeArea@Client@@UEAAXXZ 00000001401fe1a0 f   FreezeArea.obj
 0002:001451e0       ?SetPosition@CFreezeArea@Client@@QEAAXT__m128@@@Z 00000001401fe1e0 f   FreezeArea.obj
 0002:00145250       ?SetupShaderResources@CFreezeArea@Client@@AEAAJXZ 00000001401fe250 f   FreezeArea.obj
 0002:00145540       ?Tick@CFreezeArea@Client@@UEAAXN@Z 00000001401fe540 f   FreezeArea.obj
 0002:00145a10       ??$Safe_AddRef@PEAUID3D11Device@@@Engine@@YAKAEAPEAUID3D11Device@@@Z 00000001401fea10 f i ImGUIManager.obj
 0002:00145a90       ??$Safe_AddRef@PEAUID3D11DeviceContext@@@Engine@@YAKAEAPEAUID3D11DeviceContext@@@Z 00000001401fea90 f i ImGUIManager.obj
 0002:00145b10       ??0CImGUIManager@Client@@QEAA@XZ 00000001401feb10 f   ImGUIManager.obj
 0002:00145bb0       ??1CImGUIManager@Client@@UEAA@XZ 00000001401febb0 f   ImGUIManager.obj
 0002:00145c20       ??_ECImGUIManager@Client@@UEAAPEAXI@Z 00000001401fec20 f i ImGUIManager.obj
 0002:00145c20       ??_GCImGUIManager@Client@@UEAAPEAXI@Z 00000001401fec20 f i ImGUIManager.obj
 0002:00145cb0       ?DestroyInstance@CImGUIManager@Client@@SAKXZ 00000001401fecb0 f   ImGUIManager.obj
 0002:00145d30       ?Free@CImGUIManager@Client@@UEAAXXZ 00000001401fed30 f   ImGUIManager.obj
 0002:00145d70       ?GetInstance@CImGUIManager@Client@@SAPEAV12@XZ 00000001401fed70 f   ImGUIManager.obj
 0002:00145e50       ?Initialize@CImGUIManager@Client@@QEAAXPEAUID3D11Device@@PEAUID3D11DeviceContext@@@Z 00000001401fee50 f   ImGUIManager.obj
 0002:00145f90       ?NewFrame@CImGUIManager@Client@@QEAAXXZ 00000001401fef90 f   ImGUIManager.obj
 0002:00145ff0       ?Render@CImGUIManager@Client@@QEAAXXZ 00000001401feff0 f   ImGUIManager.obj
 0002:00146160       ?RenderDrawData@CImGUIManager@Client@@QEAAXXZ 00000001401ff160 f   ImGUIManager.obj
 0002:001461c0       ?Shutdown@CImGUIManager@Client@@QEAAXXZ 00000001401ff1c0 f   ImGUIManager.obj
 0002:00146250       ??$?0$$V@?$_Compressed_pair@U?$_Wrap_alloc@V?$allocator@U?$_List_node@PEAVCEnemy@Client@@PEAX@std@@@std@@@std@@V?$_List_val@U?$_List_simple_types@PEAVCEnemy@Client@@@std@@@2@$00@std@@QEAA@U_Zero_then_variadic_args_t@1@@Z 00000001401ff250 f i Character.obj
 0002:001462c0       ??$?0$$V@?$_Compressed_pair@U?$_Wrap_alloc@V?$allocator@UtagOverlapInfo@CCharacter@Client@@@std@@@std@@V?$_Vector_val@U?$_Simple_types@UtagOverlapInfo@CCharacter@Client@@@std@@@2@$00@std@@QEAA@U_Zero_then_variadic_args_t@1@@Z 00000001401ff2c0 f i Character.obj
 0002:00146330       ??$?0AEAU?$_Wrap_alloc@V?$allocator@U?$_List_node@PEAVCEnemy@Client@@PEAX@std@@@std@@@std@@@?$_Wrap_alloc@V?$allocator@U_Container_proxy@std@@@std@@@std@@QEAA@AEAU?$_Wrap_alloc@V?$allocator@U?$_List_node@PEAVCEnemy@Client@@PEAX@std@@@std@@@1@@Z 00000001401ff330 f i Character.obj
 0002:001463b0       ??$?0AEAU?$_Wrap_alloc@V?$allocator@UtagOverlapInfo@CCharacter@Client@@@std@@@std@@@?$_Wrap_alloc@V?$allocator@U_Container_proxy@std@@@std@@@std@@QEAA@AEAU?$_Wrap_alloc@V?$allocator@UtagOverlapInfo@CCharacter@Client@@@std@@@1@@Z 00000001401ff3b0 f i Character.obj
 0002:00146430       ??$?0U?$_List_node@PEAVCEnemy@Client@@PEAX@std@@@?$allocator@U_Container_proxy@std@@@std@@QEAA@AEBV?$allocator@U?$_List_node@PEAVCEnemy@Client@@PEAX@std@@@1@@Z 00000001401ff430 f i Character.obj
 0002:00146480       ??$?0UtagOverlapInfo@CCharacter@Client@@@?$allocator@U_Container_proxy@std@@@std@@QEAA@AEBV?$allocator@UtagOverlapInfo@CCharacter@Client@@@1@@Z 00000001401ff480 f i Character.obj
 0002:001464d0       ??$Safe_Release@PEAVCCharacter@Client@@@Engine@@YAKAEAPEAVCCharacter@Client@@@Z 00000001401ff4d0 f i Character.obj
 0002:00146560       ??$_Buynode@AEBQEAVCEnemy@Client@@@?$_List_buy@PEAVCEnemy@Client@@V?$allocator@PEAVCEnemy@Client@@@std@@@std@@QEAAPEAU?$_List_node@PEAVCEnemy@Client@@PEAX@1@PEAU21@0AEBQEAVCEnemy@Client@@@Z 00000001401ff560 f i Character.obj
 0002:00146670       ??$_Destroy_range1@V?$allocator@UtagOverlapInfo@CCharacter@Client@@@std@@PEAUtagOverlapInfo@CCharacter@Client@@@std@@YAXPEAUtagOverlapInfo@CCharacter@Client@@0AEAU?$_Wrap_alloc@V?$allocator@UtagOverlapInfo@CCharacter@Client@@@std@@@0@U?$integral_constant@_N$00@0@@Z 00000001401ff670 f i Character.obj
 0002:001466d0       ??$_Destroy_range@V?$allocator@UtagOverlapInfo@CCharacter@Client@@@std@@PEAUtagOverlapInfo@CCharacter@Client@@@std@@YAXPEAUtagOverlapInfo@CCharacter@Client@@0AEAU?$_Wrap_alloc@V?$allocator@UtagOverlapInfo@CCharacter@Client@@@std@@@0@@Z 00000001401ff6d0 f i Character.obj
 0002:00146750       ??$_Insert@AEBQEAVCEnemy@Client@@@?$list@PEAVCEnemy@Client@@V?$allocator@PEAVCEnemy@Client@@@std@@@std@@QEAAXV?$_List_unchecked_const_iterator@V?$_List_val@U?$_List_simple_types@PEAVCEnemy@Client@@@std@@@std@@U_Iterator_base0@2@@1@AEBQEAVCEnemy@Client@@@Z 00000001401ff750 f i Character.obj
 0002:00146850       ??$addressof@PEAU?$_List_node@PEAVCEnemy@Client@@PEAX@std@@@std@@YAPEAPEAU?$_List_node@PEAVCEnemy@Client@@PEAX@0@AEAPEAU10@@Z 00000001401ff850 f i Character.obj
 0002:001468a0       ??$addressof@PEAVCEnemy@Client@@@std@@YAPEAPEAVCEnemy@Client@@AEAPEAV12@@Z 00000001401ff8a0 f i Character.obj
 0002:001468f0       ??$construct@PEAU?$_List_node@PEAVCEnemy@Client@@PEAX@std@@AEAPEAU12@@?$_Wrap_alloc@V?$allocator@U?$_List_node@PEAVCEnemy@Client@@PEAX@std@@@std@@@std@@QEAAXPEAPEAU?$_List_node@PEAVCEnemy@Client@@PEAX@1@AEAPEAU21@@Z 00000001401ff8f0 f i Character.obj
 0002:00146970       ??$construct@PEAU?$_List_node@PEAVCEnemy@Client@@PEAX@std@@AEAPEAU12@@?$allocator@U?$_List_node@PEAVCEnemy@Client@@PEAX@std@@@std@@QEAAXPEAPEAU?$_List_node@PEAVCEnemy@Client@@PEAX@1@AEAPEAU21@@Z 00000001401ff970 f i Character.obj
 0002:00146a30       ??$construct@PEAU?$_List_node@PEAVCEnemy@Client@@PEAX@std@@AEAPEAU12@@?$allocator_traits@V?$allocator@U?$_List_node@PEAVCEnemy@Client@@PEAX@std@@@std@@@std@@SAXAEAV?$allocator@U?$_List_node@PEAVCEnemy@Client@@PEAX@std@@@1@PEAPEAU?$_List_node@PEAVCEnemy@Client@@PEAX@1@AEAPEAU31@@Z 00000001401ffa30 f i Character.obj
 0002:00146ab0       ??$construct@PEAVCEnemy@Client@@AEBQEAV12@@?$_Wrap_alloc@V?$allocator@U?$_List_node@PEAVCEnemy@Client@@PEAX@std@@@std@@@std@@QEAAXPEAPEAVCEnemy@Client@@AEBQEAV23@@Z 00000001401ffab0 f i Character.obj
 0002:00146b30       ??$construct@PEAVCEnemy@Client@@AEBQEAV12@@?$allocator@U?$_List_node@PEAVCEnemy@Client@@PEAX@std@@@std@@QEAAXPEAPEAVCEnemy@Client@@AEBQEAV23@@Z 00000001401ffb30 f i Character.obj
 0002:00146bf0       ??$construct@PEAVCEnemy@Client@@AEBQEAV12@@?$allocator_traits@V?$allocator@U?$_List_node@PEAVCEnemy@Client@@PEAX@std@@@std@@@std@@SAXAEAV?$allocator@U?$_List_node@PEAVCEnemy@Client@@PEAX@std@@@1@PEAPEAVCEnemy@Client@@AEBQEAV34@@Z 00000001401ffbf0 f i Character.obj
 0002:00146c70       ??$destroy@PEAU?$_List_node@PEAVCEnemy@Client@@PEAX@std@@@?$_Wrap_alloc@V?$allocator@U?$_List_node@PEAVCEnemy@Client@@PEAX@std@@@std@@@std@@QEAAXPEAPEAU?$_List_node@PEAVCEnemy@Client@@PEAX@1@@Z 00000001401ffc70 f i Character.obj
 0002:00146cd0       ??$destroy@PEAU?$_List_node@PEAVCEnemy@Client@@PEAX@std@@@?$allocator@U?$_List_node@PEAVCEnemy@Client@@PEAX@std@@@std@@QEAAXPEAPEAU?$_List_node@PEAVCEnemy@Client@@PEAX@1@@Z 00000001401ffcd0 f i Character.obj
 0002:00146d20       ??$destroy@PEAU?$_List_node@PEAVCEnemy@Client@@PEAX@std@@@?$allocator_traits@V?$allocator@U?$_List_node@PEAVCEnemy@Client@@PEAX@std@@@std@@@std@@SAXAEAV?$allocator@U?$_List_node@PEAVCEnemy@Client@@PEAX@std@@@1@PEAPEAU?$_List_node@PEAVCEnemy@Client@@PEAX@1@@Z 00000001401ffd20 f i Character.obj
 0002:00146d80       ??$destroy@PEAVCEnemy@Client@@@?$_Wrap_alloc@V?$allocator@U?$_List_node@PEAVCEnemy@Client@@PEAX@std@@@std@@@std@@QEAAXPEAPEAVCEnemy@Client@@@Z 00000001401ffd80 f i Character.obj
 0002:00146de0       ??$destroy@PEAVCEnemy@Client@@@?$allocator@U?$_List_node@PEAVCEnemy@Client@@PEAX@std@@@std@@QEAAXPEAPEAVCEnemy@Client@@@Z 00000001401ffde0 f i Character.obj
 0002:00146e30       ??$destroy@PEAVCEnemy@Client@@@?$allocator_traits@V?$allocator@U?$_List_node@PEAVCEnemy@Client@@PEAX@std@@@std@@@std@@SAXAEAV?$allocator@U?$_List_node@PEAVCEnemy@Client@@PEAX@std@@@1@PEAPEAVCEnemy@Client@@@Z 00000001401ffe30 f i Character.obj
 0002:00146e90       ??$forward@AEAPEAU?$_List_node@PEAVCEnemy@Client@@PEAX@std@@@std@@YAAEAPEAU?$_List_node@PEAVCEnemy@Client@@PEAX@0@AEAPEAU10@@Z 00000001401ffe90 f i Character.obj
 0002:00146ee0       ??$forward@AEAU?$_Wrap_alloc@V?$allocator@U?$_List_node@PEAVCEnemy@Client@@PEAX@std@@@std@@@std@@@std@@YAAEAU?$_Wrap_alloc@V?$allocator@U?$_List_node@PEAVCEnemy@Client@@PEAX@std@@@std@@@0@AEAU10@@Z 00000001401ffee0 f i Character.obj
 0002:00146f30       ??$forward@AEAU?$_Wrap_alloc@V?$allocator@UtagOverlapInfo@CCharacter@Client@@@std@@@std@@@std@@YAAEAU?$_Wrap_alloc@V?$allocator@UtagOverlapInfo@CCharacter@Client@@@std@@@0@AEAU10@@Z 00000001401fff30 f i Character.obj
 0002:00146f80       ??$forward@AEBQEAVCEnemy@Client@@@std@@YAAEBQEAVCEnemy@Client@@AEBQEAV12@@Z 00000001401fff80 f i Character.obj
 0002:00146fd0       ??0?$_Iterator012@Ubidirectional_iterator_tag@std@@PEAVCEnemy@Client@@_JPEBQEAV34@AEBQEAV34@U_Iterator_base12@2@@std@@QEAA@$$QEAU01@@Z 00000001401fffd0 f i Character.obj
 0002:00147040       ??0?$_Iterator012@Ubidirectional_iterator_tag@std@@PEAVCEnemy@Client@@_JPEBQEAV34@AEBQEAV34@U_Iterator_base12@2@@std@@QEAA@AEBU01@@Z 0000000140200040 f i Character.obj
 0002:001470b0       ??0?$_Iterator012@Ubidirectional_iterator_tag@std@@PEAVCEnemy@Client@@_JPEBQEAV34@AEBQEAV34@U_Iterator_base12@2@@std@@QEAA@XZ 00000001402000b0 f i Character.obj
 0002:00147110       ??0?$_List_alloc@U?$_List_base_types@PEAVCEnemy@Client@@V?$allocator@PEAVCEnemy@Client@@@std@@@std@@@std@@QEAA@XZ 0000000140200110 f i Character.obj
 0002:001471d0       ??0?$_List_buy@PEAVCEnemy@Client@@V?$allocator@PEAVCEnemy@Client@@@std@@@std@@QEAA@XZ 00000001402001d0 f i Character.obj
 0002:00147230       ??0?$_List_const_iterator@V?$_List_val@U?$_List_simple_types@PEAVCEnemy@Client@@@std@@@std@@@std@@QEAA@$$QEAV01@@Z 0000000140200230 f i Character.obj
 0002:001472a0       ??0?$_List_const_iterator@V?$_List_val@U?$_List_simple_types@PEAVCEnemy@Client@@@std@@@std@@@std@@QEAA@AEBV01@@Z 00000001402002a0 f i Character.obj
 0002:00147310       ??0?$_List_const_iterator@V?$_List_val@U?$_List_simple_types@PEAVCEnemy@Client@@@std@@@std@@@std@@QEAA@PEAU?$_List_node@PEAVCEnemy@Client@@PEAX@1@PEBV?$_List_val@U?$_List_simple_types@PEAVCEnemy@Client@@@std@@@1@@Z 0000000140200310 f i Character.obj
 0002:00147390       ??0?$_List_iterator@V?$_List_val@U?$_List_simple_types@PEAVCEnemy@Client@@@std@@@std@@@std@@QEAA@PEAU?$_List_node@PEAVCEnemy@Client@@PEAX@1@PEBV?$_List_val@U?$_List_simple_types@PEAVCEnemy@Client@@@std@@@1@@Z 0000000140200390 f i Character.obj
 0002:00147410       ??0?$_List_unchecked_const_iterator@V?$_List_val@U?$_List_simple_types@PEAVCEnemy@Client@@@std@@@std@@U_Iterator_base0@2@@std@@QEAA@PEAU?$_List_node@PEAVCEnemy@Client@@PEAX@1@PEBV?$_List_val@U?$_List_simple_types@PEAVCEnemy@Client@@@std@@@1@@Z 0000000140200410 f i Character.obj
 0002:001474a0       ??0?$_List_unchecked_const_iterator@V?$_List_val@U?$_List_simple_types@PEAVCEnemy@Client@@@std@@@std@@U_Iterator_base12@2@@std@@QEAA@$$QEAV01@@Z 00000001402004a0 f i Character.obj
 0002:00147530       ??0?$_List_unchecked_const_iterator@V?$_List_val@U?$_List_simple_types@PEAVCEnemy@Client@@@std@@@std@@U_Iterator_base12@2@@std@@QEAA@AEBV01@@Z 0000000140200530 f i Character.obj
 0002:001475c0       ??0?$_List_unchecked_const_iterator@V?$_List_val@U?$_List_simple_types@PEAVCEnemy@Client@@@std@@@std@@U_Iterator_base12@2@@std@@QEAA@PEAU?$_List_node@PEAVCEnemy@Client@@PEAX@1@PEBV?$_List_val@U?$_List_simple_types@PEAVCEnemy@Client@@@std@@@1@@Z 00000001402005c0 f i Character.obj
 0002:00147670       ??0?$_List_unchecked_iterator@V?$_List_val@U?$_List_simple_types@PEAVCEnemy@Client@@@std@@@std@@@std@@QEAA@PEAU?$_List_node@PEAVCEnemy@Client@@PEAX@1@PEBV?$_List_val@U?$_List_simple_types@PEAVCEnemy@Client@@@std@@@1@@Z 0000000140200670 f i Character.obj
 0002:001476f0       ??0?$_List_val@U?$_List_simple_types@PEAVCEnemy@Client@@@std@@@std@@QEAA@XZ 00000001402006f0 f i Character.obj
 0002:00147770       ??0?$_Vector_alloc@U?$_Vec_base_types@UtagOverlapInfo@CCharacter@Client@@V?$allocator@UtagOverlapInfo@CCharacter@Client@@@std@@@std@@@std@@QEAA@XZ 0000000140200770 f i Character.obj
 0002:00147800       ??0?$_Vector_val@U?$_Simple_types@UtagOverlapInfo@CCharacter@Client@@@std@@@std@@QEAA@XZ 0000000140200800 f i Character.obj
 0002:001478a0       ??0?$_Wrap_alloc@V?$allocator@U?$_List_node@PEAVCEnemy@Client@@PEAX@std@@@std@@@std@@QEAA@XZ 00000001402008a0 f i Character.obj
 0002:00147900       ??0?$_Wrap_alloc@V?$allocator@UtagOverlapInfo@CCharacter@Client@@@std@@@std@@QEAA@XZ 0000000140200900 f i Character.obj
 0002:00147960       ??0?$allocator@U?$_List_node@PEAVCEnemy@Client@@PEAX@std@@@std@@QEAA@XZ 0000000140200960 f i Character.obj
 0002:001479b0       ??0?$allocator@UtagOverlapInfo@CCharacter@Client@@@std@@QEAA@XZ 00000001402009b0 f i Character.obj
 0002:00147a00       ??0?$list@PEAVCEnemy@Client@@V?$allocator@PEAVCEnemy@Client@@@std@@@std@@QEAA@XZ 0000000140200a00 f i Character.obj
 0002:00147a60       ??0?$vector@UtagOverlapInfo@CCharacter@Client@@V?$allocator@UtagOverlapInfo@CCharacter@Client@@@std@@@std@@QEAA@XZ 0000000140200a60 f i Character.obj
 0002:00147ad0       ??0CCharacter@Client@@AEAA@AEBV01@@Z 0000000140200ad0 f   Character.obj
 0002:001481d0       ??0CCharacter@Client@@AEAA@PEAUID3D11Device@@PEAUID3D11DeviceContext@@@Z 00000001402011d0 f   Character.obj
 0002:001488c0       ??0_Iterator_base12@std@@QEAA@AEBU01@@Z 00000001402018c0 f i Character.obj
 0002:00148950       ??0_Iterator_base12@std@@QEAA@XZ 0000000140201950 f i Character.obj
 0002:001489c0       ??1?$_Compressed_pair@U?$_Wrap_alloc@V?$allocator@U?$_List_node@PEAVCEnemy@Client@@PEAX@std@@@std@@@std@@V?$_List_val@U?$_List_simple_types@PEAVCEnemy@Client@@@std@@@2@$00@std@@QEAA@XZ 00000001402019c0 f i Character.obj
 0002:00148a20       ??1?$_Compressed_pair@U?$_Wrap_alloc@V?$allocator@UtagOverlapInfo@CCharacter@Client@@@std@@@std@@V?$_Vector_val@U?$_Simple_types@UtagOverlapInfo@CCharacter@Client@@@std@@@2@$00@std@@QEAA@XZ 0000000140201a20 f i Character.obj
 0002:00148a80       ??1?$_Iterator012@Ubidirectional_iterator_tag@std@@PEAVCEnemy@Client@@_JPEBQEAV34@AEBQEAV34@U_Iterator_base12@2@@std@@QEAA@XZ 0000000140201a80 f i Character.obj
 0002:00148ad0       ??1?$_List_alloc@U?$_List_base_types@PEAVCEnemy@Client@@V?$allocator@PEAVCEnemy@Client@@@std@@@std@@@std@@QEAA@XZ 0000000140201ad0 f i Character.obj
 0002:00148b70       ??1?$_List_buy@PEAVCEnemy@Client@@V?$allocator@PEAVCEnemy@Client@@@std@@@std@@QEAA@XZ 0000000140201b70 f i Character.obj
 0002:00148bc0       ??1?$_List_const_iterator@V?$_List_val@U?$_List_simple_types@PEAVCEnemy@Client@@@std@@@std@@@std@@QEAA@XZ 0000000140201bc0 f i Character.obj
 0002:00148c10       ??1?$_List_iterator@V?$_List_val@U?$_List_simple_types@PEAVCEnemy@Client@@@std@@@std@@@std@@QEAA@XZ 0000000140201c10 f i Character.obj
 0002:00148c60       ??1?$_List_unchecked_const_iterator@V?$_List_val@U?$_List_simple_types@PEAVCEnemy@Client@@@std@@@std@@U_Iterator_base12@2@@std@@QEAA@XZ 0000000140201c60 f i Character.obj
 0002:00148cb0       ??1?$_List_val@U?$_List_simple_types@PEAVCEnemy@Client@@@std@@@std@@QEAA@XZ 0000000140201cb0 f i Character.obj
 0002:00148d00       ??1?$_Vector_alloc@U?$_Vec_base_types@UtagOverlapInfo@CCharacter@Client@@V?$allocator@UtagOverlapInfo@CCharacter@Client@@@std@@@std@@@std@@QEAA@XZ 0000000140201d00 f i Character.obj
 0002:00148d80       ??1?$_Vector_val@U?$_Simple_types@UtagOverlapInfo@CCharacter@Client@@@std@@@std@@QEAA@XZ 0000000140201d80 f i Character.obj
 0002:00148dd0       ??1?$list@PEAVCEnemy@Client@@V?$allocator@PEAVCEnemy@Client@@@std@@@std@@QEAA@XZ 0000000140201dd0 f i Character.obj
 0002:00148e40       ??1?$vector@UtagOverlapInfo@CCharacter@Client@@V?$allocator@UtagOverlapInfo@CCharacter@Client@@@std@@@std@@QEAA@XZ 0000000140201e40 f i Character.obj
 0002:00148eb0       ??1CCharacter@Client@@EEAA@XZ 0000000140201eb0 f i Character.obj
 0002:00148f40       ??1_Iterator_base12@std@@QEAA@XZ 0000000140201f40 f i Character.obj
 0002:00149000       ??4?$_Iterator012@Ubidirectional_iterator_tag@std@@PEAVCEnemy@Client@@_JPEBQEAV34@AEBQEAV34@U_Iterator_base12@2@@std@@QEAAAEAU01@$$QEAU01@@Z 0000000140202000 f i Character.obj
 0002:00149070       ??4?$_List_const_iterator@V?$_List_val@U?$_List_simple_types@PEAVCEnemy@Client@@@std@@@std@@@std@@QEAAAEAV01@$$QEAV01@@Z 0000000140202070 f i Character.obj
 0002:001490e0       ??4?$_List_iterator@V?$_List_val@U?$_List_simple_types@PEAVCEnemy@Client@@@std@@@std@@@std@@QEAAAEAV01@$$QEAV01@@Z 00000001402020e0 f i Character.obj
 0002:00149150       ??4?$_List_unchecked_const_iterator@V?$_List_val@U?$_List_simple_types@PEAVCEnemy@Client@@@std@@@std@@U_Iterator_base12@2@@std@@QEAAAEAV01@$$QEAV01@@Z 0000000140202150 f i Character.obj
 0002:001491e0       ??4XMFLOAT4X4@DirectX@@QEAAAEAU01@AEBU01@@Z 00000001402021e0 f i Character.obj
 0002:00149360       ??4_Iterator_base12@std@@QEAAAEAU01@AEBU01@@Z 0000000140202360 f i Character.obj
 0002:00149490       ??8?$_List_const_iterator@V?$_List_val@U?$_List_simple_types@PEAVCEnemy@Client@@@std@@@std@@@std@@QEBA_NAEBV01@@Z 0000000140202490 f i Character.obj
 0002:00149610       ??9?$_List_const_iterator@V?$_List_val@U?$_List_simple_types@PEAVCEnemy@Client@@@std@@@std@@@std@@QEBA_NAEBV01@@Z 0000000140202610 f i Character.obj
 0002:001496a0       ??D?$_List_const_iterator@V?$_List_val@U?$_List_simple_types@PEAVCEnemy@Client@@@std@@@std@@@std@@QEBAAEBQEAVCEnemy@Client@@XZ 00000001402026a0 f i Character.obj
 0002:00149800       ??D?$_List_iterator@V?$_List_val@U?$_List_simple_types@PEAVCEnemy@Client@@@std@@@std@@@std@@QEBAAEAPEAVCEnemy@Client@@XZ 0000000140202800 f i Character.obj
 0002:00149850       ??E?$_List_const_iterator@V?$_List_val@U?$_List_simple_types@PEAVCEnemy@Client@@@std@@@std@@@std@@QEAA?AV01@H@Z 0000000140202850 f i Character.obj
 0002:00149970       ??E?$_List_const_iterator@V?$_List_val@U?$_List_simple_types@PEAVCEnemy@Client@@@std@@@std@@@std@@QEAAAEAV01@XZ 0000000140202970 f i Character.obj
 0002:00149af0       ??E?$_List_iterator@V?$_List_val@U?$_List_simple_types@PEAVCEnemy@Client@@@std@@@std@@@std@@QEAAAEAV01@XZ 0000000140202af0 f i Character.obj
 0002:00149b50       ??_ECCharacter@Client@@EEAAPEAXI@Z 0000000140202b50 f i Character.obj
 0002:00149b50       ??_GCCharacter@Client@@EEAAPEAXI@Z 0000000140202b50 f i Character.obj
 0002:00149be0       ?AddComponents@CCharacter@Client@@AEAAJXZ 0000000140202be0 f   Character.obj
 0002:0014a670       ?AddWeapon@CCharacter@Client@@AEAAJXZ 0000000140203670 f   Character.obj
 0002:0014a7e0       ?AnimationCompare@CCharacter@Client@@AEAA_NW4CLIP@12@@Z 00000001402037e0 f   Character.obj
 0002:0014a870       ?AnimationControl@CCharacter@Client@@AEAAXN@Z 0000000140203870 f   Character.obj
 0002:0014abe0       ?Attack@CCharacter@Client@@AEAAXN@Z 0000000140203be0 f   Character.obj
 0002:0014b3a0       ?BackwardRotaion@CCharacter@Client@@AEAAXN@Z 00000001402043a0 f   Character.obj
 0002:0014b6f0       ?CameraSocketUpdate@CCharacter@Client@@AEAAXXZ 00000001402046f0 f   Character.obj
 0002:0014ba10       ?Clone@CCharacter@Client@@UEAAPEAVCGameObject@Engine@@PEAX@Z 0000000140204a10 f   Character.obj
 0002:0014bb80       ?Create@CCharacter@Client@@SAPEAV12@PEAUID3D11Device@@PEAUID3D11DeviceContext@@@Z 0000000140204b80 f   Character.obj
 0002:0014bcf0       ?Dash@CCharacter@Client@@AEAAXN@Z 0000000140204cf0 f   Character.obj
 0002:0014c550       ?DeleteTargetFromList@CCharacter@Client@@QEAAXPEAVCGameObject@Engine@@@Z 0000000140205550 f   Character.obj
 0002:0014c7b0       ?FindNearTarget@CCharacter@Client@@QEAAXXZ 00000001402057b0 f   Character.obj
 0002:0014ca40       ?FindTargetFromList@CCharacter@Client@@QEAA_NPEAVCGameObject@Engine@@@Z 0000000140205a40 f   Character.obj
 0002:0014cbe0       ?FinishCheckPlay@CCharacter@Client@@AEAA_NW4CLIP@12@W4TYPE@CAnimation@Engine@@@Z 0000000140205be0 f   Character.obj
 0002:0014cc80       ?ForwardRotaion@CCharacter@Client@@AEAAXN@Z 0000000140205c80 f   Character.obj
 0002:0014cfc0       ?Free@CCharacter@Client@@UEAAXXZ 0000000140205fc0 f   Character.obj
 0002:0014d140       ?Freeze@CCharacter@Client@@QEAANN@Z 0000000140206140 f   Character.obj
 0002:0014d500       ?GetBodyCollider@CEnemy@Client@@QEAAPEAVCCollider@Engine@@XZ 0000000140206500 f i Character.obj
 0002:0014d550       ?GetBone@CCharacter@Client@@QEBAPEBVCBone@Engine@@PEBD@Z 0000000140206550 f   Character.obj
 0002:0014d5c0       ?Hit@CCharacter@Client@@QEAAXXZ 00000001402065c0 f   Character.obj
 0002:0014d800       ?Idle@CCharacter@Client@@AEAAXXZ 0000000140206800 f   Character.obj
 0002:0014d860       ?Initialize@CCharacter@Client@@UEAAJPEAX@Z 0000000140206860 f   Character.obj
 0002:0014da00       ?Initialize_Prototype@CCharacter@Client@@UEAAJXZ 0000000140206a00 f   Character.obj
 0002:0014dac0       ?InputMove@CCharacter@Client@@AEAAXN@Z 0000000140206ac0 f   Character.obj
 0002:0014df50       ?KeyInput@CCharacter@Client@@AEAAXN@Z 0000000140206f50 f   Character.obj
 0002:0014e4e0       ?LateTick@CCharacter@Client@@UEAAXN@Z 00000001402074e0 f   Character.obj
 0002:0014ed10       ?LeftRotation@CCharacter@Client@@AEAAXN@Z 0000000140207d10 f   Character.obj
 0002:0014f040       ?LockOnCameraPosition@CCharacter@Client@@QEAA?AUXMFLOAT3@DirectX@@XZ 0000000140208040 f   Character.obj
 0002:0014f290       ?MoveStop@CCharacter@Client@@AEAAXN@Z 0000000140208290 f   Character.obj
 0002:0014f370       ?Movement@CCharacter@Client@@AEAAXN@Z 0000000140208370 f   Character.obj
 0002:0014f520       ?NearTargetChange@CCharacter@Client@@QEAAXXZ 0000000140208520 f   Character.obj
 0002:0014f800       ?OnCollisionEnter@CCharacter@Client@@UEAAXPEAVCCollider@Engine@@0@Z 0000000140208800 f   Character.obj
 0002:0014f9d0       ?OnCollisionExit@CCharacter@Client@@UEAAXPEAVCCollider@Engine@@0@Z 00000001402089d0 f   Character.obj
 0002:0014fc00       ?OnCollisionStay@CCharacter@Client@@UEAAXPEAVCCollider@Engine@@0@Z 0000000140208c00 f   Character.obj
 0002:00150200       ?PositionHold@CCharacter@Client@@AEAAXN@Z 0000000140209200 f   Character.obj
 0002:00150250       ?RecvDamage@CCharacter@Client@@QEAAXM@Z 0000000140209250 f   Character.obj
 0002:001502f0       ?Render@CCharacter@Client@@UEAAJXZ 00000001402092f0 f   Character.obj
 0002:001504e0       ?RenderGUI@CCharacter@Client@@UEAAXXZ 00000001402094e0 f   Character.obj
 0002:001505d0       ?RightRotation@CCharacter@Client@@AEAAXN@Z 00000001402095d0 f   Character.obj
 0002:00150920       ?SavePrevPos@CCharacter@Client@@QEAAXXZ 0000000140209920 f   Character.obj
 0002:00150a20       ?SetAnimation@CCharacter@Client@@AEAAXW4CLIP@12@W4TYPE@CAnimation@Engine@@@Z 0000000140209a20 f   Character.obj
 0002:00150aa0       ?SetFreeze@CApplicationManager@Client@@QEAAX_N@Z 0000000140209aa0 f i Character.obj
 0002:00150b00       ?SetPlayerPrevPosition@CApplicationManager@Client@@QEAAXUXMFLOAT3@DirectX@@@Z 0000000140209b00 f i Character.obj
 0002:00150b70       ?SetupShaderResources@CCharacter@Client@@AEAAJXZ 0000000140209b70 f   Character.obj
 0002:00150e60       ?SkillA@CCharacter@Client@@AEAAXN@Z 0000000140209e60 f   Character.obj
 0002:00150ef0       ?SkillB@CCharacter@Client@@AEAAXN@Z 0000000140209ef0 f   Character.obj
 0002:00150f70       ?SkillC@CCharacter@Client@@AEAAXN@Z 0000000140209f70 f   Character.obj
 0002:00150ff0       ?SkillColliderControl@CCharacter@Client@@AEAAXN@Z 0000000140209ff0 f   Character.obj
 0002:00151090       ?TargetListDeastroyCehck@CCharacter@Client@@QEAAXXZ 000000014020a090 f   Character.obj
 0002:001512e0       ?Tick@CCharacter@Client@@UEAAXN@Z 000000014020a2e0 f   Character.obj
 0002:001515a0       ?XMConvertToRadians@DirectX@@YAMM@Z 000000014020a5a0 f i Character.obj
 0002:001515f0       ?XMVectorSetY@DirectX@@YQ?AT__m128@@T2@M@Z 000000014020a5f0 f i Character.obj
 0002:001516e0       ?_Adopt@_Iterator_base0@std@@QEAAXPEBX@Z 000000014020a6e0 f i Character.obj
 0002:00151730       ?_Adopt@_Iterator_base12@std@@QEAAXPEBU_Container_base12@2@@Z 000000014020a730 f i Character.obj
 0002:001518a0       ?_Alloc_proxy@?$_List_alloc@U?$_List_base_types@PEAVCEnemy@Client@@V?$allocator@PEAVCEnemy@Client@@@std@@@std@@@std@@QEAAXXZ 000000014020a8a0 f i Character.obj
 0002:00151a00       ?_Alloc_proxy@?$_Vector_alloc@U?$_Vec_base_types@UtagOverlapInfo@CCharacter@Client@@V?$allocator@UtagOverlapInfo@CCharacter@Client@@@std@@@std@@@std@@QEAAXXZ 000000014020aa00 f i Character.obj
 0002:00151b60       ?_Buyheadnode@?$_List_alloc@U?$_List_base_types@PEAVCEnemy@Client@@V?$allocator@PEAVCEnemy@Client@@@std@@@std@@@std@@QEAAPEAU?$_List_node@PEAVCEnemy@Client@@PEAX@2@XZ 000000014020ab60 f i Character.obj
 0002:00151bc0       ?_Buynode0@?$_List_alloc@U?$_List_base_types@PEAVCEnemy@Client@@V?$allocator@PEAVCEnemy@Client@@@std@@@std@@@std@@QEAAPEAU?$_List_node@PEAVCEnemy@Client@@PEAX@2@PEAU32@0@Z 000000014020abc0 f i Character.obj
 0002:00151d30       ?_Clrcont@_Iterator_base12@std@@QEAAXXZ 000000014020ad30 f i Character.obj
 0002:00151d80       ?_Destroy@?$vector@UtagOverlapInfo@CCharacter@Client@@V?$allocator@UtagOverlapInfo@CCharacter@Client@@@std@@@std@@IEAAXPEAUtagOverlapInfo@CCharacter@Client@@0@Z 000000014020ad80 f i Character.obj
 0002:00151e00       ?_Free_proxy@?$_List_alloc@U?$_List_base_types@PEAVCEnemy@Client@@V?$allocator@PEAVCEnemy@Client@@@std@@@std@@@std@@QEAAXXZ 000000014020ae00 f i Character.obj
 0002:00151f20       ?_Free_proxy@?$_Vector_alloc@U?$_Vec_base_types@UtagOverlapInfo@CCharacter@Client@@V?$allocator@UtagOverlapInfo@CCharacter@Client@@@std@@@std@@@std@@QEAAXXZ 000000014020af20 f i Character.obj
 0002:00152040       ?_Freeheadnode@?$_List_alloc@U?$_List_base_types@PEAVCEnemy@Client@@V?$allocator@PEAVCEnemy@Client@@@std@@@std@@@std@@QEAAXPEAU?$_List_node@PEAVCEnemy@Client@@PEAX@2@@Z 000000014020b040 f i Character.obj
 0002:00152140       ?_Freenode@?$_List_buy@PEAVCEnemy@Client@@V?$allocator@PEAVCEnemy@Client@@@std@@@std@@QEAAXPEAU?$_List_node@PEAVCEnemy@Client@@PEAX@2@@Z 000000014020b140 f i Character.obj
 0002:00152290       ?_Get_data@?$_List_alloc@U?$_List_base_types@PEAVCEnemy@Client@@V?$allocator@PEAVCEnemy@Client@@@std@@@std@@@std@@QEAAAEAV?$_List_val@U?$_List_simple_types@PEAVCEnemy@Client@@@std@@@2@XZ 000000014020b290 f i Character.obj
 0002:001522f0       ?_Get_data@?$_List_alloc@U?$_List_base_types@PEAVCEnemy@Client@@V?$allocator@PEAVCEnemy@Client@@@std@@@std@@@std@@QEBAAEBV?$_List_val@U?$_List_simple_types@PEAVCEnemy@Client@@@std@@@2@XZ 000000014020b2f0 f i Character.obj
 0002:00152350       ?_Get_data@?$_Vector_alloc@U?$_Vec_base_types@UtagOverlapInfo@CCharacter@Client@@V?$allocator@UtagOverlapInfo@CCharacter@Client@@@std@@@std@@@std@@QEAAAEAV?$_Vector_val@U?$_Simple_types@UtagOverlapInfo@CCharacter@Client@@@std@@@2@XZ 000000014020b350 f i Character.obj
 0002:001523b0       ?_Get_first@?$_Compressed_pair@U?$_Wrap_alloc@V?$allocator@U?$_List_node@PEAVCEnemy@Client@@PEAX@std@@@std@@@std@@V?$_List_val@U?$_List_simple_types@PEAVCEnemy@Client@@@std@@@2@$00@std@@QEAAAEAU?$_Wrap_alloc@V?$allocator@U?$_List_node@PEAVCEnemy@Client@@PEAX@std@@@std@@@2@XZ 000000014020b3b0 f i Character.obj
 0002:00152400       ?_Get_first@?$_Compressed_pair@U?$_Wrap_alloc@V?$allocator@U?$_List_node@PEAVCEnemy@Client@@PEAX@std@@@std@@@std@@V?$_List_val@U?$_List_simple_types@PEAVCEnemy@Client@@@std@@@2@$00@std@@QEBAAEBU?$_Wrap_alloc@V?$allocator@U?$_List_node@PEAVCEnemy@Client@@PEAX@std@@@std@@@2@XZ 000000014020b400 f i Character.obj
 0002:00152450       ?_Get_first@?$_Compressed_pair@U?$_Wrap_alloc@V?$allocator@UtagOverlapInfo@CCharacter@Client@@@std@@@std@@V?$_Vector_val@U?$_Simple_types@UtagOverlapInfo@CCharacter@Client@@@std@@@2@$00@std@@QEAAAEAU?$_Wrap_alloc@V?$allocator@UtagOverlapInfo@CCharacter@Client@@@std@@@2@XZ 000000014020b450 f i Character.obj
 0002:001524a0       ?_Get_second@?$_Compressed_pair@U?$_Wrap_alloc@V?$allocator@U?$_List_node@PEAVCEnemy@Client@@PEAX@std@@@std@@@std@@V?$_List_val@U?$_List_simple_types@PEAVCEnemy@Client@@@std@@@2@$00@std@@QEAAAEAV?$_List_val@U?$_List_simple_types@PEAVCEnemy@Client@@@std@@@2@XZ 000000014020b4a0 f i Character.obj
 0002:001524f0       ?_Get_second@?$_Compressed_pair@U?$_Wrap_alloc@V?$allocator@U?$_List_node@PEAVCEnemy@Client@@PEAX@std@@@std@@@std@@V?$_List_val@U?$_List_simple_types@PEAVCEnemy@Client@@@std@@@2@$00@std@@QEBAAEBV?$_List_val@U?$_List_simple_types@PEAVCEnemy@Client@@@std@@@2@XZ 000000014020b4f0 f i Character.obj
 0002:00152540       ?_Get_second@?$_Compressed_pair@U?$_Wrap_alloc@V?$allocator@UtagOverlapInfo@CCharacter@Client@@@std@@@std@@V?$_Vector_val@U?$_Simple_types@UtagOverlapInfo@CCharacter@Client@@@std@@@2@$00@std@@QEAAAEAV?$_Vector_val@U?$_Simple_types@UtagOverlapInfo@CCharacter@Client@@@std@@@2@XZ 000000014020b540 f i Character.obj
 0002:00152590       ?_Getal@?$_List_alloc@U?$_List_base_types@PEAVCEnemy@Client@@V?$allocator@PEAVCEnemy@Client@@@std@@@std@@@std@@QEAAAEAU?$_Wrap_alloc@V?$allocator@U?$_List_node@PEAVCEnemy@Client@@PEAX@std@@@std@@@2@XZ 000000014020b590 f i Character.obj
 0002:001525f0       ?_Getal@?$_List_alloc@U?$_List_base_types@PEAVCEnemy@Client@@V?$allocator@PEAVCEnemy@Client@@@std@@@std@@@std@@QEBAAEBU?$_Wrap_alloc@V?$allocator@U?$_List_node@PEAVCEnemy@Client@@PEAX@std@@@std@@@2@XZ 000000014020b5f0 f i Character.obj
 0002:00152650       ?_Getal@?$_Vector_alloc@U?$_Vec_base_types@UtagOverlapInfo@CCharacter@Client@@V?$allocator@UtagOverlapInfo@CCharacter@Client@@@std@@@std@@@std@@QEAAAEAU?$_Wrap_alloc@V?$allocator@UtagOverlapInfo@CCharacter@Client@@@std@@@2@XZ 000000014020b650 f i Character.obj
 0002:001526b0       ?_Getcont@_Iterator_base12@std@@QEBAPEBU_Container_base12@2@XZ 000000014020b6b0 f i Character.obj
 0002:00152730       ?_Getpfirst@?$_List_alloc@U?$_List_base_types@PEAVCEnemy@Client@@V?$allocator@PEAVCEnemy@Client@@@std@@@std@@@std@@QEBAPEAPEAU_Iterator_base12@2@XZ 000000014020b730 f i Character.obj
 0002:00152790       ?_Getpfirst@_Container_base12@std@@QEBAPEAPEAU_Iterator_base12@2@XZ 000000014020b790 f i Character.obj
 0002:00152820       ?_Getpnext@_Iterator_base12@std@@QEAAPEAPEAU12@XZ 000000014020b820 f i Character.obj
 0002:00152870       ?_Incsize@?$list@PEAVCEnemy@Client@@V?$allocator@PEAVCEnemy@Client@@@std@@@std@@QEAAX_K@Z 000000014020b870 f i Character.obj
 0002:00152950       ?_Make_iter@?$list@PEAVCEnemy@Client@@V?$allocator@PEAVCEnemy@Client@@@std@@@std@@QEBA?AV?$_List_iterator@V?$_List_val@U?$_List_simple_types@PEAVCEnemy@Client@@@std@@@std@@@2@V?$_List_const_iterator@V?$_List_val@U?$_List_simple_types@PEAVCEnemy@Client@@@std@@@std@@@2@@Z 000000014020b950 f i Character.obj
 0002:00152a00       ?_Myend@?$_Vector_alloc@U?$_Vec_base_types@UtagOverlapInfo@CCharacter@Client@@V?$allocator@UtagOverlapInfo@CCharacter@Client@@@std@@@std@@@std@@QEAAAEAPEAUtagOverlapInfo@CCharacter@Client@@XZ 000000014020ba00 f i Character.obj
 0002:00152a60       ?_Myfirst@?$_Vector_alloc@U?$_Vec_base_types@UtagOverlapInfo@CCharacter@Client@@V?$allocator@UtagOverlapInfo@CCharacter@Client@@@std@@@std@@@std@@QEAAAEAPEAUtagOverlapInfo@CCharacter@Client@@XZ 000000014020ba60 f i Character.obj
 0002:00152ac0       ?_Myhead@?$_List_alloc@U?$_List_base_types@PEAVCEnemy@Client@@V?$allocator@PEAVCEnemy@Client@@@std@@@std@@@std@@QEAAAEAPEAU?$_List_node@PEAVCEnemy@Client@@PEAX@2@XZ 000000014020bac0 f i Character.obj
 0002:00152b20       ?_Mylast@?$_Vector_alloc@U?$_Vec_base_types@UtagOverlapInfo@CCharacter@Client@@V?$allocator@UtagOverlapInfo@CCharacter@Client@@@std@@@std@@@std@@QEAAAEAPEAUtagOverlapInfo@CCharacter@Client@@XZ 000000014020bb20 f i Character.obj
 0002:00152b80       ?_Mynode@?$_List_unchecked_const_iterator@V?$_List_val@U?$_List_simple_types@PEAVCEnemy@Client@@@std@@@std@@U_Iterator_base0@2@@std@@QEBAPEAU?$_List_node@PEAVCEnemy@Client@@PEAX@2@XZ 000000014020bb80 f i Character.obj
 0002:00152bd0       ?_Mynode@?$_List_unchecked_const_iterator@V?$_List_val@U?$_List_simple_types@PEAVCEnemy@Client@@@std@@@std@@U_Iterator_base12@2@@std@@QEBAPEAU?$_List_node@PEAVCEnemy@Client@@PEAX@2@XZ 000000014020bbd0 f i Character.obj
 0002:00152c20       ?_Myproxy@?$_List_alloc@U?$_List_base_types@PEAVCEnemy@Client@@V?$allocator@PEAVCEnemy@Client@@@std@@@std@@@std@@QEAAAEAPEAU_Container_proxy@2@XZ 000000014020bc20 f i Character.obj
 0002:00152c70       ?_Myproxy@?$_Vector_alloc@U?$_Vec_base_types@UtagOverlapInfo@CCharacter@Client@@V?$allocator@UtagOverlapInfo@CCharacter@Client@@@std@@@std@@@std@@QEAAAEAPEAU_Container_proxy@2@XZ 000000014020bc70 f i Character.obj
 0002:00152cc0       ?_Mysize@?$_List_alloc@U?$_List_base_types@PEAVCEnemy@Client@@V?$allocator@PEAVCEnemy@Client@@@std@@@std@@@std@@QEAAAEA_KXZ 000000014020bcc0 f i Character.obj
 0002:00152d20       ?_Mysize@?$_List_alloc@U?$_List_base_types@PEAVCEnemy@Client@@V?$allocator@PEAVCEnemy@Client@@@std@@@std@@@std@@QEBAAEB_KXZ 000000014020bd20 f i Character.obj
 0002:00152d80       ?_Myval@?$_List_alloc@U?$_List_base_types@PEAVCEnemy@Client@@V?$allocator@PEAVCEnemy@Client@@@std@@@std@@@std@@SAAEAPEAVCEnemy@Client@@PEAU?$_List_node@PEAVCEnemy@Client@@PEAX@2@@Z 000000014020bd80 f i Character.obj
 0002:00152dd0       ?_Myval@?$_List_val@U?$_List_simple_types@PEAVCEnemy@Client@@@std@@@std@@SAAEAPEAVCEnemy@Client@@PEAU?$_List_node@PEAVCEnemy@Client@@PEAX@2@@Z 000000014020bdd0 f i Character.obj
 0002:00152e20       ?_Nextnode@?$_List_alloc@U?$_List_base_types@PEAVCEnemy@Client@@V?$allocator@PEAVCEnemy@Client@@@std@@@std@@@std@@SAAEAPEAU?$_List_node@PEAVCEnemy@Client@@PEAX@2@PEAU32@@Z 000000014020be20 f i Character.obj
 0002:00152e70       ?_Nextnode@?$_List_val@U?$_List_simple_types@PEAVCEnemy@Client@@@std@@@std@@SAAEAPEAU?$_List_node@PEAVCEnemy@Client@@PEAX@2@PEAU32@@Z 000000014020be70 f i Character.obj
 0002:00152ec0       ?_Orphan_all@?$_List_alloc@U?$_List_base_types@PEAVCEnemy@Client@@V?$allocator@PEAVCEnemy@Client@@@std@@@std@@@std@@QEAAXXZ 000000014020bec0 f i Character.obj
 0002:00152f20       ?_Orphan_all@?$_Vector_alloc@U?$_Vec_base_types@UtagOverlapInfo@CCharacter@Client@@V?$allocator@UtagOverlapInfo@CCharacter@Client@@@std@@@std@@@std@@QEAAXXZ 000000014020bf20 f i Character.obj
 0002:00152f80       ?_Orphan_me@_Iterator_base12@std@@QEAAXXZ 000000014020bf80 f i Character.obj
 0002:00153080       ?_Orphan_ptr@?$list@PEAVCEnemy@Client@@V?$allocator@PEAVCEnemy@Client@@@std@@@std@@QEAAXPEAU?$_List_node@PEAVCEnemy@Client@@PEAX@2@@Z 000000014020c080 f i Character.obj
 0002:00153210       ?_Prevnode@?$_List_alloc@U?$_List_base_types@PEAVCEnemy@Client@@V?$allocator@PEAVCEnemy@Client@@@std@@@std@@@std@@SAAEAPEAU?$_List_node@PEAVCEnemy@Client@@PEAX@2@PEAU32@@Z 000000014020c210 f i Character.obj
 0002:00153260       ?_Prevnode@?$_List_val@U?$_List_simple_types@PEAVCEnemy@Client@@@std@@@std@@SAAEAPEAU?$_List_node@PEAVCEnemy@Client@@PEAX@2@PEAU32@@Z 000000014020c260 f i Character.obj
 0002:001532b0       ?_Tidy@?$list@PEAVCEnemy@Client@@V?$allocator@PEAVCEnemy@Client@@@std@@@std@@QEAAXXZ 000000014020c2b0 f i Character.obj
 0002:00153300       ?_Tidy@?$vector@UtagOverlapInfo@CCharacter@Client@@V?$allocator@UtagOverlapInfo@CCharacter@Client@@@std@@@std@@IEAAXXZ 000000014020c300 f i Character.obj
 0002:00153490       ?_Unchecked_end@?$list@PEAVCEnemy@Client@@V?$allocator@PEAVCEnemy@Client@@@std@@@std@@QEAA?AV?$_List_unchecked_iterator@V?$_List_val@U?$_List_simple_types@PEAVCEnemy@Client@@@std@@@std@@@2@XZ 000000014020c490 f i Character.obj
 0002:00153530       ?_Unlinknode@?$list@PEAVCEnemy@Client@@V?$allocator@PEAVCEnemy@Client@@@std@@@std@@QEAAPEAU?$_List_node@PEAVCEnemy@Client@@PEAX@2@V?$_List_const_iterator@V?$_List_val@U?$_List_simple_types@PEAVCEnemy@Client@@@std@@@std@@@2@@Z 000000014020c530 f i Character.obj
 0002:00153700       ?__autoclassinit2@?$_List_const_iterator@V?$_List_val@U?$_List_simple_types@PEAVCEnemy@Client@@@std@@@std@@@std@@QEAAX_K@Z 000000014020c700 f i Character.obj
 0002:00153760       ?__autoclassinit2@?$_List_iterator@V?$_List_val@U?$_List_simple_types@PEAVCEnemy@Client@@@std@@@std@@@std@@QEAAX_K@Z 000000014020c760 f i Character.obj
 0002:001537c0       ?allocate@?$_Wrap_alloc@V?$allocator@U?$_List_node@PEAVCEnemy@Client@@PEAX@std@@@std@@@std@@QEAAPEAU?$_List_node@PEAVCEnemy@Client@@PEAX@2@_K@Z 000000014020c7c0 f i Character.obj
 0002:00153820       ?allocate@?$allocator@U?$_List_node@PEAVCEnemy@Client@@PEAX@std@@@std@@QEAAPEAU?$_List_node@PEAVCEnemy@Client@@PEAX@2@_K@Z 000000014020c820 f i Character.obj
 0002:00153880       ?begin@?$list@PEAVCEnemy@Client@@V?$allocator@PEAVCEnemy@Client@@@std@@@std@@QEAA?AV?$_List_iterator@V?$_List_val@U?$_List_simple_types@PEAVCEnemy@Client@@@std@@@std@@@2@XZ 000000014020c880 f i Character.obj
 0002:00153940       ?clear@?$list@PEAVCEnemy@Client@@V?$allocator@PEAVCEnemy@Client@@@std@@@std@@QEAAXXZ 000000014020c940 f i Character.obj
 0002:00153ac0       ?deallocate@?$_Wrap_alloc@V?$allocator@U?$_List_node@PEAVCEnemy@Client@@PEAX@std@@@std@@@std@@QEAAXPEAU?$_List_node@PEAVCEnemy@Client@@PEAX@2@_K@Z 000000014020cac0 f i Character.obj
 0002:00153b30       ?deallocate@?$_Wrap_alloc@V?$allocator@UtagOverlapInfo@CCharacter@Client@@@std@@@std@@QEAAXPEAUtagOverlapInfo@CCharacter@Client@@_K@Z 000000014020cb30 f i Character.obj
 0002:00153ba0       ?deallocate@?$allocator@U?$_List_node@PEAVCEnemy@Client@@PEAX@std@@@std@@QEAAXPEAU?$_List_node@PEAVCEnemy@Client@@PEAX@2@_K@Z 000000014020cba0 f i Character.obj
 0002:00153c10       ?deallocate@?$allocator@UtagOverlapInfo@CCharacter@Client@@@std@@QEAAXPEAUtagOverlapInfo@CCharacter@Client@@_K@Z 000000014020cc10 f i Character.obj
 0002:00153c80       ?end@?$list@PEAVCEnemy@Client@@V?$allocator@PEAVCEnemy@Client@@@std@@@std@@QEAA?AV?$_List_iterator@V?$_List_val@U?$_List_simple_types@PEAVCEnemy@Client@@@std@@@std@@@2@XZ 000000014020cc80 f i Character.obj
 0002:00153d30       ?erase@?$list@PEAVCEnemy@Client@@V?$allocator@PEAVCEnemy@Client@@@std@@@std@@QEAA?AV?$_List_iterator@V?$_List_val@U?$_List_simple_types@PEAVCEnemy@Client@@@std@@@std@@@2@V?$_List_const_iterator@V?$_List_val@U?$_List_simple_types@PEAVCEnemy@Client@@@std@@@std@@@2@@Z 000000014020cd30 f i Character.obj
 0002:00153e80       ?max_size@?$_Wrap_alloc@V?$allocator@U?$_List_node@PEAVCEnemy@Client@@PEAX@std@@@std@@@std@@QEBA_KU_Nil@2@@Z 000000014020ce80 f i Character.obj
 0002:00153ee0       ?max_size@?$allocator@U?$_List_node@PEAVCEnemy@Client@@PEAX@std@@@std@@QEBA_KXZ 000000014020cee0 f i Character.obj
 0002:00153f30       ?max_size@?$allocator_traits@V?$allocator@U?$_List_node@PEAVCEnemy@Client@@PEAX@std@@@std@@@std@@SA_KAEBV?$allocator@U?$_List_node@PEAVCEnemy@Client@@PEAX@std@@@2@@Z 000000014020cf30 f i Character.obj
 0002:00153f80       ?max_size@?$list@PEAVCEnemy@Client@@V?$allocator@PEAVCEnemy@Client@@@std@@@std@@QEBA_KXZ 000000014020cf80 f i Character.obj
 0002:00153ff0       ?push_back@?$list@PEAVCEnemy@Client@@V?$allocator@PEAVCEnemy@Client@@@std@@@std@@QEAAXAEBQEAVCEnemy@Client@@@Z 000000014020cff0 f i Character.obj
 0002:00154080       ?size@?$list@PEAVCEnemy@Client@@V?$allocator@PEAVCEnemy@Client@@@std@@@std@@QEBA_KXZ 000000014020d080 f i Character.obj
 0002:001540e0       ??$Safe_Release@PEAVCLevel_BossRoom@Client@@@Engine@@YAKAEAPEAVCLevel_BossRoom@Client@@@Z 000000014020d0e0 f i Level_BossRoom.obj
 0002:00154170       ??0CLevel_BossRoom@Client@@AEAA@PEAUID3D11Device@@PEAUID3D11DeviceContext@@@Z 000000014020d170 f   Level_BossRoom.obj
 0002:00154210       ??0tagCameraDesc@CCamera@Engine@@QEAA@XZ 000000014020d210 f i Level_BossRoom.obj
 0002:001542b0       ??0tagLight_Desc@Engine@@QEAA@XZ 000000014020d2b0 f i Level_BossRoom.obj
 0002:00154380       ??1CLevel_BossRoom@Client@@EEAA@XZ 000000014020d380 f i Level_BossRoom.obj
 0002:001543e0       ??4XMFLOAT4@DirectX@@QEAAAEAU01@AEBU01@@Z 000000014020d3e0 f i Level_BossRoom.obj
 0002:001544b0       ??_GCLevel_BossRoom@Client@@EEAAPEAXI@Z 000000014020d4b0 f i Level_BossRoom.obj
 0002:001544b0       ??_ECLevel_BossRoom@Client@@EEAAPEAXI@Z 000000014020d4b0 f i Level_BossRoom.obj
 0002:00154540       ?Create@CLevel_BossRoom@Client@@SAPEAV12@PEAUID3D11Device@@PEAUID3D11DeviceContext@@@Z 000000014020d540 f   Level_BossRoom.obj
 0002:001546e0       ?Free@CLevel_BossRoom@Client@@UEAAXXZ 000000014020d6e0 f   Level_BossRoom.obj
 0002:00154740       ?Initialize@CLevel_BossRoom@Client@@UEAAJXZ 000000014020d740 f   Level_BossRoom.obj
 0002:00154840       ?Ready_Layer_BackGround@CLevel_BossRoom@Client@@AEAAJPEB_W@Z 000000014020d840 f   Level_BossRoom.obj
 0002:00154920       ?Ready_Layer_Camera@CLevel_BossRoom@Client@@AEAAJPEB_W@Z 000000014020d920 f   Level_BossRoom.obj
 0002:00154bb0       ?Ready_Layer_Enemy@CLevel_BossRoom@Client@@AEAAJPEB_W@Z 000000014020dbb0 f   Level_BossRoom.obj
 0002:00154ca0       ?Ready_Layer_Player@CLevel_BossRoom@Client@@AEAAJPEB_W@Z 000000014020dca0 f   Level_BossRoom.obj
 0002:00154d80       ?Ready_Light@CLevel_BossRoom@Client@@AEAAJXZ 000000014020dd80 f   Level_BossRoom.obj
 0002:00154ff0       ?Tick@CLevel_BossRoom@Client@@UEAAXN@Z 000000014020dff0 f   Level_BossRoom.obj
 0002:00155090       ??$?0$$V@?$_Compressed_pair@U?$_Wrap_alloc@V?$allocator@UtagCubeDesc@CWall@Client@@@std@@@std@@V?$_Vector_val@U?$_Simple_types@UtagCubeDesc@CWall@Client@@@std@@@2@$00@std@@QEAA@U_Zero_then_variadic_args_t@1@@Z 000000014020e090 f i Level_GamePlay.obj
 0002:00155100       ??$?0AEAU?$_Wrap_alloc@V?$allocator@UtagCubeDesc@CWall@Client@@@std@@@std@@@?$_Wrap_alloc@V?$allocator@U_Container_proxy@std@@@std@@@std@@QEAA@AEAU?$_Wrap_alloc@V?$allocator@UtagCubeDesc@CWall@Client@@@std@@@1@@Z 000000014020e100 f i Level_GamePlay.obj
 0002:00155180       ??$?0AEBV?$allocator@_W@std@@$$V@?$_Compressed_pair@U?$_Wrap_alloc@V?$allocator@_W@std@@@std@@V?$_String_val@U?$_Simple_types@_W@std@@@2@$00@std@@QEAA@U_One_then_variadic_args_t@1@AEBV?$allocator@_W@1@@Z 000000014020e180 f i Level_GamePlay.obj
 0002:00155210       ??$?0AEBV?$allocator@_W@std@@@?$_Wrap_alloc@V?$allocator@_W@std@@@std@@QEAA@AEBV?$allocator@_W@1@@Z 000000014020e210 f i Level_GamePlay.obj
 0002:00155290       ??$?0AEBV?$allocator@_W@std@@X@?$_String_alloc@U?$_String_base_types@_WV?$allocator@_W@std@@@std@@@std@@QEAA@AEBV?$allocator@_W@1@@Z 000000014020e290 f i Level_GamePlay.obj
 0002:00155330       ??$?0PEA_WX@?$basic_string@_WU?$char_traits@_W@std@@V?$allocator@_W@2@@std@@QEAA@PEA_W0AEBV?$allocator@_W@1@@Z 000000014020e330 f i Level_GamePlay.obj
 0002:00155460       ??$?0U?$_Wrap_alloc@V?$allocator@_W@std@@@std@@$$V@?$_Compressed_pair@U?$_Wrap_alloc@V?$allocator@_W@std@@@std@@V?$_String_val@U?$_Simple_types@_W@std@@@2@$00@std@@QEAA@U_One_then_variadic_args_t@1@$$QEAU?$_Wrap_alloc@V?$allocator@_W@std@@@1@@Z 000000014020e460 f i Level_GamePlay.obj
 0002:001554f0       ??$?0U?$_Wrap_alloc@V?$allocator@_W@std@@@std@@X@?$_String_alloc@U?$_String_base_types@_WV?$allocator@_W@std@@@std@@@std@@QEAA@$$QEAU?$_Wrap_alloc@V?$allocator@_W@std@@@1@@Z 000000014020e4f0 f i Level_GamePlay.obj
 0002:00155590       ??$?0U?$integral_constant@_N$00@std@@@_Any_tag@std@@QEAA@$$QEAU?$integral_constant@_N$00@1@@Z 000000014020e590 f i Level_GamePlay.obj
 0002:001555e0       ??$?0UtagCubeDesc@CWall@Client@@@?$allocator@U_Container_proxy@std@@@std@@QEAA@AEBV?$allocator@UtagCubeDesc@CWall@Client@@@1@@Z 000000014020e5e0 f i Level_GamePlay.obj
 0002:00155630       ??$?H_WU?$char_traits@_W@std@@V?$allocator@_W@1@@std@@YA?AV?$basic_string@_WU?$char_traits@_W@std@@V?$allocator@_W@2@@0@PEB_W$$QEAV10@@Z 000000014020e630 f i Level_GamePlay.obj
 0002:001556e0       ??$Safe_Release@PEAVCLevel_GamePlay@Client@@@Engine@@YAKAEAPEAVCLevel_GamePlay@Client@@@Z 000000014020e6e0 f i Level_GamePlay.obj
 0002:00155770       ??$_Debug_pointer@_W@std@@YAXPEA_WPEB_WI@Z 000000014020e770 f i Level_GamePlay.obj
 0002:001557f0       ??$_Debug_range2@PEA_W@std@@YAXPEA_W0PEB_WIUrandom_access_iterator_tag@0@@Z 000000014020e7f0 f i Level_GamePlay.obj
 0002:001558d0       ??$_Debug_range@PEA_W@std@@YAXPEA_W0PEB_WI@Z 000000014020e8d0 f i Level_GamePlay.obj
 0002:00155980       ??$_Destroy_range1@V?$allocator@UtagCubeDesc@CWall@Client@@@std@@PEAUtagCubeDesc@CWall@Client@@@std@@YAXPEAUtagCubeDesc@CWall@Client@@0AEAU?$_Wrap_alloc@V?$allocator@UtagCubeDesc@CWall@Client@@@std@@@0@U?$integral_constant@_N$00@0@@Z 000000014020e980 f i Level_GamePlay.obj
 0002:001559e0       ??$_Destroy_range@V?$allocator@UtagCubeDesc@CWall@Client@@@std@@PEAUtagCubeDesc@CWall@Client@@@std@@YAXPEAUtagCubeDesc@CWall@Client@@0AEAU?$_Wrap_alloc@V?$allocator@UtagCubeDesc@CWall@Client@@@std@@@0@@Z 000000014020e9e0 f i Level_GamePlay.obj
 0002:00155a60       ??$_Integral_to_string@_WI@std@@YA?AV?$basic_string@_WU?$char_traits@_W@std@@V?$allocator@_W@2@@0@I@Z 000000014020ea60 f i Level_GamePlay.obj
 0002:00155bd0       ??$_Ptr_move_cat@UtagCubeDesc@CWall@Client@@U123@@std@@YA?AU_General_ptr_iterator_tag@0@AEBQEAUtagCubeDesc@CWall@Client@@0@Z 000000014020ebd0 f i Level_GamePlay.obj
 0002:00155c40       ??$_Rechecked@PEAUtagCubeDesc@CWall@Client@@PEAU123@@std@@YAAEAPEAUtagCubeDesc@CWall@Client@@AEAPEAU123@PEAU123@@Z 000000014020ec40 f i Level_GamePlay.obj
 0002:00155cb0       ??$_UIntegral_to_buff@_WI@std@@YAPEA_WPEA_WI@Z 000000014020ecb0 f i Level_GamePlay.obj
 0002:00155d60       ??$_Umove@PEAUtagCubeDesc@CWall@Client@@@?$vector@UtagCubeDesc@CWall@Client@@V?$allocator@UtagCubeDesc@CWall@Client@@@std@@@std@@IEAAPEAUtagCubeDesc@CWall@Client@@PEAU234@00@Z 000000014020ed60 f i Level_GamePlay.obj
 0002:00155df0       ??$_Unchecked@PEAUtagCubeDesc@CWall@Client@@@std@@YAPEAUtagCubeDesc@CWall@Client@@PEAU123@@Z 000000014020edf0 f i Level_GamePlay.obj
 0002:00155e40       ??$_Unchecked@PEA_W@std@@YAPEA_WPEA_W@Z 000000014020ee40 f i Level_GamePlay.obj
 0002:00155e90       ??$_Unfancy@UtagCubeDesc@CWall@Client@@@std@@YAPEAUtagCubeDesc@CWall@Client@@PEAU123@@Z 000000014020ee90 f i Level_GamePlay.obj
 0002:00155ee0       ??$_Uninitialized_move@PEAUtagCubeDesc@CWall@Client@@PEAU123@V?$allocator@UtagCubeDesc@CWall@Client@@@std@@@std@@YAPEAUtagCubeDesc@CWall@Client@@PEAU123@00AEAU?$_Wrap_alloc@V?$allocator@UtagCubeDesc@CWall@Client@@@std@@@0@@Z 000000014020eee0 f i Level_GamePlay.obj
 0002:00155fc0       ??$_Uninitialized_move_al_unchecked1@PEAUtagCubeDesc@CWall@Client@@PEAU123@V?$allocator@UtagCubeDesc@CWall@Client@@@std@@@std@@YAPEAUtagCubeDesc@CWall@Client@@PEAU123@00AEAU?$_Wrap_alloc@V?$allocator@UtagCubeDesc@CWall@Client@@@std@@@0@U_General_ptr_iterator_tag@0@U_Any_tag@0@@Z 000000014020efc0 f i Level_GamePlay.obj
 0002:001560d0       ??$_Uninitialized_move_al_unchecked@PEAUtagCubeDesc@CWall@Client@@PEAU123@V?$allocator@UtagCubeDesc@CWall@Client@@@std@@@std@@YAPEAUtagCubeDesc@CWall@Client@@PEAU123@00AEAU?$_Wrap_alloc@V?$allocator@UtagCubeDesc@CWall@Client@@@std@@@0@@Z 000000014020f0d0 f i Level_GamePlay.obj
 0002:001561b0       ??$construct@UtagCubeDesc@CWall@Client@@U123@@?$_Wrap_alloc@V?$allocator@UtagCubeDesc@CWall@Client@@@std@@@std@@QEAAXPEAUtagCubeDesc@CWall@Client@@$$QEAU234@@Z 000000014020f1b0 f i Level_GamePlay.obj
 0002:00156230       ??$construct@UtagCubeDesc@CWall@Client@@U123@@?$allocator@UtagCubeDesc@CWall@Client@@@std@@QEAAXPEAUtagCubeDesc@CWall@Client@@$$QEAU234@@Z 000000014020f230 f i Level_GamePlay.obj
 0002:001562f0       ??$construct@UtagCubeDesc@CWall@Client@@U123@@?$allocator_traits@V?$allocator@UtagCubeDesc@CWall@Client@@@std@@@std@@SAXAEAV?$allocator@UtagCubeDesc@CWall@Client@@@1@PEAUtagCubeDesc@CWall@Client@@$$QEAU345@@Z 000000014020f2f0 f i Level_GamePlay.obj
 0002:00156370       ??$end@_W$0BF@@std@@YAPEA_WAEAY0BF@_W@Z 000000014020f370 f i Level_GamePlay.obj
 0002:001563c0       ??$forward@AEAU?$_Wrap_alloc@V?$allocator@UtagCubeDesc@CWall@Client@@@std@@@std@@@std@@YAAEAU?$_Wrap_alloc@V?$allocator@UtagCubeDesc@CWall@Client@@@std@@@0@AEAU10@@Z 000000014020f3c0 f i Level_GamePlay.obj
 0002:00156410       ??$forward@AEBV?$allocator@_W@std@@@std@@YAAEBV?$allocator@_W@0@AEBV10@@Z 000000014020f410 f i Level_GamePlay.obj
 0002:00156460       ??$forward@U?$_Wrap_alloc@V?$allocator@_W@std@@@std@@@std@@YA$$QEAU?$_Wrap_alloc@V?$allocator@_W@std@@@0@AEAU10@@Z 000000014020f460 f i Level_GamePlay.obj
 0002:001564b0       ??$forward@UtagCubeDesc@CWall@Client@@@std@@YA$$QEAUtagCubeDesc@CWall@Client@@AEAU123@@Z 000000014020f4b0 f i Level_GamePlay.obj
 0002:00156500       ??$forward@V?$basic_string@_WU?$char_traits@_W@std@@V?$allocator@_W@2@@std@@@std@@YA$$QEAV?$basic_string@_WU?$char_traits@_W@std@@V?$allocator@_W@2@@0@AEAV10@@Z 000000014020f500 f i Level_GamePlay.obj
 0002:00156550       ??$move@AEAU?$_Wrap_alloc@V?$allocator@_W@std@@@std@@@std@@YA$$QEAU?$_Wrap_alloc@V?$allocator@_W@std@@@0@AEAU10@@Z 000000014020f550 f i Level_GamePlay.obj
 0002:001565a0       ??$move@AEAUtagCubeDesc@CWall@Client@@@std@@YA$$QEAUtagCubeDesc@CWall@Client@@AEAU123@@Z 000000014020f5a0 f i Level_GamePlay.obj
 0002:001565f0       ??$move@AEAV?$basic_string@_WU?$char_traits@_W@std@@V?$allocator@_W@2@@std@@@std@@YA$$QEAV?$basic_string@_WU?$char_traits@_W@std@@V?$allocator@_W@2@@0@AEAV10@@Z 000000014020f5f0 f i Level_GamePlay.obj
 0002:00156640       ??0?$_Vector_alloc@U?$_Vec_base_types@UtagCubeDesc@CWall@Client@@V?$allocator@UtagCubeDesc@CWall@Client@@@std@@@std@@@std@@QEAA@XZ 000000014020f640 f i Level_GamePlay.obj
 0002:001566d0       ??0?$_Vector_val@U?$_Simple_types@UtagCubeDesc@CWall@Client@@@std@@@std@@QEAA@XZ 000000014020f6d0 f i Level_GamePlay.obj
 0002:00156770       ??0?$_Wrap_alloc@V?$allocator@UtagCubeDesc@CWall@Client@@@std@@@std@@QEAA@XZ 000000014020f770 f i Level_GamePlay.obj
 0002:001567d0       ??0?$_Wrap_alloc@V?$allocator@_W@std@@@std@@QEAA@$$QEAU01@@Z 000000014020f7d0 f i Level_GamePlay.obj
 0002:00156850       ??0?$allocator@UtagCubeDesc@CWall@Client@@@std@@QEAA@XZ 000000014020f850 f i Level_GamePlay.obj
 0002:001568a0       ??0?$allocator@_W@std@@QEAA@AEBV01@@Z 000000014020f8a0 f i Level_GamePlay.obj
 0002:001568f0       ??0?$basic_string@_WU?$char_traits@_W@std@@V?$allocator@_W@2@@std@@QEAA@$$QEAV01@@Z 000000014020f8f0 f i Level_GamePlay.obj
 0002:001569c0       ??0?$vector@UtagCubeDesc@CWall@Client@@V?$allocator@UtagCubeDesc@CWall@Client@@@std@@@std@@QEAA@XZ 000000014020f9c0 f i Level_GamePlay.obj
 0002:00156a30       ??0CLevel_GamePlay@Client@@AEAA@PEAUID3D11Device@@PEAUID3D11DeviceContext@@@Z 000000014020fa30 f   Level_GamePlay.obj
 0002:00156ad0       ??1?$_Compressed_pair@U?$_Wrap_alloc@V?$allocator@UtagCubeDesc@CWall@Client@@@std@@@std@@V?$_Vector_val@U?$_Simple_types@UtagCubeDesc@CWall@Client@@@std@@@2@$00@std@@QEAA@XZ 000000014020fad0 f i Level_GamePlay.obj
 0002:00156b30       ??1?$_Vector_alloc@U?$_Vec_base_types@UtagCubeDesc@CWall@Client@@V?$allocator@UtagCubeDesc@CWall@Client@@@std@@@std@@@std@@QEAA@XZ 000000014020fb30 f i Level_GamePlay.obj
 0002:00156bb0       ??1?$_Vector_val@U?$_Simple_types@UtagCubeDesc@CWall@Client@@@std@@@std@@QEAA@XZ 000000014020fbb0 f i Level_GamePlay.obj
 0002:00156c00       ??1?$vector@UtagCubeDesc@CWall@Client@@V?$allocator@UtagCubeDesc@CWall@Client@@@std@@@std@@QEAA@XZ 000000014020fc00 f i Level_GamePlay.obj
 0002:00156c70       ??1CLevel_GamePlay@Client@@EEAA@XZ 000000014020fc70 f i Level_GamePlay.obj
 0002:00156cd0       ??A?$vector@UtagCubeDesc@CWall@Client@@V?$allocator@UtagCubeDesc@CWall@Client@@@std@@@std@@QEAAAEAUtagCubeDesc@CWall@Client@@_K@Z 000000014020fcd0 f i Level_GamePlay.obj
 0002:00156e10       ??_GCLevel_GamePlay@Client@@EEAAPEAXI@Z 000000014020fe10 f i Level_GamePlay.obj
 0002:00156e10       ??_ECLevel_GamePlay@Client@@EEAAPEAXI@Z 000000014020fe10 f i Level_GamePlay.obj
 0002:00156ea0       ?Create@CLevel_GamePlay@Client@@SAPEAV12@PEAUID3D11Device@@PEAUID3D11DeviceContext@@@Z 000000014020fea0 f   Level_GamePlay.obj
 0002:00157040       ?Free@CLevel_GamePlay@Client@@UEAAXXZ 0000000140210040 f   Level_GamePlay.obj
 0002:001570a0       ?Initialize@CLevel_GamePlay@Client@@UEAAJXZ 00000001402100a0 f   Level_GamePlay.obj
 0002:001571f0       ?Ready_Layer_BackGround@CLevel_GamePlay@Client@@AEAAJPEB_W@Z 00000001402101f0 f   Level_GamePlay.obj
 0002:00157350       ?Ready_Layer_Camera@CLevel_GamePlay@Client@@AEAAJPEB_W@Z 0000000140210350 f   Level_GamePlay.obj
 0002:001575e0       ?Ready_Layer_Effect@CLevel_GamePlay@Client@@AEAAJPEB_W@Z 00000001402105e0 f   Level_GamePlay.obj
 0002:001576d0       ?Ready_Layer_Enemy@CLevel_GamePlay@Client@@AEAAJPEB_W@Z 00000001402106d0 f   Level_GamePlay.obj
 0002:00157a00       ?Ready_Layer_Player@CLevel_GamePlay@Client@@AEAAJPEB_W@Z 0000000140210a00 f   Level_GamePlay.obj
 0002:00157ae0       ?Ready_Layer_Wall@CLevel_GamePlay@Client@@AEAAJPEB_W@Z 0000000140210ae0 f   Level_GamePlay.obj
 0002:00157d80       ?Ready_Light@CLevel_GamePlay@Client@@AEAAJXZ 0000000140210d80 f   Level_GamePlay.obj
 0002:00157ff0       ?Tick@CLevel_GamePlay@Client@@UEAAXN@Z 0000000140210ff0 f   Level_GamePlay.obj
 0002:001580f0       ?_Alloc_proxy@?$_Vector_alloc@U?$_Vec_base_types@UtagCubeDesc@CWall@Client@@V?$allocator@UtagCubeDesc@CWall@Client@@@std@@@std@@@std@@QEAAXXZ 00000001402110f0 f i Level_GamePlay.obj
 0002:00158250       ?_Assign_rv@?$basic_string@_WU?$char_traits@_W@std@@V?$allocator@_W@2@@std@@QEAAX$$QEAV12@@Z 0000000140211250 f i Level_GamePlay.obj
 0002:00158420       ?_Construct@?$basic_string@_WU?$char_traits@_W@std@@V?$allocator@_W@2@@std@@QEAAXPEA_W0Urandom_access_iterator_tag@2@@Z 0000000140211420 f i Level_GamePlay.obj
 0002:001584c0       ?_Destroy@?$vector@UtagCubeDesc@CWall@Client@@V?$allocator@UtagCubeDesc@CWall@Client@@@std@@@std@@IEAAXPEAUtagCubeDesc@CWall@Client@@0@Z 00000001402114c0 f i Level_GamePlay.obj
 0002:00158540       ?_Free_proxy@?$_Vector_alloc@U?$_Vec_base_types@UtagCubeDesc@CWall@Client@@V?$allocator@UtagCubeDesc@CWall@Client@@@std@@@std@@@std@@QEAAXXZ 0000000140211540 f i Level_GamePlay.obj
 0002:00158660       ?_Get_data@?$_Vector_alloc@U?$_Vec_base_types@UtagCubeDesc@CWall@Client@@V?$allocator@UtagCubeDesc@CWall@Client@@@std@@@std@@@std@@QEAAAEAV?$_Vector_val@U?$_Simple_types@UtagCubeDesc@CWall@Client@@@std@@@2@XZ 0000000140211660 f i Level_GamePlay.obj
 0002:001586c0       ?_Get_data@?$_Vector_alloc@U?$_Vec_base_types@UtagCubeDesc@CWall@Client@@V?$allocator@UtagCubeDesc@CWall@Client@@@std@@@std@@@std@@QEBAAEBV?$_Vector_val@U?$_Simple_types@UtagCubeDesc@CWall@Client@@@std@@@2@XZ 00000001402116c0 f i Level_GamePlay.obj
 0002:00158720       ?_Get_first@?$_Compressed_pair@U?$_Wrap_alloc@V?$allocator@UtagCubeDesc@CWall@Client@@@std@@@std@@V?$_Vector_val@U?$_Simple_types@UtagCubeDesc@CWall@Client@@@std@@@2@$00@std@@QEAAAEAU?$_Wrap_alloc@V?$allocator@UtagCubeDesc@CWall@Client@@@std@@@2@XZ 0000000140211720 f i Level_GamePlay.obj
 0002:00158770       ?_Get_first@?$_Compressed_pair@U?$_Wrap_alloc@V?$allocator@UtagCubeDesc@CWall@Client@@@std@@@std@@V?$_Vector_val@U?$_Simple_types@UtagCubeDesc@CWall@Client@@@std@@@2@$00@std@@QEBAAEBU?$_Wrap_alloc@V?$allocator@UtagCubeDesc@CWall@Client@@@std@@@2@XZ 0000000140211770 f i Level_GamePlay.obj
 0002:001587c0       ?_Get_second@?$_Compressed_pair@U?$_Wrap_alloc@V?$allocator@UtagCubeDesc@CWall@Client@@@std@@@std@@V?$_Vector_val@U?$_Simple_types@UtagCubeDesc@CWall@Client@@@std@@@2@$00@std@@QEAAAEAV?$_Vector_val@U?$_Simple_types@UtagCubeDesc@CWall@Client@@@std@@@2@XZ 00000001402117c0 f i Level_GamePlay.obj
 0002:00158810       ?_Get_second@?$_Compressed_pair@U?$_Wrap_alloc@V?$allocator@UtagCubeDesc@CWall@Client@@@std@@@std@@V?$_Vector_val@U?$_Simple_types@UtagCubeDesc@CWall@Client@@@std@@@2@$00@std@@QEBAAEBV?$_Vector_val@U?$_Simple_types@UtagCubeDesc@CWall@Client@@@std@@@2@XZ 0000000140211810 f i Level_GamePlay.obj
 0002:00158860       ?_Getal@?$_Vector_alloc@U?$_Vec_base_types@UtagCubeDesc@CWall@Client@@V?$allocator@UtagCubeDesc@CWall@Client@@@std@@@std@@@std@@QEAAAEAU?$_Wrap_alloc@V?$allocator@UtagCubeDesc@CWall@Client@@@std@@@2@XZ 0000000140211860 f i Level_GamePlay.obj
 0002:001588c0       ?_Getal@?$_Vector_alloc@U?$_Vec_base_types@UtagCubeDesc@CWall@Client@@V?$allocator@UtagCubeDesc@CWall@Client@@@std@@@std@@@std@@QEBAAEBU?$_Wrap_alloc@V?$allocator@UtagCubeDesc@CWall@Client@@@std@@@2@XZ 00000001402118c0 f i Level_GamePlay.obj
 0002:00158920       ?_Myend@?$_Vector_alloc@U?$_Vec_base_types@UtagCubeDesc@CWall@Client@@V?$allocator@UtagCubeDesc@CWall@Client@@@std@@@std@@@std@@QEAAAEAPEAUtagCubeDesc@CWall@Client@@XZ 0000000140211920 f i Level_GamePlay.obj
 0002:00158980       ?_Myend@?$_Vector_alloc@U?$_Vec_base_types@UtagCubeDesc@CWall@Client@@V?$allocator@UtagCubeDesc@CWall@Client@@@std@@@std@@@std@@QEBAAEBQEAUtagCubeDesc@CWall@Client@@XZ 0000000140211980 f i Level_GamePlay.obj
 0002:001589e0       ?_Myfirst@?$_Vector_alloc@U?$_Vec_base_types@UtagCubeDesc@CWall@Client@@V?$allocator@UtagCubeDesc@CWall@Client@@@std@@@std@@@std@@QEAAAEAPEAUtagCubeDesc@CWall@Client@@XZ 00000001402119e0 f i Level_GamePlay.obj
 0002:00158a40       ?_Myfirst@?$_Vector_alloc@U?$_Vec_base_types@UtagCubeDesc@CWall@Client@@V?$allocator@UtagCubeDesc@CWall@Client@@@std@@@std@@@std@@QEBAAEBQEAUtagCubeDesc@CWall@Client@@XZ 0000000140211a40 f i Level_GamePlay.obj
 0002:00158aa0       ?_Mylast@?$_Vector_alloc@U?$_Vec_base_types@UtagCubeDesc@CWall@Client@@V?$allocator@UtagCubeDesc@CWall@Client@@@std@@@std@@@std@@QEAAAEAPEAUtagCubeDesc@CWall@Client@@XZ 0000000140211aa0 f i Level_GamePlay.obj
 0002:00158b00       ?_Mylast@?$_Vector_alloc@U?$_Vec_base_types@UtagCubeDesc@CWall@Client@@V?$allocator@UtagCubeDesc@CWall@Client@@@std@@@std@@@std@@QEBAAEBQEAUtagCubeDesc@CWall@Client@@XZ 0000000140211b00 f i Level_GamePlay.obj
 0002:00158b60       ?_Myproxy@?$_Vector_alloc@U?$_Vec_base_types@UtagCubeDesc@CWall@Client@@V?$allocator@UtagCubeDesc@CWall@Client@@@std@@@std@@@std@@QEAAAEAPEAU_Container_proxy@2@XZ 0000000140211b60 f i Level_GamePlay.obj
 0002:00158bb0       ?_Orphan_all@?$_Vector_alloc@U?$_Vec_base_types@UtagCubeDesc@CWall@Client@@V?$allocator@UtagCubeDesc@CWall@Client@@@std@@@std@@@std@@QEAAXXZ 0000000140211bb0 f i Level_GamePlay.obj
 0002:00158c10       ?_Reallocate@?$vector@UtagCubeDesc@CWall@Client@@V?$allocator@UtagCubeDesc@CWall@Client@@@std@@@std@@IEAAX_K@Z 0000000140211c10 f i Level_GamePlay.obj
 0002:00158e90       ?_Tidy@?$vector@UtagCubeDesc@CWall@Client@@V?$allocator@UtagCubeDesc@CWall@Client@@@std@@@std@@IEAAXXZ 0000000140211e90 f i Level_GamePlay.obj
 0002:00159030       ?_Xlen@?$vector@UtagCubeDesc@CWall@Client@@V?$allocator@UtagCubeDesc@CWall@Client@@@std@@@std@@IEBAXXZ 0000000140212030 f i Level_GamePlay.obj
 0002:00159090       ?__autoclassinit2@?$vector@UtagCubeDesc@CWall@Client@@V?$allocator@UtagCubeDesc@CWall@Client@@@std@@@std@@QEAAX_K@Z 0000000140212090 f i Level_GamePlay.obj
 0002:001590f0       ?allocate@?$_Wrap_alloc@V?$allocator@UtagCubeDesc@CWall@Client@@@std@@@std@@QEAAPEAUtagCubeDesc@CWall@Client@@_K@Z 00000001402120f0 f i Level_GamePlay.obj
 0002:00159150       ?allocate@?$allocator@UtagCubeDesc@CWall@Client@@@std@@QEAAPEAUtagCubeDesc@CWall@Client@@_K@Z 0000000140212150 f i Level_GamePlay.obj
 0002:001591b0       ?capacity@?$vector@UtagCubeDesc@CWall@Client@@V?$allocator@UtagCubeDesc@CWall@Client@@@std@@@std@@QEBA_KXZ 00000001402121b0 f i Level_GamePlay.obj
 0002:00159240       ?deallocate@?$_Wrap_alloc@V?$allocator@UtagCubeDesc@CWall@Client@@@std@@@std@@QEAAXPEAUtagCubeDesc@CWall@Client@@_K@Z 0000000140212240 f i Level_GamePlay.obj
 0002:001592b0       ?deallocate@?$allocator@UtagCubeDesc@CWall@Client@@@std@@QEAAXPEAUtagCubeDesc@CWall@Client@@_K@Z 00000001402122b0 f i Level_GamePlay.obj
 0002:00159320       ?insert@?$basic_string@_WU?$char_traits@_W@std@@V?$allocator@_W@2@@std@@QEAAAEAV12@_KAEBV12@00@Z 0000000140212320 f i Level_GamePlay.obj
 0002:00159640       ?insert@?$basic_string@_WU?$char_traits@_W@std@@V?$allocator@_W@2@@std@@QEAAAEAV12@_KPEB_W0@Z 0000000140212640 f i Level_GamePlay.obj
 0002:00159900       ?insert@?$basic_string@_WU?$char_traits@_W@std@@V?$allocator@_W@2@@std@@QEAAAEAV12@_KPEB_W@Z 0000000140212900 f i Level_GamePlay.obj
 0002:001599a0       ?max_size@?$_Wrap_alloc@V?$allocator@UtagCubeDesc@CWall@Client@@@std@@@std@@QEBA_KU_Nil@2@@Z 00000001402129a0 f i Level_GamePlay.obj
 0002:00159a00       ?max_size@?$allocator@UtagCubeDesc@CWall@Client@@@std@@QEBA_KXZ 0000000140212a00 f i Level_GamePlay.obj
 0002:00159a50       ?max_size@?$allocator_traits@V?$allocator@UtagCubeDesc@CWall@Client@@@std@@@std@@SA_KAEBV?$allocator@UtagCubeDesc@CWall@Client@@@2@@Z 0000000140212a50 f i Level_GamePlay.obj
 0002:00159aa0       ?max_size@?$vector@UtagCubeDesc@CWall@Client@@V?$allocator@UtagCubeDesc@CWall@Client@@@std@@@std@@QEBA_KXZ 0000000140212aa0 f i Level_GamePlay.obj
 0002:00159b10       ?reserve@?$vector@UtagCubeDesc@CWall@Client@@V?$allocator@UtagCubeDesc@CWall@Client@@@std@@@std@@QEAAX_K@Z 0000000140212b10 f i Level_GamePlay.obj
 0002:00159bc0       ?size@?$vector@UtagCubeDesc@CWall@Client@@V?$allocator@UtagCubeDesc@CWall@Client@@@std@@@std@@QEBA_KXZ 0000000140212bc0 f i Level_GamePlay.obj
 0002:00159c50       ?to_wstring@std@@YA?AV?$basic_string@_WU?$char_traits@_W@std@@V?$allocator@_W@2@@1@I@Z 0000000140212c50 f i Level_GamePlay.obj
 0002:00159ce0       ??$?0V?$allocator@_W@std@@@?$_Wrap_alloc@V?$allocator@_W@std@@@std@@QEAA@$$QEAV?$allocator@_W@1@@Z 0000000140212ce0 f i Level_Loading.obj
 0002:00159d60       ??$Safe_Release@PEAVCLevel_Loading@Client@@@Engine@@YAKAEAPEAVCLevel_Loading@Client@@@Z 0000000140212d60 f i Level_Loading.obj
 0002:00159df0       ??$Safe_Release@PEAVCLoader@Client@@@Engine@@YAKAEAPEAVCLoader@Client@@@Z 0000000140212df0 f i Level_Loading.obj
 0002:00159e80       ??$forward@V?$allocator@_W@std@@@std@@YA$$QEAV?$allocator@_W@0@AEAV10@@Z 0000000140212e80 f i Level_Loading.obj
 0002:00159ed0       ??0?$basic_string@_WU?$char_traits@_W@std@@V?$allocator@_W@2@@std@@QEAA@AEBV01@@Z 0000000140212ed0 f i Level_Loading.obj
 0002:00159fb0       ??0CLevel_Loading@Client@@AEAA@PEAUID3D11Device@@PEAUID3D11DeviceContext@@@Z 0000000140212fb0 f   Level_Loading.obj
 0002:0015a080       ??1CLevel_Loading@Client@@EEAA@XZ 0000000140213080 f i Level_Loading.obj
 0002:0015a0e0       ??_ECLevel_Loading@Client@@EEAAPEAXI@Z 00000001402130e0 f i Level_Loading.obj
 0002:0015a0e0       ??_GCLevel_Loading@Client@@EEAAPEAXI@Z 00000001402130e0 f i Level_Loading.obj
 0002:0015a170       ?Create@CLevel_Loading@Client@@SAPEAV12@PEAUID3D11Device@@PEAUID3D11DeviceContext@@W4LEVEL_ID@2@@Z 0000000140213170 f   Level_Loading.obj
 0002:0015a320       ?Free@CLevel_Loading@Client@@UEAAXXZ 0000000140213320 f   Level_Loading.obj
 0002:0015a390       ?GetLoadingStateText@CLoader@Client@@QEBA?AV?$basic_string@_WU?$char_traits@_W@std@@V?$allocator@_W@2@@std@@XZ 0000000140213390 f i Level_Loading.obj
 0002:0015a420       ?Initialize@CLevel_Loading@Client@@UEAAJW4LEVEL_ID@2@@Z 0000000140213420 f   Level_Loading.obj
 0002:0015a580       ?IsFinished@CLoader@Client@@QEBA_NXZ 0000000140213580 f i Level_Loading.obj
 0002:0015a5d0       ?Tick@CLevel_Loading@Client@@UEAAXN@Z 00000001402135d0 f   Level_Loading.obj
 0002:0015a860       ?append@?$basic_string@_WU?$char_traits@_W@std@@V?$allocator@_W@2@@std@@QEAAAEAV12@AEBV12@@Z 0000000140213860 f i Level_Loading.obj
 0002:0015a8d0       ?append@?$basic_string@_WU?$char_traits@_W@std@@V?$allocator@_W@2@@std@@QEAAAEAV12@AEBV12@_K1@Z 00000001402138d0 f i Level_Loading.obj
 0002:0015aa90       ?select_on_container_copy_construction@?$_Wrap_alloc@V?$allocator@_W@std@@@std@@QEBA?AU12@U_Nil@2@@Z 0000000140213a90 f i Level_Loading.obj
 0002:0015ab10       ?select_on_container_copy_construction@?$allocator_traits@V?$allocator@_W@std@@@std@@SA?AV?$allocator@_W@2@AEBV32@@Z 0000000140213b10 f i Level_Loading.obj
 0002:0015ab80       ??$Safe_Release@PEAVCLevel_Logo@Client@@@Engine@@YAKAEAPEAVCLevel_Logo@Client@@@Z 0000000140213b80 f i Level_Logo.obj
 0002:0015ac10       ??0CLevel_Logo@Client@@AEAA@PEAUID3D11Device@@PEAUID3D11DeviceContext@@@Z 0000000140213c10 f   Level_Logo.obj
 0002:0015aca0       ??1CLevel_Logo@Client@@EEAA@XZ 0000000140213ca0 f i Level_Logo.obj
 0002:0015ad00       ??_GCLevel_Logo@Client@@EEAAPEAXI@Z 0000000140213d00 f i Level_Logo.obj
 0002:0015ad00       ??_ECLevel_Logo@Client@@EEAAPEAXI@Z 0000000140213d00 f i Level_Logo.obj
 0002:0015ad90       ?Create@CLevel_Logo@Client@@SAPEAV12@PEAUID3D11Device@@PEAUID3D11DeviceContext@@@Z 0000000140213d90 f   Level_Logo.obj
 0002:0015af30       ?Free@CLevel_Logo@Client@@UEAAXXZ 0000000140213f30 f   Level_Logo.obj
 0002:0015af90       ?Initialize@CLevel_Logo@Client@@UEAAJXZ 0000000140213f90 f   Level_Logo.obj
 0002:0015b000       ?Ready_Layer_BackGround@CLevel_Logo@Client@@AEAAJPEB_W@Z 0000000140214000 f   Level_Logo.obj
 0002:0015b0e0       ?Tick@CLevel_Logo@Client@@UEAAXN@Z 00000001402140e0 f   Level_Logo.obj
 0002:0015b1e0       ??0CLoader@Client@@AEAA@PEAUID3D11Device@@PEAUID3D11DeviceContext@@@Z 00000001402141e0 f   Loader.obj
 0002:0015b2f0       ??1CLoader@Client@@EEAA@XZ 00000001402142f0 f i Loader.obj
 0002:0015b360       ??4XMMATRIX@DirectX@@QEAAAEAU01@AEBU01@@Z 0000000140214360 f i Loader.obj
 0002:0015b480       ??_ECLoader@Client@@EEAAPEAXI@Z 0000000140214480 f i Loader.obj
 0002:0015b480       ??_GCLoader@Client@@EEAAPEAXI@Z 0000000140214480 f i Loader.obj
 0002:0015b510       ?Create@CLoader@Client@@SAPEAV12@PEAUID3D11Device@@PEAUID3D11DeviceContext@@W4LEVEL_ID@2@@Z 0000000140214510 f   Loader.obj
 0002:0015b6c0       ?Free@CLoader@Client@@UEAAXXZ 00000001402146c0 f   Loader.obj
 0002:0015b780       ?Get_CriticalSectionPtr@CLoader@Client@@QEAAPEAU_RTL_CRITICAL_SECTION@@XZ 0000000140214780 f i Loader.obj
 0002:0015b7d0       ?Get_NextLevel@CLoader@Client@@QEBA?AW4LEVEL_ID@2@XZ 00000001402147d0 f i Loader.obj
 0002:0015b820       ?Initialize@CLoader@Client@@QEAAJW4LEVEL_ID@2@@Z 0000000140214820 f   Loader.obj
 0002:0015b900       ?Load_Level_BossRoom@CLoader@Client@@QEAAJXZ 0000000140214900 f   Loader.obj
 0002:0015c190       ?Load_Level_GamePlay@CLoader@Client@@QEAAJXZ 0000000140215190 f   Loader.obj
 0002:0015cdf0       ?Load_Level_Logo@CLoader@Client@@QEAAJXZ 0000000140215df0 f   Loader.obj
 0002:0015cf10       ?ThreadEntry@@YAIPEAX@Z    0000000140215f10 f   Loader.obj
 0002:0015cfe0       ?XMMatrixRotationY@DirectX@@YQ?AUXMMATRIX@1@M@Z 0000000140215fe0 f i Loader.obj
 0002:0015d220       ?XMScalarSinCos@DirectX@@YAXPEAM0M@Z 0000000140216220 f i Loader.obj
 0002:0015d510       ??$Safe_Release@PEAVCCity@Client@@@Engine@@YAKAEAPEAVCCity@Client@@@Z 0000000140216510 f i City.obj
 0002:0015d5a0       ??0CCity@Client@@AEAA@PEAUID3D11Device@@PEAUID3D11DeviceContext@@@Z 00000001402165a0 f   City.obj
 0002:0015d690       ??0CCity@Client@@QEAA@AEBV01@@Z 0000000140216690 f i City.obj
 0002:0015d7a0       ??1CCity@Client@@EEAA@XZ   00000001402167a0 f i City.obj
 0002:0015d800       ??_ECCity@Client@@EEAAPEAXI@Z 0000000140216800 f i City.obj
 0002:0015d800       ??_GCCity@Client@@EEAAPEAXI@Z 0000000140216800 f i City.obj
 0002:0015d890       ?Add_Components@CCity@Client@@AEAAJXZ 0000000140216890 f   City.obj
 0002:0015da30       ?Clone@CCity@Client@@UEAAPEAVCGameObject@Engine@@PEAX@Z 0000000140216a30 f   City.obj
 0002:0015dba0       ?Create@CCity@Client@@SAPEAV12@PEAUID3D11Device@@PEAUID3D11DeviceContext@@@Z 0000000140216ba0 f   City.obj
 0002:0015dd10       ?Free@CCity@Client@@UEAAXXZ 0000000140216d10 f   City.obj
 0002:0015ddd0       ?Initialize@CCity@Client@@UEAAJPEAX@Z 0000000140216dd0 f   City.obj
 0002:0015de60       ?Initialize_Prototype@CCity@Client@@UEAAJXZ 0000000140216e60 f   City.obj
 0002:0015ded0       ?LateTick@CCity@Client@@UEAAXN@Z 0000000140216ed0 f   City.obj
 0002:0015df70       ?Render@CCity@Client@@UEAAJXZ 0000000140216f70 f   City.obj
 0002:0015e0b0       ?Setup_ShaderResources@CCity@Client@@AEAAJXZ 00000001402170b0 f   City.obj
 0002:0015e200       ?Tick@CCity@Client@@UEAAXN@Z 0000000140217200 f   City.obj
 0002:0015e270       ??$Safe_Release@PEAVCPlayerCamera@Client@@@Engine@@YAKAEAPEAVCPlayerCamera@Client@@@Z 0000000140217270 f i PlayerCamera.obj
 0002:0015e300       ??0CPlayerCamera@Client@@AEAA@AEBV01@@Z 0000000140217300 f   PlayerCamera.obj
 0002:0015e430       ??0CPlayerCamera@Client@@AEAA@PEAUID3D11Device@@PEAUID3D11DeviceContext@@@Z 0000000140217430 f   PlayerCamera.obj
 0002:0015e570       ??1CPlayerCamera@Client@@EEAA@XZ 0000000140217570 f i PlayerCamera.obj
 0002:0015e5d0       ??_GCPlayerCamera@Client@@EEAAPEAXI@Z 00000001402175d0 f i PlayerCamera.obj
 0002:0015e5d0       ??_ECPlayerCamera@Client@@EEAAPEAXI@Z 00000001402175d0 f i PlayerCamera.obj
 0002:0015e660       ?Add_Components@CPlayerCamera@Client@@QEAAJXZ 0000000140217660 f   PlayerCamera.obj
 0002:0015e6b0       ?Clone@CPlayerCamera@Client@@UEAAPEAVCGameObject@Engine@@PEAX@Z 00000001402176b0 f   PlayerCamera.obj
 0002:0015e820       ?Create@CPlayerCamera@Client@@SAPEAV12@PEAUID3D11Device@@PEAUID3D11DeviceContext@@@Z 0000000140217820 f   PlayerCamera.obj
 0002:0015e990       ?Free@CPlayerCamera@Client@@UEAAXXZ 0000000140217990 f   PlayerCamera.obj
 0002:0015ea00       ?GetLockOnTarget@CCharacter@Client@@QEAAPEAVCGameObject@Engine@@XZ 0000000140217a00 f i PlayerCamera.obj
 0002:0015ea90       ?Initialize@CPlayerCamera@Client@@UEAAJPEAX@Z 0000000140217a90 f   PlayerCamera.obj
 0002:0015ed00       ?Initialize_Prototype@CPlayerCamera@Client@@UEAAJXZ 0000000140217d00 f   PlayerCamera.obj
 0002:0015ed70       ?IsCameraLockOn@CCharacter@Client@@QEAA_NXZ 0000000140217d70 f i PlayerCamera.obj
 0002:0015edf0       ?LateTick@CPlayerCamera@Client@@UEAAXN@Z 0000000140217df0 f   PlayerCamera.obj
 0002:0015ee60       ?Render@CPlayerCamera@Client@@UEAAJXZ 0000000140217e60 f   PlayerCamera.obj
 0002:0015eeb0       ?Setup_ShaderResources@CPlayerCamera@Client@@QEAAJXZ 0000000140217eb0 f   PlayerCamera.obj
 0002:0015ef00       ?Tick@CPlayerCamera@Client@@UEAAXN@Z 0000000140217f00 f   PlayerCamera.obj
 0002:0015f650       ??$Safe_Release@PEAVCSkybox@Client@@@Engine@@YAKAEAPEAVCSkybox@Client@@@Z 0000000140218650 f i Skybox.obj
 0002:0015f6e0       ??0CSkybox@Client@@AEAA@PEAUID3D11Device@@PEAUID3D11DeviceContext@@@Z 00000001402186e0 f   Skybox.obj
 0002:0015f7d0       ??0CSkybox@Client@@QEAA@AEBV01@@Z 00000001402187d0 f i Skybox.obj
 0002:0015f8e0       ??1CSkybox@Client@@EEAA@XZ 00000001402188e0 f i Skybox.obj
 0002:0015f940       ??_GCSkybox@Client@@EEAAPEAXI@Z 0000000140218940 f i Skybox.obj
 0002:0015f940       ??_ECSkybox@Client@@EEAAPEAXI@Z 0000000140218940 f i Skybox.obj
 0002:0015f9d0       ?Add_Components@CSkybox@Client@@AEAAJXZ 00000001402189d0 f   Skybox.obj
 0002:0015fb70       ?Clone@CSkybox@Client@@UEAAPEAVCGameObject@Engine@@PEAX@Z 0000000140218b70 f   Skybox.obj
 0002:0015fce0       ?Create@CSkybox@Client@@SAPEAV12@PEAUID3D11Device@@PEAUID3D11DeviceContext@@@Z 0000000140218ce0 f   Skybox.obj
 0002:0015fe50       ?Free@CSkybox@Client@@UEAAXXZ 0000000140218e50 f   Skybox.obj
 0002:0015ff10       ?Initialize@CSkybox@Client@@UEAAJPEAX@Z 0000000140218f10 f   Skybox.obj
 0002:0015ffa0       ?Initialize_Prototype@CSkybox@Client@@UEAAJXZ 0000000140218fa0 f   Skybox.obj
 0002:00160010       ?LateTick@CSkybox@Client@@UEAAXN@Z 0000000140219010 f   Skybox.obj
 0002:00160120       ?Render@CSkybox@Client@@UEAAJXZ 0000000140219120 f   Skybox.obj
 0002:00160260       ?Setup_ShaderResources@CSkybox@Client@@AEAAJXZ 0000000140219260 f   Skybox.obj
 0002:001603b0       ?Tick@CSkybox@Client@@UEAAXN@Z 00000001402193b0 f   Skybox.obj
 0002:00160420       ??$?0$$V@?$_Compressed_pair@U?$_Wrap_alloc@V?$allocator@PEAVCWall@Client@@@std@@@std@@V?$_Vector_val@U?$_Simple_types@PEAVCWall@Client@@@std@@@2@$00@std@@QEAA@U_Zero_then_variadic_args_t@1@@Z 0000000140219420 f i StageCollisionManager.obj
 0002:00160490       ??$?0AEAU?$_Wrap_alloc@V?$allocator@D@std@@@std@@@?$_Wrap_alloc@V?$allocator@U_Container_proxy@std@@@std@@@std@@QEAA@AEAU?$_Wrap_alloc@V?$allocator@D@std@@@1@@Z 0000000140219490 f i StageCollisionManager.obj
 0002:00160510       ??$?0AEAU?$_Wrap_alloc@V?$allocator@PEAVCWall@Client@@@std@@@std@@@?$_Wrap_alloc@V?$allocator@U_Container_proxy@std@@@std@@@std@@QEAA@AEAU?$_Wrap_alloc@V?$allocator@PEAVCWall@Client@@@std@@@1@@Z 0000000140219510 f i StageCollisionManager.obj
 0002:00160590       ??$?0AEBV?$allocator@D@std@@$$V@?$_Compressed_pair@U?$_Wrap_alloc@V?$allocator@D@std@@@std@@V?$_String_val@U?$_Simple_types@D@std@@@2@$00@std@@QEAA@U_One_then_variadic_args_t@1@AEBV?$allocator@D@1@@Z 0000000140219590 f i StageCollisionManager.obj
 0002:00160620       ??$?0AEBV?$allocator@D@std@@@?$_Wrap_alloc@V?$allocator@D@std@@@std@@QEAA@AEBV?$allocator@D@1@@Z 0000000140219620 f i StageCollisionManager.obj
 0002:001606a0       ??$?0AEBV?$allocator@D@std@@X@?$_String_alloc@U?$_String_base_types@DV?$allocator@D@std@@@std@@@std@@QEAA@AEBV?$allocator@D@1@@Z 00000001402196a0 f i StageCollisionManager.obj
 0002:00160740       ??$?0D@?$allocator@U_Container_proxy@std@@@std@@QEAA@AEBV?$allocator@D@1@@Z 0000000140219740 f i StageCollisionManager.obj
 0002:00160790       ??$?0PEADX@?$basic_string@DU?$char_traits@D@std@@V?$allocator@D@2@@std@@QEAA@PEAD0AEBV?$allocator@D@1@@Z 0000000140219790 f i StageCollisionManager.obj
 0002:001608c0       ??$?0PEAVCWall@Client@@@?$allocator@U_Container_proxy@std@@@std@@QEAA@AEBV?$allocator@PEAVCWall@Client@@@1@@Z 00000001402198c0 f i StageCollisionManager.obj
 0002:00160910       ??$?0U?$_Wrap_alloc@V?$allocator@D@std@@@std@@$$V@?$_Compressed_pair@U?$_Wrap_alloc@V?$allocator@D@std@@@std@@V?$_String_val@U?$_Simple_types@D@std@@@2@$00@std@@QEAA@U_One_then_variadic_args_t@1@$$QEAU?$_Wrap_alloc@V?$allocator@D@std@@@1@@Z 0000000140219910 f i StageCollisionManager.obj
 0002:001609a0       ??$?0U?$_Wrap_alloc@V?$allocator@D@std@@@std@@X@?$_String_alloc@U?$_String_base_types@DV?$allocator@D@std@@@std@@@std@@QEAA@$$QEAU?$_Wrap_alloc@V?$allocator@D@std@@@1@@Z 00000001402199a0 f i StageCollisionManager.obj
 0002:00160a40       ??$?HDU?$char_traits@D@std@@V?$allocator@D@1@@std@@YA?AV?$basic_string@DU?$char_traits@D@std@@V?$allocator@D@2@@0@PEBD$$QEAV10@@Z 0000000140219a40 f i StageCollisionManager.obj
 0002:00160af0       ??$Safe_Release@PEAVCWall@Client@@@Engine@@YAKAEAPEAVCWall@Client@@@Z 0000000140219af0 f i StageCollisionManager.obj
 0002:00160b80       ??$_Copy_memmove@PEAPEAVCWall@Client@@PEAPEAV12@@std@@YAPEAPEAVCWall@Client@@PEAPEAV12@00@Z 0000000140219b80 f i StageCollisionManager.obj
 0002:00160c40       ??$_Debug_pointer@$$CBD@std@@YAXPEBDPEB_WI@Z 0000000140219c40 f i StageCollisionManager.obj
 0002:00160cc0       ??$_Debug_pointer@D@std@@YAXPEADPEB_WI@Z 0000000140219cc0 f i StageCollisionManager.obj
 0002:00160d40       ??$_Debug_pointer_if@$$CBD@std@@YAX_NPEBDPEB_WI@Z 0000000140219d40 f i StageCollisionManager.obj
 0002:00160dd0       ??$_Debug_range2@PEAD@std@@YAXPEAD0PEB_WIUrandom_access_iterator_tag@0@@Z 0000000140219dd0 f i StageCollisionManager.obj
 0002:00160eb0       ??$_Debug_range@PEAD@std@@YAXPEAD0PEB_WI@Z 0000000140219eb0 f i StageCollisionManager.obj
 0002:00160f60       ??$_Destroy_range1@V?$allocator@PEAVCWall@Client@@@std@@PEAPEAVCWall@Client@@@std@@YAXPEAPEAVCWall@Client@@0AEAU?$_Wrap_alloc@V?$allocator@PEAVCWall@Client@@@std@@@0@U?$integral_constant@_N$00@0@@Z 0000000140219f60 f i StageCollisionManager.obj
 0002:00160fc0       ??$_Destroy_range@V?$allocator@PEAVCWall@Client@@@std@@PEAPEAVCWall@Client@@@std@@YAXPEAPEAVCWall@Client@@0AEAU?$_Wrap_alloc@V?$allocator@PEAVCWall@Client@@@std@@@0@@Z 0000000140219fc0 f i StageCollisionManager.obj
 0002:00161040       ??$_Integral_to_string@DI@std@@YA?AV?$basic_string@DU?$char_traits@D@std@@V?$allocator@D@2@@0@I@Z 000000014021a040 f i StageCollisionManager.obj
 0002:001611a0       ??$_Integral_to_string@_W_K@std@@YA?AV?$basic_string@_WU?$char_traits@_W@std@@V?$allocator@_W@2@@0@_K@Z 000000014021a1a0 f i StageCollisionManager.obj
 0002:00161310       ??$_Ptr_move_cat@PEAVCWall@Client@@PEAV12@@std@@YA?AU_Really_trivial_ptr_iterator_tag@0@AEBQEAPEAVCWall@Client@@0@Z 000000014021a310 f i StageCollisionManager.obj
 0002:00161370       ??$_Rechecked@PEAPEAVCWall@Client@@PEAPEAV12@@std@@YAAEAPEAPEAVCWall@Client@@AEAPEAPEAV12@PEAPEAV12@@Z 000000014021a370 f i StageCollisionManager.obj
 0002:001613e0       ??$_UIntegral_to_buff@DI@std@@YAPEADPEADI@Z 000000014021a3e0 f i StageCollisionManager.obj
 0002:00161490       ??$_UIntegral_to_buff@_W_K@std@@YAPEA_WPEA_W_K@Z 000000014021a490 f i StageCollisionManager.obj
 0002:00161550       ??$_Umove@PEAPEAVCWall@Client@@@?$vector@PEAVCWall@Client@@V?$allocator@PEAVCWall@Client@@@std@@@std@@IEAAPEAPEAVCWall@Client@@PEAPEAV23@00@Z 000000014021a550 f i StageCollisionManager.obj
 0002:001615e0       ??$_Unchecked@PEAD@std@@YAPEADPEAD@Z 000000014021a5e0 f i StageCollisionManager.obj
 0002:00161630       ??$_Unchecked@PEAPEAVCWall@Client@@@std@@YAPEAPEAVCWall@Client@@PEAPEAV12@@Z 000000014021a630 f i StageCollisionManager.obj
 0002:00161680       ??$_Unfancy@D@std@@YAPEADPEAD@Z 000000014021a680 f i StageCollisionManager.obj
 0002:001616d0       ??$_Unfancy@PEAVCWall@Client@@@std@@YAPEAPEAVCWall@Client@@PEAPEAV12@@Z 000000014021a6d0 f i StageCollisionManager.obj
 0002:00161720       ??$_Uninitialized_move@PEAPEAVCWall@Client@@PEAPEAV12@V?$allocator@PEAVCWall@Client@@@std@@@std@@YAPEAPEAVCWall@Client@@PEAPEAV12@00AEAU?$_Wrap_alloc@V?$allocator@PEAVCWall@Client@@@std@@@0@@Z 000000014021a720 f i StageCollisionManager.obj
 0002:00161800       ??$_Uninitialized_move_al_unchecked1@PEAVCWall@Client@@PEAV12@V?$allocator@PEAVCWall@Client@@@std@@@std@@YAPEAPEAVCWall@Client@@PEAPEAV12@00AEAU?$_Wrap_alloc@V?$allocator@PEAVCWall@Client@@@std@@@0@U_Really_trivial_ptr_iterator_tag@0@U?$integral_constant@_N$00@0@@Z 000000014021a800 f i StageCollisionManager.obj
 0002:00161880       ??$_Uninitialized_move_al_unchecked@PEAPEAVCWall@Client@@PEAPEAV12@V?$allocator@PEAVCWall@Client@@@std@@@std@@YAPEAPEAVCWall@Client@@PEAPEAV12@00AEAU?$_Wrap_alloc@V?$allocator@PEAVCWall@Client@@@std@@@0@@Z 000000014021a880 f i StageCollisionManager.obj
 0002:00161940       ??$addressof@$$CBUtagCubeDesc@CWall@Client@@@std@@YAPEBUtagCubeDesc@CWall@Client@@AEBU123@@Z 000000014021a940 f i StageCollisionManager.obj
 0002:00161990       ??$addressof@PEAD@std@@YAPEAPEADAEAPEAD@Z 000000014021a990 f i StageCollisionManager.obj
 0002:001619e0       ??$addressof@QEAVCWall@Client@@@std@@YAPEBQEAVCWall@Client@@AEBQEAV12@@Z 000000014021a9e0 f i StageCollisionManager.obj
 0002:00161a30       ??$construct@PEADAEAPEAD@?$_Wrap_alloc@V?$allocator@D@std@@@std@@QEAAXPEAPEADAEAPEAD@Z 000000014021aa30 f i StageCollisionManager.obj
 0002:00161ab0       ??$construct@PEADAEAPEAD@?$allocator@D@std@@QEAAXPEAPEADAEAPEAD@Z 000000014021aab0 f i StageCollisionManager.obj
 0002:00161b70       ??$construct@PEADAEAPEAD@?$allocator_traits@V?$allocator@D@std@@@std@@SAXAEAV?$allocator@D@1@PEAPEADAEAPEAD@Z 000000014021ab70 f i StageCollisionManager.obj
 0002:00161bf0       ??$construct@PEAVCWall@Client@@AEAPEAV12@@?$_Wrap_alloc@V?$allocator@PEAVCWall@Client@@@std@@@std@@QEAAXPEAPEAVCWall@Client@@AEAPEAV23@@Z 000000014021abf0 f i StageCollisionManager.obj
 0002:00161c70       ??$construct@PEAVCWall@Client@@AEAPEAV12@@?$allocator@PEAVCWall@Client@@@std@@QEAAXPEAPEAVCWall@Client@@AEAPEAV23@@Z 000000014021ac70 f i StageCollisionManager.obj
 0002:00161d30       ??$construct@PEAVCWall@Client@@AEAPEAV12@@?$allocator_traits@V?$allocator@PEAVCWall@Client@@@std@@@std@@SAXAEAV?$allocator@PEAVCWall@Client@@@1@PEAPEAVCWall@Client@@AEAPEAV34@@Z 000000014021ad30 f i StageCollisionManager.obj
 0002:00161db0       ??$construct@PEAVCWall@Client@@AEBQEAV12@@?$_Wrap_alloc@V?$allocator@PEAVCWall@Client@@@std@@@std@@QEAAXPEAPEAVCWall@Client@@AEBQEAV23@@Z 000000014021adb0 f i StageCollisionManager.obj
 0002:00161e30       ??$construct@PEAVCWall@Client@@AEBQEAV12@@?$allocator@PEAVCWall@Client@@@std@@QEAAXPEAPEAVCWall@Client@@AEBQEAV23@@Z 000000014021ae30 f i StageCollisionManager.obj
 0002:00161ef0       ??$construct@PEAVCWall@Client@@AEBQEAV12@@?$allocator_traits@V?$allocator@PEAVCWall@Client@@@std@@@std@@SAXAEAV?$allocator@PEAVCWall@Client@@@1@PEAPEAVCWall@Client@@AEBQEAV34@@Z 000000014021aef0 f i StageCollisionManager.obj
 0002:00161f70       ??$construct@UtagCubeDesc@CWall@Client@@AEAU123@@?$_Wrap_alloc@V?$allocator@UtagCubeDesc@CWall@Client@@@std@@@std@@QEAAXPEAUtagCubeDesc@CWall@Client@@AEAU234@@Z 000000014021af70 f i StageCollisionManager.obj
 0002:00161ff0       ??$construct@UtagCubeDesc@CWall@Client@@AEAU123@@?$allocator@UtagCubeDesc@CWall@Client@@@std@@QEAAXPEAUtagCubeDesc@CWall@Client@@AEAU234@@Z 000000014021aff0 f i StageCollisionManager.obj
 0002:001620b0       ??$construct@UtagCubeDesc@CWall@Client@@AEAU123@@?$allocator_traits@V?$allocator@UtagCubeDesc@CWall@Client@@@std@@@std@@SAXAEAV?$allocator@UtagCubeDesc@CWall@Client@@@1@PEAUtagCubeDesc@CWall@Client@@AEAU345@@Z 000000014021b0b0 f i StageCollisionManager.obj
 0002:00162130       ??$construct@UtagCubeDesc@CWall@Client@@AEBU123@@?$_Wrap_alloc@V?$allocator@UtagCubeDesc@CWall@Client@@@std@@@std@@QEAAXPEAUtagCubeDesc@CWall@Client@@AEBU234@@Z 000000014021b130 f i StageCollisionManager.obj
 0002:001621b0       ??$construct@UtagCubeDesc@CWall@Client@@AEBU123@@?$allocator@UtagCubeDesc@CWall@Client@@@std@@QEAAXPEAUtagCubeDesc@CWall@Client@@AEBU234@@Z 000000014021b1b0 f i StageCollisionManager.obj
 0002:00162270       ??$construct@UtagCubeDesc@CWall@Client@@AEBU123@@?$allocator_traits@V?$allocator@UtagCubeDesc@CWall@Client@@@std@@@std@@SAXAEAV?$allocator@UtagCubeDesc@CWall@Client@@@1@PEAUtagCubeDesc@CWall@Client@@AEBU345@@Z 000000014021b270 f i StageCollisionManager.obj
 0002:001622f0       ??$destroy@PEAD@?$_Wrap_alloc@V?$allocator@D@std@@@std@@QEAAXPEAPEAD@Z 000000014021b2f0 f i StageCollisionManager.obj
 0002:00162350       ??$destroy@PEAD@?$allocator@D@std@@QEAAXPEAPEAD@Z 000000014021b350 f i StageCollisionManager.obj
 0002:001623a0       ??$destroy@PEAD@?$allocator_traits@V?$allocator@D@std@@@std@@SAXAEAV?$allocator@D@1@PEAPEAD@Z 000000014021b3a0 f i StageCollisionManager.obj
 0002:00162400       ??$end@D$0BF@@std@@YAPEADAEAY0BF@D@Z 000000014021b400 f i StageCollisionManager.obj
 0002:00162450       ??$forward@AEAPEAD@std@@YAAEAPEADAEAPEAD@Z 000000014021b450 f i StageCollisionManager.obj
 0002:001624a0       ??$forward@AEAPEAVCWall@Client@@@std@@YAAEAPEAVCWall@Client@@AEAPEAV12@@Z 000000014021b4a0 f i StageCollisionManager.obj
 0002:001624f0       ??$forward@AEAU?$_Wrap_alloc@V?$allocator@D@std@@@std@@@std@@YAAEAU?$_Wrap_alloc@V?$allocator@D@std@@@0@AEAU10@@Z 000000014021b4f0 f i StageCollisionManager.obj
 0002:00162540       ??$forward@AEAU?$_Wrap_alloc@V?$allocator@PEAVCWall@Client@@@std@@@std@@@std@@YAAEAU?$_Wrap_alloc@V?$allocator@PEAVCWall@Client@@@std@@@0@AEAU10@@Z 000000014021b540 f i StageCollisionManager.obj
 0002:00162590       ??$forward@AEAUtagCubeDesc@CWall@Client@@@std@@YAAEAUtagCubeDesc@CWall@Client@@AEAU123@@Z 000000014021b590 f i StageCollisionManager.obj
 0002:001625e0       ??$forward@AEBQEAVCWall@Client@@@std@@YAAEBQEAVCWall@Client@@AEBQEAV12@@Z 000000014021b5e0 f i StageCollisionManager.obj
 0002:00162630       ??$forward@AEBUtagCubeDesc@CWall@Client@@@std@@YAAEBUtagCubeDesc@CWall@Client@@AEBU123@@Z 000000014021b630 f i StageCollisionManager.obj
 0002:00162680       ??$forward@AEBV?$allocator@D@std@@@std@@YAAEBV?$allocator@D@0@AEBV10@@Z 000000014021b680 f i StageCollisionManager.obj
 0002:001626d0       ??$forward@U?$_Wrap_alloc@V?$allocator@D@std@@@std@@@std@@YA$$QEAU?$_Wrap_alloc@V?$allocator@D@std@@@0@AEAU10@@Z 000000014021b6d0 f i StageCollisionManager.obj
 0002:00162720       ??$forward@V?$basic_string@DU?$char_traits@D@std@@V?$allocator@D@2@@std@@@std@@YA$$QEAV?$basic_string@DU?$char_traits@D@std@@V?$allocator@D@2@@0@AEAV10@@Z 000000014021b720 f i StageCollisionManager.obj
 0002:00162770       ??$move@AEAU?$_Wrap_alloc@V?$allocator@D@std@@@std@@@std@@YA$$QEAU?$_Wrap_alloc@V?$allocator@D@std@@@0@AEAU10@@Z 000000014021b770 f i StageCollisionManager.obj
 0002:001627c0       ??$move@AEAV?$basic_string@DU?$char_traits@D@std@@V?$allocator@D@2@@std@@@std@@YA$$QEAV?$basic_string@DU?$char_traits@D@std@@V?$allocator@D@2@@0@AEAV10@@Z 000000014021b7c0 f i StageCollisionManager.obj
 0002:00162810       ??0?$_Iterator012@Urandom_access_iterator_tag@std@@PEAVCWall@Client@@_JPEBQEAV34@AEBQEAV34@U_Iterator_base12@2@@std@@QEAA@XZ 000000014021b810 f i StageCollisionManager.obj
 0002:00162870       ??0?$_String_val@U?$_Simple_types@D@std@@@std@@QEAA@XZ 000000014021b870 f i StageCollisionManager.obj
 0002:00162920       ??0?$_Vector_alloc@U?$_Vec_base_types@PEAVCWall@Client@@V?$allocator@PEAVCWall@Client@@@std@@@std@@@std@@QEAA@XZ 000000014021b920 f i StageCollisionManager.obj
 0002:001629b0       ??0?$_Vector_const_iterator@V?$_Vector_val@U?$_Simple_types@PEAVCWall@Client@@@std@@@std@@@std@@QEAA@PEAPEAVCWall@Client@@PEBU_Container_base12@1@@Z 000000014021b9b0 f i StageCollisionManager.obj
 0002:00162a60       ??0?$_Vector_iterator@V?$_Vector_val@U?$_Simple_types@PEAVCWall@Client@@@std@@@std@@@std@@QEAA@PEAPEAVCWall@Client@@PEBU_Container_base12@1@@Z 000000014021ba60 f i StageCollisionManager.obj
 0002:00162ae0       ??0?$_Vector_val@U?$_Simple_types@PEAVCWall@Client@@@std@@@std@@QEAA@XZ 000000014021bae0 f i StageCollisionManager.obj
 0002:00162b80       ??0?$_Wrap_alloc@V?$allocator@D@std@@@std@@QEAA@$$QEAU01@@Z 000000014021bb80 f i StageCollisionManager.obj
 0002:00162c00       ??0?$_Wrap_alloc@V?$allocator@PEAVCWall@Client@@@std@@@std@@QEAA@XZ 000000014021bc00 f i StageCollisionManager.obj
 0002:00162c60       ??0?$allocator@D@std@@QEAA@AEBV01@@Z 000000014021bc60 f i StageCollisionManager.obj
 0002:00162cb0       ??0?$allocator@D@std@@QEAA@XZ 000000014021bcb0 f i StageCollisionManager.obj
 0002:00162d00       ??0?$allocator@PEAVCWall@Client@@@std@@QEAA@XZ 000000014021bd00 f i StageCollisionManager.obj
 0002:00162d50       ??0?$basic_string@DU?$char_traits@D@std@@V?$allocator@D@2@@std@@QEAA@$$QEAV01@@Z 000000014021bd50 f i StageCollisionManager.obj
 0002:00162e20       ??0?$vector@PEAVCWall@Client@@V?$allocator@PEAVCWall@Client@@@std@@@std@@QEAA@XZ 000000014021be20 f i StageCollisionManager.obj
 0002:00162e90       ??0CStageCollisionManager@Client@@AEAA@XZ 000000014021be90 f i StageCollisionManager.obj
 0002:00162f40       ??0_Bxty@?$_String_val@U?$_Simple_types@D@std@@@std@@QEAA@XZ 000000014021bf40 f i StageCollisionManager.obj
 0002:00162f90       ??0tagCubeDesc@CWall@Client@@QEAA@XZ 000000014021bf90 f i StageCollisionManager.obj
 0002:00163020       ??1?$_Compressed_pair@U?$_Wrap_alloc@V?$allocator@D@std@@@std@@V?$_String_val@U?$_Simple_types@D@std@@@2@$00@std@@QEAA@XZ 000000014021c020 f i StageCollisionManager.obj
 0002:00163080       ??1?$_Compressed_pair@U?$_Wrap_alloc@V?$allocator@PEAVCWall@Client@@@std@@@std@@V?$_Vector_val@U?$_Simple_types@PEAVCWall@Client@@@std@@@2@$00@std@@QEAA@XZ 000000014021c080 f i StageCollisionManager.obj
 0002:001630e0       ??1?$_Iterator012@Urandom_access_iterator_tag@std@@PEAVCWall@Client@@_JPEBQEAV34@AEBQEAV34@U_Iterator_base12@2@@std@@QEAA@XZ 000000014021c0e0 f i StageCollisionManager.obj
 0002:00163130       ??1?$_String_alloc@U?$_String_base_types@DV?$allocator@D@std@@@std@@@std@@QEAA@XZ 000000014021c130 f i StageCollisionManager.obj
 0002:001631b0       ??1?$_String_val@U?$_Simple_types@D@std@@@std@@QEAA@XZ 000000014021c1b0 f i StageCollisionManager.obj
 0002:00163220       ??1?$_Vector_alloc@U?$_Vec_base_types@PEAVCWall@Client@@V?$allocator@PEAVCWall@Client@@@std@@@std@@@std@@QEAA@XZ 000000014021c220 f i StageCollisionManager.obj
 0002:001632a0       ??1?$_Vector_const_iterator@V?$_Vector_val@U?$_Simple_types@PEAVCWall@Client@@@std@@@std@@@std@@QEAA@XZ 000000014021c2a0 f i StageCollisionManager.obj
 0002:001632f0       ??1?$_Vector_iterator@V?$_Vector_val@U?$_Simple_types@PEAVCWall@Client@@@std@@@std@@@std@@QEAA@XZ 000000014021c2f0 f i StageCollisionManager.obj
 0002:00163340       ??1?$_Vector_val@U?$_Simple_types@PEAVCWall@Client@@@std@@@std@@QEAA@XZ 000000014021c340 f i StageCollisionManager.obj
 0002:00163390       ??1?$basic_string@DU?$char_traits@D@std@@V?$allocator@D@2@@std@@QEAA@XZ 000000014021c390 f i StageCollisionManager.obj
 0002:00163410       ??1?$vector@PEAVCWall@Client@@V?$allocator@PEAVCWall@Client@@@std@@@std@@QEAA@XZ 000000014021c410 f i StageCollisionManager.obj
 0002:00163480       ??1CStageCollisionManager@Client@@EEAA@XZ 000000014021c480 f i StageCollisionManager.obj
 0002:001634f0       ??1_Bxty@?$_String_val@U?$_Simple_types@D@std@@@std@@QEAA@XZ 000000014021c4f0 f i StageCollisionManager.obj
 0002:00163530       ??8?$_Vector_const_iterator@V?$_Vector_val@U?$_Simple_types@PEAVCWall@Client@@@std@@@std@@@std@@QEBA_NAEBV01@@Z 000000014021c530 f i StageCollisionManager.obj
 0002:001635e0       ??9?$_Vector_const_iterator@V?$_Vector_val@U?$_Simple_types@PEAVCWall@Client@@@std@@@std@@@std@@QEBA_NAEBV01@@Z 000000014021c5e0 f i StageCollisionManager.obj
 0002:00163670       ??A?$vector@PEAVCWall@Client@@V?$allocator@PEAVCWall@Client@@@std@@@std@@QEAAAEAPEAVCWall@Client@@_K@Z 000000014021c670 f i StageCollisionManager.obj
 0002:001637b0       ??D?$_Vector_const_iterator@V?$_Vector_val@U?$_Simple_types@PEAVCWall@Client@@@std@@@std@@@std@@QEBAAEBQEAVCWall@Client@@XZ 000000014021c7b0 f i StageCollisionManager.obj
 0002:00163920       ??D?$_Vector_iterator@V?$_Vector_val@U?$_Simple_types@PEAVCWall@Client@@@std@@@std@@@std@@QEBAAEAPEAVCWall@Client@@XZ 000000014021c920 f i StageCollisionManager.obj
 0002:00163970       ??E?$_Vector_const_iterator@V?$_Vector_val@U?$_Simple_types@PEAVCWall@Client@@@std@@@std@@@std@@QEAAAEAV01@XZ 000000014021c970 f i StageCollisionManager.obj
 0002:00163ae0       ??E?$_Vector_iterator@V?$_Vector_val@U?$_Simple_types@PEAVCWall@Client@@@std@@@std@@@std@@QEAAAEAV01@XZ 000000014021cae0 f i StageCollisionManager.obj
 0002:00163b40       ??_GCStageCollisionManager@Client@@EEAAPEAXI@Z 000000014021cb40 f i StageCollisionManager.obj
 0002:00163b40       ??_ECStageCollisionManager@Client@@EEAAPEAXI@Z 000000014021cb40 f i StageCollisionManager.obj
 0002:00163bd0       ?AddWall@CStageCollisionManager@Client@@QEAAXPEAUID3D11Device@@PEAUID3D11DeviceContext@@@Z 000000014021cbd0 f   StageCollisionManager.obj
 0002:00163dc0       ?DeleteObject@CStageCollisionManager@Client@@QEAAXXZ 000000014021cdc0 f   StageCollisionManager.obj
 0002:00163e00       ?DestroyInstance@CStageCollisionManager@Client@@SAKXZ 000000014021ce00 f   StageCollisionManager.obj
 0002:00163e80       ?Free@CStageCollisionManager@Client@@UEAAXXZ 000000014021ce80 f   StageCollisionManager.obj
 0002:00163fe0       ?GetDesc@CWall@Client@@QEAAAEAUtagCubeDesc@12@XZ 000000014021cfe0 f i StageCollisionManager.obj
 0002:00164030       ?GetInstance@CStageCollisionManager@Client@@SAPEAV12@XZ 000000014021d030 f   StageCollisionManager.obj
 0002:001640f0       ?LoadCollisionData@CStageCollisionManager@Client@@SAJPEB_WPEAV?$vector@UtagCubeDesc@CWall@Client@@V?$allocator@UtagCubeDesc@CWall@Client@@@std@@@std@@PEAI@Z 000000014021d0f0 f   StageCollisionManager.obj
 0002:00164380       ?RenderGUI@CStageCollisionManager@Client@@QEAAXXZ 000000014021d380 f   StageCollisionManager.obj
 0002:001647a0       ?SaveCollisionData@CStageCollisionManager@Client@@QEAAJXZ 000000014021d7a0 f   StageCollisionManager.obj
 0002:00164ba0       ?Tick@CStageCollisionManager@Client@@QEAAXN@Z 000000014021dba0 f   StageCollisionManager.obj
 0002:001650c0       ?_Alloc_proxy@?$_String_alloc@U?$_String_base_types@DV?$allocator@D@std@@@std@@@std@@QEAAXXZ 000000014021e0c0 f i StageCollisionManager.obj
 0002:00165220       ?_Alloc_proxy@?$_Vector_alloc@U?$_Vec_base_types@PEAVCWall@Client@@V?$allocator@PEAVCWall@Client@@@std@@@std@@@std@@QEAAXXZ 000000014021e220 f i StageCollisionManager.obj
 0002:00165380       ?_Assign_rv@?$basic_string@DU?$char_traits@D@std@@V?$allocator@D@2@@std@@QEAAX$$QEAV12@@Z 000000014021e380 f i StageCollisionManager.obj
 0002:00165550       ?_Bx@?$_String_alloc@U?$_String_base_types@DV?$allocator@D@std@@@std@@@std@@QEAAAEAT_Bxty@?$_String_val@U?$_Simple_types@D@std@@@2@XZ 000000014021e550 f i StageCollisionManager.obj
 0002:001655b0       ?_Check_offset@?$basic_string@DU?$char_traits@D@std@@V?$allocator@D@2@@std@@QEBAX_K@Z 000000014021e5b0 f i StageCollisionManager.obj
 0002:00165630       ?_Clamp_suffix_size@?$basic_string@DU?$char_traits@D@std@@V?$allocator@D@2@@std@@QEBA_K_K0@Z 000000014021e630 f i StageCollisionManager.obj
 0002:001656d0       ?_Compat@?$_Vector_const_iterator@V?$_Vector_val@U?$_Simple_types@PEAVCWall@Client@@@std@@@std@@@std@@QEBAXAEBV12@@Z 000000014021e6d0 f i StageCollisionManager.obj
 0002:00165810       ?_Construct@?$basic_string@DU?$char_traits@D@std@@V?$allocator@D@2@@std@@QEAAXPEAD0Urandom_access_iterator_tag@2@@Z 000000014021e810 f i StageCollisionManager.obj
 0002:001658b0       ?_Copy@?$basic_string@DU?$char_traits@D@std@@V?$allocator@D@2@@std@@QEAAX_K0@Z 000000014021e8b0 f i StageCollisionManager.obj
 0002:00165bd0       ?_Destroy@?$vector@PEAVCWall@Client@@V?$allocator@PEAVCWall@Client@@@std@@@std@@IEAAXPEAPEAVCWall@Client@@0@Z 000000014021ebd0 f i StageCollisionManager.obj
 0002:00165c50       ?_Eos@?$basic_string@DU?$char_traits@D@std@@V?$allocator@D@2@@std@@QEAAX_K@Z 000000014021ec50 f i StageCollisionManager.obj
 0002:00165cf0       ?_Free_proxy@?$_String_alloc@U?$_String_base_types@DV?$allocator@D@std@@@std@@@std@@QEAAXXZ 000000014021ecf0 f i StageCollisionManager.obj
 0002:00165e10       ?_Free_proxy@?$_Vector_alloc@U?$_Vec_base_types@PEAVCWall@Client@@V?$allocator@PEAVCWall@Client@@@std@@@std@@@std@@QEAAXXZ 000000014021ee10 f i StageCollisionManager.obj
 0002:00165f30       ?_Get_data@?$_String_alloc@U?$_String_base_types@DV?$allocator@D@std@@@std@@@std@@QEAAAEAV?$_String_val@U?$_Simple_types@D@std@@@2@XZ 000000014021ef30 f i StageCollisionManager.obj
 0002:00165f90       ?_Get_data@?$_String_alloc@U?$_String_base_types@DV?$allocator@D@std@@@std@@@std@@QEBAAEBV?$_String_val@U?$_Simple_types@D@std@@@2@XZ 000000014021ef90 f i StageCollisionManager.obj
 0002:00165ff0       ?_Get_data@?$_Vector_alloc@U?$_Vec_base_types@PEAVCWall@Client@@V?$allocator@PEAVCWall@Client@@@std@@@std@@@std@@QEAAAEAV?$_Vector_val@U?$_Simple_types@PEAVCWall@Client@@@std@@@2@XZ 000000014021eff0 f i StageCollisionManager.obj
 0002:00166050       ?_Get_data@?$_Vector_alloc@U?$_Vec_base_types@PEAVCWall@Client@@V?$allocator@PEAVCWall@Client@@@std@@@std@@@std@@QEBAAEBV?$_Vector_val@U?$_Simple_types@PEAVCWall@Client@@@std@@@2@XZ 000000014021f050 f i StageCollisionManager.obj
 0002:001660b0       ?_Get_first@?$_Compressed_pair@U?$_Wrap_alloc@V?$allocator@D@std@@@std@@V?$_String_val@U?$_Simple_types@D@std@@@2@$00@std@@QEAAAEAU?$_Wrap_alloc@V?$allocator@D@std@@@2@XZ 000000014021f0b0 f i StageCollisionManager.obj
 0002:00166100       ?_Get_first@?$_Compressed_pair@U?$_Wrap_alloc@V?$allocator@D@std@@@std@@V?$_String_val@U?$_Simple_types@D@std@@@2@$00@std@@QEBAAEBU?$_Wrap_alloc@V?$allocator@D@std@@@2@XZ 000000014021f100 f i StageCollisionManager.obj
 0002:00166150       ?_Get_first@?$_Compressed_pair@U?$_Wrap_alloc@V?$allocator@PEAVCWall@Client@@@std@@@std@@V?$_Vector_val@U?$_Simple_types@PEAVCWall@Client@@@std@@@2@$00@std@@QEAAAEAU?$_Wrap_alloc@V?$allocator@PEAVCWall@Client@@@std@@@2@XZ 000000014021f150 f i StageCollisionManager.obj
 0002:001661a0       ?_Get_first@?$_Compressed_pair@U?$_Wrap_alloc@V?$allocator@PEAVCWall@Client@@@std@@@std@@V?$_Vector_val@U?$_Simple_types@PEAVCWall@Client@@@std@@@2@$00@std@@QEBAAEBU?$_Wrap_alloc@V?$allocator@PEAVCWall@Client@@@std@@@2@XZ 000000014021f1a0 f i StageCollisionManager.obj
 0002:001661f0       ?_Get_second@?$_Compressed_pair@U?$_Wrap_alloc@V?$allocator@D@std@@@std@@V?$_String_val@U?$_Simple_types@D@std@@@2@$00@std@@QEAAAEAV?$_String_val@U?$_Simple_types@D@std@@@2@XZ 000000014021f1f0 f i StageCollisionManager.obj
 0002:00166240       ?_Get_second@?$_Compressed_pair@U?$_Wrap_alloc@V?$allocator@D@std@@@std@@V?$_String_val@U?$_Simple_types@D@std@@@2@$00@std@@QEBAAEBV?$_String_val@U?$_Simple_types@D@std@@@2@XZ 000000014021f240 f i StageCollisionManager.obj
 0002:00166290       ?_Get_second@?$_Compressed_pair@U?$_Wrap_alloc@V?$allocator@PEAVCWall@Client@@@std@@@std@@V?$_Vector_val@U?$_Simple_types@PEAVCWall@Client@@@std@@@2@$00@std@@QEAAAEAV?$_Vector_val@U?$_Simple_types@PEAVCWall@Client@@@std@@@2@XZ 000000014021f290 f i StageCollisionManager.obj
 0002:001662e0       ?_Get_second@?$_Compressed_pair@U?$_Wrap_alloc@V?$allocator@PEAVCWall@Client@@@std@@@std@@V?$_Vector_val@U?$_Simple_types@PEAVCWall@Client@@@std@@@2@$00@std@@QEBAAEBV?$_Vector_val@U?$_Simple_types@PEAVCWall@Client@@@std@@@2@XZ 000000014021f2e0 f i StageCollisionManager.obj
 0002:00166330       ?_Getal@?$_String_alloc@U?$_String_base_types@DV?$allocator@D@std@@@std@@@std@@QEAAAEAU?$_Wrap_alloc@V?$allocator@D@std@@@2@XZ 000000014021f330 f i StageCollisionManager.obj
 0002:00166390       ?_Getal@?$_String_alloc@U?$_String_base_types@DV?$allocator@D@std@@@std@@@std@@QEBAAEBU?$_Wrap_alloc@V?$allocator@D@std@@@2@XZ 000000014021f390 f i StageCollisionManager.obj
 0002:001663f0       ?_Getal@?$_Vector_alloc@U?$_Vec_base_types@PEAVCWall@Client@@V?$allocator@PEAVCWall@Client@@@std@@@std@@@std@@QEAAAEAU?$_Wrap_alloc@V?$allocator@PEAVCWall@Client@@@std@@@2@XZ 000000014021f3f0 f i StageCollisionManager.obj
 0002:00166450       ?_Getal@?$_Vector_alloc@U?$_Vec_base_types@PEAVCWall@Client@@V?$allocator@PEAVCWall@Client@@@std@@@std@@@std@@QEBAAEBU?$_Wrap_alloc@V?$allocator@PEAVCWall@Client@@@std@@@2@XZ 000000014021f450 f i StageCollisionManager.obj
 0002:001664b0       ?_Getpfirst@?$_Vector_alloc@U?$_Vec_base_types@PEAVCWall@Client@@V?$allocator@PEAVCWall@Client@@@std@@@std@@@std@@QEBAPEAPEAU_Iterator_base12@2@XZ 000000014021f4b0 f i StageCollisionManager.obj
 0002:00166510       ?_Getpfirst@?$_Vector_alloc@U?$_Vec_base_types@UtagCubeDesc@CWall@Client@@V?$allocator@UtagCubeDesc@CWall@Client@@@std@@@std@@@std@@QEBAPEAPEAU_Iterator_base12@2@XZ 000000014021f510 f i StageCollisionManager.obj
 0002:00166570       ?_Grow@?$basic_string@DU?$char_traits@D@std@@V?$allocator@D@2@@std@@QEAA_N_K_N@Z 000000014021f570 f i StageCollisionManager.obj
 0002:00166710       ?_Grow_to@?$vector@PEAVCWall@Client@@V?$allocator@PEAVCWall@Client@@@std@@@std@@IEBA_K_K@Z 000000014021f710 f i StageCollisionManager.obj
 0002:00166820       ?_Grow_to@?$vector@UtagCubeDesc@CWall@Client@@V?$allocator@UtagCubeDesc@CWall@Client@@@std@@@std@@IEBA_K_K@Z 000000014021f820 f i StageCollisionManager.obj
 0002:00166930       ?_Inside@?$basic_string@DU?$char_traits@D@std@@V?$allocator@D@2@@std@@QEAA_NPEBD@Z 000000014021f930 f i StageCollisionManager.obj
 0002:001669f0       ?_Inside@?$vector@PEAVCWall@Client@@V?$allocator@PEAVCWall@Client@@@std@@@std@@IEBA_NPEBQEAVCWall@Client@@@Z 000000014021f9f0 f i StageCollisionManager.obj
 0002:00166ab0       ?_Inside@?$vector@UtagCubeDesc@CWall@Client@@V?$allocator@UtagCubeDesc@CWall@Client@@@std@@@std@@IEBA_NPEBUtagCubeDesc@CWall@Client@@@Z 000000014021fab0 f i StageCollisionManager.obj
 0002:00166b70       ?_Myend@?$_Vector_alloc@U?$_Vec_base_types@PEAVCWall@Client@@V?$allocator@PEAVCWall@Client@@@std@@@std@@@std@@QEAAAEAPEAPEAVCWall@Client@@XZ 000000014021fb70 f i StageCollisionManager.obj
 0002:00166bd0       ?_Myend@?$_Vector_alloc@U?$_Vec_base_types@PEAVCWall@Client@@V?$allocator@PEAVCWall@Client@@@std@@@std@@@std@@QEBAAEBQEAPEAVCWall@Client@@XZ 000000014021fbd0 f i StageCollisionManager.obj
 0002:00166c30       ?_Myfirst@?$_Vector_alloc@U?$_Vec_base_types@PEAVCWall@Client@@V?$allocator@PEAVCWall@Client@@@std@@@std@@@std@@QEAAAEAPEAPEAVCWall@Client@@XZ 000000014021fc30 f i StageCollisionManager.obj
 0002:00166c90       ?_Myfirst@?$_Vector_alloc@U?$_Vec_base_types@PEAVCWall@Client@@V?$allocator@PEAVCWall@Client@@@std@@@std@@@std@@QEBAAEBQEAPEAVCWall@Client@@XZ 000000014021fc90 f i StageCollisionManager.obj
 0002:00166cf0       ?_Mylast@?$_Vector_alloc@U?$_Vec_base_types@PEAVCWall@Client@@V?$allocator@PEAVCWall@Client@@@std@@@std@@@std@@QEAAAEAPEAPEAVCWall@Client@@XZ 000000014021fcf0 f i StageCollisionManager.obj
 0002:00166d50       ?_Mylast@?$_Vector_alloc@U?$_Vec_base_types@PEAVCWall@Client@@V?$allocator@PEAVCWall@Client@@@std@@@std@@@std@@QEBAAEBQEAPEAVCWall@Client@@XZ 000000014021fd50 f i StageCollisionManager.obj
 0002:00166db0       ?_Myproxy@?$_String_alloc@U?$_String_base_types@DV?$allocator@D@std@@@std@@@std@@QEAAAEAPEAU_Container_proxy@2@XZ 000000014021fdb0 f i StageCollisionManager.obj
 0002:00166e00       ?_Myproxy@?$_Vector_alloc@U?$_Vec_base_types@PEAVCWall@Client@@V?$allocator@PEAVCWall@Client@@@std@@@std@@@std@@QEAAAEAPEAU_Container_proxy@2@XZ 000000014021fe00 f i StageCollisionManager.obj
 0002:00166e50       ?_Myptr@?$_String_alloc@U?$_String_base_types@DV?$allocator@D@std@@@std@@@std@@QEAAPEADXZ 000000014021fe50 f i StageCollisionManager.obj
 0002:00166eb0       ?_Myptr@?$_String_alloc@U?$_String_base_types@DV?$allocator@D@std@@@std@@@std@@QEBAPEBDXZ 000000014021feb0 f i StageCollisionManager.obj
 0002:00166f10       ?_Myptr@?$_String_val@U?$_Simple_types@D@std@@@std@@QEAAPEADXZ 000000014021ff10 f i StageCollisionManager.obj
 0002:00166fb0       ?_Myptr@?$_String_val@U?$_Simple_types@D@std@@@std@@QEBAPEBDXZ 000000014021ffb0 f i StageCollisionManager.obj
 0002:00167050       ?_Myres@?$_String_alloc@U?$_String_base_types@DV?$allocator@D@std@@@std@@@std@@QEAAAEA_KXZ 0000000140220050 f i StageCollisionManager.obj
 0002:001670b0       ?_Mysize@?$_String_alloc@U?$_String_base_types@DV?$allocator@D@std@@@std@@@std@@QEAAAEA_KXZ 00000001402200b0 f i StageCollisionManager.obj
 0002:00167110       ?_Mysize@?$_String_alloc@U?$_String_base_types@DV?$allocator@D@std@@@std@@@std@@QEBAAEB_KXZ 0000000140220110 f i StageCollisionManager.obj
 0002:00167170       ?_Orphan_all@?$_String_alloc@U?$_String_base_types@DV?$allocator@D@std@@@std@@@std@@QEAAXXZ 0000000140220170 f i StageCollisionManager.obj
 0002:001671d0       ?_Orphan_all@?$_Vector_alloc@U?$_Vec_base_types@PEAVCWall@Client@@V?$allocator@PEAVCWall@Client@@@std@@@std@@@std@@QEAAXXZ 00000001402201d0 f i StageCollisionManager.obj
 0002:00167230       ?_Orphan_range@?$vector@PEAVCWall@Client@@V?$allocator@PEAVCWall@Client@@@std@@@std@@IEBAXPEAPEAVCWall@Client@@0@Z 0000000140220230 f i StageCollisionManager.obj
 0002:00167390       ?_Orphan_range@?$vector@UtagCubeDesc@CWall@Client@@V?$allocator@UtagCubeDesc@CWall@Client@@@std@@@std@@IEBAXPEAUtagCubeDesc@CWall@Client@@0@Z 0000000140220390 f i StageCollisionManager.obj
 0002:001674f0       ?_Reallocate@?$vector@PEAVCWall@Client@@V?$allocator@PEAVCWall@Client@@@std@@@std@@IEAAX_K@Z 00000001402204f0 f i StageCollisionManager.obj
 0002:00167760       ?_Reserve@?$vector@PEAVCWall@Client@@V?$allocator@PEAVCWall@Client@@@std@@@std@@IEAAX_K@Z 0000000140220760 f i StageCollisionManager.obj
 0002:00167850       ?_Reserve@?$vector@UtagCubeDesc@CWall@Client@@V?$allocator@UtagCubeDesc@CWall@Client@@@std@@@std@@IEAAX_K@Z 0000000140220850 f i StageCollisionManager.obj
 0002:00167940       ?_Tidy@?$basic_string@DU?$char_traits@D@std@@V?$allocator@D@2@@std@@QEAAX_N_K@Z 0000000140220940 f i StageCollisionManager.obj
 0002:00167af0       ?_Tidy@?$vector@PEAVCWall@Client@@V?$allocator@PEAVCWall@Client@@@std@@@std@@IEAAXXZ 0000000140220af0 f i StageCollisionManager.obj
 0002:00167c80       ?_Unused_capacity@?$vector@PEAVCWall@Client@@V?$allocator@PEAVCWall@Client@@@std@@@std@@QEBA_KXZ 0000000140220c80 f i StageCollisionManager.obj
 0002:00167d10       ?_Unused_capacity@?$vector@UtagCubeDesc@CWall@Client@@V?$allocator@UtagCubeDesc@CWall@Client@@@std@@@std@@QEBA_KXZ 0000000140220d10 f i StageCollisionManager.obj
 0002:00167da0       ?_Xlen@?$basic_string@DU?$char_traits@D@std@@V?$allocator@D@2@@std@@QEBAXXZ 0000000140220da0 f i StageCollisionManager.obj
 0002:00167e00       ?_Xlen@?$vector@PEAVCWall@Client@@V?$allocator@PEAVCWall@Client@@@std@@@std@@IEBAXXZ 0000000140220e00 f i StageCollisionManager.obj
 0002:00167e60       ?_Xran@?$basic_string@DU?$char_traits@D@std@@V?$allocator@D@2@@std@@QEBAXXZ 0000000140220e60 f i StageCollisionManager.obj
 0002:00167ec0       ?__autoclassinit2@?$_Vector_iterator@V?$_Vector_val@U?$_Simple_types@PEAVCWall@Client@@@std@@@std@@@std@@QEAAX_K@Z 0000000140220ec0 f i StageCollisionManager.obj
 0002:00167f20       ?allocate@?$_Wrap_alloc@V?$allocator@D@std@@@std@@QEAAPEAD_K@Z 0000000140220f20 f i StageCollisionManager.obj
 0002:00167f80       ?allocate@?$_Wrap_alloc@V?$allocator@PEAVCWall@Client@@@std@@@std@@QEAAPEAPEAVCWall@Client@@_K@Z 0000000140220f80 f i StageCollisionManager.obj
 0002:00167fe0       ?allocate@?$allocator@D@std@@QEAAPEAD_K@Z 0000000140220fe0 f i StageCollisionManager.obj
 0002:00168040       ?allocate@?$allocator@PEAVCWall@Client@@@std@@QEAAPEAPEAVCWall@Client@@_K@Z 0000000140221040 f i StageCollisionManager.obj
 0002:001680a0       ?assign@?$basic_string@DU?$char_traits@D@std@@V?$allocator@D@2@@std@@QEAAAEAV12@AEBV12@_K1@Z 00000001402210a0 f i StageCollisionManager.obj
 0002:00168230       ?assign@?$basic_string@DU?$char_traits@D@std@@V?$allocator@D@2@@std@@QEAAAEAV12@PEBD_K@Z 0000000140221230 f i StageCollisionManager.obj
 0002:001683a0       ?assign@?$char_traits@D@std@@SAXAEADAEBD@Z 00000001402213a0 f i StageCollisionManager.obj
 0002:00168400       ?begin@?$vector@PEAVCWall@Client@@V?$allocator@PEAVCWall@Client@@@std@@@std@@QEAA?AV?$_Vector_iterator@V?$_Vector_val@U?$_Simple_types@PEAVCWall@Client@@@std@@@std@@@2@XZ 0000000140221400 f i StageCollisionManager.obj
 0002:001684b0       ?c_str@?$basic_string@DU?$char_traits@D@std@@V?$allocator@D@2@@std@@QEBAPEBDXZ 00000001402214b0 f i StageCollisionManager.obj
 0002:00168510       ?capacity@?$vector@PEAVCWall@Client@@V?$allocator@PEAVCWall@Client@@@std@@@std@@QEBA_KXZ 0000000140221510 f i StageCollisionManager.obj
 0002:001685a0       ?clear@?$vector@PEAVCWall@Client@@V?$allocator@PEAVCWall@Client@@@std@@@std@@QEAAXXZ 00000001402215a0 f i StageCollisionManager.obj
 0002:00168690       ?copy@?$char_traits@D@std@@SAPEADPEADPEBD_K@Z 0000000140221690 f i StageCollisionManager.obj
 0002:00168730       ?deallocate@?$_Wrap_alloc@V?$allocator@D@std@@@std@@QEAAXPEAD_K@Z 0000000140221730 f i StageCollisionManager.obj
 0002:001687a0       ?deallocate@?$_Wrap_alloc@V?$allocator@PEAVCWall@Client@@@std@@@std@@QEAAXPEAPEAVCWall@Client@@_K@Z 00000001402217a0 f i StageCollisionManager.obj
 0002:00168810       ?deallocate@?$allocator@D@std@@QEAAXPEAD_K@Z 0000000140221810 f i StageCollisionManager.obj
 0002:00168880       ?deallocate@?$allocator@PEAVCWall@Client@@@std@@QEAAXPEAPEAVCWall@Client@@_K@Z 0000000140221880 f i StageCollisionManager.obj
 0002:001688f0       ?empty@?$vector@PEAVCWall@Client@@V?$allocator@PEAVCWall@Client@@@std@@@std@@QEBA_NXZ 00000001402218f0 f i StageCollisionManager.obj
 0002:00168990       ?end@?$vector@PEAVCWall@Client@@V?$allocator@PEAVCWall@Client@@@std@@@std@@QEAA?AV?$_Vector_iterator@V?$_Vector_val@U?$_Simple_types@PEAVCWall@Client@@@std@@@std@@@2@XZ 0000000140221990 f i StageCollisionManager.obj
 0002:00168a40       ?erase@?$basic_string@DU?$char_traits@D@std@@V?$allocator@D@2@@std@@QEAAAEAV12@_K0@Z 0000000140221a40 f i StageCollisionManager.obj
 0002:00168ba0       ?erase@?$basic_string@DU?$char_traits@D@std@@V?$allocator@D@2@@std@@QEAAAEAV12@_K@Z 0000000140221ba0 f i StageCollisionManager.obj
 0002:00168c20       ?insert@?$basic_string@DU?$char_traits@D@std@@V?$allocator@D@2@@std@@QEAAAEAV12@_KAEBV12@00@Z 0000000140221c20 f i StageCollisionManager.obj
 0002:00168f20       ?insert@?$basic_string@DU?$char_traits@D@std@@V?$allocator@D@2@@std@@QEAAAEAV12@_KPEBD0@Z 0000000140221f20 f i StageCollisionManager.obj
 0002:001691c0       ?insert@?$basic_string@DU?$char_traits@D@std@@V?$allocator@D@2@@std@@QEAAAEAV12@_KPEBD@Z 00000001402221c0 f i StageCollisionManager.obj
 0002:00169260       ?length@?$char_traits@D@std@@SA_KPEBD@Z 0000000140222260 f i StageCollisionManager.obj
 0002:001692f0       ?max_size@?$_Wrap_alloc@V?$allocator@D@std@@@std@@QEBA_KU_Nil@2@@Z 00000001402222f0 f i StageCollisionManager.obj
 0002:00169350       ?max_size@?$_Wrap_alloc@V?$allocator@PEAVCWall@Client@@@std@@@std@@QEBA_KU_Nil@2@@Z 0000000140222350 f i StageCollisionManager.obj
 0002:001693b0       ?max_size@?$allocator@D@std@@QEBA_KXZ 00000001402223b0 f i StageCollisionManager.obj
 0002:00169400       ?max_size@?$allocator@PEAVCWall@Client@@@std@@QEBA_KXZ 0000000140222400 f i StageCollisionManager.obj
 0002:00169450       ?max_size@?$allocator_traits@V?$allocator@D@std@@@std@@SA_KAEBV?$allocator@D@2@@Z 0000000140222450 f i StageCollisionManager.obj
 0002:001694a0       ?max_size@?$allocator_traits@V?$allocator@PEAVCWall@Client@@@std@@@std@@SA_KAEBV?$allocator@PEAVCWall@Client@@@2@@Z 00000001402224a0 f i StageCollisionManager.obj
 0002:001694f0       ?max_size@?$basic_string@DU?$char_traits@D@std@@V?$allocator@D@2@@std@@QEBA_KXZ 00000001402224f0 f i StageCollisionManager.obj
 0002:00169590       ?max_size@?$vector@PEAVCWall@Client@@V?$allocator@PEAVCWall@Client@@@std@@@std@@QEBA_KXZ 0000000140222590 f i StageCollisionManager.obj
 0002:00169600       ?move@?$char_traits@D@std@@SAPEADPEADPEBD_K@Z 0000000140222600 f i StageCollisionManager.obj
 0002:001696b0       ?push_back@?$vector@PEAVCWall@Client@@V?$allocator@PEAVCWall@Client@@@std@@@std@@QEAAXAEBQEAVCWall@Client@@@Z 00000001402226b0 f i StageCollisionManager.obj
 0002:001699e0       ?push_back@?$vector@UtagCubeDesc@CWall@Client@@V?$allocator@UtagCubeDesc@CWall@Client@@@std@@@std@@QEAAXAEBUtagCubeDesc@CWall@Client@@@Z 00000001402229e0 f i StageCollisionManager.obj
 0002:00169d10       ?size@?$vector@PEAVCWall@Client@@V?$allocator@PEAVCWall@Client@@@std@@@std@@QEBA_KXZ 0000000140222d10 f i StageCollisionManager.obj
 0002:00169da0       ?to_string@std@@YA?AV?$basic_string@DU?$char_traits@D@std@@V?$allocator@D@2@@1@I@Z 0000000140222da0 f i StageCollisionManager.obj
 0002:00169e30       ?to_wstring@std@@YA?AV?$basic_string@_WU?$char_traits@_W@std@@V?$allocator@_W@2@@1@_K@Z 0000000140222e30 f i StageCollisionManager.obj
 0002:00169ec0       ??$Safe_Release@PEAVCGameObject@Engine@@@Engine@@YAKAEAPEAVCGameObject@0@@Z 0000000140222ec0 f i Wall.obj
 0002:00169f50       ??$Safe_Release@PEAVCOBBCollider@Engine@@@Engine@@YAKAEAPEAVCOBBCollider@0@@Z 0000000140222f50 f i Wall.obj
 0002:00169fe0       ??0CWall@Client@@IEAA@AEBVCGameObject@Engine@@@Z 0000000140222fe0 f   Wall.obj
 0002:0016a110       ??0CWall@Client@@IEAA@PEAUID3D11Device@@PEAUID3D11DeviceContext@@@Z 0000000140223110 f   Wall.obj
 0002:0016a250       ??0CWall@Client@@QEAA@AEBV01@@Z 0000000140223250 f i Wall.obj
 0002:0016a370       ??1CWall@Client@@MEAA@XZ   0000000140223370 f i Wall.obj
 0002:0016a3d0       ??_GCWall@Client@@MEAAPEAXI@Z 00000001402233d0 f i Wall.obj
 0002:0016a3d0       ??_ECWall@Client@@MEAAPEAXI@Z 00000001402233d0 f i Wall.obj
 0002:0016a460       ?AddComponents@CWall@Client@@AEAAJXZ 0000000140223460 f   Wall.obj
 0002:0016a6f0       ?Clone@CWall@Client@@UEAAPEAVCGameObject@Engine@@PEAX@Z 00000001402236f0 f   Wall.obj
 0002:0016a870       ?Create@CWall@Client@@SAPEAV12@PEAUID3D11Device@@PEAUID3D11DeviceContext@@@Z 0000000140223870 f   Wall.obj
 0002:0016a9e0       ?Free@CWall@Client@@UEAAXXZ 00000001402239e0 f   Wall.obj
 0002:0016aa70       ?GetDepth@CWall@Client@@QEAAMXZ 0000000140223a70 f   Wall.obj
 0002:0016aaf0       ?GetNormal@CWall@Client@@QEAA?AT__m128@@T3@PEAM@Z 0000000140223af0 f   Wall.obj
 0002:0016ae50       ?GetPosition@CWall@Client@@QEAA?AT__m128@@XZ 0000000140223e50 f   Wall.obj
 0002:0016af30       ?Initialize@CWall@Client@@UEAAJPEAX@Z 0000000140223f30 f   Wall.obj
 0002:0016b5e0       ?Initialize_Prototype@CWall@Client@@UEAAJXZ 00000001402245e0 f   Wall.obj
 0002:0016b630       ?LateTick@CWall@Client@@UEAAXN@Z 0000000140224630 f   Wall.obj
 0002:0016b680       ?Render@CWall@Client@@UEAAJXZ 0000000140224680 f   Wall.obj
 0002:0016b6d0       ?RenderGUI@CWall@Client@@UEAAXXZ 00000001402246d0 f   Wall.obj
 0002:0016b710       ?SetPosition@CWall@Client@@QEAAXUXMFLOAT3@DirectX@@@Z 0000000140224710 f   Wall.obj
 0002:0016b7e0       ?SetRotation@CWall@Client@@QEAAXUXMFLOAT3@DirectX@@@Z 00000001402247e0 f   Wall.obj
 0002:0016b8a0       ?SetScale@CWall@Client@@QEAAXUXMFLOAT3@DirectX@@@Z 00000001402248a0 f   Wall.obj
 0002:0016b960       ?Tick@CWall@Client@@UEAAXN@Z 0000000140224960 f   Wall.obj
 0002:0016ba90       ??$Safe_Release@PEAVCWeapon@Client@@@Engine@@YAKAEAPEAVCWeapon@Client@@@Z 0000000140224a90 f i Weapon.obj
 0002:0016bb20       ??0CWeapon@Client@@AEAA@PEAUID3D11Device@@PEAUID3D11DeviceContext@@@Z 0000000140224b20 f   Weapon.obj
 0002:0016bc10       ??0CWeapon@Client@@QEAA@AEBV01@@Z 0000000140224c10 f i Weapon.obj
 0002:0016bd50       ??1CWeapon@Client@@EEAA@XZ 0000000140224d50 f i Weapon.obj
 0002:0016bdb0       ??_ECWeapon@Client@@EEAAPEAXI@Z 0000000140224db0 f i Weapon.obj
 0002:0016bdb0       ??_GCWeapon@Client@@EEAAPEAXI@Z 0000000140224db0 f i Weapon.obj
 0002:0016be40       ?AddComponents@CWeapon@Client@@AEAAJXZ 0000000140224e40 f   Weapon.obj
 0002:0016bfe0       ?Clone@CWeapon@Client@@UEAAPEAVCGameObject@Engine@@PEAX@Z 0000000140224fe0 f   Weapon.obj
 0002:0016c150       ?Create@CWeapon@Client@@SAPEAV12@PEAUID3D11Device@@PEAUID3D11DeviceContext@@@Z 0000000140225150 f   Weapon.obj
 0002:0016c2c0       ?Free@CWeapon@Client@@UEAAXXZ 00000001402252c0 f   Weapon.obj
 0002:0016c380       ?Initialize@CWeapon@Client@@UEAAJPEAX@Z 0000000140225380 f   Weapon.obj
 0002:0016c450       ?Initialize_Prototype@CWeapon@Client@@UEAAJXZ 0000000140225450 f   Weapon.obj
 0002:0016c4c0       ?LateTick@CWeapon@Client@@UEAAXN@Z 00000001402254c0 f   Weapon.obj
 0002:0016c9f0       ?Render@CWeapon@Client@@UEAAJXZ 00000001402259f0 f   Weapon.obj
 0002:0016cb30       ?RenderGUI@CWeapon@Client@@UEAAXXZ 0000000140225b30 f   Weapon.obj
 0002:0016cb70       ?SetupShaderResources@CWeapon@Client@@AEAAJXZ 0000000140225b70 f   Weapon.obj
 0002:0016ce60       ?Tick@CWeapon@Client@@UEAAXN@Z 0000000140225e60 f   Weapon.obj
 0002:0016ced0       ??$Safe_Release@PEAVCTerrain@Client@@@Engine@@YAKAEAPEAVCTerrain@Client@@@Z 0000000140225ed0 f i Terrain.obj
 0002:0016cf60       ??$Safe_Release@PEAVCVIBuffer_Terrain@Engine@@@Engine@@YAKAEAPEAVCVIBuffer_Terrain@0@@Z 0000000140225f60 f i Terrain.obj
 0002:0016cff0       ??0CTerrain@Client@@IEAA@AEBV01@@Z 0000000140225ff0 f   Terrain.obj
 0002:0016d0e0       ??0CTerrain@Client@@IEAA@PEAUID3D11Device@@PEAUID3D11DeviceContext@@@Z 00000001402260e0 f   Terrain.obj
 0002:0016d1e0       ??1CTerrain@Client@@MEAA@XZ 00000001402261e0 f i Terrain.obj
 0002:0016d240       ??_ECTerrain@Client@@MEAAPEAXI@Z 0000000140226240 f i Terrain.obj
 0002:0016d240       ??_GCTerrain@Client@@MEAAPEAXI@Z 0000000140226240 f i Terrain.obj
 0002:0016d2d0       ?Add_Components@CTerrain@Client@@AEAAJXZ 00000001402262d0 f   Terrain.obj
 0002:0016d550       ?Clone@CTerrain@Client@@UEAAPEAVCGameObject@Engine@@PEAX@Z 0000000140226550 f   Terrain.obj
 0002:0016d6c0       ?Create@CTerrain@Client@@SAPEAV12@PEAUID3D11Device@@PEAUID3D11DeviceContext@@@Z 00000001402266c0 f   Terrain.obj
 0002:0016d830       ?Free@CTerrain@Client@@UEAAXXZ 0000000140226830 f   Terrain.obj
 0002:0016d910       ?Initialize@CTerrain@Client@@UEAAJPEAX@Z 0000000140226910 f   Terrain.obj
 0002:0016d9a0       ?Initialize_Prototype@CTerrain@Client@@UEAAJXZ 00000001402269a0 f   Terrain.obj
 0002:0016da10       ?LateTick@CTerrain@Client@@UEAAXN@Z 0000000140226a10 f   Terrain.obj
 0002:0016dab0       ?Render@CTerrain@Client@@UEAAJXZ 0000000140226ab0 f   Terrain.obj
 0002:0016db60       ?Setup_ShaderResources@CTerrain@Client@@AEAAJXZ 0000000140226b60 f   Terrain.obj
 0002:0016dd50       ?Tick@CTerrain@Client@@UEAAXN@Z 0000000140226d50 f   Terrain.obj
 0002:0016ddc0       ?InitInstance@@YAHPEAUHINSTANCE__@@H@Z 0000000140226dc0 f   Client.obj
 0002:0016df70       ?MyRegisterClass@@YAGPEAUHINSTANCE__@@@Z 0000000140226f70 f   Client.obj
 0002:0016e0b0       ?WndProc@@YA_JPEAUHWND__@@I_K_J@Z 00000001402270b0 f   Client.obj
 0002:0016e220       wWinMain                   0000000140227220 f   Client.obj
 0002:0016e532       ??0CBase@Engine@@QEAA@XZ   0000000140227532 f   Engine:Engine.dll
 0002:0016e538       ??1CBase@Engine@@UEAA@XZ   0000000140227538 f   Engine:Engine.dll
 0002:0016e53e       ?AddRef@CBase@Engine@@QEAAKXZ 000000014022753e f   Engine:Engine.dll
 0002:0016e544       ?Release@CBase@Engine@@QEAAKXZ 0000000140227544 f   Engine:Engine.dll
 0002:0016e54a       ?Create@CVIBuffer_Rect@Engine@@SAPEAV12@PEAUID3D11Device@@PEAUID3D11DeviceContext@@@Z 000000014022754a f   Engine:Engine.dll
 0002:0016e550       ?Create@CTransform@Engine@@SAPEAV12@PEAUID3D11Device@@PEAUID3D11DeviceContext@@@Z 0000000140227550 f   Engine:Engine.dll
 0002:0016e556       ?Draw@CRenderer@Engine@@QEAAXXZ 0000000140227556 f   Engine:Engine.dll
 0002:0016e55c       ?Create@CRenderer@Engine@@SAPEAV12@PEAUID3D11Device@@PEAUID3D11DeviceContext@@@Z 000000014022755c f   Engine:Engine.dll
 0002:0016e562       ?Create@CTexture@Engine@@SAPEAV12@PEAUID3D11Device@@PEAUID3D11DeviceContext@@PEB_WI@Z 0000000140227562 f   Engine:Engine.dll
 0002:0016e568       ?Create@CShader@Engine@@SAPEAV12@PEAUID3D11Device@@PEAUID3D11DeviceContext@@PEB_WPEAUD3D11_INPUT_ELEMENT_DESC@@I@Z 0000000140227568 f   Engine:Engine.dll
 0002:0016e56e       ?GetInstance@CGameInstance@Engine@@SAPEAV12@XZ 000000014022756e f   Engine:Engine.dll
 0002:0016e574       ?Engine_Initialize@CGameInstance@Engine@@QEAAJAEBUtagGraphic_Desc@2@IPEAPEAUID3D11Device@@PEAPEAUID3D11DeviceContext@@@Z 0000000140227574 f   Engine:Engine.dll
 0002:0016e57a       ?Engine_Tick@CGameInstance@Engine@@QEAAJN@Z 000000014022757a f   Engine:Engine.dll
 0002:0016e580       ?Clear_RenderTargetView@CGameInstance@Engine@@QEAAJUXMFLOAT4@DirectX@@@Z 0000000140227580 f   Engine:Engine.dll
 0002:0016e586       ?Clear_DepthStencilView@CGameInstance@Engine@@QEAAJXZ 0000000140227586 f   Engine:Engine.dll
 0002:0016e58c       ?Present@CGameInstance@Engine@@QEAAJXZ 000000014022758c f   Engine:Engine.dll
 0002:0016e592       ?Open_Level@CGameInstance@Engine@@QEAAJIPEAVCLevel@2@@Z 0000000140227592 f   Engine:Engine.dll
 0002:0016e598       ?RenderLevelUI@CGameInstance@Engine@@QEAAXXZ 0000000140227598 f   Engine:Engine.dll
 0002:0016e59e       ?Add_Prototype@CGameInstance@Engine@@QEAAJPEB_WPEAVCGameObject@2@@Z 000000014022759e f   Engine:Engine.dll
 0002:0016e5a4       ?RenderGUI@CGameInstance@Engine@@QEAAXXZ 00000001402275a4 f   Engine:Engine.dll
 0002:0016e5aa       ?Add_Prototype@CGameInstance@Engine@@QEAAJIPEB_WPEAVCComponent@2@@Z 00000001402275aa f   Engine:Engine.dll
 0002:0016e5b0       ?CollisionRender@CGameInstance@Engine@@QEAAXXZ 00000001402275b0 f   Engine:Engine.dll
 0002:0016e5b6       ?Engine_Release@CGameInstance@Engine@@SAXXZ 00000001402275b6 f   Engine:Engine.dll
 0002:0016e5bc       ??0CGameObject@Engine@@IEAA@PEAUID3D11Device@@PEAUID3D11DeviceContext@@@Z 00000001402275bc f   Engine:Engine.dll
 0002:0016e5c2       ??0CGameObject@Engine@@IEAA@AEBV01@@Z 00000001402275c2 f   Engine:Engine.dll
 0002:0016e5c8       ??1CGameObject@Engine@@MEAA@XZ 00000001402275c8 f   Engine:Engine.dll
 0002:0016e5ce       ?Initialize_Prototype@CGameObject@Engine@@UEAAJXZ 00000001402275ce f   Engine:Engine.dll
 0002:0016e5d4       ?Initialize@CGameObject@Engine@@UEAAJPEAX@Z 00000001402275d4 f   Engine:Engine.dll
 0002:0016e5da       ?Tick@CGameObject@Engine@@UEAAXN@Z 00000001402275da f   Engine:Engine.dll
 0002:0016e5e0       ?LateTick@CGameObject@Engine@@UEAAXN@Z 00000001402275e0 f   Engine:Engine.dll
 0002:0016e5e6       ?Render@CGameObject@Engine@@UEAAJXZ 00000001402275e6 f   Engine:Engine.dll
 0002:0016e5ec       ?Add_Component@CGameObject@Engine@@IEAAJIPEB_W0PEAPEAVCComponent@2@PEAX@Z 00000001402275ec f   Engine:Engine.dll
 0002:0016e5f2       ?Free@CGameObject@Engine@@UEAAXXZ 00000001402275f2 f   Engine:Engine.dll
 0002:0016e5f8       ?Render@CVIBuffer@Engine@@UEAAJXZ 00000001402275f8 f   Engine:Engine.dll
 0002:0016e5fe       ?Add_RenderGroup@CRenderer@Engine@@QEAAJW4RENDER_GROUP@12@PEAVCGameObject@2@@Z 00000001402275fe f   Engine:Engine.dll
 0002:0016e604       ?Setup_ShaderResource@CTexture@Engine@@QEAAJPEAVCShader@2@PEBDI@Z 0000000140227604 f   Engine:Engine.dll
 0002:0016e60a       ?Begin@CShader@Engine@@QEAAJI@Z 000000014022760a f   Engine:Engine.dll
 0002:0016e610       ?SetMatrix@CShader@Engine@@QEAAJPEBDPEBUXMFLOAT4X4@DirectX@@@Z 0000000140227610 f   Engine:Engine.dll
 0002:0016e616       ?Get_State@CTransform@Engine@@QEAA?AT__m128@@W4STATE@12@@Z 0000000140227616 f   Engine:Engine.dll
 0002:0016e61c       ?MoveForward@CTransform@Engine@@QEAAXN@Z 000000014022761c f   Engine:Engine.dll
 0002:0016e622       ?MoveBackward@CTransform@Engine@@QEAAXN@Z 0000000140227622 f   Engine:Engine.dll
 0002:0016e628       ?MoveRight@CTransform@Engine@@QEAAXN@Z 0000000140227628 f   Engine:Engine.dll
 0002:0016e62e       ?MoveLeft@CTransform@Engine@@QEAAXN@Z 000000014022762e f   Engine:Engine.dll
 0002:0016e634       ?Rotate@CTransform@Engine@@QEAAXT__m128@@N@Z 0000000140227634 f   Engine:Engine.dll
 0002:0016e63a       ??0CCamera@Engine@@IEAA@PEAUID3D11Device@@PEAUID3D11DeviceContext@@@Z 000000014022763a f   Engine:Engine.dll
 0002:0016e640       ??0CCamera@Engine@@IEAA@AEBV01@@Z 0000000140227640 f   Engine:Engine.dll
 0002:0016e646       ??1CCamera@Engine@@MEAA@XZ 0000000140227646 f   Engine:Engine.dll
 0002:0016e64c       ?Initialize_Prototype@CCamera@Engine@@UEAAJXZ 000000014022764c f   Engine:Engine.dll
 0002:0016e652       ?Initialize@CCamera@Engine@@UEAAJPEAX@Z 0000000140227652 f   Engine:Engine.dll
 0002:0016e658       ?Tick@CCamera@Engine@@UEAAXN@Z 0000000140227658 f   Engine:Engine.dll
 0002:0016e65e       ?LateTick@CCamera@Engine@@UEAAXN@Z 000000014022765e f   Engine:Engine.dll
 0002:0016e664       ?Free@CCamera@Engine@@UEAAXXZ 0000000140227664 f   Engine:Engine.dll
 0002:0016e66a       ?Input_KeyState_Custom@CGameInstance@Engine@@QEAA?AW4KEY_STATE@2@H@Z 000000014022766a f   Engine:Engine.dll
 0002:0016e670       ?Input_MouseState_Custom@CGameInstance@Engine@@QEAA?AW4KEY_STATE@2@W4MOUSE_KEYSTATE@2@@Z 0000000140227670 f   Engine:Engine.dll
 0002:0016e676       ?Input_MouseMove@CGameInstance@Engine@@QEAAJW4MOUSE_MOVESTATE@2@@Z 0000000140227676 f   Engine:Engine.dll
 0002:0016e67c       ?RenderGUI@CGameObject@Engine@@UEAAXXZ 000000014022767c f   Engine:Engine.dll
 0002:0016e682       ?Find_Component@CGameObject@Engine@@QEAAPEAVCComponent@2@PEB_W@Z 0000000140227682 f   Engine:Engine.dll
 0002:0016e688       ?Destroy@CGameObject@Engine@@QEAAXXZ 0000000140227688 f   Engine:Engine.dll
 0002:0016e68e       ?IsDestroy@CGameObject@Engine@@QEAA_NXZ 000000014022768e f   Engine:Engine.dll
 0002:0016e694       ?SetActive@CCollider@Engine@@QEAAX_N@Z 0000000140227694 f   Engine:Engine.dll
 0002:0016e69a       ?Compare@CCollider@Engine@@QEAA_NPEAV12@@Z 000000014022769a f   Engine:Engine.dll
 0002:0016e6a0       ?GetOwner@CCollider@Engine@@QEBAPEAVCGameObject@2@XZ 00000001402276a0 f   Engine:Engine.dll
 0002:0016e6a6       ??0IOnCollisionEnter@Engine@@QEAA@XZ 00000001402276a6 f   Engine:Engine.dll
 0002:0016e6ac       ??0IOnCollisionStay@Engine@@QEAA@XZ 00000001402276ac f   Engine:Engine.dll
 0002:0016e6b2       ??0IOnCollisionExit@Engine@@QEAA@XZ 00000001402276b2 f   Engine:Engine.dll
 0002:0016e6b8       ?Setup_ShaderMaterialResource@CModel@Engine@@QEAAJPEAVCShader@2@PEBDIW4aiTextureType@@@Z 00000001402276b8 f   Engine:Engine.dll
 0002:0016e6be       ?Setup_BoneMatrices@CModel@Engine@@QEAAJPEAVCShader@2@PEBDI@Z 00000001402276be f   Engine:Engine.dll
 0002:0016e6c4       ?Setup_Animation@CModel@Engine@@QEAAJIW4TYPE@CAnimation@2@_N@Z 00000001402276c4 f   Engine:Engine.dll
 0002:0016e6ca       ?Play_Animation@CModel@Engine@@QEAAJNPEAVCTransform@2@N_N@Z 00000001402276ca f   Engine:Engine.dll
 0002:0016e6d0       ?Render@CModel@Engine@@QEAAJI@Z 00000001402276d0 f   Engine:Engine.dll
 0002:0016e6d6       ?GetMeshName@CModel@Engine@@QEAAPEBDI@Z 00000001402276d6 f   Engine:Engine.dll
 0002:0016e6dc       ?Get_MeshCount@CModel@Engine@@QEAAIXZ 00000001402276dc f   Engine:Engine.dll
 0002:0016e6e2       ?GetBonePtr@CModel@Engine@@QEAAPEAVCBone@2@PEBD@Z 00000001402276e2 f   Engine:Engine.dll
 0002:0016e6e8       ?GetLocalMatrix@CModel@Engine@@QEBA?AUXMFLOAT4X4@DirectX@@XZ 00000001402276e8 f   Engine:Engine.dll
 0002:0016e6ee       ?AnimationCompare@CModel@Engine@@QEBA_NI@Z 00000001402276ee f   Engine:Engine.dll
 0002:0016e6f4       ?AnimationIsFinish@CModel@Engine@@QEAA_NXZ 00000001402276f4 f   Engine:Engine.dll
 0002:0016e6fa       ?AnimationIsFinishEx@CModel@Engine@@QEAA_NXZ 00000001402276fa f   Engine:Engine.dll
 0002:0016e700       ?AnimationIsPreFinish@CModel@Engine@@QEAA_NXZ 0000000140227700 f   Engine:Engine.dll
 0002:0016e706       ?AnimationIsPreFinishEx@CModel@Engine@@QEAA_NXZ 0000000140227706 f   Engine:Engine.dll
 0002:0016e70c       ?Get_WorldMatrix@CTransform@Engine@@QEAA?AUXMFLOAT4X4@DirectX@@XZ 000000014022770c f   Engine:Engine.dll
 0002:0016e712       ?Set_State@CTransform@Engine@@QEAAXW4STATE@12@T__m128@@@Z 0000000140227712 f   Engine:Engine.dll
 0002:0016e718       ?LookAt@CTransform@Engine@@QEAAXT__m128@@@Z 0000000140227718 f   Engine:Engine.dll
 0002:0016e71e       ?Chase@CTransform@Engine@@QEAAXT__m128@@NM@Z 000000014022771e f   Engine:Engine.dll
 0002:0016e724       ?Setup_ShaderResource@CTransform@Engine@@QEAAJPEAVCShader@2@PEBD@Z 0000000140227724 f   Engine:Engine.dll
 0002:0016e72a       ?SetRawValue@CShader@Engine@@QEAAJPEBDPEBXI@Z 000000014022772a f   Engine:Engine.dll
 0002:0016e730       ?Get_Transform_float4x4@CGameInstance@Engine@@QEAA?AUXMFLOAT4X4@DirectX@@W4TRANSFORM_STATE@CPipeLine@2@@Z 0000000140227730 f   Engine:Engine.dll
 0002:0016e736       ?Get_CamPosition@CGameInstance@Engine@@QEAA?AUXMFLOAT4@DirectX@@XZ 0000000140227736 f   Engine:Engine.dll
 0002:0016e73c       ?GetLightDesc@CGameInstance@Engine@@QEAAPEBUtagLight_Desc@2@I@Z 000000014022773c f   Engine:Engine.dll
 0002:0016e742       ?AddCollider@CGameInstance@Engine@@QEAAJPEAVCCollider@2@I@Z 0000000140227742 f   Engine:Engine.dll
 0002:0016e748       ?Set_Scale@CTransform@Engine@@QEAAXUXMFLOAT3@DirectX@@@Z 0000000140227748 f   Engine:Engine.dll
 0002:0016e74e       ?Compare@CGameObject@Engine@@QEAA_NPEAV12@@Z 000000014022774e f   Engine:Engine.dll
 0002:0016e754       ?SetColor@CCollider@Engine@@QEAAXUXMFLOAT4@DirectX@@@Z 0000000140227754 f   Engine:Engine.dll
 0002:0016e75a       ?SetCollision@CCollider@Engine@@QEAAX_N@Z 000000014022775a f   Engine:Engine.dll
 0002:0016e760       ?AnimationIsPreFinishCustom@CModel@Engine@@QEAA_NN@Z 0000000140227760 f   Engine:Engine.dll
 0002:0016e766       ?Add_GameObject@CGameInstance@Engine@@QEAAPEAVCGameObject@2@IPEB_W0V?$basic_string@_WU?$char_traits@_W@std@@V?$allocator@_W@2@@std@@PEAX@Z 0000000140227766 f   Engine:Engine.dll
 0002:0016e76c       ?Get_Transform_Matrix_Inverse@CGameInstance@Engine@@QEAA?AUXMMATRIX@DirectX@@W4TRANSFORM_STATE@CPipeLine@2@@Z 000000014022776c f   Engine:Engine.dll
 0002:0016e772       ?CreateTimer@CGameInstance@Engine@@QEAAJPEB_W@Z 0000000140227772 f   Engine:Engine.dll
 0002:0016e778       ?GetTimer@CGameInstance@Engine@@QEAAMPEB_W@Z 0000000140227778 f   Engine:Engine.dll
 0002:0016e77e       ?GetInstance@CCollisionManager@Engine@@SAPEAV12@XZ 000000014022777e f   Engine:Engine.dll
 0002:0016e784       ?GetHasCollisionCount@CCollisionManager@Engine@@QEAAHXZ 0000000140227784 f   Engine:Engine.dll
 0002:0016e78a       ??0CLevel@Engine@@IEAA@PEAUID3D11Device@@PEAUID3D11DeviceContext@@@Z 000000014022778a f   Engine:Engine.dll
 0002:0016e790       ??1CLevel@Engine@@MEAA@XZ  0000000140227790 f   Engine:Engine.dll
 0002:0016e796       ?Free@CLevel@Engine@@UEAAXXZ 0000000140227796 f   Engine:Engine.dll
 0002:0016e79c       ?AddLight@CGameInstance@Engine@@QEAAJPEAUID3D11Device@@PEAUID3D11DeviceContext@@AEBUtagLight_Desc@2@@Z 000000014022779c f   Engine:Engine.dll
 0002:0016e7a2       ?RenderLevelUI@CLevel@Engine@@UEAAXXZ 00000001402277a2 f   Engine:Engine.dll
 0002:0016e7a8       ?Initialize@CLevel@Engine@@UEAAJXZ 00000001402277a8 f   Engine:Engine.dll
 0002:0016e7ae       ?Create@CModel@Engine@@SAPEAV12@PEAUID3D11Device@@PEAUID3D11DeviceContext@@W4MESH_TYPE@12@PEBDUXMMATRIX@DirectX@@I@Z 00000001402277ae f   Engine:Engine.dll
 0002:0016e7b4       ?Create@COBBCollider@Engine@@SAPEAV12@PEAUID3D11Device@@PEAUID3D11DeviceContext@@@Z 00000001402277b4 f   Engine:Engine.dll
 0002:0016e7ba       ?Create@CSphereCollider@Engine@@SAPEAV12@PEAUID3D11Device@@PEAUID3D11DeviceContext@@@Z 00000001402277ba f   Engine:Engine.dll
 0002:0016e7c0       ?Create@CVIBuffer_Terrain@Engine@@SAPEAV12@PEAUID3D11Device@@PEAUID3D11DeviceContext@@PEB_W@Z 00000001402277c0 f   Engine:Engine.dll
 0002:0016e7c6       ?SetVisible@CCollider@Engine@@QEAAX_N@Z 00000001402277c6 f   Engine:Engine.dll
 0002:0016e7cc       ?Update@COBBCollider@Engine@@UEAAXUXMMATRIX@DirectX@@@Z 00000001402277cc f   Engine:Engine.dll
 0002:0016e7d2       ?Get_Scale@CTransform@Engine@@QEAA?AUXMFLOAT3@DirectX@@XZ 00000001402277d2 f   Engine:Engine.dll
 0002:0016e7d8       ?SetRotationXYZ@CTransform@Engine@@QEAAXUXMFLOAT3@DirectX@@@Z 00000001402277d8 f   Engine:Engine.dll
 0002:0016e7de       ?Set_WorldMatrix@CTransform@Engine@@QEAAXUXMFLOAT4X4@DirectX@@@Z 00000001402277de f   Engine:Engine.dll
 0002:0016e7e4       ?GetInstance@CPipeLine@Engine@@SAPEAV12@XZ 00000001402277e4 f   Engine:Engine.dll
 0002:0016e7ea       ?Get_Transform_float4x4@CPipeLine@Engine@@QEAA?AUXMFLOAT4X4@DirectX@@W4TRANSFORM_STATE@12@@Z 00000001402277ea f   Engine:Engine.dll
 0002:0016e7f0       ?SetTimer@CGameInstance@Engine@@QEAAXPEB_W@Z 00000001402277f0 f   Engine:Engine.dll
 0002:0016e7f6       GlobalAlloc                00000001402277f6 f   kernel32:KERNEL32.dll
 0002:0016e7fc       GlobalLock                 00000001402277fc f   kernel32:KERNEL32.dll
 0002:0016e802       GlobalUnlock               0000000140227802 f   kernel32:KERNEL32.dll
 0002:0016e808       GlobalFree                 0000000140227808 f   kernel32:KERNEL32.dll
 0002:0016e80e       MultiByteToWideChar        000000014022780e f   kernel32:KERNEL32.dll
 0002:0016e814       WideCharToMultiByte        0000000140227814 f   kernel32:KERNEL32.dll
 0002:0016e81a       VerSetConditionMask        000000014022781a f   kernel32:KERNEL32.dll
 0002:0016e820       QueryPerformanceCounter    0000000140227820 f   kernel32:KERNEL32.dll
 0002:0016e826       QueryPerformanceFrequency  0000000140227826 f   kernel32:KERNEL32.dll
 0002:0016e82c       FreeLibrary                000000014022782c f   kernel32:KERNEL32.dll
 0002:0016e832       GetModuleHandleA           0000000140227832 f   kernel32:KERNEL32.dll
 0002:0016e838       GetProcAddress             0000000140227838 f   kernel32:KERNEL32.dll
 0002:0016e83e       LoadLibraryA               000000014022783e f   kernel32:KERNEL32.dll
 0002:0016e844       CloseHandle                0000000140227844 f   kernel32:KERNEL32.dll
 0002:0016e84a       InitializeCriticalSection  000000014022784a f   kernel32:KERNEL32.dll
 0002:0016e850       EnterCriticalSection       0000000140227850 f   kernel32:KERNEL32.dll
 0002:0016e856       LeaveCriticalSection       0000000140227856 f   kernel32:KERNEL32.dll
 0002:0016e85c       DeleteCriticalSection      000000014022785c f   kernel32:KERNEL32.dll
 0002:0016e862       WaitForSingleObject        0000000140227862 f   kernel32:KERNEL32.dll
 0002:0016e868       CreateFileW                0000000140227868 f   kernel32:KERNEL32.dll
 0002:0016e86e       ReadFile                   000000014022786e f   kernel32:KERNEL32.dll
 0002:0016e874       WriteFile                  0000000140227874 f   kernel32:KERNEL32.dll
 0002:0016e87a       lstrcpyW                   000000014022787a f   kernel32:KERNEL32.dll
 0002:0016e880       OpenClipboard              0000000140227880 f   user32:USER32.dll
 0002:0016e886       CloseClipboard             0000000140227886 f   user32:USER32.dll
 0002:0016e88c       SetClipboardData           000000014022788c f   user32:USER32.dll
 0002:0016e892       GetClipboardData           0000000140227892 f   user32:USER32.dll
 0002:0016e898       EmptyClipboard             0000000140227898 f   user32:USER32.dll
 0002:0016e89e       TrackMouseEvent            000000014022789e f   user32:USER32.dll
 0002:0016e8a4       GetKeyState                00000001402278a4 f   user32:USER32.dll
 0002:0016e8aa       GetCapture                 00000001402278aa f   user32:USER32.dll
 0002:0016e8b0       SetCapture                 00000001402278b0 f   user32:USER32.dll
 0002:0016e8b6       ReleaseCapture             00000001402278b6 f   user32:USER32.dll
 0002:0016e8bc       IsWindowUnicode            00000001402278bc f   user32:USER32.dll
 0002:0016e8c2       GetForegroundWindow        00000001402278c2 f   user32:USER32.dll
 0002:0016e8c8       GetDC                      00000001402278c8 f   user32:USER32.dll
 0002:0016e8ce       ReleaseDC                  00000001402278ce f   user32:USER32.dll
 0002:0016e8d4       GetClientRect              00000001402278d4 f   user32:USER32.dll
 0002:0016e8da       SetCursorPos               00000001402278da f   user32:USER32.dll
 0002:0016e8e0       SetCursor                  00000001402278e0 f   user32:USER32.dll
 0002:0016e8e6       GetCursorPos               00000001402278e6 f   user32:USER32.dll
 0002:0016e8ec       ClientToScreen             00000001402278ec f   user32:USER32.dll
 0002:0016e8f2       ScreenToClient             00000001402278f2 f   user32:USER32.dll
 0002:0016e8f8       LoadCursorW                00000001402278f8 f   user32:USER32.dll
 0002:0016e8fe       MonitorFromWindow          00000001402278fe f   user32:USER32.dll
 0002:0016e904       SetProcessDPIAware         0000000140227904 f   user32:USER32.dll
 0002:0016e90a       MessageBoxW                000000014022790a f   user32:USER32.dll
 0002:0016e910       SetWindowTextW             0000000140227910 f   user32:USER32.dll
 0002:0016e916       LoadStringW                0000000140227916 f   user32:USER32.dll
 0002:0016e91c       TranslateMessage           000000014022791c f   user32:USER32.dll
 0002:0016e922       DispatchMessageW           0000000140227922 f   user32:USER32.dll
 0002:0016e928       PeekMessageW               0000000140227928 f   user32:USER32.dll
 0002:0016e92e       DefWindowProcW             000000014022792e f   user32:USER32.dll
 0002:0016e934       PostQuitMessage            0000000140227934 f   user32:USER32.dll
 0002:0016e93a       RegisterClassExW           000000014022793a f   user32:USER32.dll
 0002:0016e940       CreateWindowExW            0000000140227940 f   user32:USER32.dll
 0002:0016e946       ShowWindow                 0000000140227946 f   user32:USER32.dll
 0002:0016e94c       LoadAcceleratorsW          000000014022794c f   user32:USER32.dll
 0002:0016e952       TranslateAcceleratorW      0000000140227952 f   user32:USER32.dll
 0002:0016e958       UpdateWindow               0000000140227958 f   user32:USER32.dll
 0002:0016e95e       BeginPaint                 000000014022795e f   user32:USER32.dll
 0002:0016e964       EndPaint                   0000000140227964 f   user32:USER32.dll
 0002:0016e96a       AdjustWindowRect           000000014022796a f   user32:USER32.dll
 0002:0016e970       LoadIconW                  0000000140227970 f   user32:USER32.dll
 0002:0016e976       CreateRectRgn              0000000140227976 f   gdi32:GDI32.dll
 0002:0016e97c       DeleteObject               000000014022797c f   gdi32:GDI32.dll
 0002:0016e982       GetDeviceCaps              0000000140227982 f   gdi32:GDI32.dll
 0002:0016e988       GetSaveFileNameW           0000000140227988 f   comdlg32:COMDLG32.dll
 0002:0016e98e       CoInitializeEx             000000014022798e f   ole32:ole32.dll
 0002:0016e994       ImmGetContext              0000000140227994 f   imm32:IMM32.dll
 0002:0016e99a       ImmReleaseContext          000000014022799a f   imm32:IMM32.dll
 0002:0016e9a0       ImmSetCompositionWindow    00000001402279a0 f   imm32:IMM32.dll
 0002:0016e9a6       ImmSetCandidateWindow      00000001402279a6 f   imm32:IMM32.dll
 0002:0016e9b0       ??_L@YAXPEAX_K1P6AX0@Z2@Z  00000001402279b0 f   MSVCRTD:ehvecctr.obj
 0002:0016ea80       ??_L@YAXPEAX_KHP6AX0@Z2@Z  0000000140227a80 f   MSVCRTD:ehvecctr.obj
 0002:0016eae0       ??_M@YAXPEAX_K1P6AX0@Z@Z   0000000140227ae0 f   MSVCRTD:ehvecdtr.obj
 0002:0016ebd0       ??_M@YAXPEAX_KHP6AX0@Z@Z   0000000140227bd0 f   MSVCRTD:ehvecdtr.obj
 0002:0016ec70       ?__ArrayUnwind@@YAXPEAX_K1P6AX0@Z@Z 0000000140227c70 f   MSVCRTD:ehvecdtr.obj
 0002:0016ed10       ??3@YAXPEAX_K@Z            0000000140227d10 f   MSVCRTD:delete_scalar_size.obj
 0002:0016ed40       __raise_securityfailure    0000000140227d40 f   MSVCRTD:gs_report.obj
 0002:0016ed90       __report_gsfailure         0000000140227d90 f   MSVCRTD:gs_report.obj
 0002:0016eea0       __report_rangecheckfailure 0000000140227ea0 f   MSVCRTD:gs_report.obj
 0002:0016eec0       __report_securityfailure   0000000140227ec0 f   MSVCRTD:gs_report.obj
 0002:0016ef90       __report_securityfailureEx 0000000140227f90 f   MSVCRTD:gs_report.obj
 0002:0016f290       _RTC_AllocaHelper          0000000140228290 f   MSVCRTD:_stack_.obj
 0002:0016f2e0       _RTC_CheckStackVars        00000001402282e0 f   MSVCRTD:_stack_.obj
 0002:0016f390       _RTC_CheckStackVars2       0000000140228390 f   MSVCRTD:_stack_.obj
 0002:0016f4e0       _CRT_RTC_INIT              00000001402284e0 f   MSVCRTD:_init_.obj
 0002:0016f4f0       _CRT_RTC_INITW             00000001402284f0 f   MSVCRTD:_init_.obj
 0002:0016f500       _RTC_InitBase              0000000140228500 f   MSVCRTD:_init_.obj
 0002:0016f550       _RTC_Shutdown              0000000140228550 f   MSVCRTD:_init_.obj
 0002:0016f580       __GSHandlerCheck           0000000140228580 f   MSVCRTD:_gshandler_.obj
 0002:0016f5d0       __GSHandlerCheckCommon     00000001402285d0 f   MSVCRTD:_gshandler_.obj
 0002:0016f710       __GSHandlerCheck_EH        0000000140228710 f   MSVCRTD:gshandlereh.obj
 0002:0016f7f0       _alloca_probe              00000001402287f0 f   MSVCRTD:_chkstk_.obj
 0002:0016f7f0       __chkstk                   00000001402287f0 f   MSVCRTD:_chkstk_.obj
 0002:0016f870       __security_check_cookie    0000000140228870 f   MSVCRTD:_amdsecgs_.obj
 0002:0016f8a0       ??$__crt_fast_decode_pointer@PEAP6AXXZ@@YAPEAP6AXXZQEAP6AXXZ@Z 00000001402288a0 f i MSVCRTD:utility.obj
 0002:0016f8f0       ??$__crt_fast_encode_pointer@PEAP6AXXZ@@YAPEAP6AXXZQEAP6AXXZ@Z 00000001402288f0 f i MSVCRTD:utility.obj
 0002:0016f940       ?__crt_rotate_pointer_value@@YA_K_KH@Z 0000000140228940 f i MSVCRTD:utility.obj
 0002:0016f960       ?configure_argv@__scrt_narrow_argv_policy@@SAHXZ 0000000140228960 f i MSVCRTD:utility.obj
 0002:0016fb30       NtCurrentTeb               0000000140228b30 f i MSVCRTD:utility.obj
 0002:0016fb40       __scrt_acquire_startup_lock 0000000140228b40 f   MSVCRTD:utility.obj
 0002:0016fbc0       __scrt_dllmain_after_initialize_c 0000000140228bc0 f   MSVCRTD:utility.obj
 0002:0016fc00       __scrt_dllmain_before_initialize_c 0000000140228c00 f   MSVCRTD:utility.obj
 0002:0016fc30       __scrt_dllmain_crt_thread_attach 0000000140228c30 f   MSVCRTD:utility.obj
 0002:0016fc70       __scrt_dllmain_crt_thread_detach 0000000140228c70 f   MSVCRTD:utility.obj
 0002:0016fc90       __scrt_dllmain_exception_filter 0000000140228c90 f   MSVCRTD:utility.obj
 0002:0016fd10       __scrt_dllmain_uninitialize_c 0000000140228d10 f   MSVCRTD:utility.obj
 0002:0016fd50       __scrt_dllmain_uninitialize_critical 0000000140228d50 f   MSVCRTD:utility.obj
 0002:0016fd70       __scrt_initialize_crt      0000000140228d70 f   MSVCRTD:utility.obj
 0002:0016fdd0       __scrt_initialize_onexit_tables 0000000140228dd0 f   MSVCRTD:utility.obj
 0002:0016ff10       __scrt_is_nonwritable_in_current_image 0000000140228f10 f   MSVCRTD:utility.obj
 0002:0016ffc0       __scrt_release_startup_lock 0000000140228fc0 f   MSVCRTD:utility.obj
 0002:00170000       __scrt_uninitialize_crt    0000000140229000 f   MSVCRTD:utility.obj
 0002:00170050       _onexit                    0000000140229050 f   MSVCRTD:utility.obj
 0002:00170100       at_quick_exit              0000000140229100 f   MSVCRTD:utility.obj
 0002:00170170       atexit                     0000000140229170 f   MSVCRTD:utility.obj
 0002:00170330       ??$__crt_fast_decode_pointer@P6AHPEAU_RTL_CONDITION_VARIABLE@@PEAU_RTL_CRITICAL_SECTION@@K@Z@@YAP6AHPEAU_RTL_CONDITION_VARIABLE@@PEAU_RTL_CRITICAL_SECTION@@K@ZQ6AH01K@Z@Z 0000000140229330 f i MSVCRTD:thread_safe_statics.obj
 0002:00170380       ??$__crt_fast_decode_pointer@P6AXPEAU_RTL_CONDITION_VARIABLE@@@Z@@YAP6AXPEAU_RTL_CONDITION_VARIABLE@@@ZQ6AX0@Z@Z 0000000140229380 f i MSVCRTD:thread_safe_statics.obj
 0002:001703d0       ??$__crt_fast_encode_pointer@P6AHPEAU_RTL_CONDITION_VARIABLE@@PEAU_RTL_CRITICAL_SECTION@@K@Z@@YAP6AHPEAU_RTL_CONDITION_VARIABLE@@PEAU_RTL_CRITICAL_SECTION@@K@ZQ6AH01K@Z@Z 00000001402293d0 f i MSVCRTD:thread_safe_statics.obj
 0002:00170420       ??$__crt_fast_encode_pointer@P6AXPEAU_RTL_CONDITION_VARIABLE@@@Z@@YAP6AXPEAU_RTL_CONDITION_VARIABLE@@@ZQ6AX0@Z@Z 0000000140229420 f i MSVCRTD:thread_safe_statics.obj
 0002:001704b0       _Init_thread_abort         00000001402294b0 f   MSVCRTD:thread_safe_statics.obj
 0002:001704f0       _Init_thread_footer        00000001402294f0 f   MSVCRTD:thread_safe_statics.obj
 0002:00170570       _Init_thread_header        0000000140229570 f   MSVCRTD:thread_safe_statics.obj
 0002:00170620       _Init_thread_lock          0000000140229620 f   MSVCRTD:thread_safe_statics.obj
 0002:00170640       _Init_thread_notify        0000000140229640 f   MSVCRTD:thread_safe_statics.obj
 0002:001706b0       _Init_thread_unlock        00000001402296b0 f   MSVCRTD:thread_safe_statics.obj
 0002:001706d0       _Init_thread_wait          00000001402296d0 f   MSVCRTD:thread_safe_statics.obj
 0002:00170800       ??2@YAPEAX_K@Z             0000000140229800 f   MSVCRTD:new_scalar.obj
 0002:00170870       ??3@YAXPEAX@Z              0000000140229870 f   MSVCRTD:delete_scalar.obj
 0002:001708a0       ??2@YAPEAX_KHPEBDH@Z       00000001402298a0 f   MSVCRTD:new_debug.obj
 0002:00170930       ??_U@YAPEAX_KHPEBDH@Z      0000000140229930 f   MSVCRTD:new_debug.obj
 0002:00170980       ??3@YAXPEAXHPEBDH@Z        0000000140229980 f   MSVCRTD:delete_debug.obj
 0002:001709c0       ??_V@YAXPEAXHPEBDH@Z       00000001402299c0 f   MSVCRTD:delete_debug.obj
 0002:00170a10       ??1type_info@@UEAA@XZ      0000000140229a10 f   MSVCRTD:std_type_info_static.obj
 0002:00170a30       ??_Etype_info@@UEAAPEAXI@Z 0000000140229a30 f i MSVCRTD:std_type_info_static.obj
 0002:00170a30       ??_Gtype_info@@UEAAPEAXI@Z 0000000140229a30 f i MSVCRTD:std_type_info_static.obj
 0002:00170b50       ?_RTC_AllocaFailure@@YAXPEAXPEAU_RTC_ALLOCA_NODE@@H@Z 0000000140229b50 f   MSVCRTD:_error_.obj
 0002:00170d40       ?_RTC_Failure@@YAXPEAXH@Z  0000000140229d40 f   MSVCRTD:_error_.obj
 0002:00170db0       ?_RTC_StackFailure@@YAXPEAXPEBD@Z 0000000140229db0 f   MSVCRTD:_error_.obj
 0002:00171340       _RTC_UninitUse             000000014022a340 f   MSVCRTD:_error_.obj
 0002:001714b0       _vsprintf_s_l              000000014022a4b0 f i MSVCRTD:_error_.obj
 0002:00171530       sprintf_s                  000000014022a530 f i MSVCRTD:_error_.obj
 0002:001718d0       ?configure_argv@__scrt_wide_argv_policy@@SAHXZ 000000014022a8d0 f i MSVCRTD:exe_wwinmain.obj
 0002:001718f0       ?get_app_type@__scrt_winmain_policy@@SA?AW4_crt_app_type@@XZ 000000014022a8f0 f i MSVCRTD:exe_wwinmain.obj
 0002:00171960       wWinMainCRTStartup         000000014022a960 f   MSVCRTD:exe_wwinmain.obj
 0002:00171980       _guard_check_icall         000000014022a980 f i MSVCRTD:checkcfg.obj
 0002:001719a0       ?_RTC_GetErrorFunc@@YAP6AHHPEBDH00ZZPEBX@Z 000000014022a9a0 f   MSVCRTD:_userapi_.obj
 0002:001719b0       ?_RTC_GetErrorFuncW@@YAP6AHHPEB_WH00ZZPEBX@Z 000000014022a9b0 f   MSVCRTD:_userapi_.obj
 0002:001719c0       _RTC_GetErrDesc            000000014022a9c0 f   MSVCRTD:_userapi_.obj
 0002:001719e0       _RTC_NumErrors             000000014022a9e0 f   MSVCRTD:_userapi_.obj
 0002:001719f0       _RTC_SetErrorFunc          000000014022a9f0 f   MSVCRTD:_userapi_.obj
 0002:00171a10       _RTC_SetErrorFuncW         000000014022aa10 f   MSVCRTD:_userapi_.obj
 0002:00171a30       _RTC_SetErrorType          000000014022aa30 f   MSVCRTD:_userapi_.obj
 0002:00171a60       __isa_available_init       000000014022aa60 f   MSVCRTD:_cpu_disp_.obj
 0002:00171ec0       _get_startup_argv_mode     000000014022aec0 f   MSVCRTD:argv_mode.obj
 0002:00171ed0       __scrt_is_ucrt_dll_in_use  000000014022aed0 f   MSVCRTD:ucrt_detection.obj
 0002:00171f00       __crt_debugger_hook        000000014022af00 f   MSVCRTD:utility_desktop.obj
 0002:00171f20       __scrt_fastfail            000000014022af20 f   MSVCRTD:utility_desktop.obj
 0002:00172120       __scrt_get_show_window_mode 000000014022b120 f   MSVCRTD:utility_desktop.obj
 0002:00172190       __scrt_initialize_winrt    000000014022b190 f   MSVCRTD:utility_desktop.obj
 0002:001721a0       __scrt_is_managed_app      000000014022b1a0 f   MSVCRTD:utility_desktop.obj
 0002:00172270       __scrt_set_unhandled_exception_filter 000000014022b270 f   MSVCRTD:utility_desktop.obj
 0002:00172290       __scrt_unhandled_exception_filter 000000014022b290 f   MSVCRTD:utility_desktop.obj
 0002:00172320       ??0bad_alloc@std@@AEAA@QEBD@Z 000000014022b320 f i MSVCRTD:throw_bad_alloc.obj
 0002:00172370       ??0bad_alloc@std@@QEAA@AEBV01@@Z 000000014022b370 f i MSVCRTD:throw_bad_alloc.obj
 0002:001723c0       ??0bad_alloc@std@@QEAA@XZ  000000014022b3c0 f i MSVCRTD:throw_bad_alloc.obj
 0002:00172410       ??0bad_array_new_length@std@@QEAA@AEBV01@@Z 000000014022b410 f i MSVCRTD:throw_bad_alloc.obj
 0002:00172460       ??0bad_array_new_length@std@@QEAA@XZ 000000014022b460 f i MSVCRTD:throw_bad_alloc.obj
 0002:001724a0       ??0exception@std@@QEAA@AEBV01@@Z 000000014022b4a0 f i MSVCRTD:throw_bad_alloc.obj
 0002:00172510       ??0exception@std@@QEAA@QEBDH@Z 000000014022b510 f i MSVCRTD:throw_bad_alloc.obj
 0002:00172570       ??1bad_alloc@std@@UEAA@XZ  000000014022b570 f i MSVCRTD:throw_bad_alloc.obj
 0002:00172590       ??1bad_array_new_length@std@@UEAA@XZ 000000014022b590 f i MSVCRTD:throw_bad_alloc.obj
 0002:001725b0       ??1exception@std@@UEAA@XZ  000000014022b5b0 f i MSVCRTD:throw_bad_alloc.obj
 0002:001725f0       ??_Ebad_alloc@std@@UEAAPEAXI@Z 000000014022b5f0 f i MSVCRTD:throw_bad_alloc.obj
 0002:001725f0       ??_Gbad_alloc@std@@UEAAPEAXI@Z 000000014022b5f0 f i MSVCRTD:throw_bad_alloc.obj
 0002:00172640       ??_Gbad_array_new_length@std@@UEAAPEAXI@Z 000000014022b640 f i MSVCRTD:throw_bad_alloc.obj
 0002:00172640       ??_Ebad_array_new_length@std@@UEAAPEAXI@Z 000000014022b640 f i MSVCRTD:throw_bad_alloc.obj
 0002:00172690       ??_Eexception@std@@UEAAPEAXI@Z 000000014022b690 f i MSVCRTD:throw_bad_alloc.obj
 0002:00172690       ??_Gexception@std@@UEAAPEAXI@Z 000000014022b690 f i MSVCRTD:throw_bad_alloc.obj
 0002:001726e0       ?__scrt_throw_std_bad_alloc@@YAXXZ 000000014022b6e0 f   MSVCRTD:throw_bad_alloc.obj
 0002:00172710       ?__scrt_throw_std_bad_array_new_length@@YAXXZ 000000014022b710 f   MSVCRTD:throw_bad_alloc.obj
 0002:00172740       ?what@exception@std@@UEBAPEBDXZ 000000014022b740 f i MSVCRTD:throw_bad_alloc.obj
 0002:00172db0       ?_RTC_GetSrcLine@@YAHPEAEPEA_WKPEAH1K@Z 000000014022bdb0 f   MSVCRTD:_pdblkup_.obj
 0002:00173340       __security_init_cookie     000000014022c340 f   MSVCRTD:gs_support.obj
 0002:001734a0       _matherr                   000000014022c4a0 f   MSVCRTD:matherr.obj
 0002:001734b0       _get_startup_commit_mode   000000014022c4b0 f   MSVCRTD:commit_mode.obj
 0002:001734c0       _get_startup_file_mode     000000014022c4c0 f   MSVCRTD:file_mode.obj
 0002:001734d0       _get_startup_new_mode      000000014022c4d0 f   MSVCRTD:new_mode.obj
 0002:001734e0       _get_startup_thread_locale_mode 000000014022c4e0 f   MSVCRTD:thread_locale.obj
 0002:001734f0       ?__scrt_initialize_type_info@@YAXXZ 000000014022c4f0 f   MSVCRTD:tncleanup.obj
 0002:00173510       ?__scrt_uninitialize_type_info@@YAXXZ 000000014022c510 f   MSVCRTD:tncleanup.obj
 0002:00173530       _should_initialize_environment 000000014022c530 f   MSVCRTD:env_mode.obj
 0002:00173540       _initialize_invalid_parameter_handler 000000014022c540 f   MSVCRTD:invalid_parameter_handler.obj
 0002:00173550       _initialize_denormal_control 000000014022c550 f   MSVCRTD:denormal_control.obj
 0002:00173560       __scrt_initialize_default_local_stdio_options 000000014022c560 f   MSVCRTD:default_local_stdio_options.obj
 0002:001735c0       __scrt_is_user_matherr_present 000000014022c5c0 f   MSVCRTD:matherr_detection.obj
 0002:001735f0       __scrt_get_dyn_tls_init_callback 000000014022c5f0 f   MSVCRTD:dyn_tls_init.obj
 0002:00173600       __scrt_get_dyn_tls_dtor_callback 000000014022c600 f   MSVCRTD:dyn_tls_dtor.obj
 0002:00173610       _RTC_Initialize            000000014022c610 f   MSVCRTD:_initsect_.obj
 0002:00173670       _RTC_Terminate             000000014022c670 f   MSVCRTD:_initsect_.obj
 0002:001736d0       _guard_check_icall_nop     000000014022c6d0 f i MSVCRTD:guard_support.obj
 0002:001736e0       _guard_icall_checks_enforced 000000014022c6e0 f i MSVCRTD:guard_support.obj
 0002:00173720       D3DCompile                 000000014022c720 f   d3dcompiler:D3DCOMPILER_47.dll
 0002:00173726       DwmEnableBlurBehindWindow  000000014022c726 f   dwmapi:dwmapi.dll
 0002:0017372c       DwmGetColorizationColor    000000014022c72c f   dwmapi:dwmapi.dll
 0002:00173732       DwmIsCompositionEnabled    000000014022c732 f   dwmapi:dwmapi.dll
 0002:00173738       ??0_Lockit@std@@QEAA@H@Z   000000014022c738 f   msvcprtd:MSVCP140D.dll
 0002:0017373e       ??1_Lockit@std@@QEAA@XZ    000000014022c73e f   msvcprtd:MSVCP140D.dll
 0002:00173744       ?_Debug_message@std@@YAXPEB_W0I@Z 000000014022c744 f   msvcprtd:MSVCP140D.dll
 0002:0017374a       ?_Xbad_alloc@std@@YAXXZ    000000014022c74a f   msvcprtd:MSVCP140D.dll
 0002:00173750       ?_Xlength_error@std@@YAXPEBD@Z 000000014022c750 f   msvcprtd:MSVCP140D.dll
 0002:00173756       ?_Xout_of_range@std@@YAXPEBD@Z 000000014022c756 f   msvcprtd:MSVCP140D.dll
 0002:0017375c       memchr                     000000014022c75c f   vcruntimed:VCRUNTIME140D.dll
 0002:00173762       memcmp                     000000014022c762 f   vcruntimed:VCRUNTIME140D.dll
 0002:00173768       memcpy                     000000014022c768 f   vcruntimed:VCRUNTIME140D.dll
 0002:0017376e       memmove                    000000014022c76e f   vcruntimed:VCRUNTIME140D.dll
 0002:00173774       memset                     000000014022c774 f   vcruntimed:VCRUNTIME140D.dll
 0002:0017377a       strstr                     000000014022c77a f   vcruntimed:VCRUNTIME140D.dll
 0002:00173780       __CxxFrameHandler3         000000014022c780 f   vcruntimed:VCRUNTIME140D.dll
 0002:00173786       strchr                     000000014022c786 f   vcruntimed:VCRUNTIME140D.dll
 0002:0017378c       _CxxThrowException         000000014022c78c f   vcruntimed:VCRUNTIME140D.dll
 0002:00173792       __RTDynamicCast            000000014022c792 f   vcruntimed:VCRUNTIME140D.dll
 0002:00173798       __C_specific_handler       000000014022c798 f   vcruntimed:VCRUNTIME140D.dll
 0002:0017379e       __vcrt_InitializeCriticalSectionEx 000000014022c79e f   vcruntimed:VCRUNTIME140D.dll
 0002:001737a4       __std_exception_copy       000000014022c7a4 f   vcruntimed:VCRUNTIME140D.dll
 0002:001737aa       __std_exception_destroy    000000014022c7aa f   vcruntimed:VCRUNTIME140D.dll
 0002:001737b0       __vcrt_GetModuleFileNameW  000000014022c7b0 f   vcruntimed:VCRUNTIME140D.dll
 0002:001737b6       __vcrt_GetModuleHandleW    000000014022c7b6 f   vcruntimed:VCRUNTIME140D.dll
 0002:001737bc       __vcrt_LoadLibraryExW      000000014022c7bc f   vcruntimed:VCRUNTIME140D.dll
 0002:001737c2       __std_type_info_destroy_list 000000014022c7c2 f   vcruntimed:VCRUNTIME140D.dll
 0002:001737c8       strcmp                     000000014022c7c8 f   ucrtd:ucrtbased.dll
 0002:001737ce       strlen                     000000014022c7ce f   ucrtd:ucrtbased.dll
 0002:001737d4       strncpy                    000000014022c7d4 f   ucrtd:ucrtbased.dll
 0002:001737da       _wassert                   000000014022c7da f   ucrtd:ucrtbased.dll
 0002:001737e0       __acrt_iob_func            000000014022c7e0 f   ucrtd:ucrtbased.dll
 0002:001737e6       _wfopen                    000000014022c7e6 f   ucrtd:ucrtbased.dll
 0002:001737ec       fclose                     000000014022c7ec f   ucrtd:ucrtbased.dll
 0002:001737f2       fflush                     000000014022c7f2 f   ucrtd:ucrtbased.dll
 0002:001737f8       fread                      000000014022c7f8 f   ucrtd:ucrtbased.dll
 0002:001737fe       fseek                      000000014022c7fe f   ucrtd:ucrtbased.dll
 0002:00173804       ftell                      000000014022c804 f   ucrtd:ucrtbased.dll
 0002:0017380a       fwrite                     000000014022c80a f   ucrtd:ucrtbased.dll
 0002:00173810       __stdio_common_vfprintf    000000014022c810 f   ucrtd:ucrtbased.dll
 0002:00173816       __stdio_common_vsprintf    000000014022c816 f   ucrtd:ucrtbased.dll
 0002:0017381c       __stdio_common_vsscanf     000000014022c81c f   ucrtd:ucrtbased.dll
 0002:00173822       free                       000000014022c822 f   ucrtd:ucrtbased.dll
 0002:00173828       malloc                     000000014022c828 f   ucrtd:ucrtbased.dll
 0002:0017382e       qsort                      000000014022c82e f   ucrtd:ucrtbased.dll
 0002:00173834       fabs                       000000014022c834 f   ucrtd:ucrtbased.dll
 0002:0017383a       fmodf                      000000014022c83a f   ucrtd:ucrtbased.dll
 0002:00173840       sqrtf                      000000014022c840 f   ucrtd:ucrtbased.dll
 0002:00173846       strcpy                     000000014022c846 f   ucrtd:ucrtbased.dll
 0002:0017384c       strncmp                    000000014022c84c f   ucrtd:ucrtbased.dll
 0002:00173852       toupper                    000000014022c852 f   ucrtd:ucrtbased.dll
 0002:00173858       cosf                       000000014022c858 f   ucrtd:ucrtbased.dll
 0002:0017385e       floorf                     000000014022c85e f   ucrtd:ucrtbased.dll
 0002:00173864       sinf                       000000014022c864 f   ucrtd:ucrtbased.dll
 0002:0017386a       acosf                      000000014022c86a f   ucrtd:ucrtbased.dll
 0002:00173870       ceilf                      000000014022c870 f   ucrtd:ucrtbased.dll
 0002:00173876       atof                       000000014022c876 f   ucrtd:ucrtbased.dll
 0002:0017387c       log                        000000014022c87c f   ucrtd:ucrtbased.dll
 0002:00173882       pow                        000000014022c882 f   ucrtd:ucrtbased.dll
 0002:00173888       atan2f                     000000014022c888 f   ucrtd:ucrtbased.dll
 0002:0017388e       logf                       000000014022c88e f   ucrtd:ucrtbased.dll
 0002:00173894       powf                       000000014022c894 f   ucrtd:ucrtbased.dll
 0002:0017389a       _invalid_parameter         000000014022c89a f   ucrtd:ucrtbased.dll
 0002:001738a0       wcslen                     000000014022c8a0 f   ucrtd:ucrtbased.dll
 0002:001738a6       _CrtDbgReportW             000000014022c8a6 f   ucrtd:ucrtbased.dll
 0002:001738ac       srand                      000000014022c8ac f   ucrtd:ucrtbased.dll
 0002:001738b2       rand                       000000014022c8b2 f   ucrtd:ucrtbased.dll
 0002:001738b8       _fdtest                    000000014022c8b8 f   ucrtd:ucrtbased.dll
 0002:001738be       _time64                    000000014022c8be f   ucrtd:ucrtbased.dll
 0002:001738c4       _beginthreadex             000000014022c8c4 f   ucrtd:ucrtbased.dll
 0002:001738ca       terminate                  000000014022c8ca f   ucrtd:ucrtbased.dll
 0002:001738d0       _CrtDbgReport              000000014022c8d0 f   ucrtd:ucrtbased.dll
 0002:001738d6       _seh_filter_dll            000000014022c8d6 f   ucrtd:ucrtbased.dll
 0002:001738dc       _configure_narrow_argv     000000014022c8dc f   ucrtd:ucrtbased.dll
 0002:001738e2       _initialize_narrow_environment 000000014022c8e2 f   ucrtd:ucrtbased.dll
 0002:001738e8       _initialize_onexit_table   000000014022c8e8 f   ucrtd:ucrtbased.dll
 0002:001738ee       _register_onexit_function  000000014022c8ee f   ucrtd:ucrtbased.dll
 0002:001738f4       _execute_onexit_table      000000014022c8f4 f   ucrtd:ucrtbased.dll
 0002:001738fa       _crt_atexit                000000014022c8fa f   ucrtd:ucrtbased.dll
 0002:00173900       _crt_at_quick_exit         000000014022c900 f   ucrtd:ucrtbased.dll
 0002:00173906       _cexit                     000000014022c906 f   ucrtd:ucrtbased.dll
 0002:0017390c       _callnewh                  000000014022c90c f   ucrtd:ucrtbased.dll
 0002:00173912       _free_dbg                  000000014022c912 f   ucrtd:ucrtbased.dll
 0002:00173918       _malloc_dbg                000000014022c918 f   ucrtd:ucrtbased.dll
 0002:0017391e       __stdio_common_vsprintf_s  000000014022c91e f   ucrtd:ucrtbased.dll
 0002:00173924       _seh_filter_exe            000000014022c924 f   ucrtd:ucrtbased.dll
 0002:0017392a       _set_app_type              000000014022c92a f   ucrtd:ucrtbased.dll
 0002:00173930       __setusermatherr           000000014022c930 f   ucrtd:ucrtbased.dll
 0002:00173936       _configure_wide_argv       000000014022c936 f   ucrtd:ucrtbased.dll
 0002:0017393c       _initialize_wide_environment 000000014022c93c f   ucrtd:ucrtbased.dll
 0002:00173942       _get_wide_winmain_command_line 000000014022c942 f   ucrtd:ucrtbased.dll
 0002:00173948       _initterm                  000000014022c948 f   ucrtd:ucrtbased.dll
 0002:0017394e       _initterm_e                000000014022c94e f   ucrtd:ucrtbased.dll
 0002:00173954       exit                       000000014022c954 f   ucrtd:ucrtbased.dll
 0002:0017395a       _exit                      000000014022c95a f   ucrtd:ucrtbased.dll
 0002:00173960       _set_fmode                 000000014022c960 f   ucrtd:ucrtbased.dll
 0002:00173966       _c_exit                    000000014022c966 f   ucrtd:ucrtbased.dll
 0002:0017396c       _register_thread_local_exe_atexit_callback 000000014022c96c f   ucrtd:ucrtbased.dll
 0002:00173972       _configthreadlocale        000000014022c972 f   ucrtd:ucrtbased.dll
 0002:00173978       _set_new_mode              000000014022c978 f   ucrtd:ucrtbased.dll
 0002:0017397e       __p__commode               000000014022c97e f   ucrtd:ucrtbased.dll
 0002:00173984       _wmakepath_s               000000014022c984 f   ucrtd:ucrtbased.dll
 0002:0017398a       _wsplitpath_s              000000014022c98a f   ucrtd:ucrtbased.dll
 0002:00173990       wcscpy_s                   000000014022c990 f   ucrtd:ucrtbased.dll
 0002:00173996       RtlCaptureContext          000000014022c996 f   kernel32:KERNEL32.dll
 0002:0017399c       RtlLookupFunctionEntry     000000014022c99c f   kernel32:KERNEL32.dll
 0002:001739a2       RtlVirtualUnwind           000000014022c9a2 f   kernel32:KERNEL32.dll
 0002:001739a8       UnhandledExceptionFilter   000000014022c9a8 f   kernel32:KERNEL32.dll
 0002:001739ae       SetUnhandledExceptionFilter 000000014022c9ae f   kernel32:KERNEL32.dll
 0002:001739b4       GetCurrentProcess          000000014022c9b4 f   kernel32:KERNEL32.dll
 0002:001739ba       TerminateProcess           000000014022c9ba f   kernel32:KERNEL32.dll
 0002:001739c0       IsProcessorFeaturePresent  000000014022c9c0 f   kernel32:KERNEL32.dll
 0002:001739c6       SetEvent                   000000014022c9c6 f   kernel32:KERNEL32.dll
 0002:001739cc       ResetEvent                 000000014022c9cc f   kernel32:KERNEL32.dll
 0002:001739d2       WaitForSingleObjectEx      000000014022c9d2 f   kernel32:KERNEL32.dll
 0002:001739d8       CreateEventW               000000014022c9d8 f   kernel32:KERNEL32.dll
 0002:001739de       GetModuleHandleW           000000014022c9de f   kernel32:KERNEL32.dll
 0002:001739e4       IsDebuggerPresent          000000014022c9e4 f   kernel32:KERNEL32.dll
 0002:001739ea       RaiseException             000000014022c9ea f   kernel32:KERNEL32.dll
 0002:001739f0       GetStartupInfoW            000000014022c9f0 f   kernel32:KERNEL32.dll
 0002:001739f6       GetLastError               000000014022c9f6 f   kernel32:KERNEL32.dll
 0002:001739fc       HeapAlloc                  000000014022c9fc f   kernel32:KERNEL32.dll
 0002:00173a02       HeapFree                   000000014022ca02 f   kernel32:KERNEL32.dll
 0002:00173a08       GetProcessHeap             000000014022ca08 f   kernel32:KERNEL32.dll
 0002:00173a0e       VirtualQuery               000000014022ca0e f   kernel32:KERNEL32.dll
 0002:00173a14       GetCurrentProcessId        000000014022ca14 f   kernel32:KERNEL32.dll
 0002:00173a1a       GetCurrentThreadId         000000014022ca1a f   kernel32:KERNEL32.dll
 0002:00173a20       GetSystemTimeAsFileTime    000000014022ca20 f   kernel32:KERNEL32.dll
 0002:00173a26       InitializeSListHead        000000014022ca26 f   kernel32:KERNEL32.dll
 0002:00173a30       __vcrt_initialize          000000014022ca30 f   MSVCRTD:ucrt_stubs.obj
 0002:00173a30       __acrt_initialize          000000014022ca30 f   MSVCRTD:ucrt_stubs.obj
 0002:00173a30       __scrt_stub_for_acrt_initialize 000000014022ca30 f   MSVCRTD:ucrt_stubs.obj
 0002:00173a40       __vcrt_thread_attach       000000014022ca40 f   MSVCRTD:ucrt_stubs.obj
 0002:00173a40       __scrt_stub_for_acrt_thread_attach 000000014022ca40 f   MSVCRTD:ucrt_stubs.obj
 0002:00173a40       __acrt_thread_attach       000000014022ca40 f   MSVCRTD:ucrt_stubs.obj
 0002:00173a50       __scrt_stub_for_acrt_thread_detach 000000014022ca50 f   MSVCRTD:ucrt_stubs.obj
 0002:00173a50       __vcrt_thread_detach       000000014022ca50 f   MSVCRTD:ucrt_stubs.obj
 0002:00173a50       __acrt_thread_detach       000000014022ca50 f   MSVCRTD:ucrt_stubs.obj
 0002:00173a60       __acrt_uninitialize        000000014022ca60 f   MSVCRTD:ucrt_stubs.obj
 0002:00173a60       __scrt_stub_for_acrt_uninitialize 000000014022ca60 f   MSVCRTD:ucrt_stubs.obj
 0002:00173a60       __vcrt_uninitialize        000000014022ca60 f   MSVCRTD:ucrt_stubs.obj
 0002:00173a70       __vcrt_uninitialize_critical 000000014022ca70 f   MSVCRTD:ucrt_stubs.obj
 0002:00173a70       __scrt_stub_for_acrt_uninitialize_critical 000000014022ca70 f   MSVCRTD:ucrt_stubs.obj
 0002:00173a70       __acrt_uninitialize_critical 000000014022ca70 f   MSVCRTD:ucrt_stubs.obj
 0002:00173a80       __scrt_stub_for_is_c_termination_complete 000000014022ca80 f   MSVCRTD:ucrt_stubs.obj
 0002:00173a80       _is_c_termination_complete 000000014022ca80 f   MSVCRTD:ucrt_stubs.obj
 0002:00176c00       _guard_dispatch_icall_nop  000000014022fc00 f   MSVCRTD:_guard_dispatch_.obj
 0003:00000000       __xc_a                     0000000140238000     MSVCRTD:initializers.obj
 0003:00000348       __xc_z                     0000000140238348     MSVCRTD:initializers.obj
 0003:00000458       __xi_a                     0000000140238458     MSVCRTD:initializers.obj
 0003:00000898       __xi_z                     0000000140238898     MSVCRTD:initializers.obj
 0003:000009a8       __xl_a                     00000001402389a8     MSVCRTD:tlssup.obj
 0003:000009b0       __xl_z                     00000001402389b0     MSVCRTD:tlssup.obj
 0003:000009b8       __xp_a                     00000001402389b8     MSVCRTD:initializers.obj
 0003:00000ac8       __xp_z                     0000000140238ac8     MSVCRTD:initializers.obj
 0003:00000bd8       __xt_a                     0000000140238bd8     MSVCRTD:initializers.obj
 0003:00000ce8       __xt_z                     0000000140238ce8     MSVCRTD:initializers.obj
 0003:00001a9c       ??_C@_03IEAKBACE@Tab?$AA@  0000000140239a9c     imgui.obj
 0003:00001aa0       ??_C@_09CFHBIIBF@LeftArrow?$AA@ 0000000140239aa0     imgui.obj
 0003:00001ab0       ??_C@_0L@BPKGMHEK@RightArrow?$AA@ 0000000140239ab0     imgui.obj
 0003:00001ac0       ??_C@_07MOKGGMEC@UpArrow?$AA@ 0000000140239ac0     imgui.obj
 0003:00001ad0       ??_C@_09NADHLAEK@DownArrow?$AA@ 0000000140239ad0     imgui.obj
 0003:00001adc       ??_C@_06OAEMCMAI@PageUp?$AA@ 0000000140239adc     imgui.obj
 0003:00001ae8       ??_C@_08FDLMHKA@PageDown?$AA@ 0000000140239ae8     imgui.obj
 0003:00001af4       ??_C@_04GKJODLKO@Home?$AA@ 0000000140239af4     imgui.obj
 0003:00001afc       ??_C@_03DBKJMAGF@End?$AA@  0000000140239afc     imgui.obj
 0003:00001b00       ??_C@_06CPFCODOD@Insert?$AA@ 0000000140239b00     imgui.obj
 0003:00001b08       ??_C@_06JBKGCNBB@Delete?$AA@ 0000000140239b08     imgui.obj
 0003:00001b10       ??_C@_09LPBCIPOJ@Backspace?$AA@ 0000000140239b10     imgui.obj
 0003:00001b1c       ??_C@_05OMHELODH@Space?$AA@ 0000000140239b1c     imgui.obj
 0003:00001b24       ??_C@_05IAOCCJNL@Enter?$AA@ 0000000140239b24     imgui.obj
 0003:00001b2c       ??_C@_06OIGFGPHJ@Escape?$AA@ 0000000140239b2c     imgui.obj
 0003:00001b38       ??_C@_08KELNAOFC@LeftCtrl?$AA@ 0000000140239b38     imgui.obj
 0003:00001b48       ??_C@_09OCNLBMHE@LeftShift?$AA@ 0000000140239b48     imgui.obj
 0003:00001b58       ??_C@_07MGKIIPNA@LeftAlt?$AA@ 0000000140239b58     imgui.obj
 0003:00001b68       ??_C@_09DKGEOIN@LeftSuper?$AA@ 0000000140239b68     imgui.obj
 0003:00001b78       ??_C@_09MGKDJPDD@RightCtrl?$AA@ 0000000140239b78     imgui.obj
 0003:00001b88       ??_C@_0L@NIAMFDCL@RightShift?$AA@ 0000000140239b88     imgui.obj
 0003:00001b98       ??_C@_08FCEDBIM@RightAlt?$AA@ 0000000140239b98     imgui.obj
 0003:00001ba8       ??_C@_0L@DJHBABNC@RightSuper?$AA@ 0000000140239ba8     imgui.obj
 0003:00001bb8       ??_C@_04IFEHPILC@Menu?$AA@ 0000000140239bb8     imgui.obj
 0003:00001bc0       ??_C@_01GBGANLPD@0?$AA@    0000000140239bc0     imgui.obj
 0003:00001bc4       ??_C@_01HIHLOKLC@1?$AA@    0000000140239bc4     imgui.obj
 0003:00001bc8       ??_C@_01FDFGLJHB@2?$AA@    0000000140239bc8     imgui.obj
 0003:00001bcc       ??_C@_01EKENIIDA@3?$AA@    0000000140239bcc     imgui.obj
 0003:00001bd0       ??_C@_01FAMBOPH@4?$AA@     0000000140239bd0     imgui.obj
 0003:00001bd4       ??_C@_01BMBHCPLG@5?$AA@    0000000140239bd4     imgui.obj
 0003:00001bd8       ??_C@_01DHDKHMHF@6?$AA@    0000000140239bd8     imgui.obj
 0003:00001bdc       ??_C@_01COCBENDE@7?$AA@    0000000140239bdc     imgui.obj
 0003:00001be0       ??_C@_01KJLJFBPL@8?$AA@    0000000140239be0     imgui.obj
 0003:00001be4       ??_C@_01LAKCGALK@9?$AA@    0000000140239be4     imgui.obj
 0003:00001be8       ??_C@_01FHEEJDEE@A?$AA@    0000000140239be8     imgui.obj
 0003:00001bec       ??_C@_01HMGJMAIH@B?$AA@    0000000140239bec     imgui.obj
 0003:00001bf0       ??_C@_01GFHCPBMG@C?$AA@    0000000140239bf0     imgui.obj
 0003:00001bf4       ??_C@_01CKDDGHAB@D?$AA@    0000000140239bf4     imgui.obj
 0003:00001bf8       ??_C@_01DDCIFGEA@E?$AA@    0000000140239bf8     imgui.obj
 0003:00001bfc       ??_C@_01BIAFAFID@F?$AA@    0000000140239bfc     imgui.obj
 0003:00001c00       ??_C@_01BBODEMC@G?$AA@     0000000140239c00     imgui.obj
 0003:00001c04       ??_C@_01IGIGCIAN@H?$AA@    0000000140239c04     imgui.obj
 0003:00001c08       ??_C@_01JPJNBJEM@I?$AA@    0000000140239c08     imgui.obj
 0003:00001c0c       ??_C@_01LELAEKIP@J?$AA@    0000000140239c0c     imgui.obj
 0003:00001c10       ??_C@_01KNKLHLMO@K?$AA@    0000000140239c10     imgui.obj
 0003:00001c14       ??_C@_01OCOKONAJ@L?$AA@    0000000140239c14     imgui.obj
 0003:00001c18       ??_C@_01PLPBNMEI@M?$AA@    0000000140239c18     imgui.obj
 0003:00001c1c       ??_C@_01NANMIPIL@N?$AA@    0000000140239c1c     imgui.obj
 0003:00001c20       ??_C@_01MJMHLOMK@O?$AA@    0000000140239c20     imgui.obj
 0003:00001c24       ??_C@_01EJNLAFE@P?$AA@     0000000140239c24     imgui.obj
 0003:00001c28       ??_C@_01BNIGIBBF@Q?$AA@    0000000140239c28     imgui.obj
 0003:00001c2c       ??_C@_01DGKLNCNG@R?$AA@    0000000140239c2c     imgui.obj
 0003:00001c30       ??_C@_01CPLAODJH@S?$AA@    0000000140239c30     imgui.obj
 0003:00001c34       ??_C@_01GAPBHFFA@T?$AA@    0000000140239c34     imgui.obj
 0003:00001c38       ??_C@_01HJOKEEBB@U?$AA@    0000000140239c38     imgui.obj
 0003:00001c3c       ??_C@_01FCMHBHNC@V?$AA@    0000000140239c3c     imgui.obj
 0003:00001c40       ??_C@_01ELNMCGJD@W?$AA@    0000000140239c40     imgui.obj
 0003:00001c44       ??_C@_01MMEEDKFM@X?$AA@    0000000140239c44     imgui.obj
 0003:00001c48       ??_C@_01NFFPALBN@Y?$AA@    0000000140239c48     imgui.obj
 0003:00001c4c       ??_C@_01POHCFINO@Z?$AA@    0000000140239c4c     imgui.obj
 0003:00001c50       ??_C@_02LCPENACN@F1?$AA@   0000000140239c50     imgui.obj
 0003:00001c54       ??_C@_02JJNJIDOO@F2?$AA@   0000000140239c54     imgui.obj
 0003:00001c58       ??_C@_02IAMCLCKP@F3?$AA@   0000000140239c58     imgui.obj
 0003:00001c5c       ??_C@_02MPIDCEGI@F4?$AA@   0000000140239c5c     imgui.obj
 0003:00001c60       ??_C@_02NGJIBFCJ@F5?$AA@   0000000140239c60     imgui.obj
 0003:00001c64       ??_C@_02PNLFEGOK@F6?$AA@   0000000140239c64     imgui.obj
 0003:00001c68       ??_C@_02OEKOHHKL@F7?$AA@   0000000140239c68     imgui.obj
 0003:00001c6c       ??_C@_02GDDGGLGE@F8?$AA@   0000000140239c6c     imgui.obj
 0003:00001c70       ??_C@_02HKCNFKCF@F9?$AA@   0000000140239c70     imgui.obj
 0003:00001c74       ??_C@_03JKCLJOFG@F10?$AA@  0000000140239c74     imgui.obj
 0003:00001c78       ??_C@_03IDDAKPBH@F11?$AA@  0000000140239c78     imgui.obj
 0003:00001c7c       ??_C@_03KIBNPMNE@F12?$AA@  0000000140239c7c     imgui.obj
 0003:00001c80       ??_C@_0L@KECMMICK@Apostrophe?$AA@ 0000000140239c80     imgui.obj
 0003:00001c90       ??_C@_05CJDGOLEJ@Comma?$AA@ 0000000140239c90     imgui.obj
 0003:00001c98       ??_C@_05OEAIFCGM@Minus?$AA@ 0000000140239c98     imgui.obj
 0003:00001ca0       ??_C@_06JOFJHOEH@Period?$AA@ 0000000140239ca0     imgui.obj
 0003:00001ca8       ??_C@_05OAOMBJIJ@Slash?$AA@ 0000000140239ca8     imgui.obj
 0003:00001cb0       ??_C@_09FBGFMNJC@Semicolon?$AA@ 0000000140239cb0     imgui.obj
 0003:00001cbc       ??_C@_05JKGNJOO@Equal?$AA@ 0000000140239cbc     imgui.obj
 0003:00001cc8       ??_C@_0M@FGLAPLO@LeftBracket?$AA@ 0000000140239cc8     imgui.obj
 0003:00001cd8       ??_C@_09LDIKCIFH@Backslash?$AA@ 0000000140239cd8     imgui.obj
 0003:00001ce8       ??_C@_0N@NOCLCIPD@RightBracket?$AA@ 0000000140239ce8     imgui.obj
 0003:00001cf8       ??_C@_0M@PEGEKEFO@GraveAccent?$AA@ 0000000140239cf8     imgui.obj
 0003:00001d08       ??_C@_08LBKIEOPK@CapsLock?$AA@ 0000000140239d08     imgui.obj
 0003:00001d18       ??_C@_0L@JJJEGPLJ@ScrollLock?$AA@ 0000000140239d18     imgui.obj
 0003:00001d28       ??_C@_07JOCOIGEJ@NumLock?$AA@ 0000000140239d28     imgui.obj
 0003:00001d38       ??_C@_0M@CJIDBHOK@PrintScreen?$AA@ 0000000140239d38     imgui.obj
 0003:00001d48       ??_C@_05PEDNBBBD@Pause?$AA@ 0000000140239d48     imgui.obj
 0003:00001d50       ??_C@_07PBFJOEMA@Keypad0?$AA@ 0000000140239d50     imgui.obj
 0003:00001d60       ??_C@_07OIECNFIB@Keypad1?$AA@ 0000000140239d60     imgui.obj
 0003:00001d70       ??_C@_07MDGPIGEC@Keypad2?$AA@ 0000000140239d70     imgui.obj
 0003:00001d80       ??_C@_07NKHELHAD@Keypad3?$AA@ 0000000140239d80     imgui.obj
 0003:00001d90       ??_C@_07JFDFCBME@Keypad4?$AA@ 0000000140239d90     imgui.obj
 0003:00001da0       ??_C@_07IMCOBAIF@Keypad5?$AA@ 0000000140239da0     imgui.obj
 0003:00001db0       ??_C@_07KHADEDEG@Keypad6?$AA@ 0000000140239db0     imgui.obj
 0003:00001dc0       ??_C@_07LOBIHCAH@Keypad7?$AA@ 0000000140239dc0     imgui.obj
 0003:00001dd0       ??_C@_07DJIAGOMI@Keypad8?$AA@ 0000000140239dd0     imgui.obj
 0003:00001de0       ??_C@_07CAJLFPIJ@Keypad9?$AA@ 0000000140239de0     imgui.obj
 0003:00001df0       ??_C@_0O@GMHIBIOG@KeypadDecimal?$AA@ 0000000140239df0     imgui.obj
 0003:00001e00       ??_C@_0N@IOPGAACF@KeypadDivide?$AA@ 0000000140239e00     imgui.obj
 0003:00001e10       ??_C@_0P@DDMFINAM@KeypadMultiply?$AA@ 0000000140239e10     imgui.obj
 0003:00001e28       ??_C@_0P@EGJPMAKL@KeypadSubtract?$AA@ 0000000140239e28     imgui.obj
 0003:00001e40       ??_C@_09PBFBAKNA@KeypadAdd?$AA@ 0000000140239e40     imgui.obj
 0003:00001e50       ??_C@_0M@LDMAMCMH@KeypadEnter?$AA@ 0000000140239e50     imgui.obj
 0003:00001e60       ??_C@_0M@DKIEDCPC@KeypadEqual?$AA@ 0000000140239e60     imgui.obj
 0003:00001e70       ??_C@_0N@KFODLNBI@GamepadStart?$AA@ 0000000140239e70     imgui.obj
 0003:00001e80       ??_C@_0M@BMKDKCOL@GamepadBack?$AA@ 0000000140239e80     imgui.obj
 0003:00001e90       ??_C@_0BA@LLLNHFDH@GamepadFaceLeft?$AA@ 0000000140239e90     imgui.obj
 0003:00001ea8       ??_C@_0BB@KCPJBHBD@GamepadFaceRight?$AA@ 0000000140239ea8     imgui.obj
 0003:00001ec0       ??_C@_0O@NEIKDCMN@GamepadFaceUp?$AA@ 0000000140239ec0     imgui.obj
 0003:00001ed0       ??_C@_0BA@EJLJONAO@GamepadFaceDown?$AA@ 0000000140239ed0     imgui.obj
 0003:00001ee8       ??_C@_0BA@HJJJKOII@GamepadDpadLeft?$AA@ 0000000140239ee8     imgui.obj
 0003:00001f00       ??_C@_0BB@PJOFJNNF@GamepadDpadRight?$AA@ 0000000140239f00     imgui.obj
 0003:00001f18       ??_C@_0O@EJODMGNP@GamepadDpadUp?$AA@ 0000000140239f18     imgui.obj
 0003:00001f28       ??_C@_0BA@ILJNDGLB@GamepadDpadDown?$AA@ 0000000140239f28     imgui.obj
 0003:00001f40       ??_C@_09BNICIIOB@GamepadL1?$AA@ 0000000140239f40     imgui.obj
 0003:00001f50       ??_C@_09LDKAGJL@GamepadR1?$AA@ 0000000140239f50     imgui.obj
 0003:00001f60       ??_C@_09DGKPNLCC@GamepadL2?$AA@ 0000000140239f60     imgui.obj
 0003:00001f70       ??_C@_09CABHFFFI@GamepadR2?$AA@ 0000000140239f70     imgui.obj
 0003:00001f80       ??_C@_09CPLEOKGD@GamepadL3?$AA@ 0000000140239f80     imgui.obj
 0003:00001f90       ??_C@_09DJAMGEBJ@GamepadR3?$AA@ 0000000140239f90     imgui.obj
 0003:00001fa0       ??_C@_0BC@MGONIKHG@GamepadLStickLeft?$AA@ 0000000140239fa0     imgui.obj
 0003:00001fb8       ??_C@_0BD@KDFPDGOK@GamepadLStickRight?$AA@ 0000000140239fb8     imgui.obj
 0003:00001fd0       ??_C@_0BA@NNMPJILJ@GamepadLStickUp?$AA@ 0000000140239fd0     imgui.obj
 0003:00001fe8       ??_C@_0BC@DEOJBCEP@GamepadLStickDown?$AA@ 0000000140239fe8     imgui.obj
 0003:00002000       ??_C@_0BC@DKGNGFLL@GamepadRStickLeft?$AA@ 000000014023a000     imgui.obj
 0003:00002018       ??_C@_0BD@EGHGAIAI@GamepadRStickRight?$AA@ 000000014023a018     imgui.obj
 0003:00002030       ??_C@_0BA@LJMNABFK@GamepadRStickUp?$AA@ 000000014023a030     imgui.obj
 0003:00002048       ??_C@_0BC@MIGJPNIC@GamepadRStickDown?$AA@ 000000014023a048     imgui.obj
 0003:00002060       ??_C@_09DBACHFO@MouseLeft?$AA@ 000000014023a060     imgui.obj
 0003:00002070       ??_C@_0L@JGCPGDLN@MouseRight?$AA@ 000000014023a070     imgui.obj
 0003:00002080       ??_C@_0M@CDBJKEDH@MouseMiddle?$AA@ 000000014023a080     imgui.obj
 0003:00002090       ??_C@_07BICMLCEA@MouseX1?$AA@ 000000014023a090     imgui.obj
 0003:000020a0       ??_C@_07DDABOBID@MouseX2?$AA@ 000000014023a0a0     imgui.obj
 0003:000020b0       ??_C@_0M@MENPLCHJ@MouseWheelX?$AA@ 000000014023a0b0     imgui.obj
 0003:000020c0       ??_C@_0M@NNMEIDDI@MouseWheelY?$AA@ 000000014023a0c0     imgui.obj
 0003:000020d0       ??_C@_07KDONALCN@ModCtrl?$AA@ 000000014023a0d0     imgui.obj
 0003:000020e0       ??_C@_08CCGGCANM@ModShift?$AA@ 000000014023a0e0     imgui.obj
 0003:000020ec       ??_C@_06PLGJOJNE@ModAlt?$AA@ 000000014023a0ec     imgui.obj
 0003:000020f8       ??_C@_08MDBLHCCF@ModSuper?$AA@ 000000014023a0f8     imgui.obj
 0003:00002108       ??_C@_0BN@CNPDCOK@Size?5column?5to?5fit?$CD?$CD?$CDSizeOne?$AA@ 000000014023a108     imgui.obj
 0003:00002130       ??_C@_0CC@MJIBPDCL@Size?5all?5columns?5to?5fit?$CD?$CD?$CDSizeAl@ 000000014023a130     imgui.obj
 0003:00002158       ??_C@_0CG@CFICKNDA@Size?5all?5columns?5to?5default?$CD?$CD?$CDSi@ 000000014023a158     imgui.obj
 0003:00002188       ??_C@_0BJ@BBKAOKNK@Reset?5order?$CD?$CD?$CDResetOrder?$AA@ 000000014023a188     imgui.obj
 0003:000021a8       ??_C@_0BA@KDPNEDEH@?$CIMain?5menu?5bar?$CJ?$AA@ 000000014023a1a8     imgui.obj
 0003:000021c0       ??_C@_07NPLNEKJH@?$CIPopup?$CJ?$AA@ 000000014023a1c0     imgui.obj
 0003:000021d0       ??_C@_0L@JOJOIPFK@?$CIUntitled?$CJ?$AA@ 000000014023a1d0     imgui.obj
 0003:0000a570       ??_C@_1EO@MGODAGF@?$AAc?$AA?3?$AA?2?$AAg?$AAi?$AAt?$AAh?$AAu?$AAb?$AA?2?$AAf?$AAr?$AAa?$AAm?$AAe?$AAw?$AAo?$AAr?$AAk?$AA?2?$AAt?$AAo?$AAo?$AAl?$AA?2?$AAi?$AAm?$AAg?$AAu?$AAi?$AA?2?$AAi@ 0000000140242570     imgui.obj
 0003:0000a5d0       ??_C@_1CK@JJMIFKKC@?$AAi?$AAd?$AAx?$AA?5?$AA?$DN?$AA?$DN?$AA?5?$AA0?$AA?5?$AA?$HM?$AA?$HM?$AA?5?$AAi?$AAd?$AAx?$AA?5?$AA?$DN?$AA?$DN?$AA?5?$AA1?$AA?$AA@ 00000001402425d0     imgui.obj
 0003:0000a610       ??_C@_1GA@FAIKKLKG@?$AAc?$AA?3?$AA?2?$AAg?$AAi?$AAt?$AAh?$AAu?$AAb?$AA?2?$AAf?$AAr?$AAa?$AAm?$AAe?$AAw?$AAo?$AAr?$AAk?$AA?2?$AAt?$AAo?$AAo?$AAl?$AA?2?$AAi?$AAm?$AAg?$AAu?$AAi?$AA?2?$AAi@ 0000000140242610     imgui.obj
 0003:0000a688       ??_C@_0P@HEMCFMMD@?$CKMissing?5Text?$CK?$AA@ 0000000140242688     imgui.obj
 0003:0000a6a0       ??_C@_1FO@FMIBGDCD@?$AAb?$AAu?$AAt?$AAt?$AAo?$AAn?$AA?5?$AA?$DO?$AA?$DN?$AA?5?$AA0?$AA?5?$AA?$CG?$AA?$CG?$AA?5?$AAb?$AAu?$AAt?$AAt?$AAo?$AAn?$AA?5?$AA?$DM?$AA?5?$AAI?$AAm?$AAG?$AAu?$AAi?$AAM?$AAo?$AAu@ 00000001402426a0     imgui.obj
 0003:0000a710       ??_C@_1CA@BBLMKGEM@?$AAI?$AAs?$AAN?$AAa?$AAm?$AAe?$AAd?$AAK?$AAe?$AAy?$AA?$CI?$AAk?$AAe?$AAy?$AA?$CJ?$AA?$AA@ 0000000140242710     imgui.obj
 0003:0000a738       ??_C@_13COJANIEC@?$AA0?$AA?$AA@ 0000000140242738     imgui.obj
 0003:0000a740       ??_C@_09BJIHMJFE@imgui?4ini?$AA@ 0000000140242740     imgui.obj
 0003:0000a750       ??_C@_0O@HCOAADPE@imgui_log?4txt?$AA@ 0000000140242750     imgui.obj
 0003:0000a760       ??_C@_0CI@LNLNKKBP@Can?5only?5add?5events?5to?5current?5c@ 0000000140242760     imgui.obj
 0003:0000a790       ??_C@_1FC@OHCMFJKI@?$AAc?$AA?3?$AA?2?$AAg?$AAi?$AAt?$AAh?$AAu?$AAb?$AA?2?$AAf?$AAr?$AAa?$AAm?$AAe?$AAw?$AAo?$AAr?$AAk?$AA?2?$AAt?$AAo?$AAo?$AAl?$AA?2?$AAi?$AAm?$AAg?$AAu?$AAi?$AA?2?$AAi@ 0000000140242790     imgui.obj
 0003:0000a800       ??_C@_1HG@JECAFLFP@?$AA?$CG?$AAg?$AA?4?$AAI?$AAO?$AA?5?$AA?$DN?$AA?$DN?$AA?5?$AAt?$AAh?$AAi?$AAs?$AA?5?$AA?$CG?$AA?$CG?$AA?5?$AA?$CC?$AAC?$AAa?$AAn?$AA?5?$AAo?$AAn?$AAl?$AAy?$AA?5?$AAa?$AAd?$AAd?$AA?5?$AAe@ 0000000140242800     imgui.obj
 0003:0000a890       ??_C@_1DO@LIHGEDDC@?$AAI?$AAm?$AAG?$AAu?$AAi?$AA?3?$AA?3?$AAI?$AAs?$AAN?$AAa?$AAm?$AAe?$AAd?$AAK?$AAe?$AAy?$AAO?$AAr?$AAM?$AAo?$AAd?$AAK?$AAe?$AAy?$AA?$CI?$AAk?$AAe?$AAy?$AA?$CJ?$AA?$AA@ 0000000140242890     imgui.obj
 0003:0000a8e0       ??_C@_1DA@LAHBKLDC@?$AA?$CB?$AAI?$AAm?$AAG?$AAu?$AAi?$AA?3?$AA?3?$AAI?$AAs?$AAA?$AAl?$AAi?$AAa?$AAs?$AAK?$AAe?$AAy?$AA?$CI?$AAk?$AAe?$AAy?$AA?$CJ?$AA?$AA@ 00000001402428e0     imgui.obj
 0003:0000a920       ??_C@_1DC@GHKNLCOD@?$AAk?$AAe?$AAy?$AA?5?$AA?$CB?$AA?$DN?$AA?5?$AAI?$AAm?$AAG?$AAu?$AAi?$AAM?$AAo?$AAd?$AA_?$AAS?$AAh?$AAo?$AAr?$AAt?$AAc?$AAu?$AAt?$AA?$AA@ 0000000140242920     imgui.obj
 0003:0000a960       ??_C@_0HC@JFACPAD@Backend?5needs?5to?5either?5only?5use@ 0000000140242960     imgui.obj
 0003:0000a9f0       ??_C@_1BHO@NLGKKLM@?$AA?$CI?$AAB?$AAa?$AAc?$AAk?$AAe?$AAn?$AAd?$AAU?$AAs?$AAi?$AAn?$AAg?$AAL?$AAe?$AAg?$AAa?$AAc?$AAy?$AAK?$AAe?$AAy?$AAA?$AAr?$AAr?$AAa?$AAy?$AAs?$AA?5?$AA?$DN?$AA?$DN?$AA?5@ 00000001402429f0     imgui.obj
 0003:0000abc0       ??_C@_1BAO@IMIAKPPJ@?$AAK?$AAe?$AAy?$AAM?$AAa?$AAp?$AA?$FL?$AAn?$AA?$FN?$AA?5?$AA?$DN?$AA?$DN?$AA?5?$AA?9?$AA1?$AA?5?$AA?$CG?$AA?$CG?$AA?5?$AA?$CC?$AAB?$AAa?$AAc?$AAk?$AAe?$AAn?$AAd?$AA?5?$AAn?$AAe?$AAe?$AAd@ 0000000140242bc0     imgui.obj
 0003:0000ad08       ??_C@_1CO@CONHILD@?$AAI?$AAm?$AAG?$AAu?$AAi?$AA?3?$AA?3?$AAI?$AAs?$AAN?$AAa?$AAm?$AAe?$AAd?$AAK?$AAe?$AAy?$AA?$CI?$AAk?$AAe?$AAy?$AA?$CJ?$AA?$AA@ 0000000140242d08     imgui.obj
 0003:0000ad40       ??_C@_1JO@BMLJDDEB@?$AAn?$AAa?$AAt?$AAi?$AAv?$AAe?$AA_?$AAl?$AAe?$AAg?$AAa?$AAc?$AAy?$AA_?$AAi?$AAn?$AAd?$AAe?$AAx?$AA?5?$AA?$DN?$AA?$DN?$AA?5?$AA?9?$AA1?$AA?5?$AA?$HM?$AA?$HM?$AA?5?$AAI?$AAm?$AAG@ 0000000140242d40     imgui.obj
 0003:0000ae00       ??_C@_1HG@LHACLJHI@?$AAm?$AAo?$AAu?$AAs?$AAe?$AA_?$AAb?$AAu?$AAt?$AAt?$AAo?$AAn?$AA?5?$AA?$DO?$AA?$DN?$AA?5?$AA0?$AA?5?$AA?$CG?$AA?$CG?$AA?5?$AAm?$AAo?$AAu?$AAs?$AAe?$AA_?$AAb?$AAu?$AAt?$AAt?$AAo@ 0000000140242e00     imgui.obj
 0003:0000ae90       ??_C@_1CC@OJIGCPJC@?$AAn?$AAu?$AAm?$AA_?$AAs?$AAe?$AAg?$AAm?$AAe?$AAn?$AAt?$AAs?$AA?5?$AA?$DO?$AA?5?$AA0?$AA?$AA@ 0000000140242e90     imgui.obj
 0003:0000aeb8       ??_C@_1CA@PELHDBHK@?$AAt?$AAe?$AAs?$AAs?$AA_?$AAt?$AAo?$AAl?$AA?5?$AA?$DO?$AA?5?$AA0?$AA?4?$AA0?$AAf?$AA?$AA@ 0000000140242eb8     imgui.obj
 0003:0000aee0       ??_C@_1CC@MDBCLFOC@?$AAf?$AAi?$AAl?$AAe?$AAn?$AAa?$AAm?$AAe?$AA?5?$AA?$CG?$AA?$CG?$AA?5?$AAm?$AAo?$AAd?$AAe?$AA?$AA@ 0000000140242ee0     imgui.obj
 0003:0000af08       ??_C@_00CNPNBAHC@?$AA@     0000000140242f08     imgui.obj
 0003:0000af10       ??_C@_1HO@CCLMOLIF@?$AAo?$AAl?$AAd?$AA_?$AAs?$AAi?$AAz?$AAe?$AA?5?$AA?$DO?$AA?$DN?$AA?5?$AA0?$AA?5?$AA?$CG?$AA?$CG?$AA?5?$AAn?$AAe?$AAw?$AA_?$AAs?$AAi?$AAz?$AAe?$AA?5?$AA?$DO?$AA?$DN?$AA?5?$AAo?$AAl?$AAd@ 0000000140242f10     imgui.obj
 0003:0000afb0       ??_C@_1IC@MIOFPCGM@?$AA?$CB?$AAr?$AAa?$AAn?$AAg?$AAe?$AAs?$AA?$FL?$AAi?$AA?$FN?$AA?4?$AAP?$AAo?$AAs?$AAT?$AAo?$AAI?$AAn?$AAd?$AAe?$AAx?$AAC?$AAo?$AAn?$AAv?$AAe?$AAr?$AAt?$AA?5?$AA?$CG?$AA?$CG?$AA?5@ 0000000140242fb0     imgui.obj
 0003:0000b050       ??_C@_0CB@GNIOCDHI@Clipper?3?5Begin?$CI?$CFd?0?$CF?42f?$CJ?5in?5?8?$CFs?8?6@ 0000000140243050     imgui.obj
 0003:0000b078       ??_C@_0BI@CAOKIKBG@Clipper?3?5End?$CI?$CJ?5in?5?8?$CFs?8?6?$AA@ 0000000140243078     imgui.obj
 0003:0000b098       ??_C@_1DE@PAMNKHLD@?$AAd?$AAa?$AAt?$AAa?$AA?9?$AA?$DO?$AAL?$AAi?$AAs?$AAt?$AAC?$AAl?$AAi?$AAp?$AAp?$AAe?$AAr?$AA?5?$AA?$DN?$AA?$DN?$AA?5?$AAt?$AAh?$AAi?$AAs?$AA?$AA@ 0000000140243098     imgui.obj
 0003:0000b0d8       ??_C@_1CC@CLNGJMEE@?$AAD?$AAi?$AAs?$AAp?$AAl?$AAa?$AAy?$AAS?$AAt?$AAa?$AAr?$AAt?$AA?5?$AA?$DM?$AA?5?$AA0?$AA?$AA@ 00000001402430d8     imgui.obj
 0003:0000b100       ??_C@_1CK@JPOCBLN@?$AAi?$AAt?$AAe?$AAm?$AA_?$AAm?$AAi?$AAn?$AA?5?$AA?$DM?$AA?$DN?$AA?5?$AAi?$AAt?$AAe?$AAm?$AA_?$AAm?$AAa?$AAx?$AA?$AA@ 0000000140243100     imgui.obj
 0003:0000b140       ??_C@_0FG@OANOMCEC@Called?5ImGuiListClipper?3?3Step?$CI?$CJ?5@ 0000000140243140     imgui.obj
 0003:0000b1b0       ??_C@_1MK@LNGOFCMN@?$AAd?$AAa?$AAt?$AAa?$AA?5?$AA?$CB?$AA?$DN?$AA?5?$AA0?$AA?5?$AA?$CG?$AA?$CG?$AA?5?$AA?$CC?$AAC?$AAa?$AAl?$AAl?$AAe?$AAd?$AA?5?$AAI?$AAm?$AAG?$AAu?$AAi?$AAL?$AAi?$AAs?$AAt?$AAC?$AAl@ 00000001402431b0     imgui.obj
 0003:0000b2a8       ??_C@_1CE@JAPGLFFA@?$AAd?$AAa?$AAt?$AAa?$AA?9?$AA?$DO?$AAS?$AAt?$AAe?$AAp?$AAN?$AAo?$AA?5?$AA?$DN?$AA?$DN?$AA?5?$AA1?$AA?$AA@ 00000001402432a8     imgui.obj
 0003:0000b2e0       ??_C@_1KG@FMJJLCOM@?$AAt?$AAa?$AAb?$AAl?$AAe?$AA?9?$AA?$DO?$AAR?$AAo?$AAw?$AAP?$AAo?$AAs?$AAY?$AA1?$AA?5?$AA?$DN?$AA?$DN?$AA?5?$AAc?$AAl?$AAi?$AAp?$AAp?$AAe?$AAr?$AA?9?$AA?$DO?$AAS?$AAt?$AAa?$AAr@ 00000001402432e0     imgui.obj
 0003:0000b3b0       ??_C@_0FA@HACOCONG@Unable?5to?5calculate?5item?5height?$CB@ 00000001402433b0     imgui.obj
 0003:0000b410       ??_C@_1OC@JHLLHLLP@?$AAc?$AAl?$AAi?$AAp?$AAp?$AAe?$AAr?$AA?9?$AA?$DO?$AAI?$AAt?$AAe?$AAm?$AAs?$AAH?$AAe?$AAi?$AAg?$AAh?$AAt?$AA?5?$AA?$DO?$AA?5?$AA0?$AA?4?$AA0?$AAf?$AA?5?$AA?$CG?$AA?$CG?$AA?5?$AA?$CC@ 0000000140243410     imgui.obj
 0003:0000b520       ??_C@_0CL@INMALPKG@Clipper?3?5Step?$CI?$CJ?3?5inside?5frozen?5t@ 0000000140243520     imgui.obj
 0003:0000b558       ??_C@_0CO@DPDPBJBN@Clipper?3?5Step?$CI?$CJ?3?5computed?5ItemsH@ 0000000140243558     imgui.obj
 0003:0000b590       ??_C@_0CE@JEMCBOCJ@Clipper?3?5Step?$CI?$CJ?3?5display?5?$CFd?5to?5?$CF@ 0000000140243590     imgui.obj
 0003:0000b5c0       ??_C@_0BH@MKOKNAKC@Clipper?3?5Step?$CI?$CJ?3?5End?4?6?$AA@ 00000001402435c0     imgui.obj
 0003:0000b5e0       ??_C@_0FJ@JBAFLEHG@No?5current?5context?4?5Did?5you?5call@ 00000001402435e0     imgui.obj
 0003:0000b650       ??_C@_1NE@MGLAEJCB@?$AAG?$AAI?$AAm?$AAG?$AAu?$AAi?$AA?5?$AA?$CB?$AA?$DN?$AA?5?$AA0?$AA?5?$AA?$CG?$AA?$CG?$AA?5?$AA?$CC?$AAN?$AAo?$AA?5?$AAc?$AAu?$AAr?$AAr?$AAe?$AAn?$AAt?$AA?5?$AAc?$AAo?$AAn?$AAt?$AAe@ 0000000140243650     imgui.obj
 0003:0000b750       ??_C@_0DJ@CFJOCFBB@Calling?5PopStyleColor?$CI?$CJ?5too?5many@ 0000000140243750     imgui.obj
 0003:0000b7a0       ??_C@_1LE@CHMFADCM@?$AA?$CI?$AAg?$AA?4?$AAC?$AAo?$AAl?$AAo?$AAr?$AAS?$AAt?$AAa?$AAc?$AAk?$AA?4?$AAS?$AAi?$AAz?$AAe?$AA?5?$AA?$DO?$AA?5?$AAc?$AAo?$AAu?$AAn?$AAt?$AA?$CJ?$AA?5?$AA?$CG?$AA?$CG?$AA?5?$AA?$CC@ 00000001402437a0     imgui.obj
 0003:0000b880       ??_C@_1EM@KGOACLAI@?$AAi?$AAd?$AAx?$AA?5?$AA?$DO?$AA?$DN?$AA?5?$AA0?$AA?5?$AA?$CG?$AA?$CG?$AA?5?$AAi?$AAd?$AAx?$AA?5?$AA?$DM?$AA?5?$AAI?$AAm?$AAG?$AAu?$AAi?$AAS?$AAt?$AAy?$AAl?$AAe?$AAV?$AAa?$AAr?$AA_@ 0000000140243880     imgui.obj
 0003:0000b8e0       ??_C@_1JA@BICGEIG@?$AA0?$AA?5?$AA?$CG?$AA?$CG?$AA?5?$AA?$CC?$AAC?$AAa?$AAl?$AAl?$AAe?$AAd?$AA?5?$AAP?$AAu?$AAs?$AAh?$AAS?$AAt?$AAy?$AAl?$AAe?$AAV?$AAa?$AAr?$AA?$CI?$AA?$CJ?$AA?5?$AAf?$AAl?$AAo?$AAa@ 00000001402438e0     imgui.obj
 0003:0000b990       ??_C@_1JE@EECEMJDC@?$AA0?$AA?5?$AA?$CG?$AA?$CG?$AA?5?$AA?$CC?$AAC?$AAa?$AAl?$AAl?$AAe?$AAd?$AA?5?$AAP?$AAu?$AAs?$AAh?$AAS?$AAt?$AAy?$AAl?$AAe?$AAV?$AAa?$AAr?$AA?$CI?$AA?$CJ?$AA?5?$AAI?$AAm?$AAV?$AAe@ 0000000140243990     imgui.obj
 0003:0000ba48       ??_C@_0DH@HAEMKDBF@Calling?5PopStyleVar?$CI?$CJ?5too?5many?5t@ 0000000140243a48     imgui.obj
 0003:0000ba90       ??_C@_1LG@DIBHFCBP@?$AA?$CI?$AAg?$AA?4?$AAS?$AAt?$AAy?$AAl?$AAe?$AAV?$AAa?$AAr?$AAS?$AAt?$AAa?$AAc?$AAk?$AA?4?$AAS?$AAi?$AAz?$AAe?$AA?5?$AA?$DO?$AA?5?$AAc?$AAo?$AAu?$AAn?$AAt?$AA?$CJ?$AA?5?$AA?$CG@ 0000000140243a90     imgui.obj
 0003:0000bb6c       ??_C@_04OJAHODMC@Text?$AA@ 0000000140243b6c     imgui.obj
 0003:0000bb78       ??_C@_0N@LNHHFNPK@TextDisabled?$AA@ 0000000140243b78     imgui.obj
 0003:0000bb88       ??_C@_08DMKFNKPN@WindowBg?$AA@ 0000000140243b88     imgui.obj
 0003:0000bb98       ??_C@_07BLEJOHFO@ChildBg?$AA@ 0000000140243b98     imgui.obj
 0003:0000bba8       ??_C@_07LKIIIJHA@PopupBg?$AA@ 0000000140243ba8     imgui.obj
 0003:0000bbb4       ??_C@_06CMOGDIBK@Border?$AA@ 0000000140243bb4     imgui.obj
 0003:0000bbc0       ??_C@_0N@DECGFAEC@BorderShadow?$AA@ 0000000140243bc0     imgui.obj
 0003:0000bbd0       ??_C@_07PJIIOGAC@FrameBg?$AA@ 0000000140243bd0     imgui.obj
 0003:0000bbe0       ??_C@_0P@KIOOHHAC@FrameBgHovered?$AA@ 0000000140243be0     imgui.obj
 0003:0000bbf8       ??_C@_0O@BGDCDDEA@FrameBgActive?$AA@ 0000000140243bf8     imgui.obj
 0003:0000bc08       ??_C@_07MMLEKCPI@TitleBg?$AA@ 0000000140243c08     imgui.obj
 0003:0000bc18       ??_C@_0O@JHBFJHNE@TitleBgActive?$AA@ 0000000140243c18     imgui.obj
 0003:0000bc28       ??_C@_0BB@EGCOMBJG@TitleBgCollapsed?$AA@ 0000000140243c28     imgui.obj
 0003:0000bc40       ??_C@_09GEKCKLDE@MenuBarBg?$AA@ 0000000140243c40     imgui.obj
 0003:0000bc50       ??_C@_0M@MFDHPFJF@ScrollbarBg?$AA@ 0000000140243c50     imgui.obj
 0003:0000bc60       ??_C@_0O@HABIDNBE@ScrollbarGrab?$AA@ 0000000140243c60     imgui.obj
 0003:0000bc70       ??_C@_0BF@JFEOOMLL@ScrollbarGrabHovered?$AA@ 0000000140243c70     imgui.obj
 0003:0000bc90       ??_C@_0BE@GODMFNCF@ScrollbarGrabActive?$AA@ 0000000140243c90     imgui.obj
 0003:0000bca8       ??_C@_09DMKAANGE@CheckMark?$AA@ 0000000140243ca8     imgui.obj
 0003:0000bcb8       ??_C@_0L@LAMBADIC@SliderGrab?$AA@ 0000000140243cb8     imgui.obj
 0003:0000bcc8       ??_C@_0BB@HBOBMOMP@SliderGrabActive?$AA@ 0000000140243cc8     imgui.obj
 0003:0000bcdc       ??_C@_06LKBCGDFD@Button?$AA@ 0000000140243cdc     imgui.obj
 0003:0000bce8       ??_C@_0O@HBCGNIAI@ButtonHovered?$AA@ 0000000140243ce8     imgui.obj
 0003:0000bcf8       ??_C@_0N@IMHOFKJ@ButtonActive?$AA@ 0000000140243cf8     imgui.obj
 0003:0000bd08       ??_C@_06OENKJGA@Header?$AA@ 0000000140243d08     imgui.obj
 0003:0000bd10       ??_C@_0O@HAINNLMC@HeaderHovered?$AA@ 0000000140243d10     imgui.obj
 0003:0000bd20       ??_C@_0N@HILFCJOI@HeaderActive?$AA@ 0000000140243d20     imgui.obj
 0003:0000bd30       ??_C@_09IBFEOKHN@Separator?$AA@ 0000000140243d30     imgui.obj
 0003:0000bd40       ??_C@_0BB@CHICANJA@SeparatorHovered?$AA@ 0000000140243d40     imgui.obj
 0003:0000bd58       ??_C@_0BA@BPNGFOJM@SeparatorActive?$AA@ 0000000140243d58     imgui.obj
 0003:0000bd70       ??_C@_0L@NGBDNFNJ@ResizeGrip?$AA@ 0000000140243d70     imgui.obj
 0003:0000bd80       ??_C@_0BC@NNEDPMNH@ResizeGripHovered?$AA@ 0000000140243d80     imgui.obj
 0003:0000bd98       ??_C@_0BB@NBBKHKIC@ResizeGripActive?$AA@ 0000000140243d98     imgui.obj
 0003:0000bdb0       ??_C@_0L@JFDLBKBD@TabHovered?$AA@ 0000000140243db0     imgui.obj
 0003:0000bdc0       ??_C@_09BLMKPFCF@TabActive?$AA@ 0000000140243dc0     imgui.obj
 0003:0000bdd0       ??_C@_0N@KLEENDFP@TabUnfocused?$AA@ 0000000140243dd0     imgui.obj
 0003:0000bde0       ??_C@_0BD@JMEALEPP@TabUnfocusedActive?$AA@ 0000000140243de0     imgui.obj
 0003:0000bdf8       ??_C@_09HDJFFJLL@PlotLines?$AA@ 0000000140243df8     imgui.obj
 0003:0000be08       ??_C@_0BB@OMALNJLN@PlotLinesHovered?$AA@ 0000000140243e08     imgui.obj
 0003:0000be20       ??_C@_0O@EEKOCENA@PlotHistogram?$AA@ 0000000140243e20     imgui.obj
 0003:0000be30       ??_C@_0BF@GJALJGDC@PlotHistogramHovered?$AA@ 0000000140243e30     imgui.obj
 0003:0000be50       ??_C@_0O@OAEMMJAA@TableHeaderBg?$AA@ 0000000140243e50     imgui.obj
 0003:0000be60       ??_C@_0BC@EJINMLMM@TableBorderStrong?$AA@ 0000000140243e60     imgui.obj
 0003:0000be78       ??_C@_0BB@IPAPNNJD@TableBorderLight?$AA@ 0000000140243e78     imgui.obj
 0003:0000be90       ??_C@_0L@LLALIFOE@TableRowBg?$AA@ 0000000140243e90     imgui.obj
 0003:0000bea0       ??_C@_0O@FGPLHMKP@TableRowBgAlt?$AA@ 0000000140243ea0     imgui.obj
 0003:0000beb0       ??_C@_0P@IBBLAEBJ@TextSelectedBg?$AA@ 0000000140243eb0     imgui.obj
 0003:0000bec8       ??_C@_0P@GDDMCLOI@DragDropTarget?$AA@ 0000000140243ec8     imgui.obj
 0003:0000bee0       ??_C@_0N@ENCIHEPH@NavHighlight?$AA@ 0000000140243ee0     imgui.obj
 0003:0000bef0       ??_C@_0BG@MCGDEFOI@NavWindowingHighlight?$AA@ 0000000140243ef0     imgui.obj
 0003:0000bf10       ??_C@_0BC@JHKONDGH@NavWindowingDimBg?$AA@ 0000000140243f10     imgui.obj
 0003:0000bf28       ??_C@_0BB@JOEAHKNC@ModalWindowDimBg?$AA@ 0000000140243f28     imgui.obj
 0003:0000bf40       ??_C@_07NBCGADJA@Unknown?$AA@ 0000000140243f40     imgui.obj
 0003:0000bf50       ??_C@_1JM@LKKCKIOL@?$AAm?$AAo?$AAu?$AAs?$AAe?$AA_?$AAc?$AAu?$AAr?$AAs?$AAo?$AAr?$AA?5?$AA?$DO?$AA?5?$AAI?$AAm?$AAG?$AAu?$AAi?$AAM?$AAo?$AAu?$AAs?$AAe?$AAC?$AAu?$AAr?$AAs?$AAo?$AAr?$AA_@ 0000000140243f50     imgui.obj
 0003:0000c010       ??_C@_1EI@IBBBPCIN@?$AA?$CB?$AAg?$AA?4?$AAI?$AAn?$AAi?$AAt?$AAi?$AAa?$AAl?$AAi?$AAz?$AAe?$AAd?$AA?5?$AA?$CG?$AA?$CG?$AA?5?$AA?$CB?$AAg?$AA?4?$AAS?$AAe?$AAt?$AAt?$AAi?$AAn?$AAg?$AAs?$AAL?$AAo?$AAa@ 0000000140244010     imgui.obj
 0003:0000c068       ??_C@_06BKKJGDHO@Window?$AA@ 0000000140244068     imgui.obj
 0003:0000c070       ??_C@_1LO@DGOFJFDA@?$AAh?$AAo?$AAo?$AAk?$AA?9?$AA?$DO?$AAC?$AAa?$AAl?$AAl?$AAb?$AAa?$AAc?$AAk?$AA?5?$AA?$CB?$AA?$DN?$AA?5?$AA0?$AA?5?$AA?$CG?$AA?$CG?$AA?5?$AAh?$AAo?$AAo?$AAk?$AA?9?$AA?$DO?$AAH?$AAo?$AAo@ 0000000140244070     imgui.obj
 0003:0000c158       ??_C@_1BK@LEOMHFJC@?$AAh?$AAo?$AAo?$AAk?$AA_?$AAi?$AAd?$AA?5?$AA?$CB?$AA?$DN?$AA?5?$AA0?$AA?$AA@ 0000000140244158     imgui.obj
 0003:0000c178       ??_C@_05EJCOBEBF@?$CDMOVE?$AA@ 0000000140244178     imgui.obj
 0003:0000c180       ??_C@_1DE@OJBIPCGA@?$AAD?$AAr?$AAa?$AAw?$AAL?$AAi?$AAs?$AAt?$AA?5?$AA?$DN?$AA?$DN?$AA?5?$AA?$CG?$AAD?$AAr?$AAa?$AAw?$AAL?$AAi?$AAs?$AAt?$AAI?$AAn?$AAs?$AAt?$AA?$AA@ 0000000140244180     imgui.obj
 0003:0000c1c0       ??_C@_0CD@PNHNJJBD@SetActiveID?$CI?$CJ?5cancel?5MovingWindo@ 00000001402441c0     imgui.obj
 0003:0000c1f0       ??_C@_0EE@BGNDHHFI@SetActiveID?$CI?$CJ?5old?30x?$CF08X?5?$CIwindow@ 00000001402441f0     imgui.obj
 0003:0000c250       ??_C@_1HA@DMBDPHAC@?$AAg?$AA?4?$AAA?$AAc?$AAt?$AAi?$AAv?$AAe?$AAI?$AAd?$AA?5?$AA?$DN?$AA?$DN?$AA?5?$AAi?$AAd?$AA?5?$AA?$HM?$AA?$HM?$AA?5?$AAg?$AA?4?$AAA?$AAc?$AAt?$AAi?$AAv?$AAe?$AAI?$AAd?$AA?5?$AA?$DN@ 0000000140244250     imgui.obj
 0003:0000c2e0       ??_C@_1BCE@KJDOILGC@?$AA?$CI?$AAf?$AAl?$AAa?$AAg?$AAs?$AA?5?$AA?$CG?$AA?5?$AA?$CI?$AAI?$AAm?$AAG?$AAu?$AAi?$AAH?$AAo?$AAv?$AAe?$AAr?$AAe?$AAd?$AAF?$AAl?$AAa?$AAg?$AAs?$AA_?$AAA?$AAn?$AAy?$AAW@ 00000001402442e0     imgui.obj
 0003:0000c440       ??_C@_0L@GMOEAHPG@1?489?43?5WIP?$AA@ 0000000140244440     imgui.obj
 0003:0000c450       ??_C@_1KI@ECMHEDEI@?$AAd?$AAr?$AAa?$AAw?$AAl?$AAi?$AAs?$AAt?$AA_?$AAn?$AAo?$AA?5?$AA?$DM?$AA?5?$AA?$CI?$AA?$CI?$AAi?$AAn?$AAt?$AA?$CJ?$AA?$CI?$AAs?$AAi?$AAz?$AAe?$AAo?$AAf?$AA?$CI?$AAv?$AAi?$AAe?$AAw@ 0000000140244450     imgui.obj
 0003:0000c520       ??_C@_0N@MFFOHPLI@?$CD?$CDBackground?$AA@ 0000000140244520     imgui.obj
 0003:0000c530       ??_C@_0N@MFHPHIIJ@?$CD?$CDForeground?$AA@ 0000000140244530     imgui.obj
 0003:0000c540       ??_C@_1FK@PIJFGHBG@?$AAg?$AA?4?$AAM?$AAo?$AAv?$AAi?$AAn?$AAg?$AAW?$AAi?$AAn?$AAd?$AAo?$AAw?$AA?5?$AA?$CG?$AA?$CG?$AA?5?$AAg?$AA?4?$AAM?$AAo?$AAv?$AAi?$AAn?$AAg?$AAW?$AAi?$AAn?$AAd?$AAo?$AAw@ 0000000140244540     imgui.obj
 0003:0000c5b0       ??_C@_1CG@DCCAIGN@?$AAg?$AA?4?$AAF?$AAo?$AAn?$AAt?$AA?9?$AA?$DO?$AAI?$AAs?$AAL?$AAo?$AAa?$AAd?$AAe?$AAd?$AA?$CI?$AA?$CJ?$AA?$AA@ 00000001402445b0     imgui.obj
 0003:0000c5e0       ??_C@_0EE@CAHEIKBO@NewFrame?$CI?$CJ?3?5ClearActiveID?$CI?$CJ?5beca@ 00000001402445e0     imgui.obj
 0003:0000c640       ??_C@_1FG@PEGMPHDA@?$AAg?$AA?4?$AAW?$AAi?$AAn?$AAd?$AAo?$AAw?$AAs?$AAF?$AAo?$AAc?$AAu?$AAs?$AAO?$AAr?$AAd?$AAe?$AAr?$AA?4?$AAS?$AAi?$AAz?$AAe?$AA?5?$AA?$DM?$AA?$DN?$AA?5?$AAg?$AA?4?$AAW?$AAi@ 0000000140244640     imgui.obj
 0003:0000c6a8       ??_C@_0P@IMLDNMEK@Debug?$CD?$CDDefault?$AA@ 00000001402446a8     imgui.obj
 0003:0000c6c0       ??_C@_1FE@JJEPGBAD@?$AAg?$AA?4?$AAC?$AAu?$AAr?$AAr?$AAe?$AAn?$AAt?$AAW?$AAi?$AAn?$AAd?$AAo?$AAw?$AA?9?$AA?$DO?$AAI?$AAs?$AAF?$AAa?$AAl?$AAl?$AAb?$AAa?$AAc?$AAk?$AAW?$AAi?$AAn?$AAd?$AAo@ 00000001402446c0     imgui.obj
 0003:0000c730       ??_C@_1OG@INBPPELJ@?$AAd?$AAr?$AAa?$AAw?$AA_?$AAl?$AAi?$AAs?$AAt?$AA?9?$AA?$DO?$AAV?$AAt?$AAx?$AAB?$AAu?$AAf?$AAf?$AAe?$AAr?$AA?4?$AAS?$AAi?$AAz?$AAe?$AA?5?$AA?$DN?$AA?$DN?$AA?5?$AA0?$AA?5?$AA?$HM@ 0000000140244730     imgui.obj
 0003:0000c850       ??_C@_1OG@ICPLNDEC@?$AAd?$AAr?$AAa?$AAw?$AA_?$AAl?$AAi?$AAs?$AAt?$AA?9?$AA?$DO?$AAI?$AAd?$AAx?$AAB?$AAu?$AAf?$AAf?$AAe?$AAr?$AA?4?$AAS?$AAi?$AAz?$AAe?$AA?5?$AA?$DN?$AA?$DN?$AA?5?$AA0?$AA?5?$AA?$HM@ 0000000140244850     imgui.obj
 0003:0000c970       ??_C@_1HI@ENCAIJO@?$AA?$CI?$AAi?$AAn?$AAt?$AA?$CJ?$AAd?$AAr?$AAa?$AAw?$AA_?$AAl?$AAi?$AAs?$AAt?$AA?9?$AA?$DO?$AA_?$AAV?$AAt?$AAx?$AAC?$AAu?$AAr?$AAr?$AAe?$AAn?$AAt?$AAI?$AAd?$AAx?$AA?5?$AA?$DN@ 0000000140244970     imgui.obj
 0003:0000ca00       ??_C@_0EJ@CDENJONN@Too?5many?5vertices?5in?5ImDrawList?5@ 0000000140244a00     imgui.obj
 0003:0000ca60       ??_C@_1OI@BGNIEPFI@?$AAd?$AAr?$AAa?$AAw?$AA_?$AAl?$AAi?$AAs?$AAt?$AA?9?$AA?$DO?$AA_?$AAV?$AAt?$AAx?$AAC?$AAu?$AAr?$AAr?$AAe?$AAn?$AAt?$AAI?$AAd?$AAx?$AA?5?$AA?$DM?$AA?5?$AA?$CI?$AA1?$AA?5?$AA?$DM@ 0000000140244a60     imgui.obj
 0003:0000cb78       ??_C@_1CG@MGHNBJHF@?$AAc?$AAm?$AAd?$AA?4?$AAE?$AAl?$AAe?$AAm?$AAC?$AAo?$AAu?$AAn?$AAt?$AA?5?$AA?$DN?$AA?$DN?$AA?5?$AA6?$AA?$AA@ 0000000140244b78     imgui.obj
 0003:0000cba8       ??_C@_1BM@ICEHPMG@?$AAg?$AA?4?$AAI?$AAn?$AAi?$AAt?$AAi?$AAa?$AAl?$AAi?$AAz?$AAe?$AAd?$AA?$AA@ 0000000140244ba8     imgui.obj
 0003:0000cbd0       ??_C@_0CC@DPHJAHCA@Forgot?5to?5call?5ImGui?3?3NewFrame?$CI?$CJ@ 0000000140244bd0     imgui.obj
 0003:0000cc00       ??_C@_1HE@BFIFNNBB@?$AAg?$AA?4?$AAW?$AAi?$AAt?$AAh?$AAi?$AAn?$AAF?$AAr?$AAa?$AAm?$AAe?$AAS?$AAc?$AAo?$AAp?$AAe?$AA?5?$AA?$CG?$AA?$CG?$AA?5?$AA?$CC?$AAF?$AAo?$AAr?$AAg?$AAo?$AAt?$AA?5?$AAt?$AAo@ 0000000140244c00     imgui.obj
 0003:0000cc8c       ??_C@_03KHICJKCI@?4?4?4?$AA@ 0000000140244c8c     imgui.obj
 0003:0000cc90       ??_C@_1FO@HCCAMJFH@?$AAg?$AA?4?$AAW?$AAi?$AAn?$AAd?$AAo?$AAw?$AAs?$AA?4?$AAS?$AAi?$AAz?$AAe?$AA?5?$AA?$DN?$AA?$DN?$AA?5?$AAg?$AA?4?$AAW?$AAi?$AAn?$AAd?$AAo?$AAw?$AAs?$AAT?$AAe?$AAm?$AAp?$AAS@ 0000000140244c90     imgui.obj
 0003:0000cd00       ??_C@_1CA@MJFBPLLL@?$AAg?$AA?4?$AAA?$AAc?$AAt?$AAi?$AAv?$AAe?$AAI?$AAd?$AA?5?$AA?$CB?$AA?$DN?$AA?5?$AA0?$AA?$AA@ 0000000140244d00     imgui.obj
 0003:0000cd28       ??_C@_0L@BDFLDJGI@?$CFs?1?$CFs_?$CF08X?$AA@ 0000000140244d28     imgui.obj
 0003:0000cd38       ??_C@_07KBCBAKFA@?$CFs?1?$CF08X?$AA@ 0000000140244d38     imgui.obj
 0003:0000cd48       ??_C@_1BA@DDOODPOM@?$AAi?$AAd?$AA?5?$AA?$CB?$AA?$DN?$AA?5?$AA0?$AA?$AA@ 0000000140244d48     imgui.obj
 0003:0000cd60       ??_C@_1DE@LOOJAFFK@?$AAg?$AA?4?$AAW?$AAi?$AAt?$AAh?$AAi?$AAn?$AAE?$AAn?$AAd?$AAC?$AAh?$AAi?$AAl?$AAd?$AA?5?$AA?$DN?$AA?$DN?$AA?5?$AAf?$AAa?$AAl?$AAs?$AAe?$AA?$AA@ 0000000140244d60     imgui.obj
 0003:0000cda0       ??_C@_1FK@ONDIMCKL@?$AAw?$AAi?$AAn?$AAd?$AAo?$AAw?$AA?9?$AA?$DO?$AAF?$AAl?$AAa?$AAg?$AAs?$AA?5?$AA?$CG?$AA?5?$AAI?$AAm?$AAG?$AAu?$AAi?$AAW?$AAi?$AAn?$AAd?$AAo?$AAw?$AAF?$AAl?$AAa?$AAg?$AAs@ 0000000140244da0     imgui.obj
 0003:0000ce10       ??_C@_1EM@KENICNEK@?$AA?$CB?$AAg?$AA?4?$AAW?$AAi?$AAn?$AAd?$AAo?$AAw?$AAs?$AAF?$AAo?$AAc?$AAu?$AAs?$AAO?$AAr?$AAd?$AAe?$AAr?$AA?4?$AAc?$AAo?$AAn?$AAt?$AAa?$AAi?$AAn?$AAs?$AA?$CI?$AAw?$AAi@ 0000000140244e10     imgui.obj
 0003:0000ce70       ??_C@_1GE@PMHEOEPH@?$AAg?$AA?4?$AAW?$AAi?$AAn?$AAd?$AAo?$AAw?$AAs?$AAF?$AAo?$AAc?$AAu?$AAs?$AAO?$AAr?$AAd?$AAe?$AAr?$AA?$FL?$AAw?$AAi?$AAn?$AAd?$AAo?$AAw?$AA?9?$AA?$DO?$AAF?$AAo?$AAc?$AAu@ 0000000140244e70     imgui.obj
 0003:0000cee8       ??_C@_1CA@EBHOHNJC@?$AAn?$AA?5?$AA?$DO?$AA?$DN?$AA?5?$AA0?$AA?5?$AA?$CG?$AA?$CG?$AA?5?$AAn?$AA?5?$AA?$DM?$AA?5?$AA4?$AA?$AA@ 0000000140244ee8     imgui.obj
 0003:0000cf10       ??_C@_07HDHBJEOI@?$CDRESIZE?$AA@ 0000000140244f10     imgui.obj
 0003:0000cf20       ??_C@_1CI@OAHDFFF@?$AAd?$AAi?$AAr?$AA?5?$AA?$DO?$AA?$DN?$AA?5?$AA0?$AA?5?$AA?$CG?$AA?$CG?$AA?5?$AAd?$AAi?$AAr?$AA?5?$AA?$DM?$AA?5?$AA4?$AA?$AA@ 0000000140244f20     imgui.obj
 0003:0000cf50       ??_C@_1DA@CEGNFBKM@?$AAw?$AAi?$AAn?$AAd?$AAo?$AAw?$AA?9?$AA?$DO?$AAB?$AAe?$AAg?$AAi?$AAn?$AAC?$AAo?$AAu?$AAn?$AAt?$AA?5?$AA?$DN?$AA?$DN?$AA?5?$AA0?$AA?$AA@ 0000000140244f50     imgui.obj
 0003:0000cf90       ??_C@_09BJOGEADB@?$CDCOLLAPSE?$AA@ 0000000140244f90     imgui.obj
 0003:0000cf9c       ??_C@_06KIIKKNMI@?$CDCLOSE?$AA@ 0000000140244f9c     imgui.obj
 0003:0000cfb0       ??_C@_1FI@JBDNHGBD@?$AAw?$AAi?$AAn?$AAd?$AAo?$AAw?$AA?9?$AA?$DO?$AAR?$AAo?$AAo?$AAt?$AAW?$AAi?$AAn?$AAd?$AAo?$AAw?$AAF?$AAo?$AAr?$AAN?$AAa?$AAv?$AA?9?$AA?$DO?$AAP?$AAa?$AAr?$AAe?$AAn?$AAt@ 0000000140244fb0     imgui.obj
 0003:0000d020       ??_C@_1DK@CDEKKEL@?$AAn?$AAa?$AAm?$AAe?$AA?5?$AA?$CB?$AA?$DN?$AA?5?$AA0?$AA?5?$AA?$CG?$AA?$CG?$AA?5?$AAn?$AAa?$AAm?$AAe?$AA?$FL?$AA0?$AA?$FN?$AA?5?$AA?$CB?$AA?$DN?$AA?5?$AA?8?$AA?2?$AA0?$AA?8?$AA?$AA@ 0000000140245020     imgui.obj
 0003:0000d068       ??_C@_1CG@FEBKCKMN@?$AAg?$AA?4?$AAW?$AAi?$AAt?$AAh?$AAi?$AAn?$AAF?$AAr?$AAa?$AAm?$AAe?$AAS?$AAc?$AAo?$AAp?$AAe?$AA?$AA@ 0000000140245068     imgui.obj
 0003:0000d0a0       ??_C@_1EE@GGBMECGG@?$AAg?$AA?4?$AAF?$AAr?$AAa?$AAm?$AAe?$AAC?$AAo?$AAu?$AAn?$AAt?$AAE?$AAn?$AAd?$AAe?$AAd?$AA?5?$AA?$CB?$AA?$DN?$AA?5?$AAg?$AA?4?$AAF?$AAr?$AAa?$AAm?$AAe?$AAC?$AAo?$AAu?$AAn@ 00000001402450a0     imgui.obj
 0003:0000d100       ??_C@_1EK@IADLALGG@?$AAf?$AAl?$AAa?$AAg?$AAs?$AA?5?$AA?$CG?$AA?5?$AAI?$AAm?$AAG?$AAu?$AAi?$AAW?$AAi?$AAn?$AAd?$AAo?$AAw?$AAF?$AAl?$AAa?$AAg?$AAs?$AA_?$AAC?$AAh?$AAi?$AAl?$AAd?$AAW?$AAi@ 0000000140245100     imgui.obj
 0003:0000d160       ??_C@_1HM@BDHFFAHO@?$AAp?$AAa?$AAr?$AAe?$AAn?$AAt?$AA_?$AAw?$AAi?$AAn?$AAd?$AAo?$AAw?$AA?5?$AA?$CB?$AA?$DN?$AA?5?$AA0?$AA?5?$AA?$HM?$AA?$HM?$AA?5?$AA?$CB?$AA?$CI?$AAf?$AAl?$AAa?$AAg?$AAs?$AA?5?$AA?$CG?$AA?5@ 0000000140245160     imgui.obj
 0003:0000d200       ??_C@_1EO@GBMDJNAA@?$AAp?$AAa?$AAr?$AAe?$AAn?$AAt?$AA_?$AAw?$AAi?$AAn?$AAd?$AAo?$AAw?$AA?5?$AA?$CG?$AA?$CG?$AA?5?$AAp?$AAa?$AAr?$AAe?$AAn?$AAt?$AA_?$AAw?$AAi?$AAn?$AAd?$AAo?$AAw?$AA?9?$AA?$DO@ 0000000140245200     imgui.obj
 0003:0000d260       ??_C@_1CI@BIOMENFA@?$AAb?$AAl?$AAo?$AAc?$AAk?$AAi?$AAn?$AAg?$AA_?$AAm?$AAo?$AAd?$AAa?$AAl?$AA?5?$AA?$CB?$AA?$DN?$AA?5?$AA0?$AA?$AA@ 0000000140245260     imgui.obj
 0003:0000d290       ??_C@_1KO@GJELMBN@?$AAw?$AAi?$AAn?$AAd?$AAo?$AAw?$AA?9?$AA?$DO?$AAD?$AAr?$AAa?$AAw?$AAL?$AAi?$AAs?$AAt?$AA?9?$AA?$DO?$AAC?$AAm?$AAd?$AAB?$AAu?$AAf?$AAf?$AAe?$AAr?$AA?4?$AAS?$AAi?$AAz?$AAe@ 0000000140245290     imgui.obj
 0003:0000d360       ??_C@_1FG@JPKHCDHL@?$AA?$CI?$AAf?$AAl?$AAa?$AAg?$AAs?$AA?5?$AA?$CG?$AA?5?$AAI?$AAm?$AAG?$AAu?$AAi?$AAW?$AAi?$AAn?$AAd?$AAo?$AAw?$AAF?$AAl?$AAa?$AAg?$AAs?$AA_?$AAN?$AAo?$AAT?$AAi?$AAt?$AAl@ 0000000140245360     imgui.obj
 0003:0000d3c8       ??_C@_0BO@JOGPJJCM@Calling?5End?$CI?$CJ?5too?5many?5times?$CB?$AA@ 00000001402453c8     imgui.obj
 0003:0000d3f0       ??_C@_1IG@DKOLGHNA@?$AA?$CI?$AAg?$AA?4?$AAC?$AAu?$AAr?$AAr?$AAe?$AAn?$AAt?$AAW?$AAi?$AAn?$AAd?$AAo?$AAw?$AAS?$AAt?$AAa?$AAc?$AAk?$AA?4?$AAS?$AAi?$AAz?$AAe?$AA?5?$AA?$DO?$AA?5?$AA1?$AA?$CJ?$AA?5@ 00000001402453f0     imgui.obj
 0003:0000d490       ??_C@_1DM@FOOGCAMP@?$AAg?$AA?4?$AAC?$AAu?$AAr?$AAr?$AAe?$AAn?$AAt?$AAW?$AAi?$AAn?$AAd?$AAo?$AAw?$AAS?$AAt?$AAa?$AAc?$AAk?$AA?4?$AAS?$AAi?$AAz?$AAe?$AA?5?$AA?$DO?$AA?5?$AA0?$AA?$AA@ 0000000140245490     imgui.obj
 0003:0000d4d8       ??_C@_0CE@DEHLBEMA@Must?5call?5EndChild?$CI?$CJ?5and?5not?5End@ 00000001402454d8     imgui.obj
 0003:0000d510       ??_C@_1HI@MIOLBHIM@?$AA?$CI?$AAg?$AA?4?$AAW?$AAi?$AAt?$AAh?$AAi?$AAn?$AAE?$AAn?$AAd?$AAC?$AAh?$AAi?$AAl?$AAd?$AA?$CJ?$AA?5?$AA?$CG?$AA?$CG?$AA?5?$AA?$CC?$AAM?$AAu?$AAs?$AAt?$AA?5?$AAc?$AAa?$AAl?$AAl@ 0000000140245510     imgui.obj
 0003:0000d5a0       ??_C@_1DK@MAFHBAAP@?$AAw?$AAi?$AAn?$AAd?$AAo?$AAw?$AA?5?$AA?$DN?$AA?$DN?$AA?5?$AAw?$AAi?$AAn?$AAd?$AAo?$AAw?$AA?9?$AA?$DO?$AAR?$AAo?$AAo?$AAt?$AAW?$AAi?$AAn?$AAd?$AAo?$AAw?$AA?$AA@ 00000001402455a0     imgui.obj
 0003:0000d5f0       ??_C@_1FC@LPBCMIDE@?$AAg?$AA?4?$AAW?$AAi?$AAn?$AAd?$AAo?$AAw?$AAs?$AAF?$AAo?$AAc?$AAu?$AAs?$AAO?$AAr?$AAd?$AAe?$AAr?$AA?$FL?$AAc?$AAu?$AAr?$AA_?$AAo?$AAr?$AAd?$AAe?$AAr?$AA?$FN?$AA?5?$AA?$DN@ 00000001402455f0     imgui.obj
 0003:0000d660       ??_C@_1FA@BPAOPAIC@?$AAg?$AA?4?$AAW?$AAi?$AAn?$AAd?$AAo?$AAw?$AAs?$AAF?$AAo?$AAc?$AAu?$AAs?$AAO?$AAr?$AAd?$AAe?$AAr?$AA?$FL?$AAn?$AA?$FN?$AA?9?$AA?$DO?$AAF?$AAo?$AAc?$AAu?$AAs?$AAO?$AAr?$AAd@ 0000000140245660     imgui.obj
 0003:0000d6c0       ??_C@_1EE@NNHJDCPJ@?$AAw?$AAi?$AAn?$AAd?$AAo?$AAw?$AA?5?$AA?$CB?$AA?$DN?$AA?5?$AA0?$AA?5?$AA?$CG?$AA?$CG?$AA?5?$AAb?$AAe?$AAh?$AAi?$AAn?$AAd?$AA_?$AAw?$AAi?$AAn?$AAd?$AAo?$AAw?$AA?5?$AA?$CB?$AA?$DN?$AA?5@ 00000001402456c0     imgui.obj
 0003:0000d720       ??_C@_1EO@CDDKCBBF@?$AAw?$AAi?$AAn?$AAd?$AAo?$AAw?$AA?5?$AA?$DN?$AA?$DN?$AA?5?$AA0?$AA?5?$AA?$HM?$AA?$HM?$AA?5?$AAw?$AAi?$AAn?$AAd?$AAo?$AAw?$AA?9?$AA?$DO?$AAR?$AAo?$AAo?$AAt?$AAW?$AAi?$AAn?$AAd?$AAo@ 0000000140245720     imgui.obj
 0003:0000d780       ??_C@_1DC@JABAIOEL@?$AAf?$AAo?$AAn?$AAt?$AA?5?$AA?$CG?$AA?$CG?$AA?5?$AAf?$AAo?$AAn?$AAt?$AA?9?$AA?$DO?$AAI?$AAs?$AAL?$AAo?$AAa?$AAd?$AAe?$AAd?$AA?$CI?$AA?$CJ?$AA?$AA@ 0000000140245780     imgui.obj
 0003:0000d7c0       ??_C@_1CG@FNLEAELN@?$AAf?$AAo?$AAn?$AAt?$AA?9?$AA?$DO?$AAS?$AAc?$AAa?$AAl?$AAe?$AA?5?$AA?$DO?$AA?5?$AA0?$AA?4?$AA0?$AAf?$AA?$AA@ 00000001402457c0     imgui.obj
 0003:0000d7f0       ??_C@_1EM@MHLLLNGK@?$AAi?$AAt?$AAe?$AAm?$AA_?$AAf?$AAl?$AAa?$AAg?$AAs?$AA?5?$AA?$DN?$AA?$DN?$AA?5?$AAg?$AA?4?$AAI?$AAt?$AAe?$AAm?$AAF?$AAl?$AAa?$AAg?$AAs?$AAS?$AAt?$AAa?$AAc?$AAk?$AA?4?$AAb@ 00000001402457f0     imgui.obj
 0003:0000d850       ??_C@_1DE@LBPOLBMJ@?$AAg?$AA?4?$AAI?$AAt?$AAe?$AAm?$AAF?$AAl?$AAa?$AAg?$AAs?$AAS?$AAt?$AAa?$AAc?$AAk?$AA?4?$AAS?$AAi?$AAz?$AAe?$AA?5?$AA?$DO?$AA?5?$AA1?$AA?$AA@ 0000000140245850     imgui.obj
 0003:0000d890       ??_C@_1DA@JJNGNPHA@?$AAg?$AA?4?$AAD?$AAi?$AAs?$AAa?$AAb?$AAl?$AAe?$AAd?$AAS?$AAt?$AAa?$AAc?$AAk?$AAS?$AAi?$AAz?$AAe?$AA?5?$AA?$DO?$AA?5?$AA0?$AA?$AA@ 0000000140245890     imgui.obj
 0003:0000d8d0       ??_C@_1LK@HAPNCELK@?$AA?$CI?$AAf?$AAl?$AAa?$AAg?$AAs?$AA?5?$AA?$CG?$AA?5?$AA?$CI?$AAI?$AAm?$AAG?$AAu?$AAi?$AAH?$AAo?$AAv?$AAe?$AAr?$AAe?$AAd?$AAF?$AAl?$AAa?$AAg?$AAs?$AA_?$AAA?$AAl?$AAl?$AAo@ 00000001402458d0     imgui.obj
 0003:0000d9b0       ??_C@_1BG@OMKEHJNN@?$AAc?$AAu?$AAr?$AA_?$AAw?$AAi?$AAn?$AAd?$AAo?$AAw?$AA?$AA@ 00000001402459b0     imgui.obj
 0003:0000d9d0       ??_C@_1EE@PBEDMJFL@?$AAc?$AAo?$AAn?$AAd?$AA?5?$AA?$DN?$AA?$DN?$AA?5?$AA0?$AA?5?$AA?$HM?$AA?$HM?$AA?5?$AAI?$AAm?$AAI?$AAs?$AAP?$AAo?$AAw?$AAe?$AAr?$AAO?$AAf?$AAT?$AAw?$AAo?$AA?$CI?$AAc?$AAo?$AAn?$AAd@ 00000001402459d0     imgui.obj
 0003:0000da28       ??_C@_1DO@GKCJBPLO@?$AAw?$AAi?$AAn?$AAd?$AAo?$AAw?$AA?9?$AA?$DO?$AAH?$AAi?$AAt?$AAT?$AAe?$AAs?$AAt?$AAH?$AAo?$AAl?$AAe?$AAS?$AAi?$AAz?$AAe?$AA?4?$AAx?$AA?5?$AA?$DN?$AA?$DN?$AA?5?$AA0?$AA?$AA@ 0000000140245a28     imgui.obj
 0003:0000da78       ??_C@_1BK@JIIMNACC@?$AAs?$AAc?$AAa?$AAl?$AAe?$AA?5?$AA?$DO?$AA?5?$AA0?$AA?4?$AA0?$AAf?$AA?$AA@ 0000000140245a78     imgui.obj
 0003:0000da98       ??_C@_1DG@FEBJKFDF@?$AAg?$AA?4?$AAF?$AAo?$AAc?$AAu?$AAs?$AAS?$AAc?$AAo?$AAp?$AAe?$AAS?$AAt?$AAa?$AAc?$AAk?$AA?4?$AAS?$AAi?$AAz?$AAe?$AA?5?$AA?$DO?$AA?5?$AA0?$AA?$AA@ 0000000140245a98     imgui.obj
 0003:0000dad8       ??_C@_1BK@BEOECDF@?$AAo?$AAf?$AAf?$AAs?$AAe?$AAt?$AA?5?$AA?$DO?$AA?$DN?$AA?5?$AA?9?$AA1?$AA?$AA@ 0000000140245ad8     imgui.obj
 0003:0000daf8       ??_C@_0CJ@HBEFDIPK@SetKeyboardFocusHere?$CI?$CFd?$CJ?5in?5wind@ 0000000140245af8     imgui.obj
 0003:0000db30       ??_C@_0DG@HEGBDNMN@SetKeyboardFocusHere?$CI?$CJ?5ignored?5w@ 0000000140245b30     imgui.obj
 0003:0000db70       ??_C@_1DC@KOOPJPAL@?$AAw?$AAi?$AAn?$AAd?$AAo?$AAw?$AA?9?$AA?$DO?$AAI?$AAD?$AAS?$AAt?$AAa?$AAc?$AAk?$AA?4?$AAS?$AAi?$AAz?$AAe?$AA?5?$AA?$DO?$AA?5?$AA1?$AA?$AA@ 0000000140245b70     imgui.obj
 0003:0000dbb0       ??_C@_1FA@ELJMCEOI@?$AAk?$AAe?$AAy?$AA?5?$AA?$DO?$AA?$DN?$AA?5?$AA0?$AA?5?$AA?$CG?$AA?$CG?$AA?5?$AAk?$AAe?$AAy?$AA?5?$AA?$DM?$AA?5?$AAI?$AAm?$AAG?$AAu?$AAi?$AAK?$AAe?$AAy?$AA_?$AAN?$AAa?$AAm?$AAe?$AAd@ 0000000140245bb0     imgui.obj
 0003:0000dc10       ??_C@_03HPADHAHE@N?1A?$AA@ 0000000140245c10     imgui.obj
 0003:0000dc20       ??_C@_1EK@OPPAIMOD@?$AAI?$AAs?$AAN?$AAa?$AAm?$AAe?$AAd?$AAK?$AAe?$AAy?$AA?$CI?$AA?$CI?$AAI?$AAm?$AAG?$AAu?$AAi?$AAK?$AAe?$AAy?$AA?$CJ?$AAi?$AAo?$AA?4?$AAK?$AAe?$AAy?$AAM?$AAa?$AAp?$AA?$FL?$AAk@ 0000000140245c20     imgui.obj
 0003:0000dc78       ??_C@_04OHJIHAFH@None?$AA@ 0000000140245c78     imgui.obj
 0003:0000dc80       ??_C@_04NGGMJLDA@Cmd?$CL?$AA@ 0000000140245c80     imgui.obj
 0003:0000dc88       ??_C@_06PPGOOJHA@Super?$CL?$AA@ 0000000140245c88     imgui.obj
 0003:0000dc90       ??_C@_04IDGAMEF@Alt?$CL?$AA@ 0000000140245c90     imgui.obj
 0003:0000dc98       ??_C@_06DLOONOJK@Shift?$CL?$AA@ 0000000140245c98     imgui.obj
 0003:0000dca0       ??_C@_05DNCIMHKL@Ctrl?$CL?$AA@ 0000000140245ca0     imgui.obj
 0003:0000dca8       ??_C@_0L@MOHIGKOO@?$CFs?$CFs?$CFs?$CFs?$CFs?$AA@ 0000000140245ca8     imgui.obj
 0003:0000dcb8       ??_C@_1CC@DCDPKJP@?$AAn?$AAe?$AAx?$AAt?$AA_?$AAs?$AAc?$AAo?$AAr?$AAe?$AA?5?$AA?$DM?$AA?5?$AA2?$AA5?$AA5?$AA?$AA@ 0000000140245cb8     imgui.obj
 0003:0000dce0       ??_C@_1GG@NENLELII@?$AAI?$AAm?$AAI?$AAs?$AAP?$AAo?$AAw?$AAe?$AAr?$AAO?$AAf?$AAT?$AAw?$AAo?$AA?$CI?$AAf?$AAl?$AAa?$AAg?$AAs?$AA?5?$AA?$CG?$AA?5?$AAI?$AAm?$AAG?$AAu?$AAi?$AAI?$AAn?$AAp?$AAu@ 0000000140245ce0     imgui.obj
 0003:0000dd60       ??_C@_1HA@DEMINBMK@?$AA?$CI?$AAf?$AAl?$AAa?$AAg?$AAs?$AA?5?$AA?$CG?$AA?5?$AA?$HO?$AAI?$AAm?$AAG?$AAu?$AAi?$AAI?$AAn?$AAp?$AAu?$AAt?$AAF?$AAl?$AAa?$AAg?$AAs?$AA_?$AAS?$AAu?$AAp?$AAp?$AAo?$AAr@ 0000000140245d60     imgui.obj
 0003:0000ddf0       ??_C@_1KI@IKDPMEHK@?$AAb?$AAu?$AAt?$AAt?$AAo?$AAn?$AA?5?$AA?$DO?$AA?$DN?$AA?5?$AA0?$AA?5?$AA?$CG?$AA?$CG?$AA?5?$AAb?$AAu?$AAt?$AAt?$AAo?$AAn?$AA?5?$AA?$DM?$AA?5?$AA?$CI?$AA?$CI?$AAi?$AAn?$AAt?$AA?$CJ?$AA?$CI?$AAs@ 0000000140245df0     imgui.obj
 0003:0000dec0       ??_C@_1BI@DLHMADOF@?$AAG?$AAI?$AAm?$AAG?$AAu?$AAi?$AA?5?$AA?$CB?$AA?$DN?$AA?5?$AA0?$AA?$AA@ 0000000140245ec0     imgui.obj
 0003:0000dee0       ??_C@_1CO@KHMOHOBE@?$AAI?$AAm?$AAG?$AAu?$AAi?$AA?3?$AA?3?$AAI?$AAs?$AAA?$AAl?$AAi?$AAa?$AAs?$AAK?$AAe?$AAy?$AA?$CI?$AAk?$AAe?$AAy?$AA?$CJ?$AA?$AA@ 0000000140245ee0     imgui.obj
 0003:0000df20       ??_C@_1BFG@FMPGODCB@?$AA?$CI?$AAi?$AAo?$AA?4?$AAK?$AAe?$AAy?$AAs?$AAD?$AAo?$AAw?$AAn?$AA?$FL?$AAn?$AA?$FN?$AA?5?$AA?$DN?$AA?$DN?$AA?5?$AAf?$AAa?$AAl?$AAs?$AAe?$AA?5?$AA?$HM?$AA?$HM?$AA?5?$AAI?$AAs?$AAK?$AAe@ 0000000140245f20     imgui.obj
 0003:0000e0c0       ??_C@_0DG@HIBMCFCI@Backend?5is?5not?5allowed?5to?5write?5@ 00000001402460c0     imgui.obj
 0003:0000e100       ??_C@_1KA@FBPFEPKB@?$AAg?$AA?4?$AAI?$AAO?$AA?4?$AAK?$AAe?$AAy?$AAM?$AAa?$AAp?$AA?$FL?$AAn?$AA?$FN?$AA?5?$AA?$DN?$AA?$DN?$AA?5?$AA?9?$AA1?$AA?5?$AA?$CG?$AA?$CG?$AA?5?$AA?$CC?$AAB?$AAa?$AAc?$AAk?$AAe?$AAn?$AAd@ 0000000140246100     imgui.obj
 0003:0000e1c0       ??_C@_1EI@LPLLBOEH@?$AAI?$AAs?$AAL?$AAe?$AAg?$AAa?$AAc?$AAy?$AAK?$AAe?$AAy?$AA?$CI?$AA?$CI?$AAI?$AAm?$AAG?$AAu?$AAi?$AAK?$AAe?$AAy?$AA?$CJ?$AAi?$AAo?$AA?4?$AAK?$AAe?$AAy?$AAM?$AAa?$AAp?$AA?$FL@ 00000001402461c0     imgui.obj
 0003:0000e220       ??_C@_1EM@LGGOAEHP@?$AAi?$AAo?$AA?4?$AAK?$AAe?$AAy?$AAM?$AAa?$AAp?$AA?$FL?$AAn?$AA?$FN?$AA?5?$AA?$DN?$AA?$DN?$AA?5?$AA?9?$AA1?$AA?5?$AA?$HM?$AA?$HM?$AA?5?$AAI?$AAs?$AAN?$AAa?$AAm?$AAe?$AAd?$AAK?$AAe?$AAy@ 0000000140246220     imgui.obj
 0003:0000e27c       ??_C@_04HIBGFPH@NULL?$AA@  000000014024627c     imgui.obj
 0003:0000e288       ??_C@_0BL@JLLLOAEH@LockWheelingWindow?$CI?$CJ?5?$CC?$CFs?$CC?6?$AA@ 0000000140246288     imgui.obj
 0003:0000e2a8       ??_C@_05PEEFLODH@Mouse?$AA@ 00000001402462a8     imgui.obj
 0003:0000e2b0       ??_C@_08CPOKIBJK@Keyboard?$AA@ 00000001402462b0     imgui.obj
 0003:0000e2c0       ??_C@_07FCEHOHKC@Gamepad?$AA@ 00000001402462c0     imgui.obj
 0003:0000e2cc       ??_C@_03JFAAHAIK@Nav?$AA@  00000001402462cc     imgui.obj
 0003:0000e2d0       ??_C@_09HLEDPOBH@Clipboard?$AA@ 00000001402462d0     imgui.obj
 0003:0000e2e0       ??_C@_1BCA@FPIIAONE@?$AA?$CI?$AA?$CI?$AAi?$AAn?$AAt?$AA?$CJ?$AA?$CI?$AAs?$AAi?$AAz?$AAe?$AAo?$AAf?$AA?$CI?$AAi?$AAn?$AAp?$AAu?$AAt?$AA_?$AAs?$AAo?$AAu?$AAr?$AAc?$AAe?$AA_?$AAn?$AAa?$AAm?$AAe?$AAs@ 00000001402462e0     imgui.obj
 0003:0000e440       ??_C@_0CD@LELIKCBN@?$CFs?3?5MousePos?5?$CI?9FLT_MAX?0?5?9FLT_MAX@ 0000000140246440     imgui.obj
 0003:0000e470       ??_C@_0BL@MGABEGBA@?$CFs?3?5MousePos?5?$CI?$CF?41f?0?5?$CF?41f?$CJ?6?$AA@ 0000000140246470     imgui.obj
 0003:0000e490       ??_C@_04FNCLCJMC@Down?$AA@ 0000000140246490     imgui.obj
 0003:0000e498       ??_C@_02EFPGLDEA@Up?$AA@   0000000140246498     imgui.obj
 0003:0000e4a0       ??_C@_0BH@GKKCHOFG@?$CFs?3?5MouseButton?5?$CFd?5?$CFs?6?$AA@ 00000001402464a0     imgui.obj
 0003:0000e4c0       ??_C@_0BN@HFCBLHOI@?$CFs?3?5MouseWheel?5?$CI?$CF?43f?0?5?$CF?43f?$CJ?6?$AA@ 00000001402464c0     imgui.obj
 0003:0000e4e8       ??_C@_0BB@CMPIMPGB@?$CFs?3?5Key?5?$CC?$CFs?$CC?5?$CFs?6?$AA@ 00000001402464e8     imgui.obj
 0003:0000e500       ??_C@_0BH@OGDHKMOD@?$CFs?3?5Text?3?5?$CFc?5?$CIU?$CL?$CF08X?$CJ?6?$AA@ 0000000140246500     imgui.obj
 0003:0000e520       ??_C@_0BD@DGNDOOOH@?$CFs?3?5AppFocused?5?$CFd?6?$AA@ 0000000140246520     imgui.obj
 0003:0000e538       ??_C@_1CK@FEMPCNOI@?$AAk?$AAe?$AAy?$AA?5?$AA?$CB?$AA?$DN?$AA?5?$AAI?$AAm?$AAG?$AAu?$AAi?$AAK?$AAe?$AAy?$AA_?$AAN?$AAo?$AAn?$AAe?$AA?$AA@ 0000000140246538     imgui.obj
 0003:0000e570       ??_C@_1CM@EMIHFHMN@?$AA0?$AA?5?$AA?$CG?$AA?$CG?$AA?5?$AA?$CC?$AAU?$AAn?$AAk?$AAn?$AAo?$AAw?$AAn?$AA?5?$AAe?$AAv?$AAe?$AAn?$AAt?$AA?$CB?$AA?$CC?$AA?$AA@ 0000000140246570     imgui.obj
 0003:0000e5a8       ??_C@_09BIONLCBB@Processed?$AA@ 00000001402465a8     imgui.obj
 0003:0000e5b8       ??_C@_09PGGNMDFB@Remaining?$AA@ 00000001402465b8     imgui.obj
 0003:0000e5d0       ??_C@_1BAM@IDBKCLPK@?$AAI?$AAs?$AAN?$AAa?$AAm?$AAe?$AAd?$AAK?$AAe?$AAy?$AAO?$AAr?$AAM?$AAo?$AAd?$AAK?$AAe?$AAy?$AA?$CI?$AAk?$AAe?$AAy?$AA?$CJ?$AA?5?$AA?$CG?$AA?$CG?$AA?5?$AA?$CI?$AAo?$AAw?$AAn?$AAe@ 00000001402465d0     imgui.obj
 0003:0000e720       ??_C@_1GO@PDOEELEG@?$AA?$CI?$AAf?$AAl?$AAa?$AAg?$AAs?$AA?5?$AA?$CG?$AA?5?$AA?$HO?$AAI?$AAm?$AAG?$AAu?$AAi?$AAI?$AAn?$AAp?$AAu?$AAt?$AAF?$AAl?$AAa?$AAg?$AAs?$AA_?$AAS?$AAu?$AAp?$AAp?$AAo?$AAr@ 0000000140246720     imgui.obj
 0003:0000e7b0       ??_C@_1HG@JNGFACEO@?$AA?$CI?$AAf?$AAl?$AAa?$AAg?$AAs?$AA?5?$AA?$CG?$AA?5?$AA?$HO?$AAI?$AAm?$AAG?$AAu?$AAi?$AAI?$AAn?$AAp?$AAu?$AAt?$AAF?$AAl?$AAa?$AAg?$AAs?$AA_?$AAS?$AAu?$AAp?$AAp?$AAo?$AAr@ 00000001402467b0     imgui.obj
 0003:0000e840       ??_C@_1GI@LJFFCJDI@?$AA?$CI?$AAf?$AAl?$AAa?$AAg?$AAs?$AA?5?$AA?$CG?$AA?5?$AA?$HO?$AAI?$AAm?$AAG?$AAu?$AAi?$AAI?$AAn?$AAp?$AAu?$AAt?$AAF?$AAl?$AAa?$AAg?$AAs?$AA_?$AAS?$AAu?$AAp?$AAp?$AAo?$AAr@ 0000000140246840     imgui.obj
 0003:0000e8c0       ??_C@_0BL@NJMNENPC@Mismatched?5version?5string?$CB?$AA@ 00000001402468c0     imgui.obj
 0003:0000e8e0       ??_C@_1IG@FIGCMBME@?$AAs?$AAt?$AAr?$AAc?$AAm?$AAp?$AA?$CI?$AAv?$AAe?$AAr?$AAs?$AAi?$AAo?$AAn?$AA?0?$AA?5?$AA?$CC?$AA1?$AA?4?$AA8?$AA9?$AA?4?$AA3?$AA?5?$AAW?$AAI?$AAP?$AA?$CC?$AA?$CJ?$AA?5?$AA?$DN?$AA?$DN@ 00000001402468e0     imgui.obj
 0003:0000e980       ??_C@_0BK@FMAIDOGC@Mismatched?5struct?5layout?$CB?$AA@ 0000000140246980     imgui.obj
 0003:0000e9a0       ??_C@_1HA@BDEJLFJB@?$AAs?$AAz?$AA_?$AAi?$AAo?$AA?5?$AA?$DN?$AA?$DN?$AA?5?$AAs?$AAi?$AAz?$AAe?$AAo?$AAf?$AA?$CI?$AAI?$AAm?$AAG?$AAu?$AAi?$AAI?$AAO?$AA?$CJ?$AA?5?$AA?$CG?$AA?$CG?$AA?5?$AA?$CC?$AAM?$AAi?$AAs@ 00000001402469a0     imgui.obj
 0003:0000ea30       ??_C@_1HM@KECEGJKN@?$AAs?$AAz?$AA_?$AAs?$AAt?$AAy?$AAl?$AAe?$AA?5?$AA?$DN?$AA?$DN?$AA?5?$AAs?$AAi?$AAz?$AAe?$AAo?$AAf?$AA?$CI?$AAI?$AAm?$AAG?$AAu?$AAi?$AAS?$AAt?$AAy?$AAl?$AAe?$AA?$CJ?$AA?5?$AA?$CG@ 0000000140246a30     imgui.obj
 0003:0000ead0       ??_C@_1HC@KAEGCKOM@?$AAs?$AAz?$AA_?$AAv?$AAe?$AAc?$AA2?$AA?5?$AA?$DN?$AA?$DN?$AA?5?$AAs?$AAi?$AAz?$AAe?$AAo?$AAf?$AA?$CI?$AAI?$AAm?$AAV?$AAe?$AAc?$AA2?$AA?$CJ?$AA?5?$AA?$CG?$AA?$CG?$AA?5?$AA?$CC?$AAM?$AAi@ 0000000140246ad0     imgui.obj
 0003:0000eb60       ??_C@_1HC@CFCKCFEN@?$AAs?$AAz?$AA_?$AAv?$AAe?$AAc?$AA4?$AA?5?$AA?$DN?$AA?$DN?$AA?5?$AAs?$AAi?$AAz?$AAe?$AAo?$AAf?$AA?$CI?$AAI?$AAm?$AAV?$AAe?$AAc?$AA4?$AA?$CJ?$AA?5?$AA?$CG?$AA?$CG?$AA?5?$AA?$CC?$AAM?$AAi@ 0000000140246b60     imgui.obj
 0003:0000ebf0       ??_C@_1HK@HMLAJPFG@?$AAs?$AAz?$AA_?$AAv?$AAe?$AAr?$AAt?$AA?5?$AA?$DN?$AA?$DN?$AA?5?$AAs?$AAi?$AAz?$AAe?$AAo?$AAf?$AA?$CI?$AAI?$AAm?$AAD?$AAr?$AAa?$AAw?$AAV?$AAe?$AAr?$AAt?$AA?$CJ?$AA?5?$AA?$CG?$AA?$CG@ 0000000140246bf0     imgui.obj
 0003:0000ec90       ??_C@_1HG@IIMLENED@?$AAs?$AAz?$AA_?$AAi?$AAd?$AAx?$AA?5?$AA?$DN?$AA?$DN?$AA?5?$AAs?$AAi?$AAz?$AAe?$AAo?$AAf?$AA?$CI?$AAI?$AAm?$AAD?$AAr?$AAa?$AAw?$AAI?$AAd?$AAx?$AA?$CJ?$AA?5?$AA?$CG?$AA?$CG?$AA?5?$AA?$CC@ 0000000140246c90     imgui.obj
 0003:0000ed20       ??_C@_1CI@DDBIANLG@?$AAw?$AAi?$AAn?$AAd?$AAo?$AAw?$AA?9?$AA?$DO?$AAD?$AAC?$AA?4?$AAI?$AAs?$AAS?$AAe?$AAt?$AAP?$AAo?$AAs?$AA?$AA@ 0000000140246d20     imgui.obj
 0003:0000ed50       ??_C@_0BL@INIAEKJF@Need?5a?5positive?5DeltaTime?$CB?$AA@ 0000000140246d50     imgui.obj
 0003:0000ed70       ??_C@_1JK@GMCNDFJ@?$AA?$CI?$AAg?$AA?4?$AAI?$AAO?$AA?4?$AAD?$AAe?$AAl?$AAt?$AAa?$AAT?$AAi?$AAm?$AAe?$AA?5?$AA?$DO?$AA?5?$AA0?$AA?4?$AA0?$AAf?$AA?5?$AA?$HM?$AA?$HM?$AA?5?$AAg?$AA?4?$AAF?$AAr?$AAa?$AAm@ 0000000140246d70     imgui.obj
 0003:0000ee30       ??_C@_0EI@GHMDJNFG@Forgot?5to?5call?5Render?$CI?$CJ?5or?5EndFr@ 0000000140246e30     imgui.obj
 0003:0000ee90       ??_C@_1BAM@KGEBLPLP@?$AA?$CI?$AAg?$AA?4?$AAF?$AAr?$AAa?$AAm?$AAe?$AAC?$AAo?$AAu?$AAn?$AAt?$AA?5?$AA?$DN?$AA?$DN?$AA?5?$AA0?$AA?5?$AA?$HM?$AA?$HM?$AA?5?$AAg?$AA?4?$AAF?$AAr?$AAa?$AAm?$AAe?$AAC?$AAo?$AAu@ 0000000140246e90     imgui.obj
 0003:0000efd8       ??_C@_0BL@LDNBLEGM@Invalid?5DisplaySize?5value?$CB?$AA@ 0000000140246fd8     imgui.obj
 0003:0000f000       ??_C@_1LC@PGGPGCKP@?$AAg?$AA?4?$AAI?$AAO?$AA?4?$AAD?$AAi?$AAs?$AAp?$AAl?$AAa?$AAy?$AAS?$AAi?$AAz?$AAe?$AA?4?$AAx?$AA?5?$AA?$DO?$AA?$DN?$AA?5?$AA0?$AA?4?$AA0?$AAf?$AA?5?$AA?$CG?$AA?$CG?$AA?5?$AAg?$AA?4@ 0000000140247000     imgui.obj
 0003:0000f0e0       ??_C@_0KM@BGIGOFPN@Font?5Atlas?5not?5built?$CB?5Make?5sure?5@ 00000001402470e0     imgui.obj
 0003:0000f1b0       ??_C@_1BIO@NEOCPKAM@?$AAg?$AA?4?$AAI?$AAO?$AA?4?$AAF?$AAo?$AAn?$AAt?$AAs?$AA?9?$AA?$DO?$AAI?$AAs?$AAB?$AAu?$AAi?$AAl?$AAt?$AA?$CI?$AA?$CJ?$AA?5?$AA?$CG?$AA?$CG?$AA?5?$AA?$CC?$AAF?$AAo?$AAn?$AAt?$AA?5?$AAA@ 00000001402471b0     imgui.obj
 0003:0000f390       ??_C@_0BH@EAJIBGFB@Invalid?5style?5setting?$CB?$AA@ 0000000140247390     imgui.obj
 0003:0000f3b0       ??_C@_1IA@HHCKGFKM@?$AAg?$AA?4?$AAS?$AAt?$AAy?$AAl?$AAe?$AA?4?$AAC?$AAu?$AAr?$AAv?$AAe?$AAT?$AAe?$AAs?$AAs?$AAe?$AAl?$AAl?$AAa?$AAt?$AAi?$AAo?$AAn?$AAT?$AAo?$AAl?$AA?5?$AA?$DO?$AA?5?$AA0@ 00000001402473b0     imgui.obj
 0003:0000f450       ??_C@_1IM@BBAKCECH@?$AAg?$AA?4?$AAS?$AAt?$AAy?$AAl?$AAe?$AA?4?$AAC?$AAi?$AAr?$AAc?$AAl?$AAe?$AAT?$AAe?$AAs?$AAs?$AAe?$AAl?$AAl?$AAa?$AAt?$AAi?$AAo?$AAn?$AAM?$AAa?$AAx?$AAE?$AAr?$AAr@ 0000000140247450     imgui.obj
 0003:0000f500       ??_C@_1JG@HBCMMEC@?$AAg?$AA?4?$AAS?$AAt?$AAy?$AAl?$AAe?$AA?4?$AAA?$AAl?$AAp?$AAh?$AAa?$AA?5?$AA?$DO?$AA?$DN?$AA?5?$AA0?$AA?4?$AA0?$AAf?$AA?5?$AA?$CG?$AA?$CG?$AA?5?$AAg?$AA?4?$AAS?$AAt?$AAy?$AAl?$AAe@ 0000000140247500     imgui.obj
 0003:0000f5b8       ??_C@_0BH@MHAAAKJO@Invalid?5style?5setting?4?$AA@ 00000001402475b8     imgui.obj
 0003:0000f5e0       ??_C@_1LO@BODAGONP@?$AAg?$AA?4?$AAS?$AAt?$AAy?$AAl?$AAe?$AA?4?$AAW?$AAi?$AAn?$AAd?$AAo?$AAw?$AAM?$AAi?$AAn?$AAS?$AAi?$AAz?$AAe?$AA?4?$AAx?$AA?5?$AA?$DO?$AA?$DN?$AA?5?$AA1?$AA?4?$AA0?$AAf?$AA?5@ 00000001402475e0     imgui.obj
 0003:0000f6d0       ??_C@_1BDK@FANHHEDI@?$AAg?$AA?4?$AAS?$AAt?$AAy?$AAl?$AAe?$AA?4?$AAW?$AAi?$AAn?$AAd?$AAo?$AAw?$AAM?$AAe?$AAn?$AAu?$AAB?$AAu?$AAt?$AAt?$AAo?$AAn?$AAP?$AAo?$AAs?$AAi?$AAt?$AAi?$AAo?$AAn@ 00000001402476d0     imgui.obj
 0003:0000f850       ??_C@_1LM@JKIDKAMC@?$AAg?$AA?4?$AAS?$AAt?$AAy?$AAl?$AAe?$AA?4?$AAC?$AAo?$AAl?$AAo?$AAr?$AAB?$AAu?$AAt?$AAt?$AAo?$AAn?$AAP?$AAo?$AAs?$AAi?$AAt?$AAi?$AAo?$AAn?$AA?5?$AA?$DN?$AA?$DN?$AA?5?$AAI@ 0000000140247850     imgui.obj
 0003:0000f940       ??_C@_0FH@LOBECBNC@io?4KeyMap?$FL?$FN?5contains?5an?5out?5of?5b@ 0000000140247940     imgui.obj
 0003:0000f9b0       ??_C@_1BBC@FEJJJDOL@?$AAg?$AA?4?$AAI?$AAO?$AA?4?$AAK?$AAe?$AAy?$AAM?$AAa?$AAp?$AA?$FL?$AAn?$AA?$FN?$AA?5?$AA?$DO?$AA?$DN?$AA?5?$AA?9?$AA1?$AA?5?$AA?$CG?$AA?$CG?$AA?5?$AAg?$AA?4?$AAI?$AAO?$AA?4?$AAK?$AAe?$AAy@ 00000001402479b0     imgui.obj
 0003:0000fb00       ??_C@_0EA@IDFJHFOM@ImGuiKey_Space?5is?5not?5mapped?0?5re@ 0000000140247b00     imgui.obj
 0003:0000fb50       ??_C@_1MO@ONPFNFPJ@?$AAg?$AA?4?$AAI?$AAO?$AA?4?$AAK?$AAe?$AAy?$AAM?$AAa?$AAp?$AA?$FL?$AAI?$AAm?$AAG?$AAu?$AAi?$AAK?$AAe?$AAy?$AA_?$AAS?$AAp?$AAa?$AAc?$AAe?$AA?$FN?$AA?5?$AA?$CB?$AA?$DN?$AA?5?$AA?9@ 0000000140247b50     imgui.obj
 0003:0000fc50       ??_C@_0EH@IKLAPCIG@Mismatching?5io?4KeyCtrl?1io?4KeyShi@ 0000000140247c50     imgui.obj
 0003:0000fcb0       ??_C@_1PA@LCIAGPIP@?$AA?$CI?$AAk?$AAe?$AAy?$AA_?$AAm?$AAo?$AAd?$AAs?$AA?5?$AA?$DN?$AA?$DN?$AA?5?$AA0?$AA?5?$AA?$HM?$AA?$HM?$AA?5?$AAg?$AA?4?$AAI?$AAO?$AA?4?$AAK?$AAe?$AAy?$AAM?$AAo?$AAd?$AAs?$AA?5?$AA?$DN@ 0000000140247cb0     imgui.obj
 0003:0000fdd0       ??_C@_0FI@LNDFABED@Mismatched?5Begin?1BeginChild?5vs?5E@ 0000000140247dd0     imgui.obj
 0003:0000fe40       ??_C@_1PM@PNPJAGAO@?$AA?$CI?$AAg?$AA?4?$AAC?$AAu?$AAr?$AAr?$AAe?$AAn?$AAt?$AAW?$AAi?$AAn?$AAd?$AAo?$AAw?$AAS?$AAt?$AAa?$AAc?$AAk?$AA?4?$AAS?$AAi?$AAz?$AAe?$AA?5?$AA?$DN?$AA?$DN?$AA?5?$AA1?$AA?$CJ@ 0000000140247e40     imgui.obj
 0003:0000ff70       ??_C@_0FH@BPHEKLEJ@Mismatched?5Begin?1BeginChild?5vs?5E@ 0000000140247f70     imgui.obj
 0003:0000ffe0       ??_C@_1PK@KPEOFHN@?$AA?$CI?$AAg?$AA?4?$AAC?$AAu?$AAr?$AAr?$AAe?$AAn?$AAt?$AAW?$AAi?$AAn?$AAd?$AAo?$AAw?$AAS?$AAt?$AAa?$AAc?$AAk?$AA?4?$AAS?$AAi?$AAz?$AAe?$AA?5?$AA?$DN?$AA?$DN?$AA?5?$AA1?$AA?$CJ@ 0000000140247fe0     imgui.obj
 0003:00010110       ??_C@_0BH@DOAAHNFO@Missing?5EndGroup?5call?$CB?$AA@ 0000000140248110     imgui.obj
 0003:00010130       ??_C@_1GK@BADAAGFG@?$AA?$CI?$AAg?$AA?4?$AAG?$AAr?$AAo?$AAu?$AAp?$AAS?$AAt?$AAa?$AAc?$AAk?$AA?4?$AAS?$AAi?$AAz?$AAe?$AA?5?$AA?$DN?$AA?$DN?$AA?5?$AA0?$AA?$CJ?$AA?5?$AA?$CG?$AA?$CG?$AA?5?$AA?$CC?$AAM?$AAi?$AAs@ 0000000140248130     imgui.obj
 0003:000101b0       ??_C@_1DC@IDCPNCPB@?$AAw?$AAi?$AAn?$AAd?$AAo?$AAw?$AA?9?$AA?$DO?$AAI?$AAs?$AAF?$AAa?$AAl?$AAl?$AAb?$AAa?$AAc?$AAk?$AAW?$AAi?$AAn?$AAd?$AAo?$AAw?$AA?$AA@ 00000001402481b0     imgui.obj
 0003:000101f0       ??_C@_0CL@PKEBJEJO@Recovered?5from?5missing?5EndChild?$CI@ 00000001402481f0     imgui.obj
 0003:00010228       ??_C@_0CG@PCFKFCHL@Recovered?5from?5missing?5End?$CI?$CJ?5for@ 0000000140248228     imgui.obj
 0003:00010258       ??_C@_0CK@MCEMIAFO@Recovered?5from?5missing?5EndTable?$CI@ 0000000140248258     imgui.obj
 0003:00010290       ??_C@_1BI@JFIKNFKH@?$AAw?$AAi?$AAn?$AAd?$AAo?$AAw?$AA?5?$AA?$CB?$AA?$DN?$AA?5?$AA0?$AA?$AA@ 0000000140248290     imgui.obj
 0003:000102b0       ??_C@_0CL@PFJDIEBE@Recovered?5from?5missing?5EndTabBar@ 00000001402482b0     imgui.obj
 0003:000102e8       ??_C@_0CJ@OIELACHL@Recovered?5from?5missing?5TreePop?$CI?$CJ@ 00000001402482e8     imgui.obj
 0003:00010320       ??_C@_0CK@EIGPLJIB@Recovered?5from?5missing?5EndGroup?$CI@ 0000000140248320     imgui.obj
 0003:00010358       ??_C@_0CH@CBEJECIE@Recovered?5from?5missing?5PopID?$CI?$CJ?5i@ 0000000140248358     imgui.obj
 0003:00010388       ??_C@_0CN@OIBMKKFF@Recovered?5from?5missing?5EndDisabl@ 0000000140248388     imgui.obj
 0003:000103c0       ??_C@_0DP@GKCPPFKN@Recovered?5from?5missing?5PopStyleC@ 00000001402483c0     imgui.obj
 0003:00010410       ??_C@_0CN@HDGJMJNM@Recovered?5from?5missing?5PopItemFl@ 0000000140248410     imgui.obj
 0003:00010448       ??_C@_0CN@EFPNNJDL@Recovered?5from?5missing?5PopStyleV@ 0000000140248448     imgui.obj
 0003:00010480       ??_C@_0CP@NEGGJCEB@Recovered?5from?5missing?5PopFocusS@ 0000000140248480     imgui.obj
 0003:000104b8       ??_C@_0CL@ILEOFLMG@PushID?1PopID?5or?5TreeNode?1TreePop@ 00000001402484b8     imgui.obj
 0003:000104f0       ??_C@_1KM@GPENMPEF@?$AAS?$AAi?$AAz?$AAe?$AAO?$AAf?$AAI?$AAD?$AAS?$AAt?$AAa?$AAc?$AAk?$AA?5?$AA?$DN?$AA?$DN?$AA?5?$AAw?$AAi?$AAn?$AAd?$AAo?$AAw?$AA?9?$AA?$DO?$AAI?$AAD?$AAS?$AAt?$AAa?$AAc?$AAk@ 00000001402484f0     imgui.obj
 0003:000105c0       ??_C@_0BO@DCHDJEI@BeginGroup?1EndGroup?5Mismatch?$CB?$AA@ 00000001402485c0     imgui.obj
 0003:000105f0       ??_C@_1JC@FNBHEOLL@?$AAS?$AAi?$AAz?$AAe?$AAO?$AAf?$AAG?$AAr?$AAo?$AAu?$AAp?$AAS?$AAt?$AAa?$AAc?$AAk?$AA?5?$AA?$DN?$AA?$DN?$AA?5?$AAg?$AA?4?$AAG?$AAr?$AAo?$AAu?$AAp?$AAS?$AAt?$AAa?$AAc?$AAk@ 00000001402485f0     imgui.obj
 0003:000106a0       ??_C@_0DD@CEJDOFG@BeginPopup?1EndPopup?5or?5BeginMenu@ 00000001402486a0     imgui.obj
 0003:000106e0       ??_C@_1NA@IJOEJOEN@?$AAS?$AAi?$AAz?$AAe?$AAO?$AAf?$AAB?$AAe?$AAg?$AAi?$AAn?$AAP?$AAo?$AAp?$AAu?$AAp?$AAS?$AAt?$AAa?$AAc?$AAk?$AA?5?$AA?$DN?$AA?$DN?$AA?5?$AAg?$AA?4?$AAB?$AAe?$AAg?$AAi?$AAn@ 00000001402486e0     imgui.obj
 0003:000107e0       ??_C@_0CE@POGENMGN@BeginDisabled?1EndDisabled?5Mismat@ 00000001402487e0     imgui.obj
 0003:00010810       ??_C@_1KI@IJCCNMFL@?$AAS?$AAi?$AAz?$AAe?$AAO?$AAf?$AAD?$AAi?$AAs?$AAa?$AAb?$AAl?$AAe?$AAd?$AAS?$AAt?$AAa?$AAc?$AAk?$AA?5?$AA?$DN?$AA?$DN?$AA?5?$AAg?$AA?4?$AAD?$AAi?$AAs?$AAa?$AAb?$AAl?$AAe@ 0000000140248810     imgui.obj
 0003:000108e0       ??_C@_0CD@LPACIFP@PushItemFlag?1PopItemFlag?5Mismatc@ 00000001402488e0     imgui.obj
 0003:00010910       ??_C@_1KM@KDIHIOOG@?$AAS?$AAi?$AAz?$AAe?$AAO?$AAf?$AAI?$AAt?$AAe?$AAm?$AAF?$AAl?$AAa?$AAg?$AAs?$AAS?$AAt?$AAa?$AAc?$AAk?$AA?5?$AA?$DO?$AA?$DN?$AA?5?$AAg?$AA?4?$AAI?$AAt?$AAe?$AAm?$AAF?$AAl@ 0000000140248910     imgui.obj
 0003:000109e0       ??_C@_0CH@CECAGKKJ@PushStyleColor?1PopStyleColor?5Mis@ 00000001402489e0     imgui.obj
 0003:00010a10       ??_C@_1KE@NCANFJNK@?$AAS?$AAi?$AAz?$AAe?$AAO?$AAf?$AAC?$AAo?$AAl?$AAo?$AAr?$AAS?$AAt?$AAa?$AAc?$AAk?$AA?5?$AA?$DO?$AA?$DN?$AA?5?$AAg?$AA?4?$AAC?$AAo?$AAl?$AAo?$AAr?$AAS?$AAt?$AAa?$AAc?$AAk@ 0000000140248a10     imgui.obj
 0003:00010ad8       ??_C@_0CD@DKPEIHNP@PushStyleVar?1PopStyleVar?5Mismatc@ 0000000140248ad8     imgui.obj
 0003:00010b10       ??_C@_1KI@DHADCEOH@?$AAS?$AAi?$AAz?$AAe?$AAO?$AAf?$AAS?$AAt?$AAy?$AAl?$AAe?$AAV?$AAa?$AAr?$AAS?$AAt?$AAa?$AAc?$AAk?$AA?5?$AA?$DO?$AA?$DN?$AA?5?$AAg?$AA?4?$AAS?$AAt?$AAy?$AAl?$AAe?$AAV?$AAa@ 0000000140248b10     imgui.obj
 0003:00010be0       ??_C@_0BL@JNELFKGN@PushFont?1PopFont?5Mismatch?$CB?$AA@ 0000000140248be0     imgui.obj
 0003:00010c00       ??_C@_1II@EKMLEPAG@?$AAS?$AAi?$AAz?$AAe?$AAO?$AAf?$AAF?$AAo?$AAn?$AAt?$AAS?$AAt?$AAa?$AAc?$AAk?$AA?5?$AA?$DO?$AA?$DN?$AA?5?$AAg?$AA?4?$AAF?$AAo?$AAn?$AAt?$AAS?$AAt?$AAa?$AAc?$AAk?$AA?4?$AAS@ 0000000140248c00     imgui.obj
 0003:00010ca8       ??_C@_0CH@BLGIKBOK@PushFocusScope?1PopFocusScope?5Mis@ 0000000140248ca8     imgui.obj
 0003:00010ce0       ??_C@_1LI@DNMDNCBF@?$AAS?$AAi?$AAz?$AAe?$AAO?$AAf?$AAF?$AAo?$AAc?$AAu?$AAs?$AAS?$AAc?$AAo?$AAp?$AAe?$AAS?$AAt?$AAa?$AAc?$AAk?$AA?5?$AA?$DN?$AA?$DN?$AA?5?$AAg?$AA?4?$AAF?$AAo?$AAc?$AAu?$AAs@ 0000000140248ce0     imgui.obj
 0003:00010dc0       ??_C@_0ID@FLOMBDOB@Cannot?5have?5an?5empty?5ID?5at?5the?5r@ 0000000140248dc0     imgui.obj
 0003:00010e60       ??_C@_1BDC@OHDJAFCF@?$AAi?$AAd?$AA?5?$AA?$CB?$AA?$DN?$AA?5?$AAw?$AAi?$AAn?$AAd?$AAo?$AAw?$AA?9?$AA?$DO?$AAI?$AAD?$AA?5?$AA?$CG?$AA?$CG?$AA?5?$AA?$CC?$AAC?$AAa?$AAn?$AAn?$AAo?$AAt?$AA?5?$AAh?$AAa?$AAv?$AAe@ 0000000140248e60     imgui.obj
 0003:00010fd0       ??_C@_1CM@HMCHNBOE@?$AAg?$AA?4?$AAG?$AAr?$AAo?$AAu?$AAp?$AAS?$AAt?$AAa?$AAc?$AAk?$AA?4?$AAS?$AAi?$AAz?$AAe?$AA?5?$AA?$DO?$AA?5?$AA0?$AA?$AA@ 0000000140248fd0     imgui.obj
 0003:00011010       ??_C@_1EE@BNODPOAB@?$AAg?$AAr?$AAo?$AAu?$AAp?$AA_?$AAd?$AAa?$AAt?$AAa?$AA?4?$AAW?$AAi?$AAn?$AAd?$AAo?$AAw?$AAI?$AAD?$AA?5?$AA?$DN?$AA?$DN?$AA?5?$AAw?$AAi?$AAn?$AAd?$AAo?$AAw?$AA?9?$AA?$DO?$AAI@ 0000000140249010     imgui.obj
 0003:00011070       ??_C@_1LE@BJPKKBML@?$AA?$CI?$AAf?$AAl?$AAa?$AAg?$AAs?$AA?5?$AA?$CG?$AA?5?$AAI?$AAm?$AAG?$AAu?$AAi?$AAS?$AAc?$AAr?$AAo?$AAl?$AAl?$AAF?$AAl?$AAa?$AAg?$AAs?$AA_?$AAM?$AAa?$AAs?$AAk?$AAX?$AA_@ 0000000140249070     imgui.obj
 0003:00011150       ??_C@_1LE@EEFOEPJE@?$AA?$CI?$AAf?$AAl?$AAa?$AAg?$AAs?$AA?5?$AA?$CG?$AA?5?$AAI?$AAm?$AAG?$AAu?$AAi?$AAS?$AAc?$AAr?$AAo?$AAl?$AAl?$AAF?$AAl?$AAa?$AAg?$AAs?$AA_?$AAM?$AAa?$AAs?$AAk?$AAY?$AA_@ 0000000140249150     imgui.obj
 0003:00011230       ??_C@_1GC@BIJJIADH@?$AAc?$AAe?$AAn?$AAt?$AAe?$AAr?$AA_?$AAx?$AA_?$AAr?$AAa?$AAt?$AAi?$AAo?$AA?5?$AA?$DO?$AA?$DN?$AA?5?$AA0?$AA?4?$AA0?$AAf?$AA?5?$AA?$CG?$AA?$CG?$AA?5?$AAc?$AAe?$AAn?$AAt?$AAe?$AAr@ 0000000140249230     imgui.obj
 0003:000112b0       ??_C@_1GC@LDEACFFC@?$AAc?$AAe?$AAn?$AAt?$AAe?$AAr?$AA_?$AAy?$AA_?$AAr?$AAa?$AAt?$AAi?$AAo?$AA?5?$AA?$DO?$AA?$DN?$AA?5?$AA0?$AA?4?$AA0?$AAf?$AA?5?$AA?$CG?$AA?$CG?$AA?5?$AAc?$AAe?$AAn?$AAt?$AAe?$AAr@ 00000001402492b0     imgui.obj
 0003:00011328       ??_C@_0P@DHLMFJKK@?$CD?$CDTooltip_?$CF02d?$AA@ 0000000140249328     imgui.obj
 0003:00011340       ??_C@_1HC@IKPEGHCP@?$AAG?$AAe?$AAt?$AAC?$AAu?$AAr?$AAr?$AAe?$AAn?$AAt?$AAW?$AAi?$AAn?$AAd?$AAo?$AAw?$AAR?$AAe?$AAa?$AAd?$AA?$CI?$AA?$CJ?$AA?9?$AA?$DO?$AAF?$AAl?$AAa?$AAg?$AAs?$AA?5?$AA?$CG?$AA?5@ 0000000140249340     imgui.obj
 0003:000113c8       ??_C@_1BA@OHMFOIK@?$AAi?$AAd?$AA?5?$AA?$DN?$AA?$DN?$AA?5?$AA0?$AA?$AA@ 00000001402493c8     imgui.obj
 0003:000113e0       ??_C@_1KI@JIHIJAJC@?$AA0?$AA?5?$AA?$CG?$AA?$CG?$AA?5?$AA?$CC?$AAC?$AAa?$AAn?$AAn?$AAo?$AAt?$AA?5?$AAu?$AAs?$AAe?$AA?5?$AAI?$AAs?$AAP?$AAo?$AAp?$AAu?$AAp?$AAO?$AAp?$AAe?$AAn?$AA?$CI?$AA?$CJ?$AA?5?$AAw@ 00000001402493e0     imgui.obj
 0003:000114b0       ??_C@_0CC@GFIPBLLA@?$FLpopup?$FN?5OpenPopup?$CI?$CC?$CFs?$CC?5?9?$DO?50x?$CF08X@ 00000001402494b0     imgui.obj
 0003:000114d8       ??_C@_0BN@MEGOLGEO@?$FLpopup?$FN?5OpenPopupEx?$CI0x?$CF08X?$CJ?6?$AA@ 00000001402494d8     imgui.obj
 0003:00011500       ??_C@_1GI@FJFNMD@?$AA?$CI?$AAp?$AAo?$AAp?$AAu?$AAp?$AA?4?$AAW?$AAi?$AAn?$AAd?$AAo?$AAw?$AA?9?$AA?$DO?$AAF?$AAl?$AAa?$AAg?$AAs?$AA?5?$AA?$CG?$AA?5?$AAI?$AAm?$AAG?$AAu?$AAi?$AAW?$AAi?$AAn?$AAd@ 0000000140249500     imgui.obj
 0003:0001157c       ??_C@_06CBHGEMFM@?$DMNULL?$DO?$AA@ 000000014024957c     imgui.obj
 0003:00011588       ??_C@_0CF@KJFMKFLJ@?$FLpopup?$FN?5ClosePopupsOverWindow?$CI?$CC?$CF@ 0000000140249588     imgui.obj
 0003:000115c0       ??_C@_0EH@KLKAJAPF@?$FLpopup?$FN?5ClosePopupToLevel?$CI?$CFd?$CJ?0?5r@ 00000001402495c0     imgui.obj
 0003:00011620       ??_C@_1GI@BPADGCJE@?$AAr?$AAe?$AAm?$AAa?$AAi?$AAn?$AAi?$AAn?$AAg?$AA?5?$AA?$DO?$AA?$DN?$AA?5?$AA0?$AA?5?$AA?$CG?$AA?$CG?$AA?5?$AAr?$AAe?$AAm?$AAa?$AAi?$AAn?$AAi?$AAn?$AAg?$AA?5?$AA?$DM?$AA?5?$AAg?$AA?4@ 0000000140249620     imgui.obj
 0003:000116a0       ??_C@_0CE@FCCNCIKM@?$FLpopup?$FN?5CloseCurrentPopup?5?$CFd?5?9?$DO?5@ 00000001402496a0     imgui.obj
 0003:000116d0       ??_C@_0M@NANGKBBK@?$CD?$CDMenu_?$CF02d?$AA@ 00000001402496d0     imgui.obj
 0003:000116e0       ??_C@_0N@PIPFDMLM@?$CD?$CDPopup_?$CF08x?$AA@ 00000001402496e0     imgui.obj
 0003:000116f0       ??_C@_1EO@MGPJKAKN@?$AAw?$AAi?$AAn?$AAd?$AAo?$AAw?$AA?9?$AA?$DO?$AAF?$AAl?$AAa?$AAg?$AAs?$AA?5?$AA?$CG?$AA?5?$AAI?$AAm?$AAG?$AAu?$AAi?$AAW?$AAi?$AAn?$AAd?$AAo?$AAw?$AAF?$AAl?$AAa?$AAg?$AAs@ 00000001402496f0     imgui.obj
 0003:00011750       ??_C@_1DG@NPFLFCJJ@?$AAg?$AA?4?$AAB?$AAe?$AAg?$AAi?$AAn?$AAP?$AAo?$AAp?$AAu?$AAp?$AAS?$AAt?$AAa?$AAc?$AAk?$AA?4?$AAS?$AAi?$AAz?$AAe?$AA?5?$AA?$DO?$AA?5?$AA0?$AA?$AA@ 0000000140249750     imgui.obj
 0003:00011790       ??_C@_0P@DCJGJLLM@window_context?$AA@ 0000000140249790     imgui.obj
 0003:000117a8       ??_C@_0N@OOFNFKBH@void_context?$AA@ 00000001402497a8     imgui.obj
 0003:000117b8       ??_C@_1DE@NAFIGFGG@?$AAg?$AA?4?$AAC?$AAu?$AAr?$AAr?$AAe?$AAn?$AAt?$AAW?$AAi?$AAn?$AAd?$AAo?$AAw?$AA?5?$AA?$DN?$AA?$DN?$AA?5?$AAw?$AAi?$AAn?$AAd?$AAo?$AAw?$AA?$AA@ 00000001402497b8     imgui.obj
 0003:000117f8       ??_C@_0BM@CFDBCOKD@?$FLfocus?$FN?5SetNavWindow?$CI?$CC?$CFs?$CC?$CJ?6?$AA@ 00000001402497f8     imgui.obj
 0003:00011820       ??_C@_1CC@BGDNHLPI@?$AAg?$AA?4?$AAN?$AAa?$AAv?$AAW?$AAi?$AAn?$AAd?$AAo?$AAw?$AA?5?$AA?$CB?$AA?$DN?$AA?5?$AA0?$AA?$AA@ 0000000140249820     imgui.obj
 0003:00011850       ??_C@_1IG@LOIIGJJB@?$AAn?$AAa?$AAv?$AA_?$AAl?$AAa?$AAy?$AAe?$AAr?$AA?5?$AA?$DN?$AA?$DN?$AA?5?$AAI?$AAm?$AAG?$AAu?$AAi?$AAN?$AAa?$AAv?$AAL?$AAa?$AAy?$AAe?$AAr?$AA_?$AAM?$AAa?$AAi?$AAn?$AA?5@ 0000000140249850     imgui.obj
 0003:000118f0       ??_C@_1IK@IGCCKHOG@?$AA?$CI?$AAw?$AAi?$AAn?$AAd?$AAo?$AAw?$AA?9?$AA?$DO?$AAF?$AAl?$AAa?$AAg?$AAs?$AA?5?$AA?$HM?$AA?5?$AAg?$AA?4?$AAN?$AAa?$AAv?$AAW?$AAi?$AAn?$AAd?$AAo?$AAw?$AA?9?$AA?$DO?$AAF?$AAl@ 00000001402498f0     imgui.obj
 0003:000119a0       ??_C@_1EK@MLLBABBK@?$AAg?$AA?4?$AAN?$AAa?$AAv?$AAM?$AAo?$AAv?$AAe?$AAF?$AAo?$AAr?$AAw?$AAa?$AAr?$AAd?$AAT?$AAo?$AAN?$AAe?$AAx?$AAt?$AAF?$AAr?$AAa?$AAm?$AAe?$AA?5?$AA?$DN?$AA?$DN?$AA?5?$AAf@ 00000001402499a0     imgui.obj
 0003:000119f8       ??_C@_1CA@DLIMGMND@?$AAw?$AAr?$AAa?$AAp?$AA_?$AAf?$AAl?$AAa?$AAg?$AAs?$AA?5?$AA?$CB?$AA?$DN?$AA?5?$AA0?$AA?$AA@ 00000001402499f8     imgui.obj
 0003:00011a20       ??_C@_0DK@NLPDJHKG@?$FLfocus?$FN?5NavRestoreLayer?3?5from?5?$CC?$CF@ 0000000140249a20     imgui.obj
 0003:00011a68       ??_C@_1CM@NGAIJMCF@?$AAw?$AAi?$AAn?$AAd?$AAo?$AAw?$AA?5?$AA?$DN?$AA?$DN?$AA?5?$AAg?$AA?4?$AAN?$AAa?$AAv?$AAW?$AAi?$AAn?$AAd?$AAo?$AAw?$AA?$AA@ 0000000140249a68     imgui.obj
 0003:00011aa0       ??_C@_0FE@LKAOFKOF@?$FLnav?$FN?5NavInitRequest?3?5from?5NavIn@ 0000000140249aa0     imgui.obj
 0003:00011b10       ??_C@_1IK@BKDIBMAE@?$AAg?$AA?4?$AAN?$AAa?$AAv?$AAL?$AAa?$AAy?$AAe?$AAr?$AA?5?$AA?$DN?$AA?$DN?$AA?5?$AAI?$AAm?$AAG?$AAu?$AAi?$AAN?$AAa?$AAv?$AAL?$AAa?$AAy?$AAe?$AAr?$AA_?$AAM?$AAa?$AAi?$AAn@ 0000000140249b10     imgui.obj
 0003:00011bc0       ??_C@_1EO@NJCLOIHM@?$AAg?$AA?4?$AAN?$AAa?$AAv?$AAA?$AAc?$AAt?$AAi?$AAv?$AAa?$AAt?$AAe?$AAD?$AAo?$AAw?$AAn?$AAI?$AAd?$AA?5?$AA?$DN?$AA?$DN?$AA?5?$AAg?$AA?4?$AAN?$AAa?$AAv?$AAA?$AAc?$AAt?$AAi@ 0000000140249bc0     imgui.obj
 0003:00011c20       ??_C@_0EJ@EKHMMIGJ@?$FLnav?$FN?5NavInitRequest?3?5ApplyResul@ 0000000140249c20     imgui.obj
 0003:00011c80       ??_C@_1IG@KDKGHOJC@?$AAg?$AA?4?$AAN?$AAa?$AAv?$AAM?$AAo?$AAv?$AAe?$AAD?$AAi?$AAr?$AA?5?$AA?$CB?$AA?$DN?$AA?5?$AAI?$AAm?$AAG?$AAu?$AAi?$AAD?$AAi?$AAr?$AA_?$AAN?$AAo?$AAn?$AAe?$AA?5?$AA?$CG?$AA?$CG@ 0000000140249c80     imgui.obj
 0003:00011d20       ??_C@_1FK@DENPKHFA@?$AAg?$AA?4?$AAN?$AAa?$AAv?$AAM?$AAo?$AAv?$AAe?$AAF?$AAl?$AAa?$AAg?$AAs?$AA?5?$AA?$CG?$AA?5?$AAI?$AAm?$AAG?$AAu?$AAi?$AAN?$AAa?$AAv?$AAM?$AAo?$AAv?$AAe?$AAF?$AAl?$AAa@ 0000000140249d20     imgui.obj
 0003:00011d90       ??_C@_0CA@BNPHEIIJ@?$FLnav?$FN?5NavMoveRequestForward?5?$CFd?6?$AA@ 0000000140249d90     imgui.obj
 0003:00011db8       ??_C@_0DI@DAIPCILO@?$FLnav?$FN?5NavInitRequest?3?5from?5move?0@ 0000000140249db8     imgui.obj
 0003:00011e00       ??_C@_1DG@GGBAGIEJ@?$AA?$CB?$AAs?$AAc?$AAo?$AAr?$AAi?$AAn?$AAg?$AA_?$AAr?$AAe?$AAc?$AAt?$AA?4?$AAI?$AAs?$AAI?$AAn?$AAv?$AAe?$AAr?$AAt?$AAe?$AAd?$AA?$CI?$AA?$CJ?$AA?$AA@ 0000000140249e00     imgui.obj
 0003:00011e40       ??_C@_1DM@GOPKKHMI@?$AAg?$AA?4?$AAN?$AAa?$AAv?$AAM?$AAo?$AAv?$AAe?$AAD?$AAi?$AAr?$AA?5?$AA?$DN?$AA?$DN?$AA?5?$AAI?$AAm?$AAG?$AAu?$AAi?$AAD?$AAi?$AAr?$AA_?$AAN?$AAo?$AAn?$AAe?$AA?$AA@ 0000000140249e40     imgui.obj
 0003:00011e88       ??_C@_1DM@EKPCIOHK@?$AAg?$AA?4?$AAN?$AAa?$AAv?$AAW?$AAi?$AAn?$AAd?$AAo?$AAw?$AA?5?$AA?$CG?$AA?$CG?$AA?5?$AAr?$AAe?$AAs?$AAu?$AAl?$AAt?$AA?9?$AA?$DO?$AAW?$AAi?$AAn?$AAd?$AAo?$AAw?$AA?$AA@ 0000000140249e88     imgui.obj
 0003:00011ed0       ??_C@_0CM@KMMAIAOD@?$FLfocus?$FN?5NavMoveRequest?3?5SetNavWi@ 0000000140249ed0     imgui.obj
 0003:00011f10       ??_C@_0ED@JMNIALPC@?$FLnav?$FN?5NavMoveRequest?3?5result?5Nav@ 0000000140249f10     imgui.obj
 0003:00011f60       ??_C@_0CA@JJLLCANH@?$FLnav?$FN?5NavUpdateCancelRequest?$CI?$CJ?6?$AA@ 0000000140249f60     imgui.obj
 0003:00011f88       ??_C@_1DG@HPGLIPGM@?$AAc?$AAh?$AAi?$AAl?$AAd?$AA_?$AAw?$AAi?$AAn?$AAd?$AAo?$AAw?$AA?9?$AA?$DO?$AAC?$AAh?$AAi?$AAl?$AAd?$AAI?$AAd?$AA?5?$AA?$CB?$AA?$DN?$AA?5?$AA0?$AA?$AA@ 0000000140249f88     imgui.obj
 0003:00011fc8       ??_C@_1DK@JNHBMHM@?$AAw?$AAi?$AAn?$AAd?$AAo?$AAw?$AA?9?$AA?$DO?$AAR?$AAo?$AAo?$AAt?$AAW?$AAi?$AAn?$AAd?$AAo?$AAw?$AA?5?$AA?$DN?$AA?$DN?$AA?5?$AAw?$AAi?$AAn?$AAd?$AAo?$AAw?$AA?$AA@ 0000000140249fc8     imgui.obj
 0003:00012010       ??_C@_1EK@IMFCDJFP@?$AAg?$AA?4?$AAW?$AAi?$AAn?$AAd?$AAo?$AAw?$AAs?$AAF?$AAo?$AAc?$AAu?$AAs?$AAO?$AAr?$AAd?$AAe?$AAr?$AA?$FL?$AAo?$AAr?$AAd?$AAe?$AAr?$AA?$FN?$AA?5?$AA?$DN?$AA?$DN?$AA?5?$AAw?$AAi@ 000000014024a010     imgui.obj
 0003:00012068       ??_C@_1CK@OIBCGJMF@?$AAg?$AA?4?$AAN?$AAa?$AAv?$AAW?$AAi?$AAn?$AAd?$AAo?$AAw?$AAi?$AAn?$AAg?$AAT?$AAa?$AAr?$AAg?$AAe?$AAt?$AA?$AA@ 000000014024a068     imgui.obj
 0003:000120a0       ??_C@_1CC@CLJDBFDN@?$AAs?$AAh?$AAa?$AAr?$AAe?$AAd?$AA_?$AAm?$AAo?$AAd?$AAs?$AA?5?$AA?$CB?$AA?$DN?$AA?5?$AA0?$AA?$AA@ 000000014024a0a0     imgui.obj
 0003:000120c8       ??_C@_0O@BKOLOJFE@?$CD?$CDMainMenuBar?$AA@ 000000014024a0c8     imgui.obj
 0003:000120d8       ??_C@_1DE@DBGGCEBB@?$AAg?$AA?4?$AAN?$AAa?$AAv?$AAW?$AAi?$AAn?$AAd?$AAo?$AAw?$AAi?$AAn?$AAg?$AAT?$AAa?$AAr?$AAg?$AAe?$AAt?$AA?5?$AA?$CB?$AA?$DN?$AA?5?$AA0?$AA?$AA@ 000000014024a0d8     imgui.obj
 0003:00012118       ??_C@_0BE@EBHFKNCA@?$CD?$CD?$CDNavWindowingList?$AA@ 000000014024a118     imgui.obj
 0003:00012130       ??_C@_0O@KMAIKFAM@?$CDSourceExtern?$AA@ 000000014024a130     imgui.obj
 0003:00012140       ??_C@_1BO@PJLJNAI@?$AAs?$AAo?$AAu?$AAr?$AAc?$AAe?$AA_?$AAi?$AAd?$AA?5?$AA?$CB?$AA?$DN?$AA?5?$AA0?$AA?$AA@ 000000014024a140     imgui.obj
 0003:00012168       ??_C@_1CC@NMCEOFEI@?$AAg?$AA?4?$AAD?$AAr?$AAa?$AAg?$AAD?$AAr?$AAo?$AAp?$AAA?$AAc?$AAt?$AAi?$AAv?$AAe?$AA?$AA@ 000000014024a168     imgui.obj
 0003:00012190       ??_C@_0CD@GALGOANB@Not?5after?5a?5BeginDragDropSource?$CI@ 000000014024a190     imgui.obj
 0003:000121c0       ??_C@_1HO@KPNGOBLC@?$AAg?$AA?4?$AAD?$AAr?$AAa?$AAg?$AAD?$AAr?$AAo?$AAp?$AAW?$AAi?$AAt?$AAh?$AAi?$AAn?$AAS?$AAo?$AAu?$AAr?$AAc?$AAe?$AA?5?$AA?$CG?$AA?$CG?$AA?5?$AA?$CC?$AAN?$AAo?$AAt?$AA?5?$AAa@ 000000014024a1c0     imgui.obj
 0003:00012258       ??_C@_1BE@MGJHACMG@?$AAt?$AAy?$AAp?$AAe?$AA?5?$AA?$CB?$AA?$DN?$AA?5?$AA0?$AA?$AA@ 000000014024a258     imgui.obj
 0003:00012270       ??_C@_0CP@PLNIIIKE@Payload?5type?5can?5be?5at?5most?532?5c@ 000000014024a270     imgui.obj
 0003:000122b0       ??_C@_1BAG@HHAODBGF@?$AAs?$AAt?$AAr?$AAl?$AAe?$AAn?$AA?$CI?$AAt?$AAy?$AAp?$AAe?$AA?$CJ?$AA?5?$AA?$DM?$AA?5?$AA?$CI?$AA?$CI?$AAi?$AAn?$AAt?$AA?$CJ?$AA?$CI?$AAs?$AAi?$AAz?$AAe?$AAo?$AAf?$AA?$CI?$AAp?$AAa?$AAy@ 000000014024a2b0     imgui.obj
 0003:000123f0       ??_C@_1HM@NCOAFGFM@?$AA?$CI?$AAd?$AAa?$AAt?$AAa?$AA?5?$AA?$CB?$AA?$DN?$AA?5?$AA0?$AA?5?$AA?$CG?$AA?$CG?$AA?5?$AAd?$AAa?$AAt?$AAa?$AA_?$AAs?$AAi?$AAz?$AAe?$AA?5?$AA?$DO?$AA?5?$AA0?$AA?$CJ?$AA?5?$AA?$HM?$AA?$HM?$AA?5@ 000000014024a3f0     imgui.obj
 0003:00012490       ??_C@_1GG@ONMAEHAO@?$AAc?$AAo?$AAn?$AAd?$AA?5?$AA?$DN?$AA?$DN?$AA?5?$AAI?$AAm?$AAG?$AAu?$AAi?$AAC?$AAo?$AAn?$AAd?$AA_?$AAA?$AAl?$AAw?$AAa?$AAy?$AAs?$AA?5?$AA?$HM?$AA?$HM?$AA?5?$AAc?$AAo?$AAn?$AAd@ 000000014024a490     imgui.obj
 0003:00012510       ??_C@_1CM@DLJODDMB@?$AAp?$AAa?$AAy?$AAl?$AAo?$AAa?$AAd?$AA?4?$AAS?$AAo?$AAu?$AAr?$AAc?$AAe?$AAI?$AAd?$AA?5?$AA?$CB?$AA?$DN?$AA?5?$AA0?$AA?$AA@ 000000014024a510     imgui.obj
 0003:00012550       ??_C@_1EA@CHPNIKA@?$AAg?$AA?4?$AAD?$AAr?$AAa?$AAg?$AAD?$AAr?$AAo?$AAp?$AAW?$AAi?$AAt?$AAh?$AAi?$AAn?$AAT?$AAa?$AAr?$AAg?$AAe?$AAt?$AA?5?$AA?$DN?$AA?$DN?$AA?5?$AAf?$AAa?$AAl?$AAs?$AAe?$AA?$AA@ 000000014024a550     imgui.obj
 0003:000125a0       ??_C@_1DK@OHFCBLGB@?$AAp?$AAa?$AAy?$AAl?$AAo?$AAa?$AAd?$AA?4?$AAD?$AAa?$AAt?$AAa?$AAF?$AAr?$AAa?$AAm?$AAe?$AAC?$AAo?$AAu?$AAn?$AAt?$AA?5?$AA?$CB?$AA?$DN?$AA?5?$AA?9?$AA1?$AA?$AA@ 000000014024a5a0     imgui.obj
 0003:000125e8       ??_C@_1CO@LEPEHAFL@?$AAg?$AA?4?$AAD?$AAr?$AAa?$AAg?$AAD?$AAr?$AAo?$AAp?$AAW?$AAi?$AAt?$AAh?$AAi?$AAn?$AAT?$AAa?$AAr?$AAg?$AAe?$AAt?$AA?$AA@ 000000014024a5e8     imgui.obj
 0003:00012620       ??_C@_02PCIJFNDE@?$AN?6?$AA@ 000000014024a620     imgui.obj
 0003:00012628       ??_C@_07LFDEMEGD@?$CF?$CKs?$CF?4?$CKs?$AA@ 000000014024a628     imgui.obj
 0003:00012638       ??_C@_1CM@DLAMPOKC@?$AAg?$AA?4?$AAL?$AAo?$AAg?$AAE?$AAn?$AAa?$AAb?$AAl?$AAe?$AAd?$AA?5?$AA?$DN?$AA?$DN?$AA?5?$AAf?$AAa?$AAl?$AAs?$AAe?$AA?$AA@ 000000014024a638     imgui.obj
 0003:00012670       ??_C@_1BO@HOGBMEAE@?$AAg?$AA?4?$AAL?$AAo?$AAg?$AAF?$AAi?$AAl?$AAe?$AA?5?$AA?$DN?$AA?$DN?$AA?5?$AA0?$AA?$AA@ 000000014024a670     imgui.obj
 0003:00012698       ??_C@_1CI@CDGOCLNI@?$AAg?$AA?4?$AAL?$AAo?$AAg?$AAB?$AAu?$AAf?$AAf?$AAe?$AAr?$AA?4?$AAe?$AAm?$AAp?$AAt?$AAy?$AA?$CI?$AA?$CJ?$AA?$AA@ 000000014024a698     imgui.obj
 0003:000126c8       ??_C@_02BOGAIONP@ab?$AA@   000000014024a6c8     imgui.obj
 0003:000126d0       ??_C@_0L@DMNDGOCF@LogButtons?$AA@ 000000014024a6d0     imgui.obj
 0003:000126e0       ??_C@_0L@COILDFG@Log?5To?5TTY?$AA@ 000000014024a6e0     imgui.obj
 0003:000126f0       ??_C@_0M@KAEBEAHF@Log?5To?5File?$AA@ 000000014024a6f0     imgui.obj
 0003:00012700       ??_C@_0BB@CPOBJDKM@Log?5To?5Clipboard?$AA@ 000000014024a700     imgui.obj
 0003:00012718       ??_C@_0O@CONALMON@Default?5Depth?$AA@ 000000014024a718     imgui.obj
 0003:00012728       ??_C@_1DE@BLONNHPO@?$AAg?$AA?4?$AAS?$AAe?$AAt?$AAt?$AAi?$AAn?$AAg?$AAs?$AAW?$AAi?$AAn?$AAd?$AAo?$AAw?$AAs?$AA?4?$AAe?$AAm?$AAp?$AAt?$AAy?$AA?$CI?$AA?$CJ?$AA?$AA@ 000000014024a728     imgui.obj
 0003:00012768       ??_C@_03OIJOKPOL@?$CD?$CD?$CD?$AA@ 000000014024a768     imgui.obj
 0003:00012770       ??_C@_1FI@KIMLNDDP@?$AAF?$AAi?$AAn?$AAd?$AAS?$AAe?$AAt?$AAt?$AAi?$AAn?$AAg?$AAs?$AAH?$AAa?$AAn?$AAd?$AAl?$AAe?$AAr?$AA?$CI?$AAh?$AAa?$AAn?$AAd?$AAl?$AAe?$AAr?$AA?9?$AA?$DO?$AAT?$AAy?$AAp@ 000000014024a770     imgui.obj
 0003:000127dc       ??_C@_02JDPG@rb?$AA@       000000014024a7dc     imgui.obj
 0003:000127e0       ??_C@_02BKFDOEMK@wt?$AA@   000000014024a7e0     imgui.obj
 0003:000127e8       ??_C@_09GOMOMIIP@Pos?$DN?$CFi?0?$CFi?$AA@ 000000014024a7e8     imgui.obj
 0003:000127f8       ??_C@_0L@MPPKDMFA@Size?$DN?$CFi?0?$CFi?$AA@ 000000014024a7f8     imgui.obj
 0003:00012808       ??_C@_0N@IAKNMBB@Collapsed?$DN?$CFd?$AA@ 000000014024a808     imgui.obj
 0003:00012818       ??_C@_1DG@BLKMIOLK@?$AAs?$AAe?$AAt?$AAt?$AAi?$AAn?$AAg?$AAs?$AA?9?$AA?$DO?$AAI?$AAD?$AA?5?$AA?$DN?$AA?$DN?$AA?5?$AAw?$AAi?$AAn?$AAd?$AAo?$AAw?$AA?9?$AA?$DO?$AAI?$AAD?$AA?$AA@ 000000014024a818     imgui.obj
 0003:00012858       ??_C@_09HNFDDBIF@?$FL?$CFs?$FN?$FL?$CFs?$FN?6?$AA@ 000000014024a858     imgui.obj
 0003:00012868       ??_C@_0L@DDMADIHO@Pos?$DN?$CFd?0?$CFd?6?$AA@ 000000014024a868     imgui.obj
 0003:00012878       ??_C@_0M@CFANMDMP@Size?$DN?$CFd?0?$CFd?6?$AA@ 000000014024a878     imgui.obj
 0003:00012888       ??_C@_0O@JAFHMCKE@Collapsed?$DN?$CFd?6?$AA@ 000000014024a888     imgui.obj
 0003:00012898       ??_C@_01EEMJAFIK@?6?$AA@   000000014024a898     imgui.obj
 0003:000128a0       ??_C@_1CM@MPBIDJHA@?$AAg?$AA?4?$AAV?$AAi?$AAe?$AAw?$AAp?$AAo?$AAr?$AAt?$AAs?$AA?4?$AAS?$AAi?$AAz?$AAe?$AA?5?$AA?$DN?$AA?$DN?$AA?5?$AA1?$AA?$AA@ 000000014024a8a0     imgui.obj
 0003:000128d8       ??_C@_0L@NOOHJNEN@Text?3?5?$CC?$CFs?$CC?$AA@ 000000014024a8d8     imgui.obj
 0003:000128e8       ??_C@_04DONFEANM@list?$AA@ 000000014024a8e8     imgui.obj
 0003:000128f0       ??_C@_06GEMKPBPA@Offset?$AA@ 000000014024a8f0     imgui.obj
 0003:000128f8       ??_C@_05EGJIMALK@UTF?98?$AA@ 000000014024a8f8     imgui.obj
 0003:00012900       ??_C@_05OPEAJICN@Glyph?$AA@ 000000014024a900     imgui.obj
 0003:00012908       ??_C@_09DIHJKHFA@Codepoint?$AA@ 000000014024a908     imgui.obj
 0003:00012914       ??_C@_02DPKJAMEF@?$CFd?$AA@ 000000014024a914     imgui.obj
 0003:00012918       ??_C@_06IBAGLEAI@0x?$CF02X?$AA@ 000000014024a918     imgui.obj
 0003:00012920       ??_C@_09HOBHDEIO@?$FLinvalid?$FN?$AA@ 000000014024a920     imgui.obj
 0003:00012930       ??_C@_09GCGJOJDM@?$FLmissing?$FN?$AA@ 000000014024a930     imgui.obj
 0003:0001293c       ??_C@_06NGBPNBKB@U?$CL?$CF04X?$AA@ 000000014024a93c     imgui.obj
 0003:00012944       ??_C@_03NAEMJKHE@?$CI?$DP?$CJ?$AA@ 000000014024a944     imgui.obj
 0003:00012948       ??_C@_0BN@JPEJHLJM@Atlas?5texture?5?$CI?$CFdx?$CFd?5pixels?$CJ?$AA@ 000000014024a948     imgui.obj
 0003:00012970       ??_C@_0O@KCJLBEBN@Atlas?5texture?$AA@ 000000014024a970     imgui.obj
 0003:00012980       ??_C@_0BM@CNHCNFCK@Dear?5ImGui?5Metrics?1Debugger?$AA@ 000000014024a980     imgui.obj
 0003:000129a8       ??_C@_0O@NCHBJMJF@Dear?5ImGui?5?$CFs?$AA@ 000000014024a9a8     imgui.obj
 0003:000129b8       ??_C@_0CN@EIPBEGMP@Application?5average?5?$CF?43f?5ms?1fram@ 000000014024a9b8     imgui.obj
 0003:000129f0       ??_C@_0CH@HHKODNBE@?$CFd?5vertices?0?5?$CFd?5indices?5?$CI?$CFd?5tria@ 000000014024a9f0     imgui.obj
 0003:00012a20       ??_C@_0CK@GDPKNEKJ@?$CFd?5visible?5windows?0?5?$CFd?5active?5al@ 000000014024aa20     imgui.obj
 0003:00012a58       ??_C@_09DBGHEPMN@OuterRect?$AA@ 000000014024aa58     imgui.obj
 0003:00012a68       ??_C@_0BB@CJNOCIFN@OuterRectClipped?$AA@ 000000014024aa68     imgui.obj
 0003:00012a80       ??_C@_09PPJHMOMF@InnerRect?$AA@ 000000014024aa80     imgui.obj
 0003:00012a90       ??_C@_0O@BNFMFEHO@InnerClipRect?$AA@ 000000014024aa90     imgui.obj
 0003:00012aa0       ??_C@_08FACDBJHD@WorkRect?$AA@ 000000014024aaa0     imgui.obj
 0003:00012ab0       ??_C@_07HLHPKMFI@Content?$AA@ 000000014024aab0     imgui.obj
 0003:00012ac0       ??_C@_0N@FEPIKFED@ContentIdeal?$AA@ 000000014024aac0     imgui.obj
 0003:00012ad0       ??_C@_0BC@NDBPEMLC@ContentRegionRect?$AA@ 000000014024aad0     imgui.obj
 0003:00012ae8       ??_C@_0N@OPBPMFAC@HostClipRect?$AA@ 000000014024aae8     imgui.obj
 0003:00012af8       ??_C@_0BD@PAHDAJDC@BackgroundClipRect?$AA@ 000000014024aaf8     imgui.obj
 0003:00012b10       ??_C@_0M@CDCMPDKG@ColumnsRect?$AA@ 000000014024ab10     imgui.obj
 0003:00012b20       ??_C@_0BA@ODEDLNCO@ColumnsWorkRect?$AA@ 000000014024ab20     imgui.obj
 0003:00012b38       ??_C@_0BA@JACIJDNM@ColumnsClipRect?$AA@ 000000014024ab38     imgui.obj
 0003:00012b50       ??_C@_0BK@BLBFMAOD@ColumnsContentHeadersUsed?$AA@ 000000014024ab50     imgui.obj
 0003:00012b70       ??_C@_0BL@FAEPMJDA@ColumnsContentHeadersIdeal?$AA@ 000000014024ab70     imgui.obj
 0003:00012b90       ??_C@_0BF@HAPEHPAK@ColumnsContentFrozen?$AA@ 000000014024ab90     imgui.obj
 0003:00012bb0       ??_C@_0BH@NNGOPODG@ColumnsContentUnfrozen?$AA@ 000000014024abb0     imgui.obj
 0003:00012bcc       ??_C@_05OENKALAF@Tools?$AA@ 000000014024abcc     imgui.obj
 0003:00012bd8       ??_C@_0BG@EANHHHDM@UTF?98?5Encoding?5viewer?$AA@ 000000014024abd8     imgui.obj
 0003:00012c00       ??_C@_0IH@JFLBENFG@You?5can?5also?5call?5ImGui?3?3DebugTe@ 000000014024ac00     imgui.obj
 0003:00012ca4       ??_C@_06MNCEJPDI@?$CD?$CDText?$AA@ 000000014024aca4     imgui.obj
 0003:00012cb0       ??_C@_0BB@KCIONAAN@Show?5Item?5Picker?$AA@ 000000014024acb0     imgui.obj
 0003:00012cd0       ??_C@_0IF@BGKDCLHL@Will?5call?5the?5IM_DEBUG_BREAK?$CI?$CJ?5m@ 000000014024acd0     imgui.obj
 0003:00012d70       ??_C@_0P@DGHPLGOO@Show?5Debug?5Log?$AA@ 000000014024ad70     imgui.obj
 0003:00012d88       ??_C@_0DO@CKGHHFPI@You?5can?5also?5call?5ImGui?3?3ShowDeb@ 000000014024ad88     imgui.obj
 0003:00012dd8       ??_C@_0BA@NLBHEMBK@Show?5Stack?5Tool?$AA@ 000000014024add8     imgui.obj
 0003:00012df0       ??_C@_0DP@EIGJLOOL@You?5can?5also?5call?5ImGui?3?3ShowSta@ 000000014024adf0     imgui.obj
 0003:00012e40       ??_C@_0BJ@HJBAEIMP@Show?5windows?5begin?5order?$AA@ 000000014024ae40     imgui.obj
 0003:00012e60       ??_C@_0BI@DIKJGFFM@Show?5windows?5rectangles?$AA@ 000000014024ae60     imgui.obj
 0003:00012e80       ??_C@_0BJ@OFHLDDCB@?$CD?$CDshow_windows_rect_type?$AA@ 000000014024ae80     imgui.obj
 0003:00012ea0       ??_C@_05DMJEEKMI@?8?$CFs?8?3?$AA@ 000000014024aea0     imgui.obj
 0003:00012ea8       ??_C@_0DC@MPAIEFII@?$CI?$CF6?41f?0?$CF6?41f?$CJ?5?$CI?$CF6?41f?0?$CF6?41f?$CJ?5Size@ 000000014024aea8     imgui.obj
 0003:00012ee8       ??_C@_0BH@GINBNIDO@Show?5tables?5rectangles?$AA@ 000000014024aee8     imgui.obj
 0003:00012f08       ??_C@_0BI@CCENNJPN@?$CD?$CDshow_table_rects_type?$AA@ 000000014024af08     imgui.obj
 0003:00012f28       ??_C@_0CD@PGABKCAC@Table?50x?$CF08X?5?$CI?$CFd?5columns?0?5in?5?8?$CFs@ 000000014024af28     imgui.obj
 0003:00012f58       ??_C@_0DJ@IFLDIHOJ@?$CI?$CF6?41f?0?$CF6?41f?$CJ?5?$CI?$CF6?41f?0?$CF6?41f?$CJ?5Size@ 000000014024af58     imgui.obj
 0003:00012fa0       ??_C@_0N@HJIBBJFL@Windows?5?$CI?$CFd?$CJ?$AA@ 000000014024afa0     imgui.obj
 0003:00012fb0       ??_C@_07LDLFNPGN@Windows?$AA@ 000000014024afb0     imgui.obj
 0003:00012fc0       ??_C@_0BB@OFNDBHKO@By?5display?5order?$AA@ 000000014024afc0     imgui.obj
 0003:00012fd8       ??_C@_0BO@HBHGMPEI@By?5focus?5order?5?$CIroot?5windows?$CJ?$AA@ 000000014024afd8     imgui.obj
 0003:00013000       ??_C@_0CC@PJNGLIEE@By?5submission?5order?5?$CIbegin?5stack@ 000000014024b000     imgui.obj
 0003:00013028       ??_C@_0P@EHGADCPI@DrawLists?5?$CI?$CFd?$CJ?$AA@ 000000014024b028     imgui.obj
 0003:00013040       ??_C@_09KCCHKPGA@DrawLists?$AA@ 000000014024b040     imgui.obj
 0003:00013050       ??_C@_0CC@NLEJJGFA@Show?5ImDrawCmd?5mesh?5when?5hoverin@ 000000014024b050     imgui.obj
 0003:00013078       ??_C@_0CM@GCNMPAKG@Show?5ImDrawCmd?5bounding?5boxes?5wh@ 000000014024b078     imgui.obj
 0003:000130b0       ??_C@_08IJNCDCKF@DrawList?$AA@ 000000014024b0b0     imgui.obj
 0003:000130c0       ??_C@_0P@HKKCMMOO@Viewports?5?$CI?$CFd?$CJ?$AA@ 000000014024b0c0     imgui.obj
 0003:000130d8       ??_C@_09GPOHHJPA@Viewports?$AA@ 000000014024b0d8     imgui.obj
 0003:000130e8       ??_C@_0M@CMLJJLKO@Popups?5?$CI?$CFd?$CJ?$AA@ 000000014024b0e8     imgui.obj
 0003:000130f8       ??_C@_06ENDEIGLN@Popups?$AA@ 000000014024b0f8     imgui.obj
 0003:00013100       ??_C@_05BJFIHKGA@Menu?$DL?$AA@ 000000014024b100     imgui.obj
 0003:00013108       ??_C@_06GFGJBDBB@Child?$DL?$AA@ 000000014024b108     imgui.obj
 0003:00013110       ??_C@_0EM@HDANJEGB@PopupID?3?5?$CF08x?0?5Window?3?5?8?$CFs?8?5?$CI?$CFs?$CF@ 000000014024b110     imgui.obj
 0003:00013170       ??_C@_0O@JLIGAOM@Tab?5Bars?5?$CI?$CFd?$CJ?$AA@ 000000014024b170     imgui.obj
 0003:00013180       ??_C@_07NBICDJOO@TabBars?$AA@ 000000014024b180     imgui.obj
 0003:0001318c       ??_C@_06PAFCDPCC@TabBar?$AA@ 000000014024b18c     imgui.obj
 0003:00013198       ??_C@_0M@GKKKBBGH@Tables?5?$CI?$CFd?$CJ?$AA@ 000000014024b198     imgui.obj
 0003:000131a8       ??_C@_06KOKNHOLC@Tables?$AA@ 000000014024b1a8     imgui.obj
 0003:000131b0       ??_C@_0L@IBDLAPEA@Fonts?5?$CI?$CFd?$CJ?$AA@ 000000014024b1b0     imgui.obj
 0003:000131c0       ??_C@_05ENDNDI@Fonts?$AA@  000000014024b1c0     imgui.obj
 0003:000131c8       ??_C@_09LIBCCLDO@InputText?$AA@ 000000014024b1c8     imgui.obj
 0003:000131d8       ??_C@_08EEOHOBEO@Settings?$AA@ 000000014024b1d8     imgui.obj
 0003:000131e4       ??_C@_05MDNHABIA@Clear?$AA@ 000000014024b1e4     imgui.obj
 0003:000131f0       ??_C@_0P@BGFPLLLP@Save?5to?5memory?$AA@ 000000014024b1f0     imgui.obj
 0003:00013208       ??_C@_0N@PMPOLMLD@Save?5to?5disk?$AA@ 000000014024b208     imgui.obj
 0003:00013218       ??_C@_04OEDFLLKD@?$CC?$CFs?$CC?$AA@ 000000014024b218     imgui.obj
 0003:00013220       ??_C@_0BI@KCGHKNOH@SettingsDirtyTimer?5?$CF?42f?$AA@ 000000014024b220     imgui.obj
 0003:00013240       ??_C@_0BI@PGENAEOL@Settings?5handlers?3?5?$CI?$CFd?$CJ?$AA@ 000000014024b240     imgui.obj
 0003:00013260       ??_C@_0BB@NEINIHH@SettingsHandlers?$AA@ 000000014024b260     imgui.obj
 0003:00013274       ??_C@_02DKCKIIND@?$CFs?$AA@ 000000014024b274     imgui.obj
 0003:00013278       ??_C@_0CI@CKIDLOMN@Settings?5packed?5data?3?5Windows?3?5?$CF@ 000000014024b278     imgui.obj
 0003:000132a8       ??_C@_0BA@GOMGONFN@SettingsWindows?$AA@ 000000014024b2a8     imgui.obj
 0003:000132c0       ??_C@_0CH@GODOBOJJ@Settings?5packed?5data?3?5Tables?3?5?$CFd@ 000000014024b2c0     imgui.obj
 0003:000132f0       ??_C@_0P@NAODIHNN@SettingsTables?$AA@ 000000014024b2f0     imgui.obj
 0003:00013308       ??_C@_0CI@MPNDIPDD@Settings?5unpacked?5data?5?$CI?4ini?$CJ?3?5?$CF@ 000000014024b308     imgui.obj
 0003:00013338       ??_C@_0BA@IEPJFGMP@SettingsIniData?$AA@ 000000014024b338     imgui.obj
 0003:0001334c       ??_C@_05FJAOFNGD@?$CD?$CDIni?$AA@ 000000014024b34c     imgui.obj
 0003:00013354       ??_C@_06HDCHCENJ@Inputs?$AA@ 000000014024b354     imgui.obj
 0003:00013360       ??_C@_0BM@CMPOEGIF@KEYBOARD?1GAMEPAD?1MOUSE?5KEYS?$AA@ 000000014024b360     imgui.obj
 0003:00013388       ??_C@_0L@POLCMIEL@Keys?5down?3?$AA@ 000000014024b388     imgui.obj
 0003:00013398       ??_C@_07BFJJNFBL@?$CC?$CFs?$CC?5?$CFd?$AA@ 000000014024b398     imgui.obj
 0003:000133a8       ??_C@_07ODHCILNN@?$CI?$CF?402f?$CJ?$AA@ 000000014024b3a8     imgui.obj
 0003:000133b8       ??_C@_0O@DAHEMGJA@Keys?5pressed?3?$AA@ 000000014024b3b8     imgui.obj
 0003:000133c8       ??_C@_0P@HNKDNBMM@Keys?5released?3?$AA@ 000000014024b3c8     imgui.obj
 0003:000133dc       ??_C@_06ECIIPDFH@SUPER?5?$AA@ 000000014024b3dc     imgui.obj
 0003:000133e4       ??_C@_04HDLNDMFA@ALT?5?$AA@ 000000014024b3e4     imgui.obj
 0003:000133ec       ??_C@_06IGAIMELN@SHIFT?5?$AA@ 000000014024b3ec     imgui.obj
 0003:000133f4       ??_C@_05IHGCNILK@CTRL?5?$AA@ 000000014024b3f4     imgui.obj
 0003:00013400       ??_C@_0BE@HPBGOMPC@Keys?5mods?3?5?$CFs?$CFs?$CFs?$CFs?$AA@ 000000014024b400     imgui.obj
 0003:00013418       ??_C@_0N@PKFKOHDJ@Chars?5queue?3?$AA@ 000000014024b418     imgui.obj
 0003:00013428       ??_C@_0O@FLAJMFCG@?8?$CFc?8?5?$CI0x?$CF04X?$CJ?$AA@ 000000014024b428     imgui.obj
 0003:00013438       ??_C@_0M@FHOOLGCL@MOUSE?5STATE?$AA@ 000000014024b438     imgui.obj
 0003:00013448       ??_C@_0BE@HGGCPGOH@Mouse?5pos?3?5?$CI?$CFg?0?5?$CFg?$CJ?$AA@ 000000014024b448     imgui.obj
 0003:00013460       ??_C@_0BF@BCIGOCNH@Mouse?5pos?3?5?$DMINVALID?$DO?$AA@ 000000014024b460     imgui.obj
 0003:00013480       ??_C@_0BG@MNNMKHFC@Mouse?5delta?3?5?$CI?$CFg?0?5?$CFg?$CJ?$AA@ 000000014024b480     imgui.obj
 0003:000134a0       ??_C@_0M@HODNMGFJ@Mouse?5down?3?$AA@ 000000014024b4a0     imgui.obj
 0003:000134b0       ??_C@_0BB@BCIHMLII@b?$CFd?5?$CI?$CF?402f?5secs?$CJ?$AA@ 000000014024b4b0     imgui.obj
 0003:000134c8       ??_C@_0P@KEMIOLDA@Mouse?5clicked?3?$AA@ 000000014024b4c8     imgui.obj
 0003:000134e0       ??_C@_08MPGFIEFP@b?$CFd?5?$CI?$CFd?$CJ?$AA@ 000000014024b4e0     imgui.obj
 0003:000134f0       ??_C@_0BA@NMIOGEHG@Mouse?5released?3?$AA@ 000000014024b4f0     imgui.obj
 0003:00013504       ??_C@_03HAIDDFMD@b?$CFd?$AA@ 000000014024b504     imgui.obj
 0003:00013508       ??_C@_0BC@CFHNPKHB@Mouse?5wheel?3?5?$CF?41f?$AA@ 000000014024b508     imgui.obj
 0003:00013520       ??_C@_0BD@PNGBMOAE@Pen?5Pressure?3?5?$CF?41f?$AA@ 000000014024b520     imgui.obj
 0003:00013538       ??_C@_0P@KFDIODJM@MOUSE?5WHEELING?$AA@ 000000014024b538     imgui.obj
 0003:00013550       ??_C@_0BF@JFEICAPA@WheelingWindow?3?5?8?$CFs?8?$AA@ 000000014024b550     imgui.obj
 0003:00013570       ??_C@_0CB@GKEOFNFN@WheelingWindowReleaseTimer?3?5?$CF?42f@ 000000014024b570     imgui.obj
 0003:00013598       ??_C@_06PAOMPDJH@?$DMnone?$DO?$AA@ 000000014024b598     imgui.obj
 0003:000135a0       ??_C@_0DC@COLEDANA@WheelingAxisAvg?$FL?$FN?5?$DN?5?$HL?5?$CF?43f?0?5?$CF?43f@ 000000014024b5a0     imgui.obj
 0003:000135e0       ??_C@_0L@CIGKAOJG@KEY?5OWNERS?$AA@ 000000014024b5e0     imgui.obj
 0003:000135f0       ??_C@_08MHDHGJOB@?$CD?$CDowners?$AA@ 000000014024b5f0     imgui.obj
 0003:00013600       ??_C@_0BC@LKHMKKD@?5LockUntilRelease?$AA@ 000000014024b600     imgui.obj
 0003:00013618       ??_C@_0P@KHDHNDE@?5LockThisFrame?$AA@ 000000014024b618     imgui.obj
 0003:00013630       ??_C@_0N@OFJBCDIC@?$CFs?3?50x?$CF08X?$CFs?$AA@ 000000014024b630     imgui.obj
 0003:00013640       ??_C@_0BB@IIHPPFOB@SHORTCUT?5ROUTING?$AA@ 000000014024b640     imgui.obj
 0003:00013658       ??_C@_08MIEHDHIF@?$CD?$CDroutes?$AA@ 000000014024b658     imgui.obj
 0003:00013668       ??_C@_0L@NCKGGKFI@?$CFs?3?50x?$CF08X?$AA@ 000000014024b668     imgui.obj
 0003:00013678       ??_C@_0DH@IBPBMDJD@?$CIActiveIdUsing?3?5AllKeyboardKeys?3@ 000000014024b678     imgui.obj
 0003:000136c0       ??_C@_0P@DKNCHHLP@Internal?5state?$AA@ 000000014024b6c0     imgui.obj
 0003:000136d8       ??_C@_09OOMCPLIM@WINDOWING?$AA@ 000000014024b6d8     imgui.obj
 0003:000136e8       ??_C@_0BE@NBGIHPGN@HoveredWindow?3?5?8?$CFs?8?$AA@ 000000014024b6e8     imgui.obj
 0003:00013700       ??_C@_0BK@GFBMGONH@HoveredWindow?9?$DORoot?3?5?8?$CFs?8?$AA@ 000000014024b700     imgui.obj
 0003:00013720       ??_C@_0CF@OOIEDAD@HoveredWindowUnderMovingWindow?3?5@ 000000014024b720     imgui.obj
 0003:00013750       ??_C@_0BD@HCKEDLME@MovingWindow?3?5?8?$CFs?8?$AA@ 000000014024b750     imgui.obj
 0003:00013768       ??_C@_05OOOHNEPI@ITEMS?$AA@ 000000014024b768     imgui.obj
 0003:00013770       ??_C@_0EB@PEJDHKLE@ActiveId?3?50x?$CF08X?10x?$CF08X?5?$CI?$CF?42f?5se@ 000000014024b770     imgui.obj
 0003:000137c0       ??_C@_0BF@CPEAOPEJ@ActiveIdWindow?3?5?8?$CFs?8?$AA@ 000000014024b7c0     imgui.obj
 0003:000137e0       ??_C@_0DD@CAAMDFEK@ActiveIdUsing?3?5AllKeyboardKeys?3?5@ 000000014024b7e0     imgui.obj
 0003:00013820       ??_C@_0CP@CCEEBMAB@HoveredId?3?50x?$CF08X?5?$CI?$CF?42f?5sec?$CJ?0?5Al@ 000000014024b820     imgui.obj
 0003:00013858       ??_C@_0DE@CGPHDBFO@HoverDelayId?3?50x?$CF08X?0?5Timer?3?5?$CF?42@ 000000014024b858     imgui.obj
 0003:00013898       ??_C@_0DJ@OPOHHHAC@DragDrop?3?5?$CFd?0?5SourceId?5?$DN?50x?$CF08X?0@ 000000014024b898     imgui.obj
 0003:000138e0       ??_C@_09LPFJCNIB@NAV?0FOCUS?$AA@ 000000014024b8e0     imgui.obj
 0003:000138f0       ??_C@_0BA@KJPDENCF@NavWindow?3?5?8?$CFs?8?$AA@ 000000014024b8f0     imgui.obj
 0003:00013908       ??_C@_0BM@KFFINKHC@NavId?3?50x?$CF08X?0?5NavLayer?3?5?$CFd?$AA@ 000000014024b908     imgui.obj
 0003:00013930       ??_C@_0BD@HIKDFBG@NavInputSource?3?5?$CFs?$AA@ 000000014024b930     imgui.obj
 0003:00013948       ??_C@_0BO@PADIALFI@NavActive?3?5?$CFd?0?5NavVisible?3?5?$CFd?$AA@ 000000014024b948     imgui.obj
 0003:00013970       ??_C@_0DM@KABEEAKJ@NavActivateId?1DownId?1PressedId?1I@ 000000014024b970     imgui.obj
 0003:000139b8       ??_C@_0BH@DDMJGBPN@NavActivateFlags?3?5?$CF04X?$AA@ 000000014024b9b8     imgui.obj
 0003:000139d8       ??_C@_0DC@PBLGJJAI@NavDisableHighlight?3?5?$CFd?0?5NavDisa@ 000000014024b9d8     imgui.obj
 0003:00013a18       ??_C@_0BJ@GGAKOFG@NavFocusScopeId?5?$DN?50x?$CF08X?$AA@ 000000014024ba18     imgui.obj
 0003:00013a38       ??_C@_0BJ@HGGGEMAP@NavWindowingTarget?3?5?8?$CFs?8?$AA@ 000000014024ba38     imgui.obj
 0003:00013a58       ??_C@_0CN@LMOAIACO@Columns?5Id?3?50x?$CF08X?0?5Count?3?5?$CFd?0?5F@ 000000014024ba58     imgui.obj
 0003:00013a90       ??_C@_0CF@PKFCLBKA@Width?3?5?$CF?41f?5?$CIMinX?3?5?$CF?41f?0?5MaxX?3?5?$CF@ 000000014024ba90     imgui.obj
 0003:00013ac0       ??_C@_0CJ@CPAFBJNN@Column?5?$CF02d?3?5OffsetNorm?5?$CF?43f?5?$CI?$DN?5@ 000000014024bac0     imgui.obj
 0003:00013af8       ??_C@_0CF@IMBENNLG@?$CFs?3?5?8?$CFs?8?5?$CFd?5vtx?0?5?$CFd?5indices?0?5?$CFd?5@ 000000014024baf8     imgui.obj
 0003:00013b28       ??_C@_0BE@LDCFEMCB@CURRENTLY?5APPENDING?$AA@ 000000014024bb28     imgui.obj
 0003:00013b40       ??_C@_0EJ@LNIIFBMO@Warning?3?5owning?5Window?5is?5inacti@ 000000014024bb40     imgui.obj
 0003:00013b98       ??_C@_0BK@FDNBBNBF@Callback?5?$CFp?0?5user_data?5?$CFp?$AA@ 000000014024bb98     imgui.obj
 0003:00013bc0       ??_C@_0EB@FAPEKKJB@DrawCmd?3?$CF5d?5tris?0?5Tex?50x?$CFp?0?5Clip@ 000000014024bbc0     imgui.obj
 0003:00013c10       ??_C@_0EE@EGAMBHDK@Mesh?3?5ElemCount?3?5?$CFd?0?5VtxOffset?3?5@ 000000014024bc10     imgui.obj
 0003:00013c64       ??_C@_05HCFPDLGJ@Vert?3?$AA@ 000000014024bc64     imgui.obj
 0003:00013c6c       ??_C@_05IFKLLJBC@?5?5?5?5?5?$AA@ 000000014024bc6c     imgui.obj
 0003:00013c78       ??_C@_0DG@MPIFBGBG@?$CFs?5?$CF04d?3?5pos?5?$CI?$CF8?42f?0?$CF8?42f?$CJ?0?5uv?5?$CI@ 000000014024bc78     imgui.obj
 0003:00013cb8       ??_C@_1CO@NHFPKPKM@?$AAs?$AAh?$AAo?$AAw?$AA_?$AAm?$AAe?$AAs?$AAh?$AA?5?$AA?$HM?$AA?$HM?$AA?5?$AAs?$AAh?$AAo?$AAw?$AA_?$AAa?$AAa?$AAb?$AAb?$AA?$AA@ 000000014024bcb8     imgui.obj
 0003:00013cf0       ??_C@_0CK@IFCNIJMP@Font?3?5?$CC?$CFs?$CC?6?$CF?42f?5px?0?5?$CFd?5glyphs?0?5?$CF@ 000000014024bcf0     imgui.obj
 0003:00013d28       ??_C@_0P@HCLAAKJM@Set?5as?5default?$AA@ 000000014024bd28     imgui.obj
 0003:00013d40       ??_C@_0CM@HCLJNHNJ@The?5quick?5brown?5fox?5jumps?5over?5t@ 000000014024bd40     imgui.obj
 0003:00013d74       ??_C@_04GGBPDDBN@?$CF?41f?$AA@ 000000014024bd74     imgui.obj
 0003:00013d80       ??_C@_0L@HAJGHBLA@Font?5scale?$AA@ 000000014024bd80     imgui.obj
 0003:00013d90       ??_C@_0BIM@BPPJLJKD@Note?5than?5the?5default?5embedded?5f@ 000000014024bd90     imgui.obj
 0003:00013f70       ??_C@_0CE@FJCMKHHK@Ascent?3?5?$CFf?0?5Descent?3?5?$CFf?0?5Height?3@ 000000014024bf70     imgui.obj
 0003:00013fa0       ??_C@_0CC@FDGLEGDM@Fallback?5character?3?5?8?$CFs?8?5?$CIU?$CL?$CF04X@ 000000014024bfa0     imgui.obj
 0003:00013fc8       ??_C@_0CC@FAJAAGEH@Ellipsis?5character?3?5?8?$CFs?8?5?$CIU?$CL?$CF04X@ 000000014024bfc8     imgui.obj
 0003:00013ff0       ??_C@_0CE@LLADJGCM@Texture?5Area?3?5about?5?$CFd?5px?5?$HO?$CFdx?$CFd@ 000000014024bff0     imgui.obj
 0003:00014020       ??_C@_0EJ@EOFKACMP@Input?5?$CFd?3?5?8?$CFs?8?0?5Oversample?3?5?$CI?$CFd?0@ 000000014024c020     imgui.obj
 0003:00014078       ??_C@_0M@NEAHLNMH@Glyphs?5?$CI?$CFd?$CJ?$AA@ 000000014024c078     imgui.obj
 0003:00014088       ??_C@_06EBCCDGNI@Glyphs?$AA@ 000000014024c088     imgui.obj
 0003:00014090       ??_C@_06IOJPAPEE@glyphs?$AA@ 000000014024c090     imgui.obj
 0003:00014098       ??_C@_05OIOMJNBL@glyph?$AA@ 000000014024c098     imgui.obj
 0003:000140a0       ??_C@_0BH@KIECHKHD@U?$CL?$CF04X?4?4U?$CL?$CF04X?5?$CI?$CFd?5?$CFs?$CJ?$AA@ 000000014024c0a0     imgui.obj
 0003:000140c0       ??_C@_0BC@JMLDGIFC@Codepoint?3?5U?$CL?$CF04X?$AA@ 000000014024c0c0     imgui.obj
 0003:000140d8       ??_C@_0M@GDBOFNKK@Visible?3?5?$CFd?$AA@ 000000014024c0d8     imgui.obj
 0003:000140e8       ??_C@_0P@JLIDDFIB@AdvanceX?3?5?$CF?41f?$AA@ 000000014024c0e8     imgui.obj
 0003:00014100       ??_C@_0BO@BCFBHCGJ@Pos?3?5?$CI?$CF?42f?0?$CF?42f?$CJ?9?$DO?$CI?$CF?42f?0?$CF?42f?$CJ?$AA@ 000000014024c100     imgui.obj
 0003:00014128       ??_C@_0BN@EHEDNDHJ@UV?3?5?$CI?$CF?43f?0?$CF?43f?$CJ?9?$DO?$CI?$CF?43f?0?$CF?43f?$CJ?$AA@ 000000014024c128     imgui.obj
 0003:00014150       ??_C@_0BJ@EFAEFOHB@?$CFs?3?5?$CFd?5entries?0?5?$CFd?5bytes?$AA@ 000000014024c150     imgui.obj
 0003:00014170       ??_C@_0BL@LEAFLIMO@Key?50x?$CF08X?5Value?5?$HL?5i?3?5?$CFd?5?$HN?$AA@ 000000014024c170     imgui.obj
 0003:00014190       ??_C@_0M@MDILNFHC@?5?$CKInactive?$CK?$AA@ 000000014024c190     imgui.obj
 0003:000141a0       ??_C@_0BG@BDDHJGDD@?$CFs?50x?$CF08X?5?$CI?$CFd?5tabs?$CJ?$CFs?$AA@ 000000014024c1a0     imgui.obj
 0003:000141bc       ??_C@_04JFAOCLML@?5?5?$HL?5?$AA@ 000000014024c1bc     imgui.obj
 0003:000141c4       ??_C@_03BBKEAIF@?$DP?$DP?$DP?$AA@ 000000014024c1c4     imgui.obj
 0003:000141c8       ??_C@_02KEGNLNML@?0?5?$AA@ 000000014024c1c8     imgui.obj
 0003:000141cc       ??_C@_06BKNPIBKB@?$CFs?8?$CFs?8?$AA@ 000000014024c1cc     imgui.obj
 0003:000141d4       ??_C@_06MEIHFGI@?5?4?4?4?5?$HN?$AA@ 000000014024c1d4     imgui.obj
 0003:000141dc       ??_C@_03LHCEFAHM@?5?$HN?5?$AA@ 000000014024c1dc     imgui.obj
 0003:000141e0       ??_C@_01MNNFJEPP@?$DM?$AA@ 000000014024c1e0     imgui.obj
 0003:000141e4       ??_C@_01PPODPGHN@?$DO?$AA@ 000000014024c1e4     imgui.obj
 0003:000141e8       ??_C@_0DG@DJKHNEAJ@?$CF02d?$CFc?5Tab?50x?$CF08X?5?8?$CFs?8?5Offset?3?5?$CF@ 000000014024c1e8     imgui.obj
 0003:00014228       ??_C@_0N@IHHEFJLI@Viewport?5?$CD?$CFd?$AA@ 000000014024c228     imgui.obj
 0003:00014238       ??_C@_09PLOOGGOG@viewport0?$AA@ 000000014024c238     imgui.obj
 0003:00014250       ??_C@_0GJ@COEDEIEA@Main?5Pos?3?5?$CI?$CF?40f?0?$CF?40f?$CJ?0?5Size?3?5?$CI?$CF?4@ 000000014024c250     imgui.obj
 0003:000142d0       ??_C@_0M@FAFJAKJI@?5OwnedByApp?$AA@ 000000014024c2d0     imgui.obj
 0003:000142e0       ??_C@_0BD@FKGIEJBE@?5IsPlatformMonitor?$AA@ 000000014024c2e0     imgui.obj
 0003:000142f8       ??_C@_0BC@KGGIDDGG@?5IsPlatformWindow?$AA@ 000000014024c2f8     imgui.obj
 0003:00014310       ??_C@_0BG@LEDJFOBI@Flags?3?50x?$CF04X?5?$DN?$CFs?$CFs?$CFs?$AA@ 000000014024c310     imgui.obj
 0003:00014330       ??_C@_08MGKMCIPB@?$CFs?3?5NULL?$AA@ 000000014024c330     imgui.obj
 0003:00014340       ??_C@_09GBCBPCGK@?$CFs?5?8?$CFs?8?$CFs?$AA@ 000000014024c340     imgui.obj
 0003:00014350       ??_C@_0DF@KJLKCABL@Note?3?5some?5memory?5buffers?5have?5b@ 000000014024c350     imgui.obj
 0003:00014390       ??_C@_0EP@MJAPPIBI@Pos?3?5?$CI?$CF?41f?0?$CF?41f?$CJ?0?5Size?3?5?$CI?$CF?41f?0?$CF?4@ 000000014024c390     imgui.obj
 0003:000143f0       ??_C@_0BB@GGEIPOID@AlwaysAutoResize?$AA@ 000000014024c3f0     imgui.obj
 0003:00014408       ??_C@_0M@COLEABDL@NoNavInputs?$AA@ 000000014024c408     imgui.obj
 0003:00014418       ??_C@_0O@LAPEOEIJ@NoMouseInputs?$AA@ 000000014024c418     imgui.obj
 0003:00014428       ??_C@_0BB@EBNDPMCP@NoSavedSettings?5?$AA@ 000000014024c428     imgui.obj
 0003:00014440       ??_C@_0L@OPMMHACC@ChildMenu?5?$AA@ 000000014024c440     imgui.obj
 0003:00014450       ??_C@_06IFIMNOLK@Modal?5?$AA@ 000000014024c450     imgui.obj
 0003:00014458       ??_C@_06NMKCIICK@Popup?5?$AA@ 000000014024c458     imgui.obj
 0003:00014460       ??_C@_08LGECAIGF@Tooltip?5?$AA@ 000000014024c460     imgui.obj
 0003:0001446c       ??_C@_06MMFPNIIL@Child?5?$AA@ 000000014024c46c     imgui.obj
 0003:00014478       ??_C@_0CF@HFFEAFCN@Flags?3?50x?$CF08X?5?$CI?$CFs?$CFs?$CFs?$CFs?$CFs?$CFs?$CFs?$CFs?$CF@ 000000014024c478     imgui.obj
 0003:000144a8       ??_C@_0CN@OBHMFINH@Scroll?3?5?$CI?$CF?42f?1?$CF?42f?0?$CF?42f?1?$CF?42f?$CJ?5Sc@ 000000014024c4a8     imgui.obj
 0003:000144e0       ??_C@_0DO@LPCMGHLI@Active?3?5?$CFd?1?$CFd?0?5WriteAccessed?3?5?$CFd@ 000000014024c4e0     imgui.obj
 0003:00014530       ??_C@_0EA@JLDPMAKO@Appearing?3?5?$CFd?0?5Hidden?3?5?$CFd?5?$CICanSk@ 000000014024c530     imgui.obj
 0003:00014580       ??_C@_0BH@EDAJMFBI@NavLastIds?$FL?$CFd?$FN?3?50x?$CF08X?$AA@ 000000014024c580     imgui.obj
 0003:000145a0       ??_C@_0DC@PKDENGJH@NavLastIds?$FL?$CFd?$FN?3?50x?$CF08X?5at?5?$CL?$CI?$CF?41f@ 000000014024c5a0     imgui.obj
 0003:000145e0       ??_C@_0DD@ILECKNFA@NavLayersActiveMask?3?5?$CFX?0?5NavLast@ 000000014024c5e0     imgui.obj
 0003:00014620       ??_C@_0L@EHLMOHOL@RootWindow?$AA@ 000000014024c620     imgui.obj
 0003:00014630       ??_C@_0N@BPPHAMMO@ParentWindow?$AA@ 000000014024c630     imgui.obj
 0003:00014640       ??_C@_0N@BGDHDNPO@ChildWindows?$AA@ 000000014024c640     imgui.obj
 0003:00014650       ??_C@_0BC@FIDDFLAI@Columns?5sets?5?$CI?$CFd?$CJ?$AA@ 000000014024c650     imgui.obj
 0003:00014668       ??_C@_07IBCCJKML@Columns?$AA@ 000000014024c668     imgui.obj
 0003:00014678       ??_C@_07PFGLPMIK@Storage?$AA@ 000000014024c678     imgui.obj
 0003:00014688       ??_C@_0DC@NLKEEDHM@0x?$CF08X?5?$CC?$CFs?$CC?5Pos?5?$CI?$CFd?0?$CFd?$CJ?5Size?5?$CI?$CFd@ 000000014024c688     imgui.obj
 0003:000146c8       ??_C@_07JMKCEEPK@?$CFs?5?$CI?$CFd?$CJ?$AA@ 000000014024c6c8     imgui.obj
 0003:000146d8       ??_C@_0O@LOOBKDLG@?$FL?$CF04d?$FN?5Window?$AA@ 000000014024c6d8     imgui.obj
 0003:000146e8       ??_C@_07CHALBAHD@?$FL?$CF05d?$FN?5?$AA@ 000000014024c6e8     imgui.obj
 0003:000146f8       ??_C@_0BF@DOBPLNCP@Dear?5ImGui?5Debug?5Log?$AA@ 000000014024c6f8     imgui.obj
 0003:00014718       ??_C@_0M@DNGOBPAF@Log?5events?3?$AA@ 000000014024c718     imgui.obj
 0003:00014728       ??_C@_03HFJGAJFE@All?$AA@  000000014024c728     imgui.obj
 0003:00014730       ??_C@_08LNBHPLFF@ActiveId?$AA@ 000000014024c730     imgui.obj
 0003:0001473c       ??_C@_05PDOFIPNC@Focus?$AA@ 000000014024c73c     imgui.obj
 0003:00014744       ??_C@_05EPOLMFOG@Popup?$AA@ 000000014024c744     imgui.obj
 0003:00014750       ??_C@_07JPNKMPHH@Clipper?$AA@ 000000014024c750     imgui.obj
 0003:0001475c       ??_C@_02IBEMDGI@IO?$AA@    000000014024c75c     imgui.obj
 0003:00014760       ??_C@_04OPMHGHMB@Copy?$AA@ 000000014024c760     imgui.obj
 0003:00014768       ??_C@_05FBKDEFNG@?$CD?$CDlog?$AA@ 000000014024c768     imgui.obj
 0003:00014770       ??_C@_02EMFKHFLK@?$CFX?$AA@ 000000014024c770     imgui.obj
 0003:00014778       ??_C@_0BC@JHPKFIGH@HoveredId?3?50x?$CF08X?$AA@ 000000014024c778     imgui.obj
 0003:00014790       ??_C@_0BM@IIPBLKLJ@Press?5ESC?5to?5abort?5picking?4?$AA@ 000000014024c790     imgui.obj
 0003:000147b4       ??_C@_04KPCPLBPL@Left?$AA@ 000000014024c7b4     imgui.obj
 0003:000147bc       ??_C@_05DADPALEM@Right?$AA@ 000000014024c7bc     imgui.obj
 0003:000147c4       ??_C@_06OJAFHGNF@Middle?$AA@ 000000014024c7c4     imgui.obj
 0003:000147d0       ??_C@_0EA@BFCGJGEN@Remap?5w?1?5Ctrl?$CLShift?3?5click?5anywh@ 000000014024c7d0     imgui.obj
 0003:00014820       ??_C@_0DM@LGIJPHCL@Click?5?$CFs?5Button?5to?5break?5in?5debu@ 000000014024c820     imgui.obj
 0003:00014868       ??_C@_1CM@DOANLKHH@?$AAt?$AAo?$AAo?$AAl?$AA?9?$AA?$DO?$AAS?$AAt?$AAa?$AAc?$AAk?$AAL?$AAe?$AAv?$AAe?$AAl?$AA?5?$AA?$DO?$AA?$DN?$AA?5?$AA0?$AA?$AA@ 000000014024c868     imgui.obj
 0003:000148a0       ??_C@_1FI@KCHPLDFI@?$AAi?$AAn?$AAf?$AAo?$AA?9?$AA?$DO?$AAI?$AAD?$AA?5?$AA?$DN?$AA?$DN?$AA?5?$AAi?$AAd?$AA?5?$AA?$CG?$AA?$CG?$AA?5?$AAi?$AAn?$AAf?$AAo?$AA?9?$AA?$DO?$AAQ?$AAu?$AAe?$AAr?$AAy?$AAF?$AAr?$AAa@ 000000014024c8a0     imgui.obj
 0003:0001490c       ??_C@_04EBNJJJJI@?$CF?4?$CKs?$AA@ 000000014024c90c     imgui.obj
 0003:00014918       ??_C@_0M@FNHADFEB@?$CIvoid?$CK?$CJ0x?$CFp?$AA@ 000000014024c918     imgui.obj
 0003:00014928       ??_C@_0BC@CHOABEME@0x?$CF08X?5?$FLoverride?$FN?$AA@ 000000014024c928     imgui.obj
 0003:00014940       ??_C@_0O@EFHIOPED@?$CC?$CFs?$CC?5?$FLwindow?$FN?$AA@ 000000014024c940     imgui.obj
 0003:00014950       ??_C@_0BG@DHHMNODH@Dear?5ImGui?5Stack?5Tool?$AA@ 000000014024c950     imgui.obj
 0003:00014970       ??_C@_0CF@KONAEAN@HoveredId?3?50x?$CF08X?0?5ActiveId?3?5?50x@ 000000014024c970     imgui.obj
 0003:000149a0       ??_C@_0BEF@BCBIEAKB@Hover?5an?5item?5with?5the?5mouse?5to?5@ 000000014024c9a0     imgui.obj
 0003:00014b28       ??_C@_0BP@DNALLFDP@Ctrl?$CLC?3?5copy?5path?5to?5clipboard?$AA@ 000000014024cb28     imgui.obj
 0003:00014b50       ??_C@_08PGCHFAAG@?$CKCOPIED?$CK?$AA@ 000000014024cb50     imgui.obj
 0003:00014b60       ??_C@_07OPPIOFCG@?$CD?$CDtable?$AA@ 000000014024cb60     imgui.obj
 0003:00014b70       ??_C@_0L@JCLNJJB@0xDDDDDDDD?$AA@ 000000014024cb70     imgui.obj
 0003:00014b80       ??_C@_04FBLBNKA@Seed?$AA@  000000014024cb80     imgui.obj
 0003:00014b88       ??_C@_06LBBHCMPJ@PushID?$AA@ 000000014024cb88     imgui.obj
 0003:00014b90       ??_C@_06GGONACPB@Result?$AA@ 000000014024cb90     imgui.obj
 0003:00014b98       ??_C@_06IMJBDBNO@0x?$CF08X?$AA@ 000000014024cb98     imgui.obj
 0003:00014ba0       ??_C@_1CO@GNMLDMBF@?$AAn?$AA?5?$AA?$DO?$AA?$DN?$AA?5?$AA0?$AA?5?$AA?$CG?$AA?$CG?$AA?5?$AAn?$AA?5?$AA?$DM?$AA?5?$AAB?$AAI?$AAT?$AAC?$AAO?$AAU?$AAN?$AAT?$AA?$AA@ 000000014024cba0     imgui.obj
 0003:00014bd8       ??_C@_1CG@GPMNJCJ@?$AAi?$AA?5?$AA?$DO?$AA?$DN?$AA?5?$AA0?$AA?5?$AA?$CG?$AA?$CG?$AA?5?$AAi?$AA?5?$AA?$DM?$AA?5?$AAS?$AAi?$AAz?$AAe?$AA?$AA@ 000000014024cbd8     imgui.obj
 0003:00014c08       ??_C@_1DC@DHFOGPCD@?$AAp?$AA?5?$AA?$DO?$AA?$DN?$AA?5?$AAD?$AAa?$AAt?$AAa?$AA?5?$AA?$CG?$AA?$CG?$AA?5?$AAp?$AA?5?$AA?$DM?$AA?5?$AAD?$AAa?$AAt?$AAa?$AAE?$AAn?$AAd?$AA?$AA@ 000000014024cc08     imgui.obj
 0003:00014c48       ??_C@_1DO@NPHOAPAC@?$AAi?$AAt?$AA?5?$AA?$DO?$AA?$DN?$AA?5?$AAD?$AAa?$AAt?$AAa?$AA?5?$AA?$CG?$AA?$CG?$AA?5?$AAi?$AAt?$AA?5?$AA?$DM?$AA?5?$AAD?$AAa?$AAt?$AAa?$AA?5?$AA?$CL?$AA?5?$AAS?$AAi?$AAz?$AAe?$AA?$AA@ 000000014024cc48     imgui.obj
 0003:00014c98       ??_C@_1BC@KCECIPDP@?$AAS?$AAi?$AAz?$AAe?$AA?5?$AA?$DO?$AA?5?$AA0?$AA?$AA@ 000000014024cc98     imgui.obj
 0003:00014cb0       ??_C@_1DE@BDDBABLK@?$AAp?$AA?5?$AA?$DO?$AA?$DN?$AA?5?$AAb?$AAe?$AAg?$AAi?$AAn?$AA?$CI?$AA?$CJ?$AA?5?$AA?$CG?$AA?$CG?$AA?5?$AAp?$AA?5?$AA?$DM?$AA?5?$AAe?$AAn?$AAd?$AA?$CI?$AA?$CJ?$AA?$AA@ 000000014024ccb0     imgui.obj
 0003:00014cf0       ??_C@_1BE@OEELIPPM@?$AAp?$AA?5?$AA?$DM?$AA?5?$AAe?$AAn?$AAd?$AA?$CI?$AA?$CJ?$AA?$AA@ 000000014024ccf0     imgui.obj
 0003:00014d08       ??_C@_1DG@EPOMENA@?$AAo?$AAf?$AAf?$AA?5?$AA?$DO?$AA?$DN?$AA?5?$AA4?$AA?5?$AA?$CG?$AA?$CG?$AA?5?$AAo?$AAf?$AAf?$AA?5?$AA?$DM?$AA?5?$AAB?$AAu?$AAf?$AA?4?$AAS?$AAi?$AAz?$AAe?$AA?$AA@ 000000014024cd08     imgui.obj
 0003:00014d50       ??_C@_1JE@CAGEIAMP@?$AAi?$AAt?$AA?5?$AA?$DO?$AA?$DN?$AA?5?$AAD?$AAa?$AAt?$AAa?$AA?5?$AA?$CG?$AA?$CG?$AA?5?$AAi?$AAt?$AA?5?$AA?$DM?$AA?5?$AAD?$AAa?$AAt?$AAa?$AA?5?$AA?$CL?$AA?5?$AAS?$AAi?$AAz?$AAe?$AA?5?$AA?$CG@ 000000014024cd50     imgui.obj
 0003:00014e10       ??_C@_1EA@INDCAEFK@?$AAi?$AAt?$AA?5?$AA?$DO?$AA?$DN?$AA?5?$AAD?$AAa?$AAt?$AAa?$AA?5?$AA?$CG?$AA?$CG?$AA?5?$AAi?$AAt?$AA?5?$AA?$DM?$AA?$DN?$AA?5?$AAD?$AAa?$AAt?$AAa?$AA?5?$AA?$CL?$AA?5?$AAS?$AAi?$AAz?$AAe?$AA?$AA@ 000000014024ce10     imgui.obj
 0003:00014e5c       __real@00000000            000000014024ce5c     imgui.obj
 0003:00014e60       __real@1e3ce508            000000014024ce60     imgui.obj
 0003:00014e64       __real@3727c5ac            000000014024ce64     imgui.obj
 0003:00014e68       __real@3b808081            000000014024ce68     imgui.obj
 0003:00014e6c       __real@3ba3d70a            000000014024ce6c     imgui.obj
 0003:00014e70       __real@3c23d70a            000000014024ce70     imgui.obj
 0003:00014e74       __real@3c888889            000000014024ce74     imgui.obj
 0003:00014e78       __real@3d23d70a            000000014024ce78     imgui.obj
 0003:00014e7c       __real@3d4ccccd            000000014024ce7c     imgui.obj
 0003:00014e80       __real@3dcccccd            000000014024ce80     imgui.obj
 0003:00014e84       __real@3e000000            000000014024ce84     imgui.obj
 0003:00014e88       __real@3e19999a            000000014024ce88     imgui.obj
 0003:00014e8c       __real@3e2aaaab            000000014024ce8c     imgui.obj
 0003:00014e90       __real@3e4ccccd            000000014024ce90     imgui.obj
 0003:00014e94       __real@3e800000            000000014024ce94     imgui.obj
 0003:00014e98       __real@3e8ccccd            000000014024ce98     imgui.obj
 0003:00014e9c       __real@3e99999a            000000014024ce9c     imgui.obj
 0003:00014ea0       __real@3ecccccd            000000014024cea0     imgui.obj
 0003:00014ea4       __real@3f000000            000000014024cea4     imgui.obj
 0003:00014ea8       __real@3f19999a            000000014024cea8     imgui.obj
 0003:00014eac       __real@3f266666            000000014024ceac     imgui.obj
 0003:00014eb0       __real@3f2b851f            000000014024ceb0     imgui.obj
 0003:00014eb4       __real@3f333333            000000014024ceb4     imgui.obj
 0003:00014eb8       __real@3f3851ec            000000014024ceb8     imgui.obj
 0003:00014ebc       __real@3f400000            000000014024cebc     imgui.obj
 0003:00014ec0       __real@3f490fdb            000000014024cec0     imgui.obj
 0003:00014ec4       __real@3f4ccccd            000000014024cec4     imgui.obj
 0003:00014ec8       __real@3f7fff58            000000014024cec8     imgui.obj
 0003:00014ecc       __real@3f800000            000000014024cecc     imgui.obj
 0003:00014ed0       __real@3f8ccccd            000000014024ced0     imgui.obj
 0003:00014ed4       __real@3fa00000            000000014024ced4     imgui.obj
 0003:00014ed8       __real@3faccccd            000000014024ced8     imgui.obj
 0003:00014edc       __real@3fc90fdb            000000014024cedc     imgui.obj
 0003:00014ee0       __real@3feffffde0000000    000000014024cee0     imgui.obj
 0003:00014eec       __real@40000000            000000014024ceec     imgui.obj
 0003:00014ef0       __real@40200000            000000014024cef0     imgui.obj
 0003:00014ef4       __real@40400000            000000014024cef4     imgui.obj
 0003:00014ef8       __real@40490fdb            000000014024cef8     imgui.obj
 0003:00014efc       __real@40600000            000000014024cefc     imgui.obj
 0003:00014f00       __real@40800000            000000014024cf00     imgui.obj
 0003:00014f04       __real@4096cbe4            000000014024cf04     imgui.obj
 0003:00014f08       __real@40a00000            000000014024cf08     imgui.obj
 0003:00014f0c       __real@40c00000            000000014024cf0c     imgui.obj
 0003:00014f10       __real@40e00000            000000014024cf10     imgui.obj
 0003:00014f14       __real@41000000            000000014024cf14     imgui.obj
 0003:00014f18       __real@41100000            000000014024cf18     imgui.obj
 0003:00014f1c       __real@41200000            000000014024cf1c     imgui.obj
 0003:00014f20       __real@41400000            000000014024cf20     imgui.obj
 0003:00014f24       __real@41600000            000000014024cf24     imgui.obj
 0003:00014f28       __real@41800000            000000014024cf28     imgui.obj
 0003:00014f2c       __real@41900000            000000014024cf2c     imgui.obj
 0003:00014f30       __real@41980000            000000014024cf30     imgui.obj
 0003:00014f34       __real@41a00000            000000014024cf34     imgui.obj
 0003:00014f38       __real@41a80000            000000014024cf38     imgui.obj
 0003:00014f3c       __real@41c00000            000000014024cf3c     imgui.obj
 0003:00014f40       __real@41c80000            000000014024cf40     imgui.obj
 0003:00014f44       __real@42000000            000000014024cf44     imgui.obj
 0003:00014f48       __real@420c0000            000000014024cf48     imgui.obj
 0003:00014f4c       __real@42700000            000000014024cf4c     imgui.obj
 0003:00014f50       __real@42a00000            000000014024cf50     imgui.obj
 0003:00014f54       __real@42c80000            000000014024cf54     imgui.obj
 0003:00014f58       __real@437f0000            000000014024cf58     imgui.obj
 0003:00014f5c       __real@43c80000            000000014024cf5c     imgui.obj
 0003:00014f60       __real@44160000            000000014024cf60     imgui.obj
 0003:00014f64       __real@44480000            000000014024cf64     imgui.obj
 0003:00014f68       __real@447a0000            000000014024cf68     imgui.obj
 0003:00014f6c       __real@4b800000            000000014024cf6c     imgui.obj
 0003:00014f70       __real@7f7fffff            000000014024cf70     imgui.obj
 0003:00014f74       __real@80800000            000000014024cf74     imgui.obj
 0003:00014f78       __real@beaaaaab            000000014024cf78     imgui.obj
 0003:00014f7c       __real@bf800000            000000014024cf7c     imgui.obj
 0003:00014f80       __real@c87a0000            000000014024cf80     imgui.obj
 0003:00014f84       __real@cb800000            000000014024cf84     imgui.obj
 0003:00014f88       __real@ff7fffff            000000014024cf88     imgui.obj
 0003:00014f90       __xmm@80000000800000008000000080000000 000000014024cf90     imgui.obj
 0003:0001519c       ??_C@_04BAJDEDPD@Root?$AA@ 000000014024d19c     imgui_demo.obj
 0003:000151a4       ??_C@_06HHJDFOK@Folder?$AA@ 000000014024d1a4     imgui_demo.obj
 0003:000151ac       ??_C@_05LMJFOPOI@Music?$AA@ 000000014024d1ac     imgui_demo.obj
 0003:000151b8       ??_C@_08FLHNKADJ@Textures?$AA@ 000000014024d1b8     imgui_demo.obj
 0003:000151c8       ??_C@_0M@NNNKMEPA@desktop?4ini?$AA@ 000000014024d1c8     imgui_demo.obj
 0003:000151d8       ??_C@_0M@IGEMGAFG@System?5file?$AA@ 000000014024d1d8     imgui_demo.obj
 0003:000151e8       ??_C@_0M@EKPJMDEN@File1_a?4wav?$AA@ 000000014024d1e8     imgui_demo.obj
 0003:000151f8       ??_C@_0L@COLMADCA@Audio?5file?$AA@ 000000014024d1f8     imgui_demo.obj
 0003:00015208       ??_C@_0M@MMGNLBOD@File1_b?4wav?$AA@ 000000014024d208     imgui_demo.obj
 0003:00015218       ??_C@_0N@FHEINFFG@Image001?4png?$AA@ 000000014024d218     imgui_demo.obj
 0003:00015228       ??_C@_0L@FLGLCLEK@Image?5file?$AA@ 000000014024d228     imgui_demo.obj
 0003:00015238       ??_C@_0BF@LIFBAFGM@Copy?5of?5Image001?4png?$AA@ 000000014024d238     imgui_demo.obj
 0003:00015258       ??_C@_0BO@DEMDOGLF@Copy?5of?5Image001?5?$CIFinal2?$CJ?4png?$AA@ 000000014024d258     imgui_demo.obj
 0003:00015280       ??_C@_0L@KKHKDDPE@Grapefruit?$AA@ 000000014024d280     imgui_demo.obj
 0003:00015290       ??_C@_09HNADIOOI@Blueberry?$AA@ 000000014024d290     imgui_demo.obj
 0003:0001529c       ??_C@_04PCFHDAMD@Plum?$AA@ 000000014024d29c     imgui_demo.obj
 0003:000152a8       ??_C@_07BHKDNCIF@Coconut?$AA@ 000000014024d2a8     imgui_demo.obj
 0003:000152b4       ??_C@_04FJCKHKHL@Pear?$AA@ 000000014024d2b4     imgui_demo.obj
 0003:000152c0       ??_C@_07GAABODDK@Apricot?$AA@ 000000014024d2c0     imgui_demo.obj
 0003:000152d0       ??_C@_07MCAEODGB@Default?$AA@ 000000014024d2d0     imgui_demo.obj
 0003:000152e0       ??_C@_0LF@IILMEFCL@Use?5default?5sizing?5policy?3?6?9?5ImG@ 000000014024d2e0     imgui_demo.obj
 0003:000153c0       ??_C@_0BP@MPLHLLNP@ImGuiTableFlags_SizingFixedFit?$AA@ 000000014024d3c0     imgui_demo.obj
 0003:000153f0       ??_C@_0GJ@LHMCJKNJ@Columns?5default?5to?5_WidthFixed?5?$CI@ 000000014024d3f0     imgui_demo.obj
 0003:00015470       ??_C@_0CA@HAGKEPPO@ImGuiTableFlags_SizingFixedSame?$AA@ 000000014024d470     imgui_demo.obj
 0003:000154a0       ??_C@_0KD@KKOOHGIJ@Columns?5are?5all?5the?5same?5width?0?5@ 000000014024d4a0     imgui_demo.obj
 0003:00015568       ??_C@_0CC@IBLLEAPK@ImGuiTableFlags_SizingStretchPro@ 000000014024d568     imgui_demo.obj
 0003:00015590       ??_C@_0EM@EAECLPPK@Columns?5default?5to?5_WidthStretch@ 000000014024d590     imgui_demo.obj
 0003:000155f0       ??_C@_0CC@LAIGPACB@ImGuiTableFlags_SizingStretchSam@ 000000014024d5f0     imgui_demo.obj
 0003:00015618       ??_C@_0DE@LNEEFNDM@Columns?5default?5to?5_WidthStretch@ 000000014024d618     imgui_demo.obj
 0003:00015658       ??_C@_05DDEOPHNO@Bobby?$AA@ 000000014024d658     imgui_demo.obj
 0003:00015660       ??_C@_08FLMMIHDE@Beatrice?$AA@ 000000014024d660     imgui_demo.obj
 0003:0001566c       ??_C@_05BECHDIPO@Betty?$AA@ 000000014024d66c     imgui_demo.obj
 0003:00015678       ??_C@_07OEGNBIJH@Brianna?$AA@ 000000014024d678     imgui_demo.obj
 0003:00015684       ??_C@_05MAEBLNFA@Barry?$AA@ 000000014024d684     imgui_demo.obj
 0003:00015690       ??_C@_07JNHNGBFJ@Bernard?$AA@ 000000014024d690     imgui_demo.obj
 0003:0001569c       ??_C@_04KCKMHEOC@Bibi?$AA@ 000000014024d69c     imgui_demo.obj
 0003:000156a4       ??_C@_06HGIOBEEM@Blaine?$AA@ 000000014024d6a4     imgui_demo.obj
 0003:000156ac       ??_C@_04HKIGHOCK@Bryn?$AA@ 000000014024d6ac     imgui_demo.obj
 0003:000156b8       ??_C@_08HGEMKAAG@Item?5One?$AA@ 000000014024d6b8     imgui_demo.obj
 0003:000156c8       ??_C@_08BIEMAAON@Item?5Two?$AA@ 000000014024d6c8     imgui_demo.obj
 0003:000156d8       ??_C@_0L@PNIFIMNF@Item?5Three?$AA@ 000000014024d6d8     imgui_demo.obj
 0003:000156e8       ??_C@_09FNJGFEIF@Item?5Four?$AA@ 000000014024d6e8     imgui_demo.obj
 0003:000156f8       ??_C@_09HPDIDBJG@Item?5Five?$AA@ 000000014024d6f8     imgui_demo.obj
 0003:00015704       ??_C@_05EBJDGKGA@Apple?$AA@ 000000014024d704     imgui_demo.obj
 0003:0001570c       ??_C@_06OJJIHNKI@Banana?$AA@ 000000014024d70c     imgui_demo.obj
 0003:00015714       ??_C@_06MKLLCMPJ@Cherry?$AA@ 000000014024d714     imgui_demo.obj
 0003:0001571c       ??_C@_04LFFBHHAI@Kiwi?$AA@ 000000014024d71c     imgui_demo.obj
 0003:00015724       ??_C@_05CNKNDDOO@Mango?$AA@ 000000014024d724     imgui_demo.obj
 0003:0001572c       ??_C@_06LMIDBFFB@Orange?$AA@ 000000014024d72c     imgui_demo.obj
 0003:00015738       ??_C@_09EBEMMGPP@Pineapple?$AA@ 000000014024d738     imgui_demo.obj
 0003:00015748       ??_C@_0L@BNANDFPN@Strawberry?$AA@ 000000014024d748     imgui_demo.obj
 0003:00015758       ??_C@_0L@JJNGHCMI@Watermelon?$AA@ 000000014024d758     imgui_demo.obj
 0003:0001a4a8       ??_C@_1BM@COLNJNAB@?$AAB?$AAu?$AAf?$AA?4?$AAD?$AAa?$AAt?$AAa?$AA?5?$AA?$CB?$AA?$DN?$AA?5?$AA0?$AA?$AA@ 00000001402524a8     imgui_demo.obj
 0003:0001a4d0       ??_C@_09EEKGDCPH@?$DMunknown?$DO?$AA@ 00000001402524d0     imgui_demo.obj
 0003:0001a4e0       ??_C@_0DD@MGKHNCLH@Missing?5dear?5imgui?5context?4?5Refe@ 00000001402524e0     imgui_demo.obj
 0003:0001a520       ??_C@_1FM@DPDGFNDC@?$AAc?$AA?3?$AA?2?$AAg?$AAi?$AAt?$AAh?$AAu?$AAb?$AA?2?$AAf?$AAr?$AAa?$AAm?$AAe?$AAw?$AAo?$AAr?$AAk?$AA?2?$AAt?$AAo?$AAo?$AAl?$AA?2?$AAi?$AAm?$AAg?$AAu?$AAi?$AA?2?$AAi@ 0000000140252520     imgui_demo.obj
 0003:0001a590       ??_C@_1LA@COADBOEK@?$AAI?$AAm?$AAG?$AAu?$AAi?$AA?3?$AA?3?$AAG?$AAe?$AAt?$AAC?$AAu?$AAr?$AAr?$AAe?$AAn?$AAt?$AAC?$AAo?$AAn?$AAt?$AAe?$AAx?$AAt?$AA?$CI?$AA?$CJ?$AA?5?$AA?$CB?$AA?$DN?$AA?5?$AA0?$AA?5@ 0000000140252590     imgui_demo.obj
 0003:0001a668       ??_C@_0BI@DDJBLHAK@Dear?5ImGui?5Style?5Editor?$AA@ 0000000140252668     imgui_demo.obj
 0003:0001a688       ??_C@_0BA@IGMFAKOE@Dear?5ImGui?5Demo?$AA@ 0000000140252688     imgui_demo.obj
 0003:0001a6a0       ??_C@_09CENEJNFC@Menu?1File?$AA@ 00000001402526a0     imgui_demo.obj
 0003:0001a6b0       ??_C@_0CO@PPMGEAFH@c?3?2github?2framework?2tool?2imgui?2i@ 00000001402526b0     imgui_demo.obj
 0003:0001a6e8       ??_C@_08KJMBPHGD@Examples?$AA@ 00000001402526e8     imgui_demo.obj
 0003:0001a6f8       ??_C@_0O@ILKMGNBH@Menu?1Examples?$AA@ 00000001402526f8     imgui_demo.obj
 0003:0001a708       ??_C@_0O@ECNFCDDH@Main?5menu?5bar?$AA@ 0000000140252708     imgui_demo.obj
 0003:0001a718       ??_C@_07PGLPGHFC@Console?$AA@ 0000000140252718     imgui_demo.obj
 0003:0001a724       ??_C@_03GGEOLGBL@Log?$AA@  0000000140252724     imgui_demo.obj
 0003:0001a728       ??_C@_0O@JBJOEMFC@Simple?5layout?$AA@ 0000000140252728     imgui_demo.obj
 0003:0001a738       ??_C@_0BA@DNAHAJCI@Property?5editor?$AA@ 0000000140252738     imgui_demo.obj
 0003:0001a750       ??_C@_0BC@INJCBODH@Long?5text?5display?$AA@ 0000000140252750     imgui_demo.obj
 0003:0001a768       ??_C@_0BF@OHKJAELB@Auto?9resizing?5window?$AA@ 0000000140252768     imgui_demo.obj
 0003:0001a788       ??_C@_0BM@CJMMFMCL@Constrained?9resizing?5window?$AA@ 0000000140252788     imgui_demo.obj
 0003:0001a7b0       ??_C@_0P@IMGHCBNF@Simple?5overlay?$AA@ 00000001402527b0     imgui_demo.obj
 0003:0001a7c8       ??_C@_0BC@EPMOEMI@Fullscreen?5window?$AA@ 00000001402527c8     imgui_demo.obj
 0003:0001a7e0       ??_C@_0BL@MDGJIIDL@Manipulating?5window?5titles?$AA@ 00000001402527e0     imgui_demo.obj
 0003:0001a800       ??_C@_0BB@MLNDPKFI@Custom?5rendering?$AA@ 0000000140252800     imgui_demo.obj
 0003:0001a818       ??_C@_09IBGBKIMC@Documents?$AA@ 0000000140252818     imgui_demo.obj
 0003:0001a828       ??_C@_0L@FNGJAMCB@Menu?1Tools?$AA@ 0000000140252828     imgui_demo.obj
 0003:0001a838       ??_C@_0BB@DAKIBJMB@Metrics?1Debugger?$AA@ 0000000140252838     imgui_demo.obj
 0003:0001a850       ??_C@_09NNILCKOM@Debug?5Log?$AA@ 0000000140252850     imgui_demo.obj
 0003:0001a860       ??_C@_0L@DFPCNJKK@Stack?5Tool?$AA@ 0000000140252860     imgui_demo.obj
 0003:0001a870       ??_C@_0N@GJBKNEHA@Style?5Editor?$AA@ 0000000140252870     imgui_demo.obj
 0003:0001a880       ??_C@_0BB@NKKLPDOL@About?5Dear?5ImGui?$AA@ 0000000140252880     imgui_demo.obj
 0003:0001a898       ??_C@_0CB@NIEBLCEF@dear?5imgui?5says?5hello?$CB?5?$CI?$CFs?$CJ?5?$CI?$CFd?$CJ@ 0000000140252898     imgui_demo.obj
 0003:0001a8c0       ??_C@_04DDFEFHOJ@Help?$AA@ 00000001402528c0     imgui_demo.obj
 0003:0001a8c8       ??_C@_0BB@LJBDHCFD@ABOUT?5THIS?5DEMO?3?$AA@ 00000001402528c8     imgui_demo.obj
 0003:0001a8e0       ??_C@_0DO@FBJHOIEP@Sections?5below?5are?5demonstrating@ 00000001402528e0     imgui_demo.obj
 0003:0001a930       ??_C@_0DH@GKLDFKKO@The?5?$CCExamples?$CC?5menu?5above?5leads?5@ 0000000140252930     imgui_demo.obj
 0003:0001a980       ??_C@_0ID@INLAEEEH@The?5?$CCTools?$CC?5menu?5above?5gives?5acc@ 0000000140252980     imgui_demo.obj
 0003:0001aa20       ??_C@_0BC@GECCEBDK@PROGRAMMER?5GUIDE?3?$AA@ 0000000140252a20     imgui_demo.obj
 0003:0001aa40       ??_C@_0EC@GEILMFPK@See?5the?5ShowDemoWindow?$CI?$CJ?5code?5in@ 0000000140252a40     imgui_demo.obj
 0003:0001aa90       ??_C@_0BL@CMPGJGKF@See?5comments?5in?5imgui?4cpp?4?$AA@ 0000000140252a90     imgui_demo.obj
 0003:0001aab0       ??_C@_0DC@LILBLMCJ@See?5example?5applications?5in?5the?5@ 0000000140252ab0     imgui_demo.obj
 0003:0001aaf0       ??_C@_0CO@IHPGPBLH@Read?5the?5FAQ?5at?5http?3?1?1www?4deari@ 0000000140252af0     imgui_demo.obj
 0003:0001ab30       ??_C@_0EB@MLAMCLHL@Set?5?8io?4ConfigFlags?5?$HM?$DN?5NavEnable@ 0000000140252b30     imgui_demo.obj
 0003:0001ab80       ??_C@_0DP@CIADOILL@Set?5?8io?4ConfigFlags?5?$HM?$DN?5NavEnable@ 0000000140252b80     imgui_demo.obj
 0003:0001abd0       ??_C@_0M@NDGNNOFI@USER?5GUIDE?3?$AA@ 0000000140252bd0     imgui_demo.obj
 0003:0001abe0       ??_C@_0O@PIILMNHI@Configuration?$AA@ 0000000140252be0     imgui_demo.obj
 0003:0001abf0       ??_C@_0BB@DLCAGGKD@Configuration?$CD?$CD2?$AA@ 0000000140252bf0     imgui_demo.obj
 0003:0001ac08       ??_C@_0CC@MKDHACD@io?4ConfigFlags?3?5NavEnableKeyboar@ 0000000140252c08     imgui_demo.obj
 0003:0001ac30       ??_C@_0BK@OJOJPPOF@Enable?5keyboard?5controls?4?$AA@ 0000000140252c30     imgui_demo.obj
 0003:0001ac50       ??_C@_0CB@MCNBOBFF@io?4ConfigFlags?3?5NavEnableGamepad@ 0000000140252c50     imgui_demo.obj
 0003:0001ac80       ??_C@_0IO@MJIBAPFF@Enable?5gamepad?5controls?4?5Require@ 0000000140252c80     imgui_demo.obj
 0003:0001ad30       ??_C@_0CF@BBHAMFJD@io?4ConfigFlags?3?5NavEnableSetMous@ 0000000140252d30     imgui_demo.obj
 0003:0001ad60       ??_C@_0GF@EIFIGBGA@Instruct?5navigation?5to?5move?5the?5@ 0000000140252d60     imgui_demo.obj
 0003:0001ade0       ??_C@_0BI@FJCAMGFF@io?4ConfigFlags?3?5NoMouse?$AA@ 0000000140252de0     imgui_demo.obj
 0003:0001ae00       ??_C@_0BL@MKGMHIPJ@?$DM?$DMPRESS?5SPACE?5TO?5DISABLE?$DO?$DO?$AA@ 0000000140252e00     imgui_demo.obj
 0003:0001ae20       ??_C@_0CE@KNKEEHDL@io?4ConfigFlags?3?5NoMouseCursorCha@ 0000000140252e20     imgui_demo.obj
 0003:0001ae50       ??_C@_0EB@JJIOMJIM@Instruct?5backend?5to?5not?5alter?5mo@ 0000000140252e50     imgui_demo.obj
 0003:0001aea0       ??_C@_0CA@FACKLLEL@io?4ConfigInputTrickleEventQueue?$AA@ 0000000140252ea0     imgui_demo.obj
 0003:0001aed0       ??_C@_0LM@IEPLLLKB@Enable?5input?5queue?5trickling?3?5so@ 0000000140252ed0     imgui_demo.obj
 0003:0001afb8       ??_C@_0BO@GBANMLLJ@io?4ConfigInputTextCursorBlink?$AA@ 0000000140252fb8     imgui_demo.obj
 0003:0001afe0       ??_C@_0EP@OGONDEMG@Enable?5blinking?5cursor?5?$CIoptional@ 0000000140252fe0     imgui_demo.obj
 0003:0001b040       ??_C@_0CC@CDNGJGDB@io?4ConfigInputTextEnterKeepActiv@ 0000000140253040     imgui_demo.obj
 0003:0001b070       ??_C@_0EN@DGPMAAAP@Pressing?5Enter?5will?5keep?5item?5ac@ 0000000140253070     imgui_demo.obj
 0003:0001b0d0       ??_C@_0BO@DELEKPMI@io?4ConfigDragClickToInputText?$AA@ 00000001402530d0     imgui_demo.obj
 0003:0001b100       ??_C@_0GD@MCICHOGF@Enable?5turning?5DragXXX?5widgets?5i@ 0000000140253100     imgui_demo.obj
 0003:0001b178       ??_C@_0CA@IFIIDADM@io?4ConfigWindowsResizeFromEdges?$AA@ 0000000140253178     imgui_demo.obj
 0003:0001b1a0       ??_C@_0LI@DCCFFPOA@Enable?5resizing?5of?5windows?5from?5@ 00000001402531a0     imgui_demo.obj
 0003:0001b280       ??_C@_0CF@PKBLIGGG@io?4ConfigWindowsMoveFromTitleBar@ 0000000140253280     imgui_demo.obj
 0003:0001b2b0       ??_C@_0BD@PFDMJJAG@io?4MouseDrawCursor?$AA@ 00000001402532b0     imgui_demo.obj
 0003:0001b2d0       ??_C@_0BFK@CKDHFBDH@Instruct?5Dear?5ImGui?5to?5render?5a?5@ 00000001402532d0     imgui_demo.obj
 0003:0001b470       ??_C@_0DB@KCBPEEMI@Also?5see?5Style?9?$DORendering?5for?5re@ 0000000140253470     imgui_demo.obj
 0003:0001b4b0       ??_C@_0BM@FFMOEAGC@Configuration?1Backend?5Flags?$AA@ 00000001402534b0     imgui_demo.obj
 0003:0001b4d8       ??_C@_0O@GGPAPCP@Backend?5Flags?$AA@ 00000001402534d8     imgui_demo.obj
 0003:0001b4f0       ??_C@_0LE@FBDHIPGL@Those?5flags?5are?5set?5by?5the?5backe@ 00000001402534f0     imgui_demo.obj
 0003:0001b5c8       ??_C@_0BM@KECFJBMD@io?4BackendFlags?3?5HasGamepad?$AA@ 00000001402535c8     imgui_demo.obj
 0003:0001b5f0       ??_C@_0CB@OGFIDKNB@io?4BackendFlags?3?5HasMouseCursors@ 00000001402535f0     imgui_demo.obj
 0003:0001b618       ??_C@_0CA@JKLPDGP@io?4BackendFlags?3?5HasSetMousePos?$AA@ 0000000140253618     imgui_demo.obj
 0003:0001b640       ??_C@_0CG@EKAIMAPC@io?4BackendFlags?3?5RendererHasVtxO@ 0000000140253640     imgui_demo.obj
 0003:0001b670       ??_C@_0BE@IHLGIHAH@Configuration?1Style?$AA@ 0000000140253670     imgui_demo.obj
 0003:0001b688       ??_C@_05IHAFCALK@Style?$AA@ 0000000140253688     imgui_demo.obj
 0003:0001b690       ??_C@_0GJ@COKJKNBB@The?5same?5contents?5can?5be?5accesse@ 0000000140253690     imgui_demo.obj
 0003:0001b710       ??_C@_0BP@HOEFEDAL@Configuration?1Capture?0?5Logging?$AA@ 0000000140253710     imgui_demo.obj
 0003:0001b738       ??_C@_0BA@BMMAIOLM@Capture?1Logging?$AA@ 0000000140253738     imgui_demo.obj
 0003:0001b750       ??_C@_0PC@PAKMBOJC@The?5logging?5API?5redirects?5all?5te@ 0000000140253750     imgui_demo.obj
 0003:0001b880       ??_C@_0FK@CDOBPMKK@You?5can?5also?5call?5ImGui?3?3LogText@ 0000000140253880     imgui_demo.obj
 0003:0001b8f0       ??_C@_0CC@DLICJJEI@Copy?5?$CCHello?0?5world?$CB?$CC?5to?5clipboar@ 00000001402538f0     imgui_demo.obj
 0003:0001b918       ??_C@_0O@GEHPLBPJ@Hello?0?5world?$CB?$AA@ 0000000140253918     imgui_demo.obj
 0003:0001b928       ??_C@_0P@FBBKILOB@Window?5options?$AA@ 0000000140253928     imgui_demo.obj
 0003:0001b93c       ??_C@_05EHPMMFBK@split?$AA@ 000000014025393c     imgui_demo.obj
 0003:0001b948       ??_C@_0M@EABCFDNG@No?5titlebar?$AA@ 0000000140253948     imgui_demo.obj
 0003:0001b958       ??_C@_0N@GGGGKBFF@No?5scrollbar?$AA@ 0000000140253958     imgui_demo.obj
 0003:0001b968       ??_C@_07KBMDBGCH@No?5menu?$AA@ 0000000140253968     imgui_demo.obj
 0003:0001b978       ??_C@_07JGIJBGNK@No?5move?$AA@ 0000000140253978     imgui_demo.obj
 0003:0001b988       ??_C@_09HMNEIDKA@No?5resize?$AA@ 0000000140253988     imgui_demo.obj
 0003:0001b998       ??_C@_0M@PFMGNBM@No?5collapse?$AA@ 0000000140253998     imgui_demo.obj
 0003:0001b9a8       ??_C@_08DGAKPBEJ@No?5close?$AA@ 00000001402539a8     imgui_demo.obj
 0003:0001b9b4       ??_C@_06KFENEDHJ@No?5nav?$AA@ 00000001402539b4     imgui_demo.obj
 0003:0001b9c0       ??_C@_0O@EHIGJHPL@No?5background?$AA@ 00000001402539c0     imgui_demo.obj
 0003:0001b9d0       ??_C@_0BC@FKMLNKJL@No?5bring?5to?5front?$AA@ 00000001402539d0     imgui_demo.obj
 0003:0001b9e8       ??_C@_0BB@BPJMKDGK@Unsaved?5document?$AA@ 00000001402539e8     imgui_demo.obj
 0003:0001b9fc       ??_C@_05EAJAAGNN@imgui?$AA@ 00000001402539fc     imgui_demo.obj
 0003:0001ba04       ??_C@_02DJGKEECL@?4?4?$AA@ 0000000140253a04     imgui_demo.obj
 0003:0001ba08       ??_C@_0M@GNLHKNNA@Pressed?5Up?$CB?$AA@ 0000000140253a08     imgui_demo.obj
 0003:0001ba18       ??_C@_0O@CDNFAFCH@Pressed?5Down?$CB?$AA@ 0000000140253a18     imgui_demo.obj
 0003:0001ba28       ??_C@_1DK@GBCOMGGK@?$AAm?$AAy?$AA_?$AAs?$AAt?$AAr?$AA?9?$AA?$DO?$AAb?$AAe?$AAg?$AAi?$AAn?$AA?$CI?$AA?$CJ?$AA?5?$AA?$DN?$AA?$DN?$AA?5?$AAd?$AAa?$AAt?$AAa?$AA?9?$AA?$DO?$AAB?$AAu?$AAf?$AA?$AA@ 0000000140253a28     imgui_demo.obj
 0003:0001ba70       ??_C@_1GE@PBHHHBJD@?$AA?$CI?$AAf?$AAl?$AAa?$AAg?$AAs?$AA?5?$AA?$CG?$AA?5?$AAI?$AAm?$AAG?$AAu?$AAi?$AAI?$AAn?$AAp?$AAu?$AAt?$AAT?$AAe?$AAx?$AAt?$AAF?$AAl?$AAa?$AAg?$AAs?$AA_?$AAC?$AAa?$AAl@ 0000000140253a70     imgui_demo.obj
 0003:0001bae8       ??_C@_07DIHFNIOG@Widgets?$AA@ 0000000140253ae8     imgui_demo.obj
 0003:0001baf8       ??_C@_0O@KAGKFDNH@Widgets?1Basic?$AA@ 0000000140253af8     imgui_demo.obj
 0003:0001bb08       ??_C@_05NIKDGMHP@Basic?$AA@ 0000000140253b08     imgui_demo.obj
 0003:0001bb10       ??_C@_0BF@ICEAACFD@Widgets?1Basic?1Button?$AA@ 0000000140253b10     imgui_demo.obj
 0003:0001bb30       ??_C@_0BI@IPKGBENJ@Thanks?5for?5clicking?5me?$CB?$AA@ 0000000140253b30     imgui_demo.obj
 0003:0001bb50       ??_C@_0BH@ELBMBOIA@Widgets?1Basic?1Checkbox?$AA@ 0000000140253b50     imgui_demo.obj
 0003:0001bb70       ??_C@_08PDFIPFLP@checkbox?$AA@ 0000000140253b70     imgui_demo.obj
 0003:0001bb80       ??_C@_0BK@MHILAAII@Widgets?1Basic?1RadioButton?$AA@ 0000000140253b80     imgui_demo.obj
 0003:0001bba0       ??_C@_07HJMAFCAJ@radio?5a?$AA@ 0000000140253ba0     imgui_demo.obj
 0003:0001bbb0       ??_C@_07FCONABMK@radio?5b?$AA@ 0000000140253bb0     imgui_demo.obj
 0003:0001bbc0       ??_C@_07ELPGDAIL@radio?5c?$AA@ 0000000140253bc0     imgui_demo.obj
 0003:0001bbd0       ??_C@_0CA@HMPFCLAN@Widgets?1Basic?1Buttons?5?$CIColored?$CJ?$AA@ 0000000140253bd0     imgui_demo.obj
 0003:0001bbf8       ??_C@_05BBIFMDEO@Click?$AA@ 0000000140253bf8     imgui_demo.obj
 0003:0001bc00       ??_C@_0BA@FMOKFMLK@Hold?5to?5repeat?3?$AA@ 0000000140253c00     imgui_demo.obj
 0003:0001bc18       ??_C@_0CC@NDENGMIB@Widgets?1Basic?1Buttons?5?$CIRepeating@ 0000000140253c18     imgui_demo.obj
 0003:0001bc40       ??_C@_06EKMNOCAF@?$CD?$CDleft?$AA@ 0000000140253c40     imgui_demo.obj
 0003:0001bc48       ??_C@_07GKNPDGAE@?$CD?$CDright?$AA@ 0000000140253c48     imgui_demo.obj
 0003:0001bc58       ??_C@_0BH@BNGBGPGO@Widgets?1Basic?1Tooltips?$AA@ 0000000140253c58     imgui_demo.obj
 0003:0001bc78       ??_C@_09HGDNJJEP@Tooltips?3?$AA@ 0000000140253c78     imgui_demo.obj
 0003:0001bc88       ??_C@_0P@HKPBNOOC@I?5am?5a?5tooltip?$AA@ 0000000140253c88     imgui_demo.obj
 0003:0001bc9c       ??_C@_05FMPLNOCG@Fancy?$AA@ 0000000140253c9c     imgui_demo.obj
 0003:0001bca8       ??_C@_0BF@CIONDOGG@I?5am?5a?5fancy?5tooltip?$AA@ 0000000140253ca8     imgui_demo.obj
 0003:0001bcc4       ??_C@_05HPADKKDG@Curve?$AA@ 0000000140253cc4     imgui_demo.obj
 0003:0001bcd0       ??_C@_0P@IAGOFNGP@Sin?$CItime?$CJ?5?$DN?5?$CFf?$AA@ 0000000140253cd0     imgui_demo.obj
 0003:0001bce8       ??_C@_07GMFKFGGB@Delayed?$AA@ 0000000140253ce8     imgui_demo.obj
 0003:0001bcf8       ??_C@_0BN@GILFHKEA@I?5am?5a?5tooltip?5with?5a?5delay?4?$AA@ 0000000140253cf8     imgui_demo.obj
 0003:0001bd20       ??_C@_0FB@OEHHDLEI@Tooltip?5are?5created?5by?5using?5the@ 0000000140253d20     imgui_demo.obj
 0003:0001bd84       ??_C@_05LPIJGKJ@Value?$AA@ 0000000140253d84     imgui_demo.obj
 0003:0001bd8c       ??_C@_05IDCCNNGI@label?$AA@ 0000000140253d8c     imgui_demo.obj
 0003:0001bd98       ??_C@_0BI@EBJBEBDI@Widgets?1Basic?1InputText?$AA@ 0000000140253d98     imgui_demo.obj
 0003:0001bdb8       ??_C@_0L@GKEMLLGG@input?5text?$AA@ 0000000140253db8     imgui_demo.obj
 0003:0001bdd0       ??_C@_0BJJ@PIFHNINF@USER?3?6Hold?5SHIFT?5or?5use?5mouse?5to@ 0000000140253dd0     imgui_demo.obj
 0003:0001bfc0       ??_C@_0BA@DCMOPOEB@enter?5text?5here?$AA@ 0000000140253fc0     imgui_demo.obj
 0003:0001bfd8       ??_C@_0BF@FKMBICKL@input?5text?5?$CIw?1?5hint?$CJ?$AA@ 0000000140253fd8     imgui_demo.obj
 0003:0001bff8       ??_C@_0CD@BADBEAE@Widgets?1Basic?1InputInt?0?5InputFlo@ 0000000140253ff8     imgui_demo.obj
 0003:0001c028       ??_C@_09KJGAAOJL@input?5int?$AA@ 0000000140254028     imgui_demo.obj
 0003:0001c034       ??_C@_04GFJLOHHD@?$CF?43f?$AA@ 0000000140254034     imgui_demo.obj
 0003:0001c040       ??_C@_0M@HLMFPLHI@input?5float?$AA@ 0000000140254040     imgui_demo.obj
 0003:0001c050       ??_C@_04GJMOAIJC@?$CF?48f?$AA@ 0000000140254050     imgui_demo.obj
 0003:0001c058       ??_C@_0N@HNPEBCJF@input?5double?$AA@ 0000000140254058     imgui_demo.obj
 0003:0001c068       ??_C@_02CGLCDNAE@?$CFe?$AA@ 0000000140254068     imgui_demo.obj
 0003:0001c070       ??_C@_0BB@MKDEHDDF@input?5scientific?$AA@ 0000000140254070     imgui_demo.obj
 0003:0001c090       ??_C@_0FG@KKFDAGLG@You?5can?5input?5value?5using?5the?5sc@ 0000000140254090     imgui_demo.obj
 0003:0001c0f8       ??_C@_0N@KKMOFJMF@input?5float3?$AA@ 00000001402540f8     imgui_demo.obj
 0003:0001c108       ??_C@_0CB@CBDDBCCE@Widgets?1Basic?1DragInt?0?5DragFloat@ 0000000140254108     imgui_demo.obj
 0003:0001c130       ??_C@_08EAMJBIPC@drag?5int?$AA@ 0000000140254130     imgui_demo.obj
 0003:0001c140       ??_C@_0HA@JJHPNEPM@Click?5and?5drag?5to?5edit?5value?4?6Ho@ 0000000140254140     imgui_demo.obj
 0003:0001c1c8       ??_C@_04FCMNJMCO@?$CFd?$CF?$CF?$AA@ 00000001402541c8     imgui_demo.obj
 0003:0001c1d0       ??_C@_0BA@MCINAHBB@drag?5int?50?4?4100?$AA@ 00000001402541d0     imgui_demo.obj
 0003:0001c1e8       ??_C@_0L@DLCOHHGO@drag?5float?$AA@ 00000001402541e8     imgui_demo.obj
 0003:0001c1f8       ??_C@_08LHDHPMPH@?$CF?406f?5ns?$AA@ 00000001402541f8     imgui_demo.obj
 0003:0001c208       ??_C@_0BB@CIODINPI@drag?5small?5float?$AA@ 0000000140254208     imgui_demo.obj
 0003:0001c220       ??_C@_0CF@NOCPNFME@Widgets?1Basic?1SliderInt?0?5SliderF@ 0000000140254220     imgui_demo.obj
 0003:0001c250       ??_C@_0L@INJDAFHM@slider?5int?$AA@ 0000000140254250     imgui_demo.obj
 0003:0001c260       ??_C@_0BL@FBJLFMJ@CTRL?$CLclick?5to?5input?5value?4?$AA@ 0000000140254260     imgui_demo.obj
 0003:0001c280       ??_C@_0N@BCCPFMAI@ratio?5?$DN?5?$CF?43f?$AA@ 0000000140254280     imgui_demo.obj
 0003:0001c290       ??_C@_0N@PNCIGDCI@slider?5float?$AA@ 0000000140254290     imgui_demo.obj
 0003:0001c2a0       ??_C@_04GANEPBPG@?$CF?44f?$AA@ 00000001402542a0     imgui_demo.obj
 0003:0001c2a8       ??_C@_0BD@PPOMGMAE@slider?5float?5?$CIlog?$CJ?$AA@ 00000001402542a8     imgui_demo.obj
 0003:0001c2c0       ??_C@_0BK@LMANIBOG@Widgets?1Basic?1SliderAngle?$AA@ 00000001402542c0     imgui_demo.obj
 0003:0001c2e0       ??_C@_08FKIHKODH@?$CF?40f?5deg?$AA@ 00000001402542e0     imgui_demo.obj
 0003:0001c2f0       ??_C@_0N@EFIJIFM@slider?5angle?$AA@ 00000001402542f0     imgui_demo.obj
 0003:0001c300       ??_C@_0BM@MKFJNJNL@Widgets?1Basic?1Slider?5?$CIenum?$CJ?$AA@ 0000000140254300     imgui_demo.obj
 0003:0001c324       ??_C@_04OHLPDOFO@Fire?$AA@ 0000000140254324     imgui_demo.obj
 0003:0001c32c       ??_C@_05IKBANCEK@Earth?$AA@ 000000014025432c     imgui_demo.obj
 0003:0001c334       ??_C@_03KHBMPEGA@Air?$AA@  0000000140254334     imgui_demo.obj
 0003:0001c338       ??_C@_05EMKMBNJK@Water?$AA@ 0000000140254338     imgui_demo.obj
 0003:0001c340       ??_C@_0M@ENFPDMMO@slider?5enum?$AA@ 0000000140254340     imgui_demo.obj
 0003:0001c350       ??_C@_0FH@BEBFOFKH@Using?5the?5format?5string?5paramete@ 0000000140254350     imgui_demo.obj
 0003:0001c3b8       ??_C@_0CF@OBBGEKML@Widgets?1Basic?1ColorEdit3?0?5ColorE@ 00000001402543b8     imgui_demo.obj
 0003:0001c3e8       ??_C@_07OCDFLNDK@color?51?$AA@ 00000001402543e8     imgui_demo.obj
 0003:0001c400       ??_C@_0LM@JNIPGMLP@Click?5on?5the?5color?5square?5to?5ope@ 0000000140254400     imgui_demo.obj
 0003:0001c4e8       ??_C@_07MJBIOOPJ@color?52?$AA@ 00000001402544e8     imgui_demo.obj
 0003:0001c4f8       ??_C@_0BE@DGEKEFFI@Widgets?1Basic?1Combo?$AA@ 00000001402544f8     imgui_demo.obj
 0003:0001c510       ??_C@_04OHNMNPPA@AAAA?$AA@ 0000000140254510     imgui_demo.obj
 0003:0001c518       ??_C@_04JLKCOHFE@BBBB?$AA@ 0000000140254518     imgui_demo.obj
 0003:0001c520       ??_C@_04GKHPCPH@CCCC?$AA@  0000000140254520     imgui_demo.obj
 0003:0001c528       ??_C@_04GDFOJGBM@DDDD?$AA@ 0000000140254528     imgui_demo.obj
 0003:0001c530       ??_C@_04POFLIDLP@EEEE?$AA@ 0000000140254530     imgui_demo.obj
 0003:0001c538       ??_C@_04ICCFLLBL@FFFF?$AA@ 0000000140254538     imgui_demo.obj
 0003:0001c540       ??_C@_04BPCAKOLI@GGGG?$AA@ 0000000140254540     imgui_demo.obj
 0003:0001c548       ??_C@_04EJNHHCMN@HHHH?$AA@ 0000000140254548     imgui_demo.obj
 0003:0001c550       ??_C@_07LIMEPNNC@IIIIIII?$AA@ 0000000140254550     imgui_demo.obj
 0003:0001c55c       ??_C@_04KIKMFPMK@JJJJ?$AA@ 000000014025455c     imgui_demo.obj
 0003:0001c568       ??_C@_07MBMNGHIK@KKKKKKK?$AA@ 0000000140254568     imgui_demo.obj
 0003:0001c574       ??_C@_05LLEFIEMM@combo?$AA@ 0000000140254574     imgui_demo.obj
 0003:0001c580       ??_C@_0KK@EOPNBDJP@Using?5the?5simplified?5one?9liner?5C@ 0000000140254580     imgui_demo.obj
 0003:0001c650       ??_C@_0BG@OOGNHKFG@Widgets?1Basic?1ListBox?$AA@ 0000000140254650     imgui_demo.obj
 0003:0001c670       ??_C@_07LHBBOFFP@listbox?$AA@ 0000000140254670     imgui_demo.obj
 0003:0001c680       ??_C@_0LF@POLFDEKB@Using?5the?5simplified?5one?9liner?5L@ 0000000140254680     imgui_demo.obj
 0003:0001c760       ??_C@_0O@GEAPLMHF@Widgets?1Trees?$AA@ 0000000140254760     imgui_demo.obj
 0003:0001c770       ??_C@_05BMMGIDNN@Trees?$AA@ 0000000140254770     imgui_demo.obj
 0003:0001c778       ??_C@_0BK@OJMACAMF@Widgets?1Trees?1Basic?5trees?$AA@ 0000000140254778     imgui_demo.obj
 0003:0001c798       ??_C@_0M@OABIBGBA@Basic?5trees?$AA@ 0000000140254798     imgui_demo.obj
 0003:0001c7a8       ??_C@_08GPGIPNJB@Child?5?$CFd?$AA@ 00000001402547a8     imgui_demo.obj
 0003:0001c7b8       ??_C@_09KGLHLKML@blah?5blah?$AA@ 00000001402547b8     imgui_demo.obj
 0003:0001c7c4       ??_C@_06HFKPFKMP@button?$AA@ 00000001402547c4     imgui_demo.obj
 0003:0001c7d0       ??_C@_0CO@HKMALMNH@Widgets?1Trees?1Advanced?0?5with?5Sel@ 00000001402547d0     imgui_demo.obj
 0003:0001c808       ??_C@_0CA@LDNIBPC@Advanced?0?5with?5Selectable?5nodes?$AA@ 0000000140254808     imgui_demo.obj
 0003:0001c830       ??_C@_0IL@PMAJKNJG@This?5is?5a?5more?5typical?5looking?5t@ 0000000140254830     imgui_demo.obj
 0003:0001c8d8       ??_C@_0BP@JJAJNCOF@ImGuiTreeNodeFlags_OpenOnArrow?$AA@ 00000001402548d8     imgui_demo.obj
 0003:0001c900       ??_C@_0CF@HDMDLLCC@ImGuiTreeNodeFlags_OpenOnDoubleC@ 0000000140254900     imgui_demo.obj
 0003:0001c930       ??_C@_0CC@CLHKBONF@ImGuiTreeNodeFlags_SpanAvailWidt@ 0000000140254930     imgui_demo.obj
 0003:0001c960       ??_C@_0GF@HJHHKMOH@Extend?5hit?5area?5to?5all?5available@ 0000000140254960     imgui_demo.obj
 0003:0001c9e0       ??_C@_0CB@OHNGGEGD@ImGuiTreeNodeFlags_SpanFullWidth@ 00000001402549e0     imgui_demo.obj
 0003:0001ca08       ??_C@_0CE@CFMFIOLL@Align?5label?5with?5current?5X?5posit@ 0000000140254a08     imgui_demo.obj
 0003:0001ca38       ??_C@_0BO@ICNOHPIE@Test?5tree?5node?5as?5drag?5source?$AA@ 0000000140254a38     imgui_demo.obj
 0003:0001ca5c       ??_C@_06KPGIMOHP@Hello?$CB?$AA@ 0000000140254a5c     imgui_demo.obj
 0003:0001ca68       ??_C@_0BD@DKDJNGLG@Selectable?5Node?5?$CFd?$AA@ 0000000140254a68     imgui_demo.obj
 0003:0001ca80       ??_C@_09PLFIFPJD@_TREENODE?$AA@ 0000000140254a80     imgui_demo.obj
 0003:0001ca90       ??_C@_0BP@LHBEHNKM@This?5is?5a?5drag?5and?5drop?5source?$AA@ 0000000140254a90     imgui_demo.obj
 0003:0001cab8       ??_C@_0BE@GJFAIPKG@Blah?5blah?6Blah?5Blah?$AA@ 0000000140254ab8     imgui_demo.obj
 0003:0001cad0       ??_C@_0BD@MLABGFOG@Selectable?5Leaf?5?$CFd?$AA@ 0000000140254ad0     imgui_demo.obj
 0003:0001cae8       ??_C@_0BL@HBCHPPAB@Widgets?1Collapsing?5Headers?$AA@ 0000000140254ae8     imgui_demo.obj
 0003:0001cb08       ??_C@_0BD@GBPHDMGC@Collapsing?5Headers?$AA@ 0000000140254b08     imgui_demo.obj
 0003:0001cb20       ??_C@_0BA@JOCPBPDO@Show?52nd?5header?$AA@ 0000000140254b20     imgui_demo.obj
 0003:0001cb38       ??_C@_0BC@BLAKNONB@IsItemHovered?3?5?$CFd?$AA@ 0000000140254b38     imgui_demo.obj
 0003:0001cb50       ??_C@_0BA@PJMPKHOM@Some?5content?5?$CFd?$AA@ 0000000140254b50     imgui_demo.obj
 0003:0001cb68       ??_C@_0BL@IHHHIKPE@Header?5with?5a?5close?5button?$AA@ 0000000140254b68     imgui_demo.obj
 0003:0001cb88       ??_C@_0BA@PEMOHED@More?5content?5?$CFd?$AA@ 0000000140254b88     imgui_demo.obj
 0003:0001cba0       ??_C@_0BA@OHGLMBHK@Widgets?1Bullets?$AA@ 0000000140254ba0     imgui_demo.obj
 0003:0001cbb8       ??_C@_07DHNDKCGP@Bullets?$AA@ 0000000140254bb8     imgui_demo.obj
 0003:0001cbc8       ??_C@_0P@DEGHIHA@Bullet?5point?51?$AA@ 0000000140254bc8     imgui_demo.obj
 0003:0001cbe0       ??_C@_0CB@LFMFDEHN@Bullet?5point?52?6On?5multiple?5lines@ 0000000140254be0     imgui_demo.obj
 0003:0001cc08       ??_C@_09CGOFEACE@Tree?5node?$AA@ 0000000140254c08     imgui_demo.obj
 0003:0001cc18       ??_C@_0BF@FBMIEPNI@Another?5bullet?5point?$AA@ 0000000140254c18     imgui_demo.obj
 0003:0001cc38       ??_C@_0BL@OAFINJBP@Bullet?5point?53?5?$CItwo?5calls?$CJ?$AA@ 0000000140254c38     imgui_demo.obj
 0003:0001cc58       ??_C@_0N@CHPBOJIK@Widgets?1Text?$AA@ 0000000140254c58     imgui_demo.obj
 0003:0001cc68       ??_C@_0BK@PPEHIABB@Widgets?1Text?1Colored?5Text?$AA@ 0000000140254c68     imgui_demo.obj
 0003:0001cc88       ??_C@_0O@HGHOOCPG@Colorful?5Text?$AA@ 0000000140254c88     imgui_demo.obj
 0003:0001cc98       ??_C@_04IDKACLOG@Pink?$AA@ 0000000140254c98     imgui_demo.obj
 0003:0001cca0       ??_C@_06ICCAKDNH@Yellow?$AA@ 0000000140254ca0     imgui_demo.obj
 0003:0001cca8       ??_C@_08JGILNPHN@Disabled?$AA@ 0000000140254ca8     imgui_demo.obj
 0003:0001ccb8       ??_C@_0DA@EPJPAHDI@The?5TextDisabled?5color?5is?5stored@ 0000000140254cb8     imgui_demo.obj
 0003:0001ccf8       ??_C@_0BL@NBECCBAN@Widgets?1Text?1Word?5Wrapping?$AA@ 0000000140254cf8     imgui_demo.obj
 0003:0001cd18       ??_C@_0O@CLIMKCMB@Word?5Wrapping?$AA@ 0000000140254d18     imgui_demo.obj
 0003:0001cd30       ??_C@_0LE@LBABKNFA@This?5text?5should?5automatically?5w@ 0000000140254d30     imgui_demo.obj
 0003:0001ce08       ??_C@_04GHNNFJCK@?$CF?40f?$AA@ 0000000140254e08     imgui_demo.obj
 0003:0001ce10       ??_C@_0L@NHCJIHMI@Wrap?5width?$AA@ 0000000140254e10     imgui_demo.obj
 0003:0001ce20       ??_C@_0BD@IAMDDDPD@Test?5paragraph?5?$CFd?3?$AA@ 0000000140254e20     imgui_demo.obj
 0003:0001ce40       ??_C@_0JD@HKNKABEJ@The?5lazy?5dog?5is?5a?5good?5dog?4?5This@ 0000000140254e40     imgui_demo.obj
 0003:0001cef0       ??_C@_0FB@BGHPBDIA@aaaaaaaa?5bbbbbbbb?0?5c?5cccccccc?0dd@ 0000000140254ef0     imgui_demo.obj
 0003:0001cf58       ??_C@_0BI@HMDFOMMC@Widgets?1Text?1UTF?98?5Text?$AA@ 0000000140254f58     imgui_demo.obj
 0003:0001cf78       ??_C@_0L@KOGPBBGO@UTF?98?5Text?$AA@ 0000000140254f78     imgui_demo.obj
 0003:0001cf90       ??_C@_0MJ@DIENCCGD@CJK?5text?5will?5only?5appear?5if?5the@ 0000000140254f90     imgui_demo.obj
 0003:0001d088       ??_C@_0CH@EHCMNMLI@Hiragana?3?5?c?$IB?$IL?c?$IB?$IN?c?$IB?$IP?c?$IB?$JB?c?$IB?$JD?5?$CIkakik@ 0000000140255088     imgui_demo.obj
 0003:0001d0b8       ??_C@_0BM@BCACPCEP@Kanjis?3?5?f?$JH?$KF?f?$JM?$KM?h?$KK?$JO?5?$CInihongo?$CJ?$AA@ 00000001402550b8     imgui_demo.obj
 0003:0001d0e0       ??_C@_0M@OKLFPIAG@UTF?98?5input?$AA@ 00000001402550e0     imgui_demo.obj
 0003:0001d0f0       ??_C@_0P@JHLCFMPD@Widgets?1Images?$AA@ 00000001402550f0     imgui_demo.obj
 0003:0001d104       ??_C@_06EPMHLOBG@Images?$AA@ 0000000140255104     imgui_demo.obj
 0003:0001d110       ??_C@_0OJ@IGJPGIOP@Below?5we?5are?5displaying?5the?5font@ 0000000140255110     imgui_demo.obj
 0003:0001d228       ??_C@_09CLOIPCOK@?$CF?40fx?$CF?40f?$AA@ 0000000140255228     imgui_demo.obj
 0003:0001d238       ??_C@_0BC@FICOOKGF@Min?3?5?$CI?$CF?42f?0?5?$CF?42f?$CJ?$AA@ 0000000140255238     imgui_demo.obj
 0003:0001d250       ??_C@_0BC@LIIPCIB@Max?3?5?$CI?$CF?42f?0?5?$CF?42f?$CJ?$AA@ 0000000140255250     imgui_demo.obj
 0003:0001d268       ??_C@_0CA@CCOONHAL@Widgets?1Images?1Textured?5buttons?$AA@ 0000000140255268     imgui_demo.obj
 0003:0001d290       ??_C@_0CA@KAEHPGML@And?5now?5some?5textured?5buttons?4?4?$AA@ 0000000140255290     imgui_demo.obj
 0003:0001d2b8       ??_C@_0BC@JGNKDOGB@Pressed?5?$CFd?5times?4?$AA@ 00000001402552b8     imgui_demo.obj
 0003:0001d2d0       ??_C@_0O@MECALOFC@Widgets?1Combo?$AA@ 00000001402552d0     imgui_demo.obj
 0003:0001d2e0       ??_C@_05LMOJIBPK@Combo?$AA@ 00000001402552e0     imgui_demo.obj
 0003:0001d2e8       ??_C@_0BP@KDFGPNLK@ImGuiComboFlags_PopupAlignLeft?$AA@ 00000001402552e8     imgui_demo.obj
 0003:0001d310       ??_C@_0DO@LDFFHHPN@Only?5makes?5a?5difference?5if?5the?5p@ 0000000140255310     imgui_demo.obj
 0003:0001d360       ??_C@_0BO@IADJEHHH@ImGuiComboFlags_NoArrowButton?$AA@ 0000000140255360     imgui_demo.obj
 0003:0001d388       ??_C@_0BK@CFAPHAND@ImGuiComboFlags_NoPreview?$AA@ 0000000140255388     imgui_demo.obj
 0003:0001d3a8       ??_C@_04NENCGHGO@IIII?$AA@ 00000001402553a8     imgui_demo.obj
 0003:0001d3b0       ??_C@_04DFKJEKGJ@KKKK?$AA@ 00000001402553b0     imgui_demo.obj
 0003:0001d3b8       ??_C@_07HGFDAEEO@LLLLLLL?$AA@ 00000001402553b8     imgui_demo.obj
 0003:0001d3c4       ??_C@_04MNFFDLCB@MMMM?$AA@ 00000001402553c4     imgui_demo.obj
 0003:0001d3d0       ??_C@_07DDNOFDDK@OOOOOOO?$AA@ 00000001402553d0     imgui_demo.obj
 0003:0001d3e0       ??_C@_07HDIKCFGM@combo?51?$AA@ 00000001402553e0     imgui_demo.obj
 0003:0001d3f0       ??_C@_0BL@ICCGGBKH@aaaa?$AAbbbb?$AAcccc?$AAdddd?$AAeeee?$AA?$AA?$AA@ 00000001402553f0     imgui_demo.obj
 0003:0001d410       ??_C@_0BE@BBBJNHHG@combo?52?5?$CIone?9liner?$CJ?$AA@ 0000000140255410     imgui_demo.obj
 0003:0001d428       ??_C@_0BA@MDMKCBHF@combo?53?5?$CIarray?$CJ?$AA@ 0000000140255428     imgui_demo.obj
 0003:0001d440       ??_C@_0BD@GDHGAEJD@combo?54?5?$CIfunction?$CJ?$AA@ 0000000140255440     imgui_demo.obj
 0003:0001d458       ??_C@_0BD@GHKBDBIA@Widgets?1List?5Boxes?$AA@ 0000000140255458     imgui_demo.obj
 0003:0001d470       ??_C@_0L@PBIKFGCH@List?5boxes?$AA@ 0000000140255470     imgui_demo.obj
 0003:0001d480       ??_C@_09BDFDKBCP@listbox?51?$AA@ 0000000140255480     imgui_demo.obj
 0003:0001d490       ??_C@_0M@CKEICGGI@Full?9width?3?$AA@ 0000000140255490     imgui_demo.obj
 0003:0001d4a0       ??_C@_0M@NAPALMCL@?$CD?$CDlistbox?52?$AA@ 00000001402554a0     imgui_demo.obj
 0003:0001d4b0       ??_C@_0BE@OJBNEPEE@Widgets?1Selectables?$AA@ 00000001402554b0     imgui_demo.obj
 0003:0001d4c8       ??_C@_0M@GOIEGLPE@Selectables?$AA@ 00000001402554c8     imgui_demo.obj
 0003:0001d4d8       ??_C@_0BK@OFEBJINJ@Widgets?1Selectables?1Basic?$AA@ 00000001402554d8     imgui_demo.obj
 0003:0001d4f8       ??_C@_0BD@KCGCFIHN@1?4?5I?5am?5selectable?$AA@ 00000001402554f8     imgui_demo.obj
 0003:0001d510       ??_C@_0BD@BDENONE@2?4?5I?5am?5selectable?$AA@ 0000000140255510     imgui_demo.obj
 0003:0001d528       ??_C@_0BG@EJJBPEFA@?$CII?5am?5not?5selectable?$CJ?$AA@ 0000000140255528     imgui_demo.obj
 0003:0001d548       ??_C@_0BD@JMOINFMH@4?4?5I?5am?5selectable?$AA@ 0000000140255548     imgui_demo.obj
 0003:0001d560       ??_C@_0BJ@DACNLCFI@5?4?5I?5am?5double?5clickable?$AA@ 0000000140255560     imgui_demo.obj
 0003:0001d580       ??_C@_0CF@EDENHAHK@Widgets?1Selectables?1Single?5Selec@ 0000000140255580     imgui_demo.obj
 0003:0001d5b0       ??_C@_0CC@NGMIMNBC@Selection?5State?3?5Single?5Selectio@ 00000001402555b0     imgui_demo.obj
 0003:0001d5d8       ??_C@_09IEODADNK@Object?5?$CFd?$AA@ 00000001402555d8     imgui_demo.obj
 0003:0001d5e8       ??_C@_0CH@JDDBHIKA@Widgets?1Selectables?1Multiple?5Sel@ 00000001402555e8     imgui_demo.obj
 0003:0001d618       ??_C@_0CE@ILMFMDLL@Selection?5State?3?5Multiple?5Select@ 0000000140255618     imgui_demo.obj
 0003:0001d648       ??_C@_0CO@HEGMKIIH@Hold?5CTRL?5and?5click?5to?5select?5mu@ 0000000140255648     imgui_demo.obj
 0003:0001d680       ??_C@_0DL@PHDOHIFN@Widgets?1Selectables?1Rendering?5mo@ 0000000140255680     imgui_demo.obj
 0003:0001d6c8       ??_C@_0CH@PHBOMNNA@Rendering?5more?5text?5into?5the?5sam@ 00000001402556c8     imgui_demo.obj
 0003:0001d6f8       ??_C@_06HIICBHNJ@main?4c?$AA@ 00000001402556f8     imgui_demo.obj
 0003:0001d700       ??_C@_0N@NKEFLDLJ@?52?0345?5bytes?$AA@ 0000000140255700     imgui_demo.obj
 0003:0001d710       ??_C@_09JJLAOCPC@Hello?4cpp?$AA@ 0000000140255710     imgui_demo.obj
 0003:0001d720       ??_C@_0N@LDNEMMOG@12?0345?5bytes?$AA@ 0000000140255720     imgui_demo.obj
 0003:0001d730       ??_C@_07GGGNKCPB@Hello?4h?$AA@ 0000000140255730     imgui_demo.obj
 0003:0001d740       ??_C@_0BP@KAMGKAKE@Widgets?1Selectables?1In?5columns?$AA@ 0000000140255740     imgui_demo.obj
 0003:0001d768       ??_C@_0L@JGCLAHBC@In?5columns?$AA@ 0000000140255768     imgui_demo.obj
 0003:0001d778       ??_C@_06DLHIACAN@split1?$AA@ 0000000140255778     imgui_demo.obj
 0003:0001d780       ??_C@_07BCJGKFOL@Item?5?$CFd?$AA@ 0000000140255780     imgui_demo.obj
 0003:0001d78c       ??_C@_06BAFFFBMO@split2?$AA@ 000000014025578c     imgui_demo.obj
 0003:0001d798       ??_C@_0BE@DEADEMHJ@Some?5other?5contents?$AA@ 0000000140255798     imgui_demo.obj
 0003:0001d7b0       ??_C@_06BHEBDDGP@123456?$AA@ 00000001402557b0     imgui_demo.obj
 0003:0001d7b8       ??_C@_0BJ@GOMOMLMF@Widgets?1Selectables?1Grid?$AA@ 00000001402557b8     imgui_demo.obj
 0003:0001d7d8       ??_C@_04FEKPLKKA@Grid?$AA@ 00000001402557d8     imgui_demo.obj
 0003:0001d7e0       ??_C@_06IFGMFLK@Sailor?$AA@ 00000001402557e0     imgui_demo.obj
 0003:0001d7e8       ??_C@_0BO@OOLMIAMJ@Widgets?1Selectables?1Alignment?$AA@ 00000001402557e8     imgui_demo.obj
 0003:0001d810       ??_C@_09FBMAGD@Alignment?$AA@ 0000000140255810     imgui_demo.obj
 0003:0001d820       ??_C@_0BAK@CHANFCAG@By?5default?0?5Selectables?5uses?5sty@ 0000000140255820     imgui_demo.obj
 0003:0001d960       ??_C@_0M@HCIABIHI@?$CI?$CF?41f?0?$CF?41f?$CJ?$AA@ 0000000140255960     imgui_demo.obj
 0003:0001d970       ??_C@_0BD@CKIJKOHG@Widgets?1Text?5Input?$AA@ 0000000140255970     imgui_demo.obj
 0003:0001d988       ??_C@_0L@LLAOMMOH@Text?5Input?$AA@ 0000000140255988     imgui_demo.obj
 0003:0001d998       ??_C@_0CJ@EJIDMLBN@Widgets?1Text?5Input?1Multi?9line?5Te@ 0000000140255998     imgui_demo.obj
 0003:0001d9d0       ??_C@_0BG@ENAPIHKE@Multi?9line?5Text?5Input?$AA@ 00000001402559d0     imgui_demo.obj
 0003:0001d9f0       ??_C@_0BAK@IFEHCPKB@You?5can?5use?5the?5ImGuiInputTextFl@ 00000001402559f0     imgui_demo.obj
 0003:0001db30       ??_C@_0BN@IHHKAKNM@ImGuiInputTextFlags_ReadOnly?$AA@ 0000000140255b30     imgui_demo.obj
 0003:0001db58       ??_C@_0CC@GMDAHFPL@ImGuiInputTextFlags_AllowTabInpu@ 0000000140255b58     imgui_demo.obj
 0003:0001db80       ??_C@_0CI@LIKAMPDL@ImGuiInputTextFlags_CtrlEnterFor@ 0000000140255b80     imgui_demo.obj
 0003:0001dbb0       ??_C@_08FDEOKKII@?$CD?$CDsource?$AA@ 0000000140255bb0     imgui_demo.obj
 0003:0001dbc0       ??_C@_0CH@GBIJGOO@Widgets?1Text?5Input?1Filtered?5Text@ 0000000140255bc0     imgui_demo.obj
 0003:0001dbf0       ??_C@_0BE@EABDFJK@Filtered?5Text?5Input?$AA@ 0000000140255bf0     imgui_demo.obj
 0003:0001dc08       ??_C@_07DLHCIBDH@default?$AA@ 0000000140255c08     imgui_demo.obj
 0003:0001dc18       ??_C@_07EEKBCPDP@decimal?$AA@ 0000000140255c18     imgui_demo.obj
 0003:0001dc28       ??_C@_0M@PLANEGDO@hexadecimal?$AA@ 0000000140255c28     imgui_demo.obj
 0003:0001dc38       ??_C@_09NMLHJAII@uppercase?$AA@ 0000000140255c38     imgui_demo.obj
 0003:0001dc48       ??_C@_08BFAFMKNB@no?5blank?$AA@ 0000000140255c48     imgui_demo.obj
 0003:0001dc58       ??_C@_0BA@DMKNNKAP@?$CCimgui?$CC?5letters?$AA@ 0000000140255c58     imgui_demo.obj
 0003:0001dc70       ??_C@_0CC@OPLEEAIO@Widgets?1Text?5Input?1Password?5inpu@ 0000000140255c70     imgui_demo.obj
 0003:0001dc98       ??_C@_0P@CNDCHFGF@Password?5Input?$AA@ 0000000140255c98     imgui_demo.obj
 0003:0001dcb0       ??_C@_08NLHBPEGP@password?$AA@ 0000000140255cb0     imgui_demo.obj
 0003:0001dcc0       ??_C@_0FB@LAANLENK@Display?5all?5characters?5as?5?8?$CK?8?4?6D@ 0000000140255cc0     imgui_demo.obj
 0003:0001dd28       ??_C@_0L@DGGOBGAB@?$DMpassword?$DO?$AA@ 0000000140255d28     imgui_demo.obj
 0003:0001dd38       ??_C@_0BD@DPDFGHAP@password?5?$CIw?1?5hint?$CJ?$AA@ 0000000140255d38     imgui_demo.obj
 0003:0001dd50       ??_C@_0BB@LNABFGG@password?5?$CIclear?$CJ?$AA@ 0000000140255d50     imgui_demo.obj
 0003:0001dd68       ??_C@_0CE@HIDJCAJO@Completion?0?5History?0?5Edit?5Callba@ 0000000140255d68     imgui_demo.obj
 0003:0001dd98       ??_C@_0L@BMOEBFKJ@Completion?$AA@ 0000000140255d98     imgui_demo.obj
 0003:0001ddb0       ??_C@_0IB@POFCECKB@Here?5we?5append?5?$CC?4?4?$CC?5each?5time?5Ta@ 0000000140255db0     imgui_demo.obj
 0003:0001de50       ??_C@_07DFKCFAEM@History?$AA@ 0000000140255e50     imgui_demo.obj
 0003:0001de60       ??_C@_0JC@JNBHNBHO@Here?5we?5replace?5and?5select?5text?5@ 0000000140255e60     imgui_demo.obj
 0003:0001df10       ??_C@_04BBNPPDNC@Edit?$AA@ 0000000140255f10     imgui_demo.obj
 0003:0001df20       ??_C@_0EO@BKNGEHGN@Here?5we?5toggle?5the?5casing?5of?5the@ 0000000140255f20     imgui_demo.obj
 0003:0001df80       ??_C@_04FEBIMPDM@?$CI?$CFd?$CJ?$AA@ 0000000140255f80     imgui_demo.obj
 0003:0001df88       ??_C@_0CD@OOGDFIC@Widgets?1Text?5Input?1Resize?5Callba@ 0000000140255f88     imgui_demo.obj
 0003:0001dfb8       ??_C@_0BA@PGEBLBNL@Resize?5Callback?$AA@ 0000000140255fb8     imgui_demo.obj
 0003:0001dfd0       ??_C@_0KF@ELKLKFLA@Using?5ImGuiInputTextFlags_Callba@ 0000000140255fd0     imgui_demo.obj
 0003:0001e098       ??_C@_07MDDMIGJK@?$CD?$CDMyStr?$AA@ 0000000140256098     imgui_demo.obj
 0003:0001e0a8       ??_C@_0BP@HFIMENAP@Data?3?5?$CFp?6Size?3?5?$CFd?6Capacity?3?5?$CFd?$AA@ 00000001402560a8     imgui_demo.obj
 0003:0001e0d0       ??_C@_0N@PGGDMOLM@Widgets?1Tabs?$AA@ 00000001402560d0     imgui_demo.obj
 0003:0001e0e0       ??_C@_04DIJFMEPE@Tabs?$AA@ 00000001402560e0     imgui_demo.obj
 0003:0001e0e8       ??_C@_0BD@MJMKJGN@Widgets?1Tabs?1Basic?$AA@ 00000001402560e8     imgui_demo.obj
 0003:0001e100       ??_C@_08BHPFJKBJ@MyTabBar?$AA@ 0000000140256100     imgui_demo.obj
 0003:0001e110       ??_C@_07PJEDDDBE@Avocado?$AA@ 0000000140256110     imgui_demo.obj
 0003:0001e120       ??_C@_0DC@GCKNABCK@This?5is?5the?5Avocado?5tab?$CB?6blah?5bl@ 0000000140256120     imgui_demo.obj
 0003:0001e160       ??_C@_08LMFMBPKH@Broccoli?$AA@ 0000000140256160     imgui_demo.obj
 0003:0001e170       ??_C@_0DD@MJGBNDMM@This?5is?5the?5Broccoli?5tab?$CB?6blah?5b@ 0000000140256170     imgui_demo.obj
 0003:0001e1b0       ??_C@_08FIHABPKG@Cucumber?$AA@ 00000001402561b0     imgui_demo.obj
 0003:0001e1c0       ??_C@_0DD@CJPLEJGJ@This?5is?5the?5Cucumber?5tab?$CB?6blah?5b@ 00000001402561c0     imgui_demo.obj
 0003:0001e200       ??_C@_0CF@NNMDIAIK@Widgets?1Tabs?1Advanced?5?$CG?5Close?5Bu@ 0000000140256200     imgui_demo.obj
 0003:0001e230       ??_C@_0BI@NAEAKGLC@Advanced?5?$CG?5Close?5Button?$AA@ 0000000140256230     imgui_demo.obj
 0003:0001e250       ??_C@_0BN@FKNGBAKI@ImGuiTabBarFlags_Reorderable?$AA@ 0000000140256250     imgui_demo.obj
 0003:0001e278       ??_C@_0CD@CJJDGNCL@ImGuiTabBarFlags_AutoSelectNewTa@ 0000000140256278     imgui_demo.obj
 0003:0001e2a8       ??_C@_0CE@ODMHCKNA@ImGuiTabBarFlags_TabListPopupBut@ 00000001402562a8     imgui_demo.obj
 0003:0001e2d8       ??_C@_0CO@PEFOKBDP@ImGuiTabBarFlags_NoCloseWithMidd@ 00000001402562d8     imgui_demo.obj
 0003:0001e310       ??_C@_0CJ@IIIJDEBN@ImGuiTabBarFlags_FittingPolicyRe@ 0000000140256310     imgui_demo.obj
 0003:0001e348       ??_C@_0CF@NLLNBILH@ImGuiTabBarFlags_FittingPolicySc@ 0000000140256348     imgui_demo.obj
 0003:0001e378       ??_C@_09JNADJLBG@Artichoke?$AA@ 0000000140256378     imgui_demo.obj
 0003:0001e388       ??_C@_08NACLCGIP@Beetroot?$AA@ 0000000140256388     imgui_demo.obj
 0003:0001e394       ??_C@_06LGPLDCHA@Celery?$AA@ 0000000140256394     imgui_demo.obj
 0003:0001e39c       ??_C@_06NBIPACBO@Daikon?$AA@ 000000014025639c     imgui_demo.obj
 0003:0001e3a8       ??_C@_0BE@HMOLENGG@This?5is?5the?5?$CFs?5tab?$CB?$AA@ 00000001402563a8     imgui_demo.obj
 0003:0001e3c0       ??_C@_0BB@PAPJGNOM@I?5am?5an?5odd?5tab?4?$AA@ 00000001402563c0     imgui_demo.obj
 0003:0001e3d8       ??_C@_0DE@GLBBPDDL@Widgets?1Tabs?1TabItemButton?5?$CG?5Lea@ 00000001402563d8     imgui_demo.obj
 0003:0001e418       ??_C@_0CH@FJDGMAFH@TabItemButton?5?$CG?5Leading?1Trailing@ 0000000140256418     imgui_demo.obj
 0003:0001e448       ??_C@_0BN@OJPKMGDH@Show?5Leading?5TabItemButton?$CI?$CJ?$AA@ 0000000140256448     imgui_demo.obj
 0003:0001e470       ??_C@_0BO@GMKHPNHK@Show?5Trailing?5TabItemButton?$CI?$CJ?$AA@ 0000000140256470     imgui_demo.obj
 0003:0001e494       ??_C@_01OGPIMHDM@?$DP?$AA@ 0000000140256494     imgui_demo.obj
 0003:0001e498       ??_C@_0L@IFBHGAGJ@MyHelpMenu?$AA@ 0000000140256498     imgui_demo.obj
 0003:0001e4a8       ??_C@_01MIFGBAGJ@?$CL?$AA@ 00000001402564a8     imgui_demo.obj
 0003:0001e4ac       ??_C@_04OCCELDNI@?$CF04d?$AA@ 00000001402564ac     imgui_demo.obj
 0003:0001e4b8       ??_C@_0BB@EOCJNFEM@Widgets?1Plotting?$AA@ 00000001402564b8     imgui_demo.obj
 0003:0001e4d0       ??_C@_08CDCEIJME@Plotting?$AA@ 00000001402564d0     imgui_demo.obj
 0003:0001e4e0       ??_C@_07CCNCPHDL@Animate?$AA@ 00000001402564e0     imgui_demo.obj
 0003:0001e4f0       ??_C@_0CK@MBEHLAAJ@Widgets?1Plotting?1PlotLines?0?5Plot@ 00000001402564f0     imgui_demo.obj
 0003:0001e528       ??_C@_0M@LJPKANLB@Frame?5Times?$AA@ 0000000140256528     imgui_demo.obj
 0003:0001e538       ??_C@_09NBOAEPFB@Histogram?$AA@ 0000000140256538     imgui_demo.obj
 0003:0001e544       ??_C@_06BECIMFEF@avg?5?$CFf?$AA@ 0000000140256544     imgui_demo.obj
 0003:0001e54c       ??_C@_05DDHCCCLJ@Lines?$AA@ 000000014025654c     imgui_demo.obj
 0003:0001e558       ??_C@_08OLJDEBGC@Sin?$AASaw?$AA?$AA@ 0000000140256558     imgui_demo.obj
 0003:0001e564       ??_C@_04HPNHAEOP@func?$AA@ 0000000140256564     imgui_demo.obj
 0003:0001e570       ??_C@_0N@LHCNOOOP@Sample?5count?$AA@ 0000000140256570     imgui_demo.obj
 0003:0001e580       ??_C@_0BN@JJJCOIGD@Widgets?1Plotting?1ProgressBar?$AA@ 0000000140256580     imgui_demo.obj
 0003:0001e5a8       ??_C@_0N@HDMPBJBE@Progress?5Bar?$AA@ 00000001402565a8     imgui_demo.obj
 0003:0001e5b8       ??_C@_05LCKIIOJE@?$CFd?1?$CFd?$AA@ 00000001402565b8     imgui_demo.obj
 0003:0001e5c0       ??_C@_0O@ILCICGHI@Widgets?1Color?$AA@ 00000001402565c0     imgui_demo.obj
 0003:0001e5d0       ??_C@_0BF@GELOCOAL@Color?1Picker?5Widgets?$AA@ 00000001402565d0     imgui_demo.obj
 0003:0001e5f0       ??_C@_0BD@KJCAPGNJ@With?5Alpha?5Preview?$AA@ 00000001402565f0     imgui_demo.obj
 0003:0001e608       ??_C@_0BI@FJEMIBKC@With?5Half?5Alpha?5Preview?$AA@ 0000000140256608     imgui_demo.obj
 0003:0001e628       ??_C@_0BD@KEFEHFM@With?5Drag?5and?5Drop?$AA@ 0000000140256628     imgui_demo.obj
 0003:0001e640       ??_C@_0BC@EJIAMDNC@With?5Options?5Menu?$AA@ 0000000140256640     imgui_demo.obj
 0003:0001e658       ??_C@_0DM@KEMLELAP@Right?9click?5on?5the?5individual?5co@ 0000000140256658     imgui_demo.obj
 0003:0001e6a0       ??_C@_08FMJOEAGN@With?5HDR?$AA@ 00000001402566a0     imgui_demo.obj
 0003:0001e6b0       ??_C@_0EI@FHFBEIHN@Currently?5all?5this?5does?5is?5to?5li@ 00000001402566b0     imgui_demo.obj
 0003:0001e708       ??_C@_0BI@MDJGKOGL@Widgets?1Color?1ColorEdit?$AA@ 0000000140256708     imgui_demo.obj
 0003:0001e728       ??_C@_0O@NOEDKBGC@Color?5widget?3?$AA@ 0000000140256728     imgui_demo.obj
 0003:0001e740       ??_C@_0GG@EFLMCGPH@Click?5on?5the?5color?5square?5to?5ope@ 0000000140256740     imgui_demo.obj
 0003:0001e7c0       ??_C@_0L@BFFLOOBG@MyColor?$CD?$CD1?$AA@ 00000001402567c0     imgui_demo.obj
 0003:0001e7d0       ??_C@_0CK@HAPIFBGC@Widgets?1Color?1ColorEdit?5?$CIHSV?0?5wi@ 00000001402567d0     imgui_demo.obj
 0003:0001e808       ??_C@_0BN@GLLLKGMC@Color?5widget?5HSV?5with?5Alpha?3?$AA@ 0000000140256808     imgui_demo.obj
 0003:0001e830       ??_C@_0L@DOHGLNNF@MyColor?$CD?$CD2?$AA@ 0000000140256830     imgui_demo.obj
 0003:0001e840       ??_C@_0CI@DKIDAOAB@Widgets?1Color?1ColorEdit?5?$CIfloat?5d@ 0000000140256840     imgui_demo.obj
 0003:0001e870       ??_C@_0CB@GHOEMJO@Color?5widget?5with?5Float?5Display?3@ 0000000140256870     imgui_demo.obj
 0003:0001e898       ??_C@_0M@MFCAJMMH@MyColor?$CD?$CD2f?$AA@ 0000000140256898     imgui_demo.obj
 0003:0001e8a8       ??_C@_0CI@KPPBOEAG@Widgets?1Color?1ColorButton?5?$CIwith?5@ 00000001402568a8     imgui_demo.obj
 0003:0001e8d8       ??_C@_0BK@EFMOKOBO@Color?5button?5with?5Picker?3?$AA@ 00000001402568d8     imgui_demo.obj
 0003:0001e900       ??_C@_0NH@CMBOCHE@With?5the?5ImGuiColorEditFlags_NoI@ 0000000140256900     imgui_demo.obj
 0003:0001ea08       ??_C@_0L@CHGNIMJE@MyColor?$CD?$CD3?$AA@ 0000000140256a08     imgui_demo.obj
 0003:0001ea18       ??_C@_0DF@LKFAKHKL@Widgets?1Color?1ColorButton?5?$CIwith?5@ 0000000140256a18     imgui_demo.obj
 0003:0001ea58       ??_C@_0CH@HJNHAHAP@Color?5button?5with?5Custom?5Picker?5@ 0000000140256a58     imgui_demo.obj
 0003:0001ea88       ??_C@_0M@KAIODDPE@MyColor?$CD?$CD3b?$AA@ 0000000140256a88     imgui_demo.obj
 0003:0001ea98       ??_C@_07GDPBMLLI@Palette?$AA@ 0000000140256a98     imgui_demo.obj
 0003:0001eaa8       ??_C@_08KFPGOGIA@mypicker?$AA@ 0000000140256aa8     imgui_demo.obj
 0003:0001eab8       ??_C@_0DA@DKOICBGC@MY?5CUSTOM?5COLOR?5PICKER?5WITH?5AN?5A@ 0000000140256ab8     imgui_demo.obj
 0003:0001eaf8       ??_C@_08HHEANBBL@?$CD?$CDpicker?$AA@ 0000000140256af8     imgui_demo.obj
 0003:0001eb08       ??_C@_07EDIFFIJI@Current?$AA@ 0000000140256b08     imgui_demo.obj
 0003:0001eb18       ??_C@_09CDENILGE@?$CD?$CDcurrent?$AA@ 0000000140256b18     imgui_demo.obj
 0003:0001eb28       ??_C@_08CAGLMDLD@Previous?$AA@ 0000000140256b28     imgui_demo.obj
 0003:0001eb38       ??_C@_0L@JEAALFFH@?$CD?$CDprevious?$AA@ 0000000140256b38     imgui_demo.obj
 0003:0001eb48       ??_C@_09DDJBIEE@?$CD?$CDpalette?$AA@ 0000000140256b48     imgui_demo.obj
 0003:0001eb54       ??_C@_06LFKNFKEK@_COL3F?$AA@ 0000000140256b54     imgui_demo.obj
 0003:0001eb5c       ??_C@_06LAOCEMMP@_COL4F?$AA@ 0000000140256b5c     imgui_demo.obj
 0003:0001eb68       ??_C@_0CD@HMBJHACC@Widgets?1Color?1ColorButton?5?$CIsimpl@ 0000000140256b68     imgui_demo.obj
 0003:0001eb98       ??_C@_0BD@NCDFBPJC@Color?5button?5only?3?$AA@ 0000000140256b98     imgui_demo.obj
 0003:0001ebb0       ??_C@_0BN@HLFBDHDP@ImGuiColorEditFlags_NoBorder?$AA@ 0000000140256bb0     imgui_demo.obj
 0003:0001ebd8       ??_C@_0M@LJJFACLF@MyColor?$CD?$CD3c?$AA@ 0000000140256bd8     imgui_demo.obj
 0003:0001ebe8       ??_C@_0BK@CPMABCHF@Widgets?1Color?1ColorPicker?$AA@ 0000000140256be8     imgui_demo.obj
 0003:0001ec08       ??_C@_0O@IPOAJHA@Color?5picker?3?$AA@ 0000000140256c08     imgui_demo.obj
 0003:0001ec18       ??_C@_0L@EACIJKCC@With?5Alpha?$AA@ 0000000140256c18     imgui_demo.obj
 0003:0001ec28       ??_C@_0P@HFPOLAHI@With?5Alpha?5Bar?$AA@ 0000000140256c28     imgui_demo.obj
 0003:0001ec40       ??_C@_0BC@IIIMIJGF@With?5Side?5Preview?$AA@ 0000000140256c40     imgui_demo.obj
 0003:0001ec58       ??_C@_0P@CEAKBNI@With?5Ref?5Color?$AA@ 0000000140256c58     imgui_demo.obj
 0003:0001ec70       ??_C@_0L@LOHJOGGK@?$CD?$CDRefColor?$AA@ 0000000140256c70     imgui_demo.obj
 0003:0001ec80       ??_C@_0CO@EADBOKOE@Auto?1Current?$AANone?$AARGB?5Only?$AAHSV?5O@ 0000000140256c80     imgui_demo.obj
 0003:0001ecb8       ??_C@_0N@OFPFGAFL@Display?5Mode?$AA@ 0000000140256cb8     imgui_demo.obj
 0003:0001ecd0       ??_C@_0BBP@JAIDJLF@ColorEdit?5defaults?5to?5displaying@ 0000000140256cd0     imgui_demo.obj
 0003:0001ee30       ??_C@_0GD@OPONKGG@When?5not?5specified?5explicitly?5?$CIA@ 0000000140256e30     imgui_demo.obj
 0003:0001eea8       ??_C@_0L@GICMBKFD@MyColor?$CD?$CD4?$AA@ 0000000140256ea8     imgui_demo.obj
 0003:0001eeb8       ??_C@_0BG@PLDANIFM@Set?5defaults?5in?5code?3?$AA@ 0000000140256eb8     imgui_demo.obj
 0003:0001eee0       ??_C@_0BFC@FHNBCNON@SetColorEditOptions?$CI?$CJ?5is?5designe@ 0000000140256ee0     imgui_demo.obj
 0003:0001f078       ??_C@_0BP@GBPCDFBG@Default?3?5Uint8?5?$CL?5HSV?5?$CL?5Hue?5Bar?$AA@ 0000000140257078     imgui_demo.obj
 0003:0001f0a0       ??_C@_0CB@BDAOENPB@Default?3?5Float?5?$CL?5HDR?5?$CL?5Hue?5Wheel@ 00000001402570a0     imgui_demo.obj
 0003:0001f0c8       ??_C@_0M@MIAPFBLG@Both?5types?3?$AA@ 00000001402570c8     imgui_demo.obj
 0003:0001f0d8       ??_C@_0N@HENPPCEP@?$CD?$CDMyColor?$CD?$CD5?$AA@ 00000001402570d8     imgui_demo.obj
 0003:0001f0e8       ??_C@_0N@FPPCKBIM@?$CD?$CDMyColor?$CD?$CD6?$AA@ 00000001402570e8     imgui_demo.obj
 0003:0001f0f8       ??_C@_0BD@DKMMPKGG@HSV?5encoded?5colors?$AA@ 00000001402570f8     imgui_demo.obj
 0003:0001f110       ??_C@_0BDD@IKIAIDKH@By?5default?0?5colors?5are?5given?5to?5@ 0000000140257110     imgui_demo.obj
 0003:0001f280       ??_C@_0BM@EODGJACI@Color?5widget?5with?5InputHSV?3?$AA@ 0000000140257280     imgui_demo.obj
 0003:0001f2a8       ??_C@_0BE@PEEENKKH@HSV?5shown?5as?5RGB?$CD?$CD1?$AA@ 00000001402572a8     imgui_demo.obj
 0003:0001f2c0       ??_C@_0BE@DKMNGIOI@HSV?5shown?5as?5HSV?$CD?$CD1?$AA@ 00000001402572c0     imgui_demo.obj
 0003:0001f2d8       ??_C@_0P@PMCJHJ@Raw?5HSV?5values?$AA@ 00000001402572d8     imgui_demo.obj
 0003:0001f2f0       ??_C@_0BO@ONPGHCKF@Widgets?1Drag?5and?5Slider?5Flags?$AA@ 00000001402572f0     imgui_demo.obj
 0003:0001f318       ??_C@_0BC@FOMNFKHB@Drag?1Slider?5Flags?$AA@ 0000000140257318     imgui_demo.obj
 0003:0001f330       ??_C@_0BN@OEAGPOC@ImGuiSliderFlags_AlwaysClamp?$AA@ 0000000140257330     imgui_demo.obj
 0003:0001f360       ??_C@_0FD@BLABLEIF@Always?5clamp?5value?5to?5min?1max?5bo@ 0000000140257360     imgui_demo.obj
 0003:0001f3c8       ??_C@_0BN@HAKIJBBA@ImGuiSliderFlags_Logarithmic?$AA@ 00000001402573c8     imgui_demo.obj
 0003:0001f3f0       ??_C@_0DO@HKODNILP@Enable?5logarithmic?5editing?5?$CImore@ 00000001402573f0     imgui_demo.obj
 0003:0001f440       ??_C@_0CB@DOCCIAEK@ImGuiSliderFlags_NoRoundToFormat@ 0000000140257440     imgui_demo.obj
 0003:0001f470       ??_C@_0HM@PJMLMMLP@Disable?5rounding?5underlying?5valu@ 0000000140257470     imgui_demo.obj
 0003:0001f508       ??_C@_0BJ@KFAEJGBN@ImGuiSliderFlags_NoInput?$AA@ 0000000140257508     imgui_demo.obj
 0003:0001f530       ??_C@_0FB@JPLHIJIO@Disable?5CTRL?$CLClick?5or?5Enter?5key?5@ 0000000140257530     imgui_demo.obj
 0003:0001f598       ??_C@_0BL@HLOFLJPB@Underlying?5float?5value?3?5?$CFf?$AA@ 0000000140257598     imgui_demo.obj
 0003:0001f5b8       ??_C@_0BD@LPIMJICP@DragFloat?5?$CI0?5?9?$DO?51?$CJ?$AA@ 00000001402575b8     imgui_demo.obj
 0003:0001f5d0       ??_C@_0BG@EHNMBPIG@DragFloat?5?$CI0?5?9?$DO?5?$CLinf?$CJ?$AA@ 00000001402575d0     imgui_demo.obj
 0003:0001f5f0       ??_C@_0BG@GPJPIKGM@DragFloat?5?$CI?9inf?5?9?$DO?51?$CJ?$AA@ 00000001402575f0     imgui_demo.obj
 0003:0001f610       ??_C@_0BJ@MJEKBNMC@DragFloat?5?$CI?9inf?5?9?$DO?5?$CLinf?$CJ?$AA@ 0000000140257610     imgui_demo.obj
 0003:0001f630       ??_C@_0BD@KDPKGLCE@DragInt?5?$CI0?5?9?$DO?5100?$CJ?$AA@ 0000000140257630     imgui_demo.obj
 0003:0001f648       ??_C@_0BF@MCKPEGDC@SliderFloat?5?$CI0?5?9?$DO?51?$CJ?$AA@ 0000000140257648     imgui_demo.obj
 0003:0001f668       ??_C@_0BF@NONJLFDJ@SliderInt?5?$CI0?5?9?$DO?5100?$CJ?$AA@ 0000000140257668     imgui_demo.obj
 0003:0001f688       ??_C@_0BG@EMJJMOGJ@Widgets?1Range?5Widgets?$AA@ 0000000140257688     imgui_demo.obj
 0003:0001f6a8       ??_C@_0O@JEFPADJJ@Range?5Widgets?$AA@ 00000001402576a8     imgui_demo.obj
 0003:0001f6b8       ??_C@_0N@IBBLMIOP@Max?3?5?$CF?41f?5?$CF?$CF?$AA@ 00000001402576b8     imgui_demo.obj
 0003:0001f6c8       ??_C@_0N@MBFELAJJ@Min?3?5?$CF?41f?5?$CF?$CF?$AA@ 00000001402576c8     imgui_demo.obj
 0003:0001f6d8       ??_C@_0M@JOPHKMFF@range?5float?$AA@ 00000001402576d8     imgui_demo.obj
 0003:0001f6e8       ??_C@_0O@JDOPLCFE@Max?3?5?$CFd?5units?$AA@ 00000001402576e8     imgui_demo.obj
 0003:0001f6f8       ??_C@_0O@CKMJCJCF@Min?3?5?$CFd?5units?$AA@ 00000001402576f8     imgui_demo.obj
 0003:0001f708       ??_C@_09PIGNMEJF@range?5int?$AA@ 0000000140257708     imgui_demo.obj
 0003:0001f718       ??_C@_0BG@NFKPCFAN@range?5int?5?$CIno?5bounds?$CJ?$AA@ 0000000140257718     imgui_demo.obj
 0003:0001f738       ??_C@_0BD@GBBEGJPM@Widgets?1Data?5Types?$AA@ 0000000140257738     imgui_demo.obj
 0003:0001f750       ??_C@_0L@PAJDALGN@Data?5Types?$AA@ 0000000140257750     imgui_demo.obj
 0003:0001f760       ??_C@_0BJ@IECCHINH@Widgets?1Data?5Types?1Drags?$AA@ 0000000140257760     imgui_demo.obj
 0003:0001f780       ??_C@_06OFIAEEBG@Drags?3?$AA@ 0000000140257780     imgui_demo.obj
 0003:0001f788       ??_C@_0BI@LDAPNGOM@Clamp?5integers?5to?50?4?450?$AA@ 0000000140257788     imgui_demo.obj
 0003:0001f7b0       ??_C@_0KK@PJCBLLDP@As?5with?5every?5widget?5in?5dear?5img@ 00000001402577b0     imgui_demo.obj
 0003:0001f880       ??_C@_07LMCLPNLL@drag?5s8?$AA@ 0000000140257880     imgui_demo.obj
 0003:0001f88c       ??_C@_05MMEBHIBO@?$CFu?5ms?$AA@ 000000014025788c     imgui_demo.obj
 0003:0001f898       ??_C@_07LIKGIBAJ@drag?5u8?$AA@ 0000000140257898     imgui_demo.obj
 0003:0001f8a8       ??_C@_08NKMCOLAD@drag?5s16?$AA@ 00000001402578a8     imgui_demo.obj
 0003:0001f8b8       ??_C@_08PPKJLENP@drag?5u16?$AA@ 00000001402578b8     imgui_demo.obj
 0003:0001f8c8       ??_C@_08LNCKPKGJ@drag?5s32?$AA@ 00000001402578c8     imgui_demo.obj
 0003:0001f8d8       ??_C@_0N@LCGPEHEL@drag?5s32?5hex?$AA@ 00000001402578d8     imgui_demo.obj
 0003:0001f8e8       ??_C@_08JIEBKFLF@drag?5u32?$AA@ 00000001402578e8     imgui_demo.obj
 0003:0001f8f8       ??_C@_08ONLLJPAE@drag?5s64?$AA@ 00000001402578f8     imgui_demo.obj
 0003:0001f908       ??_C@_08MINAMANI@drag?5u64?$AA@ 0000000140257908     imgui_demo.obj
 0003:0001f914       ??_C@_02NJPGOMH@?$CFf?$AA@ 0000000140257914     imgui_demo.obj
 0003:0001f918       ??_C@_0P@OJENAICP@drag?5float?5log?$AA@ 0000000140257918     imgui_demo.obj
 0003:0001f930       ??_C@_0M@PBAPOGLA@?$CF?410f?5grams?$AA@ 0000000140257930     imgui_demo.obj
 0003:0001f940       ??_C@_0M@IJGAEMEI@drag?5double?$AA@ 0000000140257940     imgui_demo.obj
 0003:0001f950       ??_C@_0O@PIJBNPDH@0?5?$DM?5?$CF?410f?5?$DM?51?$AA@ 0000000140257950     imgui_demo.obj
 0003:0001f960       ??_C@_0BA@PLPECJH@drag?5double?5log?$AA@ 0000000140257960     imgui_demo.obj
 0003:0001f978       ??_C@_0BL@FMNOJHKA@Widgets?1Data?5Types?1Sliders?$AA@ 0000000140257978     imgui_demo.obj
 0003:0001f998       ??_C@_07BBLEOMAH@Sliders?$AA@ 0000000140257998     imgui_demo.obj
 0003:0001f9a8       ??_C@_0P@BGDAIEKI@slider?5s8?5full?$AA@ 00000001402579a8     imgui_demo.obj
 0003:0001f9bc       ??_C@_02GMHACPFF@?$CFu?$AA@ 00000001402579bc     imgui_demo.obj
 0003:0001f9c0       ??_C@_0P@NAFPINCP@slider?5u8?5full?$AA@ 00000001402579c0     imgui_demo.obj
 0003:0001f9d8       ??_C@_0BA@NJECJBBM@slider?5s16?5full?$AA@ 00000001402579d8     imgui_demo.obj
 0003:0001f9f0       ??_C@_0BA@KKFIOIJG@slider?5u16?5full?$AA@ 00000001402579f0     imgui_demo.obj
 0003:0001fa08       ??_C@_0P@LPLLDPN@slider?5s32?5low?$AA@ 0000000140257a08     imgui_demo.obj
 0003:0001fa20       ??_C@_0BA@KCOOMONB@slider?5s32?5high?$AA@ 0000000140257a20     imgui_demo.obj
 0003:0001fa38       ??_C@_0BA@GPCILCHC@slider?5s32?5full?$AA@ 0000000140257a38     imgui_demo.obj
 0003:0001fa4c       ??_C@_06IFILMILK@0x?$CF04X?$AA@ 0000000140257a4c     imgui_demo.obj
 0003:0001fa58       ??_C@_0P@OJGLNLD@slider?5s32?5hex?$AA@ 0000000140257a58     imgui_demo.obj
 0003:0001fa70       ??_C@_0P@MNJELKHK@slider?5u32?5low?$AA@ 0000000140257a70     imgui_demo.obj
 0003:0001fa88       ??_C@_0BA@NBPELHFL@slider?5u32?5high?$AA@ 0000000140257a88     imgui_demo.obj
 0003:0001faa0       ??_C@_0BA@BMDCMLPI@slider?5u32?5full?$AA@ 0000000140257aa0     imgui_demo.obj
 0003:0001fab4       ??_C@_05LLAMLEHD@?$CFI64d?$AA@ 0000000140257ab4     imgui_demo.obj
 0003:0001fac0       ??_C@_0P@IPJKHPEH@slider?5s64?5low?$AA@ 0000000140257ac0     imgui_demo.obj
 0003:0001fad8       ??_C@_0BA@IJNOPFIP@slider?5s64?5high?$AA@ 0000000140257ad8     imgui_demo.obj
 0003:0001faf0       ??_C@_0BA@EEBIIJCM@slider?5s64?5full?$AA@ 0000000140257af0     imgui_demo.obj
 0003:0001fb08       ??_C@_08GGAHJCGP@?$CFI64u?5ms?$AA@ 0000000140257b08     imgui_demo.obj
 0003:0001fb18       ??_C@_0P@EJPFHGMA@slider?5u64?5low?$AA@ 0000000140257b18     imgui_demo.obj
 0003:0001fb30       ??_C@_0BA@PKMEIMAF@slider?5u64?5high?$AA@ 0000000140257b30     imgui_demo.obj
 0003:0001fb48       ??_C@_0BA@DHACPAKG@slider?5u64?5full?$AA@ 0000000140257b48     imgui_demo.obj
 0003:0001fb60       ??_C@_0BB@CCICNGDA@slider?5float?5low?$AA@ 0000000140257b60     imgui_demo.obj
 0003:0001fb74       ??_C@_05DIPGONMJ@?$CF?410f?$AA@ 0000000140257b74     imgui_demo.obj
 0003:0001fb80       ??_C@_0BF@HMPMBMMM@slider?5float?5low?5log?$AA@ 0000000140257b80     imgui_demo.obj
 0003:0001fba0       ??_C@_0BC@EHBCAJLJ@slider?5float?5high?$AA@ 0000000140257ba0     imgui_demo.obj
 0003:0001fbb8       ??_C@_0BC@NEJIDBJN@slider?5double?5low?$AA@ 0000000140257bb8     imgui_demo.obj
 0003:0001fbd0       ??_C@_0BG@ILKDLGMD@slider?5double?5low?5log?$AA@ 0000000140257bd0     imgui_demo.obj
 0003:0001fbf0       ??_C@_08NHECNFJD@?$CFe?5grams?$AA@ 0000000140257bf0     imgui_demo.obj
 0003:0001fc00       ??_C@_0BD@OPIDMMAL@slider?5double?5high?$AA@ 0000000140257c00     imgui_demo.obj
 0003:0001fc18       ??_C@_0BC@BGMAPONL@Sliders?5?$CIreverse?$CJ?$AA@ 0000000140257c18     imgui_demo.obj
 0003:0001fc30       ??_C@_0BC@BBCEKAEC@slider?5s8?5reverse?$AA@ 0000000140257c30     imgui_demo.obj
 0003:0001fc48       ??_C@_0BC@PJJBGKAB@slider?5u8?5reverse?$AA@ 0000000140257c48     imgui_demo.obj
 0003:0001fc60       ??_C@_0BD@LEKBJPO@slider?5s32?5reverse?$AA@ 0000000140257c60     imgui_demo.obj
 0003:0001fc78       ??_C@_0BD@OEHHLMBO@slider?5u32?5reverse?$AA@ 0000000140257c78     imgui_demo.obj
 0003:0001fc90       ??_C@_0BD@HHADMFPL@slider?5s64?5reverse?$AA@ 0000000140257c90     imgui_demo.obj
 0003:0001fca8       ??_C@_0BD@JIDOGABL@slider?5u64?5reverse?$AA@ 0000000140257ca8     imgui_demo.obj
 0003:0001fcc0       ??_C@_0BK@KLDNNLLJ@Widgets?1Data?5Types?1Inputs?$AA@ 0000000140257cc0     imgui_demo.obj
 0003:0001fce0       ??_C@_0BC@HEADHDLD@Show?5step?5buttons?$AA@ 0000000140257ce0     imgui_demo.obj
 0003:0001fcf8       ??_C@_08HGJIKBLN@input?5s8?$AA@ 0000000140257cf8     imgui_demo.obj
 0003:0001fd08       ??_C@_08HCBFNNAP@input?5u8?$AA@ 0000000140257d08     imgui_demo.obj
 0003:0001fd18       ??_C@_09DDGLPNGK@input?5s16?$AA@ 0000000140257d18     imgui_demo.obj
 0003:0001fd28       ??_C@_09BGAAKCLG@input?5u16?$AA@ 0000000140257d28     imgui_demo.obj
 0003:0001fd38       ??_C@_09FEIDOMAA@input?5s32?$AA@ 0000000140257d38     imgui_demo.obj
 0003:0001fd44       ??_C@_04JBNHMKCH@?$CF04X?$AA@ 0000000140257d44     imgui_demo.obj
 0003:0001fd50       ??_C@_0O@EKPJHNHM@input?5s32?5hex?$AA@ 0000000140257d50     imgui_demo.obj
 0003:0001fd60       ??_C@_09HBOILDNM@input?5u32?$AA@ 0000000140257d60     imgui_demo.obj
 0003:0001fd6c       ??_C@_04JIMNDDED@?$CF08X?$AA@ 0000000140257d6c     imgui_demo.obj
 0003:0001fd78       ??_C@_0O@IMJGHEPL@input?5u32?5hex?$AA@ 0000000140257d78     imgui_demo.obj
 0003:0001fd88       ??_C@_09EBCIJGN@input?5s64?$AA@ 0000000140257d88     imgui_demo.obj
 0003:0001fd98       ??_C@_09CBHJNGLB@input?5u64?$AA@ 0000000140257d98     imgui_demo.obj
 0003:0001fda8       ??_C@_0CA@DGAGEKBO@Widgets?1Multi?9component?5Widgets?$AA@ 0000000140257da8     imgui_demo.obj
 0003:0001fdd0       ??_C@_0BI@ELCHCBAK@Multi?9component?5Widgets?$AA@ 0000000140257dd0     imgui_demo.obj
 0003:0001fdf0       ??_C@_0N@LDNFGIIE@input?5float2?$AA@ 0000000140257df0     imgui_demo.obj
 0003:0001fe00       ??_C@_0M@EHEBDGFJ@drag?5float2?$AA@ 0000000140257e00     imgui_demo.obj
 0003:0001fe10       ??_C@_0O@NIDINEOI@slider?5float2?$AA@ 0000000140257e10     imgui_demo.obj
 0003:0001fe20       ??_C@_0L@IKAEHOLD@input?5int2?$AA@ 0000000140257e20     imgui_demo.obj
 0003:0001fe30       ??_C@_09LOIDAOFJ@drag?5int2?$AA@ 0000000140257e30     imgui_demo.obj
 0003:0001fe40       ??_C@_0M@LEEOPKGD@slider?5int2?$AA@ 0000000140257e40     imgui_demo.obj
 0003:0001fe50       ??_C@_0M@FOFKAHBI@drag?5float3?$AA@ 0000000140257e50     imgui_demo.obj
 0003:0001fe60       ??_C@_0O@MBCDOFKJ@slider?5float3?$AA@ 0000000140257e60     imgui_demo.obj
 0003:0001fe70       ??_C@_0L@JDBPEPPC@input?5int3?$AA@ 0000000140257e70     imgui_demo.obj
 0003:0001fe80       ??_C@_09KHJIDPBI@drag?5int3?$AA@ 0000000140257e80     imgui_demo.obj
 0003:0001fe90       ??_C@_0M@KNFFMLCC@slider?5int3?$AA@ 0000000140257e90     imgui_demo.obj
 0003:0001fea0       ??_C@_0N@OFIPMPAC@input?5float4?$AA@ 0000000140257ea0     imgui_demo.obj
 0003:0001feb0       ??_C@_0M@BBBLJBNP@drag?5float4?$AA@ 0000000140257eb0     imgui_demo.obj
 0003:0001fec0       ??_C@_0O@IOGCHDGO@slider?5float4?$AA@ 0000000140257ec0     imgui_demo.obj
 0003:0001fed0       ??_C@_0L@NMFONJDF@input?5int4?$AA@ 0000000140257ed0     imgui_demo.obj
 0003:0001fee0       ??_C@_09OINJKJNP@drag?5int4?$AA@ 0000000140257ee0     imgui_demo.obj
 0003:0001fef0       ??_C@_0M@OCBEFNOF@slider?5int4?$AA@ 0000000140257ef0     imgui_demo.obj
 0003:0001ff00       ??_C@_0BJ@PJBGHCMF@Widgets?1Vertical?5Sliders?$AA@ 0000000140257f00     imgui_demo.obj
 0003:0001ff20       ??_C@_0BB@EAIBMPEL@Vertical?5Sliders?$AA@ 0000000140257f20     imgui_demo.obj
 0003:0001ff34       ??_C@_05GFAJOEB@?$CD?$CDint?$AA@ 0000000140257f34     imgui_demo.obj
 0003:0001ff3c       ??_C@_04BOPCFCPC@set1?$AA@ 0000000140257f3c     imgui_demo.obj
 0003:0001ff44       ??_C@_03CPFCAGPK@?$CD?$CDv?$AA@ 0000000140257f44     imgui_demo.obj
 0003:0001ff48       ??_C@_04DFNPABDB@set2?$AA@ 0000000140257f48     imgui_demo.obj
 0003:0001ff50       ??_C@_04CMMEDAHA@set3?$AA@ 0000000140257f50     imgui_demo.obj
 0003:0001ff58       ??_C@_08OPMLCCJJ@?$CF?42f?6sec?$AA@ 0000000140257f58     imgui_demo.obj
 0003:0001ff68       ??_C@_0BG@MGGGFMDO@Widgets?1Drag?5and?5drop?$AA@ 0000000140257f68     imgui_demo.obj
 0003:0001ff88       ??_C@_0O@NPGBLOMK@Drag?5and?5Drop?$AA@ 0000000140257f88     imgui_demo.obj
 0003:0001ff98       ??_C@_0CH@JCNBENHC@Widgets?1Drag?5and?5drop?1Standard?5w@ 0000000140257f98     imgui_demo.obj
 0003:0001ffc8       ??_C@_0CC@EPFBCHH@Drag?5and?5drop?5in?5standard?5widget@ 0000000140257fc8     imgui_demo.obj
 0003:0001fff0       ??_C@_0CF@BONKBAOB@You?5can?5drag?5from?5the?5color?5squa@ 0000000140257ff0     imgui_demo.obj
 0003:00020020       ??_C@_0CG@ELLGHBBE@Widgets?1Drag?5and?5drop?1Copy?9swap?5@ 0000000140258020     imgui_demo.obj
 0003:00020050       ??_C@_0CB@EBEBHJBF@Drag?5and?5drop?5to?5copy?1swap?5items@ 0000000140258050     imgui_demo.obj
 0003:00020078       ??_C@_04LCANPIEP@Move?$AA@ 0000000140258078     imgui_demo.obj
 0003:00020080       ??_C@_04NGKMPNDN@Swap?$AA@ 0000000140258080     imgui_demo.obj
 0003:00020088       ??_C@_0O@IBJLLBID@DND_DEMO_CELL?$AA@ 0000000140258088     imgui_demo.obj
 0003:00020098       ??_C@_07CFHHFHOL@Copy?5?$CFs?$AA@ 0000000140258098     imgui_demo.obj
 0003:000200a8       ??_C@_07EDLENMEH@Move?5?$CFs?$AA@ 00000001402580a8     imgui_demo.obj
 0003:000200b8       ??_C@_07MIGHAHCG@Swap?5?$CFs?$AA@ 00000001402580b8     imgui_demo.obj
 0003:000200d0       ??_C@_1EC@PPPBDLLH@?$AAp?$AAa?$AAy?$AAl?$AAo?$AAa?$AAd?$AA?9?$AA?$DO?$AAD?$AAa?$AAt?$AAa?$AAS?$AAi?$AAz?$AAe?$AA?5?$AA?$DN?$AA?$DN?$AA?5?$AAs?$AAi?$AAz?$AAe?$AAo?$AAf?$AA?$CI?$AAi?$AAn?$AAt?$AA?$CJ@ 00000001402580d0     imgui_demo.obj
 0003:00020120       ??_C@_0DF@EMDCONLH@Widgets?1Drag?5and?5Drop?1Drag?5to?5re@ 0000000140258120     imgui_demo.obj
 0003:00020160       ??_C@_0BP@DIEMEPOM@Drag?5to?5reorder?5items?5?$CIsimple?$CJ?$AA@ 0000000140258160     imgui_demo.obj
 0003:00020190       ??_C@_0IF@PPHKDPML@We?5don?8t?5use?5the?5drag?5and?5drop?5a@ 0000000140258190     imgui_demo.obj
 0003:00020230       ??_C@_0DK@EFBKDNNE@Widgets?1Querying?5Item?5Status?5?$CIEd@ 0000000140258230     imgui_demo.obj
 0003:00020278       ??_C@_0DC@BNAEMHFC@Querying?5Item?5Status?5?$CIEdited?1Act@ 0000000140258278     imgui_demo.obj
 0003:000202b8       ??_C@_0BD@MDBANHDM@Button?5?$CIw?1?5repeat?$CJ?$AA@ 00000001402582b8     imgui_demo.obj
 0003:000202d0       ??_C@_08HBKJHHBM@Checkbox?$AA@ 00000001402582d0     imgui_demo.obj
 0003:000202e0       ??_C@_0M@LOEAKMNB@SliderFloat?$AA@ 00000001402582e0     imgui_demo.obj
 0003:000202f0       ??_C@_0BD@GFPADHGG@InputTextMultiline?$AA@ 00000001402582f0     imgui_demo.obj
 0003:00020308       ??_C@_0L@BOKHHMCO@InputFloat?$AA@ 0000000140258308     imgui_demo.obj
 0003:00020318       ??_C@_0M@CIKDMPID@InputFloat3?$AA@ 0000000140258318     imgui_demo.obj
 0003:00020328       ??_C@_0L@KOIOKOAF@ColorEdit4?$AA@ 0000000140258328     imgui_demo.obj
 0003:00020338       ??_C@_0L@CGGBDDBB@Selectable?$AA@ 0000000140258338     imgui_demo.obj
 0003:00020348       ??_C@_08BLHBLMG@MenuItem?$AA@ 0000000140258348     imgui_demo.obj
 0003:00020358       ??_C@_08IKFIGNAO@TreeNode?$AA@ 0000000140258358     imgui_demo.obj
 0003:00020368       ??_C@_0BL@BMPDCCKO@TreeNode?5?$CIw?1?5double?9click?$CJ?$AA@ 0000000140258368     imgui_demo.obj
 0003:00020388       ??_C@_07OOFFCIDH@ListBox?$AA@ 0000000140258388     imgui_demo.obj
 0003:00020398       ??_C@_09DBIMNOFJ@Item?5Type?$AA@ 0000000140258398     imgui_demo.obj
 0003:000203b0       ??_C@_0MD@CGCEADDG@Testing?5how?5various?5types?5of?5ite@ 00000001402583b0     imgui_demo.obj
 0003:000204a0       ??_C@_0O@FAHHGPEA@Item?5Disabled?$AA@ 00000001402584a0     imgui_demo.obj
 0003:000204b0       ??_C@_0L@HEHKMKDF@ITEM?3?5Text?$AA@ 00000001402584b0     imgui_demo.obj
 0003:000204c0       ??_C@_0N@KDFNBBDI@ITEM?3?5Button?$AA@ 00000001402584c0     imgui_demo.obj
 0003:000204d0       ??_C@_0P@EJKLMMCP@ITEM?3?5Checkbox?$AA@ 00000001402584d0     imgui_demo.obj
 0003:000204e8       ??_C@_0BC@HBFCOBHP@ITEM?3?5SliderFloat?$AA@ 00000001402584e8     imgui_demo.obj
 0003:00020500       ??_C@_0BA@HPKEIJD@ITEM?3?5InputText?$AA@ 0000000140258500     imgui_demo.obj
 0003:00020518       ??_C@_0BJ@PFKMLMFF@ITEM?3?5InputTextMultiline?$AA@ 0000000140258518     imgui_demo.obj
 0003:00020538       ??_C@_0BB@LGHPELBI@ITEM?3?5InputFloat?$AA@ 0000000140258538     imgui_demo.obj
 0003:00020550       ??_C@_0BC@OHLBICCN@ITEM?3?5InputFloat3?$AA@ 0000000140258550     imgui_demo.obj
 0003:00020568       ??_C@_0BB@GFGJJDD@ITEM?3?5ColorEdit4?$AA@ 0000000140258568     imgui_demo.obj
 0003:00020580       ??_C@_0BB@IOLJAECH@ITEM?3?5Selectable?$AA@ 0000000140258580     imgui_demo.obj
 0003:00020598       ??_C@_0P@DJLFKAPF@ITEM?3?5MenuItem?$AA@ 0000000140258598     imgui_demo.obj
 0003:000205b0       ??_C@_0P@LCFKNGDN@ITEM?3?5TreeNode?$AA@ 00000001402585b0     imgui_demo.obj
 0003:000205c8       ??_C@_0DH@BOEHHDDC@ITEM?3?5TreeNode?5w?1?5ImGuiTreeNodeF@ 00000001402585c8     imgui_demo.obj
 0003:00020610       ??_C@_0M@JPKNJLGM@ITEM?3?5Combo?$AA@ 0000000140258610     imgui_demo.obj
 0003:00020620       ??_C@_0O@DECMNPJF@ITEM?3?5ListBox?$AA@ 0000000140258620     imgui_demo.obj
 0003:00020630       ??_C@_0CCH@GLOAKFDB@Return?5value?5?$DN?5?$CFd?6IsItemFocused?$CI@ 0000000140258630     imgui_demo.obj
 0003:000208c8       ??_C@_0DD@FBICNHKB@w?1?5Hovering?5Delay?3?5None?5?$DN?5?$CFd?0?5Fa@ 00000001402588c8     imgui_demo.obj
 0003:00020908       ??_C@_06OJAIHGIC@unused?$AA@ 0000000140258908     imgui_demo.obj
 0003:00020910       ??_C@_0GH@DPFHCGHD@This?5widget?5is?5only?5here?5to?5be?5a@ 0000000140258910     imgui_demo.obj
 0003:00020990       ??_C@_0DG@IOBCHNLH@Widgets?1Querying?5Window?5Status?5?$CI@ 0000000140258990     imgui_demo.obj
 0003:000209d0       ??_C@_0CO@GHICHHHH@Querying?5Window?5Status?5?$CIFocused?1@ 00000001402589d0     imgui_demo.obj
 0003:00020a10       ??_C@_0EF@HEEHLIKF@Embed?5everything?5inside?5a?5child?5@ 0000000140258a10     imgui_demo.obj
 0003:00020a68       ??_C@_0M@KCHHLPPE@outer_child?$AA@ 0000000140258a68     imgui_demo.obj
 0003:00020a80       ??_C@_0BFL@IGCCLIMC@IsWindowFocused?$CI?$CJ?5?$DN?5?$CFd?6IsWindowF@ 0000000140258a80     imgui_demo.obj
 0003:00020c20       ??_C@_0BPL@PECCPJNF@IsWindowHovered?$CI?$CJ?5?$DN?5?$CFd?6IsWindowH@ 0000000140258c20     imgui_demo.obj
 0003:00020e80       ??_C@_05GPGNDLEK@child?$AA@ 0000000140258e80     imgui_demo.obj
 0003:00020e90       ??_C@_0EB@JLFLAMNL@This?5is?5another?5child?5window?5for@ 0000000140258e90     imgui_demo.obj
 0003:00020ee0       ??_C@_0DJ@OKFMLKNH@Hovered?1Active?5tests?5after?5Begin@ 0000000140258ee0     imgui_demo.obj
 0003:00020f28       ??_C@_0BP@MFKNMHP@Title?5bar?5Hovered?1Active?5tests?$AA@ 0000000140258f28     imgui_demo.obj
 0003:00020f50       ??_C@_05LGELBCGM@Close?$AA@ 0000000140258f50     imgui_demo.obj
 0003:00020f60       ??_C@_0HP@CKBHJIAM@IsItemHovered?$CI?$CJ?5after?5begin?5?$DN?5?$CFd@ 0000000140258f60     imgui_demo.obj
 0003:00020ff8       ??_C@_0BG@GMADNJLN@Widgets?1Disable?5Block?$AA@ 0000000140258ff8     imgui_demo.obj
 0003:00021018       ??_C@_0O@LDGJBBHL@Disable?5block?$AA@ 0000000140259018     imgui_demo.obj
 0003:00021028       ??_C@_0BN@CHNIACDP@Disable?5entire?5section?5above?$AA@ 0000000140259028     imgui_demo.obj
 0003:00021050       ??_C@_0EF@FEKDLMNJ@Demonstrate?5using?5BeginDisabled?$CI@ 0000000140259050     imgui_demo.obj
 0003:000210a8       ??_C@_0BE@EPEANCCD@Widgets?1Text?5Filter?$AA@ 00000001402590a8     imgui_demo.obj
 0003:000210c0       ??_C@_0M@MINJPGJD@Text?5Filter?$AA@ 00000001402590c0     imgui_demo.obj
 0003:000210d0       ??_C@_0GC@CDJPIFKB@Not?5a?5widget?5per?9se?0?5but?5ImGuiTe@ 00000001402590d0     imgui_demo.obj
 0003:00021150       ??_C@_0LH@KANOFBLE@Filter?5usage?3?6?5?5?$CC?$CC?5?5?5?5?5?5?5?5?5displ@ 0000000140259150     imgui_demo.obj
 0003:00021230       ??_C@_0BC@HPCLFOON@Filter?5?$CIinc?0?9exc?$CJ?$AA@ 0000000140259230     imgui_demo.obj
 0003:00021248       ??_C@_06BMDMCJJI@aaa1?4c?$AA@ 0000000140259248     imgui_demo.obj
 0003:00021250       ??_C@_06OMOADLHL@bbb1?4c?$AA@ 0000000140259250     imgui_demo.obj
 0003:00021258       ??_C@_06LMKLMKNK@ccc1?4c?$AA@ 0000000140259258     imgui_demo.obj
 0003:00021260       ??_C@_08GHAOHEK@aaa2?4cpp?$AA@ 0000000140259260     imgui_demo.obj
 0003:00021270       ??_C@_08IAJKMGPB@bbb2?4cpp?$AA@ 0000000140259270     imgui_demo.obj
 0003:00021280       ??_C@_08PNDMNJJI@ccc2?4cpp?$AA@ 0000000140259280     imgui_demo.obj
 0003:0002128c       ??_C@_05NIADHECG@abc?4h?$AA@ 000000014025928c     imgui_demo.obj
 0003:00021298       ??_C@_0N@OLAOGCLC@hello?0?5world?$AA@ 0000000140259298     imgui_demo.obj
 0003:000212a8       ??_C@_06KMHOJANB@Layout?$AA@ 00000001402592a8     imgui_demo.obj
 0003:000212b0       ??_C@_0BD@JPJJCKFL@Layout?5?$CG?5Scrolling?$AA@ 00000001402592b0     imgui_demo.obj
 0003:000212c8       ??_C@_0BF@MLLFPDNJ@Layout?1Child?5windows?$AA@ 00000001402592c8     imgui_demo.obj
 0003:000212e8       ??_C@_0O@CCLKLEED@Child?5windows?$AA@ 00000001402592e8     imgui_demo.obj
 0003:00021300       ??_C@_0GO@NHEDEMHF@Use?5child?5windows?5to?5begin?5into?5@ 0000000140259300     imgui_demo.obj
 0003:00021388       ??_C@_0BE@DLAKMPBE@Disable?5Mouse?5Wheel?$AA@ 0000000140259388     imgui_demo.obj
 0003:000213a0       ??_C@_0N@PGMIMFJH@Disable?5Menu?$AA@ 00000001402593a0     imgui_demo.obj
 0003:000213b0       ??_C@_06FBHPMCA@ChildL?$AA@ 00000001402593b0     imgui_demo.obj
 0003:000213b8       ??_C@_0BI@NIHPFDMO@?$CF04d?3?5scrollable?5region?$AA@ 00000001402593b8     imgui_demo.obj
 0003:000213d4       ??_C@_06NBFGMDPP@ChildR?$AA@ 00000001402593d4     imgui_demo.obj
 0003:000213dc       ??_C@_04OHGLKFFN@?$CF03d?$AA@ 00000001402593dc     imgui_demo.obj
 0003:000213e8       ??_C@_08JECJNGEB@Offset?5X?$AA@ 00000001402593e8     imgui_demo.obj
 0003:000213f4       ??_C@_03PADCEAKC@Red?$AA@  00000001402593f4     imgui_demo.obj
 0003:000213f8       ??_C@_0N@NPCHMHMN@Some?5test?5?$CFd?$AA@ 00000001402593f8     imgui_demo.obj
 0003:00021408       ??_C@_0M@EMOADGAG@Hovered?3?5?$CFd?$AA@ 0000000140259408     imgui_demo.obj
 0003:00021418       ??_C@_0DB@EENCLFAL@Rect?5of?5child?5window?5is?3?5?$CI?$CF?40f?0?$CF@ 0000000140259418     imgui_demo.obj
 0003:00021458       ??_C@_0BF@OGICDKID@Layout?1Widgets?5Width?$AA@ 0000000140259458     imgui_demo.obj
 0003:00021478       ??_C@_0O@PINHNBJ@Widgets?5Width?$AA@ 0000000140259478     imgui_demo.obj
 0003:00021488       ??_C@_0BE@LMCIIFLK@Show?5indented?5items?$AA@ 0000000140259488     imgui_demo.obj
 0003:000214a0       ??_C@_0CE@LPIOKAFF@SetNextItemWidth?1PushItemWidth?$CI1@ 00000001402594a0     imgui_demo.obj
 0003:000214d0       ??_C@_0N@BANGKKCL@Fixed?5width?4?$AA@ 00000001402594d0     imgui_demo.obj
 0003:000214e0       ??_C@_09IIOGPIBJ@float?$CD?$CD1b?$AA@ 00000001402594e0     imgui_demo.obj
 0003:000214f0       ??_C@_0BF@IPGFKEDH@float?5?$CIindented?$CJ?$CD?$CD1b?$AA@ 00000001402594f0     imgui_demo.obj
 0003:00021510       ??_C@_0CF@FHLMHJP@SetNextItemWidth?1PushItemWidth?$CI?9@ 0000000140259510     imgui_demo.obj
 0003:00021540       ??_C@_0BO@IEOHBCBL@Align?5to?5right?5edge?5minus?5100?$AA@ 0000000140259540     imgui_demo.obj
 0003:00021568       ??_C@_09KBINBFID@float?$CD?$CD2a?$AA@ 0000000140259568     imgui_demo.obj
 0003:00021578       ??_C@_0BF@INCDBKGO@float?5?$CIindented?$CJ?$CD?$CD2b?$AA@ 0000000140259578     imgui_demo.obj
 0003:000215a0       ??_C@_0EB@LHGGMOLL@SetNextItemWidth?1PushItemWidth?$CIG@ 00000001402595a0     imgui_demo.obj
 0003:000215f0       ??_C@_0EK@LHEEJHHB@Half?5of?5available?5width?4?6?$CI?$HO?5righ@ 00000001402595f0     imgui_demo.obj
 0003:00021648       ??_C@_09KAEPHPLE@float?$CD?$CD3a?$AA@ 0000000140259648     imgui_demo.obj
 0003:00021658       ??_C@_0BF@IMOBHAFJ@float?5?$CIindented?$CJ?$CD?$CD3b?$AA@ 0000000140259658     imgui_demo.obj
 0003:00021680       ??_C@_0EC@PNELNOAD@SetNextItemWidth?1PushItemWidth?$CI?9@ 0000000140259680     imgui_demo.obj
 0003:000216d0       ??_C@_0BP@JKFCPAHG@Align?5to?5right?5edge?5minus?5half?$AA@ 00000001402596d0     imgui_demo.obj
 0003:000216f8       ??_C@_09KFAAGJDB@float?$CD?$CD4a?$AA@ 00000001402596f8     imgui_demo.obj
 0003:00021708       ??_C@_0BF@IJKOGGNM@float?5?$CIindented?$CJ?$CD?$CD4b?$AA@ 0000000140259708     imgui_demo.obj
 0003:00021728       ??_C@_0CJ@HIOADNAC@SetNextItemWidth?1PushItemWidth?$CI?9@ 0000000140259728     imgui_demo.obj
 0003:00021760       ??_C@_0BE@CLIHJLDF@Align?5to?5right?5edge?$AA@ 0000000140259760     imgui_demo.obj
 0003:00021778       ??_C@_09LOBKLHLF@?$CD?$CDfloat5a?$AA@ 0000000140259778     imgui_demo.obj
 0003:00021788       ??_C@_0BF@IIGMAMOL@float?5?$CIindented?$CJ?$CD?$CD5b?$AA@ 0000000140259788     imgui_demo.obj
 0003:000217a8       ??_C@_0BP@OIAKENPD@Layout?1Basic?5Horizontal?5Layout?$AA@ 00000001402597a8     imgui_demo.obj
 0003:000217d0       ??_C@_0BI@MLGIMKHF@Basic?5Horizontal?5Layout?$AA@ 00000001402597d0     imgui_demo.obj
 0003:000217f0       ??_C@_0FA@GPJJJDFK@?$CIUse?5ImGui?3?3SameLine?$CI?$CJ?5to?5keep?5a@ 00000001402597f0     imgui_demo.obj
 0003:00021850       ??_C@_0CI@JJPKKMMM@Layout?1Basic?5Horizontal?5Layout?1S@ 0000000140259850     imgui_demo.obj
 0003:00021880       ??_C@_0BB@CPONELNL@Two?5items?3?5Hello?$AA@ 0000000140259880     imgui_demo.obj
 0003:00021898       ??_C@_0BE@BBDLDECN@More?5spacing?3?5Hello?$AA@ 0000000140259898     imgui_demo.obj
 0003:000218b0       ??_C@_0P@PEKJFFJL@Normal?5buttons?$AA@ 00000001402598b0     imgui_demo.obj
 0003:000218c8       ??_C@_0M@IAINFGJF@Corniflower?$AA@ 00000001402598c8     imgui_demo.obj
 0003:000218d8       ??_C@_0O@JIDOKED@Small?5buttons?$AA@ 00000001402598d8     imgui_demo.obj
 0003:000218e8       ??_C@_0O@DOOOCPOJ@Like?5this?5one?$AA@ 00000001402598e8     imgui_demo.obj
 0003:000218f8       ??_C@_0BN@FOPDMCKC@can?5fit?5within?5a?5text?5block?4?$AA@ 00000001402598f8     imgui_demo.obj
 0003:00021920       ??_C@_0DG@PNPLOBCG@Layout?1Basic?5Horizontal?5Layout?1S@ 0000000140259920     imgui_demo.obj
 0003:00021960       ??_C@_07KDGBBGOD@Aligned?$AA@ 0000000140259960     imgui_demo.obj
 0003:0002196c       ??_C@_05EFIMCDIL@x?$DN150?$AA@ 000000014025996c     imgui_demo.obj
 0003:00021974       ??_C@_05OJEOCJOL@x?$DN300?$AA@ 0000000140259974     imgui_demo.obj
 0003:00021980       ??_C@_0CP@MGOPNFDK@Layout?1Basic?5Horizontal?5Layout?1S@ 0000000140259980     imgui_demo.obj
 0003:000219b8       ??_C@_02IGABPKMB@My?$AA@   00000001402599b8     imgui_demo.obj
 0003:000219bc       ??_C@_06MNPBPLDE@Tailor?$AA@ 00000001402599bc     imgui_demo.obj
 0003:000219c4       ??_C@_02HLOHLKJH@Is?$AA@   00000001402599c4     imgui_demo.obj
 0003:000219c8       ??_C@_04NKJFLIBG@Rich?$AA@ 00000001402599c8     imgui_demo.obj
 0003:000219d0       ??_C@_06OHPCMELK@Lists?3?$AA@ 00000001402599d0     imgui_demo.obj
 0003:000219d8       ??_C@_0CF@BAJJENJB@Layout?1Basic?5Horizontal?5Layout?1D@ 00000001402599d8     imgui_demo.obj
 0003:00021a08       ??_C@_0CP@EDHPDNEN@Layout?1Basic?5Horizontal?5Layout?1M@ 0000000140259a08     imgui_demo.obj
 0003:00021a40       ??_C@_0BB@EBMAGHCE@Manual?5wrapping?3?$AA@ 0000000140259a40     imgui_demo.obj
 0003:00021a54       ??_C@_03ELMLMPLG@Box?$AA@  0000000140259a54     imgui_demo.obj
 0003:00021a58       ??_C@_0O@KBPNIDDB@Layout?1Groups?$AA@ 0000000140259a58     imgui_demo.obj
 0003:00021a68       ??_C@_06LCLFDFOL@Groups?$AA@ 0000000140259a68     imgui_demo.obj
 0003:00021a70       ??_C@_0NJ@BBEJCFPH@BeginGroup?$CI?$CJ?5basically?5locks?5the@ 0000000140259a70     imgui_demo.obj
 0003:00021b74       ??_C@_03GFCJIGAI@AAA?$AA@  0000000140259b74     imgui_demo.obj
 0003:00021b78       ??_C@_03FOPHMEHM@BBB?$AA@  0000000140259b78     imgui_demo.obj
 0003:00021b7c       ??_C@_03POJCPIGP@CCC?$AA@  0000000140259b7c     imgui_demo.obj
 0003:00021b80       ??_C@_03CJELEAJE@DDD?$AA@  0000000140259b80     imgui_demo.obj
 0003:00021b84       ??_C@_03IJCOHMIH@EEE?$AA@  0000000140259b84     imgui_demo.obj
 0003:00021b88       ??_C@_0BE@GCGPENCF@First?5group?5hovered?$AA@ 0000000140259b88     imgui_demo.obj
 0003:00021ba0       ??_C@_08NDEOOAHA@?$CD?$CDvalues?$AA@ 0000000140259ba0     imgui_demo.obj
 0003:00021bac       ??_C@_06DHJAPAEE@ACTION?$AA@ 0000000140259bac     imgui_demo.obj
 0003:00021bb8       ??_C@_08HBCMJOON@REACTION?$AA@ 0000000140259bb8     imgui_demo.obj
 0003:00021bc8       ??_C@_0BC@NCAPIIPH@LEVERAGE?6BUZZWORD?$AA@ 0000000140259bc8     imgui_demo.obj
 0003:00021be0       ??_C@_04PPBEGPNI@List?$AA@ 0000000140259be0     imgui_demo.obj
 0003:00021be8       ??_C@_08KLEPBNHL@Selected?$AA@ 0000000140259be8     imgui_demo.obj
 0003:00021bf8       ??_C@_0N@FODJADJE@Not?5Selected?$AA@ 0000000140259bf8     imgui_demo.obj
 0003:00021c08       ??_C@_0BP@BPEPNMPK@Layout?1Text?5Baseline?5Alignment?$AA@ 0000000140259c08     imgui_demo.obj
 0003:00021c30       ??_C@_0BI@DMCNFLHM@Text?5Baseline?5Alignment?$AA@ 0000000140259c30     imgui_demo.obj
 0003:00021c50       ??_C@_0P@FLJDDPLM@Text?5baseline?3?$AA@ 0000000140259c50     imgui_demo.obj
 0003:00021c70       ??_C@_0MJ@CEINBEPI@This?5is?5testing?5the?5vertical?5ali@ 0000000140259c70     imgui_demo.obj
 0003:00021d68       ??_C@_0M@HEDLMKK@KO?5Blahblah?$AA@ 0000000140259d68     imgui_demo.obj
 0003:00021d78       ??_C@_0BB@GBEAAIAC@Some?5framed?5item?$AA@ 0000000140259d78     imgui_demo.obj
 0003:00021d90       ??_C@_0DE@PMNLFDAO@Baseline?5of?5button?5will?5look?5mis@ 0000000140259d90     imgui_demo.obj
 0003:00021dd0       ??_C@_0M@LEJMPEFH@OK?5Blahblah?$AA@ 0000000140259dd0     imgui_demo.obj
 0003:00021de0       ??_C@_0FL@DLOHNEGO@We?5call?5AlignTextToFramePadding?$CI@ 0000000140259de0     imgui_demo.obj
 0003:00021e50       ??_C@_07FENKGLPN@TEST?$CD?$CD1?$AA@ 0000000140259e50     imgui_demo.obj
 0003:00021e5c       ??_C@_04OIKJMBFP@TEST?$AA@ 0000000140259e5c     imgui_demo.obj
 0003:00021e68       ??_C@_07HPPHDIDO@TEST?$CD?$CD2?$AA@ 0000000140259e68     imgui_demo.obj
 0003:00021e78       ??_C@_0BM@CCJJPIAI@Text?5aligned?5to?5framed?5item?$AA@ 0000000140259e78     imgui_demo.obj
 0003:00021ea0       ??_C@_07MDGCNPKG@Item?$CD?$CD1?$AA@ 0000000140259ea0     imgui_demo.obj
 0003:00021eac       ??_C@_04BGCMBJDA@Item?$AA@ 0000000140259eac     imgui_demo.obj
 0003:00021eb8       ??_C@_07OIEPIMGF@Item?$CD?$CD2?$AA@ 0000000140259eb8     imgui_demo.obj
 0003:00021ec8       ??_C@_07PBFELNCE@Item?$CD?$CD3?$AA@ 0000000140259ec8     imgui_demo.obj
 0003:00021ed8       ??_C@_0BB@IKLHLLAO@Multi?9line?5text?3?$AA@ 0000000140259ed8     imgui_demo.obj
 0003:00021ef0       ??_C@_0O@LPFJLNGJ@One?6Two?6Three?$AA@ 0000000140259ef0     imgui_demo.obj
 0003:00021f00       ??_C@_0M@MEHCJFNA@Hello?6World?$AA@ 0000000140259f00     imgui_demo.obj
 0003:00021f10       ??_C@_06JNLLJDDG@HOP?$CD?$CD1?$AA@ 0000000140259f10     imgui_demo.obj
 0003:00021f18       ??_C@_06LGJGMAPF@HOP?$CD?$CD2?$AA@ 0000000140259f18     imgui_demo.obj
 0003:00021f20       ??_C@_0M@OFIEFPON@Misc?5items?3?$AA@ 0000000140259f20     imgui_demo.obj
 0003:00021f30       ??_C@_05FMIAGJLC@80x80?$AA@ 0000000140259f30     imgui_demo.obj
 0003:00021f38       ??_C@_05OIMGOJDP@50x50?$AA@ 0000000140259f38     imgui_demo.obj
 0003:00021f40       ??_C@_08DHDFAMNE@Button?$CI?$CJ?$AA@ 0000000140259f40     imgui_demo.obj
 0003:00021f50       ??_C@_0O@DANAPFLN@SmallButton?$CI?$CJ?$AA@ 0000000140259f50     imgui_demo.obj
 0003:00021f60       ??_C@_09JNECCGKE@Button?$CD?$CD1?$AA@ 0000000140259f60     imgui_demo.obj
 0003:00021f70       ??_C@_07FHFCIGOP@Node?$CD?$CD1?$AA@ 0000000140259f70     imgui_demo.obj
 0003:00021f80       ??_C@_09CCOCANBA@Item?5?$CFd?4?4?$AA@ 0000000140259f80     imgui_demo.obj
 0003:00021f90       ??_C@_07HMHPNFCM@Node?$CD?$CD2?$AA@ 0000000140259f90     imgui_demo.obj
 0003:00021fa0       ??_C@_09LGGPHFGH@Button?$CD?$CD2?$AA@ 0000000140259fa0     imgui_demo.obj
 0003:00021fb0       ??_C@_09KPHEEECG@Button?$CD?$CD3?$AA@ 0000000140259fb0     imgui_demo.obj
 0003:00021fc0       ??_C@_0M@DABAODPF@Bullet?5text?$AA@ 0000000140259fc0     imgui_demo.obj
 0003:00021fd0       ??_C@_04OKAPPFIB@Node?$AA@ 0000000140259fd0     imgui_demo.obj
 0003:00021fd8       ??_C@_09OADFNCOB@Button?$CD?$CD4?$AA@ 0000000140259fd8     imgui_demo.obj
 0003:00021fe8       ??_C@_0BB@PPJKDLIF@Layout?1Scrolling?$AA@ 0000000140259fe8     imgui_demo.obj
 0003:00022000       ??_C@_09LFBMELOM@Scrolling?$AA@ 000000014025a000     imgui_demo.obj
 0003:00022010       ??_C@_0BK@KKKEAAFD@Layout?1Scrolling?1Vertical?$AA@ 000000014025a010     imgui_demo.obj
 0003:00022030       ??_C@_0FE@KFLONGJI@Use?5SetScrollHereY?$CI?$CJ?5or?5SetScrol@ 000000014025a030     imgui_demo.obj
 0003:00022098       ??_C@_0L@ODNEMNHD@Decoration?$AA@ 000000014025a098     imgui_demo.obj
 0003:000220a8       ??_C@_05BFDCPAGB@Track?$AA@ 000000014025a0a8     imgui_demo.obj
 0003:000220b0       ??_C@_09GAMHFGFH@Item?5?$DN?5?$CFd?$AA@ 000000014025a0b0     imgui_demo.obj
 0003:000220bc       ??_C@_06PDMOEKMO@?$CD?$CDitem?$AA@ 000000014025a0bc     imgui_demo.obj
 0003:000220c8       ??_C@_0O@EDOJIGBC@Scroll?5Offset?$AA@ 000000014025a0c8     imgui_demo.obj
 0003:000220d8       ??_C@_08DGGLGIAM@?$CL?$CF?40f?5px?$AA@ 000000014025a0d8     imgui_demo.obj
 0003:000220e4       ??_C@_05FFNMOAPG@?$CD?$CDoff?$AA@ 000000014025a0e4     imgui_demo.obj
 0003:000220f0       ??_C@_0O@CGNNKBMG@Scroll?5To?5Pos?$AA@ 000000014025a0f0     imgui_demo.obj
 0003:00022100       ??_C@_0O@LJJDDGBB@X?1Y?5?$DN?5?$CF?40f?5px?$AA@ 000000014025a100     imgui_demo.obj
 0003:00022110       ??_C@_05GFMCHKKE@?$CD?$CDpos?$AA@ 000000014025a110     imgui_demo.obj
 0003:00022118       ??_C@_0BE@NILALFMA@?$CD?$CDVerticalScrolling?$AA@ 000000014025a118     imgui_demo.obj
 0003:00022130       ??_C@_03PGGAENPN@Top?$AA@  000000014025a130     imgui_demo.obj
 0003:00022134       ??_C@_03EOMKOHFF@25?$CF?$AA@ 000000014025a134     imgui_demo.obj
 0003:00022138       ??_C@_06NOADDNNE@Center?$AA@ 000000014025a138     imgui_demo.obj
 0003:00022140       ??_C@_03HJBEBHGH@75?$CF?$AA@ 000000014025a140     imgui_demo.obj
 0003:00022144       ??_C@_06DDHCBBGN@Bottom?$AA@ 000000014025a144     imgui_demo.obj
 0003:0002214c       ??_C@_03FIKCJHKP@abc?$AA@  000000014025a14c     imgui_demo.obj
 0003:00022150       ??_C@_09DKGDMKKF@?$CF?40f?1?$CF?40f?$AA@ 000000014025a150     imgui_demo.obj
 0003:00022160       ??_C@_0BM@CLNONEPI@Layout?1Scrolling?1Horizontal?$AA@ 000000014025a160     imgui_demo.obj
 0003:00022190       ??_C@_0BDB@LNFKBNGF@Use?5SetScrollHereX?$CI?$CJ?5or?5SetScrol@ 000000014025a190     imgui_demo.obj
 0003:00022300       ??_C@_0BG@BEAADLOE@?$CD?$CDHorizontalScrolling?$AA@ 000000014025a300     imgui_demo.obj
 0003:00022320       ??_C@_0N@MJLHBHDH@?$CFs?6?$CF?40f?1?$CF?40f?$AA@ 000000014025a320     imgui_demo.obj
 0003:00022330       ??_C@_0CD@POIINEAC@Layout?1Scrolling?1Horizontal?5?$CImor@ 000000014025a330     imgui_demo.obj
 0003:00022360       ??_C@_0MM@GGDOLBND@Horizontal?5scrolling?5for?5a?5windo@ 000000014025a360     imgui_demo.obj
 0003:00022458       ??_C@_09PKEBEIDM@scrolling?$AA@ 000000014025a458     imgui_demo.obj
 0003:00022468       ??_C@_08GLBPKMPD@FizzBuzz?$AA@ 000000014025a468     imgui_demo.obj
 0003:00022474       ??_C@_04CEPGGBHI@Fizz?$AA@ 000000014025a474     imgui_demo.obj
 0003:0002247c       ??_C@_04MLLJCPJP@Buzz?$AA@ 000000014025a47c     imgui_demo.obj
 0003:00022484       ??_C@_02FODMEDOG@?$DM?$DM?$AA@ 000000014025a484     imgui_demo.obj
 0003:00022488       ??_C@_0BB@HICDBOJF@Scroll?5from?5code?$AA@ 000000014025a488     imgui_demo.obj
 0003:0002249c       ??_C@_02GPIOPFAK@?$DO?$DO?$AA@ 000000014025a49c     imgui_demo.obj
 0003:000224a0       ??_C@_0CK@KHHLOHPL@Show?5Horizontal?5contents?5size?5de@ 000000014025a4a0     imgui_demo.obj
 0003:000224d8       ??_C@_0CF@OHGKBEFE@Horizontal?5contents?5size?5demo?5wi@ 000000014025a4d8     imgui_demo.obj
 0003:00022508       ??_C@_0DG@FFKEOKBG@Layout?1Scrolling?1Horizontal?5cont@ 000000014025a508     imgui_demo.obj
 0003:00022550       ??_C@_0LE@BCMFBNBD@Test?5of?5different?5widgets?5react?5@ 000000014025a550     imgui_demo.obj
 0003:00022628       ??_C@_0M@PCJBMDND@H?9scrollbar?$AA@ 000000014025a628     imgui_demo.obj
 0003:00022638       ??_C@_0L@DIDHCLKE@Tree?5nodes?$AA@ 000000014025a638     imgui_demo.obj
 0003:00022648       ??_C@_0N@HDFBIJDK@Text?5wrapped?$AA@ 000000014025a648     imgui_demo.obj
 0003:00022658       ??_C@_07CHLOJOEF@Tab?5bar?$AA@ 000000014025a658     imgui_demo.obj
 0003:00022664       ??_C@_05GIMBDOHM@Child?$AA@ 000000014025a664     imgui_demo.obj
 0003:00022670       ??_C@_0BG@GEDBKKBK@Explicit?5content?5size?$AA@ 000000014025a670     imgui_demo.obj
 0003:00022690       ??_C@_0BL@EDCBBBDH@Scroll?5?$CF?41f?1?$CF?41f?5?$CF?41f?1?$CF?41f?$AA@ 000000014025a690     imgui_demo.obj
 0003:000226b0       ??_C@_05NBKGABAK@?$CD?$CDcsx?$AA@ 000000014025a6b0     imgui_demo.obj
 0003:000226b8       ??_C@_0BK@GGAJDBIL@this?5is?5a?5300?9wide?5button?$AA@ 000000014025a6b8     imgui_demo.obj
 0003:000226d8       ??_C@_0BE@HNGLJJLH@this?5is?5a?5tree?5node?$AA@ 000000014025a6d8     imgui_demo.obj
 0003:000226f0       ??_C@_0CC@FFNCLEGA@another?5one?5of?5those?5tree?5node?4?4@ 000000014025a6f0     imgui_demo.obj
 0003:00022718       ??_C@_0BD@GOEDKDLO@Some?5tree?5contents?$AA@ 000000014025a718     imgui_demo.obj
 0003:00022730       ??_C@_0BB@LBMIMLJO@CollapsingHeader?$AA@ 000000014025a730     imgui_demo.obj
 0003:00022750       ??_C@_0EH@ECONPGGJ@This?5text?5should?5automatically?5w@ 000000014025a750     imgui_demo.obj
 0003:000227a8       ??_C@_07GIKBKH@Tables?3?$AA@ 000000014025a7a8     imgui_demo.obj
 0003:000227b4       ??_C@_05LCLENNFI@table?$AA@ 000000014025a7b4     imgui_demo.obj
 0003:000227c0       ??_C@_0L@CDOLGENO@Width?5?$CF?42f?$AA@ 000000014025a7c0     imgui_demo.obj
 0003:000227d0       ??_C@_08CJJOOHNL@Columns?3?$AA@ 000000014025a7d0     imgui_demo.obj
 0003:000227dc       ??_C@_05COLMCDPH@Hello?$AA@ 000000014025a7dc     imgui_demo.obj
 0003:000227e8       ??_C@_09DHLFJNGJ@OneOneOne?$AA@ 000000014025a7e8     imgui_demo.obj
 0003:000227f8       ??_C@_09BMOICMLJ@TwoTwoTwo?$AA@ 000000014025a7f8     imgui_demo.obj
 0003:00022808       ??_C@_0BA@BGMNPICP@ThreeThreeThree?$AA@ 000000014025a808     imgui_demo.obj
 0003:00022820       ??_C@_0N@GNNAMPMJ@FourFourFour?$AA@ 000000014025a820     imgui_demo.obj
 0003:00022830       ??_C@_0BA@OCHNAOPI@Layout?1Clipping?$AA@ 000000014025a830     imgui_demo.obj
 0003:00022848       ??_C@_08LLKICGJM@Clipping?$AA@ 000000014025a848     imgui_demo.obj
 0003:00022854       ??_C@_04IAGNFIBA@size?$AA@ 000000014025a854     imgui_demo.obj
 0003:00022860       ??_C@_0BL@MNBDPJCG@?$CIClick?5and?5drag?5to?5scroll?$CJ?$AA@ 000000014025a860     imgui_demo.obj
 0003:00022880       ??_C@_0CBB@PALAFPED@?$CILeft?$CJ?5Using?5ImGui?3?3PushClipRect@ 000000014025a880     imgui_demo.obj
 0003:00022b00       ??_C@_08IJNEAHEL@?$CD?$CDcanvas?$AA@ 000000014025ab00     imgui_demo.obj
 0003:00022b10       ??_C@_0BN@MKAJBHJO@Line?51?5hello?6Line?52?5clip?5me?$CB?$AA@ 000000014025ab10     imgui_demo.obj
 0003:00022b38       ??_C@_0BH@JODLIHDO@Popups?5?$CG?5Modal?5windows?$AA@ 000000014025ab38     imgui_demo.obj
 0003:00022b58       ??_C@_0O@LLGFJBMF@Popups?1Popups?$AA@ 000000014025ab58     imgui_demo.obj
 0003:00022b70       ??_C@_0HO@LGMOGOO@When?5a?5popup?5is?5active?0?5it?5inhib@ 000000014025ab70     imgui_demo.obj
 0003:00022c08       ??_C@_05BKABPFFI@Bream?$AA@ 000000014025ac08     imgui_demo.obj
 0003:00022c10       ??_C@_07BNGOACBO@Haddock?$AA@ 000000014025ac10     imgui_demo.obj
 0003:00022c20       ??_C@_08OFLHLLIP@Mackerel?$AA@ 000000014025ac20     imgui_demo.obj
 0003:00022c30       ??_C@_07DOCMJKHB@Pollock?$AA@ 000000014025ac30     imgui_demo.obj
 0003:00022c40       ??_C@_08EGAMPFAB@Tilefish?$AA@ 000000014025ac40     imgui_demo.obj
 0003:00022c50       ??_C@_08NNBGNINF@Select?4?4?$AA@ 000000014025ac50     imgui_demo.obj
 0003:00022c60       ??_C@_0BA@GGCCCMJM@my_select_popup?$AA@ 000000014025ac60     imgui_demo.obj
 0003:00022c74       ??_C@_06PHEAPGKB@?$DMNone?$DO?$AA@ 000000014025ac74     imgui_demo.obj
 0003:00022c80       ??_C@_08IKEIPKBP@Aquarium?$AA@ 000000014025ac80     imgui_demo.obj
 0003:00022c90       ??_C@_08NINPLAO@Toggle?4?4?$AA@ 000000014025ac90     imgui_demo.obj
 0003:00022ca0       ??_C@_0BA@LJBKGLLI@my_toggle_popup?$AA@ 000000014025aca0     imgui_demo.obj
 0003:00022cb8       ??_C@_08GMNJJNGG@Sub?9menu?$AA@ 000000014025acb8     imgui_demo.obj
 0003:00022cc8       ??_C@_08PPLGDLFG@Click?5me?$AA@ 000000014025acc8     imgui_demo.obj
 0003:00022cd8       ??_C@_0N@IODHFNG@Tooltip?5here?$AA@ 000000014025acd8     imgui_demo.obj
 0003:00022ce8       ??_C@_0BM@HJLGLIOD@I?5am?5a?5tooltip?5over?5a?5popup?$AA@ 000000014025ace8     imgui_demo.obj
 0003:00022d10       ??_C@_0O@NAJLJJDJ@Stacked?5Popup?$AA@ 000000014025ad10     imgui_demo.obj
 0003:00022d20       ??_C@_0O@CMMIFNBD@another?5popup?$AA@ 000000014025ad20     imgui_demo.obj
 0003:00022d30       ??_C@_0BI@DMMONLJF@I?5am?5the?5last?5one?5here?4?$AA@ 000000014025ad30     imgui_demo.obj
 0003:00022d50       ??_C@_0O@CEODEGMM@With?5a?5menu?4?4?$AA@ 000000014025ad50     imgui_demo.obj
 0003:00022d60       ??_C@_0O@CMFGCCH@my_file_popup?$AA@ 000000014025ad60     imgui_demo.obj
 0003:00022d70       ??_C@_04PBAHLACE@File?$AA@ 000000014025ad70     imgui_demo.obj
 0003:00022d78       ??_C@_05JMHIMMIL@Dummy?$AA@ 000000014025ad78     imgui_demo.obj
 0003:00022d80       ??_C@_0BC@DPOMEOMK@Hello?5from?5popup?$CB?$AA@ 000000014025ad80     imgui_demo.obj
 0003:00022d98       ??_C@_0BJ@BLLJFPAH@This?5is?5a?5dummy?5button?4?4?$AA@ 000000014025ad98     imgui_demo.obj
 0003:00022db8       ??_C@_0BF@CBNGCKHJ@Popups?1Context?5menus?$AA@ 000000014025adb8     imgui_demo.obj
 0003:00022dd8       ??_C@_0O@EGPMCJBG@Context?5menus?$AA@ 000000014025add8     imgui_demo.obj
 0003:00022df0       ??_C@_0GC@JCPNKAKN@?$CCContext?$CC?5functions?5are?5simple?5h@ 000000014025adf0     imgui_demo.obj
 0003:00022e68       ??_C@_06EKAKPFJJ@Label1?$AA@ 000000014025ae68     imgui_demo.obj
 0003:00022e70       ??_C@_06GBCHKGFK@Label2?$AA@ 000000014025ae70     imgui_demo.obj
 0003:00022e78       ??_C@_06HIDMJHBL@Label3?$AA@ 000000014025ae78     imgui_demo.obj
 0003:00022e80       ??_C@_06DHHNABNM@Label4?$AA@ 000000014025ae80     imgui_demo.obj
 0003:00022e88       ??_C@_06COGGDAJN@Label5?$AA@ 000000014025ae88     imgui_demo.obj
 0003:00022e90       ??_C@_0BH@BODNOCMP@This?5a?5popup?5for?5?$CC?$CFs?$CC?$CB?$AA@ 000000014025ae90     imgui_demo.obj
 0003:00022eb0       ??_C@_0BK@PNAOOLFL@Right?9click?5to?5open?5popup?$AA@ 000000014025aeb0     imgui_demo.obj
 0003:00022ed0       ??_C@_0EJ@OBAEIHGO@Text?$CI?$CJ?5elements?5don?8t?5have?5stabl@ 000000014025aed0     imgui_demo.obj
 0003:00022f28       ??_C@_0CL@MINHGHEB@Value?5?$DN?5?$CF?43f?5?$DM?9?9?5?$CI1?$CJ?5right?9click@ 000000014025af28     imgui_demo.obj
 0003:00022f60       ??_C@_08MOACKAAJ@my?5popup?$AA@ 000000014025af60     imgui_demo.obj
 0003:00022f70       ??_C@_0M@MLNNLOAO@Set?5to?5zero?$AA@ 000000014025af70     imgui_demo.obj
 0003:00022f80       ??_C@_09NJOBBCFG@Set?5to?5PI?$AA@ 000000014025af80     imgui_demo.obj
 0003:00022f90       ??_C@_07FGLEKONH@?$CD?$CDValue?$AA@ 000000014025af90     imgui_demo.obj
 0003:00022fa0       ??_C@_0BN@BDAGDOIM@?$CI2?$CJ?5Or?5right?9click?5this?5text?$AA@ 000000014025afa0     imgui_demo.obj
 0003:00022fc8       ??_C@_0BJ@DCOFNGHJ@?$CI3?$CJ?5Or?5click?5this?5button?$AA@ 000000014025afc8     imgui_demo.obj
 0003:00022ff0       ??_C@_0HH@IOGIBFGK@Showcase?5using?5a?5popup?5ID?5linked@ 000000014025aff0     imgui_demo.obj
 0003:00023080       ??_C@_0BE@BJGBOOKP@Button?3?5?$CFs?$CD?$CD?$CDButton?$AA@ 000000014025b080     imgui_demo.obj
 0003:00023098       ??_C@_0L@MIFJAGAG@Edit?5name?3?$AA@ 000000014025b098     imgui_demo.obj
 0003:000230a8       ??_C@_06PEDNKACM@?$CD?$CDedit?$AA@ 000000014025b0a8     imgui_demo.obj
 0003:000230b0       ??_C@_0BH@BPPDJDHF@?$CI?$DM?9?9?5right?9click?5here?$CJ?$AA@ 000000014025b0b0     imgui_demo.obj
 0003:000230d0       ??_C@_0O@OCELMHFF@Popups?1Modals?$AA@ 000000014025b0d0     imgui_demo.obj
 0003:000230e0       ??_C@_06BEBKNACN@Modals?$AA@ 000000014025b0e0     imgui_demo.obj
 0003:000230f0       ??_C@_0FC@FCFEEIDF@Modal?5windows?5are?5like?5popups?5bu@ 000000014025b0f0     imgui_demo.obj
 0003:00023158       ??_C@_08CPNCIMAF@Delete?4?4?$AA@ 000000014025b158     imgui_demo.obj
 0003:00023168       ??_C@_07DCPPKMOD@Delete?$DP?$AA@ 000000014025b168     imgui_demo.obj
 0003:00023180       ??_C@_0EO@GEGEJAML@All?5those?5beautiful?5files?5will?5b@ 000000014025b180     imgui_demo.obj
 0003:000231e0       ??_C@_0BH@BGNANACB@Don?8t?5ask?5me?5next?5time?$AA@ 000000014025b1e0     imgui_demo.obj
 0003:000231fc       ??_C@_02GIPFHKNO@OK?$AA@   000000014025b1fc     imgui_demo.obj
 0003:00023200       ??_C@_06FMBNCPDL@Cancel?$AA@ 000000014025b200     imgui_demo.obj
 0003:00023208       ??_C@_0BB@NNACGNLC@Stacked?5modals?4?4?$AA@ 000000014025b208     imgui_demo.obj
 0003:00023220       ??_C@_09DMLDOIOE@Stacked?51?$AA@ 000000014025b220     imgui_demo.obj
 0003:00023230       ??_C@_0P@LCHDFKKN@Some?5menu?5item?$AA@ 000000014025b230     imgui_demo.obj
 0003:00023250       ??_C@_0FG@FEJJJKAO@Hello?5from?5Stacked?5The?5First?6Usi@ 000000014025b250     imgui_demo.obj
 0003:000232b8       ??_C@_05PEENBMOG@color?$AA@ 000000014025b2b8     imgui_demo.obj
 0003:000232c0       ??_C@_0BE@EOGCGODN@Add?5another?5modal?4?4?$AA@ 000000014025b2c0     imgui_demo.obj
 0003:000232d8       ??_C@_09BHJOLLCH@Stacked?52?$AA@ 000000014025b2d8     imgui_demo.obj
 0003:000232e8       ??_C@_0BP@CPFMAIJ@Hello?5from?5Stacked?5The?5Second?$CB?$AA@ 000000014025b2e8     imgui_demo.obj
 0003:00023310       ??_C@_0CF@IOOAIMEM@Popups?1Menus?5inside?5a?5regular?5wi@ 000000014025b310     imgui_demo.obj
 0003:00023340       ??_C@_0BO@EEOFHCMN@Menus?5inside?5a?5regular?5window?$AA@ 000000014025b340     imgui_demo.obj
 0003:00023370       ??_C@_0GB@PMDHHLNB@Below?5we?5are?5testing?5adding?5menu@ 000000014025b370     imgui_demo.obj
 0003:000233e4       ??_C@_06GCLBOGOD@CTRL?$CLM?$AA@ 000000014025b3e4     imgui_demo.obj
 0003:000233f0       ??_C@_09PDGIKJJH@Menu?5item?$AA@ 000000014025b3f0     imgui_demo.obj
 0003:00023400       ??_C@_0BN@MFBALFLF@Menu?5inside?5a?5regular?5window?$AA@ 000000014025b400     imgui_demo.obj
 0003:00023428       ??_C@_0BA@PNOLBFOJ@ImGuiTableFlags?$AA@ 000000014025b428     imgui_demo.obj
 0003:00023440       ??_C@_0O@GDABACCD@Sizing?5Policy?$AA@ 000000014025b440     imgui_demo.obj
 0003:00023450       ??_C@_03DKEJHHJP@?$CFs?3?$AA@ 000000014025b450     imgui_demo.obj
 0003:00023458       ??_C@_09NLBHHOGA@_Disabled?$AA@ 000000014025b458     imgui_demo.obj
 0003:00023468       ??_C@_0DC@GLEFNIIN@Master?5disable?5flag?5?$CIalso?5hide?5f@ 000000014025b468     imgui_demo.obj
 0003:000234a8       ??_C@_0N@BKJKKNLB@_DefaultHide?$AA@ 000000014025b4a8     imgui_demo.obj
 0003:000234b8       ??_C@_0N@GDLDKICM@_DefaultSort?$AA@ 000000014025b4b8     imgui_demo.obj
 0003:000234c8       ??_C@_0O@LBJDIKPA@_WidthStretch?$AA@ 000000014025b4c8     imgui_demo.obj
 0003:000234d8       ??_C@_0M@ILFLIFOG@_WidthFixed?$AA@ 000000014025b4d8     imgui_demo.obj
 0003:000234e8       ??_C@_09BODCBGEL@_NoResize?$AA@ 000000014025b4e8     imgui_demo.obj
 0003:000234f8       ??_C@_0L@CPPLPFKF@_NoReorder?$AA@ 000000014025b4f8     imgui_demo.obj
 0003:00023508       ??_C@_07ICLECFEI@_NoHide?$AA@ 000000014025b508     imgui_demo.obj
 0003:00023518       ??_C@_07PNNHJBCM@_NoClip?$AA@ 000000014025b518     imgui_demo.obj
 0003:00023528       ??_C@_07PLJNCANF@_NoSort?$AA@ 000000014025b528     imgui_demo.obj
 0003:00023538       ??_C@_0BB@BJIHNDPG@_NoSortAscending?$AA@ 000000014025b538     imgui_demo.obj
 0003:00023550       ??_C@_0BC@IGDJILJK@_NoSortDescending?$AA@ 000000014025b550     imgui_demo.obj
 0003:00023568       ??_C@_0P@FAJFNLOA@_NoHeaderLabel?$AA@ 000000014025b568     imgui_demo.obj
 0003:00023580       ??_C@_0P@FFBHDBOG@_NoHeaderWidth?$AA@ 000000014025b580     imgui_demo.obj
 0003:00023598       ??_C@_0BF@BFMFKAGJ@_PreferSortAscending?$AA@ 000000014025b598     imgui_demo.obj
 0003:000235b8       ??_C@_0BG@OGIFEHDM@_PreferSortDescending?$AA@ 000000014025b5b8     imgui_demo.obj
 0003:000235d8       ??_C@_0O@IHCPMKPD@_IndentEnable?$AA@ 000000014025b5d8     imgui_demo.obj
 0003:000235e8       ??_C@_0BF@NGNGOPFH@Default?5for?5column?50?$AA@ 000000014025b5e8     imgui_demo.obj
 0003:00023608       ??_C@_0P@NDAELIGC@_IndentDisable?$AA@ 000000014025b608     imgui_demo.obj
 0003:00023620       ??_C@_0BG@CAABAJEB@Default?5for?5column?5?$DO0?$AA@ 000000014025b620     imgui_demo.obj
 0003:00023640       ??_C@_0L@HAGMFILL@_IsEnabled?$AA@ 000000014025b640     imgui_demo.obj
 0003:00023650       ??_C@_0L@IICELPIB@_IsVisible?$AA@ 000000014025b650     imgui_demo.obj
 0003:00023660       ??_C@_09MHNJAEMK@_IsSorted?$AA@ 000000014025b660     imgui_demo.obj
 0003:00023670       ??_C@_0L@FBCLIIEB@_IsHovered?$AA@ 000000014025b670     imgui_demo.obj
 0003:00023680       ??_C@_02BAABKJLB@?9?9?$AA@ 000000014025b680     imgui_demo.obj
 0003:00023688       ??_C@_0BB@MJGPNNJD@Tables?5?$CG?5Columns?$AA@ 000000014025b688     imgui_demo.obj
 0003:000236a0       ??_C@_08JFCDBCPC@Open?5all?$AA@ 000000014025b6a0     imgui_demo.obj
 0003:000236b0       ??_C@_09JFADBGFP@Close?5all?$AA@ 000000014025b6b0     imgui_demo.obj
 0003:000236c0       ??_C@_0BJ@JLFJACII@Disable?5tree?5indentation?$AA@ 000000014025b6c0     imgui_demo.obj
 0003:000236e0       ??_C@_0FC@FFIEPAOP@Disable?5the?5indenting?5of?5tree?5no@ 000000014025b6e0     imgui_demo.obj
 0003:00023748       ??_C@_0N@NCGMCGDE@Tables?1Basic?$AA@ 000000014025b748     imgui_demo.obj
 0003:00023760       ??_C@_0FE@BMEOIPOH@Using?5TableNextRow?$CI?$CJ?5?$CL?5calling?5T@ 000000014025b760     imgui_demo.obj
 0003:000237c4       ??_C@_06KDFPGKKJ@table1?$AA@ 000000014025b7c4     imgui_demo.obj
 0003:000237d0       ??_C@_0BB@IODOONAJ@Row?5?$CFd?5Column?5?$CFd?$AA@ 000000014025b7d0     imgui_demo.obj
 0003:000237f0       ??_C@_0EP@POKEAGN@Using?5TableNextRow?$CI?$CJ?5?$CL?5calling?5T@ 000000014025b7f0     imgui_demo.obj
 0003:00023850       ??_C@_06IIHCDJGK@table2?$AA@ 000000014025b850     imgui_demo.obj
 0003:00023858       ??_C@_06PLKMNMNJ@Row?5?$CFd?$AA@ 000000014025b858     imgui_demo.obj
 0003:00023860       ??_C@_0O@HOFANGPE@Some?5contents?$AA@ 000000014025b860     imgui_demo.obj
 0003:00023870       ??_C@_07MEKMPKJA@123?4456?$AA@ 000000014025b870     imgui_demo.obj
 0003:00023880       ??_C@_0BAJ@LOLGBBOP@Only?5using?5TableNextColumn?$CI?$CJ?0?5wh@ 000000014025b880     imgui_demo.obj
 0003:000239c0       ??_C@_06JBGJAICL@table3?$AA@ 000000014025b9c0     imgui_demo.obj
 0003:000239c8       ??_C@_0BL@DKPJPGIB@Tables?1Borders?0?5background?$AA@ 000000014025b9c8     imgui_demo.obj
 0003:000239e8       ??_C@_0BE@HDDFNCPF@Borders?0?5background?$AA@ 000000014025b9e8     imgui_demo.obj
 0003:00023a00       ??_C@_0BG@FNKJINH@ImGuiTableFlags_RowBg?$AA@ 000000014025ba00     imgui_demo.obj
 0003:00023a20       ??_C@_0BI@KLDEGJMI@ImGuiTableFlags_Borders?$AA@ 000000014025ba20     imgui_demo.obj
 0003:00023a40       ??_C@_0JM@OCDLGALD@ImGuiTableFlags_Borders?6?5?$DN?5ImGui@ 000000014025ba40     imgui_demo.obj
 0003:00023b00       ??_C@_0BJ@KNLELLOG@ImGuiTableFlags_BordersH?$AA@ 000000014025bb00     imgui_demo.obj
 0003:00023b20       ??_C@_0BO@EFCOPFHN@ImGuiTableFlags_BordersOuterH?$AA@ 000000014025bb20     imgui_demo.obj
 0003:00023b48       ??_C@_0BO@GFLPLNDM@ImGuiTableFlags_BordersInnerH?$AA@ 000000014025bb48     imgui_demo.obj
 0003:00023b70       ??_C@_0BJ@HJPFIEDJ@ImGuiTableFlags_BordersV?$AA@ 000000014025bb70     imgui_demo.obj
 0003:00023b90       ??_C@_0BO@JBGPMKKC@ImGuiTableFlags_BordersOuterV?$AA@ 000000014025bb90     imgui_demo.obj
 0003:00023bb8       ??_C@_0BO@LBPOICOD@ImGuiTableFlags_BordersInnerV?$AA@ 000000014025bbb8     imgui_demo.obj
 0003:00023be0       ??_C@_0BN@IJKOMBIP@ImGuiTableFlags_BordersOuter?$AA@ 000000014025bbe0     imgui_demo.obj
 0003:00023c08       ??_C@_0BN@HHGDDDPK@ImGuiTableFlags_BordersInner?$AA@ 000000014025bc08     imgui_demo.obj
 0003:00023c30       ??_C@_0P@EJGNBOGK@Cell?5contents?3?$AA@ 000000014025bc30     imgui_demo.obj
 0003:00023c48       ??_C@_0L@GCOFDGJD@FillButton?$AA@ 000000014025bc48     imgui_demo.obj
 0003:00023c58       ??_C@_0BA@OPBHLGMF@Display?5headers?$AA@ 000000014025bc58     imgui_demo.obj
 0003:00023c70       ??_C@_0CA@DPINADJM@ImGuiTableFlags_NoBordersInBody?$AA@ 000000014025bc70     imgui_demo.obj
 0003:00023ca0       ??_C@_0FA@EPKAHHBC@Disable?5vertical?5borders?5in?5colu@ 000000014025bca0     imgui_demo.obj
 0003:00023d00       ??_C@_03EHAPBBEA@One?$AA@  000000014025bd00     imgui_demo.obj
 0003:00023d04       ??_C@_03CJAPLBKL@Two?$AA@  000000014025bd04     imgui_demo.obj
 0003:00023d08       ??_C@_05OHMANGAP@Three?$AA@ 000000014025bd08     imgui_demo.obj
 0003:00023d10       ??_C@_0M@MKBMKAAH@Hello?5?$CFd?0?$CFd?$AA@ 000000014025bd10     imgui_demo.obj
 0003:00023d20       ??_C@_0BK@JBACCIOD@Tables?1Resizable?0?5stretch?$AA@ 000000014025bd20     imgui_demo.obj
 0003:00023d40       ??_C@_0BD@DEGBBBAF@Resizable?0?5stretch?$AA@ 000000014025bd40     imgui_demo.obj
 0003:00023d58       ??_C@_0BK@EMJCIFOG@ImGuiTableFlags_Resizable?$AA@ 000000014025bd58     imgui_demo.obj
 0003:00023d80       ??_C@_0JI@HEDAGHBG@Using?5the?5_Resizable?5flag?5automa@ 000000014025bd80     imgui_demo.obj
 0003:00023e38       ??_C@_0BI@HIOAIGHO@Tables?1Resizable?0?5fixed?$AA@ 000000014025be38     imgui_demo.obj
 0003:00023e58       ??_C@_0BB@PCKPFPON@Resizable?0?5fixed?$AA@ 000000014025be58     imgui_demo.obj
 0003:00023e70       ??_C@_0MI@DMACPCHA@Using?5_Resizable?5?$CL?5_SizingFixedF@ 000000014025be70     imgui_demo.obj
 0003:00023f60       ??_C@_0BO@NGJMFDHH@ImGuiTableFlags_NoHostExtendX?$AA@ 000000014025bf60     imgui_demo.obj
 0003:00023f88       ??_C@_0BI@BCCHHGLN@Tables?1Resizable?0?5mixed?$AA@ 000000014025bf88     imgui_demo.obj
 0003:00023fa8       ??_C@_0BB@JIGIKPCO@Resizable?0?5mixed?$AA@ 000000014025bfa8     imgui_demo.obj
 0003:00023fc0       ??_C@_0MC@OIEBOKLD@Using?5TableSetupColumn?$CI?$CJ?5to?5alte@ 000000014025bfc0     imgui_demo.obj
 0003:000240a8       ??_C@_07ENIDNHGB@Stretch?$AA@ 000000014025c0a8     imgui_demo.obj
 0003:000240b4       ??_C@_05OCBIINAK@Fixed?$AA@ 000000014025c0b4     imgui_demo.obj
 0003:000240c0       ??_C@_08NCNCPMHE@?$CFs?5?$CFd?0?$CFd?$AA@ 000000014025c0c0     imgui_demo.obj
 0003:000240cc       ??_C@_03LCPADOPD@FFF?$AA@  000000014025c0cc     imgui_demo.obj
 0003:000240d0       ??_C@_0CL@HJEJDHOC@Tables?1Reorderable?0?5hideable?0?5wi@ 000000014025c0d0     imgui_demo.obj
 0003:00024108       ??_C@_0CE@KCIAIBPM@Reorderable?0?5hideable?0?5with?5head@ 000000014025c108     imgui_demo.obj
 0003:00024140       ??_C@_0GD@ICCOIMAN@Click?5and?5drag?5column?5headers?5to@ 000000014025c140     imgui_demo.obj
 0003:000241b8       ??_C@_0BM@CEFJIGKC@ImGuiTableFlags_Reorderable?$AA@ 000000014025c1b8     imgui_demo.obj
 0003:000241e0       ??_C@_0BJ@KDGOANFD@ImGuiTableFlags_Hideable?$AA@ 000000014025c1e0     imgui_demo.obj
 0003:00024200       ??_C@_0CL@IIFCHPBH@ImGuiTableFlags_NoBordersInBodyU@ 000000014025c200     imgui_demo.obj
 0003:00024240       ??_C@_0GK@KONLLEJN@Disable?5vertical?5borders?5in?5colu@ 000000014025c240     imgui_demo.obj
 0003:000242c0       ??_C@_0M@PGLLGKEB@Fixed?5?$CFd?0?$CFd?$AA@ 000000014025c2c0     imgui_demo.obj
 0003:000242d0       ??_C@_0P@LGLCJPIM@Tables?1Padding?$AA@ 000000014025c2d0     imgui_demo.obj
 0003:000242e8       ??_C@_07DDDGKLAD@Padding?$AA@ 000000014025c2e8     imgui_demo.obj
 0003:00024300       ??_C@_0BMB@HPBFLJOA@We?5often?5want?5outer?5padding?5acti@ 000000014025c300     imgui_demo.obj
 0003:00024520       ??_C@_0BK@HHEJGEBJ@ImGuiTableFlags_PadOuterX?$AA@ 000000014025c520     imgui_demo.obj
 0003:00024540       ??_C@_0EM@MKHAEMOD@Enable?5outer?9most?5padding?5?$CIdefau@ 000000014025c540     imgui_demo.obj
 0003:000245a0       ??_C@_0BM@PMBOGJLP@ImGuiTableFlags_NoPadOuterX?$AA@ 000000014025c5a0     imgui_demo.obj
 0003:000245d0       ??_C@_0FB@OFOCAPDE@Disable?5outer?9most?5padding?5?$CIdefa@ 000000014025c5d0     imgui_demo.obj
 0003:00024638       ??_C@_0BM@NMIPCBPO@ImGuiTableFlags_NoPadInnerX?$AA@ 000000014025c638     imgui_demo.obj
 0003:00024660       ??_C@_0IC@DEFBCLPE@Disable?5inner?5padding?5between?5co@ 000000014025c660     imgui_demo.obj
 0003:00024700       ??_C@_0N@IJLMIFHN@show_headers?$AA@ 000000014025c700     imgui_demo.obj
 0003:00024710       ??_C@_0O@FKPNOHIF@table_padding?$AA@ 000000014025c710     imgui_demo.obj
 0003:00024720       ??_C@_0L@OKGLPFJF@Avail?5?$CF?42f?$AA@ 000000014025c720     imgui_demo.obj
 0003:00024730       ??_C@_0DG@CDDGEHMI@Setting?5style?4CellPadding?5to?5?$CI0?0@ 000000014025c730     imgui_demo.obj
 0003:00024770       ??_C@_0BF@GOPEKLPG@show_widget_frame_bg?$AA@ 000000014025c770     imgui_demo.obj
 0003:00024790       ??_C@_0M@DKDDHLDB@CellPadding?$AA@ 000000014025c790     imgui_demo.obj
 0003:000247a0       ??_C@_0BA@PCAKHMNE@table_padding_2?$AA@ 000000014025c7a0     imgui_demo.obj
 0003:000247b8       ??_C@_07KGDBJGIN@edit?5me?$AA@ 000000014025c7b8     imgui_demo.obj
 0003:000247c4       ??_C@_06EHBBGIFL@?$CD?$CDcell?$AA@ 000000014025c7c4     imgui_demo.obj
 0003:000247d0       ??_C@_0BH@BDILLJNP@Tables?1Explicit?5widths?$AA@ 000000014025c7d0     imgui_demo.obj
 0003:000247f0       ??_C@_0BA@MIEBIDIO@Sizing?5policies?$AA@ 000000014025c7f0     imgui_demo.obj
 0003:00024808       ??_C@_07OBMDJLLM@Oh?5dear?$AA@ 000000014025c808     imgui_demo.obj
 0003:00024818       ??_C@_08LBFBCFMB@BBBBBBBB?$AA@ 000000014025c818     imgui_demo.obj
 0003:00024828       ??_C@_0N@OEOPFKK@CCCCCCCCCCCC?$AA@ 000000014025c828     imgui_demo.obj
 0003:00024838       ??_C@_08IILCFNBD@Advanced?$AA@ 000000014025c838     imgui_demo.obj
 0003:00024850       ??_C@_0JL@GIMGKJDP@This?5section?5allows?5you?5to?5inter@ 000000014025c850     imgui_demo.obj
 0003:00024910       ??_C@_0DO@GJMCID@Show?5width?$AAShort?5Text?$AALong?5Text?$AA@ 000000014025c910     imgui_demo.obj
 0003:00024960       ??_C@_08GBNJIMFP@Contents?$AA@ 000000014025c960     imgui_demo.obj
 0003:00024970       ??_C@_0KK@ONILBNCL@Be?5mindful?5that?5using?5right?9alig@ 000000014025c970     imgui_demo.obj
 0003:00024a40       ??_C@_0BO@FCJCGICG@ImGuiTableFlags_PreciseWidths?$AA@ 000000014025ca40     imgui_demo.obj
 0003:00024a70       ??_C@_0OP@KCFDFCBF@Disable?5distributing?5remainder?5w@ 000000014025ca70     imgui_demo.obj
 0003:00024b90       ??_C@_0BI@LGJFDPIB@ImGuiTableFlags_ScrollX?$AA@ 000000014025cb90     imgui_demo.obj
 0003:00024bb0       ??_C@_0BI@KPIOAOMA@ImGuiTableFlags_ScrollY?$AA@ 000000014025cbb0     imgui_demo.obj
 0003:00024bd0       ??_C@_0BH@IJCBPJOC@ImGuiTableFlags_NoClip?$AA@ 000000014025cbd0     imgui_demo.obj
 0003:00024bec       ??_C@_04GOKPGOLB@long?$AA@ 000000014025cbec     imgui_demo.obj
 0003:00024bf8       ??_C@_08GKCNMOBP@longeeer?$AA@ 000000014025cbf8     imgui_demo.obj
 0003:00024c08       ??_C@_0CE@EHNPIEAF@Some?5?$CFs?5text?5?$CFd?0?$CFd?6Over?5two?5line@ 000000014025cc08     imgui_demo.obj
 0003:00024c38       ??_C@_07JBEDBOJM@W?3?5?$CF?41f?$AA@ 000000014025cc38     imgui_demo.obj
 0003:00024c44       ??_C@_02IEBMKJDF@?$CD?$CD?$AA@ 000000014025cc44     imgui_demo.obj
 0003:00024c48       ??_C@_0CJ@GCIECJKE@Tables?1Vertical?5scrolling?0?5with?5@ 000000014025cc48     imgui_demo.obj
 0003:00024c80       ??_C@_0CC@BKCLIGGC@Vertical?5scrolling?0?5with?5clippin@ 000000014025cc80     imgui_demo.obj
 0003:00024cb0       ??_C@_0MD@ODEEHCKN@Here?5we?5activate?5ScrollY?0?5which?5@ 000000014025ccb0     imgui_demo.obj
 0003:00024da0       ??_C@_0O@BKJDKFL@table_scrolly?$AA@ 000000014025cda0     imgui_demo.obj
 0003:00024db0       ??_C@_0BM@FLMIBINL@Tables?1Horizontal?5scrolling?$AA@ 000000014025cdb0     imgui_demo.obj
 0003:00024dd8       ??_C@_0BF@MOJGBNK@Horizontal?5scrolling?$AA@ 000000014025cdd8     imgui_demo.obj
 0003:00024e00       ??_C@_0BJM@LFAMMBOC@When?5ScrollX?5is?5enabled?0?5the?5def@ 000000014025ce00     imgui_demo.obj
 0003:00024ff0       ??_C@_0M@CFPPLGBE@freeze_cols?$AA@ 000000014025cff0     imgui_demo.obj
 0003:00025000       ??_C@_0M@GIAMEELH@freeze_rows?$AA@ 000000014025d000     imgui_demo.obj
 0003:00025010       ??_C@_0O@BILCALBK@table_scrollx?$AA@ 000000014025d010     imgui_demo.obj
 0003:00025020       ??_C@_06GCNNJOIC@Line?5?$CD?$AA@ 000000014025d020     imgui_demo.obj
 0003:00025028       ??_C@_04MCBIPDJB@Four?$AA@ 000000014025d028     imgui_demo.obj
 0003:00025030       ??_C@_04OALGJGIC@Five?$AA@ 000000014025d030     imgui_demo.obj
 0003:00025038       ??_C@_03KHODIDPO@Six?$AA@  000000014025d038     imgui_demo.obj
 0003:00025040       ??_C@_07GMIONID@Line?5?$CFd?$AA@ 000000014025d040     imgui_demo.obj
 0003:00025050       ??_C@_0BC@OMMFFCFF@Hello?5world?5?$CFd?0?$CFd?$AA@ 000000014025d050     imgui_demo.obj
 0003:00025068       ??_C@_0BC@HLNLGDMF@Stretch?5?$CL?5ScrollX?$AA@ 000000014025d068     imgui_demo.obj
 0003:00025080       ??_C@_0BBE@ODLBHPGG@Showcase?5using?5Stretch?5columns?5?$CL@ 000000014025d080     imgui_demo.obj
 0003:000251cc       ??_C@_06FFLMLEAB@flags3?$AA@ 000000014025d1cc     imgui_demo.obj
 0003:000251d8       ??_C@_0M@BJNMEEJO@inner_width?$AA@ 000000014025d1d8     imgui_demo.obj
 0003:000251e8       ??_C@_0BF@LDBFKPOJ@Tables?1Columns?5flags?$AA@ 000000014025d1e8     imgui_demo.obj
 0003:00025208       ??_C@_0O@INJHOPKF@Columns?5flags?$AA@ 000000014025d208     imgui_demo.obj
 0003:00025218       ??_C@_0BP@MNOKCEIF@table_columns_flags_checkboxes?$AA@ 000000014025d218     imgui_demo.obj
 0003:00025240       ??_C@_04FBKCMAJG@?8?$CFs?8?$AA@ 000000014025d240     imgui_demo.obj
 0003:00025248       ??_C@_0N@FHGGFOEB@Input?5flags?3?$AA@ 000000014025d248     imgui_demo.obj
 0003:00025258       ??_C@_0O@OFGIHDEK@Output?5flags?3?$AA@ 000000014025d258     imgui_demo.obj
 0003:00025268       ??_C@_0BE@CEBHJEEC@table_columns_flags?$AA@ 000000014025d268     imgui_demo.obj
 0003:00025280       ??_C@_08ELEEDBE@Indented?$AA@ 000000014025d280     imgui_demo.obj
 0003:0002528c       ??_C@_05DNIIFBMG@?$CFs?5?$CFs?$AA@ 000000014025d28c     imgui_demo.obj
 0003:00025298       ??_C@_0BG@NGCMFIBP@Tables?1Columns?5widths?$AA@ 000000014025d298     imgui_demo.obj
 0003:000252b8       ??_C@_0P@KJHINHOE@Columns?5widths?$AA@ 000000014025d2b8     imgui_demo.obj
 0003:000252d0       ??_C@_0DB@BFOOEOFP@Using?5TableSetupColumn?$CI?$CJ?5to?5setu@ 000000014025d2d0     imgui_demo.obj
 0003:0002530c       ??_C@_03OHDNLOHO@one?$AA@  000000014025d30c     imgui_demo.obj
 0003:00025310       ??_C@_03IJDNBOJF@two?$AA@  000000014025d310     imgui_demo.obj
 0003:00025314       ??_C@_05OAGMNDDJ@three?$AA@ 000000014025d314     imgui_demo.obj
 0003:00025320       ??_C@_0L@JJDDAIH@?$CIw?3?5?$CF5?41f?$CJ?$AA@ 000000014025d320     imgui_demo.obj
 0003:00025330       ??_C@_0LH@CELOBIGN@Using?5TableSetupColumn?$CI?$CJ?5to?5setu@ 000000014025d330     imgui_demo.obj
 0003:00025410       ??_C@_0CF@HAPNKCNF@ImGuiTableFlags_NoKeepColumnsVis@ 000000014025d410     imgui_demo.obj
 0003:00025440       ??_C@_0BF@FIKDGFFI@Tables?1Nested?5tables?$AA@ 000000014025d440     imgui_demo.obj
 0003:00025460       ??_C@_0O@GGCBCFBE@Nested?5tables?$AA@ 000000014025d460     imgui_demo.obj
 0003:00025470       ??_C@_0DN@GIHJANOI@This?5demonstrates?5embedding?5a?5ta@ 000000014025d470     imgui_demo.obj
 0003:000254c0       ??_C@_0O@BCBAIFJC@table_nested1?$AA@ 000000014025d4c0     imgui_demo.obj
 0003:000254d0       ??_C@_02KOKAPHOJ@A0?$AA@   000000014025d4d0     imgui_demo.obj
 0003:000254d4       ??_C@_02LHLLMGKI@A1?$AA@   000000014025d4d4     imgui_demo.obj
 0003:000254d8       ??_C@_08NBKIDHKC@A0?5Row?50?$AA@ 000000014025d4d8     imgui_demo.obj
 0003:000254e8       ??_C@_0O@DJDNNGFB@table_nested2?$AA@ 000000014025d4e8     imgui_demo.obj
 0003:000254f8       ??_C@_02KMOGEJLA@B0?$AA@   000000014025d4f8     imgui_demo.obj
 0003:000254fc       ??_C@_02LFPNHIPB@B1?$AA@   000000014025d4fc     imgui_demo.obj
 0003:00025500       ??_C@_08OICFALGH@B0?5Row?50?$AA@ 000000014025d500     imgui_demo.obj
 0003:00025510       ??_C@_08CEIPALPJ@B1?5Row?50?$AA@ 000000014025d510     imgui_demo.obj
 0003:00025520       ??_C@_08PBDODKCG@B0?5Row?51?$AA@ 000000014025d520     imgui_demo.obj
 0003:00025530       ??_C@_08DNJEDKLI@B1?5Row?51?$AA@ 000000014025d530     imgui_demo.obj
 0003:00025540       ??_C@_08BNACDHDM@A1?5Row?50?$AA@ 000000014025d540     imgui_demo.obj
 0003:00025550       ??_C@_08MILDAGOD@A0?5Row?51?$AA@ 000000014025d550     imgui_demo.obj
 0003:00025560       ??_C@_08EBJAGHN@A1?5Row?51?$AA@ 000000014025d560     imgui_demo.obj
 0003:00025570       ??_C@_0BC@JNEADBDA@Tables?1Row?5height?$AA@ 000000014025d570     imgui_demo.obj
 0003:00025588       ??_C@_0L@CGNGNJMG@Row?5height?$AA@ 000000014025d588     imgui_demo.obj
 0003:000255a0       ??_C@_0BCL@DDLHCPHA@You?5can?5pass?5a?5?8min_row_height?8?5@ 000000014025d5a0     imgui_demo.obj
 0003:00025708       ??_C@_0BB@OGGECGJA@table_row_height?$AA@ 000000014025d708     imgui_demo.obj
 0003:00025720       ??_C@_0BG@PBGJBMCG@min_row_height?5?$DN?5?$CF?42f?$AA@ 000000014025d720     imgui_demo.obj
 0003:00025740       ??_C@_0BC@IKJBKNNA@Tables?1Outer?5size?$AA@ 000000014025d740     imgui_demo.obj
 0003:00025758       ??_C@_0L@DBAHEFCG@Outer?5size?$AA@ 000000014025d758     imgui_demo.obj
 0003:00025768       ??_C@_0CH@GEPJHBOA@Using?5NoHostExtendX?5and?5NoHostEx@ 000000014025d768     imgui_demo.obj
 0003:000257a0       ??_C@_0JJ@MNEKIKBK@Make?5outer?5width?5auto?9fit?5to?5col@ 000000014025d7a0     imgui_demo.obj
 0003:00025858       ??_C@_0BO@MPIHGCDG@ImGuiTableFlags_NoHostExtendY?$AA@ 000000014025d858     imgui_demo.obj
 0003:00025880       ??_C@_0MH@EOAMIMDE@Make?5outer?5height?5stop?5exactly?5a@ 000000014025d880     imgui_demo.obj
 0003:00025970       ??_C@_0L@PAJCHPDH@Cell?5?$CFd?0?$CFd?$AA@ 000000014025d970     imgui_demo.obj
 0003:00025980       ??_C@_0BF@KMHJAJHG@Using?5explicit?5size?3?$AA@ 000000014025d980     imgui_demo.obj
 0003:000259a0       ??_C@_0BI@OPNKMFLE@Tables?1Background?5color?$AA@ 000000014025d9a0     imgui_demo.obj
 0003:000259c0       ??_C@_0BB@GFJFBMCH@Background?5color?$AA@ 000000014025d9c0     imgui_demo.obj
 0003:000259e0       ??_C@_0FN@IEBFCIOP@ImGuiTableFlags_RowBg?5automatica@ 000000014025d9e0     imgui_demo.obj
 0003:00025a50       ??_C@_0BD@FFKBLHFP@None?$AARed?$AAGradient?$AA?$AA@ 000000014025da50     imgui_demo.obj
 0003:00025a68       ??_C@_0M@JEHONGHH@row?5bg?5type?$AA@ 000000014025da68     imgui_demo.obj
 0003:00025a78       ??_C@_0P@DAIHOKO@RowBg0?$AARowBg1?$AA?$AA@ 000000014025da78     imgui_demo.obj
 0003:00025a90       ??_C@_0O@DFMNKCIK@row?5bg?5target?$AA@ 000000014025da90     imgui_demo.obj
 0003:00025aa0       ??_C@_0FN@LEKMPDJD@Target?5RowBg0?5to?5override?5the?5al@ 000000014025daa0     imgui_demo.obj
 0003:00025b10       ??_C@_0L@DAKPLPKA@None?$AABlue?$AA?$AA@ 000000014025db10     imgui_demo.obj
 0003:00025b20       ??_C@_0N@GNMKPIGH@cell?5bg?5type?$AA@ 000000014025db20     imgui_demo.obj
 0003:00025b30       ??_C@_0CI@GJIGBOCB@We?5are?5colorizing?5cells?5to?5B1?9?$DOC@ 000000014025db30     imgui_demo.obj
 0003:00025b60       ??_C@_1EK@GEJGPOKK@?$AAr?$AAo?$AAw?$AA_?$AAb?$AAg?$AA_?$AAt?$AAy?$AAp?$AAe?$AA?5?$AA?$DO?$AA?$DN?$AA?5?$AA0?$AA?5?$AA?$CG?$AA?$CG?$AA?5?$AAr?$AAo?$AAw?$AA_?$AAb?$AAg?$AA_?$AAt?$AAy?$AAp?$AAe?$AA?5@ 000000014025db60     imgui_demo.obj
 0003:00025bc0       ??_C@_1FC@HBJACPON@?$AAr?$AAo?$AAw?$AA_?$AAb?$AAg?$AA_?$AAt?$AAa?$AAr?$AAg?$AAe?$AAt?$AA?5?$AA?$DO?$AA?$DN?$AA?5?$AA0?$AA?5?$AA?$CG?$AA?$CG?$AA?5?$AAr?$AAo?$AAw?$AA_?$AAb?$AAg?$AA_?$AAt?$AAa?$AAr@ 000000014025dbc0     imgui_demo.obj
 0003:00025c30       ??_C@_1EO@JOPKKHHI@?$AAc?$AAe?$AAl?$AAl?$AA_?$AAb?$AAg?$AA_?$AAt?$AAy?$AAp?$AAe?$AA?5?$AA?$DO?$AA?$DN?$AA?5?$AA0?$AA?5?$AA?$CG?$AA?$CG?$AA?5?$AAc?$AAe?$AAl?$AAl?$AA_?$AAb?$AAg?$AA_?$AAt?$AAy?$AAp@ 000000014025dc30     imgui_demo.obj
 0003:00025c90       ??_C@_04GJDJEMBE@?$CFc?$CFc?$AA@ 000000014025dc90     imgui_demo.obj
 0003:00025c98       ??_C@_0BB@LHIHCMOK@Tables?1Tree?5view?$AA@ 000000014025dc98     imgui_demo.obj
 0003:00025cb0       ??_C@_09CKCINJFP@Tree?5view?$AA@ 000000014025dcb0     imgui_demo.obj
 0003:00025cbc       ??_C@_05FLIJPOAM@3ways?$AA@ 000000014025dcbc     imgui_demo.obj
 0003:00025cc4       ??_C@_04FABLJDN@Name?$AA@  000000014025dcc4     imgui_demo.obj
 0003:00025ccc       ??_C@_04EBKMHHBE@Size?$AA@ 000000014025dccc     imgui_demo.obj
 0003:00025cd4       ??_C@_04KOACHJEN@Type?$AA@ 000000014025dcd4     imgui_demo.obj
 0003:00025ce0       ??_C@_0BC@CHHDIFEC@Tables?1Item?5width?$AA@ 000000014025dce0     imgui_demo.obj
 0003:00025cf8       ??_C@_0L@JMOFGNLE@Item?5width?$AA@ 000000014025dcf8     imgui_demo.obj
 0003:00025d10       ??_C@_0MP@KOFCKOGB@Showcase?5using?5PushItemWidth?$CI?$CJ?5a@ 000000014025dd10     imgui_demo.obj
 0003:00025e08       ??_C@_0BB@DDAHLBBM@table_item_width?$AA@ 000000014025de08     imgui_demo.obj
 0003:00025e1c       ??_C@_05KJDGBEEG@small?$AA@ 000000014025de1c     imgui_demo.obj
 0003:00025e24       ??_C@_04GBGPFKGN@half?$AA@ 000000014025de24     imgui_demo.obj
 0003:00025e30       ??_C@_0M@FKJABAHD@right?9align?$AA@ 000000014025de30     imgui_demo.obj
 0003:00025e40       ??_C@_06OBIFBAPK@float0?$AA@ 000000014025de40     imgui_demo.obj
 0003:00025e48       ??_C@_06PIJOCBLL@float1?$AA@ 000000014025de48     imgui_demo.obj
 0003:00025e50       ??_C@_08GEFDGCHL@?$CD?$CDfloat2?$AA@ 000000014025de50     imgui_demo.obj
 0003:00025e60       ??_C@_0BG@INIBDOJH@Tables?1Custom?5headers?$AA@ 000000014025de60     imgui_demo.obj
 0003:00025e80       ??_C@_0P@PCNFLBGM@Custom?5headers?$AA@ 000000014025de80     imgui_demo.obj
 0003:00025e98       ??_C@_0BF@JGHIMJPE@table_custom_headers?$AA@ 000000014025de98     imgui_demo.obj
 0003:00025eb8       ??_C@_0L@PLJPMHBK@?$CD?$CDcheckall?$AA@ 000000014025deb8     imgui_demo.obj
 0003:00025ec8       ??_C@_0BF@HIHOGJFK@Tables?1Context?5menus?$AA@ 000000014025dec8     imgui_demo.obj
 0003:00025ef0       ??_C@_0MD@CMIPBCGH@By?5default?0?5right?9clicking?5over?5@ 000000014025def0     imgui_demo.obj
 0003:00025fe0       ??_C@_0CC@DCEKKFEJ@ImGuiTableFlags_ContextMenuInBod@ 000000014025dfe0     imgui_demo.obj
 0003:00026008       ??_C@_0BD@GAEOPLMF@table_context_menu?$AA@ 000000014025e008     imgui_demo.obj
 0003:00026020       ??_C@_0IN@GBJFOLPI@Demonstrate?5mixing?5table?5context@ 000000014025e020     imgui_demo.obj
 0003:000260d0       ??_C@_0BF@BGHCFFCN@table_context_menu_2?$AA@ 000000014025e0d0     imgui_demo.obj
 0003:000260f0       ??_C@_0DB@KMDIMPEI@This?5is?5the?5popup?5for?5Button?$CI?$CC?4?4@ 000000014025e0f0     imgui_demo.obj
 0003:00026130       ??_C@_07FAGDPJOI@MyPopup?$AA@ 000000014025e130     imgui_demo.obj
 0003:00026140       ??_C@_0DP@GEHELPPM@This?5is?5a?5custom?5popup?5for?5unuse@ 000000014025e140     imgui_demo.obj
 0003:00026190       ??_C@_0CF@KGFMOBAJ@This?5is?5a?5custom?5popup?5for?5Colum@ 000000014025e190     imgui_demo.obj
 0003:000261c0       ??_C@_0BD@JLLLEHJI@Hovered?5column?3?5?$CFd?$AA@ 000000014025e1c0     imgui_demo.obj
 0003:000261d8       ??_C@_0BI@EDLGPCJF@Tables?1Synced?5instances?$AA@ 000000014025e1d8     imgui_demo.obj
 0003:000261f8       ??_C@_0BB@MJPJCLAG@Synced?5instances?$AA@ 000000014025e1f8     imgui_demo.obj
 0003:00026210       ??_C@_0GC@BAAOPNDB@Multiple?5tables?5with?5the?5same?5id@ 000000014025e210     imgui_demo.obj
 0003:00026288       ??_C@_0BA@PHDCMLKN@Synced?5Table?5?$CFd?$AA@ 000000014025e288     imgui_demo.obj
 0003:0002629c       ??_C@_05LFBINIGO@Table?$AA@ 000000014025e29c     imgui_demo.obj
 0003:000262a8       ??_C@_0N@CLLFLFPN@this?5cell?5?$CFd?$AA@ 000000014025e2a8     imgui_demo.obj
 0003:000262b8       ??_C@_0P@NNGNJFDG@Tables?1Sorting?$AA@ 000000014025e2b8     imgui_demo.obj
 0003:000262d0       ??_C@_07FIOJKBLJ@Sorting?$AA@ 000000014025e2d0     imgui_demo.obj
 0003:000262e0       ??_C@_0BK@COJNFFHG@ImGuiTableFlags_SortMulti?$AA@ 000000014025e2e0     imgui_demo.obj
 0003:00026300       ??_C@_0JD@OJLOANPI@When?5sorting?5is?5enabled?3?5hold?5sh@ 000000014025e300     imgui_demo.obj
 0003:000263b0       ??_C@_0BN@MANCMDD@ImGuiTableFlags_SortTristate?$AA@ 000000014025e3b0     imgui_demo.obj
 0003:000263e0       ??_C@_0IC@CNBEEKGB@When?5sorting?5is?5enabled?3?5allow?5n@ 000000014025e3e0     imgui_demo.obj
 0003:00026480       ??_C@_0O@DBCCONDP@table_sorting?$AA@ 000000014025e480     imgui_demo.obj
 0003:00026490       ??_C@_02OLOABKKD@ID?$AA@   000000014025e490     imgui_demo.obj
 0003:00026494       ??_C@_06PMAGBHAK@Action?$AA@ 000000014025e494     imgui_demo.obj
 0003:000264a0       ??_C@_08GACJPEFO@Quantity?$AA@ 000000014025e4a0     imgui_demo.obj
 0003:000264b0       ??_C@_0BA@PFDAEHJG@Tables?1Advanced?$AA@ 000000014025e4b0     imgui_demo.obj
 0003:000264c8       ??_C@_0M@IPDIIBIL@SmallButton?$AA@ 000000014025e4c8     imgui_demo.obj
 0003:000264d8       ??_C@_0BG@GEMFLDEN@Selectable?5?$CIspan?5row?$CJ?$AA@ 000000014025e4d8     imgui_demo.obj
 0003:000264f8       ??_C@_07KHIHFBFN@Options?$AA@ 000000014025e4f8     imgui_demo.obj
 0003:00026508       ??_C@_09DKFIFAAE@Features?3?$AA@ 000000014025e508     imgui_demo.obj
 0003:00026518       ??_C@_0BJ@IHBAKALC@ImGuiTableFlags_Sortable?$AA@ 000000014025e518     imgui_demo.obj
 0003:00026538       ??_C@_0CA@KBDPDJDH@ImGuiTableFlags_NoSavedSettings?$AA@ 000000014025e538     imgui_demo.obj
 0003:00026560       ??_C@_0N@JCNJHPJM@Decorations?3?$AA@ 000000014025e560     imgui_demo.obj
 0003:00026570       ??_C@_07NCAJGFPC@Sizing?3?$AA@ 000000014025e570     imgui_demo.obj
 0003:00026580       ??_C@_0HH@KPNOAHGK@In?5the?5Advanced?5demo?5we?5override@ 000000014025e580     imgui_demo.obj
 0003:00026610       ??_C@_0CH@IHCAENCE@Only?5available?5if?5ScrollX?5is?5dis@ 000000014025e610     imgui_demo.obj
 0003:00026640       ??_C@_0LK@OOMEMHDH@Disable?5clipping?5rectangle?5for?5e@ 000000014025e640     imgui_demo.obj
 0003:00026720       ??_C@_08LMJDLJGI@Padding?3?$AA@ 000000014025e720     imgui_demo.obj
 0003:00026730       ??_C@_0L@IMKAGMGB@Scrolling?3?$AA@ 000000014025e730     imgui_demo.obj
 0003:00026740       ??_C@_08JHEMDMPA@Sorting?3?$AA@ 000000014025e740     imgui_demo.obj
 0003:0002674c       ??_C@_06JHAFDDDM@Other?3?$AA@ 000000014025e74c     imgui_demo.obj
 0003:00026758       ??_C@_0BC@OGOBPDEF@show_wrapped_text?$AA@ 000000014025e758     imgui_demo.obj
 0003:00026770       ??_C@_0M@OOHBCMON@?$CD?$CDOuterSize?$AA@ 000000014025e770     imgui_demo.obj
 0003:00026780       ??_C@_0L@ENOPHFOF@outer_size?$AA@ 000000014025e780     imgui_demo.obj
 0003:00026790       ??_C@_0BIB@EGFLOKNO@If?5scrolling?5is?5disabled?5?$CIScroll@ 000000014025e790     imgui_demo.obj
 0003:00026960       ??_C@_0CC@HLDPMJL@inner_width?5?$CIwhen?5ScrollX?5active@ 000000014025e960     imgui_demo.obj
 0003:00026988       ??_C@_0P@KEOGDMAF@row_min_height?$AA@ 000000014025e988     imgui_demo.obj
 0003:000269a0       ??_C@_0CH@KLLECOCH@Specify?5height?5of?5the?5Selectable@ 000000014025e9a0     imgui_demo.obj
 0003:000269d0       ??_C@_0M@NCHDHPIM@items_count?$AA@ 000000014025e9d0     imgui_demo.obj
 0003:000269e0       ??_C@_0BK@DIOLBOIM@items_type?5?$CIfirst?5column?$CJ?$AA@ 000000014025e9e0     imgui_demo.obj
 0003:00026a00       ??_C@_0P@IMAALAEK@table_advanced?$AA@ 000000014025ea00     imgui_demo.obj
 0003:00026a18       ??_C@_0M@OHKMKKDH@Description?$AA@ 000000014025ea18     imgui_demo.obj
 0003:00026a28       ??_C@_06FHBILLDG@Hidden?$AA@ 000000014025ea28     imgui_demo.obj
 0003:00026a30       ??_C@_04LEKIAAHM@Chop?$AA@ 000000014025ea30     imgui_demo.obj
 0003:00026a38       ??_C@_03HADHJFAJ@Eat?$AA@  000000014025ea38     imgui_demo.obj
 0003:00026a40       ??_C@_0BL@BHBHGIGI@Lorem?5ipsum?5dolor?5sit?5amet?$AA@ 000000014025ea40     imgui_demo.obj
 0003:00026a60       ??_C@_04GCLJABMA@1234?$AA@ 000000014025ea60     imgui_demo.obj
 0003:00026a68       ??_C@_0O@CFGEHKMC@Debug?5details?$AA@ 000000014025ea68     imgui_demo.obj
 0003:00026a78       ??_C@_0CA@CHDNACKG@?3?5DrawCmd?3?5?$CL?$CFd?5?$CIin?5same?5window?$CJ?$AA@ 000000014025ea78     imgui_demo.obj
 0003:00026aa0       ??_C@_0DO@LNHNLFPF@?3?5DrawCmd?3?5?$CL?$CFd?5?$CIin?5child?5window?$CJ@ 000000014025eaa0     imgui_demo.obj
 0003:00026af0       ??_C@_0BF@EOLLCEHP@Columns?5?$CIlegacy?5API?$CJ?$AA@ 000000014025eaf0     imgui_demo.obj
 0003:00026b10       ??_C@_0BD@KMNMCONG@Legacy?5Columns?5API?$AA@ 000000014025eb10     imgui_demo.obj
 0003:00026b30       ??_C@_0FH@MGFHBBFF@Columns?$CI?$CJ?5is?5an?5old?5API?$CB?5Prefer?5@ 000000014025eb30     imgui_demo.obj
 0003:00026b98       ??_C@_0BL@NBCJCENH@Columns?5?$CIlegacy?5API?$CJ?1Basic?$AA@ 000000014025eb98     imgui_demo.obj
 0003:00026bb8       ??_C@_0BA@KGDHMKCI@Without?5border?3?$AA@ 000000014025ebb8     imgui_demo.obj
 0003:00026bd0       ??_C@_0L@GGDPAOBO@mycolumns3?$AA@ 000000014025ebd0     imgui_demo.obj
 0003:00026be0       ??_C@_0N@IEPPLKGA@With?5border?3?$AA@ 000000014025ebe0     imgui_demo.obj
 0003:00026bf0       ??_C@_09IGOFLFMM@mycolumns?$AA@ 000000014025ebf0     imgui_demo.obj
 0003:00026bfc       ??_C@_04HMIIHGGM@Path?$AA@ 000000014025ebfc     imgui_demo.obj
 0003:00026c08       ??_C@_07BPEJBMFM@Hovered?$AA@ 000000014025ec08     imgui_demo.obj
 0003:00026c18       ??_C@_09MIFGPDGD@?1path?1one?$AA@ 000000014025ec18     imgui_demo.obj
 0003:00026c28       ??_C@_09KGFGFDII@?1path?1two?$AA@ 000000014025ec28     imgui_demo.obj
 0003:00026c38       ??_C@_0M@BHGNKNGD@?1path?1three?$AA@ 000000014025ec38     imgui_demo.obj
 0003:00026c48       ??_C@_0BN@OHIFMDLO@Columns?5?$CIlegacy?5API?$CJ?1Borders?$AA@ 000000014025ec48     imgui_demo.obj
 0003:00026c70       ??_C@_07PJFMDFHH@Borders?$AA@ 000000014025ec70     imgui_demo.obj
 0003:00026c80       ??_C@_0L@NLMHJDCE@?$CFd?5columns?$AA@ 000000014025ec80     imgui_demo.obj
 0003:00026c90       ??_C@_0BA@EIBKBIKG@?$CD?$CDcolumns_count?$AA@ 000000014025ec90     imgui_demo.obj
 0003:00026ca8       ??_C@_0L@LMMKHPOB@horizontal?$AA@ 000000014025eca8     imgui_demo.obj
 0003:00026cb8       ??_C@_08NEOMLJGJ@vertical?$AA@ 000000014025ecb8     imgui_demo.obj
 0003:00026cc4       ??_C@_06CBJCAPLI@?$CFc?$CFc?$CFc?$AA@ 000000014025ecc4     imgui_demo.obj
 0003:00026cd0       ??_C@_0M@LBGPBMDK@Offset?5?$CF?42f?$AA@ 000000014025ecd0     imgui_demo.obj
 0003:00026ce0       ??_C@_0CB@CDDJNDCG@Long?5text?5that?5is?5likely?5to?5clip@ 000000014025ece0     imgui_demo.obj
 0003:00026d08       ??_C@_0CB@BCLMDBFI@Columns?5?$CIlegacy?5API?$CJ?1Mixed?5items@ 000000014025ed08     imgui_demo.obj
 0003:00026d30       ??_C@_0M@CEFNMID@Mixed?5items?$AA@ 000000014025ed30     imgui_demo.obj
 0003:00026d40       ??_C@_05IPHDHIPP@mixed?$AA@ 000000014025ed40     imgui_demo.obj
 0003:00026d48       ??_C@_05OHAOKMNF@ImGui?$AA@ 000000014025ed48     imgui_demo.obj
 0003:00026d50       ??_C@_03FAAAOPJM@red?$AA@  000000014025ed50     imgui_demo.obj
 0003:00026d58       ??_C@_0BE@OADKLHKC@An?5extra?5line?5here?4?$AA@ 000000014025ed58     imgui_demo.obj
 0003:00026d70       ??_C@_04OBGPFBCN@blue?$AA@ 000000014025ed70     imgui_demo.obj
 0003:00026d78       ??_C@_0L@CDAKMJEM@Category?5A?$AA@ 000000014025ed78     imgui_demo.obj
 0003:00026d88       ??_C@_0P@CNBMJDEI@Blah?5blah?5blah?$AA@ 000000014025ed88     imgui_demo.obj
 0003:00026da0       ??_C@_0L@ICHJKIP@Category?5B?$AA@ 000000014025eda0     imgui_demo.obj
 0003:00026db0       ??_C@_0L@BBDMKLMO@Category?5C?$AA@ 000000014025edb0     imgui_demo.obj
 0003:00026dc0       ??_C@_0CD@OAPEDJDK@Columns?5?$CIlegacy?5API?$CJ?1Word?9wrappi@ 000000014025edc0     imgui_demo.obj
 0003:00026df0       ??_C@_0O@FMIDKLNC@Word?9wrapping?$AA@ 000000014025edf0     imgui_demo.obj
 0003:00026e00       ??_C@_0O@JBOHNDAK@word?9wrapping?$AA@ 000000014025ee00     imgui_demo.obj
 0003:00026e10       ??_C@_0CN@PEHKNKIL@The?5quick?5brown?5fox?5jumps?5over?5t@ 000000014025ee10     imgui_demo.obj
 0003:00026e48       ??_C@_0L@BOIODOOK@Hello?5Left?$AA@ 000000014025ee48     imgui_demo.obj
 0003:00026e58       ??_C@_0M@FKDOIKDB@Hello?5Right?$AA@ 000000014025ee58     imgui_demo.obj
 0003:00026e68       ??_C@_0CK@DPADPAMP@Columns?5?$CIlegacy?5API?$CJ?1Horizontal?5@ 000000014025ee68     imgui_demo.obj
 0003:00026ea0       ??_C@_0BF@EDLEGCAK@Horizontal?5Scrolling?$AA@ 000000014025eea0     imgui_demo.obj
 0003:00026ec0       ??_C@_0BC@OPBMFBNO@?$CD?$CDScrollingRegion?$AA@ 000000014025eec0     imgui_demo.obj
 0003:00026ed8       ??_C@_0BF@OFLPNIGP@Line?5?$CFd?5Column?5?$CFd?4?4?4?$AA@ 000000014025eed8     imgui_demo.obj
 0003:00026ef8       ??_C@_0BK@FPOKBMNL@Columns?5?$CIlegacy?5API?$CJ?1Tree?$AA@ 000000014025eef8     imgui_demo.obj
 0003:00026f18       ??_C@_04GDOOJPNH@Tree?$AA@ 000000014025ef18     imgui_demo.obj
 0003:00026f20       ??_C@_04KCCPLAND@tree?$AA@ 000000014025ef20     imgui_demo.obj
 0003:00026f28       ??_C@_06NAFIGPDO@Node?$CFd?$AA@ 000000014025ef28     imgui_demo.obj
 0003:00026f30       ??_C@_0O@DCLBKAFC@Node?5contents?$AA@ 000000014025ef30     imgui_demo.obj
 0003:00026f40       ??_C@_09NGNKJEEB@Node?$CFd?4?$CFd?$AA@ 000000014025ef40     imgui_demo.obj
 0003:00026f50       ??_C@_0BD@MJPJLCIK@Even?5more?5contents?$AA@ 000000014025ef50     imgui_demo.obj
 0003:00026f68       ??_C@_0P@LKPCNPLG@Tree?5in?5column?$AA@ 000000014025ef68     imgui_demo.obj
 0003:00026f80       ??_C@_0P@EJPGNOEJ@Inputs?5?$CG?5Focus?$AA@ 000000014025ef80     imgui_demo.obj
 0003:00026f98       ??_C@_0BG@OJCNILBN@Inputs?5?$CG?5Focus?1Inputs?$AA@ 000000014025ef98     imgui_demo.obj
 0003:00026fc0       ??_C@_0HP@GHCMDAED@This?5is?5a?5simplified?5view?4?5See?5m@ 000000014025efc0     imgui_demo.obj
 0003:00027058       ??_C@_0BH@CKMJBGFC@Inputs?5?$CG?5Focus?1Outputs?$AA@ 000000014025f058     imgui_demo.obj
 0003:00027078       ??_C@_07LGFKBKFE@Outputs?$AA@ 000000014025f078     imgui_demo.obj
 0003:00027090       ??_C@_0CAJ@EIJLLMLM@The?5value?5of?5io?4WantCaptureMouse@ 000000014025f090     imgui_demo.obj
 0003:00027308       ??_C@_0BI@JLMOJHHN@io?4WantCaptureMouse?3?5?$CFd?$AA@ 000000014025f308     imgui_demo.obj
 0003:00027328       ??_C@_0CI@JIGLLDLJ@io?4WantCaptureMouseUnlessPopupCl@ 000000014025f328     imgui_demo.obj
 0003:00027358       ??_C@_0BL@GDHLPHDK@io?4WantCaptureKeyboard?3?5?$CFd?$AA@ 000000014025f358     imgui_demo.obj
 0003:00027378       ??_C@_0BF@NDPHMPCP@io?4WantTextInput?3?5?$CFd?$AA@ 000000014025f378     imgui_demo.obj
 0003:00027398       ??_C@_0BH@DMBBELLF@io?4WantSetMousePos?3?5?$CFd?$AA@ 000000014025f398     imgui_demo.obj
 0003:000273b8       ??_C@_0CE@CPJFFAGJ@io?4NavActive?3?5?$CFd?0?5io?4NavVisible?3@ 000000014025f3b8     imgui_demo.obj
 0003:000273e8       ??_C@_0CM@FPPCIOD@Inputs?5?$CG?5Focus?1Outputs?1WantCaptu@ 000000014025f3e8     imgui_demo.obj
 0003:00027420       ??_C@_0BF@JGLMCEJO@WantCapture?5override?$AA@ 000000014025f420     imgui_demo.obj
 0003:00027440       ??_C@_0MF@IDABKCNF@Hovering?5the?5colored?5canvas?5will@ 000000014025f440     imgui_demo.obj
 0003:00027530       ??_C@_0N@NLJHHBMD@Set?5to?5false?$AA@ 000000014025f530     imgui_demo.obj
 0003:00027540       ??_C@_0M@EGIDJBEG@Set?5to?5true?$AA@ 000000014025f540     imgui_demo.obj
 0003:00027550       ??_C@_0CI@CJCOBGKD@SetNextFrameWantCaptureMouse?$CI?$CJ?5o@ 000000014025f550     imgui_demo.obj
 0003:00027580       ??_C@_0CL@FJJMGFDF@SetNextFrameWantCaptureKeyboard?$CI@ 000000014025f580     imgui_demo.obj
 0003:000275b8       ??_C@_07OAKMJIEO@?$CD?$CDpanel?$AA@ 000000014025f5b8     imgui_demo.obj
 0003:000275c8       ??_C@_0BN@GDPPNLD@Inputs?5?$CG?5Focus?1Mouse?5Cursors?$AA@ 000000014025f5c8     imgui_demo.obj
 0003:000275f0       ??_C@_0O@EOGKPMHB@Mouse?5Cursors?$AA@ 000000014025f5f0     imgui_demo.obj
 0003:00027600       ??_C@_05OLOIDPAB@Arrow?$AA@ 000000014025f600     imgui_demo.obj
 0003:00027608       ??_C@_09KBOPCPBA@TextInput?$AA@ 000000014025f608     imgui_demo.obj
 0003:00027618       ??_C@_09NLNHGFHP@ResizeAll?$AA@ 000000014025f618     imgui_demo.obj
 0003:00027628       ??_C@_08HLCKOJFI@ResizeNS?$AA@ 000000014025f628     imgui_demo.obj
 0003:00027638       ??_C@_08BDBDMDLN@ResizeEW?$AA@ 000000014025f638     imgui_demo.obj
 0003:00027648       ??_C@_0L@EFMGKFJD@ResizeNESW?$AA@ 000000014025f648     imgui_demo.obj
 0003:00027658       ??_C@_0L@MHCCEKFE@ResizeNWSE?$AA@ 000000014025f658     imgui_demo.obj
 0003:00027668       ??_C@_04JBBMMDIF@Hand?$AA@ 000000014025f668     imgui_demo.obj
 0003:00027670       ??_C@_0L@OJPFEFMM@NotAllowed?$AA@ 000000014025f670     imgui_demo.obj
 0003:00027680       ??_C@_0BO@CHGMKDBB@Current?5mouse?5cursor?5?$DN?5?$CFd?3?5?$CFs?$AA@ 000000014025f680     imgui_demo.obj
 0003:000276a8       ??_C@_0BM@MCMILHH@Hover?5to?5see?5mouse?5cursors?3?$AA@ 000000014025f6a8     imgui_demo.obj
 0003:000276d0       ??_C@_0PC@CDIOEKMA@Your?5application?5can?5render?5a?5di@ 000000014025f6d0     imgui_demo.obj
 0003:000277f8       ??_C@_0BE@KDPKCDI@Mouse?5cursor?5?$CFd?3?5?$CFs?$AA@ 000000014025f7f8     imgui_demo.obj
 0003:00027810       ??_C@_0BH@HCPGLPEC@Inputs?5?$CG?5Focus?1Tabbing?$AA@ 000000014025f810     imgui_demo.obj
 0003:00027830       ??_C@_07OOGFLDEE@Tabbing?$AA@ 000000014025f830     imgui_demo.obj
 0003:00027840       ??_C@_0DN@DBMIKJE@Use?5TAB?1SHIFT?$CLTAB?5to?5cycle?5throu@ 000000014025f840     imgui_demo.obj
 0003:00027890       ??_C@_0N@MPCBNDPA@4?5?$CItab?5skip?$CJ?$AA@ 000000014025f890     imgui_demo.obj
 0003:000278a0       ??_C@_0DK@EKDPAEPE@Item?5won?8t?5be?5cycled?5through?5whe@ 000000014025f8a0     imgui_demo.obj
 0003:000278e8       ??_C@_0BP@HINAMKMF@Inputs?5?$CG?5Focus?1Focus?5from?5code?$AA@ 000000014025f8e8     imgui_demo.obj
 0003:00027910       ??_C@_0BA@PGBLAHMK@Focus?5from?5code?$AA@ 000000014025f910     imgui_demo.obj
 0003:00027928       ??_C@_0L@OPJAAOKJ@Focus?5on?51?$AA@ 000000014025f928     imgui_demo.obj
 0003:00027938       ??_C@_0L@MELNFNGK@Focus?5on?52?$AA@ 000000014025f938     imgui_demo.obj
 0003:00027948       ??_C@_0L@NNKGGMCL@Focus?5on?53?$AA@ 000000014025f948     imgui_demo.obj
 0003:00027958       ??_C@_0N@LCFCNFKI@3?5?$CItab?5skip?$CJ?$AA@ 000000014025f958     imgui_demo.obj
 0003:00027968       ??_C@_0BE@PCNBLNDG@Item?5with?5focus?3?5?$CFd?$AA@ 000000014025f968     imgui_demo.obj
 0003:00027980       ??_C@_0BI@EPMJCFDB@Item?5with?5focus?3?5?$DMnone?$DO?$AA@ 000000014025f980     imgui_demo.obj
 0003:000279a0       ??_C@_0L@FLKPNOEH@Focus?5on?5X?$AA@ 000000014025f9a0     imgui_demo.obj
 0003:000279b0       ??_C@_0L@ECLEOPAG@Focus?5on?5Y?$AA@ 000000014025f9b0     imgui_demo.obj
 0003:000279c0       ??_C@_0L@GJJJLMMF@Focus?5on?5Z?$AA@ 000000014025f9c0     imgui_demo.obj
 0003:000279d0       ??_C@_06FBFHKKF@Float3?$AA@ 000000014025f9d0     imgui_demo.obj
 0003:000279e0       ??_C@_0EN@KGJCPIPJ@NB?3?5Cursor?5?$CG?5selection?5are?5prese@ 000000014025f9e0     imgui_demo.obj
 0003:00027a40       ??_C@_0BI@KAPLGJKD@Inputs?5?$CG?5Focus?1Dragging?$AA@ 000000014025fa40     imgui_demo.obj
 0003:00027a60       ??_C@_08EJAEFPJK@Dragging?$AA@ 000000014025fa60     imgui_demo.obj
 0003:00027a70       ??_C@_0FH@PFEFFOMN@You?5can?5use?5ImGui?3?3GetMouseDragD@ 000000014025fa70     imgui_demo.obj
 0003:00027ad8       ??_C@_0BF@KIECDLEM@IsMouseDragging?$CI?$CFd?$CJ?3?$AA@ 000000014025fad8     imgui_demo.obj
 0003:00027af8       ??_C@_0BM@OAEENKC@?5?5w?1?5default?5threshold?3?5?$CFd?0?$AA@ 000000014025faf8     imgui_demo.obj
 0003:00027b20       ??_C@_0BJ@EKJNKKLN@?5?5w?1?5zero?5threshold?3?5?$CFd?0?$AA@ 000000014025fb20     imgui_demo.obj
 0003:00027b40       ??_C@_0BK@IDAIPONC@?5?5w?1?5large?5threshold?3?5?$CFd?0?$AA@ 000000014025fb40     imgui_demo.obj
 0003:00027b60       ??_C@_07GELNHEGO@Drag?5Me?$AA@ 000000014025fb60     imgui_demo.obj
 0003:00027b70       ??_C@_0BG@GNJKBBCP@GetMouseDragDelta?$CI0?$CJ?3?$AA@ 000000014025fb70     imgui_demo.obj
 0003:00027b90       ??_C@_0CF@KCDOPHOF@?5?5w?1?5default?5threshold?3?5?$CI?$CF?41f?0?5?$CF@ 000000014025fb90     imgui_demo.obj
 0003:00027bc0       ??_C@_0CC@LGMLCNKI@?5?5w?1?5zero?5threshold?3?5?$CI?$CF?41f?0?5?$CF?41f@ 000000014025fbc0     imgui_demo.obj
 0003:00027be8       ??_C@_0BM@LOAJCJGM@io?4MouseDelta?3?5?$CI?$CF?41f?0?5?$CF?41f?$CJ?$AA@ 000000014025fbe8     imgui_demo.obj
 0003:00027c10       ??_C@_0BH@FIOEKAIP@Tools?1About?5Dear?5ImGui?$AA@ 000000014025fc10     imgui_demo.obj
 0003:00027c30       ??_C@_0DA@LADNBCJ@By?5Omar?5Cornut?5and?5all?5Dear?5ImGu@ 000000014025fc30     imgui_demo.obj
 0003:00027c70       ??_C@_0FA@NMHKMBMB@Dear?5ImGui?5is?5licensed?5under?5the@ 000000014025fc70     imgui_demo.obj
 0003:00027cd0       ??_C@_0BJ@CEAKAMCE@Config?1Build?5Information?$AA@ 000000014025fcd0     imgui_demo.obj
 0003:00027cf0       ??_C@_0BC@JBNIPPJL@Copy?5to?5clipboard?$AA@ 000000014025fcf0     imgui_demo.obj
 0003:00027d08       ??_C@_09FGECHJGB@cfg_infos?$AA@ 000000014025fd08     imgui_demo.obj
 0003:00027d14       ??_C@_04CJPBKLAG@?$GA?$GA?$GA?6?$AA@ 000000014025fd14     imgui_demo.obj
 0003:00027d20       ??_C@_0BD@GCCEJBGO@Dear?5ImGui?5?$CFs?5?$CI?$CFd?$CJ?$AA@ 000000014025fd20     imgui_demo.obj
 0003:00027d40       ??_C@_0EC@BJAMNCHD@sizeof?$CIsize_t?$CJ?3?5?$CFd?0?5sizeof?$CIImDra@ 000000014025fd40     imgui_demo.obj
 0003:00027d90       ??_C@_0BH@KGAJBCNH@define?3?5__cplusplus?$DN?$CFd?$AA@ 000000014025fd90     imgui_demo.obj
 0003:00027db0       ??_C@_0P@KFJLIPEJ@define?3?5_WIN32?$AA@ 000000014025fdb0     imgui_demo.obj
 0003:00027dc8       ??_C@_0P@PFAKOKCE@define?3?5_WIN64?$AA@ 000000014025fdc8     imgui_demo.obj
 0003:00027de0       ??_C@_0BE@JHNIDJHD@define?3?5_MSC_VER?$DN?$CFd?$AA@ 000000014025fde0     imgui_demo.obj
 0003:00027df8       ??_C@_0BG@LLKICGOL@define?3?5_MSVC_LANG?$DN?$CFd?$AA@ 000000014025fdf8     imgui_demo.obj
 0003:00027e18       ??_C@_0BL@DHJKNAPN@io?4BackendPlatformName?3?5?$CFs?$AA@ 000000014025fe18     imgui_demo.obj
 0003:00027e38       ??_C@_0BL@HCPCDKOE@io?4BackendRendererName?3?5?$CFs?$AA@ 000000014025fe38     imgui_demo.obj
 0003:00027e58       ??_C@_0BH@DILJIOHM@io?4ConfigFlags?3?50x?$CF08X?$AA@ 000000014025fe58     imgui_demo.obj
 0003:00027e78       ??_C@_0BD@CKENCLMO@?5NavEnableKeyboard?$AA@ 000000014025fe78     imgui_demo.obj
 0003:00027e90       ??_C@_0BC@PFLKKAGF@?5NavEnableGamepad?$AA@ 000000014025fe90     imgui_demo.obj
 0003:00027ea8       ??_C@_0BG@KOLHMNKG@?5NavEnableSetMousePos?$AA@ 000000014025fea8     imgui_demo.obj
 0003:00027ec8       ??_C@_0BG@DGPFDLKM@?5NavNoCaptureKeyboard?$AA@ 000000014025fec8     imgui_demo.obj
 0003:00027ee8       ??_C@_08GAJGGFEK@?5NoMouse?$AA@ 000000014025fee8     imgui_demo.obj
 0003:00027ef8       ??_C@_0BF@LKMNGEAI@?5NoMouseCursorChange?$AA@ 000000014025fef8     imgui_demo.obj
 0003:00027f18       ??_C@_0BJ@PEAELIMN@io?4ConfigMacOSXBehaviors?$AA@ 000000014025ff18     imgui_demo.obj
 0003:00027f38       ??_C@_0CD@LAKMNGBL@io?4ConfigMemoryCompactTimer?5?$DN?5?$CF?4@ 000000014025ff38     imgui_demo.obj
 0003:00027f68       ??_C@_0BI@GNGLPDFI@io?4BackendFlags?3?50x?$CF08X?$AA@ 000000014025ff68     imgui_demo.obj
 0003:00027f88       ??_C@_0M@MPABENKI@?5HasGamepad?$AA@ 000000014025ff88     imgui_demo.obj
 0003:00027f98       ??_C@_0BB@NNHFCGPM@?5HasMouseCursors?$AA@ 000000014025ff98     imgui_demo.obj
 0003:00027fb0       ??_C@_0BA@EKJHBGEP@?5HasSetMousePos?$AA@ 000000014025ffb0     imgui_demo.obj
 0003:00027fc8       ??_C@_0BG@GFLBPJOL@?5RendererHasVtxOffset?$AA@ 000000014025ffc8     imgui_demo.obj
 0003:00027fe8       ??_C@_0DC@CPKPHKKN@io?4Fonts?3?5?$CFd?5fonts?0?5Flags?3?50x?$CF08@ 000000014025ffe8     imgui_demo.obj
 0003:00028028       ??_C@_0BK@EIINOCEN@io?4DisplaySize?3?5?$CF?42f?0?$CF?42f?$AA@ 0000000140260028     imgui_demo.obj
 0003:00028048       ??_C@_0CG@MDJEGDDF@io?4DisplayFramebufferScale?3?5?$CF?42f@ 0000000140260048     imgui_demo.obj
 0003:00028078       ??_C@_0BP@CFKGJLOD@style?4WindowPadding?3?5?$CF?42f?0?$CF?42f?$AA@ 0000000140260078     imgui_demo.obj
 0003:000280a0       ??_C@_0BN@NGAGEFMI@style?4WindowBorderSize?3?5?$CF?42f?$AA@ 00000001402600a0     imgui_demo.obj
 0003:000280c8       ??_C@_0BO@GOMLHPA@style?4FramePadding?3?5?$CF?42f?0?$CF?42f?$AA@ 00000001402600c8     imgui_demo.obj
 0003:000280f0       ??_C@_0BK@INLCDPGI@style?4FrameRounding?3?5?$CF?42f?$AA@ 00000001402600f0     imgui_demo.obj
 0003:00028110       ??_C@_0BM@JEFFCPEF@style?4FrameBorderSize?3?5?$CF?42f?$AA@ 0000000140260110     imgui_demo.obj
 0003:00028138       ??_C@_0BN@DHGOAPDN@style?4ItemSpacing?3?5?$CF?42f?0?$CF?42f?$AA@ 0000000140260138     imgui_demo.obj
 0003:00028160       ??_C@_0CC@ECALHKFF@style?4ItemInnerSpacing?3?5?$CF?42f?0?$CF?42@ 0000000140260160     imgui_demo.obj
 0003:00028188       ??_C@_05PPIKNONO@?6?$GA?$GA?$GA?6?$AA@ 0000000140260188     imgui_demo.obj
 0003:00028190       ??_C@_0BCL@DICJLDFC@?9?5Load?5additional?5fonts?5with?5io?4@ 0000000140260190     imgui_demo.obj
 0003:000282f8       ??_C@_0BE@PBMDCJBA@Dark?$AALight?$AAClassic?$AA?$AA@ 00000001402602f8     imgui_demo.obj
 0003:00028310       ??_C@_0BD@LNCFKLAK@Tools?1Style?5Editor?$AA@ 0000000140260310     imgui_demo.obj
 0003:00028328       ??_C@_0BB@MDDLAALC@Colors?$CD?$CDSelector?$AA@ 0000000140260328     imgui_demo.obj
 0003:00028340       ??_C@_0BA@OGAKFFL@Fonts?$CD?$CDSelector?$AA@ 0000000140260340     imgui_demo.obj
 0003:00028358       ??_C@_0O@MJEGPPND@FrameRounding?$AA@ 0000000140260358     imgui_demo.obj
 0003:00028368       ??_C@_0N@IABNAJJO@WindowBorder?$AA@ 0000000140260368     imgui_demo.obj
 0003:00028378       ??_C@_0M@LIENHPEL@FrameBorder?$AA@ 0000000140260378     imgui_demo.obj
 0003:00028388       ??_C@_0M@NFCFILGL@PopupBorder?$AA@ 0000000140260388     imgui_demo.obj
 0003:00028398       ??_C@_08EEJHGAPI@Save?5Ref?$AA@ 0000000140260398     imgui_demo.obj
 0003:000283a8       ??_C@_0L@KOOMFCFA@Revert?5Ref?$AA@ 00000001402603a8     imgui_demo.obj
 0003:000283c0       ??_C@_0IE@DBDEKJDM@Save?1Revert?5in?5local?5non?9persist@ 00000001402603c0     imgui_demo.obj
 0003:00028460       ??_C@_06NNHHJHAK@?$CD?$CDtabs?$AA@ 0000000140260460     imgui_demo.obj
 0003:00028468       ??_C@_05BOIJFCDP@Sizes?$AA@ 0000000140260468     imgui_demo.obj
 0003:00028470       ??_C@_04KGFMLCPK@Main?$AA@ 0000000140260470     imgui_demo.obj
 0003:00028478       ??_C@_0O@NJEPBHAL@WindowPadding?$AA@ 0000000140260478     imgui_demo.obj
 0003:00028488       ??_C@_0N@CPMOGBCG@FramePadding?$AA@ 0000000140260488     imgui_demo.obj
 0003:00028498       ??_C@_0M@PJNJGKOI@ItemSpacing?$AA@ 0000000140260498     imgui_demo.obj
 0003:000284a8       ??_C@_0BB@FPELPPEM@ItemInnerSpacing?$AA@ 00000001402604a8     imgui_demo.obj
 0003:000284c0       ??_C@_0BC@CHKNMAIJ@TouchExtraPadding?$AA@ 00000001402604c0     imgui_demo.obj
 0003:000284d8       ??_C@_0O@FJCIMFNP@IndentSpacing?$AA@ 00000001402604d8     imgui_demo.obj
 0003:000284e8       ??_C@_0O@DNFCAGJO@ScrollbarSize?$AA@ 00000001402604e8     imgui_demo.obj
 0003:000284f8       ??_C@_0M@MMBGIFGH@GrabMinSize?$AA@ 00000001402604f8     imgui_demo.obj
 0003:00028508       ??_C@_0BB@DIOLDNNC@WindowBorderSize?$AA@ 0000000140260508     imgui_demo.obj
 0003:00028520       ??_C@_0BA@MHPKDBMC@ChildBorderSize?$AA@ 0000000140260520     imgui_demo.obj
 0003:00028538       ??_C@_0BA@GHHMANCJ@PopupBorderSize?$AA@ 0000000140260538     imgui_demo.obj
 0003:00028550       ??_C@_0BA@OLKEIFFB@FrameBorderSize?$AA@ 0000000140260550     imgui_demo.obj
 0003:00028568       ??_C@_0O@MEMGDJEN@TabBorderSize?$AA@ 0000000140260568     imgui_demo.obj
 0003:00028578       ??_C@_08ICFONDFO@Rounding?$AA@ 0000000140260578     imgui_demo.obj
 0003:00028588       ??_C@_0P@IMGPCCNA@WindowRounding?$AA@ 0000000140260588     imgui_demo.obj
 0003:000285a0       ??_C@_0O@OLPNJDEC@ChildRounding?$AA@ 00000001402605a0     imgui_demo.obj
 0003:000285b0       ??_C@_0O@OGBCIABM@PopupRounding?$AA@ 00000001402605b0     imgui_demo.obj
 0003:000285c0       ??_C@_0BC@IGAFHGEC@ScrollbarRounding?$AA@ 00000001402605c0     imgui_demo.obj
 0003:000285d8       ??_C@_0N@CHOEJEFP@GrabRounding?$AA@ 00000001402605d8     imgui_demo.obj
 0003:000285e8       ??_C@_0M@GELHPNFJ@TabRounding?$AA@ 00000001402605e8     imgui_demo.obj
 0003:000285f8       ??_C@_04GEFJINEE@?$CF?42f?$AA@ 00000001402605f8     imgui_demo.obj
 0003:00028600       ??_C@_0BB@IFNMJCJO@WindowTitleAlign?$AA@ 0000000140260600     imgui_demo.obj
 0003:00028618       ??_C@_0BB@ECHPPBJL@None?$AALeft?$AARight?$AA?$AA@ 0000000140260618     imgui_demo.obj
 0003:00028630       ??_C@_0BJ@INNLFKOF@WindowMenuButtonPosition?$AA@ 0000000140260630     imgui_demo.obj
 0003:00028650       ??_C@_0M@PMLPANEE@Left?$AARight?$AA?$AA@ 0000000140260650     imgui_demo.obj
 0003:00028660       ??_C@_0BE@HCCCHIDA@ColorButtonPosition?$AA@ 0000000140260660     imgui_demo.obj
 0003:00028678       ??_C@_0BA@PHDMJLFL@ButtonTextAlign?$AA@ 0000000140260678     imgui_demo.obj
 0003:00028690       ??_C@_0EB@KHCCNPEP@Alignment?5applies?5when?5a?5button?5@ 0000000140260690     imgui_demo.obj
 0003:000286e0       ??_C@_0BE@OFFKFPJC@SelectableTextAlign?$AA@ 00000001402606e0     imgui_demo.obj
 0003:00028700       ??_C@_0EF@EIJADJPM@Alignment?5applies?5when?5a?5selecta@ 0000000140260700     imgui_demo.obj
 0003:00028758       ??_C@_0BC@FINEDBHB@Safe?5Area?5Padding?$AA@ 0000000140260758     imgui_demo.obj
 0003:00028770       ??_C@_0GI@OFDAJLLA@Adjust?5if?5you?5cannot?5see?5the?5edg@ 0000000140260770     imgui_demo.obj
 0003:000287f0       ??_C@_0BH@NLJOADCC@DisplaySafeAreaPadding?$AA@ 00000001402607f0     imgui_demo.obj
 0003:00028810       ??_C@_0BC@CILLMAJK@LogSliderDeadzone?$AA@ 0000000140260810     imgui_demo.obj
 0003:00028828       ??_C@_06ICDCBJPI@Colors?$AA@ 0000000140260828     imgui_demo.obj
 0003:00028830       ??_C@_06BFGAPCKF@Export?$AA@ 0000000140260830     imgui_demo.obj
 0003:00028838       ??_C@_0CN@IIGPHJOL@ImVec4?$CK?5colors?5?$DN?5ImGui?3?3GetStyle@ 0000000140260838     imgui_demo.obj
 0003:00028870       ??_C@_0DO@CEAFKMHA@colors?$FLImGuiCol_?$CFs?$FN?$CF?$CKs?$DN?5ImVec4?$CI?$CF@ 0000000140260870     imgui_demo.obj
 0003:000288c0       ??_C@_0BF@PKKCFHCF@To?5Clipboard?$AATo?5TTY?$AA?$AA@ 00000001402608c0     imgui_demo.obj
 0003:000288e0       ??_C@_0O@BMBGJILK@?$CD?$CDoutput_type?$AA@ 00000001402608e0     imgui_demo.obj
 0003:000288f0       ??_C@_0BF@EKILLAGK@Only?5Modified?5Colors?$AA@ 00000001402608f0     imgui_demo.obj
 0003:00028910       ??_C@_0O@ECALKMOF@Filter?5colors?$AA@ 0000000140260910     imgui_demo.obj
 0003:00028920       ??_C@_06OGJDIEIN@Opaque?$AA@ 0000000140260920     imgui_demo.obj
 0003:00028928       ??_C@_05IHOGHNDL@Alpha?$AA@ 0000000140260928     imgui_demo.obj
 0003:00028930       ??_C@_04IGHHMFLN@Both?$AA@ 0000000140260930     imgui_demo.obj
 0003:00028940       ??_C@_0GL@DGJKIMAI@In?5the?5color?5list?3?6Left?9click?5on@ 0000000140260940     imgui_demo.obj
 0003:000289c0       ??_C@_08PKGPDAGH@?$CD?$CDcolors?$AA@ 00000001402609c0     imgui_demo.obj
 0003:000289d0       ??_C@_07KJABCEJI@?$CD?$CDcolor?$AA@ 00000001402609d0     imgui_demo.obj
 0003:000289dc       ??_C@_04INACKGJP@Save?$AA@ 00000001402609dc     imgui_demo.obj
 0003:000289e4       ??_C@_06OIKMFEGE@Revert?$AA@ 00000001402609e4     imgui_demo.obj
 0003:000289f0       ??_C@_0DI@LIBKHDAI@Read?5FAQ?5and?5docs?1FONTS?4md?5for?5d@ 00000001402609f0     imgui_demo.obj
 0003:00028a40       ??_C@_0BDA@ONKGEIHO@Those?5are?5old?5settings?5provided?5@ 0000000140260a40     imgui_demo.obj
 0003:00028bb0       ??_C@_0N@DLFCCMFO@window?5scale?$AA@ 0000000140260bb0     imgui_demo.obj
 0003:00028bc0       ??_C@_0N@DCHFKEPM@global?5scale?$AA@ 0000000140260bc0     imgui_demo.obj
 0003:00028bd0       ??_C@_09PIAIFBON@Rendering?$AA@ 0000000140260bd0     imgui_demo.obj
 0003:00028be0       ??_C@_0BD@INPJKAKL@Anti?9aliased?5lines?$AA@ 0000000140260be0     imgui_demo.obj
 0003:00028c00       ??_C@_0GD@HJLOEILL@When?5disabling?5anti?9aliasing?5lin@ 0000000140260c00     imgui_demo.obj
 0003:00028c78       ??_C@_0BP@FHJLGIJI@Anti?9aliased?5lines?5use?5texture?$AA@ 0000000140260c78     imgui_demo.obj
 0003:00028ca0       ??_C@_0HC@GKHKBME@Faster?5lines?5using?5texture?5data?4@ 0000000140260ca0     imgui_demo.obj
 0003:00028d28       ??_C@_0BC@KAFHAJBP@Anti?9aliased?5fill?$AA@ 0000000140260d28     imgui_demo.obj
 0003:00028d40       ??_C@_0BN@KPCPFGKJ@Curve?5Tessellation?5Tolerance?$AA@ 0000000140260d40     imgui_demo.obj
 0003:00028d68       ??_C@_0BO@ENDODAAL@Circle?5Tessellation?5Max?5Error?$AA@ 0000000140260d68     imgui_demo.obj
 0003:00028d90       ??_C@_0CF@PHDIKMAF@?$CIR?5?$DN?5radius?0?5N?5?$DN?5number?5of?5segme@ 0000000140260d90     imgui_demo.obj
 0003:00028dc0       ??_C@_0O@MNHFAILC@N?3?5MMM?6R?3?5MMM?$AA@ 0000000140260dc0     imgui_demo.obj
 0003:00028dd0       ??_C@_0N@PBIKEDIP@R?3?5?$CF?4f?6N?3?5?$CFd?$AA@ 0000000140260dd0     imgui_demo.obj
 0003:00028de0       ??_C@_0GG@GMJKIKDN@When?5drawing?5circle?5primitives?5w@ 0000000140260de0     imgui_demo.obj
 0003:00028e60       ??_C@_0N@MBCJIDFM@Global?5Alpha?$AA@ 0000000140260e60     imgui_demo.obj
 0003:00028e70       ??_C@_0P@HJLJBJBE@Disabled?5Alpha?$AA@ 0000000140260e70     imgui_demo.obj
 0003:00028e90       ??_C@_0FH@NPBPGPJP@Additional?5alpha?5multiplier?5for?5@ 0000000140260e90     imgui_demo.obj
 0003:00028ef8       ??_C@_0CO@FFJHEDDC@Double?9click?5on?5title?5bar?5to?5col@ 0000000140260ef8     imgui_demo.obj
 0003:00028f30       ??_C@_0GD@KHDHCLNB@Click?5and?5drag?5on?5lower?5corner?5t@ 0000000140260f30     imgui_demo.obj
 0003:00028fa8       ??_C@_0DL@LJHMLMPJ@CTRL?$CLClick?5on?5a?5slider?5or?5drag?5b@ 0000000140260fa8     imgui_demo.obj
 0003:00028ff0       ??_C@_0DJ@LKCIFMEM@TAB?1SHIFT?$CLTAB?5to?5cycle?5through?5k@ 0000000140260ff0     imgui_demo.obj
 0003:00029038       ??_C@_0BN@MNOOCJNJ@CTRL?$CLTab?5to?5select?5a?5window?4?$AA@ 0000000140261038     imgui_demo.obj
 0003:00029060       ??_C@_0CK@LADJDPFO@CTRL?$CLMouse?5Wheel?5to?5zoom?5window?5@ 0000000140261060     imgui_demo.obj
 0003:00029098       ??_C@_0BG@NMLMAAHC@While?5inputing?5text?3?6?$AA@ 0000000140261098     imgui_demo.obj
 0003:000290b8       ??_C@_0BO@EGJGDBOL@CTRL?$CLLeft?1Right?5to?5word?5jump?4?$AA@ 00000001402610b8     imgui_demo.obj
 0003:000290e0       ??_C@_0CG@EHDHJJCE@CTRL?$CLA?5or?5double?9click?5to?5select@ 00000001402610e0     imgui_demo.obj
 0003:00029110       ??_C@_0CM@COCDFHEI@CTRL?$CLX?1C?1V?5to?5use?5clipboard?5cut?1@ 0000000140261110     imgui_demo.obj
 0003:00029148       ??_C@_0BM@KMMNEEIL@CTRL?$CLZ?0CTRL?$CLY?5to?5undo?1redo?4?$AA@ 0000000140261148     imgui_demo.obj
 0003:00029170       ??_C@_0BC@PKENOIKO@ESCAPE?5to?5revert?4?$AA@ 0000000140261170     imgui_demo.obj
 0003:00029188       ??_C@_0CC@LHGBBELP@With?5keyboard?5navigation?5enabled@ 0000000140261188     imgui_demo.obj
 0003:000291b0       ??_C@_0BI@PBJOMNMB@Arrow?5keys?5to?5navigate?4?$AA@ 00000001402611b0     imgui_demo.obj
 0003:000291d0       ??_C@_0BM@LKNGKCOD@Space?5to?5activate?5a?5widget?4?$AA@ 00000001402611d0     imgui_demo.obj
 0003:000291f8       ??_C@_0CE@LIPDCNLP@Return?5to?5input?5text?5into?5a?5widg@ 00000001402611f8     imgui_demo.obj
 0003:00029228       ??_C@_0DP@NLCDBEHA@Escape?5to?5deactivate?5a?5widget?0?5c@ 0000000140261228     imgui_demo.obj
 0003:00029278       ??_C@_0CL@EBPMKFNL@Alt?5to?5jump?5to?5the?5menu?5layer?5of@ 0000000140261278     imgui_demo.obj
 0003:000292ac       ??_C@_06GHDCGCHF@CTRL?$CLZ?$AA@ 00000001402612ac     imgui_demo.obj
 0003:000292b4       ??_C@_04LPGMNMPN@Undo?$AA@ 00000001402612b4     imgui_demo.obj
 0003:000292bc       ??_C@_06EMBPDBLG@CTRL?$CLY?$AA@ 00000001402612bc     imgui_demo.obj
 0003:000292c4       ??_C@_04NKENIHOM@Redo?$AA@ 00000001402612c4     imgui_demo.obj
 0003:000292cc       ??_C@_06FFAEAAPH@CTRL?$CLX?$AA@ 00000001402612cc     imgui_demo.obj
 0003:000292d4       ??_C@_03EOHDMBHJ@Cut?$AA@  00000001402612d4     imgui_demo.obj
 0003:000292d8       ??_C@_06PMDCMLGN@CTRL?$CLC?$AA@ 00000001402612d8     imgui_demo.obj
 0003:000292e0       ??_C@_06MLIHCNHJ@CTRL?$CLV?$AA@ 00000001402612e0     imgui_demo.obj
 0003:000292e8       ??_C@_05NEBJFIEK@Paste?$AA@ 00000001402612e8     imgui_demo.obj
 0003:000292f0       ??_C@_0O@GAOLJPOH@Examples?1Menu?$AA@ 00000001402612f0     imgui_demo.obj
 0003:00029300       ??_C@_0M@OLDACLJ@?$CIdemo?5menu?$CJ?$AA@ 0000000140261300     imgui_demo.obj
 0003:00029310       ??_C@_03ILBCOJBH@New?$AA@  0000000140261310     imgui_demo.obj
 0003:00029314       ??_C@_06DGNIABGN@Ctrl?$CLO?$AA@ 0000000140261314     imgui_demo.obj
 0003:0002931c       ??_C@_04DNCDCIAE@Open?$AA@ 000000014026131c     imgui_demo.obj
 0003:00029328       ??_C@_0M@FFOFICLF@Open?5Recent?$AA@ 0000000140261328     imgui_demo.obj
 0003:00029338       ??_C@_0L@MGPNFHBN@fish_hat?4c?$AA@ 0000000140261338     imgui_demo.obj
 0003:00029348       ??_C@_0N@OONPEMFD@fish_hat?4inl?$AA@ 0000000140261348     imgui_demo.obj
 0003:00029358       ??_C@_0L@CFAJIONG@fish_hat?4h?$AA@ 0000000140261358     imgui_demo.obj
 0003:00029368       ??_C@_06INDFPOP@More?4?4?$AA@ 0000000140261368     imgui_demo.obj
 0003:00029370       ??_C@_09JKOAAOOB@Recurse?4?4?$AA@ 0000000140261370     imgui_demo.obj
 0003:0002937c       ??_C@_06NAKPFMDA@Ctrl?$CLS?$AA@ 000000014026137c     imgui_demo.obj
 0003:00029388       ??_C@_09JEJONNAL@Save?5As?4?4?$AA@ 0000000140261388     imgui_demo.obj
 0003:00029398       ??_C@_0BG@BFDGIKBI@Examples?1Menu?1Options?$AA@ 0000000140261398     imgui_demo.obj
 0003:000293b8       ??_C@_07DOAOMMKG@Enabled?$AA@ 00000001402613b8     imgui_demo.obj
 0003:000293c8       ??_C@_0BC@MAFFAEMB@Scrolling?5Text?5?$CFd?$AA@ 00000001402613c8     imgui_demo.obj
 0003:000293e0       ??_C@_05DCDOHKAB@Input?$AA@ 00000001402613e0     imgui_demo.obj
 0003:000293e8       ??_C@_0P@CHCLHMCH@Yes?$AANo?$AAMaybe?$AA?$AA?$AA@ 00000001402613e8     imgui_demo.obj
 0003:00029400       ??_C@_0BF@IOOCHEEB@Examples?1Menu?1Colors?$AA@ 0000000140261400     imgui_demo.obj
 0003:00029420       ??_C@_0CJ@HMLLIHM@Examples?1Menu?1Append?5to?5an?5exist@ 0000000140261420     imgui_demo.obj
 0003:00029458       ??_C@_0L@CLAHFOAE@SomeOption?$AA@ 0000000140261458     imgui_demo.obj
 0003:00029468       ??_C@_07KAJHKDAE@Checked?$AA@ 0000000140261468     imgui_demo.obj
 0003:00029474       ??_C@_06ELIFPNNI@Alt?$CLF4?$AA@ 0000000140261474     imgui_demo.obj
 0003:0002947c       ??_C@_04GMBKPCGK@Quit?$AA@ 000000014026147c     imgui_demo.obj
 0003:00029488       ??_C@_0BB@GJBEJJEP@Examples?1Console?$AA@ 0000000140261488     imgui_demo.obj
 0003:0002949c       ??_C@_04DOKPJKJF@HELP?$AA@ 000000014026149c     imgui_demo.obj
 0003:000294a8       ??_C@_07DBIJIOJO@HISTORY?$AA@ 00000001402614a8     imgui_demo.obj
 0003:000294b4       ??_C@_05PONODPI@CLEAR?$AA@ 00000001402614b4     imgui_demo.obj
 0003:000294c0       ??_C@_08GOHMLCGG@CLASSIFY?$AA@ 00000001402614c0     imgui_demo.obj
 0003:000294d0       ??_C@_0BH@HICLALOG@Welcome?5to?5Dear?5ImGui?$CB?$AA@ 00000001402614d0     imgui_demo.obj
 0003:000294ec       ??_C@_13KHDBCPJB@?$AAs?$AA?$AA@ 00000001402614ec     imgui_demo.obj
 0003:000294f0       ??_C@_17ENLBLDPN@?$AAb?$AAu?$AAf?$AA?$AA@ 00000001402614f0     imgui_demo.obj
 0003:00029500       ??_C@_0O@GDIOPKGP@Close?5Console?$AA@ 0000000140261500     imgui_demo.obj
 0003:00029510       ??_C@_0NJ@IPNBOCGH@This?5example?5implements?5a?5consol@ 0000000140261510     imgui_demo.obj
 0003:00029618       ??_C@_0BH@DCBEMCMC@Enter?5?8HELP?8?5for?5help?4?$AA@ 0000000140261618     imgui_demo.obj
 0003:00029638       ??_C@_0P@EGDLDIHN@Add?5Debug?5Text?$AA@ 0000000140261638     imgui_demo.obj
 0003:00029650       ??_C@_0N@OJGBPOOP@?$CFd?5some?5text?$AA@ 0000000140261650     imgui_demo.obj
 0003:00029660       ??_C@_0P@BMHJKMPF@some?5more?5text?$AA@ 0000000140261660     imgui_demo.obj
 0003:00029678       ??_C@_0CF@PEIDNPCH@display?5very?5important?5message?5h@ 0000000140261678     imgui_demo.obj
 0003:000296a8       ??_C@_0BA@FGHPBLJE@Add?5Debug?5Error?$AA@ 00000001402616a8     imgui_demo.obj
 0003:000296c0       ??_C@_0BN@KNPJMMPE@?$FLerror?$FN?5something?5went?5wrong?$AA@ 00000001402616c0     imgui_demo.obj
 0003:000296e8       ??_C@_0M@IFKANFPJ@Auto?9scroll?$AA@ 00000001402616e8     imgui_demo.obj
 0003:000296f8       ??_C@_0CA@HIABFBKB@Filter?5?$CI?$CCincl?0?9excl?$CC?$CJ?5?$CI?$CCerror?$CC?$CJ?$AA@ 00000001402616f8     imgui_demo.obj
 0003:00029720       ??_C@_0BA@KOEFNJOK@ScrollingRegion?$AA@ 0000000140261720     imgui_demo.obj
 0003:00029738       ??_C@_07LFMCMLFD@?$FLerror?$FN?$AA@ 0000000140261738     imgui_demo.obj
 0003:00029744       ??_C@_02KPDBPKPG@?$CD?5?$AA@ 0000000140261744     imgui_demo.obj
 0003:00029748       ??_C@_05DFHAGHEP@?$CD?5?$CFs?6?$AA@ 0000000140261748     imgui_demo.obj
 0003:00029750       ??_C@_09GJFNIAOH@Commands?3?$AA@ 0000000140261750     imgui_demo.obj
 0003:0002975c       ??_C@_04JKCKOCFH@?9?5?$CFs?$AA@ 000000014026175c     imgui_demo.obj
 0003:00029768       ??_C@_08PKLPHKJF@?$CF3d?3?5?$CFs?6?$AA@ 0000000140261768     imgui_demo.obj
 0003:00029778       ??_C@_0BH@OKLFOGKH@Unknown?5command?3?5?8?$CFs?8?6?$AA@ 0000000140261778     imgui_demo.obj
 0003:00029798       ??_C@_0BG@DOPMHGPK@No?5match?5for?5?$CC?$CF?4?$CKs?$CC?$CB?6?$AA@ 0000000140261798     imgui_demo.obj
 0003:000297b4       ??_C@_01CLKCMJKC@?5?$AA@   00000001402617b4     imgui_demo.obj
 0003:000297b8       ??_C@_0BD@LCPLNAHF@Possible?5matches?3?6?$AA@ 00000001402617b8     imgui_demo.obj
 0003:000297d0       ??_C@_05PHKAGDP@?9?5?$CFs?6?$AA@ 00000001402617d0     imgui_demo.obj
 0003:000297d8       ??_C@_0BB@NEACHKPE@Example?3?5Console?$AA@ 00000001402617d8     imgui_demo.obj
 0003:000297ec       ??_C@_06IBDJIBGI@Filter?$AA@ 00000001402617ec     imgui_demo.obj
 0003:000297f8       ??_C@_0N@LFJACCKD@Example?3?5Log?$AA@ 00000001402617f8     imgui_demo.obj
 0003:00029808       ??_C@_0N@BPJHOONG@Examples?1Log?$AA@ 0000000140261808     imgui_demo.obj
 0003:00029818       ??_C@_0BG@JBNFHIEN@?$FLDebug?$FN?5Add?55?5entries?$AA@ 0000000140261818     imgui_demo.obj
 0003:00029834       ??_C@_04NIDJFNBE@info?$AA@ 0000000140261834     imgui_demo.obj
 0003:0002983c       ??_C@_04FNLOFOEM@warn?$AA@ 000000014026183c     imgui_demo.obj
 0003:00029844       ??_C@_05KKCIMGE@error?$AA@ 0000000140261844     imgui_demo.obj
 0003:00029850       ??_C@_0L@CIGCKJLI@Bumfuzzled?$AA@ 0000000140261850     imgui_demo.obj
 0003:00029860       ??_C@_0M@FKNIJFM@Cattywampus?$AA@ 0000000140261860     imgui_demo.obj
 0003:00029870       ??_C@_0M@KEIJGBOK@Snickersnee?$AA@ 0000000140261870     imgui_demo.obj
 0003:00029880       ??_C@_0O@KKKMMPJN@Abibliophobia?$AA@ 0000000140261880     imgui_demo.obj
 0003:00029890       ??_C@_0N@FLCFMCCB@Absquatulate?$AA@ 0000000140261890     imgui_demo.obj
 0003:000298a0       ??_C@_0L@MIMGHMNH@Nincompoop?$AA@ 00000001402618a0     imgui_demo.obj
 0003:000298b0       ??_C@_0N@BIHLNJM@Pauciloquent?$AA@ 00000001402618b0     imgui_demo.obj
 0003:000298c0       ??_C@_0DO@NHFCPAIM@?$FL?$CF05d?$FN?5?$FL?$CFs?$FN?5Hello?0?5current?5time?5@ 00000001402618c0     imgui_demo.obj
 0003:00029910       ??_C@_0BH@BCHKOJFL@Example?3?5Simple?5layout?$AA@ 0000000140261910     imgui_demo.obj
 0003:00029930       ??_C@_0BH@LFPHNCOC@Examples?1Simple?5layout?$AA@ 0000000140261930     imgui_demo.obj
 0003:0002994c       ??_C@_06LEMDJJDE@Ctrl?$CLW?$AA@ 000000014026194c     imgui_demo.obj
 0003:00029958       ??_C@_09OINOOGMP@left?5pane?$AA@ 0000000140261958     imgui_demo.obj
 0003:00029968       ??_C@_0M@DHBPHHKL@MyObject?5?$CFd?$AA@ 0000000140261968     imgui_demo.obj
 0003:00029978       ??_C@_09PHNAOHDK@item?5view?$AA@ 0000000140261978     imgui_demo.obj
 0003:00029988       ??_C@_0N@CMHEFDFC@MyObject?3?5?$CFd?$AA@ 0000000140261988     imgui_demo.obj
 0003:00029998       ??_C@_06BMLGLIAO@?$CD?$CDTabs?$AA@ 0000000140261998     imgui_demo.obj
 0003:000299a0       ??_C@_0HN@OJKIHMDC@Lorem?5ipsum?5dolor?5sit?5amet?0?5cons@ 00000001402619a0     imgui_demo.obj
 0003:00029a38       ??_C@_07NJJEDOBB@Details?$AA@ 0000000140261a38     imgui_demo.obj
 0003:00029a48       ??_C@_0P@CCIDAFDC@ID?3?50123456789?$AA@ 0000000140261a48     imgui_demo.obj
 0003:00029a5c       ??_C@_05FIIOEGIK@?$CFs_?$CFu?$AA@ 0000000140261a5c     imgui_demo.obj
 0003:00029a64       ??_C@_06ELFECKBG@Object?$AA@ 0000000140261a64     imgui_demo.obj
 0003:00029a70       ??_C@_0BC@LIBEHHHH@my?5sailor?5is?5rich?$AA@ 0000000140261a70     imgui_demo.obj
 0003:00029a88       ??_C@_08BNKJGCPO@Field_?$CFd?$AA@ 0000000140261a88     imgui_demo.obj
 0003:00029a94       ??_C@_05EPLKDJMH@Field?$AA@ 0000000140261a94     imgui_demo.obj
 0003:00029aa0       ??_C@_07FBBIKLOB@?$CD?$CDvalue?$AA@ 0000000140261aa0     imgui_demo.obj
 0003:00029ab0       ??_C@_0BJ@EKHJGGOC@Example?3?5Property?5editor?$AA@ 0000000140261ab0     imgui_demo.obj
 0003:00029ad0       ??_C@_0BJ@BMIAECG@Examples?1Property?5Editor?$AA@ 0000000140261ad0     imgui_demo.obj
 0003:00029af0       ??_C@_0BAG@IGIKGKDA@This?5example?5shows?5how?5you?5may?5i@ 0000000140261af0     imgui_demo.obj
 0003:00029c30       ??_C@_0BL@GBIKCKEE@Example?3?5Long?5text?5display?$AA@ 0000000140261c30     imgui_demo.obj
 0003:00029c50       ??_C@_0BL@OPFBPBGI@Examples?1Long?5text?5display?$AA@ 0000000140261c50     imgui_demo.obj
 0003:00029c70       ??_C@_0CI@JCGLFKAA@Printing?5unusually?5long?5amount?5o@ 0000000140261c70     imgui_demo.obj
 0003:00029ca0       ??_C@_0HB@DAOOCDLA@Single?5call?5to?5TextUnformatted?$CI?$CJ@ 0000000140261ca0     imgui_demo.obj
 0003:00029d28       ??_C@_09NBDEEMIG@Test?5type?$AA@ 0000000140261d28     imgui_demo.obj
 0003:00029d38       ??_C@_0CE@MABLKLGB@Buffer?5contents?3?5?$CFd?5lines?0?5?$CFd?5by@ 0000000140261d38     imgui_demo.obj
 0003:00029d68       ??_C@_0P@IHJDPCIL@Add?51000?5lines?$AA@ 0000000140261d68     imgui_demo.obj
 0003:00029d80       ??_C@_0DA@IKFBCOKM@?$CFi?5The?5quick?5brown?5fox?5jumps?5ove@ 0000000140261d80     imgui_demo.obj
 0003:00029dc0       ??_C@_0CP@NEDCKJAF@?$CFi?5The?5quick?5brown?5fox?5jumps?5ove@ 0000000140261dc0     imgui_demo.obj
 0003:00029df8       ??_C@_0BO@BJFILJPF@Example?3?5Auto?9resizing?5window?$AA@ 0000000140261df8     imgui_demo.obj
 0003:00029e20       ??_C@_0BO@FLMCBBHH@Examples?1Auto?9resizing?5window?$AA@ 0000000140261e20     imgui_demo.obj
 0003:00029e50       ??_C@_0LI@CEDCIBKO@Window?5will?5resize?5every?9frame?5t@ 0000000140261e50     imgui_demo.obj
 0003:00029f30       ??_C@_0BA@EAJBEEH@Number?5of?5lines?$AA@ 0000000140261f30     imgui_demo.obj
 0003:00029f48       ??_C@_0BD@DIDKCIOM@?$CF?$CKsThis?5is?5line?5?$CFd?$AA@ 0000000140261f48     imgui_demo.obj
 0003:00029f60       ??_C@_0BM@ELFAEDLN@Between?5100x100?5and?5500x500?$AA@ 0000000140261f60     imgui_demo.obj
 0003:00029f88       ??_C@_0BB@OMJELDNN@At?5least?5100x100?$AA@ 0000000140261f88     imgui_demo.obj
 0003:00029fa0       ??_C@_0BF@FPBGOCLL@Resize?5vertical?5only?$AA@ 0000000140261fa0     imgui_demo.obj
 0003:00029fc0       ??_C@_0BH@FIOIJIGG@Resize?5horizontal?5only?$AA@ 0000000140261fc0     imgui_demo.obj
 0003:00029fe0       ??_C@_0BK@CJDAKIAB@Width?5Between?5400?5and?5500?$AA@ 0000000140261fe0     imgui_demo.obj
 0003:0002a000       ??_C@_0BK@HKADNNEP@Custom?3?5Aspect?5Ratio?516?39?$AA@ 0000000140262000     imgui_demo.obj
 0003:0002a020       ??_C@_0BG@JBCFEINF@Custom?3?5Always?5Square?$AA@ 0000000140262020     imgui_demo.obj
 0003:0002a040       ??_C@_0BK@NJBCHMME@Custom?3?5Fixed?5Steps?5?$CI100?$CJ?$AA@ 0000000140262040     imgui_demo.obj
 0003:0002a060       ??_C@_0BM@KOHLMLPM@Example?3?5Constrained?5Resize?$AA@ 0000000140262060     imgui_demo.obj
 0003:0002a088       ??_C@_0CF@GJNNAKKD@Examples?1Constrained?5Resizing?5wi@ 0000000140262088     imgui_demo.obj
 0003:0002a0b8       ??_C@_08BMPDLDPD@viewport?$AA@ 00000001402620b8     imgui_demo.obj
 0003:0002a0c8       ??_C@_0M@OPPEOHAI@?$CF?42f?5x?5?$CF?42f?$AA@ 00000001402620c8     imgui_demo.obj
 0003:0002a0d8       ??_C@_0CJ@FGKPOBFJ@?$CIHold?5SHIFT?5to?5display?5a?5dummy?5v@ 00000001402620d8     imgui_demo.obj
 0003:0002a110       ??_C@_0M@JAEDJCOP@Set?5200x200?$AA@ 0000000140262110     imgui_demo.obj
 0003:0002a120       ??_C@_0M@HFBKDEP@Set?5500x500?$AA@ 0000000140262120     imgui_demo.obj
 0003:0002a130       ??_C@_0M@BIDIOCH@Set?5800x200?$AA@ 0000000140262130     imgui_demo.obj
 0003:0002a140       ??_C@_0L@PIOLEGBL@Constraint?$AA@ 0000000140262140     imgui_demo.obj
 0003:0002a150       ??_C@_0M@CEOMCPLH@Auto?9resize?$AA@ 0000000140262150     imgui_demo.obj
 0003:0002a160       ??_C@_0P@MFKLHBLP@Window?5padding?$AA@ 0000000140262160     imgui_demo.obj
 0003:0002a180       ??_C@_0EA@CCNBDEKJ@?$CF?$CKsHello?0?5sailor?$CB?5Making?5this?5li@ 0000000140262180     imgui_demo.obj
 0003:0002a1d0       ??_C@_0BI@PFDIHNNE@Example?3?5Simple?5overlay?$AA@ 00000001402621d0     imgui_demo.obj
 0003:0002a1f0       ??_C@_0BI@LOFEJJJB@Examples?1Simple?5Overlay?$AA@ 00000001402621f0     imgui_demo.obj
 0003:0002a210       ??_C@_0DA@NHHAMFHG@Simple?5overlay?6?$CIright?9click?5to?5c@ 0000000140262210     imgui_demo.obj
 0003:0002a250       ??_C@_0BM@DKAAEOG@Mouse?5Position?3?5?$CI?$CF?41f?0?$CF?41f?$CJ?$AA@ 0000000140262250     imgui_demo.obj
 0003:0002a278       ??_C@_0BK@POIHMAKN@Mouse?5Position?3?5?$DMinvalid?$DO?$AA@ 0000000140262278     imgui_demo.obj
 0003:0002a298       ??_C@_06IFGIOHDE@Custom?$AA@ 0000000140262298     imgui_demo.obj
 0003:0002a2a0       ??_C@_08DPOKBJOC@Top?9left?$AA@ 00000001402622a0     imgui_demo.obj
 0003:0002a2b0       ??_C@_09FEMEGGCE@Top?9right?$AA@ 00000001402622b0     imgui_demo.obj
 0003:0002a2c0       ??_C@_0M@MGBINKPN@Bottom?9left?$AA@ 00000001402622c0     imgui_demo.obj
 0003:0002a2d0       ??_C@_0N@NJDFJJBC@Bottom?9right?$AA@ 00000001402622d0     imgui_demo.obj
 0003:0002a2e0       ??_C@_0BL@OIOENALL@Example?3?5Fullscreen?5window?$AA@ 00000001402622e0     imgui_demo.obj
 0003:0002a300       ??_C@_0CD@LIJNANIG@Use?5work?5area?5instead?5of?5main?5ar@ 0000000140262300     imgui_demo.obj
 0003:0002a330       ??_C@_0LF@IPIHCBEA@Main?5Area?5?$DN?5entire?5viewport?0?6Wor@ 0000000140262330     imgui_demo.obj
 0003:0002a410       ??_C@_0BO@GBGIKPEE@ImGuiWindowFlags_NoBackground?$AA@ 0000000140262410     imgui_demo.obj
 0003:0002a438       ??_C@_0BO@ECAKMENC@ImGuiWindowFlags_NoDecoration?$AA@ 0000000140262438     imgui_demo.obj
 0003:0002a460       ??_C@_0BM@DAAIDMAD@ImGuiWindowFlags_NoTitleBar?$AA@ 0000000140262460     imgui_demo.obj
 0003:0002a488       ??_C@_0BM@NPHEKNPH@ImGuiWindowFlags_NoCollapse?$AA@ 0000000140262488     imgui_demo.obj
 0003:0002a4b0       ??_C@_0BN@FBGOLCGF@ImGuiWindowFlags_NoScrollbar?$AA@ 00000001402624b0     imgui_demo.obj
 0003:0002a4d8       ??_C@_0BC@FCOOFHFP@Close?5this?5window?$AA@ 00000001402624d8     imgui_demo.obj
 0003:0002a4f0       ??_C@_0CA@BDOLKHNF@Same?5title?5as?5another?5window?$CD?$CD1?$AA@ 00000001402624f0     imgui_demo.obj
 0003:0002a518       ??_C@_0CE@IMLLBKBG@Examples?1Manipulating?5window?5tit@ 0000000140262518     imgui_demo.obj
 0003:0002a550       ??_C@_0FB@NGKGAEMM@This?5is?5window?51?4?6My?5title?5is?5th@ 0000000140262550     imgui_demo.obj
 0003:0002a5b8       ??_C@_0CA@DIMGPEBG@Same?5title?5as?5another?5window?$CD?$CD2?$AA@ 00000001402625b8     imgui_demo.obj
 0003:0002a5e0       ??_C@_0FB@MFIDPLFC@This?5is?5window?52?4?6My?5title?5is?5th@ 00000001402625e0     imgui_demo.obj
 0003:0002a644       ??_C@_04NLDFHNKP@?$HM?1?9?2?$AA@ 0000000140262644     imgui_demo.obj
 0003:0002a650       ??_C@_0CF@MMFFJKJN@Animated?5title?5?$CFc?5?$CFd?$CD?$CD?$CDAnimatedT@ 0000000140262650     imgui_demo.obj
 0003:0002a680       ??_C@_0CC@JFOMGEPF@This?5window?5has?5a?5changing?5title@ 0000000140262680     imgui_demo.obj
 0003:0002a6a8       ??_C@_0BK@LABFKPJJ@Example?3?5Custom?5rendering?$AA@ 00000001402626a8     imgui_demo.obj
 0003:0002a6c8       ??_C@_0BK@JKHMHJNE@Examples?1Custom?5Rendering?$AA@ 00000001402626c8     imgui_demo.obj
 0003:0002a6e8       ??_C@_08EHLCCPCB@?$CD?$CDTabBar?$AA@ 00000001402626e8     imgui_demo.obj
 0003:0002a6f8       ??_C@_0L@LLLBMLGE@Primitives?$AA@ 00000001402626f8     imgui_demo.obj
 0003:0002a708       ??_C@_09CPMEGEPG@Gradients?$AA@ 0000000140262708     imgui_demo.obj
 0003:0002a718       ??_C@_0M@EKFIAEGG@?$CD?$CDgradient1?$AA@ 0000000140262718     imgui_demo.obj
 0003:0002a728       ??_C@_0M@GBHFFHKF@?$CD?$CDgradient2?$AA@ 0000000140262728     imgui_demo.obj
 0003:0002a738       ??_C@_0P@NICJPAHE@All?5primitives?$AA@ 0000000140262738     imgui_demo.obj
 0003:0002a74c       ??_C@_05IDMOFOMC@?$CF?402f?$AA@ 000000014026274c     imgui_demo.obj
 0003:0002a758       ??_C@_09CEKHLCFH@Thickness?$AA@ 0000000140262758     imgui_demo.obj
 0003:0002a768       ??_C@_0M@ENJDGMDO@N?9gon?5sides?$AA@ 0000000140262768     imgui_demo.obj
 0003:0002a778       ??_C@_0BI@BDDBJMAI@?$CD?$CDcirclesegmentoverride?$AA@ 0000000140262778     imgui_demo.obj
 0003:0002a798       ??_C@_0BJ@DMOGAKFD@Circle?5segments?5override?$AA@ 0000000140262798     imgui_demo.obj
 0003:0002a7b8       ??_C@_0BI@KHAADAB@?$CD?$CDcurvessegmentoverride?$AA@ 00000001402627b8     imgui_demo.obj
 0003:0002a7d8       ??_C@_0BJ@MEDFNGBG@Curves?5segments?5override?$AA@ 00000001402627d8     imgui_demo.obj
 0003:0002a7f8       ??_C@_05PDOBBJNA@Color?$AA@ 00000001402627f8     imgui_demo.obj
 0003:0002a800       ??_C@_06PBIJCONE@Canvas?$AA@ 0000000140262800     imgui_demo.obj
 0003:0002a808       ??_C@_0M@JHCNMMOE@Enable?5grid?$AA@ 0000000140262808     imgui_demo.obj
 0003:0002a818       ??_C@_0BE@IDDJEBPH@Enable?5context?5menu?$AA@ 0000000140262818     imgui_demo.obj
 0003:0002a830       ??_C@_0FE@MNMLMGAD@Mouse?5Left?3?5drag?5to?5add?5lines?0?6M@ 0000000140262830     imgui_demo.obj
 0003:0002a894       ??_C@_06DODEBHEI@canvas?$AA@ 0000000140262894     imgui_demo.obj
 0003:0002a8a0       ??_C@_07JKKCBBMM@context?$AA@ 00000001402628a0     imgui_demo.obj
 0003:0002a8b0       ??_C@_0L@IEFPLEH@Remove?5one?$AA@ 00000001402628b0     imgui_demo.obj
 0003:0002a8c0       ??_C@_0L@DKNMODFD@Remove?5all?$AA@ 00000001402628c0     imgui_demo.obj
 0003:0002a8d0       ??_C@_0BB@CEOBEDIK@BG?1FG?5draw?5lists?$AA@ 00000001402628d0     imgui_demo.obj
 0003:0002a8e8       ??_C@_0BN@BHPCJJNA@Draw?5in?5Background?5draw?5list?$AA@ 00000001402628e8     imgui_demo.obj
 0003:0002a910       ??_C@_0EK@HADEKICD@The?5Background?5draw?5list?5will?5be@ 0000000140262910     imgui_demo.obj
 0003:0002a968       ??_C@_0BN@MBHOHPNH@Draw?5in?5Foreground?5draw?5list?$AA@ 0000000140262968     imgui_demo.obj
 0003:0002a990       ??_C@_0EJ@MJHHHC@The?5Foreground?5draw?5list?5will?5be@ 0000000140262990     imgui_demo.obj
 0003:0002a9e8       ??_C@_0O@LKIEAKBN@Document?5?$CC?$CFs?$CC?$AA@ 00000001402629e8     imgui_demo.obj
 0003:0002aa00       ??_C@_0HM@PALHCHMO@Lorem?5ipsum?5dolor?5sit?5amet?0?5cons@ 0000000140262a00     imgui_demo.obj
 0003:0002aa94       ??_C@_06CGNGJFJO@Modify?$AA@ 0000000140262a94     imgui_demo.obj
 0003:0002aaa0       ??_C@_07HKLKIEAD@Save?5?$CFs?$AA@ 0000000140262aa0     imgui_demo.obj
 0003:0002aaac       ??_C@_06LGPANJDM@CTRL?$CLS?$AA@ 0000000140262aac     imgui_demo.obj
 0003:0002aab4       ??_C@_06NCJMBMDI@CTRL?$CLW?$AA@ 0000000140262ab4     imgui_demo.obj
 0003:0002aac0       ??_C@_07KPHKCHJL@Lettuce?$AA@ 0000000140262ac0     imgui_demo.obj
 0003:0002aad0       ??_C@_08MEKMCLOD@Eggplant?$AA@ 0000000140262ad0     imgui_demo.obj
 0003:0002aadc       ??_C@_06JOCEHIMN@Carrot?$AA@ 0000000140262adc     imgui_demo.obj
 0003:0002aae4       ??_C@_06BPAOMENE@Tomato?$AA@ 0000000140262ae4     imgui_demo.obj
 0003:0002aaf0       ??_C@_0BE@GMCEAMGE@A?5Rather?5Long?5Title?$AA@ 0000000140262af0     imgui_demo.obj
 0003:0002ab08       ??_C@_0O@ILMKPHFK@Some?5Document?$AA@ 0000000140262b08     imgui_demo.obj
 0003:0002ab18       ??_C@_0BD@BKDKPNMJ@Example?3?5Documents?$AA@ 0000000140262b18     imgui_demo.obj
 0003:0002ab30       ??_C@_0BE@HCFGHAAC@Close?5All?5Documents?$AA@ 0000000140262b30     imgui_demo.obj
 0003:0002ab48       ??_C@_07IHMOANJM@Ctrl?$CLF4?$AA@ 0000000140262b48     imgui_demo.obj
 0003:0002ab54       ??_C@_04LBABLPF@Exit?$AA@  0000000140262b54     imgui_demo.obj
 0003:0002ab5c       ??_C@_05DIODKGEP@Save?$DP?$AA@ 0000000140262b5c     imgui_demo.obj
 0003:0002ab68       ??_C@_0CE@FLCNDGLJ@Save?5change?5to?5the?5following?5ite@ 0000000140262b68     imgui_demo.obj
 0003:0002ab94       ??_C@_05MIJNFGED@frame?$AA@ 0000000140262b94     imgui_demo.obj
 0003:0002ab9c       ??_C@_03CCLAEDDF@Yes?$AA@  0000000140262b9c     imgui_demo.obj
 0003:0002aba0       ??_C@_02JINPPBEP@No?$AA@   0000000140262ba0     imgui_demo.obj
 0003:0002aba8       __real@0000000000000000    0000000140262ba8     imgui_demo.obj
 0003:0002abb4       __real@38d1b717            0000000140262bb4     imgui_demo.obj
 0003:0002abb8       __real@3a03126f            0000000140262bb8     imgui_demo.obj
 0003:0002abbc       __real@3ca3d70a            0000000140262bbc     imgui_demo.obj
 0003:0002abc0       __real@3e6b851f            0000000140262bc0     imgui_demo.obj
 0003:0002abc4       __real@3eb33333            0000000140262bc4     imgui_demo.obj
 0003:0002abc8       __real@3ee4e4e5            0000000140262bc8     imgui_demo.obj
 0003:0002abcc       __real@3f109091            0000000140262bcc     imgui_demo.obj
 0003:0002abd0       __real@3f1a9a9b            0000000140262bd0     imgui_demo.obj
 0003:0002abd4       __real@3f48c8c9            0000000140262bd4     imgui_demo.obj
 0003:0002abd8       __real@3f666666            0000000140262bd8     imgui_demo.obj
 0003:0002abe0       __real@3f847ae140000000    0000000140262be0     imgui_demo.obj
 0003:0002abf0       __real@3f91111120000000    0000000140262bf0     imgui_demo.obj
 0003:0002abfc       __real@3fa66666            0000000140262bfc     imgui_demo.obj
 0003:0002ac00       __real@3fc00000            0000000140262c00     imgui_demo.obj
 0003:0002ac08       __real@3fd0000000000000    0000000140262c08     imgui_demo.obj
 0003:0002ac14       __real@3fe38e39            0000000140262c14     imgui_demo.obj
 0003:0002ac18       __real@3ff0000000000000    0000000140262c18     imgui_demo.obj
 0003:0002ac24       __real@40490e56            0000000140262c24     imgui_demo.obj
 0003:0002ac28       __real@40b00000            0000000140262c28     imgui_demo.obj
 0003:0002ac2c       __real@40c80000            0000000140262c2c     imgui_demo.obj
 0003:0002ac30       __real@41233333            0000000140262c30     imgui_demo.obj
 0003:0002ac34       __real@41700000            0000000140262c34     imgui_demo.obj
 0003:0002ac38       __real@41e00000            0000000140262c38     imgui_demo.obj
 0003:0002ac3c       __real@41f00000            0000000140262c3c     imgui_demo.obj
 0003:0002ac40       __real@41f80000            0000000140262c40     imgui_demo.obj
 0003:0002ac44       __real@42200000            0000000140262c44     imgui_demo.obj
 0003:0002ac48       __real@42480000            0000000140262c48     imgui_demo.obj
 0003:0002ac4c       __real@42800000            0000000140262c4c     imgui_demo.obj
 0003:0002ac50       __real@42820000            0000000140262c50     imgui_demo.obj
 0003:0002ac54       __real@428c0000            0000000140262c54     imgui_demo.obj
 0003:0002ac58       __real@42b40000            0000000140262c58     imgui_demo.obj
 0003:0002ac5c       __real@42c00000            0000000140262c5c     imgui_demo.obj
 0003:0002ac60       __real@42f00000            0000000140262c60     imgui_demo.obj
 0003:0002ac64       __real@43000000            0000000140262c64     imgui_demo.obj
 0003:0002ac68       __real@430c0000            0000000140262c68     imgui_demo.obj
 0003:0002ac70       __real@430c6bf526340000    0000000140262c70     imgui_demo.obj
 0003:0002ac7c       __real@43160000            0000000140262c7c     imgui_demo.obj
 0003:0002ac80       __real@43200000            0000000140262c80     imgui_demo.obj
 0003:0002ac84       __real@43340000            0000000140262c84     imgui_demo.obj
 0003:0002ac88       __real@43480000            0000000140262c88     imgui_demo.obj
 0003:0002ac8c       __real@43820000            0000000140262c8c     imgui_demo.obj
 0003:0002ac90       __real@43960000            0000000140262c90     imgui_demo.obj
 0003:0002ac94       __real@43b40000            0000000140262c94     imgui_demo.obj
 0003:0002ac98       __real@43d70000            0000000140262c98     imgui_demo.obj
 0003:0002ac9c       __real@43dc0000            0000000140262c9c     imgui_demo.obj
 0003:0002aca0       __real@43e10000            0000000140262ca0     imgui_demo.obj
 0003:0002aca4       __real@43fa0000            0000000140262ca4     imgui_demo.obj
 0003:0002aca8       __real@44020000            0000000140262ca8     imgui_demo.obj
 0003:0002acac       __real@44098000            0000000140262cac     imgui_demo.obj
 0003:0002acb0       __real@44228000            0000000140262cb0     imgui_demo.obj
 0003:0002acb4       __real@442a0000            0000000140262cb4     imgui_demo.obj
 0003:0002acb8       __real@44bb8000            0000000140262cb8     imgui_demo.obj
 0003:0002acbc       __real@44db2000            0000000140262cbc     imgui_demo.obj
 0003:0002acc0       __real@501502f9            0000000140262cc0     imgui_demo.obj
 0003:0002acc4       __real@bdcccccd            0000000140262cc4     imgui_demo.obj
 0003:0002acc8       __real@c1200000            0000000140262cc8     imgui_demo.obj
 0003:0002accc       __real@c1400000            0000000140262ccc     imgui_demo.obj
 0003:0002acd0       __real@c1a00000            0000000140262cd0     imgui_demo.obj
 0003:0002acd4       __real@c2c80000            0000000140262cd4     imgui_demo.obj
 0003:0002acd8       __real@c30c6bf526340000    0000000140262cd8     imgui_demo.obj
 0003:0002ace4       __real@c3200000            0000000140262ce4     imgui_demo.obj
 0003:0002ace8       __real@c3b40000            0000000140262ce8     imgui_demo.obj
 0003:0002acec       __real@d01502f9            0000000140262cec     imgui_demo.obj
 0003:00035f20       ??_C@_1BG@HMJJDGFN@?$AAi?$AAn?$AAd?$AAe?$AAx?$AA?5?$AA?$DO?$AA?$DN?$AA?5?$AA0?$AA?$AA@ 000000014026df20     imgui_draw.obj
 0003:00035f40       ??_C@_1DA@HCNHOFJN@?$AAn?$AA?5?$AA?$DM?$AA?5?$AA?$CI?$AAS?$AAt?$AAo?$AAr?$AAa?$AAg?$AAe?$AA?4?$AAS?$AAi?$AAz?$AAe?$AA?5?$AA?$DM?$AA?$DM?$AA?5?$AA5?$AA?$CJ?$AA?$AA@ 000000014026df40     imgui_draw.obj
 0003:00035f80       ??_C@_1GA@HGJIAHCP@?$AAc?$AA?3?$AA?2?$AAg?$AAi?$AAt?$AAh?$AAu?$AAb?$AA?2?$AAf?$AAr?$AAa?$AAm?$AAe?$AAw?$AAo?$AAr?$AAk?$AA?2?$AAt?$AAo?$AAo?$AAl?$AA?2?$AAi?$AAm?$AAg?$AAu?$AAi?$AA?2?$AAi@ 000000014026df80     imgui_draw.obj
 0003:00035ff8       ??_C@_1BO@KBODBKOH@?$AAf?$AAi?$AAr?$AAs?$AAt?$AA?9?$AA?$DO?$AAx?$AA?5?$AA?$DM?$AA?$DN?$AA?5?$AAx?$AA0?$AA?$AA@ 000000014026dff8     imgui_draw.obj
 0003:00036020       ??_C@_1CG@BDIGDJGP@?$AAn?$AAo?$AAd?$AAe?$AA?9?$AA?$DO?$AAn?$AAe?$AAx?$AAt?$AA?9?$AA?$DO?$AAx?$AA?5?$AA?$DO?$AA?5?$AAx?$AA0?$AA?$AA@ 000000014026e020     imgui_draw.obj
 0003:00036050       ??_C@_1BM@JHJLEEND@?$AAn?$AAo?$AAd?$AAe?$AA?9?$AA?$DO?$AAx?$AA?5?$AA?$DM?$AA?$DN?$AA?5?$AAx?$AA0?$AA?$AA@ 000000014026e050     imgui_draw.obj
 0003:00036078       ??_C@_1CM@LEHAODMI@?$AAw?$AAi?$AAd?$AAt?$AAh?$AA?5?$AA?$CF?$AA?5?$AAc?$AA?9?$AA?$DO?$AAa?$AAl?$AAi?$AAg?$AAn?$AA?5?$AA?$DN?$AA?$DN?$AA?5?$AA0?$AA?$AA@ 000000014026e078     imgui_draw.obj
 0003:000360b0       ??_C@_1BE@MNLKNDNL@?$AAx?$AAp?$AAo?$AAs?$AA?5?$AA?$DO?$AA?$DN?$AA?5?$AA0?$AA?$AA@ 000000014026e0b0     imgui_draw.obj
 0003:000360d0       ??_C@_1FA@GPDJEJHP@?$AAn?$AAo?$AAd?$AAe?$AA?9?$AA?$DO?$AAn?$AAe?$AAx?$AAt?$AA?9?$AA?$DO?$AAx?$AA?5?$AA?$DO?$AA?5?$AAx?$AAp?$AAo?$AAs?$AA?5?$AA?$CG?$AA?$CG?$AA?5?$AAn?$AAo?$AAd?$AAe?$AA?9?$AA?$DO?$AAx?$AA?5@ 000000014026e0d0     imgui_draw.obj
 0003:00036130       ??_C@_1CM@NCKIDPDA@?$AAc?$AAu?$AAr?$AA?9?$AA?$DO?$AAx?$AA?5?$AA?$DM?$AA?5?$AAc?$AAu?$AAr?$AA?9?$AA?$DO?$AAn?$AAe?$AAx?$AAt?$AA?9?$AA?$DO?$AAx?$AA?$AA@ 000000014026e130     imgui_draw.obj
 0003:00036168       ??_C@_1BO@NJIDGHPD@?$AAc?$AAu?$AAr?$AA?9?$AA?$DO?$AAn?$AAe?$AAx?$AAt?$AA?5?$AA?$DN?$AA?$DN?$AA?5?$AA0?$AA?$AA@ 000000014026e168     imgui_draw.obj
 0003:00036190       ??_C@_1DM@MABMKAHD@?$AAc?$AAo?$AAu?$AAn?$AAt?$AA?5?$AA?$DN?$AA?$DN?$AA?5?$AAc?$AAo?$AAn?$AAt?$AAe?$AAx?$AAt?$AA?9?$AA?$DO?$AAn?$AAu?$AAm?$AA_?$AAn?$AAo?$AAd?$AAe?$AAs?$AA?$CL?$AA2?$AA?$AA@ 000000014026e190     imgui_draw.obj
 0003:000361e0       ??_C@_1GA@KHNACDEL@?$AAc?$AA?3?$AA?2?$AAg?$AAi?$AAt?$AAh?$AAu?$AAb?$AA?2?$AAf?$AAr?$AAa?$AAm?$AAe?$AAw?$AAo?$AAr?$AAk?$AA?2?$AAt?$AAo?$AAo?$AAl?$AA?2?$AAi?$AAm?$AAg?$AAu?$AAi?$AA?2?$AAi@ 000000014026e1e0     imgui_draw.obj
 0003:00036258       ??_C@_1DA@CPAEOPEI@?$AA?$CB?$AA?$CI?$AAo?$AA?5?$AA?$DO?$AA?5?$AAb?$AA?9?$AA?$DO?$AAs?$AAi?$AAz?$AAe?$AA?5?$AA?$HM?$AA?$HM?$AA?5?$AAo?$AA?5?$AA?$DM?$AA?5?$AA0?$AA?$CJ?$AA?$AA@ 000000014026e258     imgui_draw.obj
 0003:00036298       ??_C@_1CC@OMFGMKMB@?$AAn?$AA?5?$AA?$DO?$AA?$DN?$AA?5?$AA1?$AA?5?$AA?$CG?$AA?$CG?$AA?5?$AAn?$AA?5?$AA?$DM?$AA?$DN?$AA?5?$AA4?$AA?$AA@ 000000014026e298     imgui_draw.obj
 0003:000362c0       ??_C@_1CE@EPOLDKHI@?$AAs?$AAi?$AAz?$AAe?$AA?5?$AA?$DM?$AA?5?$AA0?$AAx?$AA4?$AA0?$AA0?$AA0?$AA0?$AA0?$AA0?$AA0?$AA?$AA@ 000000014026e2c0     imgui_draw.obj
 0003:000362f0       ??_C@_1DK@IJDIOPHB@?$AAo?$AAf?$AAf?$AAs?$AAi?$AAz?$AAe?$AA?5?$AA?$DO?$AA?$DN?$AA?5?$AA1?$AA?5?$AA?$CG?$AA?$CG?$AA?5?$AAo?$AAf?$AAf?$AAs?$AAi?$AAz?$AAe?$AA?5?$AA?$DM?$AA?$DN?$AA?5?$AA4?$AA?$AA@ 000000014026e2f0     imgui_draw.obj
 0003:00036338       ??_C@_1BC@KDMJFGHG@?$AAb?$AA0?$AA?5?$AA?$DO?$AA?$DN?$AA?5?$AA2?$AA8?$AA?$AA@ 000000014026e338     imgui_draw.obj
 0003:00036350       ??_C@_1CI@PFMEGAIA@?$AAi?$AA?5?$AA?$DO?$AA?$DN?$AA?5?$AA0?$AA?5?$AA?$CG?$AA?$CG?$AA?5?$AAi?$AA?5?$AA?$DM?$AA?5?$AAc?$AAo?$AAu?$AAn?$AAt?$AA?$AA@ 000000014026e350     imgui_draw.obj
 0003:00036380       ??_C@_04LBBEMOBJ@typ1?$AA@ 000000014026e380     imgui_draw.obj
 0003:00036388       ??_C@_04LLEFIKCJ@OTTO?$AA@ 000000014026e388     imgui_draw.obj
 0003:00036390       ??_C@_04LOAJBDKD@true?$AA@ 000000014026e390     imgui_draw.obj
 0003:00036398       ??_C@_04KIOEMAHO@ttcf?$AA@ 000000014026e398     imgui_draw.obj
 0003:000363a0       ??_C@_04EICJPCEA@cmap?$AA@ 000000014026e3a0     imgui_draw.obj
 0003:000363a8       ??_C@_04DACNFKGE@loca?$AA@ 000000014026e3a8     imgui_draw.obj
 0003:000363b0       ??_C@_04NEODDMOL@head?$AA@ 000000014026e3b0     imgui_draw.obj
 0003:000363b8       ??_C@_04LLIHEPK@glyf?$AA@  000000014026e3b8     imgui_draw.obj
 0003:000363c0       ??_C@_04FMPHLIKP@hhea?$AA@ 000000014026e3c0     imgui_draw.obj
 0003:000363c8       ??_C@_04ONMNCIMC@hmtx?$AA@ 000000014026e3c8     imgui_draw.obj
 0003:000363d0       ??_C@_04HHMMLDJI@kern?$AA@ 000000014026e3d0     imgui_draw.obj
 0003:000363d8       ??_C@_04PCFDEHHD@GPOS?$AA@ 000000014026e3d8     imgui_draw.obj
 0003:000363e0       ??_C@_04HJGCPIEK@CFF?5?$AA@ 000000014026e3e0     imgui_draw.obj
 0003:000363e8       ??_C@_04KODIGLGG@maxp?$AA@ 000000014026e3e8     imgui_draw.obj
 0003:000363f0       ??_C@_1CA@MDABGEPC@?$AA?$CB?$AAi?$AAn?$AAf?$AAo?$AA?9?$AA?$DO?$AAc?$AAf?$AAf?$AA?4?$AAs?$AAi?$AAz?$AAe?$AA?$AA@ 000000014026e3f0     imgui_draw.obj
 0003:00036420       ??_C@_1GE@KABFAMEA@?$AAo?$AAu?$AAt?$AAp?$AAu?$AAt?$AA_?$AAc?$AAt?$AAx?$AA?4?$AAn?$AAu?$AAm?$AA_?$AAv?$AAe?$AAr?$AAt?$AAi?$AAc?$AAe?$AAs?$AA?5?$AA?$DN?$AA?$DN?$AA?5?$AAc?$AAo?$AAu?$AAn?$AAt@ 000000014026e420     imgui_draw.obj
 0003:00036498       ??_C@_1O@EHPNOHML@?$AAz?$AA?5?$AA?$CB?$AA?$DN?$AA?5?$AA0?$AA?$AA@ 000000014026e498     imgui_draw.obj
 0003:000364a8       ??_C@_1BA@ENLNFFAM@?$AAy?$AA0?$AA?5?$AA?$DM?$AA?5?$AAy?$AA1?$AA?$AA@ 000000014026e4a8     imgui_draw.obj
 0003:000364c0       ??_C@_1BO@JGPMADBG@?$AAe?$AA?9?$AA?$DO?$AAs?$AAy?$AA?5?$AA?$DM?$AA?$DN?$AA?5?$AAe?$AA?9?$AA?$DO?$AAe?$AAy?$AA?$AA@ 000000014026e4c0     imgui_draw.obj
 0003:000364e8       ??_C@_1BE@DHAKMBPL@?$AAx?$AA1?$AA?5?$AA?$DM?$AA?$DN?$AA?5?$AAx?$AA?$CL?$AA1?$AA?$AA@ 000000014026e4e8     imgui_draw.obj
 0003:00036500       ??_C@_1BA@FAAMJPKE@?$AAx?$AA1?$AA?5?$AA?$DO?$AA?$DN?$AA?5?$AAx?$AA?$AA@ 000000014026e500     imgui_draw.obj
 0003:00036518       ??_C@_1BA@FEPJEPJJ@?$AAx?$AA1?$AA?5?$AA?$DM?$AA?$DN?$AA?5?$AAx?$AA?$AA@ 000000014026e518     imgui_draw.obj
 0003:00036530       ??_C@_1BE@NGGEAFFG@?$AAx?$AA1?$AA?5?$AA?$DO?$AA?$DN?$AA?5?$AAx?$AA?$CL?$AA1?$AA?$AA@ 000000014026e530     imgui_draw.obj
 0003:00036548       ??_C@_1CK@NILBPPPH@?$AAx?$AA1?$AA?5?$AA?$DO?$AA?$DN?$AA?5?$AAx?$AA?5?$AA?$CG?$AA?$CG?$AA?5?$AAx?$AA1?$AA?5?$AA?$DM?$AA?$DN?$AA?5?$AAx?$AA?$CL?$AA1?$AA?$AA@ 000000014026e548     imgui_draw.obj
 0003:00036580       ??_C@_1FK@JPMIPNJF@?$AAx?$AA0?$AA?5?$AA?$DO?$AA?$DN?$AA?5?$AAx?$AA?5?$AA?$CG?$AA?$CG?$AA?5?$AAx?$AA0?$AA?5?$AA?$DM?$AA?$DN?$AA?5?$AAx?$AA?$CL?$AA1?$AA?5?$AA?$CG?$AA?$CG?$AA?5?$AAx?$AA1?$AA?5?$AA?$DO?$AA?$DN?$AA?5?$AAx?$AA?5@ 000000014026e580     imgui_draw.obj
 0003:000365f0       ??_C@_1BO@IKHHJKG@?$AAt?$AAo?$AAp?$AA_?$AAw?$AAi?$AAd?$AAt?$AAh?$AA?5?$AA?$DO?$AA?$DN?$AA?5?$AA0?$AA?$AA@ 000000014026e5f0     imgui_draw.obj
 0003:00036618       ??_C@_1CE@HFDPCECH@?$AAb?$AAo?$AAt?$AAt?$AAo?$AAm?$AA_?$AAw?$AAi?$AAd?$AAt?$AAh?$AA?5?$AA?$DO?$AA?$DN?$AA?5?$AA0?$AA?$AA@ 000000014026e618     imgui_draw.obj
 0003:00036648       ??_C@_1BO@MDBOACOJ@?$AAe?$AA?9?$AA?$DO?$AAe?$AAy?$AA?5?$AA?$DO?$AA?$DN?$AA?5?$AAy?$AA_?$AAt?$AAo?$AAp?$AA?$AA@ 000000014026e648     imgui_draw.obj
 0003:00036670       ??_C@_1EI@KOIFPDFH@?$AAe?$AA?9?$AA?$DO?$AAs?$AAy?$AA?5?$AA?$DM?$AA?$DN?$AA?5?$AAy?$AA_?$AAb?$AAo?$AAt?$AAt?$AAo?$AAm?$AA?5?$AA?$CG?$AA?$CG?$AA?5?$AAe?$AA?9?$AA?$DO?$AAe?$AAy?$AA?5?$AA?$DO?$AA?$DN?$AA?5?$AAy?$AA_@ 000000014026e670     imgui_draw.obj
 0003:000366c8       ??_C@_1CE@GDDDMDCC@?$AAx?$AA?5?$AA?$DO?$AA?$DN?$AA?5?$AA0?$AA?5?$AA?$CG?$AA?$CG?$AA?5?$AAx?$AA?5?$AA?$DM?$AA?5?$AAl?$AAe?$AAn?$AA?$AA@ 000000014026e6c8     imgui_draw.obj
 0003:000366f8       ??_C@_1BA@DNEJOLOH@?$AAd?$AAy?$AA?5?$AA?$DO?$AA?$DN?$AA?5?$AA0?$AA?$AA@ 000000014026e6f8     imgui_draw.obj
 0003:00036710       ??_C@_1BA@KAEGAKJB@?$AAd?$AAx?$AA?5?$AA?$DO?$AA?$DN?$AA?5?$AA0?$AA?$AA@ 000000014026e710     imgui_draw.obj
 0003:00036728       ??_C@_1CK@PHOJNIKI@?$AAf?$AAa?$AAb?$AAs?$AAf?$AA?$CI?$AAa?$AAr?$AAe?$AAa?$AA?$CJ?$AA?5?$AA?$DM?$AA?$DN?$AA?5?$AA1?$AA?4?$AA0?$AA1?$AAf?$AA?$AA@ 000000014026e728     imgui_draw.obj
 0003:00036760       ??_C@_1CI@LBLBFJLN@?$AAs?$AAy?$AA1?$AA?5?$AA?$DO?$AA?5?$AAy?$AA_?$AAf?$AAi?$AAn?$AAa?$AAl?$AA?9?$AA0?$AA?4?$AA0?$AA1?$AAf?$AA?$AA@ 000000014026e760     imgui_draw.obj
 0003:00036790       ??_C@_1BK@LMAHJHLI@?$AAz?$AA?9?$AA?$DO?$AAd?$AAi?$AAr?$AAe?$AAc?$AAt?$AAi?$AAo?$AAn?$AA?$AA@ 000000014026e790     imgui_draw.obj
 0003:000367b0       ??_C@_1CI@PMJHELI@?$AAz?$AA?9?$AA?$DO?$AAe?$AAy?$AA?5?$AA?$DO?$AA?$DN?$AA?5?$AAs?$AAc?$AAa?$AAn?$AA_?$AAy?$AA_?$AAt?$AAo?$AAp?$AA?$AA@ 000000014026e7b0     imgui_draw.obj
 0003:000367e0       ??_C@_1BO@BDJAMAMF@?$AAp?$AAi?$AAx?$AAe?$AAl?$AAs?$AA?$FL?$AAi?$AA?$FN?$AA?5?$AA?$DN?$AA?$DN?$AA?5?$AA0?$AA?$AA@ 000000014026e7e0     imgui_draw.obj
 0003:00036808       ??_C@_1DO@LAPBLJ@?$AAp?$AAi?$AAx?$AAe?$AAl?$AAs?$AA?$FL?$AAi?$AA?$CK?$AAs?$AAt?$AAr?$AAi?$AAd?$AAe?$AA_?$AAi?$AAn?$AA_?$AAb?$AAy?$AAt?$AAe?$AAs?$AA?$FN?$AA?5?$AA?$DN?$AA?$DN?$AA?5?$AA0?$AA?$AA@ 000000014026e808     imgui_draw.obj
 0003:00036860       ??_C@_1FM@EAJJBPG@?$AAc?$AA?3?$AA?2?$AAg?$AAi?$AAt?$AAh?$AAu?$AAb?$AA?2?$AAf?$AAr?$AAa?$AAm?$AAe?$AAw?$AAo?$AAr?$AAk?$AA?2?$AAt?$AAo?$AAo?$AAl?$AA?2?$AAi?$AAm?$AAg?$AAu?$AAi?$AA?2?$AAi@ 000000014026e860     imgui_draw.obj
 0003:000368d0       ??_C@_1CC@JCMOPDC@?$AAm?$AAa?$AAx?$AA_?$AAe?$AAr?$AAr?$AAo?$AAr?$AA?5?$AA?$DO?$AA?5?$AA0?$AA?4?$AA0?$AAf?$AA?$AA@ 000000014026e8d0     imgui_draw.obj
 0003:00036900       ??_C@_1LC@MAEAJCLC@?$AAd?$AAr?$AAa?$AAw?$AA_?$AAc?$AAm?$AAd?$AA?4?$AAC?$AAl?$AAi?$AAp?$AAR?$AAe?$AAc?$AAt?$AA?4?$AAx?$AA?5?$AA?$DM?$AA?$DN?$AA?5?$AAd?$AAr?$AAa?$AAw?$AA_?$AAc?$AAm?$AAd?$AA?4@ 000000014026e900     imgui_draw.obj
 0003:000369d8       ??_C@_1DI@FGNNAPCK@?$AAc?$AAu?$AAr?$AAr?$AA_?$AAc?$AAm?$AAd?$AA?9?$AA?$DO?$AAU?$AAs?$AAe?$AAr?$AAC?$AAa?$AAl?$AAl?$AAb?$AAa?$AAc?$AAk?$AA?5?$AA?$DN?$AA?$DN?$AA?5?$AA0?$AA?$AA@ 000000014026e9d8     imgui_draw.obj
 0003:00036a20       ??_C@_1EG@DFNGCDMN@?$AA_?$AAD?$AAa?$AAt?$AAa?$AA?9?$AA?$DO?$AAC?$AAu?$AAr?$AAv?$AAe?$AAT?$AAe?$AAs?$AAs?$AAe?$AAl?$AAl?$AAa?$AAt?$AAi?$AAo?$AAn?$AAT?$AAo?$AAl?$AA?5?$AA?$DO?$AA?5?$AA0?$AA?4@ 000000014026ea20     imgui_draw.obj
 0003:00036a78       ??_C@_0DF@FNKJFHEE@Misuse?5of?5legacy?5hardcoded?5ImDra@ 000000014026ea78     imgui_draw.obj
 0003:00036ac0       ??_C@_1JM@GAJOFMMN@?$AA?$CI?$AAf?$AAl?$AAa?$AAg?$AAs?$AA?5?$AA?$CG?$AA?5?$AA0?$AAx?$AA0?$AAF?$AA?$CJ?$AA?5?$AA?$DN?$AA?$DN?$AA?5?$AA0?$AA?5?$AA?$CG?$AA?$CG?$AA?5?$AA?$CC?$AAM?$AAi?$AAs?$AAu?$AAs?$AAe?$AA?5?$AAo@ 000000014026eac0     imgui_draw.obj
 0003:00036b80       ??_C@_1GI@CIGOLMNM@?$AAf?$AAo?$AAn?$AAt?$AA?9?$AA?$DO?$AAC?$AAo?$AAn?$AAt?$AAa?$AAi?$AAn?$AAe?$AAr?$AAA?$AAt?$AAl?$AAa?$AAs?$AA?9?$AA?$DO?$AAT?$AAe?$AAx?$AAI?$AAD?$AA?5?$AA?$DN?$AA?$DN?$AA?5?$AA_@ 000000014026eb80     imgui_draw.obj
 0003:00036c00       ??_C@_0GA@FGMHMEOI@Nested?5channel?5splitting?5is?5not?5@ 000000014026ec00     imgui_draw.obj
 0003:00036c80       ??_C@_1BAE@LAENHIMB@?$AA_?$AAC?$AAu?$AAr?$AAr?$AAe?$AAn?$AAt?$AA?5?$AA?$DN?$AA?$DN?$AA?5?$AA0?$AA?5?$AA?$CG?$AA?$CG?$AA?5?$AA_?$AAC?$AAo?$AAu?$AAn?$AAt?$AA?5?$AA?$DM?$AA?$DN?$AA?5?$AA1?$AA?5?$AA?$CG?$AA?$CG?$AA?5@ 000000014026ec80     imgui_draw.obj
 0003:00036db8       ??_C@_1DC@ILGGLBID@?$AAi?$AAd?$AAx?$AA?5?$AA?$DO?$AA?$DN?$AA?5?$AA0?$AA?5?$AA?$CG?$AA?$CG?$AA?5?$AAi?$AAd?$AAx?$AA?5?$AA?$DM?$AA?5?$AA_?$AAC?$AAo?$AAu?$AAn?$AAt?$AA?$AA@ 000000014026edb8     imgui_draw.obj
 0003:00036e00       ??_C@_0EN@DLIEKEGM@Cannot?5modify?5a?5locked?5ImFontAtl@ 000000014026ee00     imgui_draw.obj
 0003:00036e60       ??_C@_1LE@PGHOGCJ@?$AA?$CB?$AAL?$AAo?$AAc?$AAk?$AAe?$AAd?$AA?5?$AA?$CG?$AA?$CG?$AA?5?$AA?$CC?$AAC?$AAa?$AAn?$AAn?$AAo?$AAt?$AA?5?$AAm?$AAo?$AAd?$AAi?$AAf?$AAy?$AA?5?$AAa?$AA?5?$AAl?$AAo?$AAc?$AAk@ 000000014026ee60     imgui_draw.obj
 0003:00036f40       ??_C@_1GM@FAHJAOLI@?$AAf?$AAo?$AAn?$AAt?$AA_?$AAc?$AAf?$AAg?$AA?9?$AA?$DO?$AAF?$AAo?$AAn?$AAt?$AAD?$AAa?$AAt?$AAa?$AA?5?$AA?$CB?$AA?$DN?$AA?5?$AA0?$AA?5?$AA?$CG?$AA?$CG?$AA?5?$AAf?$AAo?$AAn?$AAt?$AA_@ 000000014026ef40     imgui_draw.obj
 0003:00036fc8       ??_C@_1DI@LEOIHPJH@?$AAf?$AAo?$AAn?$AAt?$AA_?$AAc?$AAf?$AAg?$AA?9?$AA?$DO?$AAS?$AAi?$AAz?$AAe?$AAP?$AAi?$AAx?$AAe?$AAl?$AAs?$AA?5?$AA?$DO?$AA?5?$AA0?$AA?4?$AA0?$AAf?$AA?$AA@ 000000014026efc8     imgui_draw.obj
 0003:00037010       ??_C@_0CI@EDBCHFCN@Cannot?5use?5MergeMode?5for?5the?5fir@ 000000014026f010     imgui_draw.obj
 0003:00037040       ??_C@_1HI@KOOOLAEJ@?$AA?$CB?$AAF?$AAo?$AAn?$AAt?$AAs?$AA?4?$AAe?$AAm?$AAp?$AAt?$AAy?$AA?$CI?$AA?$CJ?$AA?5?$AA?$CG?$AA?$CG?$AA?5?$AA?$CC?$AAC?$AAa?$AAn?$AAn?$AAo?$AAt?$AA?5?$AAu?$AAs?$AAe?$AA?5?$AAM?$AAe@ 000000014026f040     imgui_draw.obj
 0003:000370d0       ??_C@_0BG@CONABPA@ProggyClean?4ttf?0?5?$CFdpx?$AA@ 000000014026f0d0     imgui_draw.obj
 0003:000370f0       ??_C@_1EG@KCPDJPKE@?$AA?$CI?$AA0?$AA?$CJ?$AA?5?$AA?$CG?$AA?$CG?$AA?5?$AA?$CC?$AAC?$AAo?$AAu?$AAl?$AAd?$AA?5?$AAn?$AAo?$AAt?$AA?5?$AAl?$AAo?$AAa?$AAd?$AA?5?$AAf?$AAo?$AAn?$AAt?$AA?5?$AAf?$AAi?$AAl?$AAe@ 000000014026f0f0     imgui_draw.obj
 0003:00037148       ??_C@_0L@EPCGLJHG@?$CFs?0?5?$CF?40fpx?$AA@ 000000014026f148     imgui_draw.obj
 0003:00037158       ??_C@_1CO@ODFMNMML@?$AAf?$AAo?$AAn?$AAt?$AA_?$AAc?$AAf?$AAg?$AA?4?$AAF?$AAo?$AAn?$AAt?$AAD?$AAa?$AAt?$AAa?$AA?5?$AA?$DN?$AA?$DN?$AA?5?$AA0?$AA?$AA@ 000000014026f158     imgui_draw.obj
 0003:00037190       ??_C@_1DK@GHLOFHKF@?$AAw?$AAi?$AAd?$AAt?$AAh?$AA?5?$AA?$DO?$AA?5?$AA0?$AA?5?$AA?$CG?$AA?$CG?$AA?5?$AAw?$AAi?$AAd?$AAt?$AAh?$AA?5?$AA?$DM?$AA?$DN?$AA?5?$AA0?$AAx?$AAF?$AAF?$AAF?$AAF?$AA?$AA@ 000000014026f190     imgui_draw.obj
 0003:000371d8       ??_C@_1DO@CAIIJEKF@?$AAh?$AAe?$AAi?$AAg?$AAh?$AAt?$AA?5?$AA?$DO?$AA?5?$AA0?$AA?5?$AA?$CG?$AA?$CG?$AA?5?$AAh?$AAe?$AAi?$AAg?$AAh?$AAt?$AA?5?$AA?$DM?$AA?$DN?$AA?5?$AA0?$AAx?$AAF?$AAF?$AAF?$AAF?$AA?$AA@ 000000014026f1d8     imgui_draw.obj
 0003:00037228       ??_C@_1BE@PBFICKNN@?$AAf?$AAo?$AAn?$AAt?$AA?5?$AA?$CB?$AA?$DN?$AA?5?$AA0?$AA?$AA@ 000000014026f228     imgui_draw.obj
 0003:00037240       ??_C@_1DM@CMBJAGBP@?$AAT?$AAe?$AAx?$AAW?$AAi?$AAd?$AAt?$AAh?$AA?5?$AA?$DO?$AA?5?$AA0?$AA?5?$AA?$CG?$AA?$CG?$AA?5?$AAT?$AAe?$AAx?$AAH?$AAe?$AAi?$AAg?$AAh?$AAt?$AA?5?$AA?$DO?$AA?5?$AA0?$AA?$AA@ 000000014026f240     imgui_draw.obj
 0003:00037288       ??_C@_1CC@DEJIAPCP@?$AAr?$AAe?$AAc?$AAt?$AA?9?$AA?$DO?$AAI?$AAs?$AAP?$AAa?$AAc?$AAk?$AAe?$AAd?$AA?$CI?$AA?$CJ?$AA?$AA@ 000000014026f288     imgui_draw.obj
 0003:000372b0       ??_C@_1DC@JHOLDEIK@?$AAP?$AAa?$AAc?$AAk?$AAI?$AAd?$AAM?$AAo?$AAu?$AAs?$AAe?$AAC?$AAu?$AAr?$AAs?$AAo?$AAr?$AAs?$AA?5?$AA?$CB?$AA?$DN?$AA?5?$AA?9?$AA1?$AA?$AA@ 000000014026f2b0     imgui_draw.obj
 0003:000372f0       ??_C@_1DG@BBHAKCJP@?$AAa?$AAt?$AAl?$AAa?$AAs?$AA?9?$AA?$DO?$AAC?$AAo?$AAn?$AAf?$AAi?$AAg?$AAD?$AAa?$AAt?$AAa?$AA?4?$AAS?$AAi?$AAz?$AAe?$AA?5?$AA?$DO?$AA?5?$AA0?$AA?$AA@ 000000014026f2f0     imgui_draw.obj
 0003:00037330       ??_C@_1KE@NPGLPIC@?$AAc?$AAf?$AAg?$AA?4?$AAD?$AAs?$AAt?$AAF?$AAo?$AAn?$AAt?$AA?5?$AA?$CG?$AA?$CG?$AA?5?$AA?$CI?$AA?$CB?$AAc?$AAf?$AAg?$AA?4?$AAD?$AAs?$AAt?$AAF?$AAo?$AAn?$AAt?$AA?9?$AA?$DO?$AAI?$AAs@ 000000014026f330     imgui_draw.obj
 0003:000373f8       ??_C@_1CO@NKKOCLPN@?$AAs?$AAr?$AAc?$AA_?$AAt?$AAm?$AAp?$AA?4?$AAD?$AAs?$AAt?$AAI?$AAn?$AAd?$AAe?$AAx?$AA?5?$AA?$CB?$AA?$DN?$AA?5?$AA?9?$AA1?$AA?$AA@ 000000014026f3f8     imgui_draw.obj
 0003:00037430       ??_C@_0DC@IFELKFNN@FontData?5is?5incorrect?0?5or?5FontNo@ 000000014026f430     imgui_draw.obj
 0003:00037470       ??_C@_1JA@MENENCJI@?$AAf?$AAo?$AAn?$AAt?$AA_?$AAo?$AAf?$AAf?$AAs?$AAe?$AAt?$AA?5?$AA?$DO?$AA?$DN?$AA?5?$AA0?$AA?5?$AA?$CG?$AA?$CG?$AA?5?$AA?$CC?$AAF?$AAo?$AAn?$AAt?$AAD?$AAa?$AAt?$AAa?$AA?5?$AAi?$AAs@ 000000014026f470     imgui_draw.obj
 0003:00037520       ??_C@_1FO@GJGKHCEN@?$AAs?$AAr?$AAc?$AA_?$AAt?$AAm?$AAp?$AA?4?$AAG?$AAl?$AAy?$AAp?$AAh?$AAs?$AAL?$AAi?$AAs?$AAt?$AA?4?$AAS?$AAi?$AAz?$AAe?$AA?5?$AA?$DN?$AA?$DN?$AA?5?$AAs?$AAr?$AAc?$AA_?$AAt@ 000000014026f520     imgui_draw.obj
 0003:00037590       ??_C@_1DC@ENBGOGEF@?$AAg?$AAl?$AAy?$AAp?$AAh?$AA_?$AAi?$AAn?$AAd?$AAe?$AAx?$AA_?$AAi?$AAn?$AA_?$AAf?$AAo?$AAn?$AAt?$AA?5?$AA?$CB?$AA?$DN?$AA?5?$AA0?$AA?$AA@ 000000014026f590     imgui_draw.obj
 0003:000375d0       ??_C@_1CE@FMMHMDCM@?$AAp?$AAa?$AAc?$AAk?$AA_?$AAc?$AAo?$AAn?$AAt?$AAe?$AAx?$AAt?$AA?5?$AA?$CB?$AA?$DN?$AA?5?$AA0?$AA?$AA@ 000000014026f5d0     imgui_draw.obj
 0003:00037600       ??_C@_1CK@POMOOFJC@?$AAu?$AAs?$AAe?$AAr?$AA_?$AAr?$AAe?$AAc?$AAt?$AAs?$AA?4?$AAS?$AAi?$AAz?$AAe?$AA?5?$AA?$DO?$AA?$DN?$AA?5?$AA1?$AA?$AA@ 000000014026f600     imgui_draw.obj
 0003:00037640       ??_C@_1KE@CBAIECN@?$AAp?$AAa?$AAc?$AAk?$AA_?$AAr?$AAe?$AAc?$AAt?$AAs?$AA?$FL?$AAi?$AA?$FN?$AA?4?$AAw?$AA?5?$AA?$DN?$AA?$DN?$AA?5?$AAu?$AAs?$AAe?$AAr?$AA_?$AAr?$AAe?$AAc?$AAt?$AAs?$AA?$FL?$AAi?$AA?$FN@ 000000014026f640     imgui_draw.obj
 0003:00037710       ??_C@_1EG@KOLNNAOF@?$AAx?$AA?5?$AA?$DO?$AA?$DN?$AA?5?$AA0?$AA?5?$AA?$CG?$AA?$CG?$AA?5?$AAx?$AA?5?$AA?$CL?$AA?5?$AAw?$AA?5?$AA?$DM?$AA?$DN?$AA?5?$AAa?$AAt?$AAl?$AAa?$AAs?$AA?9?$AA?$DO?$AAT?$AAe?$AAx?$AAW?$AAi?$AAd@ 000000014026f710     imgui_draw.obj
 0003:00037770       ??_C@_1EI@CHFOHLGN@?$AAy?$AA?5?$AA?$DO?$AA?$DN?$AA?5?$AA0?$AA?5?$AA?$CG?$AA?$CG?$AA?5?$AAy?$AA?5?$AA?$CL?$AA?5?$AAh?$AA?5?$AA?$DM?$AA?$DN?$AA?5?$AAa?$AAt?$AAl?$AAa?$AAs?$AA?9?$AA?$DO?$AAT?$AAe?$AAx?$AAH?$AAe?$AAi@ 000000014026f770     imgui_draw.obj
 0003:000377c8       ??_C@_1BM@DDBMCGAE@?$AAr?$AA?9?$AA?$DO?$AAI?$AAs?$AAP?$AAa?$AAc?$AAk?$AAe?$AAd?$AA?$CI?$AA?$CJ?$AA?$AA@ 000000014026f7c8     imgui_draw.obj
 0003:000377f0       ??_C@_1MA@PDHEAINP@?$AAr?$AA?9?$AA?$DO?$AAW?$AAi?$AAd?$AAt?$AAh?$AA?5?$AA?$DN?$AA?$DN?$AA?5?$AAF?$AAO?$AAN?$AAT?$AA_?$AAA?$AAT?$AAL?$AAA?$AAS?$AA_?$AAD?$AAE?$AAF?$AAA?$AAU?$AAL?$AAT?$AA_?$AAT@ 000000014026f7f0     imgui_draw.obj
 0003:000378e0       ??_C@_1EA@DBHHBIED@?$AAr?$AA?9?$AA?$DO?$AAW?$AAi?$AAd?$AAt?$AAh?$AA?5?$AA?$DN?$AA?$DN?$AA?5?$AA2?$AA?5?$AA?$CG?$AA?$CG?$AA?5?$AAr?$AA?9?$AA?$DO?$AAH?$AAe?$AAi?$AAg?$AAh?$AAt?$AA?5?$AA?$DN?$AA?$DN?$AA?5?$AA2?$AA?$AA@ 000000014026f8e0     imgui_draw.obj
 0003:00037930       ??_C@_1HO@DLMJCKJA@?$AAp?$AAa?$AAd?$AA_?$AAl?$AAe?$AAf?$AAt?$AA?5?$AA?$CL?$AA?5?$AAl?$AAi?$AAn?$AAe?$AA_?$AAw?$AAi?$AAd?$AAt?$AAh?$AA?5?$AA?$CL?$AA?5?$AAp?$AAa?$AAd?$AA_?$AAr?$AAi?$AAg?$AAh@ 000000014026f930     imgui_draw.obj
 0003:000379d0       ??_C@_1HG@JLCPLJIF@?$AAa?$AAt?$AAl?$AAa?$AAs?$AA?9?$AA?$DO?$AAT?$AAe?$AAx?$AAP?$AAi?$AAx?$AAe?$AAl?$AAs?$AAA?$AAl?$AAp?$AAh?$AAa?$AA8?$AA?5?$AA?$CB?$AA?$DN?$AA?5?$AA0?$AA?5?$AA?$HM?$AA?$HM?$AA?5?$AAa@ 000000014026f9d0     imgui_draw.obj
 0003:00037a60       ??_C@_1EC@BJJINGAO@?$AAr?$AA?9?$AA?$DO?$AAF?$AAo?$AAn?$AAt?$AA?9?$AA?$DO?$AAC?$AAo?$AAn?$AAt?$AAa?$AAi?$AAn?$AAe?$AAr?$AAA?$AAt?$AAl?$AAa?$AAs?$AA?5?$AA?$DN?$AA?$DN?$AA?5?$AAa?$AAt?$AAl?$AAa?$AAs@ 000000014026fa60     imgui_draw.obj
 0003:00037ab0       ??_C@_1CK@FHBHHKB@?$AAG?$AAl?$AAy?$AAp?$AAh?$AAs?$AA?4?$AAS?$AAi?$AAz?$AAe?$AA?5?$AA?$DM?$AA?5?$AA0?$AAx?$AAF?$AAF?$AAF?$AAF?$AA?$AA@ 000000014026fab0     imgui_draw.obj
 0003:00037af0       ??_C@_1EO@HLFAHELG@?$AAI?$AAn?$AAd?$AAe?$AAx?$AAA?$AAd?$AAv?$AAa?$AAn?$AAc?$AAe?$AAX?$AA?4?$AAS?$AAi?$AAz?$AAe?$AA?5?$AA?$DN?$AA?$DN?$AA?5?$AAI?$AAn?$AAd?$AAe?$AAx?$AAL?$AAo?$AAo?$AAk?$AAu@ 000000014026faf0     imgui_draw.obj
 0003:00037b50       ??_C@_1CK@OHOOGJPG@?$AAI?$AAn?$AAd?$AAe?$AAx?$AAL?$AAo?$AAo?$AAk?$AAu?$AAp?$AA?4?$AAS?$AAi?$AAz?$AAe?$AA?5?$AA?$DO?$AA?5?$AA0?$AA?$AA@ 000000014026fb50     imgui_draw.obj
 0003:00037b88       ??_C@_1BM@KGJCABG@?$AAt?$AAe?$AAx?$AAt?$AA_?$AAe?$AAn?$AAd?$AA?5?$AA?$CB?$AA?$DN?$AA?5?$AA0?$AA?$AA@ 000000014026fb88     imgui_draw.obj
 0003:00037bb0       ??_C@_1FC@IADGHEAH@?$AAs?$AAt?$AAb?$AA_?$AA_?$AAd?$AAo?$AAu?$AAt?$AA?5?$AA?$CL?$AA?5?$AAl?$AAe?$AAn?$AAg?$AAt?$AAh?$AA?5?$AA?$DM?$AA?$DN?$AA?5?$AAs?$AAt?$AAb?$AA_?$AA_?$AAb?$AAa?$AAr?$AAr?$AAi@ 000000014026fbb0     imgui_draw.obj
 0003:00037c18       ??_C@_1DG@GCANDLHA@?$AAs?$AAt?$AAb?$AA_?$AA_?$AAd?$AAo?$AAu?$AAt?$AA?5?$AA?$DN?$AA?$DN?$AA?5?$AAo?$AAu?$AAt?$AAp?$AAu?$AAt?$AA?5?$AA?$CL?$AA?5?$AAo?$AAl?$AAe?$AAn?$AA?$AA@ 000000014026fc18     imgui_draw.obj
 0003:00037c58       ??_C@_1DG@EGIPGKEG@?$AAs?$AAt?$AAb?$AA_?$AA_?$AAd?$AAo?$AAu?$AAt?$AA?5?$AA?$DM?$AA?$DN?$AA?5?$AAo?$AAu?$AAt?$AAp?$AAu?$AAt?$AA?5?$AA?$CL?$AA?5?$AAo?$AAl?$AAe?$AAn?$AA?$AA@ 000000014026fc58     imgui_draw.obj
 0003:00037c98       ??_C@_1CC@BPLGCGDC@?$AAn?$AAe?$AAw?$AA_?$AAs?$AAi?$AAz?$AAe?$AA?5?$AA?$DM?$AA?$DN?$AA?5?$AAS?$AAi?$AAz?$AAe?$AA?$AA@ 000000014026fc98     imgui_draw.obj
 0003:00037cc0       __real@358637bd            000000014026fcc0     imgui_draw.obj
 0003:00037cc4       __real@3d75c28f            000000014026fcc4     imgui_draw.obj
 0003:00037cc8       __real@3d8f5c29            000000014026fcc8     imgui_draw.obj
 0003:00037ccc       __real@3da3d70a            000000014026fccc     imgui_draw.obj
 0003:00037cd0       __real@3db851ec            000000014026fcd0     imgui_draw.obj
 0003:00037cd4       __real@3de147ae            000000014026fcd4     imgui_draw.obj
 0003:00037cd8       __real@3e0f5c29            000000014026fcd8     imgui_draw.obj
 0003:00037cdc       __real@3e23d70a            000000014026fcdc     imgui_draw.obj
 0003:00037ce0       __real@3e2e147b            000000014026fce0     imgui_draw.obj
 0003:00037ce4       __real@3e428f5c            000000014026fce4     imgui_draw.obj
 0003:00037ce8       __real@3e75c28f            000000014026fce8     imgui_draw.obj
 0003:00037cec       __real@3e851eb8            000000014026fcec     imgui_draw.obj
 0003:00037cf0       __real@3e8a3d71            000000014026fcf0     imgui_draw.obj
 0003:00037cf4       __real@3e8f5c29            000000014026fcf4     imgui_draw.obj
 0003:00037cf8       __real@3e947ae1            000000014026fcf8     imgui_draw.obj
 0003:00037cfc       __real@3e9eb852            000000014026fcfc     imgui_draw.obj
 0003:00037d00       __real@3ea3d70a            000000014026fd00     imgui_draw.obj
 0003:00037d04       __real@3ec28f5c            000000014026fd04     imgui_draw.obj
 0003:00037d08       __real@3ec7ae14            000000014026fd08     imgui_draw.obj
 0003:00037d0c       __real@3ed1eb85            000000014026fd0c     imgui_draw.obj
 0003:00037d10       __real@3ed70a3d            000000014026fd10     imgui_draw.obj
 0003:00037d14       __real@3edc28f6            000000014026fd14     imgui_draw.obj
 0003:00037d18       __real@3ee147ae            000000014026fd18     imgui_draw.obj
 0003:00037d1c       __real@3ee66666            000000014026fd1c     imgui_draw.obj
 0003:00037d20       __real@3eeb851f            000000014026fd20     imgui_draw.obj
 0003:00037d24       __real@3ef0a3d7            000000014026fd24     imgui_draw.obj
 0003:00037d28       __real@3ef5c28f            000000014026fd28     imgui_draw.obj
 0003:00037d2c       __real@3efae148            000000014026fd2c     imgui_draw.obj
 0003:00037d30       __real@3f028f5c            000000014026fd30     imgui_draw.obj
 0003:00037d34       __real@3f051eb8            000000014026fd34     imgui_draw.obj
 0003:00037d38       __real@3f07ae14            000000014026fd38     imgui_draw.obj
 0003:00037d3c       __real@3f0a3d71            000000014026fd3c     imgui_draw.obj
 0003:00037d40       __real@3f0ccccd            000000014026fd40     imgui_draw.obj
 0003:00037d44       __real@3f11eb85            000000014026fd44     imgui_draw.obj
 0003:00037d48       __real@3f170a3d            000000014026fd48     imgui_draw.obj
 0003:00037d4c       __real@3f1c28f6            000000014026fd4c     imgui_draw.obj
 0003:00037d50       __real@3f1eb852            000000014026fd50     imgui_draw.obj
 0003:00037d54       __real@3f2147ae            000000014026fd54     imgui_draw.obj
 0003:00037d58       __real@3f23d70a            000000014026fd58     imgui_draw.obj
 0003:00037d5c       __real@3f2e147b            000000014026fd5c     imgui_draw.obj
 0003:00037d60       __real@3f30a3d7            000000014026fd60     imgui_draw.obj
 0003:00037d64       __real@3f35c28f            000000014026fd64     imgui_draw.obj
 0003:00037d68       __real@3f3d70a4            000000014026fd68     imgui_draw.obj
 0003:00037d6c       __real@3f47ae14            000000014026fd6c     imgui_draw.obj
 0003:00037d70       __real@3f4a3d71            000000014026fd70     imgui_draw.obj
 0003:00037d74       __real@3f51eb85            000000014026fd74     imgui_draw.obj
 0003:00037d78       __real@3f547ae1            000000014026fd78     imgui_draw.obj
 0003:00037d7c       __real@3f59999a            000000014026fd7c     imgui_draw.obj
 0003:00037d80       __real@3f5c28f6            000000014026fd80     imgui_draw.obj
 0003:00037d84       __real@3f5db22d            000000014026fd84     imgui_draw.obj
 0003:00037d88       __real@3f5eb852            000000014026fd88     imgui_draw.obj
 0003:00037d8c       __real@3f6147ae            000000014026fd8c     imgui_draw.obj
 0003:00037d90       __real@3f6b851f            000000014026fd90     imgui_draw.obj
 0003:00037d94       __real@3f70a3d7            000000014026fd94     imgui_draw.obj
 0003:00037d98       __real@3f733333            000000014026fd98     imgui_draw.obj
 0003:00037d9c       __real@3f75c28f            000000014026fd9c     imgui_draw.obj
 0003:00037da0       __real@3f7ae148            000000014026fda0     imgui_draw.obj
 0003:00037da4       __real@3f7d70a4            000000014026fda4     imgui_draw.obj
 0003:00037da8       __real@3f7fffef            000000014026fda8     imgui_draw.obj
 0003:00037dac       __real@3f8147ae            000000014026fdac     imgui_draw.obj
 0003:00037db0       __real@40c90fdb            000000014026fdb0     imgui_draw.obj
 0003:00037db4       __real@41300000            000000014026fdb4     imgui_draw.obj
 0003:00037db8       __real@41500000            000000014026fdb8     imgui_draw.obj
 0003:00037dbc       __real@41880000            000000014026fdbc     imgui_draw.obj
 0003:00037dc0       __real@41b00000            000000014026fdc0     imgui_draw.obj
 0003:00037dc4       __real@41b80000            000000014026fdc4     imgui_draw.obj
 0003:00037dc8       __real@42400000            000000014026fdc8     imgui_draw.obj
 0003:00037dcc       __real@425c0000            000000014026fdcc     imgui_draw.obj
 0003:00037dd0       __real@42920000            000000014026fdd0     imgui_draw.obj
 0003:00037dd4       __real@42b60000            000000014026fdd4     imgui_draw.obj
 0003:00037dd8       __real@42da0000            000000014026fdd8     imgui_draw.obj
 0003:00037ddc       __real@42f60000            000000014026fddc     imgui_draw.obj
 0003:00037de0       __real@44333333            000000014026fde0     imgui_draw.obj
 0003:00037de4       __real@44b33333            000000014026fde4     imgui_draw.obj
 0003:00037de8       __real@45333333            000000014026fde8     imgui_draw.obj
 0003:00037dec       __real@46800000            000000014026fdec     imgui_draw.obj
 0003:00037df0       __real@47800000            000000014026fdf0     imgui_draw.obj
 0003:00037df4       __real@bf400000            000000014026fdf4     imgui_draw.obj
 0003:00037df8       __real@bf5db22d            000000014026fdf8     imgui_draw.obj
 0003:00037e00       ??_C@_0CNO@BDFPHIBE@cbuffer?5vertexBuffer?5?3?5register?$CI@ 000000014026fe00     imgui_impl_dx11.obj
 0003:00038170       ??_C@_0BJC@PEIKANGF@struct?5PS_INPUT?5?5?5?5?5?5?5?5?5?5?5?5?$HL?5?5?5?5@ 0000000140270170     imgui_impl_dx11.obj
 0003:00039030       ??_C@_1GG@NFAEACDM@?$AAc?$AA?3?$AA?2?$AAg?$AAi?$AAt?$AAh?$AAu?$AAb?$AA?2?$AAf?$AAr?$AAa?$AAm?$AAe?$AAw?$AAo?$AAr?$AAk?$AA?2?$AAt?$AAo?$AAo?$AAl?$AA?2?$AAi?$AAm?$AAg?$AAu?$AAi?$AA?2?$AAi@ 0000000140271030     imgui_impl_dx11.obj
 0003:000390b0       ??_C@_1CI@NOEPHNFN@?$AAp?$AAT?$AAe?$AAx?$AAt?$AAu?$AAr?$AAe?$AA?5?$AA?$CB?$AA?$DN?$AA?5?$AAn?$AAu?$AAl?$AAl?$AAp?$AAt?$AAr?$AA?$AA@ 00000001402710b0     imgui_impl_dx11.obj
 0003:000390e0       ??_C@_06BNDBNCGN@vs_4_0?$AA@ 00000001402710e0     imgui_impl_dx11.obj
 0003:000390e8       ??_C@_04GHJNJNPO@main?$AA@ 00000001402710e8     imgui_impl_dx11.obj
 0003:000390f0       ??_C@_08JPMAAECC@POSITION?$AA@ 00000001402710f0     imgui_impl_dx11.obj
 0003:00039100       ??_C@_08CMDKBPJM@TEXCOORD?$AA@ 0000000140271100     imgui_impl_dx11.obj
 0003:0003910c       ??_C@_05DPNLPLKI@COLOR?$AA@ 000000014027110c     imgui_impl_dx11.obj
 0003:00039114       ??_C@_06HOOBOHFH@ps_4_0?$AA@ 0000000140271114     imgui_impl_dx11.obj
 0003:00039120       _GUID_54ec77fa_1377_44e6_8c32_88fd5f44c84c 0000000140271120     imgui_impl_dx11.obj
 0003:00039138       _GUID_2411e7e1_12ac_4ccf_bd14_9798e8534dc0 0000000140271138     imgui_impl_dx11.obj
 0003:00039150       _GUID_7b7166ec_21c7_44ae_b21a_c9ae321ae369 0000000140271150     imgui_impl_dx11.obj
 0003:00039168       ??_C@_0CI@KPONPGNP@Already?5initialized?5a?5renderer?5b@ 0000000140271168     imgui_impl_dx11.obj
 0003:000391a0       ??_C@_1KG@KAGFNFPJ@?$AAi?$AAo?$AA?4?$AAB?$AAa?$AAc?$AAk?$AAe?$AAn?$AAd?$AAR?$AAe?$AAn?$AAd?$AAe?$AAr?$AAe?$AAr?$AAU?$AAs?$AAe?$AAr?$AAD?$AAa?$AAt?$AAa?$AA?5?$AA?$DN?$AA?$DN?$AA?5?$AAn?$AAu@ 00000001402711a0     imgui_impl_dx11.obj
 0003:00039268       ??_C@_0BA@OFLFAAJI@imgui_impl_dx11?$AA@ 0000000140271268     imgui_impl_dx11.obj
 0003:00039280       ??_C@_0DG@PGEIMAGB@No?5renderer?5backend?5to?5shutdown?0@ 0000000140271280     imgui_impl_dx11.obj
 0003:000392c0       ??_C@_1JC@MCIBIMON@?$AAb?$AAd?$AA?5?$AA?$CB?$AA?$DN?$AA?5?$AAn?$AAu?$AAl?$AAl?$AAp?$AAt?$AAr?$AA?5?$AA?$CG?$AA?$CG?$AA?5?$AA?$CC?$AAN?$AAo?$AA?5?$AAr?$AAe?$AAn?$AAd?$AAe?$AAr?$AAe?$AAr?$AA?5?$AAb?$AAa@ 00000001402712c0     imgui_impl_dx11.obj
 0003:00039370       ??_C@_0CE@BBLPMFDA@Did?5you?5call?5ImGui_ImplDX11_Init@ 0000000140271370     imgui_impl_dx11.obj
 0003:000393a0       ??_C@_1GO@JAOHHKNM@?$AAb?$AAd?$AA?5?$AA?$CB?$AA?$DN?$AA?5?$AAn?$AAu?$AAl?$AAl?$AAp?$AAt?$AAr?$AA?5?$AA?$CG?$AA?$CG?$AA?5?$AA?$CC?$AAD?$AAi?$AAd?$AA?5?$AAy?$AAo?$AAu?$AA?5?$AAc?$AAa?$AAl?$AAl?$AA?5?$AAI@ 00000001402713a0     imgui_impl_dx11.obj
 0003:00039bf8       ??_C@_0CI@MLMDDGPF@Already?5initialized?5a?5platform?5b@ 0000000140271bf8     imgui_impl_win32.obj
 0003:00039c30       ??_C@_1GI@EPODBAAL@?$AAc?$AA?3?$AA?2?$AAg?$AAi?$AAt?$AAh?$AAu?$AAb?$AA?2?$AAf?$AAr?$AAa?$AAm?$AAe?$AAw?$AAo?$AAr?$AAk?$AA?2?$AAt?$AAo?$AAo?$AAl?$AA?2?$AAi?$AAm?$AAg?$AAu?$AAi?$AA?2?$AAi@ 0000000140271c30     imgui_impl_win32.obj
 0003:00039cb0       ??_C@_1KG@NFMLHFPC@?$AAi?$AAo?$AA?4?$AAB?$AAa?$AAc?$AAk?$AAe?$AAn?$AAd?$AAP?$AAl?$AAa?$AAt?$AAf?$AAo?$AAr?$AAm?$AAU?$AAs?$AAe?$AAr?$AAD?$AAa?$AAt?$AAa?$AA?5?$AA?$DN?$AA?$DN?$AA?5?$AAn?$AAu@ 0000000140271cb0     imgui_impl_win32.obj
 0003:00039d78       ??_C@_0BB@FLGJPPJK@imgui_impl_win32?$AA@ 0000000140271d78     imgui_impl_win32.obj
 0003:00039d90       ??_C@_0O@LNFLKCMF@xinput1_4?4dll?$AA@ 0000000140271d90     imgui_impl_win32.obj
 0003:00039da0       ??_C@_0O@KAFOJCHN@xinput1_3?4dll?$AA@ 0000000140271da0     imgui_impl_win32.obj
 0003:00039db0       ??_C@_0BA@GHGALGFD@xinput9_1_0?4dll?$AA@ 0000000140271db0     imgui_impl_win32.obj
 0003:00039dc8       ??_C@_0O@GLACEBNI@xinput1_2?4dll?$AA@ 0000000140271dc8     imgui_impl_win32.obj
 0003:00039dd8       ??_C@_0O@ONJGDDHG@xinput1_1?4dll?$AA@ 0000000140271dd8     imgui_impl_win32.obj
 0003:00039de8       ??_C@_0BG@ELBNFOBA@XInputGetCapabilities?$AA@ 0000000140271de8     imgui_impl_win32.obj
 0003:00039e08       ??_C@_0P@FCCEJHCC@XInputGetState?$AA@ 0000000140271e08     imgui_impl_win32.obj
 0003:00039e20       ??_C@_0DG@FOHIIHPF@No?5platform?5backend?5to?5shutdown?0@ 0000000140271e20     imgui_impl_win32.obj
 0003:00039e60       ??_C@_1JC@EOLFHJCH@?$AAb?$AAd?$AA?5?$AA?$CB?$AA?$DN?$AA?5?$AAn?$AAu?$AAl?$AAl?$AAp?$AAt?$AAr?$AA?5?$AA?$CG?$AA?$CG?$AA?5?$AA?$CC?$AAN?$AAo?$AA?5?$AAp?$AAl?$AAa?$AAt?$AAf?$AAo?$AAr?$AAm?$AA?5?$AAb?$AAa@ 0000000140271e60     imgui_impl_win32.obj
 0003:00039f10       ??_C@_1BM@HCBBDJLO@?$AAb?$AAd?$AA?9?$AA?$DO?$AAh?$AAW?$AAn?$AAd?$AA?5?$AA?$CB?$AA?$DN?$AA?5?$AA0?$AA?$AA@ 0000000140271f10     imgui_impl_win32.obj
 0003:00039f38       ??_C@_0CF@IHMCJOCG@Did?5you?5call?5ImGui_ImplWin32_Ini@ 0000000140271f38     imgui_impl_win32.obj
 0003:00039f70       ??_C@_1HA@CCCPNAKC@?$AAb?$AAd?$AA?5?$AA?$CB?$AA?$DN?$AA?5?$AAn?$AAu?$AAl?$AAl?$AAp?$AAt?$AAr?$AA?5?$AA?$CG?$AA?$CG?$AA?5?$AA?$CC?$AAD?$AAi?$AAd?$AA?5?$AAy?$AAo?$AAu?$AA?5?$AAc?$AAa?$AAl?$AAl?$AA?5?$AAI@ 0000000140271f70     imgui_impl_win32.obj
 0003:00039ff8       ??_C@_09FLKFJBLM@ntdll?4dll?$AA@ 0000000140271ff8     imgui_impl_win32.obj
 0003:0003a008       ??_C@_0BF@LOGLPPDD@RtlVerifyVersionInfo?$AA@ 0000000140272008     imgui_impl_win32.obj
 0003:0003a028       ??_C@_0L@GMPLCCII@user32?4dll?$AA@ 0000000140272028     imgui_impl_win32.obj
 0003:0003a038       ??_C@_0BN@LDKNMGEI@SetThreadDpiAwarenessContext?$AA@ 0000000140272038     imgui_impl_win32.obj
 0003:0003a060       ??_C@_0L@DMFDIJCG@shcore?4dll?$AA@ 0000000140272060     imgui_impl_win32.obj
 0003:0003a070       ??_C@_0BH@DGFLCCMF@SetProcessDpiAwareness?$AA@ 0000000140272070     imgui_impl_win32.obj
 0003:0003a090       ??_C@_0BB@MAMHPNNC@GetDpiForMonitor?$AA@ 0000000140272090     imgui_impl_win32.obj
 0003:0003a0a8       ??_C@_1BK@NLANHJGB@?$AAx?$AAd?$AAp?$AAi?$AA?5?$AA?$DN?$AA?$DN?$AA?5?$AAy?$AAd?$AAp?$AAi?$AA?$AA@ 00000001402720a8     imgui_impl_win32.obj
 0003:0003a0c8       __real@43610000            00000001402720c8     imgui_impl_win32.obj
 0003:0003a0cc       __real@46c2ac00            00000001402720cc     imgui_impl_win32.obj
 0003:0003a0d0       __real@c6c2ae00            00000001402720d0     imgui_impl_win32.obj
 0003:0003b3c0       ??_C@_1GA@OPMIMIN@?$AAc?$AA?3?$AA?2?$AAg?$AAi?$AAt?$AAh?$AAu?$AAb?$AA?2?$AAf?$AAr?$AAa?$AAm?$AAe?$AAw?$AAo?$AAr?$AAk?$AA?2?$AAt?$AAo?$AAo?$AAl?$AA?2?$AAi?$AAm?$AAg?$AAu?$AAi?$AA?2?$AAi@ 00000001402733c0     imgui_tables.obj
 0003:0003b440       ??_C@_1FC@LLGOGPDA@?$AAc?$AAo?$AAl?$AAu?$AAm?$AAn?$AAs?$AA_?$AAc?$AAo?$AAu?$AAn?$AAt?$AA?5?$AA?$DO?$AA?5?$AA0?$AA?5?$AA?$CG?$AA?$CG?$AA?5?$AAc?$AAo?$AAl?$AAu?$AAm?$AAn?$AAs?$AA_?$AAc?$AAo?$AAu@ 0000000140273440     imgui_tables.obj
 0003:0003b4a8       ??_C@_1CI@NLGBMAGB@?$AAi?$AAn?$AAn?$AAe?$AAr?$AA_?$AAw?$AAi?$AAd?$AAt?$AAh?$AA?5?$AA?$DO?$AA?$DN?$AA?5?$AA0?$AA?4?$AA0?$AAf?$AA?$AA@ 00000001402734a8     imgui_tables.obj
 0003:0003b4e0       ??_C@_0EN@HCDJLOKE@BeginTable?$CI?$CJ?3?5Cannot?5change?5colu@ 00000001402734e0     imgui_tables.obj
 0003:0003b540       ??_C@_1OO@LHJMPKOL@?$AAt?$AAa?$AAb?$AAl?$AAe?$AA?9?$AA?$DO?$AAC?$AAo?$AAl?$AAu?$AAm?$AAn?$AAs?$AAC?$AAo?$AAu?$AAn?$AAt?$AA?5?$AA?$DN?$AA?$DN?$AA?5?$AAc?$AAo?$AAl?$AAu?$AAm?$AAn?$AAs?$AA_?$AAc@ 0000000140273540     imgui_tables.obj
 0003:0003b660       ??_C@_1BBG@HLLCHCOP@?$AAt?$AAa?$AAb?$AAl?$AAe?$AA?9?$AA?$DO?$AAI?$AAn?$AAn?$AAe?$AAr?$AAW?$AAi?$AAn?$AAd?$AAo?$AAw?$AA?9?$AA?$DO?$AAW?$AAi?$AAn?$AAd?$AAo?$AAw?$AAP?$AAa?$AAd?$AAd?$AAi?$AAn@ 0000000140273660     imgui_tables.obj
 0003:0003b7b0       ??_C@_1EO@CLPKFPLH@?$AAr?$AAe?$AAo?$AAr?$AAd?$AAe?$AAr?$AA_?$AAd?$AAi?$AAr?$AA?5?$AA?$DN?$AA?$DN?$AA?5?$AA?9?$AA1?$AA?5?$AA?$HM?$AA?$HM?$AA?5?$AAr?$AAe?$AAo?$AAr?$AAd?$AAe?$AAr?$AA_?$AAd?$AAi?$AAr@ 00000001402737b0     imgui_tables.obj
 0003:0003b810       ??_C@_1FG@FFJIEHAF@?$AAt?$AAa?$AAb?$AAl?$AAe?$AA?9?$AA?$DO?$AAF?$AAl?$AAa?$AAg?$AAs?$AA?5?$AA?$CG?$AA?5?$AAI?$AAm?$AAG?$AAu?$AAi?$AAT?$AAa?$AAb?$AAl?$AAe?$AAF?$AAl?$AAa?$AAg?$AAs?$AA_?$AAR@ 0000000140273810     imgui_tables.obj
 0003:0003b880       ??_C@_1GI@FDBBNGED@?$AAd?$AAs?$AAt?$AA_?$AAc?$AAo?$AAl?$AAu?$AAm?$AAn?$AA?9?$AA?$DO?$AAD?$AAi?$AAs?$AAp?$AAl?$AAa?$AAy?$AAO?$AAr?$AAd?$AAe?$AAr?$AA?5?$AA?$DN?$AA?$DN?$AA?5?$AAd?$AAs?$AAt?$AA_@ 0000000140273880     imgui_tables.obj
 0003:0003b900       ??_C@_1HC@EONHDNHI@?$AAI?$AAm?$AAI?$AAs?$AAP?$AAo?$AAw?$AAe?$AAr?$AAO?$AAf?$AAT?$AAw?$AAo?$AA?$CI?$AAf?$AAl?$AAa?$AAg?$AAs?$AA?5?$AA?$CG?$AA?5?$AAI?$AAm?$AAG?$AAu?$AAi?$AAT?$AAa?$AAb?$AAl@ 0000000140273900     imgui_tables.obj
 0003:0003b988       ??_C@_1DO@DEAGPPGG@?$AAt?$AAa?$AAb?$AAl?$AAe?$AA?9?$AA?$DO?$AAI?$AAs?$AAL?$AAa?$AAy?$AAo?$AAu?$AAt?$AAL?$AAo?$AAc?$AAk?$AAe?$AAd?$AA?5?$AA?$DN?$AA?$DN?$AA?5?$AAf?$AAa?$AAl?$AAs?$AAe?$AA?$AA@ 0000000140273988     imgui_tables.obj
 0003:0003b9e0       ??_C@_1GM@PGNFGMB@?$AAc?$AAo?$AAl?$AAu?$AAm?$AAn?$AA?9?$AA?$DO?$AAI?$AAn?$AAd?$AAe?$AAx?$AAW?$AAi?$AAt?$AAh?$AAi?$AAn?$AAE?$AAn?$AAa?$AAb?$AAl?$AAe?$AAd?$AAS?$AAe?$AAt?$AA?5?$AA?$DM?$AA?$DN@ 00000001402739e0     imgui_tables.obj
 0003:0003ba70       ??_C@_1JA@JKJMNFJF@?$AAt?$AAa?$AAb?$AAl?$AAe?$AA?9?$AA?$DO?$AAL?$AAe?$AAf?$AAt?$AAM?$AAo?$AAs?$AAt?$AAE?$AAn?$AAa?$AAb?$AAl?$AAe?$AAd?$AAC?$AAo?$AAl?$AAu?$AAm?$AAn?$AA?5?$AA?$DO?$AA?$DN?$AA?5@ 0000000140273a70     imgui_tables.obj
 0003:0003bb20       ??_C@_1BI@PMBHHKFI@?$AA?$CB?$AAi?$AAs?$AA_?$AAv?$AAi?$AAs?$AAi?$AAb?$AAl?$AAe?$AA?$AA@ 0000000140273b20     imgui_tables.obj
 0003:0003bb40       ??_C@_1FC@BMHMHKON@?$AAt?$AAa?$AAb?$AAl?$AAe?$AA?9?$AA?$DO?$AAF?$AAl?$AAa?$AAg?$AAs?$AA?5?$AA?$CG?$AA?5?$AAI?$AAm?$AAG?$AAu?$AAi?$AAT?$AAa?$AAb?$AAl?$AAe?$AAF?$AAl?$AAa?$AAg?$AAs?$AA_?$AAR@ 0000000140273b40     imgui_tables.obj
 0003:0003bba8       ??_C@_0DD@JFFDACDB@Only?5call?5EndTable?$CI?$CJ?5if?5BeginTab@ 0000000140273ba8     imgui_tables.obj
 0003:0003bbf0       ??_C@_1IG@CGOKCKPM@?$AAt?$AAa?$AAb?$AAl?$AAe?$AA?5?$AA?$CB?$AA?$DN?$AA?5?$AA0?$AA?5?$AA?$CG?$AA?$CG?$AA?5?$AA?$CC?$AAO?$AAn?$AAl?$AAy?$AA?5?$AAc?$AAa?$AAl?$AAl?$AA?5?$AAE?$AAn?$AAd?$AAT?$AAa?$AAb?$AAl@ 0000000140273bf0     imgui_tables.obj
 0003:0003bc90       ??_C@_1EA@FGAGBNK@?$AAi?$AAn?$AAn?$AAe?$AAr?$AA_?$AAw?$AAi?$AAn?$AAd?$AAo?$AAw?$AA?5?$AA?$DN?$AA?$DN?$AA?5?$AAg?$AA?4?$AAC?$AAu?$AAr?$AAr?$AAe?$AAn?$AAt?$AAW?$AAi?$AAn?$AAd?$AAo?$AAw?$AA?$AA@ 0000000140273c90     imgui_tables.obj
 0003:0003bce0       ??_C@_1JG@DEMMNCCK@?$AAo?$AAu?$AAt?$AAe?$AAr?$AA_?$AAw?$AAi?$AAn?$AAd?$AAo?$AAw?$AA?5?$AA?$DN?$AA?$DN?$AA?5?$AAi?$AAn?$AAn?$AAe?$AAr?$AA_?$AAw?$AAi?$AAn?$AAd?$AAo?$AAw?$AA?5?$AA?$HM?$AA?$HM?$AA?5@ 0000000140273ce0     imgui_tables.obj
 0003:0003bda0       ??_C@_1GA@MJADNMBJ@?$AAt?$AAa?$AAb?$AAl?$AAe?$AA?9?$AA?$DO?$AAR?$AAo?$AAw?$AAP?$AAo?$AAs?$AAY?$AA2?$AA?5?$AA?$DN?$AA?$DN?$AA?5?$AAi?$AAn?$AAn?$AAe?$AAr?$AA_?$AAw?$AAi?$AAn?$AAd?$AAo?$AAw?$AA?9@ 0000000140273da0     imgui_tables.obj
 0003:0003be18       ??_C@_0BK@MHDEDKFO@Mismatching?5PushID?1PopID?$CB?$AA@ 0000000140273e18     imgui_tables.obj
 0003:0003be40       ??_C@_1MI@BOIHHKDM@?$AA?$CI?$AAi?$AAn?$AAn?$AAe?$AAr?$AA_?$AAw?$AAi?$AAn?$AAd?$AAo?$AAw?$AA?9?$AA?$DO?$AAI?$AAD?$AAS?$AAt?$AAa?$AAc?$AAk?$AA?4?$AAb?$AAa?$AAc?$AAk?$AA?$CI?$AA?$CJ?$AA?5?$AA?$DN?$AA?$DN@ 0000000140273e40     imgui_tables.obj
 0003:0003bf30       ??_C@_0BH@GAFFHFPC@Too?5many?5PopItemWidth?$CB?$AA@ 0000000140273f30     imgui_tables.obj
 0003:0003bf50       ??_C@_1NM@BLFPKGHB@?$AA?$CI?$AAo?$AAu?$AAt?$AAe?$AAr?$AA_?$AAw?$AAi?$AAn?$AAd?$AAo?$AAw?$AA?9?$AA?$DO?$AAD?$AAC?$AA?4?$AAI?$AAt?$AAe?$AAm?$AAW?$AAi?$AAd?$AAt?$AAh?$AAS?$AAt?$AAa?$AAc?$AAk@ 0000000140273f50     imgui_tables.obj
 0003:0003c060       ??_C@_1FM@ICPCKIED@?$AA?$CI?$AAt?$AAa?$AAb?$AAl?$AAe?$AA?9?$AA?$DO?$AAF?$AAl?$AAa?$AAg?$AAs?$AA?5?$AA?$CG?$AA?5?$AAI?$AAm?$AAG?$AAu?$AAi?$AAT?$AAa?$AAb?$AAl?$AAe?$AAF?$AAl?$AAa?$AAg?$AAs?$AA_@ 0000000140274060     imgui_tables.obj
 0003:0003c0d0       ??_C@_1HG@JFMKDCJB@?$AAg?$AA?4?$AAC?$AAu?$AAr?$AAr?$AAe?$AAn?$AAt?$AAW?$AAi?$AAn?$AAd?$AAo?$AAw?$AA?5?$AA?$DN?$AA?$DN?$AA?5?$AAo?$AAu?$AAt?$AAe?$AAr?$AA_?$AAw?$AAi?$AAn?$AAd?$AAo?$AAw?$AA?5@ 00000001402740d0     imgui_tables.obj
 0003:0003c160       ??_C@_1DI@IPEFINGP@?$AAg?$AA?4?$AAT?$AAa?$AAb?$AAl?$AAe?$AAs?$AAT?$AAe?$AAm?$AAp?$AAD?$AAa?$AAt?$AAa?$AAS?$AAt?$AAa?$AAc?$AAk?$AAe?$AAd?$AA?5?$AA?$DO?$AA?5?$AA0?$AA?$AA@ 0000000140274160     imgui_tables.obj
 0003:0003c1a8       ??_C@_0DE@JMKEADIJ@Need?5to?5call?5TableSetupColumn?$CI?$CJ?5@ 00000001402741a8     imgui_tables.obj
 0003:0003c1f0       ??_C@_1II@MMHPDEP@?$AAt?$AAa?$AAb?$AAl?$AAe?$AA?5?$AA?$CB?$AA?$DN?$AA?5?$AA0?$AA?5?$AA?$CG?$AA?$CG?$AA?5?$AA?$CC?$AAN?$AAe?$AAe?$AAd?$AA?5?$AAt?$AAo?$AA?5?$AAc?$AAa?$AAl?$AAl?$AA?5?$AAT?$AAa?$AAb?$AAl@ 00000001402741f0     imgui_tables.obj
 0003:0003c298       ??_C@_0DH@KOGIGLHC@Need?5to?5call?5call?5TableSetupColu@ 0000000140274298     imgui_tables.obj
 0003:0003c2e0       ??_C@_1LG@IFCOIHC@?$AAt?$AAa?$AAb?$AAl?$AAe?$AA?9?$AA?$DO?$AAI?$AAs?$AAL?$AAa?$AAy?$AAo?$AAu?$AAt?$AAL?$AAo?$AAc?$AAk?$AAe?$AAd?$AA?5?$AA?$DN?$AA?$DN?$AA?5?$AAf?$AAa?$AAl?$AAs?$AAe?$AA?5?$AA?$CG@ 00000001402742e0     imgui_tables.obj
 0003:0003c3c0       ??_C@_0DI@CBJAIEBI@Illegal?5to?5pass?5StatusMask?5value@ 00000001402743c0     imgui_tables.obj
 0003:0003c410       ??_C@_1NM@DDJLAMJK@?$AA?$CI?$AAf?$AAl?$AAa?$AAg?$AAs?$AA?5?$AA?$CG?$AA?5?$AAI?$AAm?$AAG?$AAu?$AAi?$AAT?$AAa?$AAb?$AAl?$AAe?$AAC?$AAo?$AAl?$AAu?$AAm?$AAn?$AAF?$AAl?$AAa?$AAg?$AAs?$AA_?$AAS@ 0000000140274410     imgui_tables.obj
 0003:0003c518       ??_C@_0CK@FPBLGODL@Called?5TableSetupColumn?$CI?$CJ?5too?5ma@ 0000000140274518     imgui_tables.obj
 0003:0003c550       ??_C@_1LO@INHFIFIG@?$AA?$CI?$AAt?$AAa?$AAb?$AAl?$AAe?$AA?9?$AA?$DO?$AAD?$AAe?$AAc?$AAl?$AAC?$AAo?$AAl?$AAu?$AAm?$AAn?$AAs?$AAC?$AAo?$AAu?$AAn?$AAt?$AA?5?$AA?$DM?$AA?5?$AAt?$AAa?$AAb?$AAl?$AAe@ 0000000140274550     imgui_tables.obj
 0003:0003c640       ??_C@_0FM@GOCDHGH@Can?5only?5specify?5width?1weight?5if@ 0000000140274640     imgui_tables.obj
 0003:0003c6b0       ??_C@_1PM@LKIEMPHI@?$AAi?$AAn?$AAi?$AAt?$AA_?$AAw?$AAi?$AAd?$AAt?$AAh?$AA_?$AAo?$AAr?$AA_?$AAw?$AAe?$AAi?$AAg?$AAh?$AAt?$AA?5?$AA?$DM?$AA?$DN?$AA?5?$AA0?$AA?4?$AA0?$AAf?$AA?5?$AA?$CG?$AA?$CG?$AA?5@ 00000001402746b0     imgui_tables.obj
 0003:0003c7e0       ??_C@_0DC@CMJJAIP@Need?5to?5call?5TableSetupColumn?$CI?$CJ?5@ 00000001402747e0     imgui_tables.obj
 0003:0003c820       ??_C@_1KM@MPIBPMGF@?$AAt?$AAa?$AAb?$AAl?$AAe?$AA?9?$AA?$DO?$AAI?$AAs?$AAL?$AAa?$AAy?$AAo?$AAu?$AAt?$AAL?$AAo?$AAc?$AAk?$AAe?$AAd?$AA?5?$AA?$DN?$AA?$DN?$AA?5?$AAf?$AAa?$AAl?$AAs?$AAe?$AA?5?$AA?$CG@ 0000000140274820     imgui_tables.obj
 0003:0003c8f0       ??_C@_1DM@GIPBLHPN@?$AAc?$AAo?$AAl?$AAu?$AAm?$AAn?$AAs?$AA?5?$AA?$DO?$AA?$DN?$AA?5?$AA0?$AA?5?$AA?$CG?$AA?$CG?$AA?5?$AAc?$AAo?$AAl?$AAu?$AAm?$AAn?$AAs?$AA?5?$AA?$DM?$AA?5?$AA5?$AA1?$AA2?$AA?$AA@ 00000001402748f0     imgui_tables.obj
 0003:0003c938       ??_C@_1DA@CGNBCADH@?$AAr?$AAo?$AAw?$AAs?$AA?5?$AA?$DO?$AA?$DN?$AA?5?$AA0?$AA?5?$AA?$CG?$AA?$CG?$AA?5?$AAr?$AAo?$AAw?$AAs?$AA?5?$AA?$DM?$AA?5?$AA1?$AA2?$AA8?$AA?$AA@ 0000000140274938     imgui_tables.obj
 0003:0003c978       ??_C@_1BG@IPNBPJPE@?$AAt?$AAa?$AAb?$AAl?$AAe?$AA?5?$AA?$CB?$AA?$DN?$AA?5?$AA0?$AA?$AA@ 0000000140274978     imgui_tables.obj
 0003:0003c9a0       ??_C@_1FA@FCMNFGAM@?$AAt?$AAa?$AAb?$AAl?$AAe?$AA?9?$AA?$DO?$AAF?$AAl?$AAa?$AAg?$AAs?$AA?5?$AA?$CG?$AA?5?$AAI?$AAm?$AAG?$AAu?$AAi?$AAT?$AAa?$AAb?$AAl?$AAe?$AAF?$AAl?$AAa?$AAg?$AAs?$AA_?$AAH@ 00000001402749a0     imgui_tables.obj
 0003:0003ca00       ??_C@_1GA@OFNPMLNE@?$AAc?$AAo?$AAl?$AAu?$AAm?$AAn?$AA_?$AAn?$AA?5?$AA?$DO?$AA?$DN?$AA?5?$AA0?$AA?5?$AA?$CG?$AA?$CG?$AA?5?$AAc?$AAo?$AAl?$AAu?$AAm?$AAn?$AA_?$AAn?$AA?5?$AA?$DM?$AA?5?$AAt?$AAa?$AAb?$AAl@ 0000000140274a00     imgui_tables.obj
 0003:0003ca80       ??_C@_1EE@NMABAIJJ@?$AAt?$AAa?$AAr?$AAg?$AAe?$AAt?$AA?5?$AA?$CB?$AA?$DN?$AA?5?$AAI?$AAm?$AAG?$AAu?$AAi?$AAT?$AAa?$AAb?$AAl?$AAe?$AAB?$AAg?$AAT?$AAa?$AAr?$AAg?$AAe?$AAt?$AA_?$AAN?$AAo?$AAn@ 0000000140274a80     imgui_tables.obj
 0003:0003cad8       ??_C@_1BO@EGJMPMHM@?$AAc?$AAo?$AAl?$AAu?$AAm?$AAn?$AA_?$AAn?$AA?5?$AA?$DN?$AA?$DN?$AA?5?$AA?9?$AA1?$AA?$AA@ 0000000140274ad8     imgui_tables.obj
 0003:0003cb00       ??_C@_1CI@JLDNLAAM@?$AA?$CB?$AAt?$AAa?$AAb?$AAl?$AAe?$AA?9?$AA?$DO?$AAI?$AAs?$AAI?$AAn?$AAs?$AAi?$AAd?$AAe?$AAR?$AAo?$AAw?$AA?$AA@ 0000000140274b00     imgui_tables.obj
 0003:0003cb30       ??_C@_1DK@GFLHACMC@?$AAw?$AAi?$AAn?$AAd?$AAo?$AAw?$AA?5?$AA?$DN?$AA?$DN?$AA?5?$AAt?$AAa?$AAb?$AAl?$AAe?$AA?9?$AA?$DO?$AAI?$AAn?$AAn?$AAe?$AAr?$AAW?$AAi?$AAn?$AAd?$AAo?$AAw?$AA?$AA@ 0000000140274b30     imgui_tables.obj
 0003:0003cb78       ??_C@_1CG@HHNDIFPE@?$AAt?$AAa?$AAb?$AAl?$AAe?$AA?9?$AA?$DO?$AAI?$AAs?$AAI?$AAn?$AAs?$AAi?$AAd?$AAe?$AAR?$AAo?$AAw?$AA?$AA@ 0000000140274b78     imgui_tables.obj
 0003:0003cba8       ??_C@_01DNKMNLPK@?$HM?$AA@ 0000000140274ba8     imgui_tables.obj
 0003:0003cbb0       ??_C@_1DO@BPCFJEPF@?$AAt?$AAa?$AAb?$AAl?$AAe?$AA?9?$AA?$DO?$AAI?$AAs?$AAU?$AAn?$AAf?$AAr?$AAo?$AAz?$AAe?$AAn?$AAR?$AAo?$AAw?$AAs?$AA?5?$AA?$DN?$AA?$DN?$AA?5?$AAf?$AAa?$AAl?$AAs?$AAe?$AA?$AA@ 0000000140274bb0     imgui_tables.obj
 0003:0003cc00       ??_C@_1JC@PCOAPGIF@?$AAt?$AAa?$AAb?$AAl?$AAe?$AA?9?$AA?$DO?$AAB?$AAg?$AA2?$AAC?$AAl?$AAi?$AAp?$AAR?$AAe?$AAc?$AAt?$AAF?$AAo?$AAr?$AAD?$AAr?$AAa?$AAw?$AAC?$AAm?$AAd?$AA?4?$AAM?$AAi?$AAn@ 0000000140274c00     imgui_tables.obj
 0003:0003ccb0       ??_C@_1EK@MBNMJGKK@?$AAc?$AAo?$AAl?$AAu?$AAm?$AAn?$AA_?$AAn?$AA?5?$AA?$DO?$AA?$DN?$AA?5?$AA0?$AA?5?$AA?$CG?$AA?$CG?$AA?5?$AAt?$AAa?$AAb?$AAl?$AAe?$AA?9?$AA?$DO?$AAC?$AAo?$AAl?$AAu?$AAm?$AAn?$AAs?$AAC@ 0000000140274cb0     imgui_tables.obj
 0003:0003cd10       ??_C@_1FK@MHBOMDGH@?$AAt?$AAa?$AAb?$AAl?$AAe?$AA?5?$AA?$CB?$AA?$DN?$AA?5?$AA0?$AA?5?$AA?$CG?$AA?$CG?$AA?5?$AAt?$AAa?$AAb?$AAl?$AAe?$AA?9?$AA?$DO?$AAI?$AAs?$AAL?$AAa?$AAy?$AAo?$AAu?$AAt?$AAL?$AAo?$AAc@ 0000000140274d10     imgui_tables.obj
 0003:0003cd80       ??_C@_1DK@PGHMBBCD@?$AAt?$AAa?$AAb?$AAl?$AAe?$AA?9?$AA?$DO?$AAM?$AAi?$AAn?$AAC?$AAo?$AAl?$AAu?$AAm?$AAn?$AAW?$AAi?$AAd?$AAt?$AAh?$AA?5?$AA?$DO?$AA?5?$AA0?$AA?4?$AA0?$AAf?$AA?$AA@ 0000000140274d80     imgui_tables.obj
 0003:0003cdd0       ??_C@_1FO@DCOODALF@?$AAc?$AAo?$AAl?$AAu?$AAm?$AAn?$AA_?$AA0?$AA_?$AAw?$AAi?$AAd?$AAt?$AAh?$AA?5?$AA?$DO?$AA?5?$AA0?$AA?4?$AA0?$AAf?$AA?5?$AA?$CG?$AA?$CG?$AA?5?$AAc?$AAo?$AAl?$AAu?$AAm?$AAn?$AA_@ 0000000140274dd0     imgui_tables.obj
 0003:0003ce40       ??_C@_1JM@ELMLJHLO@?$AAt?$AAa?$AAb?$AAl?$AAe?$AA?9?$AA?$DO?$AAL?$AAe?$AAf?$AAt?$AAM?$AAo?$AAs?$AAt?$AAS?$AAt?$AAr?$AAe?$AAt?$AAc?$AAh?$AAe?$AAd?$AAC?$AAo?$AAl?$AAu?$AAm?$AAn?$AA?5?$AA?$CB@ 0000000140274e40     imgui_tables.obj
 0003:0003cf00       ??_C@_1DK@MOAONJGL@?$AAc?$AAo?$AAl?$AAu?$AAm?$AAn?$AA?9?$AA?$DO?$AAS?$AAt?$AAr?$AAe?$AAt?$AAc?$AAh?$AAW?$AAe?$AAi?$AAg?$AAh?$AAt?$AA?5?$AA?$DO?$AA?5?$AA0?$AA?4?$AA0?$AAf?$AA?$AA@ 0000000140274f00     imgui_tables.obj
 0003:0003cf50       ??_C@_1FM@OBNODAI@?$AAv?$AAi?$AAs?$AAi?$AAb?$AAl?$AAe?$AA_?$AAw?$AAe?$AAi?$AAg?$AAh?$AAt?$AA?5?$AA?$DO?$AA?5?$AA0?$AA?4?$AA0?$AAf?$AA?5?$AA?$CG?$AA?$CG?$AA?5?$AAv?$AAi?$AAs?$AAi?$AAb?$AAl?$AAe@ 0000000140274f50     imgui_tables.obj
 0003:0003cfc0       ??_C@_1GG@NCDBECJP@?$AAt?$AAa?$AAb?$AAl?$AAe?$AA?9?$AA?$DO?$AAB?$AAg?$AAC?$AAl?$AAi?$AAp?$AAR?$AAe?$AAc?$AAt?$AA?4?$AAM?$AAi?$AAn?$AA?4?$AAy?$AA?5?$AA?$DM?$AA?$DN?$AA?5?$AAt?$AAa?$AAb?$AAl?$AAe@ 0000000140274fc0     imgui_tables.obj
 0003:0003d040       ??_C@_1DA@GEHLCBHG@?$AAs?$AAp?$AAl?$AAi?$AAt?$AAt?$AAe?$AAr?$AA?9?$AA?$DO?$AA_?$AAC?$AAu?$AAr?$AAr?$AAe?$AAn?$AAt?$AA?5?$AA?$DN?$AA?$DN?$AA?5?$AA0?$AA?$AA@ 0000000140275040     imgui_tables.obj
 0003:0003d080       ??_C@_1DO@EEGFHBNA@?$AAc?$AAh?$AAa?$AAn?$AAn?$AAe?$AAl?$AA_?$AAn?$AAo?$AA?5?$AA?$DM?$AA?5?$AAm?$AAa?$AAx?$AA_?$AAd?$AAr?$AAa?$AAw?$AA_?$AAc?$AAh?$AAa?$AAn?$AAn?$AAe?$AAl?$AAs?$AA?$AA@ 0000000140275080     imgui_tables.obj
 0003:0003d0d0       ??_C@_1LA@JABKDEHA@?$AAh?$AAa?$AAs?$AA_?$AAf?$AAr?$AAe?$AAe?$AAz?$AAe?$AA_?$AAv?$AA?5?$AA?$DN?$AA?$DN?$AA?5?$AAf?$AAa?$AAl?$AAs?$AAe?$AA?5?$AA?$HM?$AA?$HM?$AA?5?$AAt?$AAa?$AAb?$AAl?$AAe?$AA?9?$AA?$DO@ 00000001402750d0     imgui_tables.obj
 0003:0003d1b0       ??_C@_1MG@IJOOMOFE@?$AAc?$AAh?$AAa?$AAn?$AAn?$AAe?$AAl?$AA?9?$AA?$DO?$AA_?$AAC?$AAm?$AAd?$AAB?$AAu?$AAf?$AAf?$AAe?$AAr?$AA?4?$AAS?$AAi?$AAz?$AAe?$AA?5?$AA?$DN?$AA?$DN?$AA?5?$AA1?$AA?5?$AA?$CG?$AA?$CG@ 00000001402751b0     imgui_tables.obj
 0003:0003d2a0       ??_C@_1KG@FHCGPPO@?$AAd?$AAs?$AAt?$AA_?$AAt?$AAm?$AAp?$AA?5?$AA?$DN?$AA?$DN?$AA?5?$AAg?$AA?4?$AAD?$AAr?$AAa?$AAw?$AAC?$AAh?$AAa?$AAn?$AAn?$AAe?$AAl?$AAs?$AAT?$AAe?$AAm?$AAp?$AAM?$AAe?$AAr@ 00000001402752a0     imgui_tables.obj
 0003:0003d370       ??_C@_1EK@EKGOAIAF@?$AAn?$AA?5?$AA?$DM?$AA?5?$AAc?$AAo?$AAl?$AAu?$AAm?$AAn?$AA?9?$AA?$DO?$AAS?$AAo?$AAr?$AAt?$AAD?$AAi?$AAr?$AAe?$AAc?$AAt?$AAi?$AAo?$AAn?$AAs?$AAA?$AAv?$AAa?$AAi?$AAl?$AAC@ 0000000140275370     imgui_tables.obj
 0003:0003d3d0       ??_C@_1EK@NEPNAPMF@?$AAc?$AAo?$AAl?$AAu?$AAm?$AAn?$AA?9?$AA?$DO?$AAS?$AAo?$AAr?$AAt?$AAD?$AAi?$AAr?$AAe?$AAc?$AAt?$AAi?$AAo?$AAn?$AAs?$AAA?$AAv?$AAa?$AAi?$AAl?$AAC?$AAo?$AAu?$AAn?$AAt@ 00000001402753d0     imgui_tables.obj
 0003:0003d430       ??_C@_1FE@KIEHIAAN@?$AAs?$AAo?$AAr?$AAt?$AA_?$AAd?$AAi?$AAr?$AAe?$AAc?$AAt?$AAi?$AAo?$AAn?$AA?5?$AA?$CB?$AA?$DN?$AA?5?$AAI?$AAm?$AAG?$AAu?$AAi?$AAS?$AAo?$AAr?$AAt?$AAD?$AAi?$AAr?$AAe?$AAc@ 0000000140275430     imgui_tables.obj
 0003:0003d4a0       ??_C@_1FA@NLOFMGNH@?$AAt?$AAa?$AAb?$AAl?$AAe?$AA?9?$AA?$DO?$AAF?$AAl?$AAa?$AAg?$AAs?$AA?5?$AA?$CG?$AA?5?$AAI?$AAm?$AAG?$AAu?$AAi?$AAT?$AAa?$AAb?$AAl?$AAe?$AAF?$AAl?$AAa?$AAg?$AAs?$AA_?$AAS@ 00000001402754a0     imgui_tables.obj
 0003:0003d500       ??_C@_1GI@FLDFCCLG@?$AAs?$AAo?$AAr?$AAt?$AA_?$AAo?$AAr?$AAd?$AAe?$AAr?$AA_?$AAc?$AAo?$AAu?$AAn?$AAt?$AA?5?$AA?$DM?$AA?5?$AA?$CI?$AAi?$AAn?$AAt?$AA?$CJ?$AAs?$AAi?$AAz?$AAe?$AAo?$AAf?$AA?$CI?$AAs@ 0000000140275500     imgui_tables.obj
 0003:0003d580       ??_C@_1EM@BCBBNGI@?$AAc?$AAo?$AAl?$AAu?$AAm?$AAn?$AA_?$AAw?$AAi?$AAt?$AAh?$AA_?$AAs?$AAm?$AAa?$AAl?$AAl?$AAe?$AAs?$AAt?$AA_?$AAs?$AAo?$AAr?$AAt?$AA_?$AAo?$AAr?$AAd?$AAe?$AAr?$AA?5@ 0000000140275580     imgui_tables.obj
 0003:0003d5e0       ??_C@_1FE@KLCJNJLO@?$AAc?$AAo?$AAl?$AAu?$AAm?$AAn?$AA?9?$AA?$DO?$AAS?$AAo?$AAr?$AAt?$AAO?$AAr?$AAd?$AAe?$AAr?$AA?5?$AA?$DM?$AA?5?$AAt?$AAa?$AAb?$AAl?$AAe?$AA?9?$AA?$DO?$AAS?$AAo?$AAr?$AAt?$AAS@ 00000001402755e0     imgui_tables.obj
 0003:0003d648       ??_C@_0DD@NCKBBGOL@Need?5to?5call?5TableHeadersRow?$CI?$CJ?5a@ 0000000140275648     imgui_tables.obj
 0003:0003d690       ??_C@_1IG@FPFBNANE@?$AAt?$AAa?$AAb?$AAl?$AAe?$AA?5?$AA?$CB?$AA?$DN?$AA?5?$AA0?$AA?5?$AA?$CG?$AA?$CG?$AA?5?$AA?$CC?$AAN?$AAe?$AAe?$AAd?$AA?5?$AAt?$AAo?$AA?5?$AAc?$AAa?$AAl?$AAl?$AA?5?$AAT?$AAa?$AAb?$AAl@ 0000000140275690     imgui_tables.obj
 0003:0003d730       ??_C@_0CP@HLEIDDEE@Need?5to?5call?5TableHeader?$CI?$CJ?5after@ 0000000140275730     imgui_tables.obj
 0003:0003d770       ??_C@_1HO@PDHKEBPE@?$AAt?$AAa?$AAb?$AAl?$AAe?$AA?5?$AA?$CB?$AA?$DN?$AA?5?$AA0?$AA?5?$AA?$CG?$AA?$CG?$AA?5?$AA?$CC?$AAN?$AAe?$AAe?$AAd?$AA?5?$AAt?$AAo?$AA?5?$AAc?$AAa?$AAl?$AAl?$AA?5?$AAT?$AAa?$AAb?$AAl@ 0000000140275770     imgui_tables.obj
 0003:0003d808       ??_C@_1DG@CDIJLMHK@?$AAt?$AAa?$AAb?$AAl?$AAe?$AA?9?$AA?$DO?$AAC?$AAu?$AAr?$AAr?$AAe?$AAn?$AAt?$AAC?$AAo?$AAl?$AAu?$AAm?$AAn?$AA?5?$AA?$CB?$AA?$DN?$AA?5?$AA?9?$AA1?$AA?$AA@ 0000000140275808     imgui_tables.obj
 0003:0003d850       ??_C@_1GC@CPFLEHCP@?$AAc?$AAo?$AAl?$AAu?$AAm?$AAn?$AA_?$AAn?$AA?5?$AA?$DO?$AA?$DN?$AA?5?$AA?9?$AA1?$AA?5?$AA?$CG?$AA?$CG?$AA?5?$AAc?$AAo?$AAl?$AAu?$AAm?$AAn?$AA_?$AAn?$AA?5?$AA?$DM?$AA?5?$AAt?$AAa?$AAb@ 0000000140275850     imgui_tables.obj
 0003:0003d8c8       ??_C@_0O@BMOANCPA@?$CD?$CDContextMenu?$AA@ 00000001402758c8     imgui_tables.obj
 0003:0003d8d8       ??_C@_09MGFHLAFE@?$DMUnknown?$DO?$AA@ 00000001402758d8     imgui_tables.obj
 0003:0003d8e8       ??_C@_1DE@KGKHJKNP@?$AAs?$AAe?$AAt?$AAt?$AAi?$AAn?$AAg?$AAs?$AA?9?$AA?$DO?$AAI?$AAD?$AA?5?$AA?$DN?$AA?$DN?$AA?5?$AAt?$AAa?$AAb?$AAl?$AAe?$AA?9?$AA?$DO?$AAI?$AAD?$AA?$AA@ 00000001402758e8     imgui_tables.obj
 0003:0003d930       ??_C@_1MK@NEOBPBEE@?$AAs?$AAe?$AAt?$AAt?$AAi?$AAn?$AAg?$AAs?$AA?9?$AA?$DO?$AAC?$AAo?$AAl?$AAu?$AAm?$AAn?$AAs?$AAC?$AAo?$AAu?$AAn?$AAt?$AA?5?$AA?$DN?$AA?$DN?$AA?5?$AAt?$AAa?$AAb?$AAl?$AAe?$AA?9@ 0000000140275930     imgui_tables.obj
 0003:0003da28       ??_C@_09BDLBIGPI@0x?$CF08X?0?$CFd?$AA@ 0000000140275a28     imgui_tables.obj
 0003:0003da38       ??_C@_0M@LAOOHBLO@RefScale?$DN?$CFf?$AA@ 0000000140275a38     imgui_tables.obj
 0003:0003da48       ??_C@_0M@JOECNJOM@Column?5?$CFd?$CFn?$AA@ 0000000140275a48     imgui_tables.obj
 0003:0003da58       ??_C@_0BA@KAIOJKEL@UserID?$DN0x?$CF08X?$CFn?$AA@ 0000000140275a58     imgui_tables.obj
 0003:0003da70       ??_C@_0L@LJLKPCDP@Width?$DN?$CFd?$CFn?$AA@ 0000000140275a70     imgui_tables.obj
 0003:0003da80       ??_C@_0M@IJODOCHC@Weight?$DN?$CFf?$CFn?$AA@ 0000000140275a80     imgui_tables.obj
 0003:0003da90       ??_C@_0N@EKALHFOF@Visible?$DN?$CFd?$CFn?$AA@ 0000000140275a90     imgui_tables.obj
 0003:0003daa0       ??_C@_0L@BHOFPJL@Order?$DN?$CFd?$CFn?$AA@ 0000000140275aa0     imgui_tables.obj
 0003:0003dab0       ??_C@_0M@KGHCDDIO@Sort?$DN?$CFd?$CFc?$CFn?$AA@ 0000000140275ab0     imgui_tables.obj
 0003:0003dac0       ??_C@_0BB@PGHPBJD@?$FL?$CFs?$FN?$FL0x?$CF08X?0?$CFd?$FN?6?$AA@ 0000000140275ac0     imgui_tables.obj
 0003:0003dad8       ??_C@_0N@NHEEPCEH@RefScale?$DN?$CFg?6?$AA@ 0000000140275ad8     imgui_tables.obj
 0003:0003dae8       ??_C@_0M@JLNIJDCE@Column?5?$CF?92d?$AA@ 0000000140275ae8     imgui_tables.obj
 0003:0003daf8       ??_C@_0N@PGBEGIHP@?5UserID?$DN?$CF08X?$AA@ 0000000140275af8     imgui_tables.obj
 0003:0003db08       ??_C@_0N@MFKBBKPH@?5Weight?$DN?$CF?44f?$AA@ 0000000140275b08     imgui_tables.obj
 0003:0003db18       ??_C@_09PBOBBCAP@?5Width?$DN?$CFd?$AA@ 0000000140275b18     imgui_tables.obj
 0003:0003db28       ??_C@_0M@CIPDPODB@?5Visible?$DN?$CFd?$AA@ 0000000140275b28     imgui_tables.obj
 0003:0003db38       ??_C@_09CFPCIBAG@?5Order?$DN?$CFd?$AA@ 0000000140275b38     imgui_tables.obj
 0003:0003db48       ??_C@_0L@EAJILIBD@?5Sort?$DN?$CFd?$CFc?$AA@ 0000000140275b48     imgui_tables.obj
 0003:0003db60       ??_C@_1EA@HDPGNILG@?$AAt?$AAa?$AAb?$AAl?$AAe?$AA?9?$AA?$DO?$AAM?$AAe?$AAm?$AAo?$AAr?$AAy?$AAC?$AAo?$AAm?$AAp?$AAa?$AAc?$AAt?$AAe?$AAd?$AA?5?$AA?$DN?$AA?$DN?$AA?5?$AAf?$AAa?$AAl?$AAs?$AAe?$AA?$AA@ 0000000140275b60     imgui_tables.obj
 0003:0003dbb0       ??_C@_08CCPMLANI@FixedFit?$AA@ 0000000140275bb0     imgui_tables.obj
 0003:0003dbc0       ??_C@_09OOODJBFG@FixedSame?$AA@ 0000000140275bc0     imgui_tables.obj
 0003:0003dbd0       ??_C@_0M@IGAOBHEB@StretchProp?$AA@ 0000000140275bd0     imgui_tables.obj
 0003:0003dbe0       ??_C@_0M@LHDDKHJK@StretchSame?$AA@ 0000000140275be0     imgui_tables.obj
 0003:0003dbf0       ??_C@_0CF@DAHKPIHJ@Table?50x?$CF08X?5?$CI?$CFd?5columns?0?5in?5?8?$CFs@ 0000000140275bf0     imgui_tables.obj
 0003:0003dc20       ??_C@_0EM@JLKLPOOK@?$CK?$CK?5?$CFd?5instances?5of?5same?5table?$CB?5S@ 0000000140275c20     imgui_tables.obj
 0003:0003dc80       ??_C@_0P@MDFKNKGM@Clear?5settings?$AA@ 0000000140275c80     imgui_tables.obj
 0003:0003dc98       ??_C@_0DL@BMMMGOOI@OuterRect?3?5Pos?3?5?$CI?$CF?41f?0?$CF?41f?$CJ?5Size@ 0000000140275c98     imgui_tables.obj
 0003:0003dce0       ??_C@_07IOPDKCEG@?5?$CIauto?$CJ?$AA@ 0000000140275ce0     imgui_tables.obj
 0003:0003dcf0       ??_C@_0EH@GODPECNO@ColumnsGivenWidth?3?5?$CF?41f?0?5Columns@ 0000000140275cf0     imgui_tables.obj
 0003:0003dd50       ??_C@_0EB@FOKPBOFF@CellPaddingX?3?5?$CF?41f?0?5CellSpacingX@ 0000000140275d50     imgui_tables.obj
 0003:0003dda0       ??_C@_0CP@NOMNLPPG@HoveredColumnBody?3?5?$CFd?0?5HoveredCo@ 0000000140275da0     imgui_tables.obj
 0003:0003ddd8       ??_C@_0DL@PBPICJCB@ResizedColumn?3?5?$CFd?0?5ReorderColumn@ 0000000140275dd8     imgui_tables.obj
 0003:0003de20       ??_C@_09BHNPHONE@NoResize?5?$AA@ 0000000140275e20     imgui_tables.obj
 0003:0003de30       ??_C@_0M@IGDNFKMD@WidthFixed?5?$AA@ 0000000140275e30     imgui_tables.obj
 0003:0003de40       ??_C@_0O@PEPBBILL@WidthStretch?5?$AA@ 0000000140275e40     imgui_tables.obj
 0003:0003de50       ??_C@_06FEBPAKFP@?5?$CIAsc?$CJ?$AA@ 0000000140275e50     imgui_tables.obj
 0003:0003de58       ??_C@_06PFKLCOBM@?5?$CIDes?$CJ?$AA@ 0000000140275e58     imgui_tables.obj
 0003:0003de60       ??_C@_09LODDIFJL@?5?$CIFrozen?$CJ?$AA@ 0000000140275e60     imgui_tables.obj
 0003:0003de70       ??_C@_0BHH@CNHMONCM@Column?5?$CFd?5order?5?$CFd?5?8?$CFs?8?3?5offset?5@ 0000000140275e70     imgui_tables.obj
 0003:0003e038       ??_C@_0BN@LNKMILO@Settings?50x?$CF08X?5?$CI?$CFd?5columns?$CJ?$AA@ 0000000140276038     imgui_tables.obj
 0003:0003e060       ??_C@_0BC@LJHOAHJA@SaveFlags?3?50x?$CF08X?$AA@ 0000000140276060     imgui_tables.obj
 0003:0003e078       ??_C@_0BK@OLKPLDMA@ColumnsCount?3?5?$CFd?5?$CImax?5?$CFd?$CJ?$AA@ 0000000140276078     imgui_tables.obj
 0003:0003e098       ??_C@_06ODJMJFLN@Weight?$AA@ 0000000140276098     imgui_tables.obj
 0003:0003e0a0       ??_C@_06PALFPBFG@Width?5?$AA@ 00000001402760a0     imgui_tables.obj
 0003:0003e0a8       ??_C@_03OFHEPBNG@Asc?$AA@  00000001402760a8     imgui_tables.obj
 0003:0003e0ac       ??_C@_03IAMDMMHH@Des?$AA@  00000001402760ac     imgui_tables.obj
 0003:0003e0b0       ??_C@_03JMFMNIFM@?9?9?9?$AA@ 00000001402760b0     imgui_tables.obj
 0003:0003e0c0       ??_C@_0EB@CNABLLAJ@Column?5?$CFd?5Order?5?$CFd?5SortOrder?5?$CFd?5@ 00000001402760c0     imgui_tables.obj
 0003:0003e110       ??_C@_1CC@HNMGCLDB@?$AAc?$AAo?$AAl?$AAu?$AAm?$AAn?$AA_?$AAi?$AAn?$AAd?$AAe?$AAx?$AA?5?$AA?$DO?$AA?5?$AA0?$AA?$AA@ 0000000140276110     imgui_tables.obj
 0003:0003e140       ??_C@_1GE@CFLLPKGA@?$AAg?$AA?4?$AAA?$AAc?$AAt?$AAi?$AAv?$AAe?$AAI?$AAd?$AA?5?$AA?$DN?$AA?$DN?$AA?5?$AAc?$AAo?$AAl?$AAu?$AAm?$AAn?$AAs?$AA?9?$AA?$DO?$AAI?$AAD?$AA?5?$AA?$CL?$AA?5?$AAI?$AAm?$AAG?$AAu@ 0000000140276140     imgui_tables.obj
 0003:0003e1c0       ??_C@_1EK@FCGFMMCK@?$AAc?$AAo?$AAl?$AAu?$AAm?$AAn?$AA_?$AAi?$AAn?$AAd?$AAe?$AAx?$AA?5?$AA?$DM?$AA?5?$AAc?$AAo?$AAl?$AAu?$AAm?$AAn?$AAs?$AA?9?$AA?$DO?$AAC?$AAo?$AAl?$AAu?$AAm?$AAn?$AAs?$AA?4@ 00000001402761c0     imgui_tables.obj
 0003:0003e218       ??_C@_1BK@FLGDBJKG@?$AAc?$AAo?$AAl?$AAu?$AAm?$AAn?$AAs?$AA?5?$AA?$CB?$AA?$DN?$AA?5?$AA0?$AA?$AA@ 0000000140276218     imgui_tables.obj
 0003:0003e238       ??_C@_07HIFEPIJN@columns?$AA@ 0000000140276238     imgui_tables.obj
 0003:0003e248       ??_C@_1CG@GDAJJGIO@?$AAc?$AAo?$AAl?$AAu?$AAm?$AAn?$AAs?$AA_?$AAc?$AAo?$AAu?$AAn?$AAt?$AA?5?$AA?$DO?$AA?$DN?$AA?5?$AA1?$AA?$AA@ 0000000140276248     imgui_tables.obj
 0003:0003e278       ??_C@_1DO@BPFJENMI@?$AAw?$AAi?$AAn?$AAd?$AAo?$AAw?$AA?9?$AA?$DO?$AAD?$AAC?$AA?4?$AAC?$AAu?$AAr?$AAr?$AAe?$AAn?$AAt?$AAC?$AAo?$AAl?$AAu?$AAm?$AAn?$AAs?$AA?5?$AA?$DN?$AA?$DN?$AA?5?$AA0?$AA?$AA@ 0000000140276278     imgui_tables.obj
 0003:0003e2c8       ??_C@_1CE@IJEAECLN@?$AAc?$AAo?$AAl?$AAu?$AAm?$AAn?$AAs?$AA?9?$AA?$DO?$AAI?$AAD?$AA?5?$AA?$DN?$AA?$DN?$AA?5?$AAi?$AAd?$AA?$AA@ 00000001402762c8     imgui_tables.obj
 0003:0003e2f8       ??_C@_1CM@HCFAHNAF@?$AAc?$AAo?$AAl?$AAu?$AAm?$AAn?$AAs?$AA?9?$AA?$DO?$AAC?$AAu?$AAr?$AAr?$AAe?$AAn?$AAt?$AA?5?$AA?$DN?$AA?$DN?$AA?5?$AA0?$AA?$AA@ 00000001402762f8     imgui_tables.obj
 0003:0003e330       ??_C@_1FE@GEHGFLGL@?$AAn?$AA?5?$AA?$DO?$AA?$DN?$AA?5?$AA0?$AA?5?$AA?$CG?$AA?$CG?$AA?5?$AAn?$AA?5?$AA?$DM?$AA?5?$AAC?$AAH?$AAU?$AAN?$AAK?$AAS?$AA?5?$AA?$CG?$AA?$CG?$AA?5?$AAC?$AAu?$AAr?$AAr?$AAI?$AAd?$AAx?$AA?5@ 0000000140276330     imgui_tables.obj
 0003:0003e398       ??_C@_1DG@BODLFGJA@?$AAn?$AA?5?$AA?$DN?$AA?$DN?$AA?5?$AAC?$AAu?$AAr?$AAr?$AAI?$AAd?$AAx?$AA?5?$AA?$CG?$AA?$CG?$AA?5?$AAn?$AA?5?$AA?$DM?$AA?5?$AAC?$AAH?$AAU?$AAN?$AAK?$AAS?$AA?$AA@ 0000000140276398     imgui_tables.obj
 0003:0003e3d8       ??_C@_1DG@OANBFKML@?$AAi?$AAt?$AA?5?$AA?$DO?$AA?$DN?$AA?5?$AAD?$AAa?$AAt?$AAa?$AA?5?$AA?$CG?$AA?$CG?$AA?5?$AAi?$AAt?$AA?5?$AA?$DM?$AA?5?$AAD?$AAa?$AAt?$AAa?$AAE?$AAn?$AAd?$AA?$AA@ 00000001402763d8     imgui_tables.obj
 0003:0003e420       ??_C@_1FC@BIEMKEOL@?$AAp?$AA?5?$AA?$DO?$AA?$DN?$AA?5?$AAB?$AAu?$AAf?$AA?4?$AAD?$AAa?$AAt?$AAa?$AA?5?$AA?$CG?$AA?$CG?$AA?5?$AAp?$AA?5?$AA?$DM?$AA?5?$AAB?$AAu?$AAf?$AA?4?$AAD?$AAa?$AAt?$AAa?$AA?5?$AA?$CL?$AA?5@ 0000000140276420     imgui_tables.obj
 0003:0003e484       __real@00800000            0000000140276484     imgui_tables.obj
 0003:0003e64c       ??_C@_02HJNLAKPP@S8?$AA@   000000014027664c     imgui_widgets.obj
 0003:0003e650       ??_C@_02HNFGHGEN@U8?$AA@   0000000140276650     imgui_widgets.obj
 0003:0003e654       ??_C@_03KLLGJOHN@S16?$AA@  0000000140276654     imgui_widgets.obj
 0003:0003e658       ??_C@_03IONNMBKB@U16?$AA@  0000000140276658     imgui_widgets.obj
 0003:0003e65c       ??_C@_03MMFOIPBH@S32?$AA@  000000014027665c     imgui_widgets.obj
 0003:0003e660       ??_C@_03OJDFNAML@U32?$AA@  0000000140276660     imgui_widgets.obj
 0003:0003e664       ??_C@_03JMMPOKHK@S64?$AA@  0000000140276664     imgui_widgets.obj
 0003:0003e668       ??_C@_03LJKELFKG@U64?$AA@  0000000140276668     imgui_widgets.obj
 0003:0003e66c       ??_C@_05OINFJHGD@?$CFI64u?$AA@ 000000014027666c     imgui_widgets.obj
 0003:0003e674       ??_C@_05KNFBNCOH@float?$AA@ 0000000140276674     imgui_widgets.obj
 0003:0003e67c       ??_C@_06BNJCAIGJ@double?$AA@ 000000014027667c     imgui_widgets.obj
 0003:0003e684       ??_C@_03DLDNIBIK@?$CFlf?$AA@ 0000000140276684     imgui_widgets.obj
 0003:0003e688       ??_C@_03CEFFAPNG@?$CD?$CDX?$AA@ 0000000140276688     imgui_widgets.obj
 0003:0003e68c       ??_C@_03DNEODOJH@?$CD?$CDY?$AA@ 000000014027668c     imgui_widgets.obj
 0003:0003e690       ??_C@_03BGGDGNFE@?$CD?$CDZ?$AA@ 0000000140276690     imgui_widgets.obj
 0003:0003e694       ??_C@_03KDMNBDBJ@?$CD?$CDW?$AA@ 0000000140276694     imgui_widgets.obj
 0003:0003e698       ??_C@_03GOOLIKIF@?$CF3d?$AA@ 0000000140276698     imgui_widgets.obj
 0003:0003e69c       ??_C@_05FELKPNOB@R?3?$CF3d?$AA@ 000000014027669c     imgui_widgets.obj
 0003:0003e6a4       ??_C@_05HKBGOMJ@G?3?$CF3d?$AA@ 00000001402766a4     imgui_widgets.obj
 0003:0003e6ac       ??_C@_05FHGMPPHK@B?3?$CF3d?$AA@ 00000001402766ac     imgui_widgets.obj
 0003:0003e6b4       ??_C@_05NBPIINNE@A?3?$CF3d?$AA@ 00000001402766b4     imgui_widgets.obj
 0003:0003e6bc       ??_C@_05PGPHNMBM@H?3?$CF3d?$AA@ 00000001402766bc     imgui_widgets.obj
 0003:0003e6c4       ??_C@_05JPOGCOEE@S?3?$CF3d?$AA@ 00000001402766c4     imgui_widgets.obj
 0003:0003e6cc       ??_C@_05MPCLLPPH@V?3?$CF3d?$AA@ 00000001402766cc     imgui_widgets.obj
 0003:0003e6d4       ??_C@_05ONBKDNLK@?$CF0?43f?$AA@ 00000001402766d4     imgui_widgets.obj
 0003:0003e6e0       ??_C@_07CCOKENNH@R?3?$CF0?43f?$AA@ 00000001402766e0     imgui_widgets.obj
 0003:0003e6f0       ??_C@_07BGLBHCJI@G?3?$CF0?43f?$AA@ 00000001402766f0     imgui_widgets.obj
 0003:0003e700       ??_C@_07FOFBHMPM@B?3?$CF0?43f?$AA@ 0000000140276700     imgui_widgets.obj
 0003:0003e710       ??_C@_07NANOHLBP@A?3?$CF0?43f?$AA@ 0000000140276710     imgui_widgets.obj
 0003:0003e720       ??_C@_07MPJBGADE@H?3?$CF0?43f?$AA@ 0000000140276720     imgui_widgets.obj
 0003:0003e730       ??_C@_07OOEAENEJ@S?3?$CF0?43f?$AA@ 0000000140276730     imgui_widgets.obj
 0003:0003e740       ??_C@_07KGKAEDCN@V?3?$CF0?43f?$AA@ 0000000140276740     imgui_widgets.obj
 0003:00047724       ??_C@_01LBDDMOBJ@?$FN?$AA@ 000000014027f724     imgui_widgets.obj
 0003:00047728       ??_C@_01OHGJGJJP@?$FL?$AA@ 000000014027f728     imgui_widgets.obj
 0003:00047730       ??_C@_1GC@MHNMKNAE@?$AAc?$AA?3?$AA?2?$AAg?$AAi?$AAt?$AAh?$AAu?$AAb?$AA?2?$AAf?$AAr?$AAa?$AAm?$AAe?$AAw?$AAo?$AAr?$AAk?$AA?2?$AAt?$AAo?$AAo?$AAl?$AA?2?$AAi?$AAm?$AAg?$AAu?$AAi?$AA?2?$AAi@ 000000014027f730     imgui_widgets.obj
 0003:000477b0       ??_C@_1FC@KJEAANOI@?$AAs?$AAi?$AAz?$AAe?$AA_?$AAa?$AAr?$AAg?$AA?4?$AAx?$AA?5?$AA?$CB?$AA?$DN?$AA?5?$AA0?$AA?4?$AA0?$AAf?$AA?5?$AA?$CG?$AA?$CG?$AA?5?$AAs?$AAi?$AAz?$AAe?$AA_?$AAa?$AAr?$AAg?$AA?4?$AAy@ 000000014027f7b0     imgui_widgets.obj
 0003:00047818       ??_C@_08ENAFOMOP@?$CDSCROLLX?$AA@ 000000014027f818     imgui_widgets.obj
 0003:00047828       ??_C@_08FEBONNKO@?$CDSCROLLY?$AA@ 000000014027f828     imgui_widgets.obj
 0003:00047838       ??_C@_1CM@GFPJIOBE@?$AAs?$AAc?$AAr?$AAo?$AAl?$AAl?$AAb?$AAa?$AAr?$AA_?$AAs?$AAi?$AAz?$AAe?$AA?5?$AA?$DO?$AA?5?$AA0?$AA?4?$AA0?$AAf?$AA?$AA@ 000000014027f838     imgui_widgets.obj
 0003:00047870       ??_C@_1FI@OFJDJLOI@?$AAI?$AAm?$AAM?$AAa?$AAx?$AA?$CI?$AAs?$AAi?$AAz?$AAe?$AA_?$AAc?$AAo?$AAn?$AAt?$AAe?$AAn?$AAt?$AAs?$AA_?$AAv?$AA?0?$AA?5?$AAs?$AAi?$AAz?$AAe?$AA_?$AAa?$AAv?$AAa?$AAi@ 000000014027f870     imgui_widgets.obj
 0003:000478dc       ??_C@_06EBHDMMP@?$CDimage?$AA@ 000000014027f8dc     imgui_widgets.obj
 0003:000478e4       ??_C@_03JDMNMOAD@?$FL?$HO?$FN?$AA@ 000000014027f8e4     imgui_widgets.obj
 0003:000478e8       ??_C@_03JHEALCLB@?$FLx?$FN?$AA@ 000000014027f8e8     imgui_widgets.obj
 0003:000478ec       ??_C@_03PFOPMNLJ@?$FL?5?$FN?$AA@ 000000014027f8ec     imgui_widgets.obj
 0003:000478f0       ??_C@_03KFJJABDB@?$CIx?$CJ?$AA@ 000000014027f8f0     imgui_widgets.obj
 0003:000478f4       ??_C@_03MHDGHODJ@?$CI?5?$CJ?$AA@ 000000014027f8f4     imgui_widgets.obj
 0003:000478f8       ??_C@_06KLKJBGEJ@?$CF?40f?$CF?$CF?$AA@ 000000014027f8f8     imgui_widgets.obj
 0003:00047900       ??_C@_1LA@FPPCKOP@?$AAI?$AAm?$AAI?$AAs?$AAP?$AAo?$AAw?$AAe?$AAr?$AAO?$AAf?$AAT?$AAw?$AAo?$AA?$CI?$AAf?$AAl?$AAa?$AAg?$AAs?$AA?5?$AA?$CG?$AA?5?$AA?$CI?$AAI?$AAm?$AAG?$AAu?$AAi?$AAS?$AAe?$AAp@ 000000014027f900     imgui_widgets.obj
 0003:000479d4       ??_C@_02LLHJFGPH@?5?$HM?$AA@ 000000014027f9d4     imgui_widgets.obj
 0003:000479d8       ??_C@_0CC@IODDEFBI@?9?9?9?9?9?9?9?9?9?9?9?9?9?9?9?9?9?9?9?9?9?9?9?9?9?9?9?9?9?9?9?9@ 000000014027f9d8     imgui_widgets.obj
 0003:00047a00       ??_C@_1EE@HJGLFFIG@?$AA?$CK?$AAs?$AAi?$AAz?$AAe?$AA1?$AA?5?$AA?$CL?$AA?5?$AAm?$AAo?$AAu?$AAs?$AAe?$AA_?$AAd?$AAe?$AAl?$AAt?$AAa?$AA?5?$AA?$DO?$AA?$DN?$AA?5?$AAm?$AAi?$AAn?$AA_?$AAs?$AAi?$AAz?$AAe@ 000000014027fa00     imgui_widgets.obj
 0003:00047a60       ??_C@_1EE@LBEKBPGJ@?$AA?$CK?$AAs?$AAi?$AAz?$AAe?$AA2?$AA?5?$AA?9?$AA?5?$AAm?$AAo?$AAu?$AAs?$AAe?$AA_?$AAd?$AAe?$AAl?$AAt?$AAa?$AA?5?$AA?$DO?$AA?$DN?$AA?5?$AAm?$AAi?$AAn?$AA_?$AAs?$AAi?$AAz?$AAe@ 000000014027fa60     imgui_widgets.obj
 0003:00047ac0       ??_C@_1BAK@ONBANIIG@?$AA?$CI?$AAf?$AAl?$AAa?$AAg?$AAs?$AA?5?$AA?$CG?$AA?5?$AA?$CI?$AAI?$AAm?$AAG?$AAu?$AAi?$AAC?$AAo?$AAm?$AAb?$AAo?$AAF?$AAl?$AAa?$AAg?$AAs?$AA_?$AAN?$AAo?$AAA?$AAr?$AAr?$AAo@ 000000014027fac0     imgui_widgets.obj
 0003:00047c00       ??_C@_0N@LNBMNBNO@?$CD?$CDComboPopup?$AA@ 000000014027fc00     imgui_widgets.obj
 0003:00047c10       ??_C@_1FI@HOFLGIJG@?$AAp?$AAr?$AAe?$AAv?$AAi?$AAe?$AAw?$AA_?$AAv?$AAa?$AAl?$AAu?$AAe?$AA?5?$AA?$DN?$AA?$DN?$AA?5?$AA0?$AA?5?$AA?$HM?$AA?$HM?$AA?5?$AAp?$AAr?$AAe?$AAv?$AAi?$AAe?$AAw?$AA_?$AAv?$AAa@ 000000014027fc10     imgui_widgets.obj
 0003:00047c7c       ??_C@_01CELHOKLL@?$HN?$AA@ 000000014027fc7c     imgui_widgets.obj
 0003:00047c80       ??_C@_01HCONENDN@?$HL?$AA@ 000000014027fc80     imgui_widgets.obj
 0003:00047c90       ??_C@_1GI@IOEAHNLK@?$AAI?$AAm?$AAI?$AAs?$AAP?$AAo?$AAw?$AAe?$AAr?$AAO?$AAf?$AAT?$AAw?$AAo?$AA?$CI?$AAf?$AAl?$AAa?$AAg?$AAs?$AA?5?$AA?$CG?$AA?5?$AAI?$AAm?$AAG?$AAu?$AAi?$AAC?$AAo?$AAm?$AAb@ 000000014027fc90     imgui_widgets.obj
 0003:00047d10       ??_C@_0N@JOGGDHMO@?$CD?$CDCombo_?$CF02d?$AA@ 000000014027fd10     imgui_widgets.obj
 0003:00047d20       ??_C@_1PK@FFKOAIGK@?$AAg?$AA?4?$AAL?$AAa?$AAs?$AAt?$AAI?$AAt?$AAe?$AAm?$AAD?$AAa?$AAt?$AAa?$AA?4?$AAR?$AAe?$AAc?$AAt?$AA?4?$AAM?$AAi?$AAn?$AA?4?$AAx?$AA?5?$AA?$DN?$AA?$DN?$AA?5?$AAp?$AAr?$AAe@ 000000014027fd20     imgui_widgets.obj
 0003:00047e50       ??_C@_0P@HFPOEILF@?$CKUnknown?5item?$CK?$AA@ 000000014027fe50     imgui_widgets.obj
 0003:00047e70       ??_C@_1GE@PMGCKKHF@?$AAd?$AAa?$AAt?$AAa?$AA_?$AAt?$AAy?$AAp?$AAe?$AA?5?$AA?$DO?$AA?$DN?$AA?5?$AA0?$AA?5?$AA?$CG?$AA?$CG?$AA?5?$AAd?$AAa?$AAt?$AAa?$AA_?$AAt?$AAy?$AAp?$AAe?$AA?5?$AA?$DM?$AA?5?$AAI?$AAm@ 000000014027fe70     imgui_widgets.obj
 0003:00047ee8       ??_C@_1CO@LEDHMGOL@?$AAo?$AAp?$AA?5?$AA?$DN?$AA?$DN?$AA?5?$AA?8?$AA?$CL?$AA?8?$AA?5?$AA?$HM?$AA?$HM?$AA?5?$AAo?$AAp?$AA?5?$AA?$DN?$AA?$DN?$AA?5?$AA?8?$AA?9?$AA?8?$AA?$AA@ 000000014027fee8     imgui_widgets.obj
 0003:00047f20       ??_C@_0JN@LHPDPGJG@Invalid?5ImGuiSliderFlags?5flags?$CB?5@ 000000014027ff20     imgui_widgets.obj
 0003:00047fe0       ??_C@_1BLO@GENGLDPL@?$AA?$CI?$AAf?$AAl?$AAa?$AAg?$AAs?$AA?5?$AA?$DN?$AA?$DN?$AA?5?$AA1?$AA?5?$AA?$HM?$AA?$HM?$AA?5?$AA?$CI?$AAf?$AAl?$AAa?$AAg?$AAs?$AA?5?$AA?$CG?$AA?5?$AAI?$AAm?$AAG?$AAu?$AAi?$AAS?$AAl?$AAi@ 000000014027ffe0     imgui_widgets.obj
 0003:000481f8       ??_C@_05DMFAOFEI@?$CD?$CDmin?$AA@ 00000001402801f8     imgui_widgets.obj
 0003:00048200       ??_C@_05CONLABCH@?$CD?$CDmax?$AA@ 0000000140280200     imgui_widgets.obj
 0003:00048210       ??_C@_0JN@OMBPOBCE@Invalid?5ImGuiSliderFlags?5flag?$CB?5?5@ 0000000140280210     imgui_widgets.obj
 0003:000482d0       ??_C@_1BLO@DBPGJKEK@?$AA?$CI?$AAf?$AAl?$AAa?$AAg?$AAs?$AA?5?$AA?$DN?$AA?$DN?$AA?5?$AA1?$AA?5?$AA?$HM?$AA?$HM?$AA?5?$AA?$CI?$AAf?$AAl?$AAa?$AAg?$AAs?$AA?5?$AA?$CG?$AA?5?$AAI?$AAm?$AAG?$AAu?$AAi?$AAS?$AAl?$AAi@ 00000001402802d0     imgui_widgets.obj
 0003:000484f0       ??_C@_1KC@MGDFLCCP@?$AA?$CK?$AA?$CI?$AAc?$AAo?$AAn?$AAs?$AAt?$AA?5?$AAI?$AAm?$AAS?$AA3?$AA2?$AA?$CK?$AA?$CJ?$AAp?$AA_?$AAm?$AAi?$AAn?$AA?5?$AA?$DO?$AA?$DN?$AA?5?$AAI?$AAM?$AA_?$AAS?$AA3?$AA2?$AA_?$AAM@ 00000001402804f0     imgui_widgets.obj
 0003:000485c0       ??_C@_1EO@DMFGPFFK@?$AA?$CK?$AA?$CI?$AAc?$AAo?$AAn?$AAs?$AAt?$AA?5?$AAI?$AAm?$AAU?$AA3?$AA2?$AA?$CK?$AA?$CJ?$AAp?$AA_?$AAm?$AAa?$AAx?$AA?5?$AA?$DM?$AA?$DN?$AA?5?$AAI?$AAM?$AA_?$AAU?$AA3?$AA2?$AA_?$AAM@ 00000001402805c0     imgui_widgets.obj
 0003:00048620       ??_C@_1KC@IBFLFJE@?$AA?$CK?$AA?$CI?$AAc?$AAo?$AAn?$AAs?$AAt?$AA?5?$AAI?$AAm?$AAS?$AA6?$AA4?$AA?$CK?$AA?$CJ?$AAp?$AA_?$AAm?$AAi?$AAn?$AA?5?$AA?$DO?$AA?$DN?$AA?5?$AAI?$AAM?$AA_?$AAS?$AA6?$AA4?$AA_?$AAM@ 0000000140280620     imgui_widgets.obj
 0003:000486f0       ??_C@_1EO@JNOADGHA@?$AA?$CK?$AA?$CI?$AAc?$AAo?$AAn?$AAs?$AAt?$AA?5?$AAI?$AAm?$AAU?$AA6?$AA4?$AA?$CK?$AA?$CJ?$AAp?$AA_?$AAm?$AAa?$AAx?$AA?5?$AA?$DM?$AA?$DN?$AA?5?$AAI?$AAM?$AA_?$AAU?$AA6?$AA4?$AA_?$AAM@ 00000001402806f0     imgui_widgets.obj
 0003:00048750       ??_C@_1MI@EKJKCIKJ@?$AA?$CK?$AA?$CI?$AAc?$AAo?$AAn?$AAs?$AAt?$AA?5?$AAf?$AAl?$AAo?$AAa?$AAt?$AA?$CK?$AA?$CJ?$AAp?$AA_?$AAm?$AAi?$AAn?$AA?5?$AA?$DO?$AA?$DN?$AA?5?$AA?9?$AA3?$AA?4?$AA4?$AA0?$AA2?$AA8?$AA2@ 0000000140280750     imgui_widgets.obj
 0003:00048840       ??_C@_1OI@EDKIIBCG@?$AA?$CK?$AA?$CI?$AAc?$AAo?$AAn?$AAs?$AAt?$AA?5?$AAd?$AAo?$AAu?$AAb?$AAl?$AAe?$AA?$CK?$AA?$CJ?$AAp?$AA_?$AAm?$AAi?$AAn?$AA?5?$AA?$DO?$AA?$DN?$AA?5?$AA?9?$AA1?$AA?4?$AA7?$AA9?$AA7?$AA6@ 0000000140280840     imgui_widgets.obj
 0003:00048960       ??_C@_1FM@MPMCMEDN@?$AA?$CI?$AAs?$AAi?$AAz?$AAe?$AA_?$AAt?$AA?$CJ?$AA?$CI?$AAf?$AAm?$AAt?$AA_?$AAe?$AAn?$AAd?$AA?5?$AA?9?$AA?5?$AAf?$AAm?$AAt?$AA_?$AAi?$AAn?$AA?5?$AA?$CL?$AA?5?$AA1?$AA?$CJ?$AA?5?$AA?$DM@ 0000000140280960     imgui_widgets.obj
 0003:000489d0       ??_C@_1CC@LLIJAMKA@?$AAg?$AA?4?$AAA?$AAc?$AAt?$AAi?$AAv?$AAe?$AAI?$AAd?$AA?5?$AA?$DN?$AA?$DN?$AA?5?$AAi?$AAd?$AA?$AA@ 00000001402809d0     imgui_widgets.obj
 0003:000489f8       ??_C@_01JOAMLHOP@?9?$AA@   00000001402809f8     imgui_widgets.obj
 0003:00048a00       ??_C@_1FC@IFNBIILP@?$AA?$CB?$AA?$CI?$AAf?$AAl?$AAa?$AAg?$AAs?$AA?5?$AA?$CG?$AA?5?$AAI?$AAm?$AAG?$AAu?$AAi?$AAI?$AAn?$AAp?$AAu?$AAt?$AAT?$AAe?$AAx?$AAt?$AAF?$AAl?$AAa?$AAg?$AAs?$AA_?$AAM?$AAu@ 0000000140280a00     imgui_widgets.obj
 0003:00048a68       ??_C@_1CA@MNHDBBDP@?$AAp?$AAo?$AAs?$AA?5?$AA?$DM?$AA?$DN?$AA?5?$AAt?$AAe?$AAx?$AAt?$AA_?$AAl?$AAe?$AAn?$AA?$AA@ 0000000140280a68     imgui_widgets.obj
 0003:00048a90       ??_C@_1DG@IEAPMEMO@?$AAt?$AAe?$AAx?$AAt?$AA_?$AAl?$AAe?$AAn?$AA?5?$AA?$DM?$AA?5?$AAo?$AAb?$AAj?$AA?9?$AA?$DO?$AAT?$AAe?$AAx?$AAt?$AAW?$AA?4?$AAS?$AAi?$AAz?$AAe?$AA?$AA@ 0000000140280a90     imgui_widgets.obj
 0003:00048ad0       ??_C@_1GA@BPBGOEIG@?$AAc?$AA?3?$AA?2?$AAg?$AAi?$AAt?$AAh?$AAu?$AAb?$AA?2?$AAf?$AAr?$AAa?$AAm?$AAe?$AAw?$AAo?$AAr?$AAk?$AA?2?$AAt?$AAo?$AAo?$AAl?$AA?2?$AAi?$AAm?$AAg?$AAu?$AAi?$AA?2?$AAi@ 0000000140280ad0     imgui_widgets.obj
 0003:00048b50       ??_C@_1HI@OHEJKGLD@?$AA?$CI?$AA?$CI?$AAc?$AAh?$AAa?$AAr?$AA?$CK?$AA?$CJ?$AA?$CI?$AAs?$AAt?$AAa?$AAt?$AAe?$AA?9?$AA?$DO?$AAu?$AAn?$AAd?$AAo?$AA_?$AAr?$AAe?$AAc?$AA?5?$AA?$CL?$AA?5?$AAs?$AAt?$AAa?$AAt?$AAe@ 0000000140280b50     imgui_widgets.obj
 0003:00048be0       ??_C@_1JE@JEJNCKKO@?$AA?$CI?$AA?$CI?$AAc?$AAh?$AAa?$AAr?$AA?$CK?$AA?$CJ?$AA?$CI?$AAs?$AAt?$AAa?$AAt?$AAe?$AA?9?$AA?$DO?$AAu?$AAn?$AAd?$AAo?$AA_?$AAr?$AAe?$AAc?$AA?5?$AA?$CL?$AA?5?$AAs?$AAt?$AAa?$AAt?$AAe@ 0000000140280be0     imgui_widgets.obj
 0003:00048ca0       ??_C@_1EA@OOMMGKHM@?$AAp?$AAo?$AAs?$AA?5?$AA?$CL?$AA?5?$AAb?$AAy?$AAt?$AAe?$AAs?$AA_?$AAc?$AAo?$AAu?$AAn?$AAt?$AA?5?$AA?$DM?$AA?$DN?$AA?5?$AAB?$AAu?$AAf?$AAT?$AAe?$AAx?$AAt?$AAL?$AAe?$AAn?$AA?$AA@ 0000000140280ca0     imgui_widgets.obj
 0003:00048cf0       ??_C@_1GI@EFFMAEBL@?$AAe?$AAd?$AAi?$AAt?$AA_?$AAs?$AAt?$AAa?$AAt?$AAe?$AA?9?$AA?$DO?$AAI?$AAD?$AA?5?$AA?$CB?$AA?$DN?$AA?5?$AA0?$AA?5?$AA?$CG?$AA?$CG?$AA?5?$AAg?$AA?4?$AAA?$AAc?$AAt?$AAi?$AAv?$AAe?$AAI@ 0000000140280cf0     imgui_widgets.obj
 0003:00048d70       ??_C@_1DM@LDGOBGNL@?$AAB?$AAu?$AAf?$AA?5?$AA?$DN?$AA?$DN?$AA?5?$AAe?$AAd?$AAi?$AAt?$AA_?$AAs?$AAt?$AAa?$AAt?$AAe?$AA?9?$AA?$DO?$AAT?$AAe?$AAx?$AAt?$AAA?$AA?4?$AAD?$AAa?$AAt?$AAa?$AA?$AA@ 0000000140280d70     imgui_widgets.obj
 0003:00048dc0       ??_C@_1LA@GNNDJIHJ@?$AAi?$AAn?$AAp?$AAu?$AAt?$AA_?$AAs?$AAo?$AAu?$AAr?$AAc?$AAe?$AA?5?$AA?$DN?$AA?$DN?$AA?5?$AAI?$AAm?$AAG?$AAu?$AAi?$AAI?$AAn?$AAp?$AAu?$AAt?$AAS?$AAo?$AAu?$AAr?$AAc?$AAe@ 0000000140280dc0     imgui_widgets.obj
 0003:00048e98       ??_C@_1DE@KCJLPEOI@?$AAb?$AAu?$AAf?$AA?5?$AA?$CB?$AA?$DN?$AA?5?$AA0?$AA?5?$AA?$CG?$AA?$CG?$AA?5?$AAb?$AAu?$AAf?$AA_?$AAs?$AAi?$AAz?$AAe?$AA?5?$AA?$DO?$AA?$DN?$AA?5?$AA0?$AA?$AA@ 0000000140280e98     imgui_widgets.obj
 0003:00048ee0       ??_C@_1LI@BDNHGOFF@?$AA?$CB?$AA?$CI?$AA?$CI?$AAf?$AAl?$AAa?$AAg?$AAs?$AA?5?$AA?$CG?$AA?5?$AAI?$AAm?$AAG?$AAu?$AAi?$AAI?$AAn?$AAp?$AAu?$AAt?$AAT?$AAe?$AAx?$AAt?$AAF?$AAl?$AAa?$AAg?$AAs?$AA_?$AAC@ 0000000140280ee0     imgui_widgets.obj
 0003:00048fc0       ??_C@_1MG@MGOPIKJM@?$AA?$CB?$AA?$CI?$AA?$CI?$AAf?$AAl?$AAa?$AAg?$AAs?$AA?5?$AA?$CG?$AA?5?$AAI?$AAm?$AAG?$AAu?$AAi?$AAI?$AAn?$AAp?$AAu?$AAt?$AAT?$AAe?$AAx?$AAt?$AAF?$AAl?$AAa?$AAg?$AAs?$AA_?$AAC@ 0000000140280fc0     imgui_widgets.obj
 0003:000490b0       ??_C@_1BM@CBGPMFEC@?$AAc?$AAa?$AAl?$AAl?$AAb?$AAa?$AAc?$AAk?$AA?5?$AA?$CB?$AA?$DN?$AA?5?$AA0?$AA?$AA@ 00000001402810b0     imgui_widgets.obj
 0003:000490d8       ??_C@_1DC@CMKEKNGP@?$AAs?$AAt?$AAa?$AAt?$AAe?$AA?5?$AA?$CG?$AA?$CG?$AA?5?$AAs?$AAt?$AAa?$AAt?$AAe?$AA?9?$AA?$DO?$AAI?$AAD?$AA?5?$AA?$DN?$AA?$DN?$AA?5?$AAi?$AAd?$AA?$AA@ 00000001402810d8     imgui_widgets.obj
 0003:00049120       ??_C@_1NI@EFFIGGBI@?$AAp?$AAa?$AAs?$AAs?$AAw?$AAo?$AAr?$AAd?$AA_?$AAf?$AAo?$AAn?$AAt?$AA?9?$AA?$DO?$AAG?$AAl?$AAy?$AAp?$AAh?$AAs?$AA?4?$AAe?$AAm?$AAp?$AAt?$AAy?$AA?$CI?$AA?$CJ?$AA?5?$AA?$CG?$AA?$CG@ 0000000140281120     imgui_widgets.obj
 0003:00049228       ??_C@_1BG@FOPGMADN@?$AAs?$AAt?$AAa?$AAt?$AAe?$AA?5?$AA?$CB?$AA?$DN?$AA?5?$AA0?$AA?$AA@ 0000000140281228     imgui_widgets.obj
 0003:00049250       ??_C@_1EE@CDCNKCND@?$AAc?$AAa?$AAl?$AAl?$AAb?$AAa?$AAc?$AAk?$AA_?$AAd?$AAa?$AAt?$AAa?$AA?4?$AAB?$AAu?$AAf?$AA?5?$AA?$DN?$AA?$DN?$AA?5?$AAc?$AAa?$AAl?$AAl?$AAb?$AAa?$AAc?$AAk?$AA_?$AAb?$AAu@ 0000000140281250     imgui_widgets.obj
 0003:000492b0       ??_C@_1FK@GDPCIOA@?$AAc?$AAa?$AAl?$AAl?$AAb?$AAa?$AAc?$AAk?$AA_?$AAd?$AAa?$AAt?$AAa?$AA?4?$AAB?$AAu?$AAf?$AAS?$AAi?$AAz?$AAe?$AA?5?$AA?$DN?$AA?$DN?$AA?5?$AAs?$AAt?$AAa?$AAt?$AAe?$AA?9?$AA?$DO@ 00000001402812b0     imgui_widgets.obj
 0003:00049320       ??_C@_1DK@HOPDKFNI@?$AAc?$AAa?$AAl?$AAl?$AAb?$AAa?$AAc?$AAk?$AA_?$AAd?$AAa?$AAt?$AAa?$AA?4?$AAF?$AAl?$AAa?$AAg?$AAs?$AA?5?$AA?$DN?$AA?$DN?$AA?5?$AAf?$AAl?$AAa?$AAg?$AAs?$AA?$AA@ 0000000140281320     imgui_widgets.obj
 0003:00049370       ??_C@_1FI@CNDILMFI@?$AA?$CI?$AAf?$AAl?$AAa?$AAg?$AAs?$AA?5?$AA?$CG?$AA?5?$AAI?$AAm?$AAG?$AAu?$AAi?$AAI?$AAn?$AAp?$AAu?$AAt?$AAT?$AAe?$AAx?$AAt?$AAF?$AAl?$AAa?$AAg?$AAs?$AA_?$AAR?$AAe?$AAa@ 0000000140281370     imgui_widgets.obj
 0003:000493e0       ??_C@_1HG@EHLBBEIB@?$AAc?$AAa?$AAl?$AAl?$AAb?$AAa?$AAc?$AAk?$AA_?$AAd?$AAa?$AAt?$AAa?$AA?4?$AAB?$AAu?$AAf?$AAT?$AAe?$AAx?$AAt?$AAL?$AAe?$AAn?$AA?5?$AA?$DN?$AA?$DN?$AA?5?$AA?$CI?$AAi?$AAn?$AAt@ 00000001402813e0     imgui_widgets.obj
 0003:00049470       ??_C@_1DG@CHDFECEK@?$AAa?$AAp?$AAp?$AAl?$AAy?$AA_?$AAn?$AAe?$AAw?$AA_?$AAt?$AAe?$AAx?$AAt?$AA_?$AAl?$AAe?$AAn?$AAg?$AAt?$AAh?$AA?5?$AA?$DO?$AA?$DN?$AA?5?$AA0?$AA?$AA@ 0000000140281470     imgui_widgets.obj
 0003:000494b0       ??_C@_1EE@MOOHJKEO@?$AAa?$AAp?$AAp?$AAl?$AAy?$AA_?$AAn?$AAe?$AAw?$AA_?$AAt?$AAe?$AAx?$AAt?$AA_?$AAl?$AAe?$AAn?$AAg?$AAt?$AAh?$AA?5?$AA?$DM?$AA?$DN?$AA?5?$AAb?$AAu?$AAf?$AA_?$AAs?$AAi?$AAz@ 00000001402814b0     imgui_widgets.obj
 0003:00049508       ??_C@_0BN@BGBNDAJ@ID?3?50x?$CF08X?0?5ActiveID?3?50x?$CF08X?$AA@ 0000000140281508     imgui_widgets.obj
 0003:00049530       ??_C@_0DI@KFHJPBJM@CurLenW?3?5?$CFd?0?5CurLenA?3?5?$CFd?0?5Cursor@ 0000000140281530     imgui_widgets.obj
 0003:00049578       ??_C@_0BL@FCPBEJDK@has_preferred_x?3?5?$CFd?5?$CI?$CF?42f?$CJ?$AA@ 0000000140281578     imgui_widgets.obj
 0003:000495a0       ??_C@_0EJ@KOMDKONB@undo_point?3?5?$CFd?0?5redo_point?3?5?$CFd?0?5@ 00000001402815a0     imgui_widgets.obj
 0003:000495f8       ??_C@_0L@NBJMPEMP@undopoints?$AA@ 00000001402815f8     imgui_widgets.obj
 0003:00049610       ??_C@_0EH@KMDCELMD@?$CFc?5?$FL?$CF02d?$FN?5where?5?$CF03d?0?5insert?5?$CF03@ 0000000140281610     imgui_widgets.obj
 0003:00049670       ??_C@_1HC@CCDHPJHG@?$AAI?$AAm?$AAI?$AAs?$AAP?$AAo?$AAw?$AAe?$AAr?$AAO?$AAf?$AAT?$AAw?$AAo?$AA?$CI?$AAf?$AAl?$AAa?$AAg?$AAs?$AA?5?$AA?$CG?$AA?5?$AAI?$AAm?$AAG?$AAu?$AAi?$AAC?$AAo?$AAl?$AAo@ 0000000140281670     imgui_widgets.obj
 0003:00049700       ??_C@_1GO@LJJBJNNL@?$AAI?$AAm?$AAI?$AAs?$AAP?$AAo?$AAw?$AAe?$AAr?$AAO?$AAf?$AAT?$AAw?$AAo?$AA?$CI?$AAf?$AAl?$AAa?$AAg?$AAs?$AA?5?$AA?$CG?$AA?5?$AAI?$AAm?$AAG?$AAu?$AAi?$AAC?$AAo?$AAl?$AAo@ 0000000140281700     imgui_widgets.obj
 0003:00049788       ??_C@_07FFNLLALM@M?30?4000?$AA@ 0000000140281788     imgui_widgets.obj
 0003:00049794       ??_C@_05BNGMMMAL@M?3000?$AA@ 0000000140281794     imgui_widgets.obj
 0003:000497a0       ??_C@_0BC@CKPCOFBK@?$CD?$CF02X?$CF02X?$CF02X?$CF02X?$AA@ 00000001402817a0     imgui_widgets.obj
 0003:000497b8       ??_C@_0O@MBPBDFLP@?$CD?$CF02X?$CF02X?$CF02X?$AA@ 00000001402817b8     imgui_widgets.obj
 0003:000497c8       ??_C@_0BB@DDMGLOLI@?$CF02X?$CF02X?$CF02X?$CF02X?$AA@ 00000001402817c8     imgui_widgets.obj
 0003:000497e0       ??_C@_0N@KODLFHPJ@?$CF02X?$CF02X?$CF02X?$AA@ 00000001402817e0     imgui_widgets.obj
 0003:000497f0       ??_C@_0O@GLNBIEEK@?$CD?$CDColorButton?$AA@ 00000001402817f0     imgui_widgets.obj
 0003:00049800       ??_C@_06MAKAMBBI@picker?$AA@ 0000000140281800     imgui_widgets.obj
 0003:00049810       ??_C@_1HA@CALDGKJO@?$AAI?$AAm?$AAI?$AAs?$AAP?$AAo?$AAw?$AAe?$AAr?$AAO?$AAf?$AAT?$AAw?$AAo?$AA?$CI?$AAf?$AAl?$AAa?$AAg?$AAs?$AA?5?$AA?$CG?$AA?5?$AAI?$AAm?$AAG?$AAu?$AAi?$AAC?$AAo?$AAl?$AAo@ 0000000140281810     imgui_widgets.obj
 0003:00049898       ??_C@_03PPLPHHG@hsv?$AA@   0000000140281898     imgui_widgets.obj
 0003:0004989c       ??_C@_02CPGMCOJE@sv?$AA@   000000014028189c     imgui_widgets.obj
 0003:000498a0       ??_C@_03GKJJMKFG@hue?$AA@  00000001402818a0     imgui_widgets.obj
 0003:000498a4       ??_C@_05IAEKHIAN@alpha?$AA@ 00000001402818a4     imgui_widgets.obj
 0003:000498b0       ??_C@_08DCPBJHAO@Original?$AA@ 00000001402818b0     imgui_widgets.obj
 0003:000498c0       ??_C@_0L@IGJKOBOK@?$CD?$CDoriginal?$AA@ 00000001402818c0     imgui_widgets.obj
 0003:000498d0       ??_C@_05JCABMAIH@?$CD?$CDrgb?$AA@ 00000001402818d0     imgui_widgets.obj
 0003:000498d8       ??_C@_05JICEKLIF@?$CD?$CDhsv?$AA@ 00000001402818d8     imgui_widgets.obj
 0003:000498e0       ??_C@_05BOAMFJMJ@?$CD?$CDhex?$AA@ 00000001402818e0     imgui_widgets.obj
 0003:000498f0       ??_C@_1HE@NNDCEIIE@?$AAI?$AAm?$AAI?$AAs?$AAP?$AAo?$AAw?$AAe?$AAr?$AAO?$AAf?$AAT?$AAw?$AAo?$AA?$CI?$AAf?$AAl?$AAa?$AAg?$AAs?$AA?5?$AA?$CG?$AA?5?$AAI?$AAm?$AAG?$AAu?$AAi?$AAC?$AAo?$AAl?$AAo@ 00000001402818f0     imgui_widgets.obj
 0003:00049980       ??_C@_09JCCDBEFL@?$CD?$CDpreview?$AA@ 0000000140281980     imgui_widgets.obj
 0003:00049990       ??_C@_0DF@FAPNKOHO@?$CD?$CF02X?$CF02X?$CF02X?6R?3?5?$CFd?0?5G?3?5?$CFd?0?5B?3?5?$CF@ 0000000140281990     imgui_widgets.obj
 0003:000499d0       ??_C@_0EC@EBPMGCGK@?$CD?$CF02X?$CF02X?$CF02X?$CF02X?6R?3?$CFd?0?5G?3?$CFd?0?5B?3@ 00000001402819d0     imgui_widgets.obj
 0003:00049a20       ??_C@_0BK@HKNBICJE@H?3?5?$CF?43f?0?5S?3?5?$CF?43f?0?5V?3?5?$CF?43f?$AA@ 0000000140281a20     imgui_widgets.obj
 0003:00049a40       ??_C@_0CD@EEDEAEPG@H?3?5?$CF?43f?0?5S?3?5?$CF?43f?0?5V?3?5?$CF?43f?0?5A?3?5?$CF?4@ 0000000140281a40     imgui_widgets.obj
 0003:00049a6c       ??_C@_03ICFFBAI@RGB?$AA@   0000000140281a6c     imgui_widgets.obj
 0003:00049a70       ??_C@_03CAADKAK@HSV?$AA@   0000000140281a70     imgui_widgets.obj
 0003:00049a74       ??_C@_03CJOBKKAE@Hex?$AA@  0000000140281a74     imgui_widgets.obj
 0003:00049a78       ??_C@_06FDBEKFBH@0?4?4255?$AA@ 0000000140281a78     imgui_widgets.obj
 0003:00049a80       ??_C@_0L@MDNPBJBM@0?400?4?41?400?$AA@ 0000000140281a80     imgui_widgets.obj
 0003:00049a90       ??_C@_09NMCCFHEI@Copy?5as?4?4?$AA@ 0000000140281a90     imgui_widgets.obj
 0003:00049aa0       ??_C@_0BN@GKCJMPCH@?$CI?$CF?43ff?0?5?$CF?43ff?0?5?$CF?43ff?0?5?$CF?43ff?$CJ?$AA@ 0000000140281aa0     imgui_widgets.obj
 0003:00049ac8       ??_C@_0O@EJHNAHBL@?$CI?$CFd?0?$CFd?0?$CFd?0?$CFd?$CJ?$AA@ 0000000140281ac8     imgui_widgets.obj
 0003:00049ad8       ??_C@_0N@KFBFGFJL@?$CD?$CDselectable?$AA@ 0000000140281ad8     imgui_widgets.obj
 0003:00049ae8       ??_C@_0BE@ENPGBMIC@?$CD?$CDpreviewing_picker?$AA@ 0000000140281ae8     imgui_widgets.obj
 0003:00049b00       ??_C@_09KEDLMDJL@Alpha?5Bar?$AA@ 0000000140281b00     imgui_widgets.obj
 0003:00049b10       ??_C@_1GM@OMMPBCGC@?$AAb?$AAu?$AAt?$AAt?$AAo?$AAn?$AA_?$AAf?$AAl?$AAa?$AAg?$AAs?$AA?5?$AA?$CG?$AA?5?$AAI?$AAm?$AAG?$AAu?$AAi?$AAB?$AAu?$AAt?$AAt?$AAo?$AAn?$AAF?$AAl?$AAa?$AAg?$AAs?$AA_@ 0000000140281b10     imgui_widgets.obj
 0003:00049ba0       ??_C@_0FJ@FLEOOEOG@Mismatched?5BeginListBox?1EndListB@ 0000000140281ba0     imgui_widgets.obj
 0003:00049c10       ??_C@_1BBK@DDPDAAPA@?$AA?$CI?$AAw?$AAi?$AAn?$AAd?$AAo?$AAw?$AA?9?$AA?$DO?$AAF?$AAl?$AAa?$AAg?$AAs?$AA?5?$AA?$CG?$AA?5?$AAI?$AAm?$AAG?$AAu?$AAi?$AAW?$AAi?$AAn?$AAd?$AAo?$AAw?$AAF?$AAl?$AAa?$AAg@ 0000000140281c10     imgui_widgets.obj
 0003:00049d70       ??_C@_1EG@HCGMCBDC@?$AAv?$AA_?$AAi?$AAd?$AAx?$AA?5?$AA?$DO?$AA?$DN?$AA?5?$AA0?$AA?5?$AA?$CG?$AA?$CG?$AA?5?$AAv?$AA_?$AAi?$AAd?$AAx?$AA?5?$AA?$DM?$AA?5?$AAv?$AAa?$AAl?$AAu?$AAe?$AAs?$AA_?$AAc?$AAo?$AAu@ 0000000140281d70     imgui_widgets.obj
 0003:00049dc8       ??_C@_0BE@OBCBLNMM@?$CFd?3?5?$CF8?44g?6?$CFd?3?5?$CF8?44g?$AA@ 0000000140281dc8     imgui_widgets.obj
 0003:00049de0       ??_C@_09OADNPGHP@?$CFd?3?5?$CF8?44g?$AA@ 0000000140281de0     imgui_widgets.obj
 0003:00049df0       ??_C@_1EK@JIGPMMPH@?$AAv?$AA1?$AA_?$AAi?$AAd?$AAx?$AA?5?$AA?$DO?$AA?$DN?$AA?5?$AA0?$AA?5?$AA?$CG?$AA?$CG?$AA?5?$AAv?$AA1?$AA_?$AAi?$AAd?$AAx?$AA?5?$AA?$DM?$AA?5?$AAv?$AAa?$AAl?$AAu?$AAe?$AAs?$AA_?$AAc@ 0000000140281df0     imgui_widgets.obj
 0003:00049e48       ??_C@_05LAPONLG@false?$AA@ 0000000140281e48     imgui_widgets.obj
 0003:00049e50       ??_C@_06DJHOIPC@?$CFs?3?5?$CFs?$AA@ 0000000140281e50     imgui_widgets.obj
 0003:00049e58       ??_C@_06GBEGMGE@?$CFs?3?5?$CFd?$AA@ 0000000140281e58     imgui_widgets.obj
 0003:00049e60       ??_C@_07EKEPIENH@?$CF?$CFs?3?5?$CFs?$AA@ 0000000140281e60     imgui_widgets.obj
 0003:00049e70       ??_C@_08KELGKKHF@?$CFs?3?5?$CF?43f?$AA@ 0000000140281e70     imgui_widgets.obj
 0003:00049e80       ??_C@_1DK@MIADNLCN@?$AA?$CB?$AAw?$AAi?$AAn?$AAd?$AAo?$AAw?$AA?9?$AA?$DO?$AAD?$AAC?$AA?4?$AAM?$AAe?$AAn?$AAu?$AAB?$AAa?$AAr?$AAA?$AAp?$AAp?$AAe?$AAn?$AAd?$AAi?$AAn?$AAg?$AA?$AA@ 0000000140281e80     imgui_widgets.obj
 0003:00049ec8       ??_C@_09FHPMMDGK@?$CD?$CDmenubar?$AA@ 0000000140281ec8     imgui_widgets.obj
 0003:00049ee0       ??_C@_1GE@MKPILOEH@?$AAw?$AAi?$AAn?$AAd?$AAo?$AAw?$AA?9?$AA?$DO?$AAD?$AAC?$AA?4?$AAN?$AAa?$AAv?$AAL?$AAa?$AAy?$AAe?$AAr?$AAs?$AAA?$AAc?$AAt?$AAi?$AAv?$AAe?$AAM?$AAa?$AAs?$AAk?$AAN?$AAe@ 0000000140281ee0     imgui_widgets.obj
 0003:00049f60       ??_C@_1FC@MMAFNJJP@?$AAw?$AAi?$AAn?$AAd?$AAo?$AAw?$AA?9?$AA?$DO?$AAF?$AAl?$AAa?$AAg?$AAs?$AA?5?$AA?$CG?$AA?5?$AAI?$AAm?$AAG?$AAu?$AAi?$AAW?$AAi?$AAn?$AAd?$AAo?$AAw?$AAF?$AAl?$AAa?$AAg?$AAs@ 0000000140281f60     imgui_widgets.obj
 0003:00049fc8       ??_C@_1DI@HJHPMKIH@?$AAw?$AAi?$AAn?$AAd?$AAo?$AAw?$AA?9?$AA?$DO?$AAD?$AAC?$AA?4?$AAM?$AAe?$AAn?$AAu?$AAB?$AAa?$AAr?$AAA?$AAp?$AAp?$AAe?$AAn?$AAd?$AAi?$AAn?$AAg?$AA?$AA@ 0000000140281fc8     imgui_widgets.obj
 0003:0004a010       ??_C@_1CK@MCAEPPML@?$AAd?$AAi?$AAr?$AA?5?$AA?$CB?$AA?$DN?$AA?5?$AAI?$AAm?$AAG?$AAu?$AAi?$AAD?$AAi?$AAr?$AA_?$AAN?$AAo?$AAn?$AAe?$AA?$AA@ 0000000140282010     imgui_widgets.obj
 0003:0004a048       ??_C@_0CG@DPIPLNLI@Mismatched?5BeginTabBar?$CI?$CJ?1EndTabB@ 0000000140282048     imgui_widgets.obj
 0003:0004a080       ??_C@_1HE@HMPOLDED@?$AA?$CI?$AAt?$AAa?$AAb?$AA_?$AAb?$AAa?$AAr?$AA?5?$AA?$CB?$AA?$DN?$AA?5?$AA0?$AA?$CJ?$AA?5?$AA?$CG?$AA?$CG?$AA?5?$AA?$CC?$AAM?$AAi?$AAs?$AAm?$AAa?$AAt?$AAc?$AAh?$AAe?$AAd?$AA?5?$AAB?$AAe@ 0000000140282080     imgui_widgets.obj
 0003:0004a110       ??_C@_1GG@ODBMJKON@?$AAt?$AAa?$AAb?$AA?9?$AA?$DO?$AAL?$AAa?$AAs?$AAt?$AAF?$AAr?$AAa?$AAm?$AAe?$AAV?$AAi?$AAs?$AAi?$AAb?$AAl?$AAe?$AA?5?$AA?$DO?$AA?$DN?$AA?5?$AAt?$AAa?$AAb?$AA_?$AAb?$AAa?$AAr@ 0000000140282110     imgui_widgets.obj
 0003:0004a190       ??_C@_1CG@JKLJINIE@?$AAd?$AAo?$AAc?$AAk?$AAe?$AAd?$AA_?$AAw?$AAi?$AAn?$AAd?$AAo?$AAw?$AA?5?$AA?$DN?$AA?$DN?$AA?5?$AA0?$AA?$AA@ 0000000140282190     imgui_widgets.obj
 0003:0004a1c0       ??_C@_1IO@NOKKPKJC@?$AAt?$AAa?$AAb?$AA?9?$AA?$DO?$AAN?$AAa?$AAm?$AAe?$AAO?$AAf?$AAf?$AAs?$AAe?$AAt?$AA?5?$AA?$CB?$AA?$DN?$AA?5?$AA?9?$AA1?$AA?5?$AA?$CG?$AA?$CG?$AA?5?$AAt?$AAa?$AAb?$AA?9?$AA?$DO?$AAN?$AAa@ 00000001402821c0     imgui_widgets.obj
 0003:0004a270       ??_C@_1BI@DOPCJBFN@?$AAo?$AAf?$AAf?$AAs?$AAe?$AAt?$AA?5?$AA?$CB?$AA?$DN?$AA?5?$AA0?$AA?$AA@ 0000000140282270     imgui_widgets.obj
 0003:0004a290       ??_C@_1EE@NGAACFPK@?$AAt?$AAa?$AAb?$AA_?$AAb?$AAa?$AAr?$AA?9?$AA?$DO?$AAR?$AAe?$AAo?$AAr?$AAd?$AAe?$AAr?$AAR?$AAe?$AAq?$AAu?$AAe?$AAs?$AAt?$AAT?$AAa?$AAb?$AAI?$AAd?$AA?5?$AA?$DN?$AA?$DN?$AA?5@ 0000000140282290     imgui_widgets.obj
 0003:0004a2e4       ??_C@_03CFMEKBHF@?$CD?$CD?$DM?$AA@ 00000001402822e4     imgui_widgets.obj
 0003:0004a2e8       ??_C@_03BHPCMDPH@?$CD?$CD?$DO?$AA@ 00000001402822e8     imgui_widgets.obj
 0003:0004a2f0       ??_C@_0DK@EHILAJFJ@Needs?5to?5be?5called?5between?5Begin@ 00000001402822f0     imgui_widgets.obj
 0003:0004a340       ??_C@_1JC@EEMJDIKN@?$AA?$CI?$AAt?$AAa?$AAb?$AA_?$AAb?$AAa?$AAr?$AA?$CJ?$AA?5?$AA?$CG?$AA?$CG?$AA?5?$AA?$CC?$AAN?$AAe?$AAe?$AAd?$AAs?$AA?5?$AAt?$AAo?$AA?5?$AAb?$AAe?$AA?5?$AAc?$AAa?$AAl?$AAl?$AAe?$AAd@ 0000000140282340     imgui_widgets.obj
 0003:0004a3f0       ??_C@_1EI@NKMOAMGI@?$AA?$CB?$AA?$CI?$AAf?$AAl?$AAa?$AAg?$AAs?$AA?5?$AA?$CG?$AA?5?$AAI?$AAm?$AAG?$AAu?$AAi?$AAT?$AAa?$AAb?$AAI?$AAt?$AAe?$AAm?$AAF?$AAl?$AAa?$AAg?$AAs?$AA_?$AAB?$AAu?$AAt?$AAt@ 00000001402823f0     imgui_widgets.obj
 0003:0004a450       ??_C@_1JM@OHPMLLD@?$AA?$CI?$AAt?$AAa?$AAb?$AA_?$AAb?$AAa?$AAr?$AA?5?$AA?$CB?$AA?$DN?$AA?5?$AA0?$AA?$CJ?$AA?5?$AA?$CG?$AA?$CG?$AA?5?$AA?$CC?$AAN?$AAe?$AAe?$AAd?$AAs?$AA?5?$AAt?$AAo?$AA?5?$AAb?$AAe?$AA?5?$AAc@ 0000000140282450     imgui_widgets.obj
 0003:0004a510       ??_C@_1DK@HGEILAOB@?$AAt?$AAa?$AAb?$AA_?$AAb?$AAa?$AAr?$AA?9?$AA?$DO?$AAL?$AAa?$AAs?$AAt?$AAT?$AAa?$AAb?$AAI?$AAt?$AAe?$AAm?$AAI?$AAd?$AAx?$AA?5?$AA?$DO?$AA?$DN?$AA?5?$AA0?$AA?$AA@ 0000000140282510     imgui_widgets.obj
 0003:0004a560       ??_C@_1FO@JEBFCDGI@?$AA?$CB?$AAp?$AA_?$AAo?$AAp?$AAe?$AAn?$AA?5?$AA?$HM?$AA?$HM?$AA?5?$AA?$CB?$AA?$CI?$AAf?$AAl?$AAa?$AAg?$AAs?$AA?5?$AA?$CG?$AA?5?$AAI?$AAm?$AAG?$AAu?$AAi?$AAT?$AAa?$AAb?$AAI?$AAt?$AAe@ 0000000140282560     imgui_widgets.obj
 0003:0004a5d0       ??_C@_1PO@BEHLBGBB@?$AA?$CI?$AAf?$AAl?$AAa?$AAg?$AAs?$AA?5?$AA?$CG?$AA?5?$AA?$CI?$AAI?$AAm?$AAG?$AAu?$AAi?$AAT?$AAa?$AAb?$AAI?$AAt?$AAe?$AAm?$AAF?$AAl?$AAa?$AAg?$AAs?$AA_?$AAL?$AAe?$AAa?$AAd@ 00000001402825d0     imgui_widgets.obj
 0003:0004a700       ??_C@_1JA@BHHCJLLE@?$AA?$CB?$AAi?$AAs?$AA_?$AAt?$AAa?$AAb?$AA_?$AAb?$AAu?$AAt?$AAt?$AAo?$AAn?$AA?5?$AA?$HM?$AA?$HM?$AA?5?$AA?$CB?$AA?$CI?$AAt?$AAa?$AAb?$AA_?$AAb?$AAa?$AAr?$AA?9?$AA?$DO?$AAS?$AAe?$AAl@ 0000000140282700     imgui_widgets.obj
 0003:0004a7b0       ??_C@_1BK@HMBBPDPB@?$AAw?$AAi?$AAd?$AAt?$AAh?$AA?5?$AA?$DO?$AA?5?$AA0?$AA?4?$AA0?$AAf?$AA?$AA@ 00000001402827b0     imgui_widgets.obj
 0003:0004a7d0       ??_C@_1IM@MDGGFHB@?$AAd?$AAa?$AAt?$AAa?$AA_?$AAt?$AAy?$AAp?$AAe?$AA?5?$AA?$DN?$AA?$DN?$AA?5?$AAI?$AAm?$AAG?$AAu?$AAi?$AAD?$AAa?$AAt?$AAa?$AAT?$AAy?$AAp?$AAe?$AA_?$AAF?$AAl?$AAo?$AAa?$AAt@ 00000001402827d0     imgui_widgets.obj
 0003:0004a878       __real@3cdd2f1b            0000000140282878     imgui_widgets.obj
 0003:0004a87c       __real@3e09374c            000000014028287c     imgui_widgets.obj
 0003:0004a880       __real@3eb0c6f7a0000000    0000000140282880     imgui_widgets.obj
 0003:0004a88c       __real@3f350481            000000014028288c     imgui_widgets.obj
 0003:0004a890       __real@3f5db3d0            0000000140282890     imgui_widgets.obj
 0003:0004a894       __real@3f7ff972            0000000140282894     imgui_widgets.obj
 0003:0004a898       __real@3f99999a            0000000140282898     imgui_widgets.obj
 0003:0004a89c       __real@3fb33333            000000014028289c     imgui_widgets.obj
 0003:0004a8a0       __real@3fe0000000000000    00000001402828a0     imgui_widgets.obj
 0003:0004a8ac       __real@403f5c29            00000001402828ac     imgui_widgets.obj
 0003:0004a8b0       __real@4059000000000000    00000001402828b0     imgui_widgets.obj
 0003:0004a8bc       __real@40666666            00000001402828bc     imgui_widgets.obj
 0003:0004a8c0       __real@40e80000            00000001402828c0     imgui_widgets.obj
 0003:0004a8c8       __real@43e0000000000000    00000001402828c8     imgui_widgets.obj
 0003:0004a8d8       __real@43f0000000000000    00000001402828d8     imgui_widgets.obj
 0003:0004a8e8       __real@47efffffe0000000    00000001402828e8     imgui_widgets.obj
 0003:0004a8f4       __real@5f000000            00000001402828f4     imgui_widgets.obj
 0003:0004a8f8       __real@5f800000            00000001402828f8     imgui_widgets.obj
 0003:0004a8fc       __real@7effffff            00000001402828fc     imgui_widgets.obj
 0003:0004a900       __real@7fdfffffffffffff    0000000140282900     imgui_widgets.obj
 0003:0004a910       __real@7fefffffffffffff    0000000140282910     imgui_widgets.obj
 0003:0004a91c       __real@be800000            000000014028291c     imgui_widgets.obj
 0003:0004a920       __real@be99999a            0000000140282920     imgui_widgets.obj
 0003:0004a924       __real@bf000000            0000000140282924     imgui_widgets.obj
 0003:0004a928       __real@bf5db3d0            0000000140282928     imgui_widgets.obj
 0003:0004a930       __real@bfe0000000000000    0000000140282930     imgui_widgets.obj
 0003:0004a940       __real@c059000000000000    0000000140282940     imgui_widgets.obj
 0003:0004a94c       __real@feffffff            000000014028294c     imgui_widgets.obj
 0003:0004a950       __real@ffdfffffffffffff    0000000140282950     imgui_widgets.obj
 0003:0004a960       __real@ffefffffffffffff    0000000140282960     imgui_widgets.obj
 0003:0004a970       __xmm@80000000000000008000000000000000 0000000140282970     imgui_widgets.obj
 0003:0004a990       ?AliceBlue@Colors@DirectX@@3UXMVECTORF32@2@B 0000000140282990     Application.obj
 0003:0004a9b0       ?AntiqueWhite@Colors@DirectX@@3UXMVECTORF32@2@B 00000001402829b0     Application.obj
 0003:0004a9d0       ?Aqua@Colors@DirectX@@3UXMVECTORF32@2@B 00000001402829d0     Application.obj
 0003:0004a9f0       ?Aquamarine@Colors@DirectX@@3UXMVECTORF32@2@B 00000001402829f0     Application.obj
 0003:0004aa10       ?Azure@Colors@DirectX@@3UXMVECTORF32@2@B 0000000140282a10     Application.obj
 0003:0004aa30       ?Beige@Colors@DirectX@@3UXMVECTORF32@2@B 0000000140282a30     Application.obj
 0003:0004aa50       ?Bisque@Colors@DirectX@@3UXMVECTORF32@2@B 0000000140282a50     Application.obj
 0003:0004aa70       ?Black@Colors@DirectX@@3UXMVECTORF32@2@B 0000000140282a70     Application.obj
 0003:0004aa90       ?BlanchedAlmond@Colors@DirectX@@3UXMVECTORF32@2@B 0000000140282a90     Application.obj
 0003:0004aab0       ?Blue@Colors@DirectX@@3UXMVECTORF32@2@B 0000000140282ab0     Application.obj
 0003:0004aad0       ?BlueViolet@Colors@DirectX@@3UXMVECTORF32@2@B 0000000140282ad0     Application.obj
 0003:0004aaf0       ?Brown@Colors@DirectX@@3UXMVECTORF32@2@B 0000000140282af0     Application.obj
 0003:0004ab10       ?BurlyWood@Colors@DirectX@@3UXMVECTORF32@2@B 0000000140282b10     Application.obj
 0003:0004ab30       ?CadetBlue@Colors@DirectX@@3UXMVECTORF32@2@B 0000000140282b30     Application.obj
 0003:0004ab50       ?Chartreuse@Colors@DirectX@@3UXMVECTORF32@2@B 0000000140282b50     Application.obj
 0003:0004ab70       ?Chocolate@Colors@DirectX@@3UXMVECTORF32@2@B 0000000140282b70     Application.obj
 0003:0004ab90       ?Coral@Colors@DirectX@@3UXMVECTORF32@2@B 0000000140282b90     Application.obj
 0003:0004abb0       ?CornflowerBlue@Colors@DirectX@@3UXMVECTORF32@2@B 0000000140282bb0     Application.obj
 0003:0004abd0       ?Cornsilk@Colors@DirectX@@3UXMVECTORF32@2@B 0000000140282bd0     Application.obj
 0003:0004abf0       ?Crimson@Colors@DirectX@@3UXMVECTORF32@2@B 0000000140282bf0     Application.obj
 0003:0004ac10       ?Cyan@Colors@DirectX@@3UXMVECTORF32@2@B 0000000140282c10     Application.obj
 0003:0004ac30       ?DarkBlue@Colors@DirectX@@3UXMVECTORF32@2@B 0000000140282c30     Application.obj
 0003:0004ac50       ?DarkCyan@Colors@DirectX@@3UXMVECTORF32@2@B 0000000140282c50     Application.obj
 0003:0004ac70       ?DarkGoldenrod@Colors@DirectX@@3UXMVECTORF32@2@B 0000000140282c70     Application.obj
 0003:0004ac90       ?DarkGray@Colors@DirectX@@3UXMVECTORF32@2@B 0000000140282c90     Application.obj
 0003:0004acb0       ?DarkGreen@Colors@DirectX@@3UXMVECTORF32@2@B 0000000140282cb0     Application.obj
 0003:0004acd0       ?DarkKhaki@Colors@DirectX@@3UXMVECTORF32@2@B 0000000140282cd0     Application.obj
 0003:0004acf0       ?DarkMagenta@Colors@DirectX@@3UXMVECTORF32@2@B 0000000140282cf0     Application.obj
 0003:0004ad10       ?DarkOliveGreen@Colors@DirectX@@3UXMVECTORF32@2@B 0000000140282d10     Application.obj
 0003:0004ad30       ?DarkOrange@Colors@DirectX@@3UXMVECTORF32@2@B 0000000140282d30     Application.obj
 0003:0004ad50       ?DarkOrchid@Colors@DirectX@@3UXMVECTORF32@2@B 0000000140282d50     Application.obj
 0003:0004ad70       ?DarkRed@Colors@DirectX@@3UXMVECTORF32@2@B 0000000140282d70     Application.obj
 0003:0004ad90       ?DarkSalmon@Colors@DirectX@@3UXMVECTORF32@2@B 0000000140282d90     Application.obj
 0003:0004adb0       ?DarkSeaGreen@Colors@DirectX@@3UXMVECTORF32@2@B 0000000140282db0     Application.obj
 0003:0004add0       ?DarkSlateBlue@Colors@DirectX@@3UXMVECTORF32@2@B 0000000140282dd0     Application.obj
 0003:0004adf0       ?DarkSlateGray@Colors@DirectX@@3UXMVECTORF32@2@B 0000000140282df0     Application.obj
 0003:0004ae10       ?DarkTurquoise@Colors@DirectX@@3UXMVECTORF32@2@B 0000000140282e10     Application.obj
 0003:0004ae30       ?DarkViolet@Colors@DirectX@@3UXMVECTORF32@2@B 0000000140282e30     Application.obj
 0003:0004ae50       ?DeepPink@Colors@DirectX@@3UXMVECTORF32@2@B 0000000140282e50     Application.obj
 0003:0004ae70       ?DeepSkyBlue@Colors@DirectX@@3UXMVECTORF32@2@B 0000000140282e70     Application.obj
 0003:0004ae90       ?DimGray@Colors@DirectX@@3UXMVECTORF32@2@B 0000000140282e90     Application.obj
 0003:0004aeb0       ?DodgerBlue@Colors@DirectX@@3UXMVECTORF32@2@B 0000000140282eb0     Application.obj
 0003:0004aed0       ?Firebrick@Colors@DirectX@@3UXMVECTORF32@2@B 0000000140282ed0     Application.obj
 0003:0004aef0       ?FloralWhite@Colors@DirectX@@3UXMVECTORF32@2@B 0000000140282ef0     Application.obj
 0003:0004af10       ?ForestGreen@Colors@DirectX@@3UXMVECTORF32@2@B 0000000140282f10     Application.obj
 0003:0004af30       ?Fuchsia@Colors@DirectX@@3UXMVECTORF32@2@B 0000000140282f30     Application.obj
 0003:0004af50       ?Gainsboro@Colors@DirectX@@3UXMVECTORF32@2@B 0000000140282f50     Application.obj
 0003:0004af70       ?GhostWhite@Colors@DirectX@@3UXMVECTORF32@2@B 0000000140282f70     Application.obj
 0003:0004af90       ?Gold@Colors@DirectX@@3UXMVECTORF32@2@B 0000000140282f90     Application.obj
 0003:0004afb0       ?Goldenrod@Colors@DirectX@@3UXMVECTORF32@2@B 0000000140282fb0     Application.obj
 0003:0004afd0       ?Gray@Colors@DirectX@@3UXMVECTORF32@2@B 0000000140282fd0     Application.obj
 0003:0004aff0       ?Green@Colors@DirectX@@3UXMVECTORF32@2@B 0000000140282ff0     Application.obj
 0003:0004b010       ?GreenYellow@Colors@DirectX@@3UXMVECTORF32@2@B 0000000140283010     Application.obj
 0003:0004b030       ?Honeydew@Colors@DirectX@@3UXMVECTORF32@2@B 0000000140283030     Application.obj
 0003:0004b050       ?HotPink@Colors@DirectX@@3UXMVECTORF32@2@B 0000000140283050     Application.obj
 0003:0004b070       ?IndianRed@Colors@DirectX@@3UXMVECTORF32@2@B 0000000140283070     Application.obj
 0003:0004b090       ?Indigo@Colors@DirectX@@3UXMVECTORF32@2@B 0000000140283090     Application.obj
 0003:0004b0b0       ?Ivory@Colors@DirectX@@3UXMVECTORF32@2@B 00000001402830b0     Application.obj
 0003:0004b0d0       ?Khaki@Colors@DirectX@@3UXMVECTORF32@2@B 00000001402830d0     Application.obj
 0003:0004b0f0       ?Lavender@Colors@DirectX@@3UXMVECTORF32@2@B 00000001402830f0     Application.obj
 0003:0004b110       ?LavenderBlush@Colors@DirectX@@3UXMVECTORF32@2@B 0000000140283110     Application.obj
 0003:0004b130       ?LawnGreen@Colors@DirectX@@3UXMVECTORF32@2@B 0000000140283130     Application.obj
 0003:0004b150       ?LemonChiffon@Colors@DirectX@@3UXMVECTORF32@2@B 0000000140283150     Application.obj
 0003:0004b170       ?LightBlue@Colors@DirectX@@3UXMVECTORF32@2@B 0000000140283170     Application.obj
 0003:0004b190       ?LightCoral@Colors@DirectX@@3UXMVECTORF32@2@B 0000000140283190     Application.obj
 0003:0004b1b0       ?LightCyan@Colors@DirectX@@3UXMVECTORF32@2@B 00000001402831b0     Application.obj
 0003:0004b1d0       ?LightGoldenrodYellow@Colors@DirectX@@3UXMVECTORF32@2@B 00000001402831d0     Application.obj
 0003:0004b1f0       ?LightGreen@Colors@DirectX@@3UXMVECTORF32@2@B 00000001402831f0     Application.obj
 0003:0004b210       ?LightGray@Colors@DirectX@@3UXMVECTORF32@2@B 0000000140283210     Application.obj
 0003:0004b230       ?LightPink@Colors@DirectX@@3UXMVECTORF32@2@B 0000000140283230     Application.obj
 0003:0004b250       ?LightSalmon@Colors@DirectX@@3UXMVECTORF32@2@B 0000000140283250     Application.obj
 0003:0004b270       ?LightSeaGreen@Colors@DirectX@@3UXMVECTORF32@2@B 0000000140283270     Application.obj
 0003:0004b290       ?LightSkyBlue@Colors@DirectX@@3UXMVECTORF32@2@B 0000000140283290     Application.obj
 0003:0004b2b0       ?LightSlateGray@Colors@DirectX@@3UXMVECTORF32@2@B 00000001402832b0     Application.obj
 0003:0004b2d0       ?LightSteelBlue@Colors@DirectX@@3UXMVECTORF32@2@B 00000001402832d0     Application.obj
 0003:0004b2f0       ?LightYellow@Colors@DirectX@@3UXMVECTORF32@2@B 00000001402832f0     Application.obj
 0003:0004b310       ?Lime@Colors@DirectX@@3UXMVECTORF32@2@B 0000000140283310     Application.obj
 0003:0004b330       ?LimeGreen@Colors@DirectX@@3UXMVECTORF32@2@B 0000000140283330     Application.obj
 0003:0004b350       ?Linen@Colors@DirectX@@3UXMVECTORF32@2@B 0000000140283350     Application.obj
 0003:0004b370       ?Magenta@Colors@DirectX@@3UXMVECTORF32@2@B 0000000140283370     Application.obj
 0003:0004b390       ?Maroon@Colors@DirectX@@3UXMVECTORF32@2@B 0000000140283390     Application.obj
 0003:0004b3b0       ?MediumAquamarine@Colors@DirectX@@3UXMVECTORF32@2@B 00000001402833b0     Application.obj
 0003:0004b3d0       ?MediumBlue@Colors@DirectX@@3UXMVECTORF32@2@B 00000001402833d0     Application.obj
 0003:0004b3f0       ?MediumOrchid@Colors@DirectX@@3UXMVECTORF32@2@B 00000001402833f0     Application.obj
 0003:0004b410       ?MediumPurple@Colors@DirectX@@3UXMVECTORF32@2@B 0000000140283410     Application.obj
 0003:0004b430       ?MediumSeaGreen@Colors@DirectX@@3UXMVECTORF32@2@B 0000000140283430     Application.obj
 0003:0004b450       ?MediumSlateBlue@Colors@DirectX@@3UXMVECTORF32@2@B 0000000140283450     Application.obj
 0003:0004b470       ?MediumSpringGreen@Colors@DirectX@@3UXMVECTORF32@2@B 0000000140283470     Application.obj
 0003:0004b490       ?MediumTurquoise@Colors@DirectX@@3UXMVECTORF32@2@B 0000000140283490     Application.obj
 0003:0004b4b0       ?MediumVioletRed@Colors@DirectX@@3UXMVECTORF32@2@B 00000001402834b0     Application.obj
 0003:0004b4d0       ?MidnightBlue@Colors@DirectX@@3UXMVECTORF32@2@B 00000001402834d0     Application.obj
 0003:0004b4f0       ?MintCream@Colors@DirectX@@3UXMVECTORF32@2@B 00000001402834f0     Application.obj
 0003:0004b510       ?MistyRose@Colors@DirectX@@3UXMVECTORF32@2@B 0000000140283510     Application.obj
 0003:0004b530       ?Moccasin@Colors@DirectX@@3UXMVECTORF32@2@B 0000000140283530     Application.obj
 0003:0004b550       ?NavajoWhite@Colors@DirectX@@3UXMVECTORF32@2@B 0000000140283550     Application.obj
 0003:0004b570       ?Navy@Colors@DirectX@@3UXMVECTORF32@2@B 0000000140283570     Application.obj
 0003:0004b590       ?OldLace@Colors@DirectX@@3UXMVECTORF32@2@B 0000000140283590     Application.obj
 0003:0004b5b0       ?Olive@Colors@DirectX@@3UXMVECTORF32@2@B 00000001402835b0     Application.obj
 0003:0004b5d0       ?OliveDrab@Colors@DirectX@@3UXMVECTORF32@2@B 00000001402835d0     Application.obj
 0003:0004b5f0       ?Orange@Colors@DirectX@@3UXMVECTORF32@2@B 00000001402835f0     Application.obj
 0003:0004b610       ?OrangeRed@Colors@DirectX@@3UXMVECTORF32@2@B 0000000140283610     Application.obj
 0003:0004b630       ?Orchid@Colors@DirectX@@3UXMVECTORF32@2@B 0000000140283630     Application.obj
 0003:0004b650       ?PaleGoldenrod@Colors@DirectX@@3UXMVECTORF32@2@B 0000000140283650     Application.obj
 0003:0004b670       ?PaleGreen@Colors@DirectX@@3UXMVECTORF32@2@B 0000000140283670     Application.obj
 0003:0004b690       ?PaleTurquoise@Colors@DirectX@@3UXMVECTORF32@2@B 0000000140283690     Application.obj
 0003:0004b6b0       ?PaleVioletRed@Colors@DirectX@@3UXMVECTORF32@2@B 00000001402836b0     Application.obj
 0003:0004b6d0       ?PapayaWhip@Colors@DirectX@@3UXMVECTORF32@2@B 00000001402836d0     Application.obj
 0003:0004b6f0       ?PeachPuff@Colors@DirectX@@3UXMVECTORF32@2@B 00000001402836f0     Application.obj
 0003:0004b710       ?Peru@Colors@DirectX@@3UXMVECTORF32@2@B 0000000140283710     Application.obj
 0003:0004b730       ?Pink@Colors@DirectX@@3UXMVECTORF32@2@B 0000000140283730     Application.obj
 0003:0004b750       ?Plum@Colors@DirectX@@3UXMVECTORF32@2@B 0000000140283750     Application.obj
 0003:0004b770       ?PowderBlue@Colors@DirectX@@3UXMVECTORF32@2@B 0000000140283770     Application.obj
 0003:0004b790       ?Purple@Colors@DirectX@@3UXMVECTORF32@2@B 0000000140283790     Application.obj
 0003:0004b7b0       ?Red@Colors@DirectX@@3UXMVECTORF32@2@B 00000001402837b0     Application.obj
 0003:0004b7d0       ?RosyBrown@Colors@DirectX@@3UXMVECTORF32@2@B 00000001402837d0     Application.obj
 0003:0004b7f0       ?RoyalBlue@Colors@DirectX@@3UXMVECTORF32@2@B 00000001402837f0     Application.obj
 0003:0004b810       ?SaddleBrown@Colors@DirectX@@3UXMVECTORF32@2@B 0000000140283810     Application.obj
 0003:0004b830       ?Salmon@Colors@DirectX@@3UXMVECTORF32@2@B 0000000140283830     Application.obj
 0003:0004b850       ?SandyBrown@Colors@DirectX@@3UXMVECTORF32@2@B 0000000140283850     Application.obj
 0003:0004b870       ?SeaGreen@Colors@DirectX@@3UXMVECTORF32@2@B 0000000140283870     Application.obj
 0003:0004b890       ?SeaShell@Colors@DirectX@@3UXMVECTORF32@2@B 0000000140283890     Application.obj
 0003:0004b8b0       ?Sienna@Colors@DirectX@@3UXMVECTORF32@2@B 00000001402838b0     Application.obj
 0003:0004b8d0       ?g_BoxOffset@DirectX@@3QBUXMVECTORF32@1@B 00000001402838d0     Application.obj
 0003:0004b970       ?Silver@Colors@DirectX@@3UXMVECTORF32@2@B 0000000140283970     Application.obj
 0003:0004b990       ?g_RayEpsilon@DirectX@@3UXMVECTORF32@1@B 0000000140283990     Application.obj
 0003:0004b9b0       ?SkyBlue@Colors@DirectX@@3UXMVECTORF32@2@B 00000001402839b0     Application.obj
 0003:0004b9d0       ?g_RayNegEpsilon@DirectX@@3UXMVECTORF32@1@B 00000001402839d0     Application.obj
 0003:0004b9f0       ?SlateBlue@Colors@DirectX@@3UXMVECTORF32@2@B 00000001402839f0     Application.obj
 0003:0004ba10       ?g_FltMin@DirectX@@3UXMVECTORF32@1@B 0000000140283a10     Application.obj
 0003:0004ba30       ?SlateGray@Colors@DirectX@@3UXMVECTORF32@2@B 0000000140283a30     Application.obj
 0003:0004ba50       ?g_FltMax@DirectX@@3UXMVECTORF32@1@B 0000000140283a50     Application.obj
 0003:0004ba70       ?Snow@Colors@DirectX@@3UXMVECTORF32@2@B 0000000140283a70     Application.obj
 0003:0004ba90       ?SpringGreen@Colors@DirectX@@3UXMVECTORF32@2@B 0000000140283a90     Application.obj
 0003:0004bab0       ?SteelBlue@Colors@DirectX@@3UXMVECTORF32@2@B 0000000140283ab0     Application.obj
 0003:0004bad0       ?Tan@Colors@DirectX@@3UXMVECTORF32@2@B 0000000140283ad0     Application.obj
 0003:0004baf0       ?Teal@Colors@DirectX@@3UXMVECTORF32@2@B 0000000140283af0     Application.obj
 0003:0004bb10       ?Thistle@Colors@DirectX@@3UXMVECTORF32@2@B 0000000140283b10     Application.obj
 0003:0004bb30       ?Tomato@Colors@DirectX@@3UXMVECTORF32@2@B 0000000140283b30     Application.obj
 0003:0004bb50       ?Transparent@Colors@DirectX@@3UXMVECTORF32@2@B 0000000140283b50     Application.obj
 0003:0004bb70       ?Turquoise@Colors@DirectX@@3UXMVECTORF32@2@B 0000000140283b70     Application.obj
 0003:0004bb90       ?Violet@Colors@DirectX@@3UXMVECTORF32@2@B 0000000140283b90     Application.obj
 0003:0004bbb0       ?Wheat@Colors@DirectX@@3UXMVECTORF32@2@B 0000000140283bb0     Application.obj
 0003:0004bbd0       ?White@Colors@DirectX@@3UXMVECTORF32@2@B 0000000140283bd0     Application.obj
 0003:0004bbf0       ?WhiteSmoke@Colors@DirectX@@3UXMVECTORF32@2@B 0000000140283bf0     Application.obj
 0003:0004bc10       ?Yellow@Colors@DirectX@@3UXMVECTORF32@2@B 0000000140283c10     Application.obj
 0003:0004bc30       ?YellowGreen@Colors@DirectX@@3UXMVECTORF32@2@B 0000000140283c30     Application.obj
 0003:0004bc50       ?g_UnitVectorEpsilon@Internal@DirectX@@3UXMVECTORF32@2@B 0000000140283c50     Application.obj
 0003:0004bc70       ?g_UnitQuaternionEpsilon@Internal@DirectX@@3UXMVECTORF32@2@B 0000000140283c70     Application.obj
 0003:0004bc90       ?g_UnitPlaneEpsilon@Internal@DirectX@@3UXMVECTORF32@2@B 0000000140283c90     Application.obj
 0003:0004bcb0       ?g_XMSinCoefficients0@DirectX@@3UXMVECTORF32@1@B 0000000140283cb0     Application.obj
 0003:0004bcd0       ?g_XMSinCoefficients1@DirectX@@3UXMVECTORF32@1@B 0000000140283cd0     Application.obj
 0003:0004bcf0       ?g_XMCosCoefficients0@DirectX@@3UXMVECTORF32@1@B 0000000140283cf0     Application.obj
 0003:0004bd10       ?g_XMCosCoefficients1@DirectX@@3UXMVECTORF32@1@B 0000000140283d10     Application.obj
 0003:0004bd30       ?g_XMTanCoefficients0@DirectX@@3UXMVECTORF32@1@B 0000000140283d30     Application.obj
 0003:0004bd50       ?g_XMTanCoefficients1@DirectX@@3UXMVECTORF32@1@B 0000000140283d50     Application.obj
 0003:0004bd70       ?g_XMTanCoefficients2@DirectX@@3UXMVECTORF32@1@B 0000000140283d70     Application.obj
 0003:0004bd90       ?g_XMArcCoefficients0@DirectX@@3UXMVECTORF32@1@B 0000000140283d90     Application.obj
 0003:0004bdb0       ?g_XMArcCoefficients1@DirectX@@3UXMVECTORF32@1@B 0000000140283db0     Application.obj
 0003:0004bdd0       ?g_XMATanCoefficients0@DirectX@@3UXMVECTORF32@1@B 0000000140283dd0     Application.obj
 0003:0004bdf0       ?g_XMATanCoefficients1@DirectX@@3UXMVECTORF32@1@B 0000000140283df0     Application.obj
 0003:0004be10       ?g_XMATanEstCoefficients0@DirectX@@3UXMVECTORF32@1@B 0000000140283e10     Application.obj
 0003:0004be30       ?g_XMATanEstCoefficients1@DirectX@@3UXMVECTORF32@1@B 0000000140283e30     Application.obj
 0003:0004be50       ?g_XMTanEstCoefficients@DirectX@@3UXMVECTORF32@1@B 0000000140283e50     Application.obj
 0003:0004be70       ?g_XMArcEstCoefficients@DirectX@@3UXMVECTORF32@1@B 0000000140283e70     Application.obj
 0003:0004be90       ?g_XMPiConstants0@DirectX@@3UXMVECTORF32@1@B 0000000140283e90     Application.obj
 0003:0004beb0       ?g_XMIdentityR0@DirectX@@3UXMVECTORF32@1@B 0000000140283eb0     Application.obj
 0003:0004bed0       ?g_XMIdentityR1@DirectX@@3UXMVECTORF32@1@B 0000000140283ed0     Application.obj
 0003:0004bef0       ?g_XMIdentityR2@DirectX@@3UXMVECTORF32@1@B 0000000140283ef0     Application.obj
 0003:0004bf10       ?g_XMIdentityR3@DirectX@@3UXMVECTORF32@1@B 0000000140283f10     Application.obj
 0003:0004bf30       ?g_XMNegIdentityR0@DirectX@@3UXMVECTORF32@1@B 0000000140283f30     Application.obj
 0003:0004bf50       ?g_XMNegIdentityR1@DirectX@@3UXMVECTORF32@1@B 0000000140283f50     Application.obj
 0003:0004bf70       ?g_XMNegIdentityR2@DirectX@@3UXMVECTORF32@1@B 0000000140283f70     Application.obj
 0003:0004bf90       ?g_XMNegIdentityR3@DirectX@@3UXMVECTORF32@1@B 0000000140283f90     Application.obj
 0003:0004bfb0       ?g_XMNegativeZero@DirectX@@3UXMVECTORU32@1@B 0000000140283fb0     Application.obj
 0003:0004bfd0       ?g_XMNegate3@DirectX@@3UXMVECTORU32@1@B 0000000140283fd0     Application.obj
 0003:0004bff0       ?g_XMMask3@DirectX@@3UXMVECTORU32@1@B 0000000140283ff0     Application.obj
 0003:0004c010       ?g_XMMaskX@DirectX@@3UXMVECTORU32@1@B 0000000140284010     Application.obj
 0003:0004c030       ?g_XMMaskY@DirectX@@3UXMVECTORU32@1@B 0000000140284030     Application.obj
 0003:0004c050       ?g_XMMaskZ@DirectX@@3UXMVECTORU32@1@B 0000000140284050     Application.obj
 0003:0004c070       ?g_XMMaskW@DirectX@@3UXMVECTORU32@1@B 0000000140284070     Application.obj
 0003:0004c090       ?g_XMOne@DirectX@@3UXMVECTORF32@1@B 0000000140284090     Application.obj
 0003:0004c0b0       ?g_XMOne3@DirectX@@3UXMVECTORF32@1@B 00000001402840b0     Application.obj
 0003:0004c0d0       ?g_XMZero@DirectX@@3UXMVECTORF32@1@B 00000001402840d0     Application.obj
 0003:0004c0f0       ?g_XMTwo@DirectX@@3UXMVECTORF32@1@B 00000001402840f0     Application.obj
 0003:0004c110       ?g_XMFour@DirectX@@3UXMVECTORF32@1@B 0000000140284110     Application.obj
 0003:0004c130       ?g_XMSix@DirectX@@3UXMVECTORF32@1@B 0000000140284130     Application.obj
 0003:0004c150       ?g_XMNegativeOne@DirectX@@3UXMVECTORF32@1@B 0000000140284150     Application.obj
 0003:0004c170       ?g_XMOneHalf@DirectX@@3UXMVECTORF32@1@B 0000000140284170     Application.obj
 0003:0004c190       ?g_XMNegativeOneHalf@DirectX@@3UXMVECTORF32@1@B 0000000140284190     Application.obj
 0003:0004c1b0       ?g_XMNegativeTwoPi@DirectX@@3UXMVECTORF32@1@B 00000001402841b0     Application.obj
 0003:0004c1d0       ?g_XMNegativePi@DirectX@@3UXMVECTORF32@1@B 00000001402841d0     Application.obj
 0003:0004c1f0       ?g_XMHalfPi@DirectX@@3UXMVECTORF32@1@B 00000001402841f0     Application.obj
 0003:0004c210       ?g_XMPi@DirectX@@3UXMVECTORF32@1@B 0000000140284210     Application.obj
 0003:0004c230       ?g_XMReciprocalPi@DirectX@@3UXMVECTORF32@1@B 0000000140284230     Application.obj
 0003:0004c250       ?g_XMTwoPi@DirectX@@3UXMVECTORF32@1@B 0000000140284250     Application.obj
 0003:0004c270       ?g_XMReciprocalTwoPi@DirectX@@3UXMVECTORF32@1@B 0000000140284270     Application.obj
 0003:0004c290       ?g_XMEpsilon@DirectX@@3UXMVECTORF32@1@B 0000000140284290     Application.obj
 0003:0004c2b0       ?g_XMInfinity@DirectX@@3UXMVECTORI32@1@B 00000001402842b0     Application.obj
 0003:0004c2d0       ?g_XMQNaN@DirectX@@3UXMVECTORI32@1@B 00000001402842d0     Application.obj
 0003:0004c2f0       ?g_XMQNaNTest@DirectX@@3UXMVECTORI32@1@B 00000001402842f0     Application.obj
 0003:0004c310       ?g_XMAbsMask@DirectX@@3UXMVECTORI32@1@B 0000000140284310     Application.obj
 0003:0004c330       ?g_XMFltMin@DirectX@@3UXMVECTORI32@1@B 0000000140284330     Application.obj
 0003:0004c350       ?g_XMFltMax@DirectX@@3UXMVECTORI32@1@B 0000000140284350     Application.obj
 0003:0004c370       ?g_XMNegOneMask@DirectX@@3UXMVECTORU32@1@B 0000000140284370     Application.obj
 0003:0004c390       ?g_XMMaskA8R8G8B8@DirectX@@3UXMVECTORU32@1@B 0000000140284390     Application.obj
 0003:0004c3b0       ?g_XMFlipA8R8G8B8@DirectX@@3UXMVECTORU32@1@B 00000001402843b0     Application.obj
 0003:0004c3d0       ?g_XMFixAA8R8G8B8@DirectX@@3UXMVECTORF32@1@B 00000001402843d0     Application.obj
 0003:0004c3f0       ?g_XMNormalizeA8R8G8B8@DirectX@@3UXMVECTORF32@1@B 00000001402843f0     Application.obj
 0003:0004c410       ?g_XMMaskA2B10G10R10@DirectX@@3UXMVECTORU32@1@B 0000000140284410     Application.obj
 0003:0004c430       ?g_XMFlipA2B10G10R10@DirectX@@3UXMVECTORU32@1@B 0000000140284430     Application.obj
 0003:0004c450       ?g_XMFixAA2B10G10R10@DirectX@@3UXMVECTORF32@1@B 0000000140284450     Application.obj
 0003:0004c470       ?g_XMNormalizeA2B10G10R10@DirectX@@3UXMVECTORF32@1@B 0000000140284470     Application.obj
 0003:0004c490       ?g_XMMaskX16Y16@DirectX@@3UXMVECTORU32@1@B 0000000140284490     Application.obj
 0003:0004c4b0       ?g_XMFlipX16Y16@DirectX@@3UXMVECTORI32@1@B 00000001402844b0     Application.obj
 0003:0004c4d0       ?g_XMFixX16Y16@DirectX@@3UXMVECTORF32@1@B 00000001402844d0     Application.obj
 0003:0004c4f0       ?g_XMNormalizeX16Y16@DirectX@@3UXMVECTORF32@1@B 00000001402844f0     Application.obj
 0003:0004c510       ?g_XMMaskX16Y16Z16W16@DirectX@@3UXMVECTORU32@1@B 0000000140284510     Application.obj
 0003:0004c530       ?g_XMFlipX16Y16Z16W16@DirectX@@3UXMVECTORI32@1@B 0000000140284530     Application.obj
 0003:0004c550       ?g_XMFixX16Y16Z16W16@DirectX@@3UXMVECTORF32@1@B 0000000140284550     Application.obj
 0003:0004c570       ?g_XMNormalizeX16Y16Z16W16@DirectX@@3UXMVECTORF32@1@B 0000000140284570     Application.obj
 0003:0004c590       ?g_XMNoFraction@DirectX@@3UXMVECTORF32@1@B 0000000140284590     Application.obj
 0003:0004c5b0       ?g_XMMaskByte@DirectX@@3UXMVECTORI32@1@B 00000001402845b0     Application.obj
 0003:0004c5d0       ?g_XMNegateX@DirectX@@3UXMVECTORF32@1@B 00000001402845d0     Application.obj
 0003:0004c5f0       ?g_XMNegateY@DirectX@@3UXMVECTORF32@1@B 00000001402845f0     Application.obj
 0003:0004c610       ?g_XMNegateZ@DirectX@@3UXMVECTORF32@1@B 0000000140284610     Application.obj
 0003:0004c630       ?g_XMNegateW@DirectX@@3UXMVECTORF32@1@B 0000000140284630     Application.obj
 0003:0004c650       ?g_XMSelect0101@DirectX@@3UXMVECTORU32@1@B 0000000140284650     Application.obj
 0003:0004c670       ?g_XMSelect1010@DirectX@@3UXMVECTORU32@1@B 0000000140284670     Application.obj
 0003:0004c690       ?g_XMOneHalfMinusEpsilon@DirectX@@3UXMVECTORI32@1@B 0000000140284690     Application.obj
 0003:0004c6b0       ?g_XMSelect1000@DirectX@@3UXMVECTORU32@1@B 00000001402846b0     Application.obj
 0003:0004c6d0       ?g_XMSelect1100@DirectX@@3UXMVECTORU32@1@B 00000001402846d0     Application.obj
 0003:0004c6f0       ?g_XMSelect1110@DirectX@@3UXMVECTORU32@1@B 00000001402846f0     Application.obj
 0003:0004c710       ?g_XMSelect1011@DirectX@@3UXMVECTORU32@1@B 0000000140284710     Application.obj
 0003:0004c730       ?g_XMFixupY16@DirectX@@3UXMVECTORF32@1@B 0000000140284730     Application.obj
 0003:0004c750       ?g_XMFixupY16W16@DirectX@@3UXMVECTORF32@1@B 0000000140284750     Application.obj
 0003:0004c770       ?g_XMFlipY@DirectX@@3UXMVECTORU32@1@B 0000000140284770     Application.obj
 0003:0004c790       ?g_XMFlipZ@DirectX@@3UXMVECTORU32@1@B 0000000140284790     Application.obj
 0003:0004c7b0       ?g_XMFlipW@DirectX@@3UXMVECTORU32@1@B 00000001402847b0     Application.obj
 0003:0004c7d0       ?g_XMFlipYZ@DirectX@@3UXMVECTORU32@1@B 00000001402847d0     Application.obj
 0003:0004c7f0       ?g_XMFlipZW@DirectX@@3UXMVECTORU32@1@B 00000001402847f0     Application.obj
 0003:0004c810       ?g_XMFlipYW@DirectX@@3UXMVECTORU32@1@B 0000000140284810     Application.obj
 0003:0004c830       ?g_XMMaskDec4@DirectX@@3UXMVECTORI32@1@B 0000000140284830     Application.obj
 0003:0004c850       ?g_XMXorDec4@DirectX@@3UXMVECTORI32@1@B 0000000140284850     Application.obj
 0003:0004c870       ?g_XMAddUDec4@DirectX@@3UXMVECTORF32@1@B 0000000140284870     Application.obj
 0003:0004c890       ?g_XMAddDec4@DirectX@@3UXMVECTORF32@1@B 0000000140284890     Application.obj
 0003:0004c8b0       ?g_XMMulDec4@DirectX@@3UXMVECTORF32@1@B 00000001402848b0     Application.obj
 0003:0004c8d0       ?g_XMMaskByte4@DirectX@@3UXMVECTORU32@1@B 00000001402848d0     Application.obj
 0003:0004c8f0       ?g_XMXorByte4@DirectX@@3UXMVECTORI32@1@B 00000001402848f0     Application.obj
 0003:0004c910       ?g_XMAddByte4@DirectX@@3UXMVECTORF32@1@B 0000000140284910     Application.obj
 0003:0004c930       ?g_XMFixUnsigned@DirectX@@3UXMVECTORF32@1@B 0000000140284930     Application.obj
 0003:0004c950       ?g_XMMaxInt@DirectX@@3UXMVECTORF32@1@B 0000000140284950     Application.obj
 0003:0004c970       ?g_XMMaxUInt@DirectX@@3UXMVECTORF32@1@B 0000000140284970     Application.obj
 0003:0004c990       ?g_XMUnsignedFix@DirectX@@3UXMVECTORF32@1@B 0000000140284990     Application.obj
 0003:0004c9b0       ?g_XMsrgbScale@DirectX@@3UXMVECTORF32@1@B 00000001402849b0     Application.obj
 0003:0004c9d0       ?g_XMsrgbA@DirectX@@3UXMVECTORF32@1@B 00000001402849d0     Application.obj
 0003:0004c9f0       ?g_XMsrgbA1@DirectX@@3UXMVECTORF32@1@B 00000001402849f0     Application.obj
 0003:0004ca10       ?g_XMExponentBias@DirectX@@3UXMVECTORI32@1@B 0000000140284a10     Application.obj
 0003:0004ca30       ?g_XMSubnormalExponent@DirectX@@3UXMVECTORI32@1@B 0000000140284a30     Application.obj
 0003:0004ca50       ?g_XMNumTrailing@DirectX@@3UXMVECTORI32@1@B 0000000140284a50     Application.obj
 0003:0004ca70       ?g_XMMinNormal@DirectX@@3UXMVECTORI32@1@B 0000000140284a70     Application.obj
 0003:0004ca90       ?g_XMNegInfinity@DirectX@@3UXMVECTORU32@1@B 0000000140284a90     Application.obj
 0003:0004cab0       ?g_XMNegQNaN@DirectX@@3UXMVECTORU32@1@B 0000000140284ab0     Application.obj
 0003:0004cad0       ?g_XMBin128@DirectX@@3UXMVECTORI32@1@B 0000000140284ad0     Application.obj
 0003:0004caf0       ?g_XMBinNeg150@DirectX@@3UXMVECTORU32@1@B 0000000140284af0     Application.obj
 0003:0004cb10       ?g_XM253@DirectX@@3UXMVECTORI32@1@B 0000000140284b10     Application.obj
 0003:0004cb30       ?g_XMExpEst1@DirectX@@3UXMVECTORF32@1@B 0000000140284b30     Application.obj
 0003:0004cb50       ?g_XMExpEst2@DirectX@@3UXMVECTORF32@1@B 0000000140284b50     Application.obj
 0003:0004cb70       ?g_XMExpEst3@DirectX@@3UXMVECTORF32@1@B 0000000140284b70     Application.obj
 0003:0004cb90       ?g_XMExpEst4@DirectX@@3UXMVECTORF32@1@B 0000000140284b90     Application.obj
 0003:0004cbb0       ?g_XMExpEst5@DirectX@@3UXMVECTORF32@1@B 0000000140284bb0     Application.obj
 0003:0004cbd0       ?g_XMExpEst6@DirectX@@3UXMVECTORF32@1@B 0000000140284bd0     Application.obj
 0003:0004cbf0       ?g_XMExpEst7@DirectX@@3UXMVECTORF32@1@B 0000000140284bf0     Application.obj
 0003:0004cc10       ?g_XMLogEst0@DirectX@@3UXMVECTORF32@1@B 0000000140284c10     Application.obj
 0003:0004cc30       ?g_XMLogEst1@DirectX@@3UXMVECTORF32@1@B 0000000140284c30     Application.obj
 0003:0004cc50       ?g_XMLogEst2@DirectX@@3UXMVECTORF32@1@B 0000000140284c50     Application.obj
 0003:0004cc70       ?g_XMLogEst3@DirectX@@3UXMVECTORF32@1@B 0000000140284c70     Application.obj
 0003:0004cc90       ?g_XMLogEst4@DirectX@@3UXMVECTORF32@1@B 0000000140284c90     Application.obj
 0003:0004ccb0       ?g_XMLogEst5@DirectX@@3UXMVECTORF32@1@B 0000000140284cb0     Application.obj
 0003:0004ccd0       ?g_XMLogEst6@DirectX@@3UXMVECTORF32@1@B 0000000140284cd0     Application.obj
 0003:0004ccf0       ?g_XMLogEst7@DirectX@@3UXMVECTORF32@1@B 0000000140284cf0     Application.obj
 0003:0004cd10       ?g_XMLgE@DirectX@@3UXMVECTORF32@1@B 0000000140284d10     Application.obj
 0003:0004cd30       ?g_XMInvLgE@DirectX@@3UXMVECTORF32@1@B 0000000140284d30     Application.obj
 0003:0004d418       ??_C@_0BE@LMNLACIC@_Ptr_container?5?$CB?$DN?50?$AA@ 0000000140285418     Application.obj
 0003:0004d430       ??_C@_1DG@HGDKEBPG@?$AA?$CC?$AA_?$AAP?$AAt?$AAr?$AA_?$AAc?$AAo?$AAn?$AAt?$AAa?$AAi?$AAn?$AAe?$AAr?$AA?5?$AA?$CB?$AA?$DN?$AA?5?$AA0?$AA?$CC?$AA?5?$AA?$CG?$AA?$CG?$AA?5?$AA0?$AA?$AA@ 0000000140285430     Application.obj
 0003:0004d470       ??_C@_17CNPHIMPH@?$AA?$CF?$AAl?$AAs?$AA?$AA@ 0000000140285470     Application.obj
 0003:0004d480       ??_C@_1JA@DKOIEICI@?$AAc?$AA?3?$AA?2?$AAp?$AAr?$AAo?$AAg?$AAr?$AAa?$AAm?$AA?5?$AAf?$AAi?$AAl?$AAe?$AAs?$AA?5?$AA?$CI?$AAx?$AA8?$AA6?$AA?$CJ?$AA?2?$AAm?$AAi?$AAc?$AAr?$AAo?$AAs?$AAo?$AAf?$AAt@ 0000000140285480     Application.obj
 0003:0004d530       ??_C@_1BO@NKFMJPA@?$AAs?$AAt?$AAd?$AA?3?$AA?3?$AA_?$AAA?$AAl?$AAl?$AAo?$AAc?$AAa?$AAt?$AAe?$AA?$AA@ 0000000140285530     Application.obj
 0003:0004d558       ??_C@_1CG@JNLFBNGN@?$AA?$CC?$AAi?$AAn?$AAv?$AAa?$AAl?$AAi?$AAd?$AA?5?$AAa?$AAr?$AAg?$AAu?$AAm?$AAe?$AAn?$AAt?$AA?$CC?$AA?$AA@ 0000000140285558     Application.obj
 0003:0004d588       ??_C@_09GLJCAGLP@_Ptr?5?$CB?$DN?50?$AA@ 0000000140285588     Application.obj
 0003:0004d598       ??_C@_1CC@GKJLLHIM@?$AA?$CC?$AA_?$AAP?$AAt?$AAr?$AA?5?$AA?$CB?$AA?$DN?$AA?5?$AA0?$AA?$CC?$AA?5?$AA?$CG?$AA?$CG?$AA?5?$AA0?$AA?$AA@ 0000000140285598     Application.obj
 0003:0004d5c0       ??_C@_0BN@HMCJOMKN@_Count?5?$DM?$DN?5?$CIsize_t?$CJ?$CI?91?$CJ?5?1?5_Sz?$AA@ 00000001402855c0     Application.obj
 0003:0004d5f0       ??_C@_1EI@MLOBABC@?$AA?$CC?$AA_?$AAC?$AAo?$AAu?$AAn?$AAt?$AA?5?$AA?$DM?$AA?$DN?$AA?5?$AA?$CI?$AAs?$AAi?$AAz?$AAe?$AA_?$AAt?$AA?$CJ?$AA?$CI?$AA?9?$AA1?$AA?$CJ?$AA?5?$AA?1?$AA?5?$AA_?$AAS?$AAz?$AA?$CC?$AA?5?$AA?$CG@ 00000001402855f0     Application.obj
 0003:0004d648       ??_C@_1CC@LOFJFFDB@?$AAs?$AAt?$AAd?$AA?3?$AA?3?$AA_?$AAD?$AAe?$AAa?$AAl?$AAl?$AAo?$AAc?$AAa?$AAt?$AAe?$AA?$AA@ 0000000140285648     Application.obj
 0003:0004d670       ??_C@_0DD@GBGGGKGG@?$CI_Ptr_user?5?$CG?5?$CI_BIG_ALLOCATION_AL@ 0000000140285670     Application.obj
 0003:0004d6b0       ??_C@_1HE@CDMBFOKC@?$AA?$CC?$AA?$CI?$AA_?$AAP?$AAt?$AAr?$AA_?$AAu?$AAs?$AAe?$AAr?$AA?5?$AA?$CG?$AA?5?$AA?$CI?$AA_?$AAB?$AAI?$AAG?$AA_?$AAA?$AAL?$AAL?$AAO?$AAC?$AAA?$AAT?$AAI?$AAO?$AAN?$AA_?$AAA@ 00000001402856b0     Application.obj
 0003:0004d740       ??_C@_0EI@NOJHEJCJ@reinterpret_cast?$DMuintptr_t?5?$CK?$DO?$CI_P@ 0000000140285740     Application.obj
 0003:0004d7a0       ??_C@_1JO@EKLKIEHP@?$AA?$CC?$AAr?$AAe?$AAi?$AAn?$AAt?$AAe?$AAr?$AAp?$AAr?$AAe?$AAt?$AA_?$AAc?$AAa?$AAs?$AAt?$AA?$DM?$AAu?$AAi?$AAn?$AAt?$AAp?$AAt?$AAr?$AA_?$AAt?$AA?5?$AA?$CK?$AA?$DO?$AA?$CI?$AA_@ 00000001402857a0     Application.obj
 0003:0004d860       ??_C@_0BL@OCKMEJON@_Ptr_container?5?$DM?5_Ptr_user?$AA@ 0000000140285860     Application.obj
 0003:0004d880       ??_C@_1EE@PDHAHDDC@?$AA?$CC?$AA_?$AAP?$AAt?$AAr?$AA_?$AAc?$AAo?$AAn?$AAt?$AAa?$AAi?$AAn?$AAe?$AAr?$AA?5?$AA?$DM?$AA?5?$AA_?$AAP?$AAt?$AAr?$AA_?$AAu?$AAs?$AAe?$AAr?$AA?$CC?$AA?5?$AA?$CG?$AA?$CG?$AA?5@ 0000000140285880     Application.obj
 0003:0004d8d8       ??_C@_0DB@GLFJLNCE@2?5?$CK?5sizeof?$CIvoid?5?$CK?$CJ?5?$DM?$DN?5_Ptr_user?5@ 00000001402858d8     Application.obj
 0003:0004d920       ??_C@_1HA@NAPGMHAO@?$AA?$CC?$AA2?$AA?5?$AA?$CK?$AA?5?$AAs?$AAi?$AAz?$AAe?$AAo?$AAf?$AA?$CI?$AAv?$AAo?$AAi?$AAd?$AA?5?$AA?$CK?$AA?$CJ?$AA?5?$AA?$DM?$AA?$DN?$AA?5?$AA_?$AAP?$AAt?$AAr?$AA_?$AAu?$AAs?$AAe?$AAr@ 0000000140285920     Application.obj
 0003:0004d9a8       ??_C@_0CN@BLHJCAL@_Ptr_user?5?9?5_Ptr_container?5?$DM?$DN?5_N@ 00000001402859a8     Application.obj
 0003:0004d9e0       ??_C@_1GI@DHJGPFNI@?$AA?$CC?$AA_?$AAP?$AAt?$AAr?$AA_?$AAu?$AAs?$AAe?$AAr?$AA?5?$AA?9?$AA?5?$AA_?$AAP?$AAt?$AAr?$AA_?$AAc?$AAo?$AAn?$AAt?$AAa?$AAi?$AAn?$AAe?$AAr?$AA?5?$AA?$DM?$AA?$DN?$AA?5?$AA_@ 00000001402859e0     Application.obj
 0003:0004da68       ??_7CApplication@Client@@6B@ 0000000140285a68     Application.obj
 0003:0004da80       ??_C@_1EO@EGCHHAPA@?$AAC?$AAA?$AAp?$AAp?$AAl?$AAi?$AAc?$AAa?$AAt?$AAi?$AAo?$AAn?$AA?3?$AA?3?$AAO?$AAp?$AAe?$AAn?$AA_?$AAL?$AAe?$AAv?$AAe?$AAl?$AA?5?$AA?3?$AA?5?$AAi?$AAn?$AAd?$AAe?$AAx@ 0000000140285a80     Application.obj
 0003:0004dae0       ??_C@_1BA@HHOMBECE@?$AAM?$AAe?$AAs?$AAs?$AAa?$AAg?$AAe?$AA?$AA@ 0000000140285ae0     Application.obj
 0003:0004daf8       ??_C@_1CG@COFFFCLL@?$AAp?$AAr?$AAo?$AAt?$AAo?$AA_?$AAc?$AAo?$AAm?$AA_?$AAr?$AAe?$AAn?$AAd?$AAe?$AAr?$AAe?$AAr?$AA?$AA@ 0000000140285af8     Application.obj
 0003:0004db28       ??_C@_1CI@MLEFGO@?$AAp?$AAr?$AAo?$AAt?$AAo?$AA_?$AAc?$AAo?$AAm?$AA_?$AAt?$AAr?$AAa?$AAn?$AAs?$AAf?$AAo?$AAr?$AAm?$AA?$AA@ 0000000140285b28     Application.obj
 0003:0004db58       ??_C@_1DA@BAIPNHMH@?$AAp?$AAr?$AAo?$AAt?$AAo?$AA_?$AAc?$AAo?$AAm?$AA_?$AAv?$AAi?$AAb?$AAu?$AAf?$AAf?$AAe?$AAr?$AA_?$AAr?$AAe?$AAc?$AAt?$AA?$AA@ 0000000140285b58     Application.obj
 0003:0004dba0       ??_C@_1EA@BKKMAJND@?$AA?4?$AA?4?$AA?1?$AA?4?$AA?4?$AA?1?$AAS?$AAh?$AAa?$AAd?$AAe?$AAr?$AA?1?$AAS?$AAH?$AAA?$AAD?$AAE?$AAR?$AA_?$AAV?$AAT?$AAX?$AAT?$AAE?$AAX?$AA?4?$AAh?$AAl?$AAs?$AAl?$AA?$AA@ 0000000140285ba0     Application.obj
 0003:0004dbf0       ??_C@_1DA@NCILMLLP@?$AAp?$AAr?$AAo?$AAt?$AAo?$AA_?$AAc?$AAo?$AAm?$AA_?$AAs?$AAh?$AAa?$AAd?$AAe?$AAr?$AA_?$AAv?$AAt?$AAx?$AAt?$AAe?$AAx?$AA?$AA@ 0000000140285bf0     Application.obj
 0003:0004dc30       ??_C@_1DO@CINCJPKK@?$AA?4?$AA?4?$AA?1?$AA?4?$AA?4?$AA?1?$AAS?$AAh?$AAa?$AAd?$AAe?$AAr?$AA?1?$AAS?$AAH?$AAA?$AAD?$AAE?$AAR?$AA_?$AAG?$AAR?$AAO?$AAU?$AAD?$AA?4?$AAh?$AAl?$AAs?$AAl?$AA?$AA@ 0000000140285c30     Application.obj
 0003:0004dc80       ??_C@_1CO@OFELFMAI@?$AAp?$AAr?$AAo?$AAt?$AAo?$AA_?$AAc?$AAo?$AAm?$AA_?$AAs?$AAh?$AAa?$AAd?$AAe?$AAr?$AA_?$AAg?$AAr?$AAo?$AAu?$AAd?$AA?$AA@ 0000000140285c80     Application.obj
 0003:0004dcb8       ??_C@_1DO@JDLCNAEI@?$AA?4?$AA?4?$AA?1?$AA?4?$AA?4?$AA?1?$AAS?$AAh?$AAa?$AAd?$AAe?$AAr?$AA?1?$AAS?$AAH?$AAA?$AAD?$AAE?$AAR?$AA_?$AAP?$AAH?$AAO?$AAN?$AAG?$AA?4?$AAh?$AAl?$AAs?$AAl?$AA?$AA@ 0000000140285cb8     Application.obj
 0003:0004dd08       ??_C@_1CO@NGODBEOM@?$AAp?$AAr?$AAo?$AAt?$AAo?$AA_?$AAc?$AAo?$AAm?$AA_?$AAs?$AAh?$AAa?$AAd?$AAe?$AAr?$AA_?$AAp?$AAh?$AAo?$AAn?$AAg?$AA?$AA@ 0000000140285d08     Application.obj
 0003:0004dd40       ??_C@_1EE@OODBJPJH@?$AA?4?$AA?4?$AA?1?$AA?4?$AA?4?$AA?1?$AAS?$AAh?$AAa?$AAd?$AAe?$AAr?$AA?1?$AAS?$AAH?$AAA?$AAD?$AAE?$AAR?$AA_?$AAV?$AAT?$AAX?$AAM?$AAO?$AAD?$AAE?$AAL?$AA?4?$AAh?$AAl?$AAs@ 0000000140285d40     Application.obj
 0003:0004dd98       ??_C@_1DE@OMAPGAIH@?$AAp?$AAr?$AAo?$AAt?$AAo?$AA_?$AAc?$AAo?$AAm?$AA_?$AAs?$AAh?$AAa?$AAd?$AAe?$AAr?$AA_?$AAv?$AAt?$AAx?$AAm?$AAo?$AAd?$AAe?$AAl?$AA?$AA@ 0000000140285d98     Application.obj
 0003:0004dde0       ??_C@_1FI@GIHKFDKM@?$AA?4?$AA?4?$AA?1?$AA?4?$AA?4?$AA?1?$AAR?$AAe?$AAs?$AAo?$AAu?$AAr?$AAc?$AAe?$AA?1?$AAT?$AAe?$AAx?$AAt?$AAu?$AAr?$AAe?$AA?1?$AAI?$AAm?$AAa?$AAg?$AAe?$AA?1?$AAb?$AAa?$AAc@ 0000000140285de0     Application.obj
 0003:0004de50       ??_C@_1DK@HBIABGPG@?$AAp?$AAr?$AAo?$AAt?$AAo?$AA_?$AAc?$AAo?$AAm?$AA_?$AAt?$AAe?$AAx?$AAt?$AAu?$AAr?$AAe?$AA_?$AAb?$AAa?$AAc?$AAk?$AAg?$AAr?$AAo?$AAu?$AAn?$AAd?$AA?$AA@ 0000000140285e50     Application.obj
 0003:0004de98       ??_C@_1DC@LOADEEJN@?$AAp?$AAr?$AAo?$AAt?$AAo?$AA_?$AAo?$AAb?$AAj?$AA_?$AAd?$AAy?$AAn?$AAa?$AAm?$AAi?$AAc?$AA_?$AAc?$AAa?$AAm?$AAe?$AAr?$AAa?$AA?$AA@ 0000000140285e98     Application.obj
 0003:0004ded8       ??_C@_1CK@EFMCMFNH@?$AAp?$AAr?$AAo?$AAt?$AAo?$AA_?$AAo?$AAb?$AAj?$AA_?$AAb?$AAa?$AAc?$AAk?$AAg?$AAr?$AAo?$AAu?$AAn?$AAd?$AA?$AA@ 0000000140285ed8     Application.obj
 0003:0004df10       ??_C@_1BO@LDNAOHLB@?$AAp?$AAr?$AAo?$AAt?$AAo?$AA_?$AAo?$AAb?$AAj?$AA_?$AAw?$AAa?$AAl?$AAl?$AA?$AA@ 0000000140285f10     Application.obj
 0003:0004df38       ??_C@_0DD@CJDBPOFC@c?3?2github?2framework?2client?2priva@ 0000000140285f38     Application.obj
 0003:0004df80       ??_C@_1EA@NHBKHCID@?$AAF?$AAa?$AAi?$AAl?$AAe?$AAd?$AA?5?$AAt?$AAo?$AA?5?$AAC?$AAr?$AAe?$AAa?$AAt?$AAe?$AA?5?$AA?3?$AA?5?$AAC?$AAA?$AAp?$AAp?$AAl?$AAi?$AAc?$AAa?$AAt?$AAi?$AAo?$AAn?$AA?$AA@ 0000000140285f80     Application.obj
 0003:0004dfd0       ??_C@_1IO@EADHKMNI@?$AAc?$AA?3?$AA?2?$AAp?$AAr?$AAo?$AAg?$AAr?$AAa?$AAm?$AA?5?$AAf?$AAi?$AAl?$AAe?$AAs?$AA?5?$AA?$CI?$AAx?$AA8?$AA6?$AA?$CJ?$AA?2?$AAm?$AAi?$AAc?$AAr?$AAo?$AAs?$AAo?$AAf?$AAt@ 0000000140285fd0     Application.obj
 0003:0004e080       ??_C@_0BA@JFNIOLAK@string?5too?5long?$AA@ 0000000140286080     Application.obj
 0003:0004e098       ??_C@_0BI@CFPLBAOH@invalid?5string?5position?$AA@ 0000000140286098     Application.obj
 0003:0004e0b8       ??_C@_1CK@EOPGIILJ@?$AAi?$AAn?$AAv?$AAa?$AAl?$AAi?$AAd?$AA?5?$AAn?$AAu?$AAl?$AAl?$AA?5?$AAp?$AAo?$AAi?$AAn?$AAt?$AAe?$AAr?$AA?$AA@ 00000001402860b8     Application.obj
 0003:0004e228       ?npos@?$basic_string@_WU?$char_traits@_W@std@@V?$allocator@_W@2@@std@@2_KB 0000000140286228     ApplicationManager.obj
 0003:0004e240       ??_7CApplicationManager@Client@@6B@ 0000000140286240     ApplicationManager.obj
 0003:0004e258       ??_C@_0DK@COACHENJ@c?3?2github?2framework?2client?2priva@ 0000000140286258     ApplicationManager.obj
 0003:0004e8e0       ??_C@_1JE@DMOBBMDE@?$AAc?$AA?3?$AA?2?$AAp?$AAr?$AAo?$AAg?$AAr?$AAa?$AAm?$AA?5?$AAf?$AAi?$AAl?$AAe?$AAs?$AA?5?$AA?$CI?$AAx?$AA8?$AA6?$AA?$CJ?$AA?2?$AAw?$AAi?$AAn?$AAd?$AAo?$AAw?$AAs?$AA?5?$AAk@ 00000001402868e0     BackGround.obj
 0003:0004e998       ??_C@_1BK@FHLBGAOP@?$AAp?$AAD?$AAe?$AAs?$AAt?$AAi?$AAn?$AAa?$AAt?$AAi?$AAo?$AAn?$AA?$AA@ 0000000140286998     BackGround.obj
 0003:0004e9c0       ??_C@_1JC@EJCKKKJP@?$AAc?$AA?3?$AA?2?$AAp?$AAr?$AAo?$AAg?$AAr?$AAa?$AAm?$AA?5?$AAf?$AAi?$AAl?$AAe?$AAs?$AA?5?$AA?$CI?$AAx?$AA8?$AA6?$AA?$CJ?$AA?2?$AAw?$AAi?$AAn?$AAd?$AAo?$AAw?$AAs?$AA?5?$AAk@ 00000001402869c0     BackGround.obj
 0003:0004ea70       ??_C@_1FM@GHGDCEAE@?$AA?$CB?$AAX?$AAM?$AAS?$AAc?$AAa?$AAl?$AAa?$AAr?$AAN?$AAe?$AAa?$AAr?$AAE?$AAq?$AAu?$AAa?$AAl?$AA?$CI?$AAV?$AAi?$AAe?$AAw?$AAW?$AAi?$AAd?$AAt?$AAh?$AA?0?$AA?5?$AA0?$AA?4@ 0000000140286a70     BackGround.obj
 0003:0004eae0       ??_C@_1FO@OGFPCKGG@?$AA?$CB?$AAX?$AAM?$AAS?$AAc?$AAa?$AAl?$AAa?$AAr?$AAN?$AAe?$AAa?$AAr?$AAE?$AAq?$AAu?$AAa?$AAl?$AA?$CI?$AAV?$AAi?$AAe?$AAw?$AAH?$AAe?$AAi?$AAg?$AAh?$AAt?$AA?0?$AA?5?$AA0@ 0000000140286ae0     BackGround.obj
 0003:0004eb50       ??_C@_1FE@IMEJOJAH@?$AA?$CB?$AAX?$AAM?$AAS?$AAc?$AAa?$AAl?$AAa?$AAr?$AAN?$AAe?$AAa?$AAr?$AAE?$AAq?$AAu?$AAa?$AAl?$AA?$CI?$AAF?$AAa?$AAr?$AAZ?$AA?0?$AA?5?$AAN?$AAe?$AAa?$AAr?$AAZ?$AA?0?$AA?5@ 0000000140286b50     BackGround.obj
 0003:0004ebc0       ??_7CBackGround@Client@@6B@ 0000000140286bc0     BackGround.obj
 0003:0004ec18       ??_C@_1BK@GIOMOCNE@?$AAc?$AAo?$AAm?$AA_?$AAr?$AAe?$AAn?$AAd?$AAe?$AAr?$AAe?$AAr?$AA?$AA@ 0000000140286c18     BackGround.obj
 0003:0004ec38       ??_C@_1BK@GKOIFCHG@?$AAc?$AAo?$AAm?$AA_?$AAv?$AAi?$AAb?$AAu?$AAf?$AAf?$AAe?$AAr?$AA?$AA@ 0000000140286c38     BackGround.obj
 0003:0004ec58       ??_C@_1BG@GGOMMBBL@?$AAc?$AAo?$AAm?$AA_?$AAs?$AAh?$AAa?$AAd?$AAe?$AAr?$AA?$AA@ 0000000140286c58     BackGround.obj
 0003:0004ec78       ??_C@_1BI@MJAKLHOB@?$AAc?$AAo?$AAm?$AA_?$AAt?$AAe?$AAx?$AAt?$AAu?$AAr?$AAe?$AA?$AA@ 0000000140286c78     BackGround.obj
 0003:0004ec98       ??_C@_0O@PFNLPMLD@g_WorldMatrix?$AA@ 0000000140286c98     BackGround.obj
 0003:0004eca8       ??_C@_0N@ELIMCBLG@g_ViewMatrix?$AA@ 0000000140286ca8     BackGround.obj
 0003:0004ecb8       ??_C@_0N@OOHDPIO@g_ProjMatrix?$AA@ 0000000140286cb8     BackGround.obj
 0003:0004ecc8       ??_C@_09HCHKCCII@g_Texture?$AA@ 0000000140286cc8     BackGround.obj
 0003:0004ecd8       ??_C@_0DC@DBFIDOKM@c?3?2github?2framework?2client?2priva@ 0000000140286cd8     BackGround.obj
 0003:0004ed18       ??_C@_1DO@OAINKLME@?$AAF?$AAa?$AAi?$AAl?$AAe?$AAd?$AA?5?$AAt?$AAo?$AA?5?$AAC?$AAr?$AAe?$AAa?$AAt?$AAe?$AA?5?$AA?3?$AA?5?$AAC?$AAB?$AAa?$AAc?$AAk?$AAG?$AAr?$AAo?$AAu?$AAn?$AAd?$AA?$AA@ 0000000140286d18     BackGround.obj
 0003:0004ed68       ??_C@_1DM@PDOBCLFK@?$AAF?$AAa?$AAi?$AAl?$AAe?$AAd?$AA?5?$AAt?$AAo?$AA?5?$AAC?$AAl?$AAo?$AAn?$AAe?$AA?5?$AA?3?$AA?5?$AAC?$AAB?$AAa?$AAc?$AAk?$AAG?$AAr?$AAo?$AAu?$AAn?$AAd?$AA?$AA@ 0000000140286d68     BackGround.obj
 0003:0004edb0       __real@44200000            0000000140286db0     BackGround.obj
 0003:0004edb4       __real@44340000            0000000140286db4     BackGround.obj
 0003:0004edb8       __real@44a00000            0000000140286db8     BackGround.obj
 0003:0004edc0       __xmm@00000000000000000000000000000000 0000000140286dc0     BackGround.obj
 0003:0004ede0       ??_7CBoss@Client@@6B@      0000000140286de0     Boss.obj
 0003:0004efa0       ??_7CDynamicCamera@Client@@6B@ 0000000140286fa0     DynamicCamera.obj
 0003:0004eff8       ??_C@_0DF@FCNNPOIE@c?3?2github?2framework?2client?2priva@ 0000000140286ff8     DynamicCamera.obj
 0003:0004f040       ??_C@_1EG@ONDHAHNI@?$AAF?$AAa?$AAi?$AAl?$AAe?$AAd?$AA?5?$AAt?$AAo?$AA?5?$AAC?$AAr?$AAe?$AAa?$AAt?$AAe?$AAd?$AA?5?$AA?3?$AA?5?$AAC?$AAD?$AAy?$AAn?$AAa?$AAm?$AAi?$AAc?$AAC?$AAa?$AAm?$AAe@ 0000000140287040     DynamicCamera.obj
 0003:0004f0a0       ??_C@_1EE@HFNGJJK@?$AAF?$AAa?$AAi?$AAl?$AAe?$AAd?$AA?5?$AAt?$AAo?$AA?5?$AAC?$AAl?$AAo?$AAn?$AAe?$AAd?$AA?5?$AA?3?$AA?5?$AAC?$AAD?$AAy?$AAn?$AAa?$AAm?$AAi?$AAc?$AAC?$AAa?$AAm?$AAe?$AAr@ 00000001402870a0     DynamicCamera.obj
 0003:0004f0f8       __real@3fb99999a0000000    00000001402870f8     DynamicCamera.obj
 0003:0004f948       ??_C@_1BA@LBADLIHI@?$AAp?$AAS?$AAo?$AAu?$AAr?$AAc?$AAe?$AA?$AA@ 0000000140287948     Enemy.obj
 0003:0004f968       ??_7CEnemy@Client@@6BCGameObject@Engine@@@ 0000000140287968     Enemy.obj
 0003:0004f9d8       ??_7CEnemy@Client@@6BIOnCollisionEnter@Engine@@@ 00000001402879d8     Enemy.obj
 0003:0004f9f0       ??_7CEnemy@Client@@6BIOnCollisionStay@Engine@@@ 00000001402879f0     Enemy.obj
 0003:0004fa08       ??_7CEnemy@Client@@6BIOnCollisionExit@Engine@@@ 0000000140287a08     Enemy.obj
 0003:0004fa18       ??_C@_1BM@CJMPMHDD@?$AAc?$AAo?$AAm?$AA_?$AAt?$AAr?$AAa?$AAn?$AAs?$AAf?$AAo?$AAr?$AAm?$AA?$AA@ 0000000140287a18     Enemy.obj
 0003:0004fa40       ??_C@_0N@EDEIEADG@Bip001Pelvis?$AA@ 0000000140287a40     Enemy.obj
 0003:0004fa50       ??_C@_0L@KMOGLACE@BulletCase?$AA@ 0000000140287a50     Enemy.obj
 0003:0004fa60       ??_C@_06HFDDOAAP@Bip001?$AA@ 0000000140287a60     Enemy.obj
 0003:0004fa68       ??_C@_05KKFOKGIE@Cheek?$AA@ 0000000140287a68     Enemy.obj
 0003:0004fa70       ??_C@_07ICGMBDOO@Cheek01?$AA@ 0000000140287a70     Enemy.obj
 0003:0004fa80       ??_C@_0BB@FMIBAICL@g_DiffuseTexture?$AA@ 0000000140287a80     Enemy.obj
 0003:0004fa98       ??_C@_0N@OEHGEODD@g_BoneMatrix?$AA@ 0000000140287a98     Enemy.obj
 0003:0004faa8       ??_C@_1DM@OGMOEMJ@?$AAp?$AAr?$AAo?$AAt?$AAo?$AA_?$AAc?$AAo?$AAm?$AA_?$AAs?$AAh?$AAa?$AAd?$AAe?$AAr?$AA_?$AAv?$AAt?$AAx?$AAa?$AAn?$AAi?$AAm?$AAm?$AAo?$AAd?$AAe?$AAl?$AA?$AA@ 0000000140287aa8     Enemy.obj
 0003:0004faf0       ??_C@_1BE@MLNOEPCA@?$AAc?$AAo?$AAm?$AA_?$AAm?$AAo?$AAd?$AAe?$AAl?$AA?$AA@ 0000000140287af0     Enemy.obj
 0003:0004fb08       ??_C@_1DA@JHHOCPPA@?$AAp?$AAr?$AAo?$AAt?$AAo?$AA_?$AAc?$AAo?$AAm?$AA_?$AAm?$AAo?$AAd?$AAe?$AAl?$AA_?$AAe?$AAn?$AAe?$AAm?$AAy?$AA0?$AA1?$AA?$AA@ 0000000140287b08     Enemy.obj
 0003:0004fb48       ??_C@_1DA@IFMLIABO@?$AAp?$AAr?$AAo?$AAt?$AAo?$AA_?$AAc?$AAo?$AAm?$AA_?$AAm?$AAo?$AAd?$AAe?$AAl?$AA_?$AAe?$AAn?$AAe?$AAm?$AAy?$AA0?$AA2?$AA?$AA@ 0000000140287b48     Enemy.obj
 0003:0004fb88       ??_C@_1BK@BKCENIHA@?$AAc?$AAo?$AAm?$AA_?$AAc?$AAo?$AAl?$AAl?$AAi?$AAd?$AAe?$AAr?$AA?$AA@ 0000000140287b88     Enemy.obj
 0003:0004fba8       ??_C@_1CO@HJBGOIAH@?$AAp?$AAr?$AAo?$AAt?$AAo?$AA_?$AAc?$AAo?$AAm?$AA_?$AAo?$AAb?$AAb?$AA_?$AAc?$AAo?$AAl?$AAl?$AAi?$AAd?$AAe?$AAr?$AA?$AA@ 0000000140287ba8     Enemy.obj
 0003:0004fbe0       ??_C@_1CE@JKMOMFCH@?$AAc?$AAo?$AAm?$AA_?$AAc?$AAo?$AAl?$AAl?$AAd?$AAe?$AAr?$AA_?$AAe?$AAn?$AAe?$AAm?$AAy?$AA?$AA@ 0000000140287be0     Enemy.obj
 0003:0004fc10       ??_C@_1DE@OCAJEKIC@?$AAp?$AAr?$AAo?$AAt?$AAo?$AA_?$AAc?$AAo?$AAm?$AA_?$AAs?$AAp?$AAh?$AAe?$AAr?$AAe?$AA_?$AAc?$AAo?$AAl?$AAl?$AAi?$AAd?$AAe?$AAr?$AA?$AA@ 0000000140287c10     Enemy.obj
 0003:0004fc50       ??_C@_1CG@CHKGKHGN@?$AAc?$AAo?$AAm?$AA_?$AAc?$AAo?$AAl?$AAl?$AAd?$AAe?$AAr?$AA_?$AAw?$AAe?$AAa?$AAp?$AAo?$AAn?$AA?$AA@ 0000000140287c50     Enemy.obj
 0003:0004fc80       ??_C@_0P@BDEIJKBM@g_vCamPosition?$AA@ 0000000140287c80     Enemy.obj
 0003:0004fc98       ??_C@_0M@NHGOLGEL@g_vLightDir?$AA@ 0000000140287c98     Enemy.obj
 0003:0004fca8       ??_C@_0BA@PCOGIHOF@g_vLightDiffuse?$AA@ 0000000140287ca8     Enemy.obj
 0003:0004fcc0       ??_C@_0BB@IJIIKIH@g_vLightSpecular?$AA@ 0000000140287cc0     Enemy.obj
 0003:0004fcd8       ??_C@_0BA@EALGDMPJ@g_vLightAmbient?$AA@ 0000000140287cd8     Enemy.obj
 0003:0004fcf0       ??_C@_0CN@NPIBGABL@c?3?2github?2framework?2client?2priva@ 0000000140287cf0     Enemy.obj
 0003:0004fd28       ??_C@_1DE@HGPPJNOD@?$AAF?$AAa?$AAi?$AAl?$AAe?$AAd?$AA?5?$AAt?$AAo?$AA?5?$AAC?$AAr?$AAe?$AAa?$AAt?$AAe?$AA?5?$AA?3?$AA?5?$AAC?$AAE?$AAn?$AAe?$AAm?$AAy?$AA?$AA@ 0000000140287d28     Enemy.obj
 0003:0004fd68       ??_C@_1DC@DLCINEP@?$AAF?$AAa?$AAi?$AAl?$AAe?$AAd?$AA?5?$AAt?$AAo?$AA?5?$AAC?$AAl?$AAo?$AAn?$AAe?$AA?5?$AA?3?$AA?5?$AAC?$AAE?$AAn?$AAe?$AAm?$AAy?$AA?$AA@ 0000000140287d68     Enemy.obj
 0003:0004fda8       __real@3fb999999999999a    0000000140287da8     Enemy.obj
 0003:0004fdb8       __real@3fd999999999999a    0000000140287db8     Enemy.obj
 0003:0004fdc8       __real@3fe999999999999a    0000000140287dc8     Enemy.obj
 0003:0004fdd4       __real@42340000            0000000140287dd4     Enemy.obj
 0003:0004fdd8       __real@457a0000            0000000140287dd8     Enemy.obj
 0003:0004fddc       __real@bf4ccccd            0000000140287ddc     Enemy.obj
 0003:0004fff0       ??_7CFreezeArea@Client@@6B@ 0000000140287ff0     FreezeArea.obj
 0003:00050048       ??_C@_1DI@NHDKGLND@?$AAp?$AAr?$AAo?$AAt?$AAo?$AA_?$AAc?$AAo?$AAm?$AA_?$AAm?$AAo?$AAd?$AAe?$AAl?$AA_?$AAf?$AAr?$AAe?$AAe?$AAz?$AAe?$AA_?$AAa?$AAr?$AAe?$AAa?$AA?$AA@ 0000000140288048     FreezeArea.obj
 0003:00050090       ??_C@_0DC@NIPOEKCE@c?3?2github?2framework?2client?2priva@ 0000000140288090     FreezeArea.obj
 0003:000500d0       ??_C@_1DO@LPFJJOBC@?$AAF?$AAa?$AAi?$AAl?$AAe?$AAd?$AA?5?$AAt?$AAo?$AA?5?$AAC?$AAr?$AAe?$AAa?$AAt?$AAe?$AA?5?$AA?3?$AA?5?$AAC?$AAF?$AAr?$AAe?$AAe?$AAz?$AAe?$AAA?$AAr?$AAe?$AAa?$AA?$AA@ 00000001402880d0     FreezeArea.obj
 0003:00050120       ??_C@_1DM@KMDFBOIM@?$AAF?$AAa?$AAi?$AAl?$AAe?$AAd?$AA?5?$AAt?$AAo?$AA?5?$AAC?$AAl?$AAo?$AAn?$AAe?$AA?5?$AA?3?$AA?5?$AAC?$AAF?$AAr?$AAe?$AAe?$AAz?$AAe?$AAA?$AAr?$AAe?$AAa?$AA?$AA@ 0000000140288120     FreezeArea.obj
 0003:00050168       __real@4008000000000000    0000000140288168     FreezeArea.obj
 0003:00050178       __real@401c000000000000    0000000140288178     FreezeArea.obj
 0003:000501c0       ??_7CImGUIManager@Client@@6B@ 00000001402881c0     ImGUIManager.obj
 0003:000501d8       ??_C@_0DE@JOINJLJN@c?3?2github?2framework?2client?2priva@ 00000001402881d8     ImGUIManager.obj
 0003:00050218       ??_C@_05MPDBFDHF@Frame?$AA@ 0000000140288218     ImGUIManager.obj
 0003:00050220       ??_C@_0BJ@FHAPJNML@?$CF?43f?5ms?1frame?5?$CI?$CF?41f?5FPS?$CJ?$AA@ 0000000140288220     ImGUIManager.obj
 0003:00050240       __real@43520000            0000000140288240     ImGUIManager.obj
 0003:00050244       __real@442c8000            0000000140288244     ImGUIManager.obj
 0003:00051af0       ??_C@_1JA@MHADJNIL@?$AAc?$AA?3?$AA?2?$AAp?$AAr?$AAo?$AAg?$AAr?$AAa?$AAm?$AA?5?$AAf?$AAi?$AAl?$AAe?$AAs?$AA?5?$AA?$CI?$AAx?$AA8?$AA6?$AA?$CJ?$AA?2?$AAm?$AAi?$AAc?$AAr?$AAo?$AAs?$AAo?$AAf?$AAt@ 0000000140289af0     Character.obj
 0003:00051ba0       ??_C@_1DC@POOIKBAO@?$AAI?$AAT?$AAE?$AAR?$AAA?$AAT?$AAO?$AAR?$AA?5?$AAL?$AAI?$AAS?$AAT?$AA?5?$AAC?$AAO?$AAR?$AAR?$AAU?$AAP?$AAT?$AAE?$AAD?$AA?$CB?$AA?$AA@ 0000000140289ba0     Character.obj
 0003:00051be8       ??_7CCharacter@Client@@6BCGameObject@Engine@@@ 0000000140289be8     Character.obj
 0003:00051c48       ??_7CCharacter@Client@@6BIOnCollisionEnter@Engine@@@ 0000000140289c48     Character.obj
 0003:00051c60       ??_7CCharacter@Client@@6BIOnCollisionStay@Engine@@@ 0000000140289c60     Character.obj
 0003:00051c78       ??_7CCharacter@Client@@6BIOnCollisionExit@Engine@@@ 0000000140289c78     Character.obj
 0003:00051c88       ??_C@_1M@IOKMPPAD@?$AAC?$AAo?$AAm?$AAb?$AAo?$AA?$AA@ 0000000140289c88     Character.obj
 0003:00051c98       ??_C@_0M@CNNLLOGJ@WeaponCase1?$AA@ 0000000140289c98     Character.obj
 0003:00051ca8       ??_C@_09MKLAHOHG@Transform?$AA@ 0000000140289ca8     Character.obj
 0003:00051cb8       ??_C@_0BB@HHKNPKPE@Look?5Enemy?5index?$AA@ 0000000140289cb8     Character.obj
 0003:00051cd0       ??_C@_1O@KBDJEHME@?$AAw?$AAe?$AAa?$AAp?$AAo?$AAn?$AA?$AA@ 0000000140289cd0     Character.obj
 0003:00051ce0       ??_C@_1BK@GHBIGCAP@?$AAk?$AAa?$AAm?$AAu?$AAi?$AA_?$AAw?$AAe?$AAa?$AAp?$AAo?$AAn?$AA?$AA@ 0000000140289ce0     Character.obj
 0003:00051d00       ??_C@_1CO@CGCPHPFJ@?$AAp?$AAr?$AAo?$AAt?$AAo?$AA_?$AAo?$AAb?$AAj?$AA_?$AAk?$AAa?$AAm?$AAu?$AAi?$AA_?$AAw?$AAe?$AAa?$AAp?$AAo?$AAn?$AA?$AA@ 0000000140289d00     Character.obj
 0003:00051d38       ??_C@_1DI@OLGFHDLM@?$AAc?$AAo?$AAm?$AA_?$AAc?$AAa?$AAm?$AAe?$AAr?$AAa?$AA_?$AAs?$AAo?$AAc?$AAk?$AAe?$AAt?$AA_?$AAt?$AAr?$AAa?$AAn?$AAs?$AAf?$AAo?$AAr?$AAm?$AA?$AA@ 0000000140289d38     Character.obj
 0003:00051d80       ??_C@_1CM@JLJGBIPF@?$AAp?$AAr?$AAo?$AAt?$AAo?$AA_?$AAc?$AAo?$AAm?$AA_?$AAm?$AAo?$AAd?$AAe?$AAl?$AA_?$AAk?$AAa?$AAm?$AAu?$AAi?$AA?$AA@ 0000000140289d80     Character.obj
 0003:00051db8       ??_C@_1DA@OIAGLBGD@?$AAc?$AAo?$AAm?$AA_?$AAc?$AAo?$AAl?$AAl?$AAi?$AAd?$AAe?$AAr?$AA_?$AAd?$AAa?$AAs?$AAh?$AA_?$AAc?$AAh?$AAe?$AAc?$AAk?$AA?$AA@ 0000000140289db8     Character.obj
 0003:00051df8       ??_C@_1CO@LHGMILBP@?$AAc?$AAo?$AAm?$AA_?$AAc?$AAo?$AAl?$AAl?$AAi?$AAd?$AAe?$AAr?$AA_?$AAw?$AAa?$AAl?$AAl?$AAc?$AAh?$AAe?$AAc?$AAk?$AA?$AA@ 0000000140289df8     Character.obj
 0003:00051e30       ??_C@_1CG@PIKBMFHB@?$AAc?$AAo?$AAm?$AA_?$AAc?$AAo?$AAl?$AAl?$AAi?$AAd?$AAe?$AAr?$AA_?$AAc?$AAh?$AAe?$AAc?$AAk?$AA?$AA@ 0000000140289e30     Character.obj
 0003:00051e60       ??_C@_1CI@IHCMGACE@?$AAc?$AAo?$AAm?$AA_?$AAc?$AAo?$AAl?$AAl?$AAi?$AAd?$AAe?$AAr?$AA_?$AAw?$AAe?$AAa?$AAp?$AAo?$AAn?$AA?$AA@ 0000000140289e60     Character.obj
 0003:00051e90       ??_C@_0DB@KEEMDFNK@c?3?2github?2framework?2client?2priva@ 0000000140289e90     Character.obj
 0003:00051ed0       ??_C@_1DM@POIPCDHF@?$AAF?$AAa?$AAi?$AAl?$AAe?$AAd?$AA?5?$AAt?$AAo?$AA?5?$AAC?$AAr?$AAe?$AAa?$AAt?$AAe?$AA?5?$AA?3?$AA?5?$AAC?$AAC?$AAh?$AAa?$AAr?$AAa?$AAc?$AAt?$AAe?$AAr?$AA?$AA@ 0000000140289ed0     Character.obj
 0003:00051f18       ??_C@_1DK@OGEHDLHF@?$AAF?$AAa?$AAi?$AAl?$AAe?$AAd?$AA?5?$AAt?$AAo?$AA?5?$AAC?$AAl?$AAo?$AAn?$AAe?$AA?5?$AA?3?$AA?5?$AAC?$AAC?$AAh?$AAa?$AAr?$AAa?$AAc?$AAt?$AAe?$AAr?$AA?$AA@ 0000000140289f18     Character.obj
 0003:00051f60       ??_C@_1O@FEGOGPBC@?$AA1?$AA4?$AA4?$AAF?$AAP?$AAS?$AA?$AA@ 0000000140289f60     Character.obj
 0003:00051f70       ??_C@_0CE@OFMIGAMM@Standard?5C?$CL?$CL?5Libraries?5Out?5of?5Ra@ 0000000140289f70     Character.obj
 0003:00051fa0       ??_C@_1FG@IBPIFFN@?$AA?$CC?$AAS?$AAt?$AAa?$AAn?$AAd?$AAa?$AAr?$AAd?$AA?5?$AAC?$AA?$CL?$AA?$CL?$AA?5?$AAL?$AAi?$AAb?$AAr?$AAa?$AAr?$AAi?$AAe?$AAs?$AA?5?$AAO?$AAu?$AAt?$AA?5?$AAo?$AAf?$AA?5?$AAR@ 0000000140289fa0     Character.obj
 0003:00052008       ??_C@_1BO@MEPPHOO@?$AA?$CC?$AAo?$AAu?$AAt?$AA?5?$AAo?$AAf?$AA?5?$AAr?$AAa?$AAn?$AAg?$AAe?$AA?$CC?$AA?$AA@ 000000014028a008     Character.obj
 0003:00052030       ??_C@_1II@MMKOEKPG@?$AAc?$AA?3?$AA?2?$AAp?$AAr?$AAo?$AAg?$AAr?$AAa?$AAm?$AA?5?$AAf?$AAi?$AAl?$AAe?$AAs?$AA?5?$AA?$CI?$AAx?$AA8?$AA6?$AA?$CJ?$AA?2?$AAm?$AAi?$AAc?$AAr?$AAo?$AAs?$AAo?$AAf?$AAt@ 000000014028a030     Character.obj
 0003:000520d8       ??_C@_1DI@MDELDGPI@?$AAl?$AAi?$AAs?$AAt?$AA?5?$AAi?$AAt?$AAe?$AAr?$AAa?$AAt?$AAo?$AAr?$AAs?$AA?5?$AAi?$AAn?$AAc?$AAo?$AAm?$AAp?$AAa?$AAt?$AAi?$AAb?$AAl?$AAe?$AA?$AA@ 000000014028a0d8     Character.obj
 0003:00052120       ??_C@_0CI@FNPHFCCM@Standard?5C?$CL?$CL?5Libraries?5Invalid?5A@ 000000014028a120     Character.obj
 0003:00052150       ??_C@_1FO@GJIHNDLM@?$AA?$CC?$AAS?$AAt?$AAa?$AAn?$AAd?$AAa?$AAr?$AAd?$AA?5?$AAC?$AA?$CL?$AA?$CL?$AA?5?$AAL?$AAi?$AAb?$AAr?$AAa?$AAr?$AAi?$AAe?$AAs?$AA?5?$AAI?$AAn?$AAv?$AAa?$AAl?$AAi?$AAd?$AA?5@ 000000014028a150     Character.obj
 0003:000521c0       ??_C@_1OO@NKANHGC@?$AAs?$AAt?$AAd?$AA?3?$AA?3?$AA_?$AAL?$AAi?$AAs?$AAt?$AA_?$AAc?$AAo?$AAn?$AAs?$AAt?$AA_?$AAi?$AAt?$AAe?$AAr?$AAa?$AAt?$AAo?$AAr?$AA?$DM?$AAc?$AAl?$AAa?$AAs?$AAs?$AA?5@ 000000014028a1c0     Character.obj
 0003:000522e0       ??_C@_1EA@DOGAGKDH@?$AAl?$AAi?$AAs?$AAt?$AA?5?$AAi?$AAt?$AAe?$AAr?$AAa?$AAt?$AAo?$AAr?$AA?5?$AAn?$AAo?$AAt?$AA?5?$AAi?$AAn?$AAc?$AAr?$AAe?$AAm?$AAe?$AAn?$AAt?$AAa?$AAb?$AAl?$AAe?$AA?$AA@ 000000014028a2e0     Character.obj
 0003:00052330       ??_C@_1OO@KNFNDOKH@?$AAs?$AAt?$AAd?$AA?3?$AA?3?$AA_?$AAL?$AAi?$AAs?$AAt?$AA_?$AAc?$AAo?$AAn?$AAs?$AAt?$AA_?$AAi?$AAt?$AAe?$AAr?$AAa?$AAt?$AAo?$AAr?$AA?$DM?$AAc?$AAl?$AAa?$AAs?$AAs?$AA?5@ 000000014028a330     Character.obj
 0003:00052450       ??_C@_1EC@HILJLMMC@?$AAl?$AAi?$AAs?$AAt?$AA?5?$AAi?$AAt?$AAe?$AAr?$AAa?$AAt?$AAo?$AAr?$AA?5?$AAn?$AAo?$AAt?$AA?5?$AAd?$AAe?$AAr?$AAe?$AAf?$AAe?$AAr?$AAe?$AAn?$AAc?$AAa?$AAb?$AAl?$AAe@ 000000014028a450     Character.obj
 0003:000524a0       ??_C@_1OM@MNHMDOGN@?$AAs?$AAt?$AAd?$AA?3?$AA?3?$AA_?$AAL?$AAi?$AAs?$AAt?$AA_?$AAc?$AAo?$AAn?$AAs?$AAt?$AA_?$AAi?$AAt?$AAe?$AAr?$AAa?$AAt?$AAo?$AAr?$AA?$DM?$AAc?$AAl?$AAa?$AAs?$AAs?$AA?5@ 000000014028a4a0     Character.obj
 0003:000525c0       ??_C@_1EE@BBMFLDOC@?$AAl?$AAi?$AAs?$AAt?$AA?5?$AAe?$AAr?$AAa?$AAs?$AAe?$AA?5?$AAi?$AAt?$AAe?$AAr?$AAa?$AAt?$AAo?$AAr?$AA?5?$AAo?$AAu?$AAt?$AAs?$AAi?$AAd?$AAe?$AA?5?$AAr?$AAa?$AAn?$AAg@ 000000014028a5c0     Character.obj
 0003:00052618       ??_C@_0BB@MOGOBHAF@list?$DMT?$DO?5too?5long?$AA@ 000000014028a618     Character.obj
 0003:0005262c       __real@3c8efa35            000000014028a62c     Character.obj
 0003:00052630       __real@3fc3333333333333    000000014028a630     Character.obj
 0003:00052640       __real@3fc3333340000000    000000014028a640     Character.obj
 0003:00052650       __real@3fc999999999999a    000000014028a650     Character.obj
 0003:00052660       __real@3fe199999999999a    000000014028a660     Character.obj
 0003:0005266c       __real@419c0000            000000014028a66c     Character.obj
 0003:00052670       __real@41fc0000            000000014028a670     Character.obj
 0003:00052674       __real@43660000            000000014028a674     Character.obj
 0003:00052678       __real@44fa0000            000000014028a678     Character.obj
 0003:00052890       ??_7CLevel_BossRoom@Client@@6B@ 000000014028a890     Level_BossRoom.obj
 0003:000528c8       ??_C@_1CC@EBLHBMD@?$AAl?$AAa?$AAy?$AAe?$AAr?$AA_?$AAb?$AAa?$AAc?$AAk?$AAg?$AAr?$AAo?$AAu?$AAn?$AAd?$AA?$AA@ 000000014028a8c8     Level_BossRoom.obj
 0003:000528f0       ??_C@_1BK@CFEAAEAA@?$AAl?$AAa?$AAy?$AAe?$AAr?$AA_?$AAp?$AAl?$AAa?$AAy?$AAe?$AAr?$AA?$AA@ 000000014028a8f0     Level_BossRoom.obj
 0003:00052910       ??_C@_1BI@DCFJMCMJ@?$AAl?$AAa?$AAy?$AAe?$AAr?$AA_?$AAe?$AAn?$AAe?$AAm?$AAy?$AA?$AA@ 000000014028a910     Level_BossRoom.obj
 0003:00052930       ??_C@_1BK@MMGLBCOB@?$AAl?$AAa?$AAy?$AAe?$AAr?$AA_?$AAc?$AAa?$AAm?$AAe?$AAr?$AAa?$AA?$AA@ 000000014028a930     Level_BossRoom.obj
 0003:00052950       ??_C@_1BO@GNGHHENH@?$AAL?$AAE?$AAV?$AAE?$AAL?$AA_?$AAG?$AAA?$AAM?$AAE?$AAP?$AAL?$AAA?$AAY?$AA?$AA@ 000000014028a950     Level_BossRoom.obj
 0003:00052978       ??_C@_17MMAGKGGK@?$AAs?$AAk?$AAy?$AA?$AA@ 000000014028a978     Level_BossRoom.obj
 0003:00052988       ??_C@_1BM@HAOMGLKF@?$AAp?$AAr?$AAo?$AAt?$AAo?$AA_?$AAo?$AAb?$AAj?$AA_?$AAs?$AAk?$AAy?$AA?$AA@ 000000014028a988     Level_BossRoom.obj
 0003:000529b0       ??_C@_1GM@JPHMCOFB@?$AAc?$AA?3?$AA?2?$AAg?$AAi?$AAt?$AAh?$AAu?$AAb?$AA?2?$AAf?$AAr?$AAa?$AAm?$AAe?$AAw?$AAo?$AAr?$AAk?$AA?2?$AAc?$AAl?$AAi?$AAe?$AAn?$AAt?$AA?2?$AAp?$AAr?$AAi?$AAv?$AAa@ 000000014028a9b0     Level_BossRoom.obj
 0003:00052a38       ??_C@_1BA@DNCJICGL@?$AAm?$AAP?$AAl?$AAa?$AAy?$AAe?$AAr?$AA?$AA@ 000000014028aa38     Level_BossRoom.obj
 0003:00052a50       ??_C@_1BM@KDGIOOAK@?$AAp?$AAl?$AAa?$AAy?$AAe?$AAr?$AA_?$AAc?$AAa?$AAm?$AAe?$AAr?$AAa?$AA?$AA@ 000000014028aa50     Level_BossRoom.obj
 0003:00052a78       ??_C@_1DA@CMIPDJDG@?$AAp?$AAr?$AAo?$AAt?$AAo?$AA_?$AAo?$AAb?$AAj?$AA_?$AAp?$AAl?$AAa?$AAy?$AAe?$AAr?$AA_?$AAc?$AAa?$AAm?$AAe?$AAr?$AAa?$AA?$AA@ 000000014028aa78     Level_BossRoom.obj
 0003:00052ab8       ??_C@_1M@LFOAAPEJ@?$AAk?$AAa?$AAm?$AAu?$AAi?$AA?$AA@ 000000014028aab8     Level_BossRoom.obj
 0003:00052ac8       ??_C@_1CA@GEPPBAML@?$AAp?$AAr?$AAo?$AAt?$AAo?$AA_?$AAo?$AAb?$AAj?$AA_?$AAk?$AAa?$AAm?$AAu?$AAi?$AA?$AA@ 000000014028aac8     Level_BossRoom.obj
 0003:00052af0       ??_C@_19DEJAIBMO@?$AAb?$AAo?$AAs?$AAs?$AA?$AA@ 000000014028aaf0     Level_BossRoom.obj
 0003:00052b00       ??_C@_1BO@JNCHEIKI@?$AAp?$AAr?$AAo?$AAt?$AAo?$AA_?$AAo?$AAb?$AAj?$AA_?$AAb?$AAo?$AAs?$AAs?$AA?$AA@ 000000014028ab00     Level_BossRoom.obj
 0003:00052b28       ??_C@_0DG@DCJOKBCJ@c?3?2github?2framework?2client?2priva@ 000000014028ab28     Level_BossRoom.obj
 0003:00052b70       ??_C@_1EG@LGMOCJCB@?$AAF?$AAa?$AAi?$AAl?$AAe?$AAd?$AA?5?$AAt?$AAo?$AA?5?$AAC?$AAr?$AAe?$AAa?$AAt?$AAe?$AA?5?$AA?3?$AA?5?$AAC?$AAL?$AAe?$AAv?$AAe?$AAl?$AA_?$AAB?$AAo?$AAs?$AAs?$AAR?$AAo@ 000000014028ab70     Level_BossRoom.obj
 0003:00052bc4       __real@c0a00000            000000014028abc4     Level_BossRoom.obj
 0003:00053290       ??_7CLevel_GamePlay@Client@@6B@ 000000014028b290     Level_GamePlay.obj
 0003:000532c8       ??_C@_1BG@ILAJFGLP@?$AAl?$AAa?$AAy?$AAe?$AAr?$AA_?$AAw?$AAa?$AAl?$AAl?$AA?$AA@ 000000014028b2c8     Level_GamePlay.obj
 0003:000532e8       ??_C@_1BK@BHJMDNLM@?$AAl?$AAa?$AAy?$AAe?$AAr?$AA_?$AAe?$AAf?$AAf?$AAe?$AAc?$AAt?$AA?$AA@ 000000014028b2e8     Level_GamePlay.obj
 0003:00053308       ??_C@_19GPIFDDKL@?$AAc?$AAi?$AAt?$AAy?$AA?$AA@ 000000014028b308     Level_GamePlay.obj
 0003:00053318       ??_C@_1BO@MGDCPKMN@?$AAp?$AAr?$AAo?$AAt?$AAo?$AA_?$AAo?$AAb?$AAj?$AA_?$AAc?$AAi?$AAt?$AAy?$AA?$AA@ 000000014028b318     Level_GamePlay.obj
 0003:00053340       ??_C@_1FM@JOEFOHML@?$AA?4?$AA?4?$AA?1?$AA?4?$AA?4?$AA?1?$AAC?$AAo?$AAl?$AAl?$AAi?$AAs?$AAi?$AAo?$AAn?$AAD?$AAa?$AAt?$AAa?$AA?1?$AAG?$AAa?$AAm?$AAe?$AAP?$AAl?$AAa?$AAy?$AAC?$AAo?$AAl?$AAl@ 000000014028b340     Level_GamePlay.obj
 0003:000533b0       ??_C@_1M@IBMBFLIE@?$AAw?$AAa?$AAl?$AAl?$AA_?$AA?$AA@ 000000014028b3b0     Level_GamePlay.obj
 0003:000533c0       ??_C@_1GM@NOPMCMLF@?$AAc?$AA?3?$AA?2?$AAg?$AAi?$AAt?$AAh?$AAu?$AAb?$AA?2?$AAf?$AAr?$AAa?$AAm?$AAe?$AAw?$AAo?$AAr?$AAk?$AA?2?$AAc?$AAl?$AAi?$AAe?$AAn?$AAt?$AA?2?$AAp?$AAr?$AAi?$AAv?$AAa@ 000000014028b3c0     Level_GamePlay.obj
 0003:00053448       ??_C@_1BA@HMAALIJI@?$AAe?$AAn?$AAe?$AAm?$AAy?$AA0?$AA1?$AA?$AA@ 000000014028b448     Level_GamePlay.obj
 0003:00053460       ??_C@_1CE@BAKEMOLJ@?$AAp?$AAr?$AAo?$AAt?$AAo?$AA_?$AAo?$AAb?$AAj?$AA_?$AAe?$AAn?$AAe?$AAm?$AAy?$AA0?$AA1?$AA?$AA@ 000000014028b460     Level_GamePlay.obj
 0003:00053490       ??_C@_1BA@GOLFBHHG@?$AAe?$AAn?$AAe?$AAm?$AAy?$AA0?$AA2?$AA?$AA@ 000000014028b490     Level_GamePlay.obj
 0003:000534a8       ??_C@_1BA@NGAJHABD@?$AAe?$AAn?$AAe?$AAm?$AAy?$AA0?$AA3?$AA?$AA@ 000000014028b4a8     Level_GamePlay.obj
 0003:000534c0       ??_C@_1CE@CBBGBFH@?$AAp?$AAr?$AAo?$AAt?$AAo?$AA_?$AAo?$AAb?$AAj?$AA_?$AAe?$AAn?$AAe?$AAm?$AAy?$AA0?$AA2?$AA?$AA@ 000000014028b4c0     Level_GamePlay.obj
 0003:000534f0       ??_C@_1BA@ELNOEIKK@?$AAe?$AAn?$AAe?$AAm?$AAy?$AA0?$AA4?$AA?$AA@ 000000014028b4f0     Level_GamePlay.obj
 0003:00053508       ??_C@_1BA@PDGCCPMP@?$AAe?$AAn?$AAe?$AAm?$AAy?$AA0?$AA5?$AA?$AA@ 000000014028b508     Level_GamePlay.obj
 0003:00053520       ??_C@_1O@JLKOBFLB@?$AAf?$AAr?$AAe?$AAe?$AAz?$AAe?$AA?$AA@ 000000014028b520     Level_GamePlay.obj
 0003:00053530       ??_C@_1CM@PEFMEMHN@?$AAp?$AAr?$AAo?$AAt?$AAo?$AA_?$AAo?$AAb?$AAj?$AA_?$AAf?$AAr?$AAe?$AAe?$AAz?$AAe?$AA_?$AAa?$AAr?$AAe?$AAa?$AA?$AA@ 000000014028b530     Level_GamePlay.obj
 0003:00053568       ??_C@_0DG@HILBMLPD@c?3?2github?2framework?2client?2priva@ 000000014028b568     Level_GamePlay.obj
 0003:000535b0       ??_C@_1EG@FDLBOJPL@?$AAF?$AAa?$AAi?$AAl?$AAe?$AAd?$AA?5?$AAt?$AAo?$AA?5?$AAC?$AAr?$AAe?$AAa?$AAt?$AAe?$AA?5?$AA?3?$AA?5?$AAC?$AAL?$AAe?$AAv?$AAe?$AAl?$AA_?$AAG?$AAa?$AAm?$AAe?$AAP?$AAl@ 000000014028b5b0     Level_GamePlay.obj
 0003:00053610       ??_C@_1IM@NCODKBJH@?$AAc?$AA?3?$AA?2?$AAp?$AAr?$AAo?$AAg?$AAr?$AAa?$AAm?$AA?5?$AAf?$AAi?$AAl?$AAe?$AAs?$AA?5?$AA?$CI?$AAx?$AA8?$AA6?$AA?$CJ?$AA?2?$AAm?$AAi?$AAc?$AAr?$AAo?$AAs?$AAo?$AAf?$AAt@ 000000014028b610     Level_GamePlay.obj
 0003:000536b8       ??_C@_1DM@LHGCHCBA@?$AAv?$AAe?$AAc?$AAt?$AAo?$AAr?$AA?5?$AAs?$AAu?$AAb?$AAs?$AAc?$AAr?$AAi?$AAp?$AAt?$AA?5?$AAo?$AAu?$AAt?$AA?5?$AAo?$AAf?$AA?5?$AAr?$AAa?$AAn?$AAg?$AAe?$AA?$AA@ 000000014028b6b8     Level_GamePlay.obj
 0003:00053700       ??_C@_1OK@DJJMKDMF@?$AAs?$AAt?$AAd?$AA?3?$AA?3?$AAv?$AAe?$AAc?$AAt?$AAo?$AAr?$AA?$DM?$AAs?$AAt?$AAr?$AAu?$AAc?$AAt?$AA?5?$AAC?$AAl?$AAi?$AAe?$AAn?$AAt?$AA?3?$AA?3?$AAC?$AAW?$AAa?$AAl?$AAl@ 000000014028b700     Level_GamePlay.obj
 0003:00053818       ??_C@_0BD@OLBABOEK@vector?$DMT?$DO?5too?5long?$AA@ 000000014028b818     Level_GamePlay.obj
 0003:00053830       ??_C@_1CO@DGLIKNHI@?$AAi?$AAn?$AAv?$AAa?$AAl?$AAi?$AAd?$AA?5?$AAi?$AAt?$AAe?$AAr?$AAa?$AAt?$AAo?$AAr?$AA?5?$AAr?$AAa?$AAn?$AAg?$AAe?$AA?$AA@ 000000014028b830     Level_GamePlay.obj
 0003:00053a60       ??_7CLevel_Loading@Client@@6B@ 000000014028ba60     Level_Loading.obj
 0003:00053aa0       ??_C@_1CC@MHOINAEG@?$AAL?$AAa?$AAy?$AAe?$AAr?$AA_?$AAB?$AAa?$AAc?$AAk?$AAg?$AAr?$AAo?$AAu?$AAn?$AAd?$AA?$AA@ 000000014028baa0     Level_Loading.obj
 0003:00053ac8       ??_C@_1BG@HMGELKDN@?$AAb?$AAa?$AAc?$AAk?$AAg?$AAr?$AAo?$AAu?$AAn?$AAd?$AA?$AA@ 000000014028bac8     Level_Loading.obj
 0003:00053ae8       ??_C@_1BC@JNAAFLEP@?$AAL?$AAO?$AAA?$AAD?$AAI?$AAN?$AAG?$AA?5?$AA?$AA@ 000000014028bae8     Level_Loading.obj
 0003:00053b00       ??_C@_0DF@BHLLANJH@c?3?2github?2framework?2client?2priva@ 000000014028bb00     Level_Loading.obj
 0003:00053b40       ??_C@_1EE@GAAMNEHP@?$AAF?$AAa?$AAi?$AAl?$AAe?$AAd?$AA?5?$AAt?$AAo?$AA?5?$AAC?$AAr?$AAe?$AAa?$AAt?$AAe?$AA?5?$AA?3?$AA?5?$AAC?$AAL?$AAe?$AAv?$AAe?$AAl?$AA_?$AAL?$AAo?$AAa?$AAd?$AAi?$AAn@ 000000014028bb40     Level_Loading.obj
 0003:00053cb0       ??_7CLevel_Logo@Client@@6B@ 000000014028bcb0     Level_Logo.obj
 0003:00053ce8       ??_C@_1BG@CIMPPFLB@?$AAL?$AAE?$AAV?$AAE?$AAL?$AA_?$AAL?$AAO?$AAG?$AAO?$AA?$AA@ 000000014028bce8     Level_Logo.obj
 0003:00053d08       ??_C@_0DC@DHLFMEAH@c?3?2github?2framework?2client?2priva@ 000000014028bd08     Level_Logo.obj
 0003:00053d48       ??_C@_1DO@DCNECNJD@?$AAF?$AAa?$AAi?$AAl?$AAe?$AAd?$AA?5?$AAt?$AAo?$AA?5?$AAC?$AAr?$AAe?$AAa?$AAt?$AAe?$AA?5?$AA?3?$AA?5?$AAC?$AAL?$AAe?$AAv?$AAe?$AAl?$AA_?$AAL?$AAo?$AAg?$AAo?$AA?$AA@ 000000014028bd48     Level_Logo.obj
 0003:000541c0       ??_C@_1IO@CGGKMODJ@?$AAc?$AA?3?$AA?2?$AAp?$AAr?$AAo?$AAg?$AAr?$AAa?$AAm?$AA?5?$AAf?$AAi?$AAl?$AAe?$AAs?$AA?5?$AA?$CI?$AAx?$AA8?$AA6?$AA?$CJ?$AA?2?$AAw?$AAi?$AAn?$AAd?$AAo?$AAw?$AAs?$AA?5?$AAk@ 000000014028c1c0     Loader.obj
 0003:00054270       ??_C@_19MFJHDIJG@?$AAp?$AAS?$AAi?$AAn?$AA?$AA@ 000000014028c270     Loader.obj
 0003:00054280       ??_C@_19MNAGGFOC@?$AAp?$AAC?$AAo?$AAs?$AA?$AA@ 000000014028c280     Loader.obj
 0003:00054298       ??_7CLoader@Client@@6B@    000000014028c298     Loader.obj
 0003:000542b0       ??_C@_1BK@OAOBNFNH@?QM?B?$KE?L?P?$LJ?$HM?$AA?5?$LI?2?$LF?$CJ?I?$BB?G?$IF?$LC?H?$LC?d?$AA?4?$AA?$AA@ 000000014028c2b0     Loader.obj
 0003:000542d0       ??_C@_1BM@DKHBELDE@?H?$BF?H?$BA?$LM?$IE?S?$HM?$LJ?$HM?$AA?5?$LI?2?$LF?$CJ?I?$BB?G?$IF?$LC?H?$LC?d?$AA?4?$AA?$AA@ 000000014028c2d0     Loader.obj
 0003:000542f8       ??_C@_1BI@PMCLLEPN@?$LK?$KI?$LDx?$LJ?$HM?$AA?5?$LI?2?$LF?$CJ?I?$BB?G?$IF?$LC?H?$LC?d?$AA?4?$AA?$AA@ 000000014028c2f8     Loader.obj
 0003:00054318       ??_C@_1BK@PNGEBIAE@?Ap?Gt?$LDT?$LJ?$HM?$AA?5?$LI?2?$LF?$CJ?I?$BB?G?$IF?$LC?H?$LC?d?$AA?4?$AA?$AA@ 000000014028c318     Loader.obj
 0003:00054338       ??_C@_1BG@BCNHEGIM@?$KM?$BN?L?$LE?$AA?5?F?P?V?$BF?GD?$AA?5?I?$AA?$LOD?I?$BB?$AA?$AA@ 000000014028c338     Loader.obj
 0003:00054358       ??_C@_1BO@GGFIFBDK@?$AAL?$AAo?$AAa?$AAd?$AA?5?$AAC?$AAo?$AAm?$AAp?$AAl?$AAe?$AAt?$AAe?$AAd?$AA?$AA@ 000000014028c358     Loader.obj
 0003:00054380       ??_C@_1BE@JMGLIMHC@?$AAT?$AAe?$AAx?$AAt?$AAu?$AAr?$AAe?$AA?4?$AA?4?$AA?$AA@ 000000014028c380     Loader.obj
 0003:000543a0       ??_C@_1FC@EHJOLJPP@?$AA?4?$AA?4?$AA?1?$AA?4?$AA?4?$AA?1?$AAR?$AAe?$AAs?$AAo?$AAu?$AAr?$AAc?$AAe?$AA?1?$AAT?$AAe?$AAx?$AAt?$AAu?$AAr?$AAe?$AA?1?$AAT?$AAe?$AAr?$AAr?$AAa?$AAi?$AAn?$AA?1?$AAT@ 000000014028c3a0     Loader.obj
 0003:00054408       ??_C@_1DE@IDKGCKOA@?$AAp?$AAr?$AAo?$AAt?$AAo?$AA_?$AAc?$AAo?$AAm?$AA_?$AAt?$AAe?$AAx?$AAt?$AAu?$AAr?$AAe?$AA_?$AAt?$AAe?$AAr?$AAr?$AAa?$AAi?$AAn?$AA?$AA@ 000000014028c408     Loader.obj
 0003:00054450       ??_C@_1FE@COKANLF@?$AA?4?$AA?4?$AA?1?$AA?4?$AA?4?$AA?1?$AAR?$AAe?$AAs?$AAo?$AAu?$AAr?$AAc?$AAe?$AA?1?$AAT?$AAe?$AAx?$AAt?$AAu?$AAr?$AAe?$AA?1?$AAT?$AAe?$AAr?$AAr?$AAa?$AAi?$AAn?$AA?1?$AAH@ 000000014028c450     Loader.obj
 0003:000544b8       ??_C@_1DG@LPFFEOOP@?$AAp?$AAr?$AAo?$AAt?$AAo?$AA_?$AAc?$AAo?$AAm?$AA_?$AAv?$AAi?$AAb?$AAu?$AAf?$AAf?$AAe?$AAr?$AA_?$AAt?$AAe?$AAr?$AAr?$AAa?$AAi?$AAn?$AA?$AA@ 000000014028c4b8     Loader.obj
 0003:000544f8       ??_C@_1BC@JFACKNLL@?$AAB?$AAu?$AAf?$AAf?$AAe?$AAr?$AA?4?$AA?4?$AA?$AA@ 000000014028c4f8     Loader.obj
 0003:00054510       ??_C@_1BI@OELOKBML@?$AAC?$AAo?$AAl?$AAl?$AAi?$AAs?$AAi?$AAo?$AAn?$AA?4?$AA?4?$AA?$AA@ 000000014028c510     Loader.obj
 0003:00054530       ??_C@_1BA@IKMKKCK@?$AAM?$AAo?$AAd?$AAe?$AAl?$AA?4?$AA?4?$AA?$AA@ 000000014028c530     Loader.obj
 0003:00054548       ??_C@_0CI@DKAJIMFP@?4?4?1?4?4?1Resource?1Mesh?1Level?1Load?1L@ 000000014028c548     Loader.obj
 0003:00054578       ??_C@_1CK@KCEHOJBH@?$AAp?$AAr?$AAo?$AAt?$AAo?$AA_?$AAc?$AAo?$AAm?$AA_?$AAm?$AAo?$AAd?$AAe?$AAl?$AA_?$AAc?$AAi?$AAt?$AAy?$AA?$AA@ 000000014028c578     Loader.obj
 0003:000545b0       ??_C@_0CH@KHJFINDA@?4?4?1?4?4?1Resource?1Mesh?1Level?1Load?1S@ 000000014028c5b0     Loader.obj
 0003:000545e0       ??_C@_1CI@MKAEBKDH@?$AAp?$AAr?$AAo?$AAt?$AAo?$AA_?$AAc?$AAo?$AAm?$AA_?$AAm?$AAo?$AAd?$AAe?$AAl?$AA_?$AAs?$AAk?$AAy?$AA?$AA@ 000000014028c5e0     Loader.obj
 0003:00054610       ??_C@_0DG@LIMNHPJF@?4?4?1?4?4?1Resource?1Mesh?1Character?1Ka@ 000000014028c610     Loader.obj
 0003:00054650       ??_C@_1DK@LDKBHIDD@?$AAp?$AAr?$AAo?$AAt?$AAo?$AA_?$AAc?$AAo?$AAm?$AA_?$AAm?$AAo?$AAd?$AAe?$AAl?$AA_?$AAk?$AAa?$AAm?$AAu?$AAi?$AA_?$AAw?$AAe?$AAa?$AAp?$AAo?$AAn?$AA?$AA@ 000000014028c650     Loader.obj
 0003:00054698       ??_C@_0DD@NGJJIMMG@?4?4?1?4?4?1Resource?1Mesh?1Character?1Ka@ 000000014028c698     Loader.obj
 0003:000546d8       ??_C@_0CO@JNBMKKDA@?4?4?1?4?4?1Resource?1Mesh?1FreezeArea?1F@ 000000014028c6d8     Loader.obj
 0003:00054710       ??_C@_0CJ@ENECBFLO@?4?4?1?4?4?1Resource?1Mesh?1Enemy?101?1Ene@ 000000014028c710     Loader.obj
 0003:00054748       ??_C@_0CJ@LHLHECML@?4?4?1?4?4?1Resource?1Mesh?1Enemy?102?1Ene@ 000000014028c748     Loader.obj
 0003:00054780       ??_C@_1BC@DCGIAPNK@?$AAS?$AAh?$AAa?$AAd?$AAe?$AAr?$AA?4?$AA?4?$AA?$AA@ 000000014028c780     Loader.obj
 0003:000547a0       ??_C@_1EG@JMDCJGCN@?$AA?4?$AA?4?$AA?1?$AA?4?$AA?4?$AA?1?$AAS?$AAh?$AAa?$AAd?$AAe?$AAr?$AA?1?$AAS?$AAH?$AAA?$AAD?$AAE?$AAR?$AA_?$AAV?$AAT?$AAX?$AAN?$AAO?$AAR?$AAT?$AAE?$AAX?$AA?4?$AAh?$AAl@ 000000014028c7a0     Loader.obj
 0003:000547f8       ??_C@_1DG@FGDELPKB@?$AAp?$AAr?$AAo?$AAt?$AAo?$AA_?$AAc?$AAo?$AAm?$AA_?$AAs?$AAh?$AAa?$AAd?$AAe?$AAr?$AA_?$AAv?$AAt?$AAx?$AAn?$AAo?$AAr?$AAt?$AAe?$AAx?$AA?$AA@ 000000014028c7f8     Loader.obj
 0003:00054840       ??_C@_1EM@KIHCFMHH@?$AA?4?$AA?4?$AA?1?$AA?4?$AA?4?$AA?1?$AAS?$AAh?$AAa?$AAd?$AAe?$AAr?$AA?1?$AAS?$AAH?$AAA?$AAD?$AAE?$AAR?$AA_?$AAV?$AAT?$AAX?$AAA?$AAN?$AAI?$AAM?$AAM?$AAO?$AAD?$AAE?$AAL@ 000000014028c840     Loader.obj
 0003:000548a0       ??_C@_1CE@KOEHOIBI@?$AAp?$AAr?$AAo?$AAt?$AAo?$AA_?$AAo?$AAb?$AAj?$AA_?$AAt?$AAe?$AAr?$AAr?$AAa?$AAi?$AAn?$AA?$AA@ 000000014028c8a0     Loader.obj
 0003:000548d0       ??_C@_0CI@FMCMEEBG@?4?4?1?4?4?1Resource?1Mesh?1Enemy?1Boss?1B@ 000000014028c8d0     Loader.obj
 0003:00054900       ??_C@_1CK@PJFCFLHC@?$AAp?$AAr?$AAo?$AAt?$AAo?$AA_?$AAc?$AAo?$AAm?$AA_?$AAm?$AAo?$AAd?$AAe?$AAl?$AA_?$AAb?$AAo?$AAs?$AAs?$AA?$AA@ 000000014028c900     Loader.obj
 0003:00054938       ??_C@_0CO@EKFEHEFJ@c?3?2github?2framework?2client?2priva@ 000000014028c938     Loader.obj
 0003:00054970       ??_C@_1DG@GNJIJLKA@?$AAF?$AAa?$AAi?$AAl?$AAe?$AAd?$AA?5?$AAt?$AAo?$AA?5?$AAC?$AAr?$AAe?$AAa?$AAt?$AAe?$AA?5?$AA?3?$AA?5?$AAC?$AAL?$AAo?$AAa?$AAd?$AAe?$AAr?$AA?$AA@ 000000014028c970     Loader.obj
 0003:000549b0       __real@3638b88e            000000014028c9b0     Loader.obj
 0003:000549b4       __real@37cfb4c2            000000014028c9b4     Loader.obj
 0003:000549b8       __real@39500bf1            000000014028c9b8     Loader.obj
 0003:000549bc       __real@3ab609aa            000000014028c9bc     Loader.obj
 0003:000549c0       __real@3c088886            000000014028c9c0     Loader.obj
 0003:000549c4       __real@3d2aaaa3            000000014028c9c4     Loader.obj
 0003:000549c8       __real@3e22f983            000000014028c9c8     Loader.obj
 0003:000549cc       __real@b2cd365b            000000014028c9cc     Loader.obj
 0003:000549d0       __real@b48bdd11            000000014028c9d0     Loader.obj
 0003:000549d4       __real@bfc90fdb            000000014028c9d4     Loader.obj
 0003:000549d8       __real@c0490fdb            000000014028c9d8     Loader.obj
 0003:00054b40       ??_7CCity@Client@@6B@      000000014028cb40     City.obj
 0003:00054b98       ??_C@_0CM@GMJGIAOG@c?3?2github?2framework?2client?2priva@ 000000014028cb98     City.obj
 0003:00054bd0       ??_C@_1DC@OLMDFFOA@?$AAF?$AAa?$AAi?$AAl?$AAe?$AAd?$AA?5?$AAt?$AAo?$AA?5?$AAC?$AAr?$AAe?$AAa?$AAt?$AAe?$AA?5?$AA?3?$AA?5?$AAC?$AAC?$AAi?$AAt?$AAy?$AA?$AA@ 000000014028cbd0     City.obj
 0003:00054c10       ??_C@_1DA@FKLCDNJB@?$AAF?$AAa?$AAi?$AAl?$AAe?$AAd?$AA?5?$AAt?$AAo?$AA?5?$AAC?$AAl?$AAo?$AAn?$AAe?$AA?5?$AA?3?$AA?5?$AAC?$AAC?$AAi?$AAt?$AAy?$AA?$AA@ 000000014028cc10     City.obj
 0003:00054fc0       ??_7CPlayerCamera@Client@@6B@ 000000014028cfc0     PlayerCamera.obj
 0003:00055020       ??_C@_1GI@EBAFNAFL@?$AAc?$AA?3?$AA?2?$AAg?$AAi?$AAt?$AAh?$AAu?$AAb?$AA?2?$AAf?$AAr?$AAa?$AAm?$AAe?$AAw?$AAo?$AAr?$AAk?$AA?2?$AAc?$AAl?$AAi?$AAe?$AAn?$AAt?$AA?2?$AAp?$AAr?$AAi?$AAv?$AAa@ 000000014028d020     PlayerCamera.obj
 0003:000550a0       ??_C@_19OPBALDBC@?$AAp?$AAA?$AAr?$AAg?$AA?$AA@ 000000014028d0a0     PlayerCamera.obj
 0003:000550b0       ??_C@_0DE@IAHGFNFF@c?3?2github?2framework?2client?2priva@ 000000014028d0b0     PlayerCamera.obj
 0003:000550f0       ??_C@_1EE@CMOMLOPH@?$AAF?$AAa?$AAi?$AAl?$AAe?$AAd?$AA?5?$AAt?$AAo?$AA?5?$AAC?$AAr?$AAe?$AAa?$AAt?$AAe?$AAd?$AA?5?$AA?3?$AA?5?$AAC?$AAP?$AAl?$AAa?$AAy?$AAe?$AAr?$AAC?$AAa?$AAm?$AAe?$AAr@ 000000014028d0f0     PlayerCamera.obj
 0003:00055150       ??_C@_1EC@NFPGCMME@?$AAF?$AAa?$AAi?$AAl?$AAe?$AAd?$AA?5?$AAt?$AAo?$AA?5?$AAC?$AAl?$AAo?$AAn?$AAe?$AAd?$AA?5?$AA?3?$AA?5?$AAC?$AAP?$AAl?$AAa?$AAy?$AAe?$AAr?$AAC?$AAa?$AAm?$AAe?$AAr?$AAa@ 000000014028d150     PlayerCamera.obj
 0003:00055300       ??_7CSkybox@Client@@6B@    000000014028d300     Skybox.obj
 0003:00055358       ??_C@_0CO@KKCNHBOI@c?3?2github?2framework?2client?2priva@ 000000014028d358     Skybox.obj
 0003:00055390       ??_C@_1DG@GCIICDNM@?$AAF?$AAa?$AAi?$AAl?$AAe?$AAd?$AA?5?$AAt?$AAo?$AA?5?$AAC?$AAr?$AAe?$AAa?$AAt?$AAe?$AA?5?$AA?3?$AA?5?$AAC?$AAS?$AAk?$AAy?$AAb?$AAo?$AAx?$AA?$AA@ 000000014028d390     Skybox.obj
 0003:000553d0       ??_C@_1DE@HNINLFBA@?$AAF?$AAa?$AAi?$AAl?$AAe?$AAd?$AA?5?$AAt?$AAo?$AA?5?$AAC?$AAl?$AAo?$AAn?$AAe?$AA?5?$AA?3?$AA?5?$AAC?$AAS?$AAk?$AAy?$AAb?$AAo?$AAx?$AA?$AA@ 000000014028d3d0     Skybox.obj
 0003:00056560       ??_7CStageCollisionManager@Client@@6B@ 000000014028e560     StageCollisionManager.obj
 0003:00056578       ??_C@_0DN@KNKJNMBG@c?3?2github?2framework?2client?2priva@ 000000014028e578     StageCollisionManager.obj
 0003:000565c8       ??_C@_1BE@BMACBLPL@?$AAc?$AAo?$AAl?$AAl?$AAi?$AAs?$AAi?$AAo?$AAn?$AA?$AA@ 000000014028e5c8     StageCollisionManager.obj
 0003:000565e0       ??_C@_1CA@BJJHPBLD@?$AAl?$AAa?$AAy?$AAe?$AAr?$AA_?$AAc?$AAo?$AAl?$AAl?$AAi?$AAs?$AAi?$AAo?$AAn?$AA?$AA@ 000000014028e5e0     StageCollisionManager.obj
 0003:00056608       ??_C@_05BJFBLFBN@stage?$AA@ 000000014028e608     StageCollisionManager.obj
 0003:00056610       ??_C@_0BK@KOOPNIPL@Current?5Collision?5Index?5?5?$AA@ 000000014028e610     StageCollisionManager.obj
 0003:00056630       ??_C@_05MAGIBEFI@Scale?$AA@ 000000014028e630     StageCollisionManager.obj
 0003:00056638       ??_C@_08DKIIPKCO@vRotaion?$AA@ 000000014028e638     StageCollisionManager.obj
 0003:00056648       ??_C@_09JMEJDBKB@vPosition?$AA@ 000000014028e648     StageCollisionManager.obj
 0003:00056654       ??_C@_11LOCGONAA@?$AA?$AA@ 000000014028e654     StageCollisionManager.obj
 0003:00056658       ??_C@_1CE@NDPHLEBO@?$AAf?$AAa?$AAi?$AAl?$AAe?$AAd?$AA?5?$AAh?$AAR?$AAe?$AAa?$AAd?$AA?5?$AAo?$AAp?$AAe?$AAn?$AA?$AA@ 000000014028e658     StageCollisionManager.obj
 0003:00056688       ??_C@_1CI@CNJHFGKO@?$AAF?$AAa?$AAi?$AAl?$AAe?$AAd?$AA?5?$AAO?$AAp?$AAe?$AAn?$AAd?$AA?5?$AAH?$AAa?$AAn?$AAd?$AAl?$AAe?$AA?$AA@ 000000014028e688     StageCollisionManager.obj
 0003:000566c0       ??_C@_1LK@KHCEBALI@?$AAs?$AAt?$AAd?$AA?3?$AA?3?$AAv?$AAe?$AAc?$AAt?$AAo?$AAr?$AA?$DM?$AAc?$AAl?$AAa?$AAs?$AAs?$AA?5?$AAC?$AAl?$AAi?$AAe?$AAn?$AAt?$AA?3?$AA?3?$AAC?$AAW?$AAa?$AAl?$AAl?$AA?5@ 000000014028e6c0     StageCollisionManager.obj
 0003:000567a0       ??_C@_1EG@FOHJJHAC@?$AAv?$AAe?$AAc?$AAt?$AAo?$AAr?$AA?5?$AAi?$AAt?$AAe?$AAr?$AAa?$AAt?$AAo?$AAr?$AA?5?$AAn?$AAo?$AAt?$AA?5?$AAd?$AAe?$AAr?$AAe?$AAf?$AAe?$AAr?$AAe?$AAn?$AAc?$AAa?$AAb@ 000000014028e7a0     StageCollisionManager.obj
 0003:00056800       ??_C@_1EE@EJDKCLKB@?$AAv?$AAe?$AAc?$AAt?$AAo?$AAr?$AA?5?$AAi?$AAt?$AAe?$AAr?$AAa?$AAt?$AAo?$AAr?$AA?5?$AAn?$AAo?$AAt?$AA?5?$AAi?$AAn?$AAc?$AAr?$AAe?$AAm?$AAe?$AAn?$AAt?$AAa?$AAb?$AAl@ 000000014028e800     StageCollisionManager.obj
 0003:00056860       ??_C@_1OK@KJMOIFEM@?$AAs?$AAt?$AAd?$AA?3?$AA?3?$AA_?$AAV?$AAe?$AAc?$AAt?$AAo?$AAr?$AA_?$AAc?$AAo?$AAn?$AAs?$AAt?$AA_?$AAi?$AAt?$AAe?$AAr?$AAa?$AAt?$AAo?$AAr?$AA?$DM?$AAc?$AAl?$AAa?$AAs@ 000000014028e860     StageCollisionManager.obj
 0003:00056980       ??_C@_1OI@OCLEPDMK@?$AAs?$AAt?$AAd?$AA?3?$AA?3?$AA_?$AAV?$AAe?$AAc?$AAt?$AAo?$AAr?$AA_?$AAc?$AAo?$AAn?$AAs?$AAt?$AA_?$AAi?$AAt?$AAe?$AAr?$AAa?$AAt?$AAo?$AAr?$AA?$DM?$AAc?$AAl?$AAa?$AAs@ 000000014028e980     StageCollisionManager.obj
 0003:00056a98       ??_C@_1DM@HINDPMBP@?$AAv?$AAe?$AAc?$AAt?$AAo?$AAr?$AA?5?$AAi?$AAt?$AAe?$AAr?$AAa?$AAt?$AAo?$AAr?$AAs?$AA?5?$AAi?$AAn?$AAc?$AAo?$AAm?$AAp?$AAa?$AAt?$AAi?$AAb?$AAl?$AAe?$AA?$AA@ 000000014028ea98     StageCollisionManager.obj
 0003:00056ae0       ??_C@_1OC@IIFJBDDA@?$AAs?$AAt?$AAd?$AA?3?$AA?3?$AA_?$AAV?$AAe?$AAc?$AAt?$AAo?$AAr?$AA_?$AAc?$AAo?$AAn?$AAs?$AAt?$AA_?$AAi?$AAt?$AAe?$AAr?$AAa?$AAt?$AAo?$AAr?$AA?$DM?$AAc?$AAl?$AAa?$AAs@ 000000014028eae0     StageCollisionManager.obj
 0003:00056bf0       __real@c47a0000            000000014028ebf0     StageCollisionManager.obj
 0003:00056eb0       ??_7CWall@Client@@6B@      000000014028eeb0     Wall.obj
 0003:00056f08       ??_C@_0CM@EJHFMJKP@c?3?2github?2framework?2client?2priva@ 000000014028ef08     Wall.obj
 0003:00056f40       ??_C@_1DC@JOCBEIJM@?$AAF?$AAa?$AAi?$AAl?$AAe?$AAd?$AA?5?$AAt?$AAo?$AA?5?$AAC?$AAr?$AAe?$AAa?$AAt?$AAe?$AA?5?$AA?3?$AA?5?$AAC?$AAW?$AAa?$AAl?$AAl?$AA?$AA@ 000000014028ef40     Wall.obj
 0003:00056f80       ??_C@_1DA@CPFACAON@?$AAF?$AAa?$AAi?$AAl?$AAe?$AAd?$AA?5?$AAt?$AAo?$AA?5?$AAC?$AAl?$AAo?$AAn?$AAe?$AA?5?$AA?3?$AA?5?$AAC?$AAW?$AAa?$AAl?$AAl?$AA?$AA@ 000000014028ef80     Wall.obj
 0003:00057210       ??_7CWeapon@Client@@6B@    000000014028f210     Weapon.obj
 0003:00057270       ??_C@_1FM@JPMMFGFB@?$AAc?$AA?3?$AA?2?$AAg?$AAi?$AAt?$AAh?$AAu?$AAb?$AA?2?$AAf?$AAr?$AAa?$AAm?$AAe?$AAw?$AAo?$AAr?$AAk?$AA?2?$AAc?$AAl?$AAi?$AAe?$AAn?$AAt?$AA?2?$AAp?$AAr?$AAi?$AAv?$AAa@ 000000014028f270     Weapon.obj
 0003:000572e0       ??_C@_1CG@FHFHBABA@?$AAm?$AA_?$AAd?$AAe?$AAs?$AAc?$AAO?$AAw?$AAn?$AAe?$AAr?$AA?4?$AAp?$AAM?$AAo?$AAd?$AAe?$AAl?$AA?$AA@ 000000014028f2e0     Weapon.obj
 0003:00057310       ??_C@_1CO@FENGICBB@?$AAm?$AA_?$AAd?$AAe?$AAs?$AAc?$AAO?$AAw?$AAn?$AAe?$AAr?$AA?4?$AAp?$AAT?$AAr?$AAa?$AAn?$AAs?$AAf?$AAo?$AAr?$AAm?$AA?$AA@ 000000014028f310     Weapon.obj
 0003:00057348       ??_C@_1DA@HGAKJHPK@?$AAm?$AA_?$AAd?$AAe?$AAs?$AAc?$AAO?$AAw?$AAn?$AAe?$AAr?$AA?4?$AAp?$AAW?$AAe?$AAa?$AAp?$AAo?$AAn?$AAC?$AAa?$AAs?$AAe?$AA?$AA@ 000000014028f348     Weapon.obj
 0003:00057388       ??_C@_0CO@PIDEAFGA@c?3?2github?2framework?2client?2priva@ 000000014028f388     Weapon.obj
 0003:000573c0       ??_C@_1DG@ONIAIANA@?$AAF?$AAa?$AAi?$AAl?$AAe?$AAd?$AA?5?$AAt?$AAo?$AA?5?$AAC?$AAr?$AAe?$AAa?$AAt?$AAe?$AA?5?$AA?3?$AA?5?$AAC?$AAW?$AAe?$AAa?$AAp?$AAo?$AAn?$AA?$AA@ 000000014028f3c0     Weapon.obj
 0003:00057400       ??_C@_1DE@PCIFBGBM@?$AAF?$AAa?$AAi?$AAl?$AAe?$AAd?$AA?5?$AAt?$AAo?$AA?5?$AAC?$AAl?$AAo?$AAn?$AAe?$AA?5?$AA?3?$AA?5?$AAC?$AAW?$AAe?$AAa?$AAp?$AAo?$AAn?$AA?$AA@ 000000014028f400     Weapon.obj
 0003:00057620       ??_7CTerrain@Client@@6B@   000000014028f620     Terrain.obj
 0003:00057678       ??_C@_0CP@MKDOKOGP@c?3?2github?2framework?2client?2priva@ 000000014028f678     Terrain.obj
 0003:000576b0       ??_C@_1DK@HGJNEKEO@?$AAF?$AAa?$AAi?$AAl?$AAe?$AAd?$AA?5?$AAt?$AAo?$AA?5?$AAC?$AAr?$AAe?$AAa?$AAt?$AAe?$AAd?$AA?5?$AA?3?$AA?5?$AAC?$AAT?$AAe?$AAr?$AAr?$AAa?$AAi?$AAn?$AA?$AA@ 000000014028f6b0     Terrain.obj
 0003:000576f8       ??_C@_1DI@EDOHCGAC@?$AAF?$AAa?$AAi?$AAl?$AAe?$AAd?$AA?5?$AAt?$AAo?$AA?5?$AAC?$AAl?$AAo?$AAn?$AAe?$AAd?$AA?5?$AA?3?$AA?5?$AAC?$AAT?$AAe?$AAr?$AAr?$AAa?$AAi?$AAn?$AA?$AA@ 000000014028f6f8     Terrain.obj
 0003:00057998       ??_C@_1BK@OHCPODKI@?$AAT?$AAi?$AAm?$AAe?$AAr?$AA_?$AAS?$AAy?$AAs?$AAt?$AAe?$AAm?$AA?$AA@ 000000014028f998     Client.obj
 0003:000579b8       __real@3be38e39            000000014028f9b8     Client.obj
 0003:000579d8       ??_C@_1BK@MGMFAEKH@?$AAk?$AAe?$AAr?$AAn?$AAe?$AAl?$AA3?$AA2?$AA?4?$AAd?$AAl?$AAl?$AA?$AA@ 000000014028f9d8     MSVCRTD:thread_safe_statics.obj
 0003:000579f8       ??_C@_0BM@HLJJNPAH@InitializeConditionVariable?$AA@ 000000014028f9f8     MSVCRTD:thread_safe_statics.obj
 0003:00057a20       ??_C@_0BJ@JEBJOJFJ@SleepConditionVariableCS?$AA@ 000000014028fa20     MSVCRTD:thread_safe_statics.obj
 0003:00057a40       ??_C@_0BJ@PGPPEPCC@WakeAllConditionVariable?$AA@ 000000014028fa40     MSVCRTD:thread_safe_statics.obj
 0003:00057a60       ??_C@_1HK@LKKBAJNK@?$AAf?$AA?3?$AA?2?$AAd?$AAd?$AA?2?$AAv?$AAc?$AAt?$AAo?$AAo?$AAl?$AAs?$AA?2?$AAc?$AAr?$AAt?$AA?2?$AAv?$AAc?$AAs?$AAt?$AAa?$AAr?$AAt?$AAu?$AAp?$AA?2?$AAs?$AAr?$AAc?$AA?2@ 000000014028fa60     MSVCRTD:thread_safe_statics.obj
 0003:00057b00       ??_7type_info@@6B@         000000014028fb00     MSVCRTD:std_type_info_static.obj
 0003:00057bf0       ??_C@_0NN@NGPKDKPD@The?5value?5of?5ESP?5was?5not?5properl@ 000000014028fbf0     MSVCRTD:_error_.obj
 0003:00057d00       ??_C@_0BBN@GPMLNJCF@A?5cast?5to?5a?5smaller?5data?5type?5ha@ 000000014028fd00     MSVCRTD:_error_.obj
 0003:00057e58       ??_C@_0BN@FFOINMNJ@Stack?5memory?5was?5corrupted?6?$AN?$AA@ 000000014028fe58     MSVCRTD:_error_.obj
 0003:00057e80       ??_C@_0DG@HKJMLLLP@A?5local?5variable?5was?5used?5before@ 000000014028fe80     MSVCRTD:_error_.obj
 0003:00057ec0       ??_C@_0CM@NGINOKPC@Stack?5memory?5around?5_alloca?5was?5@ 000000014028fec0     MSVCRTD:_error_.obj
 0003:00057ef8       ??_C@_0BO@GNIAFIKK@Unknown?5Runtime?5Check?5Error?6?$AN?$AA@ 000000014028fef8     MSVCRTD:_error_.obj
 0003:00057f20       ??_C@_1GM@OLMCBDMB@?$AAR?$AAu?$AAn?$AAt?$AAi?$AAm?$AAe?$AA?5?$AAC?$AAh?$AAe?$AAc?$AAk?$AA?5?$AAE?$AAr?$AAr?$AAo?$AAr?$AA?4?$AA?6?$AA?$AN?$AA?5?$AAU?$AAn?$AAa?$AAb?$AAl?$AAe?$AA?5?$AAt?$AAo@ 000000014028ff20     MSVCRTD:_error_.obj
 0003:00057fb0       ??_C@_1EA@NFKNIFJP@?$AAR?$AAu?$AAn?$AA?9?$AAT?$AAi?$AAm?$AAe?$AA?5?$AAC?$AAh?$AAe?$AAc?$AAk?$AA?5?$AAF?$AAa?$AAi?$AAl?$AAu?$AAr?$AAe?$AA?5?$AA?$CD?$AA?$CF?$AAd?$AA?5?$AA?9?$AA?5?$AA?$CF?$AAs?$AA?$AA@ 000000014028ffb0     MSVCRTD:_error_.obj
 0003:00058000       ??_C@_0BB@PFFGGCJP@Unknown?5Filename?$AA@ 0000000140290000     MSVCRTD:_error_.obj
 0003:00058018       ??_C@_0BE@GNBOBNCK@Unknown?5Module?5Name?$AA@ 0000000140290018     MSVCRTD:_error_.obj
 0003:00058030       ??_C@_0CA@IODNCDPG@Run?9Time?5Check?5Failure?5?$CD?$CFd?5?9?5?$CFs?$AA@ 0000000140290030     MSVCRTD:_error_.obj
 0003:00058058       ??_C@_0CG@IAFNJNEE@Stack?5corrupted?5near?5unknown?5var@ 0000000140290058     MSVCRTD:_error_.obj
 0003:00058088       ??_C@_05MKKEDADM@?$CF?42X?5?$AA@ 0000000140290088     MSVCRTD:_error_.obj
 0003:00058090       ??_C@_0EJ@LJKNEOLN@Stack?5area?5around?5_alloca?5memory@ 0000000140290090     MSVCRTD:_error_.obj
 0003:000580e8       ??_C@_08OMAHNMHJ@?6Data?3?5?$DM?$AA@ 00000001402900e8     MSVCRTD:_error_.obj
 0003:000580f8       ??_C@_0CK@DKGBICFE@?6Allocation?5number?5within?5this?5f@ 00000001402900f8     MSVCRTD:_error_.obj
 0003:00058130       ??_C@_07DFDJCKFN@?6Size?3?5?$AA@ 0000000140290130     MSVCRTD:_error_.obj
 0003:00058140       ??_C@_0N@MHFFIMFG@?6Address?3?50x?$AA@ 0000000140290140     MSVCRTD:_error_.obj
 0003:00058150       ??_C@_0EI@CLEPFNGI@Stack?5area?5around?5_alloca?5memory@ 0000000140290150     MSVCRTD:_error_.obj
 0003:000581a8       ??_C@_0BC@HHMKLAND@?$CFs?$CFs?$CFp?$CFs?$CFzd?$CFs?$CFd?$CFs?$AA@ 00000001402901a8     MSVCRTD:_error_.obj
 0003:000581c0       ??_C@_02LLMPMKNF@?$DO?5?$AA@ 00000001402901c0     MSVCRTD:_error_.obj
 0003:000581c8       ??_C@_08KJEDNCKC@?$CFs?$CFs?$CFs?$CFs?$AA@ 00000001402901c8     MSVCRTD:_error_.obj
 0003:000581d8       ??_C@_0DE@OHJBPMBP@A?5variable?5is?5being?5used?5without@ 00000001402901d8     MSVCRTD:_error_.obj
 0003:00058248       ??_C@_0BJ@HEGAHDFO@Stack?5pointer?5corruption?$AA@ 0000000140290248     MSVCRTD:_userapi_.obj
 0003:00058268       ??_C@_0CK@FEGOIOPB@Cast?5to?5smaller?5type?5causing?5los@ 0000000140290268     MSVCRTD:_userapi_.obj
 0003:000582a0       ??_C@_0BI@CIGMDCBH@Stack?5memory?5corruption?$AA@ 00000001402902a0     MSVCRTD:_userapi_.obj
 0003:000582c0       ??_C@_0CK@CNLNOEPB@Local?5variable?5used?5before?5initi@ 00000001402902c0     MSVCRTD:_userapi_.obj
 0003:000582f8       ??_C@_0BP@OGBCLIBO@Stack?5around?5_alloca?5corrupted?$AA@ 00000001402902f8     MSVCRTD:_userapi_.obj
 0003:00058328       ??_7exception@std@@6B@     0000000140290328     MSVCRTD:throw_bad_alloc.obj
 0003:00058340       ??_C@_0BC@EOODALEL@Unknown?5exception?$AA@ 0000000140290340     MSVCRTD:throw_bad_alloc.obj
 0003:00058360       ??_7bad_alloc@std@@6B@     0000000140290360     MSVCRTD:throw_bad_alloc.obj
 0003:00058378       ??_C@_0P@GHFPNOJB@bad?5allocation?$AA@ 0000000140290378     MSVCRTD:throw_bad_alloc.obj
 0003:00058398       ??_7bad_array_new_length@std@@6B@ 0000000140290398     MSVCRTD:throw_bad_alloc.obj
 0003:000583b0       ??_C@_0BF@KINCDENJ@bad?5array?5new?5length?$AA@ 00000001402903b0     MSVCRTD:throw_bad_alloc.obj
 0003:00058440       ??_C@_1EI@MLPKHBGE@?$AAa?$AAp?$AAi?$AA?9?$AAm?$AAs?$AA?9?$AAw?$AAi?$AAn?$AA?9?$AAc?$AAo?$AAr?$AAe?$AA?9?$AAr?$AAe?$AAg?$AAi?$AAs?$AAt?$AAr?$AAy?$AA?9?$AAl?$AA1?$AA?9?$AA1?$AA?9?$AA0?$AA?4@ 0000000140290440     MSVCRTD:_pdblkup_.obj
 0003:00058498       ??_C@_1BK@JHLNAEJL@?$AAa?$AAd?$AAv?$AAa?$AAp?$AAi?$AA3?$AA2?$AA?4?$AAd?$AAl?$AAl?$AA?$AA@ 0000000140290498     MSVCRTD:_pdblkup_.obj
 0003:000584b8       ??_C@_0O@COHOBMLB@RegOpenKeyExW?$AA@ 00000001402904b8     MSVCRTD:_pdblkup_.obj
 0003:000584c8       ??_C@_0BB@GLNAEDBD@RegQueryValueExW?$AA@ 00000001402904c8     MSVCRTD:_pdblkup_.obj
 0003:000584e0       ??_C@_0M@HLOHPNFA@RegCloseKey?$AA@ 00000001402904e0     MSVCRTD:_pdblkup_.obj
 0003:000584f0       ??_C@_1HE@EBEAGLFB@?$AAS?$AAO?$AAF?$AAT?$AAW?$AAA?$AAR?$AAE?$AA?2?$AAW?$AAo?$AAw?$AA6?$AA4?$AA3?$AA2?$AAN?$AAo?$AAd?$AAe?$AA?2?$AAM?$AAi?$AAc?$AAr?$AAo?$AAs?$AAo?$AAf?$AAt?$AA?2?$AAV@ 00000001402904f0     MSVCRTD:_pdblkup_.obj
 0003:00058580       ??_C@_1BG@EABPBLLF@?$AAP?$AAr?$AAo?$AAd?$AAu?$AAc?$AAt?$AAD?$AAi?$AAr?$AA?$AA@ 0000000140290580     MSVCRTD:_pdblkup_.obj
 0003:000585c8       ??_C@_1BC@JINFINNJ@?$AAM?$AAS?$AAP?$AAD?$AAB?$AA1?$AA4?$AA0?$AA?$AA@ 00000001402905c8     MSVCRTD:_pdblkup_.obj
 0003:000585e0       ??_C@_0BB@KCIACLNC@PDBOpenValidate5?$AA@ 00000001402905e0     MSVCRTD:_pdblkup_.obj
 0003:000585f4       ??_C@_01KDCPPGHE@r?$AA@    00000001402905f4     MSVCRTD:_pdblkup_.obj
 0003:00058640       _load_config_used          0000000140290640     MSVCRTD:loadcfg.obj
 0003:00059f60       _tls_used                  0000000140291f60     MSVCRTD:tlssup.obj
 0003:0005a090       ??_R4CApplication@Client@@6B@ 0000000140292090     Application.obj
 0003:0005a0c0       ??_R3CApplication@Client@@8 00000001402920c0     Application.obj
 0003:0005a0d8       ??_R2CApplication@Client@@8 00000001402920d8     Application.obj
 0003:0005a0f0       ??_R1A@?0A@EA@CApplication@Client@@8 00000001402920f0     Application.obj
 0003:0005a120       ??_R1A@?0A@EA@CBase@Engine@@8 0000000140292120     Application.obj
 0003:0005a150       ??_R3CBase@Engine@@8       0000000140292150     Application.obj
 0003:0005a168       ??_R2CBase@Engine@@8       0000000140292168     Application.obj
 0003:0005a178       ??_R4CApplicationManager@Client@@6B@ 0000000140292178     ApplicationManager.obj
 0003:0005a1a8       ??_R3CApplicationManager@Client@@8 00000001402921a8     ApplicationManager.obj
 0003:0005a1c0       ??_R2CApplicationManager@Client@@8 00000001402921c0     ApplicationManager.obj
 0003:0005a1d8       ??_R1A@?0A@EA@CApplicationManager@Client@@8 00000001402921d8     ApplicationManager.obj
 0003:0005a208       ??_R4CBackGround@Client@@6B@ 0000000140292208     BackGround.obj
 0003:0005a238       ??_R3CBackGround@Client@@8 0000000140292238     BackGround.obj
 0003:0005a250       ??_R2CBackGround@Client@@8 0000000140292250     BackGround.obj
 0003:0005a278       ??_R1A@?0A@EA@CBackGround@Client@@8 0000000140292278     BackGround.obj
 0003:0005a2a8       ??_R1A@?0A@EA@CGameObject@Engine@@8 00000001402922a8     BackGround.obj
 0003:0005a2d8       ??_R3CGameObject@Engine@@8 00000001402922d8     BackGround.obj
 0003:0005a2f0       ??_R2CGameObject@Engine@@8 00000001402922f0     BackGround.obj
 0003:0005a308       ??_R4CBoss@Client@@6B@     0000000140292308     Boss.obj
 0003:0005a338       ??_R3CBoss@Client@@8       0000000140292338     Boss.obj
 0003:0005a350       ??_R2CBoss@Client@@8       0000000140292350     Boss.obj
 0003:0005a378       ??_R1A@?0A@EA@CBoss@Client@@8 0000000140292378     Boss.obj
 0003:0005a3a8       ??_R4CDynamicCamera@Client@@6B@ 00000001402923a8     DynamicCamera.obj
 0003:0005a3d8       ??_R3CDynamicCamera@Client@@8 00000001402923d8     DynamicCamera.obj
 0003:0005a3f0       ??_R2CDynamicCamera@Client@@8 00000001402923f0     DynamicCamera.obj
 0003:0005a420       ??_R1A@?0A@EA@CDynamicCamera@Client@@8 0000000140292420     DynamicCamera.obj
 0003:0005a450       ??_R1A@?0A@EA@CCamera@Engine@@8 0000000140292450     DynamicCamera.obj
 0003:0005a480       ??_R3CCamera@Engine@@8     0000000140292480     DynamicCamera.obj
 0003:0005a498       ??_R2CCamera@Engine@@8     0000000140292498     DynamicCamera.obj
 0003:0005a4c0       ??_R4CEnemy@Client@@6BCGameObject@Engine@@@ 00000001402924c0     Enemy.obj
 0003:0005a4f0       ??_R3CEnemy@Client@@8      00000001402924f0     Enemy.obj
 0003:0005a508       ??_R2CEnemy@Client@@8      0000000140292508     Enemy.obj
 0003:0005a548       ??_R1A@?0A@EA@CEnemy@Client@@8 0000000140292548     Enemy.obj
 0003:0005a578       ??_R1HI@?0A@EA@IOnCollisionEnter@Engine@@8 0000000140292578     Enemy.obj
 0003:0005a5a8       ??_R3IOnCollisionEnter@Engine@@8 00000001402925a8     Enemy.obj
 0003:0005a5c0       ??_R2IOnCollisionEnter@Engine@@8 00000001402925c0     Enemy.obj
 0003:0005a5d0       ??_R1A@?0A@EA@IOnCollisionEnter@Engine@@8 00000001402925d0     Enemy.obj
 0003:0005a600       ??_R1IA@?0A@EA@IOnCollisionStay@Engine@@8 0000000140292600     Enemy.obj
 0003:0005a630       ??_R3IOnCollisionStay@Engine@@8 0000000140292630     Enemy.obj
 0003:0005a648       ??_R2IOnCollisionStay@Engine@@8 0000000140292648     Enemy.obj
 0003:0005a658       ??_R1A@?0A@EA@IOnCollisionStay@Engine@@8 0000000140292658     Enemy.obj
 0003:0005a688       ??_R1II@?0A@EA@IOnCollisionExit@Engine@@8 0000000140292688     Enemy.obj
 0003:0005a6b8       ??_R3IOnCollisionExit@Engine@@8 00000001402926b8     Enemy.obj
 0003:0005a6d0       ??_R2IOnCollisionExit@Engine@@8 00000001402926d0     Enemy.obj
 0003:0005a6e0       ??_R1A@?0A@EA@IOnCollisionExit@Engine@@8 00000001402926e0     Enemy.obj
 0003:0005a710       ??_R4CEnemy@Client@@6BIOnCollisionEnter@Engine@@@ 0000000140292710     Enemy.obj
 0003:0005a740       ??_R4CEnemy@Client@@6BIOnCollisionStay@Engine@@@ 0000000140292740     Enemy.obj
 0003:0005a770       ??_R4CEnemy@Client@@6BIOnCollisionExit@Engine@@@ 0000000140292770     Enemy.obj
 0003:0005a7a0       ??_R4CFreezeArea@Client@@6B@ 00000001402927a0     FreezeArea.obj
 0003:0005a7d0       ??_R3CFreezeArea@Client@@8 00000001402927d0     FreezeArea.obj
 0003:0005a7e8       ??_R2CFreezeArea@Client@@8 00000001402927e8     FreezeArea.obj
 0003:0005a810       ??_R1A@?0A@EA@CFreezeArea@Client@@8 0000000140292810     FreezeArea.obj
 0003:0005a840       ??_R4CImGUIManager@Client@@6B@ 0000000140292840     ImGUIManager.obj
 0003:0005a870       ??_R3CImGUIManager@Client@@8 0000000140292870     ImGUIManager.obj
 0003:0005a888       ??_R2CImGUIManager@Client@@8 0000000140292888     ImGUIManager.obj
 0003:0005a8a0       ??_R1A@?0A@EA@CImGUIManager@Client@@8 00000001402928a0     ImGUIManager.obj
 0003:0005a8d0       ??_R4CCharacter@Client@@6BCGameObject@Engine@@@ 00000001402928d0     Character.obj
 0003:0005a900       ??_R3CCharacter@Client@@8  0000000140292900     Character.obj
 0003:0005a918       ??_R2CCharacter@Client@@8  0000000140292918     Character.obj
 0003:0005a958       ??_R1A@?0A@EA@CCharacter@Client@@8 0000000140292958     Character.obj
 0003:0005a988       ??_R4CCharacter@Client@@6BIOnCollisionEnter@Engine@@@ 0000000140292988     Character.obj
 0003:0005a9b8       ??_R4CCharacter@Client@@6BIOnCollisionStay@Engine@@@ 00000001402929b8     Character.obj
 0003:0005a9e8       ??_R4CCharacter@Client@@6BIOnCollisionExit@Engine@@@ 00000001402929e8     Character.obj
 0003:0005aa18       ??_R4CLevel_BossRoom@Client@@6B@ 0000000140292a18     Level_BossRoom.obj
 0003:0005aa48       ??_R3CLevel_BossRoom@Client@@8 0000000140292a48     Level_BossRoom.obj
 0003:0005aa60       ??_R2CLevel_BossRoom@Client@@8 0000000140292a60     Level_BossRoom.obj
 0003:0005aa88       ??_R1A@?0A@EA@CLevel_BossRoom@Client@@8 0000000140292a88     Level_BossRoom.obj
 0003:0005aab8       ??_R1A@?0A@EA@CLevel@Engine@@8 0000000140292ab8     Level_BossRoom.obj
 0003:0005aae8       ??_R3CLevel@Engine@@8      0000000140292ae8     Level_BossRoom.obj
 0003:0005ab00       ??_R2CLevel@Engine@@8      0000000140292b00     Level_BossRoom.obj
 0003:0005ab18       ??_R4CLevel_GamePlay@Client@@6B@ 0000000140292b18     Level_GamePlay.obj
 0003:0005ab48       ??_R3CLevel_GamePlay@Client@@8 0000000140292b48     Level_GamePlay.obj
 0003:0005ab60       ??_R2CLevel_GamePlay@Client@@8 0000000140292b60     Level_GamePlay.obj
 0003:0005ab88       ??_R1A@?0A@EA@CLevel_GamePlay@Client@@8 0000000140292b88     Level_GamePlay.obj
 0003:0005abb8       ??_R4CLevel_Loading@Client@@6B@ 0000000140292bb8     Level_Loading.obj
 0003:0005abe8       ??_R3CLevel_Loading@Client@@8 0000000140292be8     Level_Loading.obj
 0003:0005ac00       ??_R2CLevel_Loading@Client@@8 0000000140292c00     Level_Loading.obj
 0003:0005ac28       ??_R1A@?0A@EA@CLevel_Loading@Client@@8 0000000140292c28     Level_Loading.obj
 0003:0005ac58       ??_R4CLevel_Logo@Client@@6B@ 0000000140292c58     Level_Logo.obj
 0003:0005ac88       ??_R3CLevel_Logo@Client@@8 0000000140292c88     Level_Logo.obj
 0003:0005aca0       ??_R2CLevel_Logo@Client@@8 0000000140292ca0     Level_Logo.obj
 0003:0005acc8       ??_R1A@?0A@EA@CLevel_Logo@Client@@8 0000000140292cc8     Level_Logo.obj
 0003:0005acf8       ??_R4CLoader@Client@@6B@   0000000140292cf8     Loader.obj
 0003:0005ad28       ??_R3CLoader@Client@@8     0000000140292d28     Loader.obj
 0003:0005ad40       ??_R2CLoader@Client@@8     0000000140292d40     Loader.obj
 0003:0005ad58       ??_R1A@?0A@EA@CLoader@Client@@8 0000000140292d58     Loader.obj
 0003:0005ad88       ??_R4CCity@Client@@6B@     0000000140292d88     City.obj
 0003:0005adb8       ??_R3CCity@Client@@8       0000000140292db8     City.obj
 0003:0005add0       ??_R2CCity@Client@@8       0000000140292dd0     City.obj
 0003:0005adf8       ??_R1A@?0A@EA@CCity@Client@@8 0000000140292df8     City.obj
 0003:0005ae28       ??_R4CPlayerCamera@Client@@6B@ 0000000140292e28     PlayerCamera.obj
 0003:0005ae58       ??_R3CPlayerCamera@Client@@8 0000000140292e58     PlayerCamera.obj
 0003:0005ae70       ??_R2CPlayerCamera@Client@@8 0000000140292e70     PlayerCamera.obj
 0003:0005aea0       ??_R1A@?0A@EA@CPlayerCamera@Client@@8 0000000140292ea0     PlayerCamera.obj
 0003:0005aed0       ??_R4CSkybox@Client@@6B@   0000000140292ed0     Skybox.obj
 0003:0005af00       ??_R3CSkybox@Client@@8     0000000140292f00     Skybox.obj
 0003:0005af18       ??_R2CSkybox@Client@@8     0000000140292f18     Skybox.obj
 0003:0005af40       ??_R1A@?0A@EA@CSkybox@Client@@8 0000000140292f40     Skybox.obj
 0003:0005af70       ??_R4CStageCollisionManager@Client@@6B@ 0000000140292f70     StageCollisionManager.obj
 0003:0005afa0       ??_R3CStageCollisionManager@Client@@8 0000000140292fa0     StageCollisionManager.obj
 0003:0005afb8       ??_R2CStageCollisionManager@Client@@8 0000000140292fb8     StageCollisionManager.obj
 0003:0005afd0       ??_R1A@?0A@EA@CStageCollisionManager@Client@@8 0000000140292fd0     StageCollisionManager.obj
 0003:0005b000       ??_R4CWall@Client@@6B@     0000000140293000     Wall.obj
 0003:0005b030       ??_R3CWall@Client@@8       0000000140293030     Wall.obj
 0003:0005b048       ??_R2CWall@Client@@8       0000000140293048     Wall.obj
 0003:0005b070       ??_R1A@?0A@EA@CWall@Client@@8 0000000140293070     Wall.obj
 0003:0005b0a0       ??_R4CWeapon@Client@@6B@   00000001402930a0     Weapon.obj
 0003:0005b0d0       ??_R3CWeapon@Client@@8     00000001402930d0     Weapon.obj
 0003:0005b0e8       ??_R2CWeapon@Client@@8     00000001402930e8     Weapon.obj
 0003:0005b110       ??_R1A@?0A@EA@CWeapon@Client@@8 0000000140293110     Weapon.obj
 0003:0005b140       ??_R4CTerrain@Client@@6B@  0000000140293140     Terrain.obj
 0003:0005b170       ??_R3CTerrain@Client@@8    0000000140293170     Terrain.obj
 0003:0005b188       ??_R2CTerrain@Client@@8    0000000140293188     Terrain.obj
 0003:0005b1b0       ??_R1A@?0A@EA@CTerrain@Client@@8 00000001402931b0     Terrain.obj
 0003:0005b1e0       ??_R4type_info@@6B@        00000001402931e0     MSVCRTD:std_type_info_static.obj
 0003:0005b210       ??_R3type_info@@8          0000000140293210     MSVCRTD:std_type_info_static.obj
 0003:0005b228       ??_R2type_info@@8          0000000140293228     MSVCRTD:std_type_info_static.obj
 0003:0005b238       ??_R1A@?0A@EA@type_info@@8 0000000140293238     MSVCRTD:std_type_info_static.obj
 0003:0005b268       ??_R4exception@std@@6B@    0000000140293268     MSVCRTD:throw_bad_alloc.obj
 0003:0005b298       ??_R3exception@std@@8      0000000140293298     MSVCRTD:throw_bad_alloc.obj
 0003:0005b2b0       ??_R2exception@std@@8      00000001402932b0     MSVCRTD:throw_bad_alloc.obj
 0003:0005b2c0       ??_R1A@?0A@EA@exception@std@@8 00000001402932c0     MSVCRTD:throw_bad_alloc.obj
 0003:0005b2f0       ??_R4bad_alloc@std@@6B@    00000001402932f0     MSVCRTD:throw_bad_alloc.obj
 0003:0005b320       ??_R3bad_alloc@std@@8      0000000140293320     MSVCRTD:throw_bad_alloc.obj
 0003:0005b338       ??_R2bad_alloc@std@@8      0000000140293338     MSVCRTD:throw_bad_alloc.obj
 0003:0005b350       ??_R1A@?0A@EA@bad_alloc@std@@8 0000000140293350     MSVCRTD:throw_bad_alloc.obj
 0003:0005b380       ??_R4bad_array_new_length@std@@6B@ 0000000140293380     MSVCRTD:throw_bad_alloc.obj
 0003:0005b3b0       ??_R3bad_array_new_length@std@@8 00000001402933b0     MSVCRTD:throw_bad_alloc.obj
 0003:0005b3c8       ??_R2bad_array_new_length@std@@8 00000001402933c8     MSVCRTD:throw_bad_alloc.obj
 0003:0005b3f0       ??_R1A@?0A@EA@bad_array_new_length@std@@8 00000001402933f0     MSVCRTD:throw_bad_alloc.obj
 0003:0005b700       __rtc_iaa                  0000000140293700     MSVCRTD:_initsect_.obj
 0003:0005bb28       __rtc_izz                  0000000140293b28     MSVCRTD:_initsect_.obj
 0003:0005bc38       __rtc_taa                  0000000140293c38     MSVCRTD:_initsect_.obj
 0003:0005c060       __rtc_tzz                  0000000140294060     MSVCRTD:_initsect_.obj
 0003:00072a60       _TI2?AVbad_alloc@std@@     00000001402aaa60     MSVCRTD:throw_bad_alloc.obj
 0003:00072a80       _CTA2?AVbad_alloc@std@@    00000001402aaa80     MSVCRTD:throw_bad_alloc.obj
 0003:00072a98       _CT??_R0?AVbad_alloc@std@@@8??0bad_alloc@std@@QEAA@AEBV01@@Z24 00000001402aaa98     MSVCRTD:throw_bad_alloc.obj
 0003:00072ac0       _CT??_R0?AVexception@std@@@8??0exception@std@@QEAA@AEBV01@@Z24 00000001402aaac0     MSVCRTD:throw_bad_alloc.obj
 0003:00072ae8       _TI3?AVbad_array_new_length@std@@ 00000001402aaae8     MSVCRTD:throw_bad_alloc.obj
 0003:00072b08       _CTA3?AVbad_array_new_length@std@@ 00000001402aab08     MSVCRTD:throw_bad_alloc.obj
 0003:00072b28       _CT??_R0?AVbad_array_new_length@std@@@8??0bad_array_new_length@std@@QEAA@AEBV01@@Z24 00000001402aab28     MSVCRTD:throw_bad_alloc.obj
 0004:00000014       ?__LINE__Var@?0??MouseButtonToKey@ImGui@@YA?AW4ImGuiKey@@H@Z@4JA 00000001402ab014     imgui.obj
 0004:00000018       ?__LINE__Var@?0??GetKeyOwnerData@ImGui@@YAPEAUImGuiKeyOwnerData@@W4ImGuiKey@@@Z@4JA 00000001402ab018     imgui.obj
 0004:0000001c       ?__LINE__Var@?0??AddInputCharacter@ImGuiIO@@QEAAXI@Z@4JA 00000001402ab01c     imgui.obj
 0004:00000020       ?__LINE__Var@?0??AddKeyAnalogEvent@ImGuiIO@@QEAAXW4ImGuiKey@@_NM@Z@4JA 00000001402ab020     imgui.obj
 0004:00000024       ?__LINE__Var@?0??SetKeyEventNativeData@ImGuiIO@@QEAAXW4ImGuiKey@@HHH@Z@4JA 00000001402ab024     imgui.obj
 0004:00000028       ?__LINE__Var@?0??AddMousePosEvent@ImGuiIO@@QEAAXMM@Z@4JA 00000001402ab028     imgui.obj
 0004:0000002c       ?__LINE__Var@?0??AddMouseButtonEvent@ImGuiIO@@QEAAXH_N@Z@4JA 00000001402ab02c     imgui.obj
 0004:00000030       ?__LINE__Var@?0??AddMouseWheelEvent@ImGuiIO@@QEAAXMM@Z@4JA 00000001402ab030     imgui.obj
 0004:00000034       ?__LINE__Var@?0??AddFocusEvent@ImGuiIO@@QEAAX_N@Z@4JA 00000001402ab034     imgui.obj
 0004:00000038       ?__LINE__Var@?0??ImBezierCubicClosestPoint@@YA?AUImVec2@@AEBU2@0000H@Z@4JA 00000001402ab038     imgui.obj
 0004:0000003c       ?__LINE__Var@?0??ImBezierCubicClosestPointCasteljau@@YA?AUImVec2@@AEBU2@0000M@Z@4JA 00000001402ab03c     imgui.obj
 0004:00000040       ?__LINE__Var@?0??ImFileLoadToMemory@@YAPEAXPEBD0PEA_KH@Z@4JA 00000001402ab040     imgui.obj
 0004:00000044       ?__LINE__Var@?0??append@ImGuiTextIndex@@QEAAXPEBDHH@Z@4JA 00000001402ab044     imgui.obj
 0004:00000048       ?__LINE__Var@?0??ImGuiListClipper_SortAndFuseRanges@@YAXAEAU?$ImVector@UImGuiListClipperRange@@@@H@Z@4JA 00000001402ab048     imgui.obj
 0004:0000004c       ?__LINE__Var@?0??End@ImGuiListClipper@@QEAAXXZ@4JA 00000001402ab04c     imgui.obj
 0004:00000050       ?__LINE__Var@?0??ForceDisplayRangeByIndices@ImGuiListClipper@@QEAAXHH@Z@4JA 00000001402ab050     imgui.obj
 0004:00000054       ?__LINE__Var@?0??ImGuiListClipper_StepInternal@@YA_NPEAUImGuiListClipper@@@Z@4JA 00000001402ab054     imgui.obj
 0004:00000058       ?__LINE__Var@?0??GetStyle@ImGui@@YAAEAUImGuiStyle@@XZ@4JA 00000001402ab058     imgui.obj
 0004:0000005c       ?__LINE__Var@?0??PopStyleColor@ImGui@@YAXH@Z@4JA 00000001402ab05c     imgui.obj
 0004:00000060       ?__LINE__Var@?0??GetStyleVarInfo@@YAPEBUImGuiStyleVarInfo@@H@Z@4JA 00000001402ab060     imgui.obj
 0004:00000064       ?__LINE__Var@?0??PushStyleVar@ImGui@@YAXHM@Z@4JA 00000001402ab064     imgui.obj
 0004:00000068       ?__LINE__Var@?0??PushStyleVar@ImGui@@YAXHAEBUImVec2@@@Z@4JA 00000001402ab068     imgui.obj
 0004:0000006c       ?__LINE__Var@?0??PopStyleVar@ImGui@@YAXH@Z@4JA 00000001402ab06c     imgui.obj
 0004:00000070       ?__LINE__Var@?0??GetStyleColorName@ImGui@@YAPEBDH@Z@4JA 00000001402ab070     imgui.obj
 0004:00000074       ?__LINE__Var@?0??RenderMouseCursor@ImGui@@YAXUImVec2@@MHIII@Z@4JA 00000001402ab074     imgui.obj
 0004:00000078       ?__LINE__Var@?0??Initialize@ImGui@@YAXXZ@4JA 00000001402ab078     imgui.obj
 0004:0000007c       ?__LINE__Var@?0??AddContextHook@ImGui@@YAIPEAUImGuiContext@@PEBUImGuiContextHook@@@Z@4JA 00000001402ab07c     imgui.obj
 0004:00000080       ?__LINE__Var@?0??RemoveContextHook@ImGui@@YAXPEAUImGuiContext@@I@Z@4JA 00000001402ab080     imgui.obj
 0004:00000084       ?__LINE__Var@?0???1ImGuiWindow@@QEAA@XZ@4JA 00000001402ab084     imgui.obj
 0004:00000088       ?__LINE__Var@?0??MarkItemEdited@ImGui@@YAXI@Z@4JA 00000001402ab088     imgui.obj
 0004:0000008c       ?__LINE__Var@?0??IsItemHovered@ImGui@@YA_NH@Z@4JA 00000001402ab08c     imgui.obj
 0004:00000090       ?__LINE__Var@?0??GetIO@ImGui@@YAAEAUImGuiIO@@XZ@4JA 00000001402ab090     imgui.obj
 0004:00000094       ?__LINE__Var@?0??GetViewportDrawList@@YAPEAUImDrawList@@PEAUImGuiViewportP@@_KPEBD@Z@4JA 00000001402ab094     imgui.obj
 0004:00000098       ?__LINE__Var@?0??UpdateMouseMovingWindowNewFrame@ImGui@@YAXXZ@4JA 00000001402ab098     imgui.obj
 0004:0000009c       ?__LINE__Var@?0??NewFrame@ImGui@@YAXXZ@4JA 00000001402ab09c     imgui.obj
 0004:000000a0       ?__LINE__Var@?0??AddDrawListToDrawData@@YAXPEAU?$ImVector@PEAUImDrawList@@@@PEAUImDrawList@@@Z@4JA 00000001402ab0a0     imgui.obj
 0004:000000a4       ?__LINE__Var@?0??RenderDimmedBackgroundBehindWindow@ImGui@@YAXPEAUImGuiWindow@@I@Z@4JA 00000001402ab0a4     imgui.obj
 0004:000000a8       ?__LINE__Var@?0??EndFrame@ImGui@@YAXXZ@4JA 00000001402ab0a8     imgui.obj
 0004:000000ac       ?__LINE__Var@?0??Render@ImGui@@YAXXZ@4JA 00000001402ab0ac     imgui.obj
 0004:000000b0       ?__LINE__Var@?0??SetActiveIdUsingAllKeyboardKeys@ImGui@@YAXXZ@4JA 00000001402ab0b0     imgui.obj
 0004:000000b4       ?__LINE__Var@?0??BeginChild@ImGui@@YA_NIAEBUImVec2@@_NH@Z@4JA 00000001402ab0b4     imgui.obj
 0004:000000b8       ?__LINE__Var@?0??EndChild@ImGui@@YAXXZ@4JA 00000001402ab0b8     imgui.obj
 0004:000000bc       ?__LINE__Var@?0??UpdateWindowInFocusOrderList@@YAXPEAUImGuiWindow@@_NH@Z@4JA 00000001402ab0bc     imgui.obj
 0004:000000c0       ?__LINE__Var@?0??GetResizeBorderRect@@YA?AUImRect@@PEAUImGuiWindow@@HMM@Z@4JA 00000001402ab0c0     imgui.obj
 0004:000000c4       ?__LINE__Var@?0??GetWindowResizeCornerID@ImGui@@YAIPEAUImGuiWindow@@H@Z@4JA 00000001402ab0c4     imgui.obj
 0004:000000c8       ?__LINE__Var@?0??GetWindowResizeBorderID@ImGui@@YAIPEAUImGuiWindow@@H@Z@4JA 00000001402ab0c8     imgui.obj
 0004:000000cc       ?__LINE__Var@?0??RenderWindowDecorations@ImGui@@YAXPEAUImGuiWindow@@AEBUImRect@@_N2HQEBIM@Z@4JA 00000001402ab0cc     imgui.obj
 0004:000000d0       ?__LINE__Var@?0??UpdateWindowParentAndRootLinks@ImGui@@YAXPEAUImGuiWindow@@H0@Z@4JA 00000001402ab0d0     imgui.obj
 0004:000000d4       ?__LINE__Var@?0??Begin@ImGui@@YA_NPEBDPEA_NH@Z@4JA 00000001402ab0d4     imgui.obj
 0004:000000d8       ?__LINE__Var@?0??End@ImGui@@YAXXZ@4JA 00000001402ab0d8     imgui.obj
 0004:000000dc       ?__LINE__Var@?0??BringWindowToFocusFront@ImGui@@YAXPEAUImGuiWindow@@@Z@4JA 00000001402ab0dc     imgui.obj
 0004:000000e0       ?__LINE__Var@?0??BringWindowToDisplayBehind@ImGui@@YAXPEAUImGuiWindow@@0@Z@4JA 00000001402ab0e0     imgui.obj
 0004:000000e4       ?__LINE__Var@?0??FocusWindow@ImGui@@YAXPEAUImGuiWindow@@@Z@4JA 00000001402ab0e4     imgui.obj
 0004:000000e8       ?__LINE__Var@?0??FocusTopMostWindowUnderOne@ImGui@@YAXPEAUImGuiWindow@@0@Z@4JA 00000001402ab0e8     imgui.obj
 0004:000000ec       ?__LINE__Var@?0??SetCurrentFont@ImGui@@YAXPEAUImFont@@@Z@4JA 00000001402ab0ec     imgui.obj
 0004:000000f0       ?__LINE__Var@?0??PushItemFlag@ImGui@@YAXH_N@Z@4JA 00000001402ab0f0     imgui.obj
 0004:000000f4       ?__LINE__Var@?0??PopItemFlag@ImGui@@YAXXZ@4JA 00000001402ab0f4     imgui.obj
 0004:000000f8       ?__LINE__Var@?0??EndDisabled@ImGui@@YAXXZ@4JA 00000001402ab0f8     imgui.obj
 0004:000000fc       ?__LINE__Var@?0??IsWindowHovered@ImGui@@YA_NH@Z@4JA 00000001402ab0fc     imgui.obj
 0004:00000100       ?__LINE__Var@?0??IsWindowFocused@ImGui@@YA_NH@Z@4JA 00000001402ab100     imgui.obj
 0004:00000104       ?__LINE__Var@?0??SetWindowPos@ImGui@@YAXPEAUImGuiWindow@@AEBUImVec2@@H@Z@4JA 00000001402ab104     imgui.obj
 0004:00000108       ?__LINE__Var@?0??SetWindowSize@ImGui@@YAXPEAUImGuiWindow@@AEBUImVec2@@H@Z@4JA 00000001402ab108     imgui.obj
 0004:0000010c       ?__LINE__Var@?0??SetWindowHitTestHole@ImGui@@YAXPEAUImGuiWindow@@AEBUImVec2@@1@Z@4JA 00000001402ab10c     imgui.obj
 0004:00000110       ?__LINE__Var@?0??SetNextWindowPos@ImGui@@YAXAEBUImVec2@@H0@Z@4JA 00000001402ab110     imgui.obj
 0004:00000114       ?__LINE__Var@?0??SetNextWindowSize@ImGui@@YAXAEBUImVec2@@H@Z@4JA 00000001402ab114     imgui.obj
 0004:00000118       ?__LINE__Var@?0??SetNextWindowCollapsed@ImGui@@YAX_NH@Z@4JA 00000001402ab118     imgui.obj
 0004:0000011c       ?__LINE__Var@?0??SetWindowFontScale@ImGui@@YAXM@Z@4JA 00000001402ab11c     imgui.obj
 0004:00000120       ?__LINE__Var@?0??PopFocusScope@ImGui@@YAXXZ@4JA 00000001402ab120     imgui.obj
 0004:00000124       ?__LINE__Var@?0??SetKeyboardFocusHere@ImGui@@YAXH@Z@4JA 00000001402ab124     imgui.obj
 0004:00000128       ?__LINE__Var@?0??PopID@ImGui@@YAXXZ@4JA 00000001402ab128     imgui.obj
 0004:0000012c       ?__LINE__Var@?0??GetKeyData@ImGui@@YAPEAUImGuiKeyData@@W4ImGuiKey@@@Z@4JA 00000001402ab12c     imgui.obj
 0004:00000130       ?__LINE__Var@?0??GetKeyIndex@ImGui@@YA?AW4ImGuiKey@@W43@@Z@4JA 00000001402ab130     imgui.obj
 0004:00000134       ?__LINE__Var@?0??GetKeyName@ImGui@@YAPEBDW4ImGuiKey@@@Z@4JA 00000001402ab134     imgui.obj
 0004:00000138       ?__LINE__Var@?0??GetShortcutRoutingData@ImGui@@YAPEAUImGuiKeyRoutingData@@H@Z@4JA 00000001402ab138     imgui.obj
 0004:0000013c       ?__LINE__Var@?0??CalcRoutingScore@@YAHPEAUImGuiWindow@@IH@Z@4JA 00000001402ab13c     imgui.obj
 0004:00000140       ?__LINE__Var@?0??SetShortcutRouting@ImGui@@YA_NHIH@Z@4JA 00000001402ab140     imgui.obj
 0004:00000144       ?__LINE__Var@?0??IsKeyPressed@ImGui@@YA_NW4ImGuiKey@@IH@Z@4JA 00000001402ab144     imgui.obj
 0004:00000148       ?__LINE__Var@?0??IsMouseDown@ImGui@@YA_NH@Z@4JA 00000001402ab148     imgui.obj
 0004:0000014c       ?__LINE__Var@?0??IsMouseDown@ImGui@@YA_NHI@Z@4JA 00000001402ab14c     imgui.obj
 0004:00000150       ?__LINE__Var@?0??IsMouseClicked@ImGui@@YA_NHIH@Z@4JA 00000001402ab150     imgui.obj
 0004:00000154       ?__LINE__Var@?0??IsMouseReleased@ImGui@@YA_NH@Z@4JA 00000001402ab154     imgui.obj
 0004:00000158       ?__LINE__Var@?0??IsMouseReleased@ImGui@@YA_NHI@Z@4JA 00000001402ab158     imgui.obj
 0004:0000015c       ?__LINE__Var@?0??IsMouseDoubleClicked@ImGui@@YA_NH@Z@4JA 00000001402ab15c     imgui.obj
 0004:00000160       ?__LINE__Var@?0??GetMouseClickedCount@ImGui@@YAHH@Z@4JA 00000001402ab160     imgui.obj
 0004:00000164       ?__LINE__Var@?0??IsMouseDragPastThreshold@ImGui@@YA_NHM@Z@4JA 00000001402ab164     imgui.obj
 0004:00000168       ?__LINE__Var@?0??IsMouseDragging@ImGui@@YA_NHM@Z@4JA 00000001402ab168     imgui.obj
 0004:0000016c       ?__LINE__Var@?0??IsMousePosValid@ImGui@@YA_NPEBUImVec2@@@Z@4JA 00000001402ab16c     imgui.obj
 0004:00000170       ?__LINE__Var@?0??GetMouseDragDelta@ImGui@@YA?AUImVec2@@HM@Z@4JA 00000001402ab170     imgui.obj
 0004:00000174       ?__LINE__Var@?0??ResetMouseDragDelta@ImGui@@YAXH@Z@4JA 00000001402ab174     imgui.obj
 0004:00000178       ?__LINE__Var@?0??UpdateAliasKey@@YAXW4ImGuiKey@@_NM@Z@4JA 00000001402ab178     imgui.obj
 0004:0000017c       ?__LINE__Var@?0??UpdateKeyboardInputs@ImGui@@YAXXZ@4JA 00000001402ab17c     imgui.obj
 0004:00000180       ?__LINE__Var@?0??GetInputSourceName@@YAPEBDW4ImGuiInputSource@@@Z@4JA 00000001402ab180     imgui.obj
 0004:00000184       ?__LINE__Var@?0??UpdateInputEvents@ImGui@@YAX_N@Z@4JA 00000001402ab184     imgui.obj
 0004:00000188       ?__LINE__Var@?0??SetKeyOwner@ImGui@@YAXW4ImGuiKey@@IH@Z@4JA 00000001402ab188     imgui.obj
 0004:0000018c       ?__LINE__Var@?0??SetItemKeyOwner@ImGui@@YAXW4ImGuiKey@@H@Z@4JA 00000001402ab18c     imgui.obj
 0004:00000190       ?__LINE__Var@?0??Shortcut@ImGui@@YA_NHIH@Z@4JA 00000001402ab190     imgui.obj
 0004:00000194       ?__LINE__Var@?0??DebugCheckVersionAndDataLayout@ImGui@@YA_NPEBD_K11111@Z@4JA 00000001402ab194     imgui.obj
 0004:00000198       ?__LINE__Var@?0??ErrorCheckUsingSetCursorPosToExtendParentBoundaries@ImGui@@YAXXZ@4JA 00000001402ab198     imgui.obj
 0004:0000019c       ?__LINE__Var@?0??ErrorCheckNewFrameSanityChecks@ImGui@@YAXXZ@4JA 00000001402ab19c     imgui.obj
 0004:000001a0       ?__LINE__Var@?0??ErrorCheckEndFrameSanityChecks@ImGui@@YAXXZ@4JA 00000001402ab1a0     imgui.obj
 0004:000001a4       ?__LINE__Var@?0??ErrorCheckEndFrameRecover@ImGui@@YAXP6AXPEAXPEBDZZ0@Z@4JA 00000001402ab1a4     imgui.obj
 0004:000001a8       ?__LINE__Var@?0??ErrorCheckEndWindowRecover@ImGui@@YAXP6AXPEAXPEBDZZ0@Z@4JA 00000001402ab1a8     imgui.obj
 0004:000001ac       ?__LINE__Var@?0??CompareWithCurrentState@ImGuiStackSizes@@QEAAXXZ@4JA 00000001402ab1ac     imgui.obj
 0004:000001b0       ?__LINE__Var@?0??ItemAdd@ImGui@@YA_NAEBUImRect@@IPEBU3@H@Z@4JA 00000001402ab1b0     imgui.obj
 0004:000001b4       ?__LINE__Var@?0??EndGroup@ImGui@@YAXXZ@4JA 00000001402ab1b4     imgui.obj
 0004:000001b8       ?__LINE__Var@?0??ScrollToRectEx@ImGui@@YA?AUImVec2@@PEAUImGuiWindow@@AEBUImRect@@H@Z@4JA 00000001402ab1b8     imgui.obj
 0004:000001bc       ?__LINE__Var@?0??SetScrollFromPosX@ImGui@@YAXPEAUImGuiWindow@@MM@Z@4JA 00000001402ab1bc     imgui.obj
 0004:000001c0       ?__LINE__Var@?0??SetScrollFromPosY@ImGui@@YAXPEAUImGuiWindow@@MM@Z@4JA 00000001402ab1c0     imgui.obj
 0004:000001c4       ?__LINE__Var@?0??EndTooltip@ImGui@@YAXXZ@4JA 00000001402ab1c4     imgui.obj
 0004:000001c8       ?__LINE__Var@?0??IsPopupOpen@ImGui@@YA_NIH@Z@4JA 00000001402ab1c8     imgui.obj
 0004:000001cc       ?__LINE__Var@?0??IsPopupOpen@ImGui@@YA_NPEBDH@Z@4JA 00000001402ab1cc     imgui.obj
 0004:000001d0       ?__LINE__Var@?0??ClosePopupsOverWindow@ImGui@@YAXPEAUImGuiWindow@@_N@Z@4JA 00000001402ab1d0     imgui.obj
 0004:000001d4       ?__LINE__Var@?0??ClosePopupToLevel@ImGui@@YAXH_N@Z@4JA 00000001402ab1d4     imgui.obj
 0004:000001d8       ?__LINE__Var@?0??EndPopup@ImGui@@YAXXZ@4JA 00000001402ab1d8     imgui.obj
 0004:000001dc       ?__LINE__Var@?0??OpenPopupOnItemClick@ImGui@@YAXPEBDH@Z@4JA 00000001402ab1dc     imgui.obj
 0004:000001e0       ?__LINE__Var@?0??BeginPopupContextItem@ImGui@@YA_NPEBDH@Z@4JA 00000001402ab1e0     imgui.obj
 0004:000001e4       ?__LINE__Var@?0??FindBestWindowPosForPopup@ImGui@@YA?AUImVec2@@PEAUImGuiWindow@@@Z@4JA 00000001402ab1e4     imgui.obj
 0004:000001e8       ?__LINE__Var@?0??SetNavID@ImGui@@YAXIW4ImGuiNavLayer@@IAEBUImRect@@@Z@4JA 00000001402ab1e8     imgui.obj
 0004:000001ec       ?__LINE__Var@?0??SetFocusID@ImGui@@YAXIPEAUImGuiWindow@@@Z@4JA 00000001402ab1ec     imgui.obj
 0004:000001f0       ?__LINE__Var@?0??NavScoreItem@ImGui@@YA_NPEAUImGuiNavItemData@@@Z@4JA 00000001402ab1f0     imgui.obj
 0004:000001f4       ?__LINE__Var@?0??NavMoveRequestSubmit@ImGui@@YAXHHHH@Z@4JA 00000001402ab1f4     imgui.obj
 0004:000001f8       ?__LINE__Var@?0??NavMoveRequestForward@ImGui@@YAXHHHH@Z@4JA 00000001402ab1f8     imgui.obj
 0004:000001fc       ?__LINE__Var@?0??NavMoveRequestTryWrapping@ImGui@@YAXPEAUImGuiWindow@@H@Z@4JA 00000001402ab1fc     imgui.obj
 0004:00000200       ?__LINE__Var@?0??NavUpdateAnyRequestFlag@ImGui@@YAXXZ@4JA 00000001402ab200     imgui.obj
 0004:00000204       ?__LINE__Var@?0??NavInitWindow@ImGui@@YAXPEAUImGuiWindow@@_N@Z@4JA 00000001402ab204     imgui.obj
 0004:00000208       ?__LINE__Var@?0??NavUpdate@ImGui@@YAXXZ@4JA 00000001402ab208     imgui.obj
 0004:0000020c       ?__LINE__Var@?0??NavUpdateCreateMoveRequest@ImGui@@YAXXZ@4JA 00000001402ab20c     imgui.obj
 0004:00000210       ?__LINE__Var@?0??NavUpdateCreateTabbingRequest@ImGui@@YAXXZ@4JA 00000001402ab210     imgui.obj
 0004:00000214       ?__LINE__Var@?0??NavMoveRequestApplyResult@ImGui@@YAXXZ@4JA 00000001402ab214     imgui.obj
 0004:00000218       ?__LINE__Var@?0??NavUpdateCancelRequest@ImGui@@YAXXZ@4JA 00000001402ab218     imgui.obj
 0004:0000021c       ?__LINE__Var@?0??FindWindowFocusIndex@ImGui@@YAHPEAUImGuiWindow@@@Z@4JA 00000001402ab21c     imgui.obj
 0004:00000220       ?__LINE__Var@?0??NavUpdateWindowingHighlightWindow@@YAXH@Z@4JA 00000001402ab220     imgui.obj
 0004:00000224       ?__LINE__Var@?0??NavUpdateWindowing@ImGui@@YAXXZ@4JA 00000001402ab224     imgui.obj
 0004:00000228       ?__LINE__Var@?0??NavUpdateWindowingOverlay@ImGui@@YAXXZ@4JA 00000001402ab228     imgui.obj
 0004:0000022c       ?__LINE__Var@?0??BeginDragDropSource@ImGui@@YA_NH@Z@4JA 00000001402ab22c     imgui.obj
 0004:00000230       ?__LINE__Var@?0??EndDragDropSource@ImGui@@YAXXZ@4JA 00000001402ab230     imgui.obj
 0004:00000234       ?__LINE__Var@?0??SetDragDropPayload@ImGui@@YA_NPEBDPEBX_KH@Z@4JA 00000001402ab234     imgui.obj
 0004:00000238       ?__LINE__Var@?0??BeginDragDropTargetCustom@ImGui@@YA_NAEBUImRect@@I@Z@4JA 00000001402ab238     imgui.obj
 0004:0000023c       ?__LINE__Var@?0??BeginDragDropTarget@ImGui@@YA_NXZ@4JA 00000001402ab23c     imgui.obj
 0004:00000240       ?__LINE__Var@?0??AcceptDragDropPayload@ImGui@@YAPEBUImGuiPayload@@PEBDH@Z@4JA 00000001402ab240     imgui.obj
 0004:00000244       ?__LINE__Var@?0??EndDragDropTarget@ImGui@@YAXXZ@4JA 00000001402ab244     imgui.obj
 0004:00000248       ?__LINE__Var@?0??LogBegin@ImGui@@YAXW4ImGuiLogType@@H@Z@4JA 00000001402ab248     imgui.obj
 0004:0000024c       ?__LINE__Var@?0??LogToFile@ImGui@@YAXHPEBD@Z@4JA 00000001402ab24c     imgui.obj
 0004:00000250       ?__LINE__Var@?0??LogFinish@ImGui@@YAXXZ@4JA 00000001402ab250     imgui.obj
 0004:00000254       ?__LINE__Var@?0??UpdateSettings@ImGui@@YAXXZ@4JA 00000001402ab254     imgui.obj
 0004:00000258       ?__LINE__Var@?0??AddSettingsHandler@ImGui@@YAXPEBUImGuiSettingsHandler@@@Z@4JA 00000001402ab258     imgui.obj
 0004:0000025c       ?__LINE__Var@?0??LoadIniSettingsFromMemory@ImGui@@YAXPEBD_K@Z@4JA 00000001402ab25c     imgui.obj
 0004:00000260       ?__LINE__Var@?0??WindowSettingsHandler_WriteAll@@YAXPEAUImGuiContext@@PEAUImGuiSettingsHandler@@PEAUImGuiTextBuffer@@@Z@4JA 00000001402ab260     imgui.obj
 0004:00000264       ?__LINE__Var@?0??UpdateViewportsNewFrame@ImGui@@YAXXZ@4JA 00000001402ab264     imgui.obj
 0004:00000268       ?__LINE__Var@?0??DebugNodeDrawCmdShowMeshAndBoundingBox@ImGui@@YAXPEAUImDrawList@@PEBU3@PEBUImDrawCmd@@_N3@Z@4JA 00000001402ab268     imgui.obj
 0004:0000026c       ?__LINE__Var@?0??DebugHookIdInfo@ImGui@@YAXIHPEBX0@Z@4JA 00000001402ab26c     imgui.obj
 0004:00005614       ?__LINE__Var@?0??ShowDemoWindow@ImGui@@YAXPEA_N@Z@4JA 00000001402b0614     imgui_demo.obj
 0004:00005618       ?__LINE__Var@?0??ShowDemoWindowWidgets@@YAXXZ@4JA 00000001402b0618     imgui_demo.obj
 0004:0000561c       ?__LINE__Var@?0??ShowDemoWindowLayout@@YAXXZ@4JA 00000001402b061c     imgui_demo.obj
 0004:00005620       ?__LINE__Var@?0??ShowDemoWindowPopups@@YAXXZ@4JA 00000001402b0620     imgui_demo.obj
 0004:00005624       ?__LINE__Var@?0??ShowDemoWindowTables@@YAXXZ@4JA 00000001402b0624     imgui_demo.obj
 0004:00005628       ?__LINE__Var@?0??ShowDemoWindowColumns@@YAXXZ@4JA 00000001402b0628     imgui_demo.obj
 0004:0000562c       ?__LINE__Var@?0??ShowDemoWindowInputs@@YAXXZ@4JA 00000001402b062c     imgui_demo.obj
 0004:00005630       ?__LINE__Var@?0??ShowAboutWindow@ImGui@@YAXPEA_N@Z@4JA 00000001402b0630     imgui_demo.obj
 0004:00005634       ?__LINE__Var@?0??ShowStyleEditor@ImGui@@YAXPEAUImGuiStyle@@@Z@4JA 00000001402b0634     imgui_demo.obj
 0004:00005638       ?__LINE__Var@?0??ShowExampleMenuFile@@YAXXZ@4JA 00000001402b0638     imgui_demo.obj
 0004:0000563c       ?__LINE__Var@?0??ShowExampleAppLog@@YAXPEA_N@Z@4JA 00000001402b063c     imgui_demo.obj
 0004:00005640       ?__LINE__Var@?0??ShowExampleAppLayout@@YAXPEA_N@Z@4JA 00000001402b0640     imgui_demo.obj
 0004:00005644       ?__LINE__Var@?0??ShowExampleAppPropertyEditor@@YAXPEA_N@Z@4JA 00000001402b0644     imgui_demo.obj
 0004:00005648       ?__LINE__Var@?0??ShowExampleAppLongText@@YAXPEA_N@Z@4JA 00000001402b0648     imgui_demo.obj
 0004:0000564c       ?__LINE__Var@?0??ShowExampleAppAutoResize@@YAXPEA_N@Z@4JA 00000001402b064c     imgui_demo.obj
 0004:00005650       ?__LINE__Var@?0??ShowExampleAppConstrainedResize@@YAXPEA_N@Z@4JA 00000001402b0650     imgui_demo.obj
 0004:00005654       ?__LINE__Var@?0??ShowExampleAppSimpleOverlay@@YAXPEA_N@Z@4JA 00000001402b0654     imgui_demo.obj
 0004:00005658       ?__LINE__Var@?0??ShowExampleAppWindowTitles@@YAXPEA_N@Z@4JA 00000001402b0658     imgui_demo.obj
 0004:0000565c       ?__LINE__Var@?0??ShowExampleAppCustomRendering@@YAXPEA_N@Z@4JA 00000001402b065c     imgui_demo.obj
 0004:00005694       ?__LINE__Var@?0??stbrp__skyline_find_min_y@@YAHPEAUstbrp_context@@PEAUstbrp_node@@HHPEAH@Z@4JA 00000001402b0694     imgui_draw.obj
 0004:00005698       ?__LINE__Var@?0??stbrp__skyline_find_best_pos@@YA?AUstbrp__findresult@@PEAUstbrp_context@@HH@Z@4JA 00000001402b0698     imgui_draw.obj
 0004:0000569c       ?__LINE__Var@?0??stbrp__skyline_pack_rectangle@@YA?AUstbrp__findresult@@PEAUstbrp_context@@HH@Z@4JA 00000001402b069c     imgui_draw.obj
 0004:000056a0       ?__LINE__Var@?0??stbtt__buf_seek@@YAXPEAUstbtt__buf@@H@Z@4JA 00000001402b06a0     imgui_draw.obj
 0004:000056a4       ?__LINE__Var@?0??stbtt__buf_get@@YAIPEAUstbtt__buf@@H@Z@4JA 00000001402b06a4     imgui_draw.obj
 0004:000056a8       ?__LINE__Var@?0??stbtt__new_buf@@YA?AUstbtt__buf@@PEBX_K@Z@4JA 00000001402b06a8     imgui_draw.obj
 0004:000056ac       ?__LINE__Var@?0??stbtt__cff_get_index@@YA?AUstbtt__buf@@PEAU2@@Z@4JA 00000001402b06ac     imgui_draw.obj
 0004:000056b0       ?__LINE__Var@?0??stbtt__cff_int@@YAIPEAUstbtt__buf@@@Z@4JA 00000001402b06b0     imgui_draw.obj
 0004:000056b4       ?__LINE__Var@?0??stbtt__cff_skip_operand@@YAXPEAUstbtt__buf@@@Z@4JA 00000001402b06b4     imgui_draw.obj
 0004:000056b8       ?__LINE__Var@?0??stbtt__cff_index_get@@YA?AUstbtt__buf@@U2@H@Z@4JA 00000001402b06b8     imgui_draw.obj
 0004:000056bc       ?__LINE__Var@?0??stbtt_FindGlyphIndex@@9@4JA 00000001402b06bc     imgui_draw.obj
 0004:000056c0       ?__LINE__Var@?0??stbtt__GetGlyfOffset@@YAHPEBUstbtt_fontinfo@@H@Z@4JA 00000001402b06c0     imgui_draw.obj
 0004:000056c4       ?__LINE__Var@?0??stbtt__GetGlyphShapeTT@@YAHPEBUstbtt_fontinfo@@HPEAPEAUstbtt_vertex@@@Z@4JA 00000001402b06c4     imgui_draw.obj
 0004:000056c8       ?__LINE__Var@?0??stbtt__GetGlyphShapeT2@@YAHPEBUstbtt_fontinfo@@HPEAPEAUstbtt_vertex@@@Z@4JA 00000001402b06c8     imgui_draw.obj
 0004:000056cc       ?__LINE__Var@?0??stbtt__new_active@@YAPEAUstbtt__active_edge@@PEAUstbtt__hheap@@PEAUstbtt__edge@@HMPEAX@Z@4JA 00000001402b06cc     imgui_draw.obj
 0004:000056d0       ?__LINE__Var@?0??stbtt__handle_clipped_edge@@YAXPEAMHPEAUstbtt__active_edge@@MMMM@Z@4JA 00000001402b06d0     imgui_draw.obj
 0004:000056d4       ?__LINE__Var@?0??stbtt__sized_trapezoid_area@@YAMMMM@Z@4JA 00000001402b06d4     imgui_draw.obj
 0004:000056d8       ?__LINE__Var@?0??stbtt__fill_active_edges_new@@YAXPEAM0HPEAUstbtt__active_edge@@M@Z@4JA 00000001402b06d8     imgui_draw.obj
 0004:000056dc       ?__LINE__Var@?0??stbtt__rasterize_sorted_edges@@YAXPEAUstbtt__bitmap@@PEAUstbtt__edge@@HHHHPEAX@Z@4JA 00000001402b06dc     imgui_draw.obj
 0004:000056e0       ?__LINE__Var@?0??stbtt__h_prefilter@@YAXPEAEHHHI@Z@4JA 00000001402b06e0     imgui_draw.obj
 0004:000056e4       ?__LINE__Var@?0??stbtt__v_prefilter@@YAXPEAEHHHI@Z@4JA 00000001402b06e4     imgui_draw.obj
 0004:000056e8       ?__LINE__Var@?0??SetCircleTessellationMaxError@ImDrawListSharedData@@QEAAXM@Z@4JA 00000001402b06e8     imgui_draw.obj
 0004:000056ec       ?__LINE__Var@?0??AddDrawCmd@ImDrawList@@QEAAXXZ@4JA 00000001402b06ec     imgui_draw.obj
 0004:000056f0       ?__LINE__Var@?0??AddCallback@ImDrawList@@QEAAXP6AXPEBU2@PEBUImDrawCmd@@@ZPEAX@Z@4JA 00000001402b06f0     imgui_draw.obj
 0004:000056f4       ?__LINE__Var@?0??_OnChangedClipRect@ImDrawList@@QEAAXXZ@4JA 00000001402b06f4     imgui_draw.obj
 0004:000056f8       ?__LINE__Var@?0??_OnChangedTextureID@ImDrawList@@QEAAXXZ@4JA 00000001402b06f8     imgui_draw.obj
 0004:000056fc       ?__LINE__Var@?0??_OnChangedVtxOffset@ImDrawList@@QEAAXXZ@4JA 00000001402b06fc     imgui_draw.obj
 0004:00005700       ?__LINE__Var@?0??PathBezierCubicCurveTo@ImDrawList@@QEAAXAEBUImVec2@@00H@Z@4JA 00000001402b0700     imgui_draw.obj
 0004:00005704       ?__LINE__Var@?0??PathBezierQuadraticCurveTo@ImDrawList@@QEAAXAEBUImVec2@@0H@Z@4JA 00000001402b0704     imgui_draw.obj
 0004:00005708       ?__LINE__Var@?0??FixRectCornerFlags@@YAHH@Z@4JA 00000001402b0708     imgui_draw.obj
 0004:0000570c       ?__LINE__Var@?0??AddText@ImDrawList@@QEAAXPEBUImFont@@MAEBUImVec2@@IPEBD2MPEBUImVec4@@@Z@4JA 00000001402b070c     imgui_draw.obj
 0004:00005710       ?__LINE__Var@?0??Split@ImDrawListSplitter@@QEAAXPEAUImDrawList@@H@Z@4JA 00000001402b0710     imgui_draw.obj
 0004:00005714       ?__LINE__Var@?0??SetCurrentChannel@ImDrawListSplitter@@QEAAXPEAUImDrawList@@H@Z@4JA 00000001402b0714     imgui_draw.obj
 0004:00005718       ?__LINE__Var@?0???1ImFontAtlas@@QEAA@XZ@4JA 00000001402b0718     imgui_draw.obj
 0004:0000571c       ?__LINE__Var@?0??ClearInputData@ImFontAtlas@@QEAAXXZ@4JA 00000001402b071c     imgui_draw.obj
 0004:00005720       ?__LINE__Var@?0??ClearTexData@ImFontAtlas@@QEAAXXZ@4JA 00000001402b0720     imgui_draw.obj
 0004:00005724       ?__LINE__Var@?0??ClearFonts@ImFontAtlas@@QEAAXXZ@4JA 00000001402b0724     imgui_draw.obj
 0004:00005728       ?__LINE__Var@?0??AddFont@ImFontAtlas@@QEAAPEAUImFont@@PEBUImFontConfig@@@Z@4JA 00000001402b0728     imgui_draw.obj
 0004:0000572c       ?__LINE__Var@?0??AddFontFromFileTTF@ImFontAtlas@@QEAAPEAUImFont@@PEBDMPEBUImFontConfig@@PEBG@Z@4JA 00000001402b072c     imgui_draw.obj
 0004:00005730       ?__LINE__Var@?0??AddFontFromMemoryTTF@ImFontAtlas@@QEAAPEAUImFont@@PEAXHMPEBUImFontConfig@@PEBG@Z@4JA 00000001402b0730     imgui_draw.obj
 0004:00005734       ?__LINE__Var@?0??AddFontFromMemoryCompressedTTF@ImFontAtlas@@QEAAPEAUImFont@@PEBXHMPEBUImFontConfig@@PEBG@Z@4JA 00000001402b0734     imgui_draw.obj
 0004:00005738       ?__LINE__Var@?0??AddCustomRectRegular@ImFontAtlas@@QEAAHHH@Z@4JA 00000001402b0738     imgui_draw.obj
 0004:0000573c       ?__LINE__Var@?0??AddCustomRectFontGlyph@ImFontAtlas@@QEAAHPEAUImFont@@GHHMAEBUImVec2@@@Z@4JA 00000001402b073c     imgui_draw.obj
 0004:00005740       ?__LINE__Var@?0??CalcCustomRectUV@ImFontAtlas@@QEBAXPEBUImFontAtlasCustomRect@@PEAUImVec2@@1@Z@4JA 00000001402b0740     imgui_draw.obj
 0004:00005744       ?__LINE__Var@?0??GetMouseCursorTexData@ImFontAtlas@@QEAA_NHPEAUImVec2@@0QEAU3@1@Z@4JA 00000001402b0744     imgui_draw.obj
 0004:00005748       ?__LINE__Var@?0??Build@ImFontAtlas@@QEAA_NXZ@4JA 00000001402b0748     imgui_draw.obj
 0004:0000574c       ?__LINE__Var@?0??ImFontAtlasBuildWithStbTruetype@@YA_NPEAUImFontAtlas@@@Z@4JA 00000001402b074c     imgui_draw.obj
 0004:00005750       ?__LINE__Var@?0??ImFontAtlasBuildPackCustomRects@@YAXPEAUImFontAtlas@@PEAX@Z@4JA 00000001402b0750     imgui_draw.obj
 0004:00005754       ?__LINE__Var@?0??ImFontAtlasBuildRender8bppRectFromString@@YAXPEAUImFontAtlas@@HHHHPEBDDE@Z@4JA 00000001402b0754     imgui_draw.obj
 0004:00005758       ?__LINE__Var@?0??ImFontAtlasBuildRender32bppRectFromString@@YAXPEAUImFontAtlas@@HHHHPEBDDI@Z@4JA 00000001402b0758     imgui_draw.obj
 0004:0000575c       ?__LINE__Var@?0??ImFontAtlasBuildRenderDefaultTexData@@YAXPEAUImFontAtlas@@@Z@4JA 00000001402b075c     imgui_draw.obj
 0004:00005760       ?__LINE__Var@?0??ImFontAtlasBuildRenderLinesTexData@@YAXPEAUImFontAtlas@@@Z@4JA 00000001402b0760     imgui_draw.obj
 0004:00005764       ?__LINE__Var@?0??ImFontAtlasBuildFinish@@YAXPEAUImFontAtlas@@@Z@4JA 00000001402b0764     imgui_draw.obj
 0004:00005768       ?__LINE__Var@?0??BuildLookupTable@ImFont@@QEAAXXZ@4JA 00000001402b0768     imgui_draw.obj
 0004:0000576c       ?__LINE__Var@?0??GrowIndex@ImFont@@QEAAXH@Z@4JA 00000001402b076c     imgui_draw.obj
 0004:00005770       ?__LINE__Var@?0??AddRemapChar@ImFont@@QEAAXGG_N@Z@4JA 00000001402b0770     imgui_draw.obj
 0004:00005774       ?__LINE__Var@?0??CalcWordWrapPositionA@ImFont@@QEBAPEBDMPEBD0M@Z@4JA 00000001402b0774     imgui_draw.obj
 0004:00005778       ?__LINE__Var@?0??RenderArrow@ImGui@@YAXPEAUImDrawList@@UImVec2@@IHM@Z@4JA 00000001402b0778     imgui_draw.obj
 0004:0000577c       ?__LINE__Var@?0??stb__match@@YAXPEBEI@Z@4JA 00000001402b077c     imgui_draw.obj
 0004:00005780       ?__LINE__Var@?0??stb__lit@@YAXPEBEI@Z@4JA 00000001402b0780     imgui_draw.obj
 0004:00005784       ?__LINE__Var@?0??stb_decompress@@YAIPEAEPEBEI@Z@4JA 00000001402b0784     imgui_draw.obj
 0004:0000579c       ?__LINE__Var@?0??ImGui_ImplDX11_CreateFontsTexture@@YAXXZ@4JA 00000001402b079c     imgui_impl_dx11.obj
 0004:000057a0       ?__LINE__Var@?0??ImGui_ImplDX11_Init@@YA_NPEAUID3D11Device@@PEAUID3D11DeviceContext@@@Z@4JA 00000001402b07a0     imgui_impl_dx11.obj
 0004:000057a4       ?__LINE__Var@?0??ImGui_ImplDX11_Shutdown@@YAXXZ@4JA 00000001402b07a4     imgui_impl_dx11.obj
 0004:000057a8       ?__LINE__Var@?0??ImGui_ImplDX11_NewFrame@@YAXXZ@4JA 00000001402b07a8     imgui_impl_dx11.obj
 0004:000057ac       ?__LINE__Var@?0??ImGui_ImplWin32_Init@@YA_NPEAX@Z@4JA 00000001402b07ac     imgui_impl_win32.obj
 0004:000057b0       ?__LINE__Var@?0??ImGui_ImplWin32_Shutdown@@YAXXZ@4JA 00000001402b07b0     imgui_impl_win32.obj
 0004:000057b4       ?__LINE__Var@?0??ImGui_ImplWin32_UpdateMouseData@@YAXXZ@4JA 00000001402b07b4     imgui_impl_win32.obj
 0004:000057b8       ?__LINE__Var@?0??ImGui_ImplWin32_NewFrame@@YAXXZ@4JA 00000001402b07b8     imgui_impl_win32.obj
 0004:000057bc       ?__LINE__Var@?0??ImGui_ImplWin32_GetDpiScaleForMonitor@@YAMPEAX@Z@4JA 00000001402b07bc     imgui_impl_win32.obj
 0004:000057c0       ?__LINE__Var@?0??BeginTableEx@ImGui@@YA_NPEBDIHHAEBUImVec2@@M@Z@4JA 00000001402b07c0     imgui_tables.obj
 0004:000057c4       ?__LINE__Var@?0??TableBeginApplyRequests@ImGui@@YAXPEAUImGuiTable@@@Z@4JA 00000001402b07c4     imgui_tables.obj
 0004:000057c8       ?__LINE__Var@?0??TableSetupColumnFlags@@YAXPEAUImGuiTable@@PEAUImGuiTableColumn@@H@Z@4JA 00000001402b07c8     imgui_tables.obj
 0004:000057cc       ?__LINE__Var@?0??TableUpdateLayout@ImGui@@YAXPEAUImGuiTable@@@Z@4JA 00000001402b07cc     imgui_tables.obj
 0004:000057d0       ?__LINE__Var@?0??TableUpdateBorders@ImGui@@YAXPEAUImGuiTable@@@Z@4JA 00000001402b07d0     imgui_tables.obj
 0004:000057d4       ?__LINE__Var@?0??EndTable@ImGui@@YAXXZ@4JA 00000001402b07d4     imgui_tables.obj
 0004:000057d8       ?__LINE__Var@?0??TableSetupColumn@ImGui@@YAXPEBDHMI@Z@4JA 00000001402b07d8     imgui_tables.obj
 0004:000057dc       ?__LINE__Var@?0??TableSetupScrollFreeze@ImGui@@YAXHH@Z@4JA 00000001402b07dc     imgui_tables.obj
 0004:000057e0       ?__LINE__Var@?0??TableSetColumnEnabled@ImGui@@YAXH_N@Z@4JA 00000001402b07e0     imgui_tables.obj
 0004:000057e4       ?__LINE__Var@?0??TableGetColumnResizeID@ImGui@@YAIPEBUImGuiTable@@HH@Z@4JA 00000001402b07e4     imgui_tables.obj
 0004:000057e8       ?__LINE__Var@?0??TableSetBgColor@ImGui@@YAXHIH@Z@4JA 00000001402b07e8     imgui_tables.obj
 0004:000057ec       ?__LINE__Var@?0??TableBeginRow@ImGui@@YAXPEAUImGuiTable@@@Z@4JA 00000001402b07ec     imgui_tables.obj
 0004:000057f0       ?__LINE__Var@?0??TableEndRow@ImGui@@YAXPEAUImGuiTable@@@Z@4JA 00000001402b07f0     imgui_tables.obj
 0004:000057f4       ?__LINE__Var@?0??TableSetColumnIndex@ImGui@@YA_NH@Z@4JA 00000001402b07f4     imgui_tables.obj
 0004:000057f8       ?__LINE__Var@?0??TableSetColumnWidth@ImGui@@YAXHM@Z@4JA 00000001402b07f8     imgui_tables.obj
 0004:000057fc       ?__LINE__Var@?0??TableUpdateColumnsWeightFromWidth@ImGui@@YAXPEAUImGuiTable@@@Z@4JA 00000001402b07fc     imgui_tables.obj
 0004:00005800       ?__LINE__Var@?0??TableSetupDrawChannels@ImGui@@YAXPEAUImGuiTable@@@Z@4JA 00000001402b0800     imgui_tables.obj
 0004:00005804       ?__LINE__Var@?0??TableMergeDrawChannels@ImGui@@YAXPEAUImGuiTable@@@Z@4JA 00000001402b0804     imgui_tables.obj
 0004:00005808       ?__LINE__Var@?0??TableGetSortSpecs@ImGui@@YAPEAUImGuiTableSortSpecs@@XZ@4JA 00000001402b0808     imgui_tables.obj
 0004:0000580c       ?__LINE__Var@?0??TableGetColumnAvailSortDirection@@YAHPEAUImGuiTableColumn@@H@Z@4JA 00000001402b080c     imgui_tables.obj
 0004:00005810       ?__LINE__Var@?0??TableGetColumnNextSortDirection@ImGui@@YAHPEAUImGuiTableColumn@@@Z@4JA 00000001402b0810     imgui_tables.obj
 0004:00005814       ?__LINE__Var@?0??TableSetColumnSortDirection@ImGui@@YAXHH_N@Z@4JA 00000001402b0814     imgui_tables.obj
 0004:00005818       ?__LINE__Var@?0??TableSortSpecsSanitize@ImGui@@YAXPEAUImGuiTable@@@Z@4JA 00000001402b0818     imgui_tables.obj
 0004:0000581c       ?__LINE__Var@?0??TableSortSpecsBuild@ImGui@@YAXPEAUImGuiTable@@@Z@4JA 00000001402b081c     imgui_tables.obj
 0004:00005820       ?__LINE__Var@?0??TableHeadersRow@ImGui@@YAXXZ@4JA 00000001402b0820     imgui_tables.obj
 0004:00005824       ?__LINE__Var@?0??TableHeader@ImGui@@YAXPEBD@Z@4JA 00000001402b0824     imgui_tables.obj
 0004:00005828       ?__LINE__Var@?0??TableOpenContextMenu@ImGui@@YAXH@Z@4JA 00000001402b0828     imgui_tables.obj
 0004:0000582c       ?__LINE__Var@?0??TableGetBoundSettings@ImGui@@YAPEAUImGuiTableSettings@@PEAUImGuiTable@@@Z@4JA 00000001402b082c     imgui_tables.obj
 0004:00005830       ?__LINE__Var@?0??TableSaveSettings@ImGui@@YAXPEAUImGuiTable@@@Z@4JA 00000001402b0830     imgui_tables.obj
 0004:00005834       ?__LINE__Var@?0??TableGcCompactTransientBuffers@ImGui@@YAXPEAUImGuiTable@@@Z@4JA 00000001402b0834     imgui_tables.obj
 0004:00005838       ?__LINE__Var@?0??GetDraggedColumnOffset@@YAMPEAUImGuiOldColumns@@H@Z@4JA 00000001402b0838     imgui_tables.obj
 0004:0000583c       ?__LINE__Var@?0??GetColumnOffset@ImGui@@YAMH@Z@4JA 00000001402b083c     imgui_tables.obj
 0004:00005840       ?__LINE__Var@?0??SetColumnOffset@ImGui@@YAXHM@Z@4JA 00000001402b0840     imgui_tables.obj
 0004:00005844       ?__LINE__Var@?0??SetColumnWidth@ImGui@@YAXHM@Z@4JA 00000001402b0844     imgui_tables.obj
 0004:00005848       ?__LINE__Var@?0??BeginColumns@ImGui@@YAXPEBDHH@Z@4JA 00000001402b0848     imgui_tables.obj
 0004:0000584c       ?__LINE__Var@?0??NextColumn@ImGui@@YAXXZ@4JA 00000001402b084c     imgui_tables.obj
 0004:00005850       ?__LINE__Var@?0??EndColumns@ImGui@@YAXXZ@4JA 00000001402b0850     imgui_tables.obj
 0004:00005854       ?__LINE__Var@?0??Columns@ImGui@@YAXHPEBD_N@Z@4JA 00000001402b0854     imgui_tables.obj
 0004:00005980       ?__LINE__Var@?0??InvisibleButton@ImGui@@YA_NPEBDAEBUImVec2@@H@Z@4JA 00000001402b0980     imgui_widgets.obj
 0004:00005984       ?__LINE__Var@?0??GetWindowScrollbarRect@ImGui@@YA?AUImRect@@PEAUImGuiWindow@@W4ImGuiAxis@@@Z@4JA 00000001402b0984     imgui_widgets.obj
 0004:00005988       ?__LINE__Var@?0??ScrollbarEx@ImGui@@YA_NAEBUImRect@@IW4ImGuiAxis@@PEA_J_J3H@Z@4JA 00000001402b0988     imgui_widgets.obj
 0004:0000598c       ?__LINE__Var@?0??SeparatorEx@ImGui@@YAXH@Z@4JA 00000001402b098c     imgui_widgets.obj
 0004:00005990       ?__LINE__Var@?0??SplitterBehavior@ImGui@@YA_NAEBUImRect@@IW4ImGuiAxis@@PEAM2MMMMI@Z@4JA 00000001402b0990     imgui_widgets.obj
 0004:00005994       ?__LINE__Var@?0??BeginCombo@ImGui@@YA_NPEBD0H@Z@4JA 00000001402b0994     imgui_widgets.obj
 0004:00005998       ?__LINE__Var@?0??BeginComboPopup@ImGui@@YA_NIAEBUImRect@@H@Z@4JA 00000001402b0998     imgui_widgets.obj
 0004:0000599c       ?__LINE__Var@?0??BeginComboPreview@ImGui@@YA_NXZ@4JA 00000001402b099c     imgui_widgets.obj
 0004:000059a0       ?__LINE__Var@?0??DataTypeGetInfo@ImGui@@YAPEBUImGuiDataTypeInfo@@H@Z@4JA 00000001402b09a0     imgui_widgets.obj
 0004:000059a4       ?__LINE__Var@?0??DataTypeFormatString@ImGui@@YAHPEADHHPEBXPEBD@Z@4JA 00000001402b09a4     imgui_widgets.obj
 0004:000059a8       ?__LINE__Var@?0??DataTypeApplyOp@ImGui@@YAXHHPEAXPEBX1@Z@4JA 00000001402b09a8     imgui_widgets.obj
 0004:000059ac       ?__LINE__Var@?0??DataTypeApplyFromText@ImGui@@YA_NPEBDHPEAX0@Z@4JA 00000001402b09ac     imgui_widgets.obj
 0004:000059b0       ?__LINE__Var@?0??DataTypeCompare@ImGui@@YAHHPEBX0@Z@4JA 00000001402b09b0     imgui_widgets.obj
 0004:000059b4       ?__LINE__Var@?0??DataTypeClamp@ImGui@@YA_NHPEAXPEBX1@Z@4JA 00000001402b09b4     imgui_widgets.obj
 0004:000059b8       ?__LINE__Var@?0??DragBehavior@ImGui@@YA_NIHPEAXMPEBX1PEBDH@Z@4JA 00000001402b09b8     imgui_widgets.obj
 0004:000059bc       ?__LINE__Var@?0??SliderBehavior@ImGui@@YA_NAEBUImRect@@IHPEAXPEBX2PEBDHPEAU3@@Z@4JA 00000001402b09bc     imgui_widgets.obj
 0004:000059c0       ?__LINE__Var@?0??ImParseFormatSanitizeForPrinting@@YAXPEBDPEAD_K@Z@4JA 00000001402b09c0     imgui_widgets.obj
 0004:000059c4       ?__LINE__Var@?0??ImParseFormatSanitizeForScanning@@YAPEBDPEBDPEAD_K@Z@4JA 00000001402b09c4     imgui_widgets.obj
 0004:000059c8       ?__LINE__Var@?0??TempInputText@ImGui@@YA_NAEBUImRect@@IPEBDPEADHH@Z@4JA 00000001402b09c8     imgui_widgets.obj
 0004:000059cc       ?__LINE__Var@?0??InputText@ImGui@@YA_NPEBDPEAD_KHP6AHPEAUImGuiInputTextCallbackData@@@ZPEAX@Z@4JA 00000001402b09cc     imgui_widgets.obj
 0004:000059d0       ?__LINE__Var@?0??InputTextWithHint@ImGui@@YA_NPEBD0PEAD_KHP6AHPEAUImGuiInputTextCallbackData@@@ZPEAX@Z@4JA 00000001402b09d0     imgui_widgets.obj
 0004:000059d4       ?__LINE__Var@?0??STB_TEXTEDIT_INSERTCHARS@ImStb@@YA_NPEAUImGuiInputTextState@@HPEBGH@Z@4JA 00000001402b09d4     imgui_widgets.obj
 0004:000059d8       ?__LINE__Var@?0??stb_textedit_discard_redo@ImStb@@YAXPEAUStbUndoState@2@@Z@4JA 00000001402b09d8     imgui_widgets.obj
 0004:000059dc       ?__LINE__Var@?0??stb_textedit_replace@ImStb@@YAXPEAUImGuiInputTextState@@PEAUSTB_TexteditState@2@PEBGH@Z@4JA 00000001402b09dc     imgui_widgets.obj
 0004:000059e0       ?__LINE__Var@?0??DeleteChars@ImGuiInputTextCallbackData@@QEAAXHH@Z@4JA 00000001402b09e0     imgui_widgets.obj
 0004:000059e4       ?__LINE__Var@?0??InsertChars@ImGuiInputTextCallbackData@@QEAAXHPEBD0@Z@4JA 00000001402b09e4     imgui_widgets.obj
 0004:000059e8       ?__LINE__Var@?0??InputTextFilterCharacter@@YA_NPEAIHP6AHPEAUImGuiInputTextCallbackData@@@ZPEAXW4ImGuiInputSource@@@Z@4JA 00000001402b09e8     imgui_widgets.obj
 0004:000059ec       ?__LINE__Var@?0??InputTextEx@ImGui@@YA_NPEBD0PEADHAEBUImVec2@@HP6AHPEAUImGuiInputTextCallbackData@@@ZPEAX@Z@4JA 00000001402b09ec     imgui_widgets.obj
 0004:000059f0       ?__LINE__Var@?0??ColorEdit4@ImGui@@YA_NPEBDQEAMH@Z@4JA 00000001402b09f0     imgui_widgets.obj
 0004:000059f4       ?__LINE__Var@?0??ColorPicker4@ImGui@@YA_NPEBDQEAMHPEBM@Z@4JA 00000001402b09f4     imgui_widgets.obj
 0004:000059f8       ?__LINE__Var@?0??SetColorEditOptions@ImGui@@YAXH@Z@4JA 00000001402b09f8     imgui_widgets.obj
 0004:000059fc       ?__LINE__Var@?0??TreeNodeBehavior@ImGui@@YA_NIHPEBD0@Z@4JA 00000001402b09fc     imgui_widgets.obj
 0004:00005a00       ?__LINE__Var@?0??TreePop@ImGui@@YAXXZ@4JA 00000001402b0a00     imgui_widgets.obj
 0004:00005a04       ?__LINE__Var@?0??EndListBox@ImGui@@YAXXZ@4JA 00000001402b0a04     imgui_widgets.obj
 0004:00005a08       ?__LINE__Var@?0??PlotEx@ImGui@@YAHW4ImGuiPlotType@@PEBDP6AMPEAXH@Z2HH1MMAEBUImVec2@@@Z@4JA 00000001402b0a08     imgui_widgets.obj
 0004:00005a0c       ?__LINE__Var@?0??BeginMenuBar@ImGui@@YA_NXZ@4JA 00000001402b0a0c     imgui_widgets.obj
 0004:00005a10       ?__LINE__Var@?0??EndMenuBar@ImGui@@YAXXZ@4JA 00000001402b0a10     imgui_widgets.obj
 0004:00005a14       ?__LINE__Var@?0??BeginViewportSideBar@ImGui@@YA_NPEBDPEAUImGuiViewport@@HMH@Z@4JA 00000001402b0a14     imgui_widgets.obj
 0004:00005a18       ?__LINE__Var@?0??EndMenu@ImGui@@YAXXZ@4JA 00000001402b0a18     imgui_widgets.obj
 0004:00005a1c       ?__LINE__Var@?0??EndTabBar@ImGui@@YAXXZ@4JA 00000001402b0a1c     imgui_widgets.obj
 0004:00005a20       ?__LINE__Var@?0??TabBarLayout@ImGui@@YAXPEAUImGuiTabBar@@@Z@4JA 00000001402b0a20     imgui_widgets.obj
 0004:00005a24       ?__LINE__Var@?0??TabBarCalcTabID@ImGui@@YAIPEAUImGuiTabBar@@PEBDPEAUImGuiWindow@@@Z@4JA 00000001402b0a24     imgui_widgets.obj
 0004:00005a28       ?__LINE__Var@?0??TabBarGetTabName@ImGui@@YAPEBDPEAUImGuiTabBar@@PEAUImGuiTabItem@@@Z@4JA 00000001402b0a28     imgui_widgets.obj
 0004:00005a2c       ?__LINE__Var@?0??TabBarQueueReorder@ImGui@@YAXPEAUImGuiTabBar@@PEAUImGuiTabItem@@H@Z@4JA 00000001402b0a2c     imgui_widgets.obj
 0004:00005a30       ?__LINE__Var@?0??TabBarQueueReorderFromMousePos@ImGui@@YAXPEAUImGuiTabBar@@PEAUImGuiTabItem@@UImVec2@@@Z@4JA 00000001402b0a30     imgui_widgets.obj
 0004:00005a34       ?__LINE__Var@?0??BeginTabItem@ImGui@@YA_NPEBDPEA_NH@Z@4JA 00000001402b0a34     imgui_widgets.obj
 0004:00005a38       ?__LINE__Var@?0??EndTabItem@ImGui@@YAXXZ@4JA 00000001402b0a38     imgui_widgets.obj
 0004:00005a3c       ?__LINE__Var@?0??TabItemButton@ImGui@@YA_NPEBDH@Z@4JA 00000001402b0a3c     imgui_widgets.obj
 0004:00005a40       ?__LINE__Var@?0??TabItemEx@ImGui@@YA_NPEAUImGuiTabBar@@PEBDPEA_NHPEAUImGuiWindow@@@Z@4JA 00000001402b0a40     imgui_widgets.obj
 0004:00005a44       ?__LINE__Var@?0??TabItemCalcSize@ImGui@@YA?AUImVec2@@PEAUImGuiWindow@@@Z@4JA 00000001402b0a44     imgui_widgets.obj
 0004:00005a48       ?__LINE__Var@?0??TabItemBackground@ImGui@@YAXPEAUImDrawList@@AEBUImRect@@HI@Z@4JA 00000001402b0a48     imgui_widgets.obj
 0004:00005a4c       ?__LINE__Var@?0??_Allocate@std@@YAPEAX_K0_N@Z@4JA 00000001402b0a4c     Application.obj
 0004:00005a50       ?__LINE__Var@?0??_Deallocate@std@@YAXPEAX_K1@Z@4JA 00000001402b0a50     Application.obj
 0004:00005a54       ?__LINE__Var@?0??Create@CApplication@Client@@SAPEAV23@XZ@4JA 00000001402b0a54     Application.obj
 0004:00005a58       ?__LINE__Var@?0??XMStoreFloat4x4@DirectX@@YQXPEAUXMFLOAT4X4@2@UXMMATRIX@2@@Z@4JA 00000001402b0a58     BackGround.obj
 0004:00005a5c       ?__LINE__Var@?0??XMMatrixOrthographicLH@DirectX@@YQ?AUXMMATRIX@2@MMMM@Z@4JA 00000001402b0a5c     BackGround.obj
 0004:00005a60       ?__LINE__Var@?0??Create@CBackGround@Client@@SAPEAV23@PEAUID3D11Device@@PEAUID3D11DeviceContext@@@Z@4JA 00000001402b0a60     BackGround.obj
 0004:00005a64       ?__LINE__Var@?0??Clone@CBackGround@Client@@UEAAPEAVCGameObject@Engine@@PEAX@Z@4JA 00000001402b0a64     BackGround.obj
 0004:00005a68       ?__LINE__Var@?0??Create@CDynamicCamera@Client@@SAPEAV23@PEAUID3D11Device@@PEAUID3D11DeviceContext@@@Z@4JA 00000001402b0a68     DynamicCamera.obj
 0004:00005a6c       ?__LINE__Var@?0??Clone@CDynamicCamera@Client@@UEAAPEAVCGameObject@Engine@@PEAX@Z@4JA 00000001402b0a6c     DynamicCamera.obj
 0004:00005a70       ?__LINE__Var@?0??XMLoadFloat3@DirectX@@YQ?AT__m128@@PEBUXMFLOAT3@2@@Z@4JA 00000001402b0a70     Enemy.obj
 0004:00005a74       ?__LINE__Var@?0??XMLoadFloat4@DirectX@@YQ?AT__m128@@PEBUXMFLOAT4@2@@Z@4JA 00000001402b0a74     Enemy.obj
 0004:00005a78       ?__LINE__Var@?0??XMLoadFloat4x4@DirectX@@YQ?AUXMMATRIX@2@PEBUXMFLOAT4X4@2@@Z@4JA 00000001402b0a78     Enemy.obj
 0004:00005a7c       ?__LINE__Var@?0??XMStoreFloat3@DirectX@@YQXPEAUXMFLOAT3@2@T__m128@@@Z@4JA 00000001402b0a7c     Enemy.obj
 0004:00005a80       ?__LINE__Var@?0??XMStoreFloat4@DirectX@@YQXPEAUXMFLOAT4@2@T__m128@@@Z@4JA 00000001402b0a80     Enemy.obj
 0004:00005a84       ?__LINE__Var@?0??Create@CEnemy@Client@@SAPEAV23@PEAUID3D11Device@@PEAUID3D11DeviceContext@@W4TYPE@23@@Z@4JA 00000001402b0a84     Enemy.obj
 0004:00005a88       ?__LINE__Var@?0??Clone@CEnemy@Client@@UEAAPEAVCGameObject@Engine@@PEAX@Z@4JA 00000001402b0a88     Enemy.obj
 0004:00005a8c       ?__LINE__Var@?0??Create@CFreezeArea@Client@@SAPEAV23@PEAUID3D11Device@@PEAUID3D11DeviceContext@@@Z@4JA 00000001402b0a8c     FreezeArea.obj
 0004:00005a90       ?__LINE__Var@?0??Clone@CFreezeArea@Client@@UEAAPEAVCGameObject@Engine@@PEAX@Z@4JA 00000001402b0a90     FreezeArea.obj
 0004:00005a94       ?__LINE__Var@?0??Create@CCharacter@Client@@SAPEAV23@PEAUID3D11Device@@PEAUID3D11DeviceContext@@@Z@4JA 00000001402b0a94     Character.obj
 0004:00005a98       ?__LINE__Var@?0??Clone@CCharacter@Client@@UEAAPEAVCGameObject@Engine@@PEAX@Z@4JA 00000001402b0a98     Character.obj
 0004:00005a9c       ?__LINE__Var@?0??Ready_Layer_Camera@CLevel_BossRoom@Client@@AEAAJPEB_W@Z@4JA 00000001402b0a9c     Level_BossRoom.obj
 0004:00005aa0       ?__LINE__Var@?0??Create@CLevel_BossRoom@Client@@SAPEAV23@PEAUID3D11Device@@PEAUID3D11DeviceContext@@@Z@4JA 00000001402b0aa0     Level_BossRoom.obj
 0004:00005aa4       ?__LINE__Var@?0??Ready_Layer_Camera@CLevel_GamePlay@Client@@AEAAJPEB_W@Z@4JA 00000001402b0aa4     Level_GamePlay.obj
 0004:00005aa8       ?__LINE__Var@?0??Create@CLevel_GamePlay@Client@@SAPEAV23@PEAUID3D11Device@@PEAUID3D11DeviceContext@@@Z@4JA 00000001402b0aa8     Level_GamePlay.obj
 0004:00005aac       ?__LINE__Var@?0??Create@CLevel_Loading@Client@@SAPEAV23@PEAUID3D11Device@@PEAUID3D11DeviceContext@@W4LEVEL_ID@3@@Z@4JA 00000001402b0aac     Level_Loading.obj
 0004:00005ab0       ?__LINE__Var@?0??Create@CLevel_Logo@Client@@SAPEAV23@PEAUID3D11Device@@PEAUID3D11DeviceContext@@@Z@4JA 00000001402b0ab0     Level_Logo.obj
 0004:00005ab4       ?__LINE__Var@?0??XMScalarSinCos@DirectX@@YAXPEAM0M@Z@4JA 00000001402b0ab4     Loader.obj
 0004:00005ab8       ?__LINE__Var@?0??Create@CLoader@Client@@SAPEAV23@PEAUID3D11Device@@PEAUID3D11DeviceContext@@W4LEVEL_ID@3@@Z@4JA 00000001402b0ab8     Loader.obj
 0004:00005abc       ?__LINE__Var@?0??Create@CCity@Client@@SAPEAV23@PEAUID3D11Device@@PEAUID3D11DeviceContext@@@Z@4JA 00000001402b0abc     City.obj
 0004:00005ac0       ?__LINE__Var@?0??Clone@CCity@Client@@UEAAPEAVCGameObject@Engine@@PEAX@Z@4JA 00000001402b0ac0     City.obj
 0004:00005ac4       ?__LINE__Var@?0??Initialize@CPlayerCamera@Client@@UEAAJPEAX@Z@4JA 00000001402b0ac4     PlayerCamera.obj
 0004:00005ac8       ?__LINE__Var@?0??Create@CPlayerCamera@Client@@SAPEAV23@PEAUID3D11Device@@PEAUID3D11DeviceContext@@@Z@4JA 00000001402b0ac8     PlayerCamera.obj
 0004:00005acc       ?__LINE__Var@?0??Clone@CPlayerCamera@Client@@UEAAPEAVCGameObject@Engine@@PEAX@Z@4JA 00000001402b0acc     PlayerCamera.obj
 0004:00005ad0       ?__LINE__Var@?0??Create@CSkybox@Client@@SAPEAV23@PEAUID3D11Device@@PEAUID3D11DeviceContext@@@Z@4JA 00000001402b0ad0     Skybox.obj
 0004:00005ad4       ?__LINE__Var@?0??Clone@CSkybox@Client@@UEAAPEAVCGameObject@Engine@@PEAX@Z@4JA 00000001402b0ad4     Skybox.obj
 0004:00005b84       ?__LINE__Var@?0??Create@CWall@Client@@SAPEAV23@PEAUID3D11Device@@PEAUID3D11DeviceContext@@@Z@4JA 00000001402b0b84     Wall.obj
 0004:00005b88       ?__LINE__Var@?0??Clone@CWall@Client@@UEAAPEAVCGameObject@Engine@@PEAX@Z@4JA 00000001402b0b88     Wall.obj
 0004:00005b8c       ?__LINE__Var@?0??LateTick@CWeapon@Client@@UEAAXN@Z@4JA 00000001402b0b8c     Weapon.obj
 0004:00005b90       ?__LINE__Var@?0??Create@CWeapon@Client@@SAPEAV23@PEAUID3D11Device@@PEAUID3D11DeviceContext@@@Z@4JA 00000001402b0b90     Weapon.obj
 0004:00005b94       ?__LINE__Var@?0??Clone@CWeapon@Client@@UEAAPEAVCGameObject@Engine@@PEAX@Z@4JA 00000001402b0b94     Weapon.obj
 0004:00005b98       ?__LINE__Var@?0??Create@CTerrain@Client@@SAPEAV23@PEAUID3D11Device@@PEAUID3D11DeviceContext@@@Z@4JA 00000001402b0b98     Terrain.obj
 0004:00005b9c       ?__LINE__Var@?0??Clone@CTerrain@Client@@UEAAPEAVCGameObject@Engine@@PEAX@Z@4JA 00000001402b0b9c     Terrain.obj
 0004:00005ba0       __security_cookie          00000001402b0ba0     MSVCRTD:gs_cookie.obj
 0004:00005ba8       __security_cookie_complement 00000001402b0ba8     MSVCRTD:gs_cookie.obj
 0004:00005bb4       _fltused                   00000001402b0bb4     MSVCRTD:dllsupp.obj
 0004:00005bb8       __scrt_native_dllmain_reason 00000001402b0bb8     MSVCRTD:utility.obj
 0004:00005bbc       _Init_global_epoch         00000001402b0bbc     MSVCRTD:thread_safe_statics.obj
 0004:00005bc0       ?_RTC_ErrorLevels@@3PAHA   00000001402b0bc0     MSVCRTD:_error_.obj
 0004:00005bd8       __isa_available            00000001402b0bd8     MSVCRTD:_cpu_disp_.obj
 0004:00005bdc       __isa_enabled              00000001402b0bdc     MSVCRTD:_cpu_disp_.obj
 0004:00005be0       __memcpy_nt_iters          00000001402b0be0     MSVCRTD:_cpu_disp_.obj
 0004:00005bec       __scrt_default_matherr     00000001402b0bec     MSVCRTD:matherr.obj
 0004:00005bf0       __scrt_ucrt_dll_is_in_use  00000001402b0bf0     MSVCRTD:ucrt_stubs.obj
 0004:00005e28       ??_R0?AVCApplication@Client@@@8 00000001402b0e28     Application.obj
 0004:00005e60       ??_R0?AVCBase@Engine@@@8   00000001402b0e60     Application.obj
 0004:00005e90       ??_R0?AVCApplicationManager@Client@@@8 00000001402b0e90     ApplicationManager.obj
 0004:00005ed0       ??_R0?AVCBackGround@Client@@@8 00000001402b0ed0     BackGround.obj
 0004:00005f08       ??_R0?AVCGameObject@Engine@@@8 00000001402b0f08     BackGround.obj
 0004:00005f40       ??_R0?AVCBoss@Client@@@8   00000001402b0f40     Boss.obj
 0004:00005f70       ??_R0?AVCDynamicCamera@Client@@@8 00000001402b0f70     DynamicCamera.obj
 0004:00005fa8       ??_R0?AVCCamera@Engine@@@8 00000001402b0fa8     DynamicCamera.obj
 0004:00005fd8       ??_R0?AVCEnemy@Client@@@8  00000001402b0fd8     Enemy.obj
 0004:00006008       ??_R0?AVCCharacter@Client@@@8 00000001402b1008     Enemy.obj
 0004:00006038       ??_R0?AVIOnCollisionEnter@Engine@@@8 00000001402b1038     Enemy.obj
 0004:00006070       ??_R0?AVIOnCollisionStay@Engine@@@8 00000001402b1070     Enemy.obj
 0004:000060a8       ??_R0?AVIOnCollisionExit@Engine@@@8 00000001402b10a8     Enemy.obj
 0004:000060e0       ??_R0?AVCFreezeArea@Client@@@8 00000001402b10e0     FreezeArea.obj
 0004:00006118       ??_R0?AVCImGUIManager@Client@@@8 00000001402b1118     ImGUIManager.obj
 0004:00006150       ??_R0?AVCWall@Client@@@8   00000001402b1150     Character.obj
 0004:00006180       ??_R0?AVCLevel_BossRoom@Client@@@8 00000001402b1180     Level_BossRoom.obj
 0004:000061b8       ??_R0?AVCLevel@Engine@@@8  00000001402b11b8     Level_BossRoom.obj
 0004:000061e8       ??_R0?AVCLevel_GamePlay@Client@@@8 00000001402b11e8     Level_GamePlay.obj
 0004:00006220       ??_R0?AVCLevel_Loading@Client@@@8 00000001402b1220     Level_Loading.obj
 0004:00006258       ??_R0?AVCLevel_Logo@Client@@@8 00000001402b1258     Level_Logo.obj
 0004:00006290       ??_R0?AVCLoader@Client@@@8 00000001402b1290     Loader.obj
 0004:000062c0       ??_R0?AVCCity@Client@@@8   00000001402b12c0     City.obj
 0004:000062f0       ??_R0?AVCPlayerCamera@Client@@@8 00000001402b12f0     PlayerCamera.obj
 0004:00006328       ??_R0?AVCSkybox@Client@@@8 00000001402b1328     Skybox.obj
 0004:00006358       ??_R0?AVCStageCollisionManager@Client@@@8 00000001402b1358     StageCollisionManager.obj
 0004:00006398       ??_R0?AVCWeapon@Client@@@8 00000001402b1398     Weapon.obj
 0004:000063c8       ??_R0?AVCTerrain@Client@@@8 00000001402b13c8     Terrain.obj
 0004:000063f8       ??_R0?AVtype_info@@@8      00000001402b13f8     MSVCRTD:std_type_info_static.obj
 0004:00006420       ??_R0?AVbad_alloc@std@@@8  00000001402b1420     MSVCRTD:throw_bad_alloc.obj
 0004:00006450       ??_R0?AVexception@std@@@8  00000001402b1450     MSVCRTD:throw_bad_alloc.obj
 0004:00006480       ??_R0?AVbad_array_new_length@std@@@8 00000001402b1480     MSVCRTD:throw_bad_alloc.obj
 0004:000065e0       ?GImGui@@3PEAUImGuiContext@@EA 00000001402b15e0     imgui.obj
 0004:000065e8       ?EmptyString@ImGuiTextBuffer@@2PADA 00000001402b15e8     imgui.obj
 0004:00006788       ?_OptionsStorage@?1??__local_stdio_printf_options@@9@4_KA 00000001402b1788     imgui.obj
 0004:00006798       ?_OptionsStorage@?1??__local_stdio_scanf_options@@9@4_KA 00000001402b1798     imgui.obj
 0004:00006ad0       ?GImGuiDemoMarkerCallback@@3P6AXPEBDH0PEAX@ZEA 00000001402b1ad0     imgui_demo.obj
 0004:00006ad8       ?GImGuiDemoMarkerCallbackUserData@@3PEAXEA 00000001402b1ad8     imgui_demo.obj
 0004:00006b30       ?s_current_sort_specs@MyItem@?A0x1ed25892@@2PEBUImGuiTableSortSpecs@@EB 00000001402b1b30     imgui_demo.obj
 0004:0000e880       ?m_pInstance@CApplicationManager@Client@@0PEAV12@EA 00000001402b9880     ApplicationManager.obj
 0004:0000e88c       ?s_iCount@CEnemy@Client@@0IA 00000001402b988c     Enemy.obj
 0004:0000e890       ?m_pInstance@CImGUIManager@Client@@0PEAV12@EA 00000001402b9890     ImGUIManager.obj
 0004:0000e8a0       ?m_pInstance@CStageCollisionManager@Client@@0PEAV12@EA 00000001402b98a0     StageCollisionManager.obj
 0004:0000e8b0       ?g_hInst@@3PEAUHINSTANCE__@@EA 00000001402b98b0     Client.obj
 0004:0000e8b8       ?g_hWnd@@3PEAUHWND__@@EA   00000001402b98b8     Client.obj
 0004:0000e8c0       ?szTitle@@3PA_WA           00000001402b98c0     Client.obj
 0004:0000e990       ?szWindowClass@@3PA_WA     00000001402b9990     Client.obj
 0004:0000eaac       __@@_PchSym_@00@UtrgsfyUuiznvdlipUxorvmgUyrmUkxsOlyq@A72CDF0E0E97F06A 00000001402b9aac     pch.obj
 0004:0000f138       __scrt_current_native_startup_state 00000001402ba138     MSVCRTD:utility.obj
 0004:0000f140       __scrt_native_startup_lock 00000001402ba140     MSVCRTD:utility.obj
 0004:0000f1e0       _tls_index                 00000001402ba1e0     MSVCRTD:tlssup.obj
 0004:0000f1fc       __favor                    00000001402ba1fc     MSVCRTD:_cpu_disp_.obj
 0004:0000f200       __scrt_debugger_hook_flag  00000001402ba200     MSVCRTD:utility_desktop.obj
 0004:0000f220       ?__type_info_root_node@@3U__type_info_node@@A 00000001402ba220     MSVCRTD:tncleanup.obj
 0004:0000f238       __dyn_tls_dtor_callback    00000001402ba238     <common>
 0004:0000f250       __dyn_tls_init_callback    00000001402ba250     <common>
 0006:00000000       __imp_GetSaveFileNameW     00000001402c9000     comdlg32:COMDLG32.dll
 0006:00000008       \177COMDLG32_NULL_THUNK_DATA 00000001402c9008     comdlg32:COMDLG32.dll
 0006:00000060       __imp_D3DCompile           00000001402c9060     d3dcompiler:D3DCOMPILER_47.dll
 0006:00000068       \177D3DCOMPILER_47_NULL_THUNK_DATA 00000001402c9068     d3dcompiler:D3DCOMPILER_47.dll
 0006:000000c0       __imp_?Create@CVIBuffer_Rect@Engine@@SAPEAV12@PEAUID3D11Device@@PEAUID3D11DeviceContext@@@Z 00000001402c90c0     Engine:Engine.dll
 0006:000000c8       __imp_?Create@CTransform@Engine@@SAPEAV12@PEAUID3D11Device@@PEAUID3D11DeviceContext@@@Z 00000001402c90c8     Engine:Engine.dll
 0006:000000d0       __imp_?Draw@CRenderer@Engine@@QEAAXXZ 00000001402c90d0     Engine:Engine.dll
 0006:000000d8       __imp_?Create@CRenderer@Engine@@SAPEAV12@PEAUID3D11Device@@PEAUID3D11DeviceContext@@@Z 00000001402c90d8     Engine:Engine.dll
 0006:000000e0       __imp_?Create@CTexture@Engine@@SAPEAV12@PEAUID3D11Device@@PEAUID3D11DeviceContext@@PEB_WI@Z 00000001402c90e0     Engine:Engine.dll
 0006:000000e8       __imp_?Create@CShader@Engine@@SAPEAV12@PEAUID3D11Device@@PEAUID3D11DeviceContext@@PEB_WPEAUD3D11_INPUT_ELEMENT_DESC@@I@Z 00000001402c90e8     Engine:Engine.dll
 0006:000000f0       __imp_?GetInstance@CGameInstance@Engine@@SAPEAV12@XZ 00000001402c90f0     Engine:Engine.dll
 0006:000000f8       __imp_?Engine_Initialize@CGameInstance@Engine@@QEAAJAEBUtagGraphic_Desc@2@IPEAPEAUID3D11Device@@PEAPEAUID3D11DeviceContext@@@Z 00000001402c90f8     Engine:Engine.dll
 0006:00000100       __imp_?Engine_Tick@CGameInstance@Engine@@QEAAJN@Z 00000001402c9100     Engine:Engine.dll
 0006:00000108       __imp_?Clear_RenderTargetView@CGameInstance@Engine@@QEAAJUXMFLOAT4@DirectX@@@Z 00000001402c9108     Engine:Engine.dll
 0006:00000110       __imp_?Clear_DepthStencilView@CGameInstance@Engine@@QEAAJXZ 00000001402c9110     Engine:Engine.dll
 0006:00000118       __imp_?Present@CGameInstance@Engine@@QEAAJXZ 00000001402c9118     Engine:Engine.dll
 0006:00000120       __imp_?Open_Level@CGameInstance@Engine@@QEAAJIPEAVCLevel@2@@Z 00000001402c9120     Engine:Engine.dll
 0006:00000128       __imp_?RenderLevelUI@CGameInstance@Engine@@QEAAXXZ 00000001402c9128     Engine:Engine.dll
 0006:00000130       __imp_?Add_Prototype@CGameInstance@Engine@@QEAAJPEB_WPEAVCGameObject@2@@Z 00000001402c9130     Engine:Engine.dll
 0006:00000138       __imp_?RenderGUI@CGameInstance@Engine@@QEAAXXZ 00000001402c9138     Engine:Engine.dll
 0006:00000140       __imp_?Add_Prototype@CGameInstance@Engine@@QEAAJIPEB_WPEAVCComponent@2@@Z 00000001402c9140     Engine:Engine.dll
 0006:00000148       __imp_?CollisionRender@CGameInstance@Engine@@QEAAXXZ 00000001402c9148     Engine:Engine.dll
 0006:00000150       __imp_?Engine_Release@CGameInstance@Engine@@SAXXZ 00000001402c9150     Engine:Engine.dll
 0006:00000158       __imp_?Elements@tagVertex_Position_TexCoord_Declaration@Engine@@2PAUD3D11_INPUT_ELEMENT_DESC@@A 00000001402c9158     Engine:Engine.dll
 0006:00000160       __imp_?Elements@tagVertex_Position_Normal_TexCoord_Declaration@Engine@@2PAUD3D11_INPUT_ELEMENT_DESC@@A 00000001402c9160     Engine:Engine.dll
 0006:00000168       __imp_?Elements@tagVertex_Model_Declaration@Engine@@2PAUD3D11_INPUT_ELEMENT_DESC@@A 00000001402c9168     Engine:Engine.dll
 0006:00000170       __imp_??0CGameObject@Engine@@IEAA@PEAUID3D11Device@@PEAUID3D11DeviceContext@@@Z 00000001402c9170     Engine:Engine.dll
 0006:00000178       __imp_??0CGameObject@Engine@@IEAA@AEBV01@@Z 00000001402c9178     Engine:Engine.dll
 0006:00000180       __imp_??1CGameObject@Engine@@MEAA@XZ 00000001402c9180     Engine:Engine.dll
 0006:00000188       __imp_?Initialize_Prototype@CGameObject@Engine@@UEAAJXZ 00000001402c9188     Engine:Engine.dll
 0006:00000190       __imp_?Initialize@CGameObject@Engine@@UEAAJPEAX@Z 00000001402c9190     Engine:Engine.dll
 0006:00000198       __imp_?Tick@CGameObject@Engine@@UEAAXN@Z 00000001402c9198     Engine:Engine.dll
 0006:000001a0       __imp_?LateTick@CGameObject@Engine@@UEAAXN@Z 00000001402c91a0     Engine:Engine.dll
 0006:000001a8       __imp_?Render@CGameObject@Engine@@UEAAJXZ 00000001402c91a8     Engine:Engine.dll
 0006:000001b0       __imp_?Add_Component@CGameObject@Engine@@IEAAJIPEB_W0PEAPEAVCComponent@2@PEAX@Z 00000001402c91b0     Engine:Engine.dll
 0006:000001b8       __imp_?Free@CGameObject@Engine@@UEAAXXZ 00000001402c91b8     Engine:Engine.dll
 0006:000001c0       __imp_?Render@CVIBuffer@Engine@@UEAAJXZ 00000001402c91c0     Engine:Engine.dll
 0006:000001c8       __imp_?Add_RenderGroup@CRenderer@Engine@@QEAAJW4RENDER_GROUP@12@PEAVCGameObject@2@@Z 00000001402c91c8     Engine:Engine.dll
 0006:000001d0       __imp_?Setup_ShaderResource@CTexture@Engine@@QEAAJPEAVCShader@2@PEBDI@Z 00000001402c91d0     Engine:Engine.dll
 0006:000001d8       __imp_?Begin@CShader@Engine@@QEAAJI@Z 00000001402c91d8     Engine:Engine.dll
 0006:000001e0       __imp_?SetMatrix@CShader@Engine@@QEAAJPEBDPEBUXMFLOAT4X4@DirectX@@@Z 00000001402c91e0     Engine:Engine.dll
 0006:000001e8       __imp_?Get_State@CTransform@Engine@@QEAA?AT__m128@@W4STATE@12@@Z 00000001402c91e8     Engine:Engine.dll
 0006:000001f0       __imp_?MoveForward@CTransform@Engine@@QEAAXN@Z 00000001402c91f0     Engine:Engine.dll
 0006:000001f8       __imp_?MoveBackward@CTransform@Engine@@QEAAXN@Z 00000001402c91f8     Engine:Engine.dll
 0006:00000200       __imp_?MoveRight@CTransform@Engine@@QEAAXN@Z 00000001402c9200     Engine:Engine.dll
 0006:00000208       __imp_?MoveLeft@CTransform@Engine@@QEAAXN@Z 00000001402c9208     Engine:Engine.dll
 0006:00000210       __imp_?Rotate@CTransform@Engine@@QEAAXT__m128@@N@Z 00000001402c9210     Engine:Engine.dll
 0006:00000218       __imp_??0CCamera@Engine@@IEAA@PEAUID3D11Device@@PEAUID3D11DeviceContext@@@Z 00000001402c9218     Engine:Engine.dll
 0006:00000220       __imp_??0CCamera@Engine@@IEAA@AEBV01@@Z 00000001402c9220     Engine:Engine.dll
 0006:00000228       __imp_??1CCamera@Engine@@MEAA@XZ 00000001402c9228     Engine:Engine.dll
 0006:00000230       __imp_?Initialize_Prototype@CCamera@Engine@@UEAAJXZ 00000001402c9230     Engine:Engine.dll
 0006:00000238       __imp_?Initialize@CCamera@Engine@@UEAAJPEAX@Z 00000001402c9238     Engine:Engine.dll
 0006:00000240       __imp_?Tick@CCamera@Engine@@UEAAXN@Z 00000001402c9240     Engine:Engine.dll
 0006:00000248       __imp_?LateTick@CCamera@Engine@@UEAAXN@Z 00000001402c9248     Engine:Engine.dll
 0006:00000250       __imp_?Free@CCamera@Engine@@UEAAXXZ 00000001402c9250     Engine:Engine.dll
 0006:00000258       __imp_?Input_KeyState_Custom@CGameInstance@Engine@@QEAA?AW4KEY_STATE@2@H@Z 00000001402c9258     Engine:Engine.dll
 0006:00000260       __imp_?Input_MouseState_Custom@CGameInstance@Engine@@QEAA?AW4KEY_STATE@2@W4MOUSE_KEYSTATE@2@@Z 00000001402c9260     Engine:Engine.dll
 0006:00000268       __imp_?Input_MouseMove@CGameInstance@Engine@@QEAAJW4MOUSE_MOVESTATE@2@@Z 00000001402c9268     Engine:Engine.dll
 0006:00000270       __imp_?RenderGUI@CGameObject@Engine@@UEAAXXZ 00000001402c9270     Engine:Engine.dll
 0006:00000278       __imp_?Find_Component@CGameObject@Engine@@QEAAPEAVCComponent@2@PEB_W@Z 00000001402c9278     Engine:Engine.dll
 0006:00000280       __imp_?Destroy@CGameObject@Engine@@QEAAXXZ 00000001402c9280     Engine:Engine.dll
 0006:00000288       __imp_?IsDestroy@CGameObject@Engine@@QEAA_NXZ 00000001402c9288     Engine:Engine.dll
 0006:00000290       __imp_?SetActive@CCollider@Engine@@QEAAX_N@Z 00000001402c9290     Engine:Engine.dll
 0006:00000298       __imp_?Release@CBase@Engine@@QEAAKXZ 00000001402c9298     Engine:Engine.dll
 0006:000002a0       __imp_?GetOwner@CCollider@Engine@@QEBAPEAVCGameObject@2@XZ 00000001402c92a0     Engine:Engine.dll
 0006:000002a8       __imp_??0IOnCollisionEnter@Engine@@QEAA@XZ 00000001402c92a8     Engine:Engine.dll
 0006:000002b0       __imp_??0IOnCollisionStay@Engine@@QEAA@XZ 00000001402c92b0     Engine:Engine.dll
 0006:000002b8       __imp_??0IOnCollisionExit@Engine@@QEAA@XZ 00000001402c92b8     Engine:Engine.dll
 0006:000002c0       __imp_?Setup_ShaderMaterialResource@CModel@Engine@@QEAAJPEAVCShader@2@PEBDIW4aiTextureType@@@Z 00000001402c92c0     Engine:Engine.dll
 0006:000002c8       __imp_?Setup_BoneMatrices@CModel@Engine@@QEAAJPEAVCShader@2@PEBDI@Z 00000001402c92c8     Engine:Engine.dll
 0006:000002d0       __imp_?Setup_Animation@CModel@Engine@@QEAAJIW4TYPE@CAnimation@2@_N@Z 00000001402c92d0     Engine:Engine.dll
 0006:000002d8       __imp_?Play_Animation@CModel@Engine@@QEAAJNPEAVCTransform@2@N_N@Z 00000001402c92d8     Engine:Engine.dll
 0006:000002e0       __imp_?Render@CModel@Engine@@QEAAJI@Z 00000001402c92e0     Engine:Engine.dll
 0006:000002e8       __imp_?GetMeshName@CModel@Engine@@QEAAPEBDI@Z 00000001402c92e8     Engine:Engine.dll
 0006:000002f0       __imp_?Get_MeshCount@CModel@Engine@@QEAAIXZ 00000001402c92f0     Engine:Engine.dll
 0006:000002f8       __imp_?GetBonePtr@CModel@Engine@@QEAAPEAVCBone@2@PEBD@Z 00000001402c92f8     Engine:Engine.dll
 0006:00000300       __imp_?GetLocalMatrix@CModel@Engine@@QEBA?AUXMFLOAT4X4@DirectX@@XZ 00000001402c9300     Engine:Engine.dll
 0006:00000308       __imp_?AnimationCompare@CModel@Engine@@QEBA_NI@Z 00000001402c9308     Engine:Engine.dll
 0006:00000310       __imp_?AnimationIsFinish@CModel@Engine@@QEAA_NXZ 00000001402c9310     Engine:Engine.dll
 0006:00000318       __imp_?AnimationIsFinishEx@CModel@Engine@@QEAA_NXZ 00000001402c9318     Engine:Engine.dll
 0006:00000320       __imp_?AnimationIsPreFinish@CModel@Engine@@QEAA_NXZ 00000001402c9320     Engine:Engine.dll
 0006:00000328       __imp_?AnimationIsPreFinishEx@CModel@Engine@@QEAA_NXZ 00000001402c9328     Engine:Engine.dll
 0006:00000330       __imp_?Get_WorldMatrix@CTransform@Engine@@QEAA?AUXMFLOAT4X4@DirectX@@XZ 00000001402c9330     Engine:Engine.dll
 0006:00000338       __imp_?Set_State@CTransform@Engine@@QEAAXW4STATE@12@T__m128@@@Z 00000001402c9338     Engine:Engine.dll
 0006:00000340       __imp_?LookAt@CTransform@Engine@@QEAAXT__m128@@@Z 00000001402c9340     Engine:Engine.dll
 0006:00000348       __imp_?Chase@CTransform@Engine@@QEAAXT__m128@@NM@Z 00000001402c9348     Engine:Engine.dll
 0006:00000350       __imp_?Setup_ShaderResource@CTransform@Engine@@QEAAJPEAVCShader@2@PEBD@Z 00000001402c9350     Engine:Engine.dll
 0006:00000358       __imp_?SetRawValue@CShader@Engine@@QEAAJPEBDPEBXI@Z 00000001402c9358     Engine:Engine.dll
 0006:00000360       __imp_?Get_Transform_float4x4@CGameInstance@Engine@@QEAA?AUXMFLOAT4X4@DirectX@@W4TRANSFORM_STATE@CPipeLine@2@@Z 00000001402c9360     Engine:Engine.dll
 0006:00000368       __imp_?Get_CamPosition@CGameInstance@Engine@@QEAA?AUXMFLOAT4@DirectX@@XZ 00000001402c9368     Engine:Engine.dll
 0006:00000370       __imp_?GetLightDesc@CGameInstance@Engine@@QEAAPEBUtagLight_Desc@2@I@Z 00000001402c9370     Engine:Engine.dll
 0006:00000378       __imp_?AddCollider@CGameInstance@Engine@@QEAAJPEAVCCollider@2@I@Z 00000001402c9378     Engine:Engine.dll
 0006:00000380       __imp_?Set_Scale@CTransform@Engine@@QEAAXUXMFLOAT3@DirectX@@@Z 00000001402c9380     Engine:Engine.dll
 0006:00000388       __imp_?Compare@CGameObject@Engine@@QEAA_NPEAV12@@Z 00000001402c9388     Engine:Engine.dll
 0006:00000390       __imp_?SetColor@CCollider@Engine@@QEAAXUXMFLOAT4@DirectX@@@Z 00000001402c9390     Engine:Engine.dll
 0006:00000398       __imp_?SetCollision@CCollider@Engine@@QEAAX_N@Z 00000001402c9398     Engine:Engine.dll
 0006:000003a0       __imp_?AnimationIsPreFinishCustom@CModel@Engine@@QEAA_NN@Z 00000001402c93a0     Engine:Engine.dll
 0006:000003a8       __imp_?Add_GameObject@CGameInstance@Engine@@QEAAPEAVCGameObject@2@IPEB_W0V?$basic_string@_WU?$char_traits@_W@std@@V?$allocator@_W@2@@std@@PEAX@Z 00000001402c93a8     Engine:Engine.dll
 0006:000003b0       __imp_?Get_Transform_Matrix_Inverse@CGameInstance@Engine@@QEAA?AUXMMATRIX@DirectX@@W4TRANSFORM_STATE@CPipeLine@2@@Z 00000001402c93b0     Engine:Engine.dll
 0006:000003b8       __imp_?CreateTimer@CGameInstance@Engine@@QEAAJPEB_W@Z 00000001402c93b8     Engine:Engine.dll
 0006:000003c0       __imp_?GetTimer@CGameInstance@Engine@@QEAAMPEB_W@Z 00000001402c93c0     Engine:Engine.dll
 0006:000003c8       __imp_?GetInstance@CCollisionManager@Engine@@SAPEAV12@XZ 00000001402c93c8     Engine:Engine.dll
 0006:000003d0       __imp_?GetHasCollisionCount@CCollisionManager@Engine@@QEAAHXZ 00000001402c93d0     Engine:Engine.dll
 0006:000003d8       __imp_??0CLevel@Engine@@IEAA@PEAUID3D11Device@@PEAUID3D11DeviceContext@@@Z 00000001402c93d8     Engine:Engine.dll
 0006:000003e0       __imp_??1CLevel@Engine@@MEAA@XZ 00000001402c93e0     Engine:Engine.dll
 0006:000003e8       __imp_?Free@CLevel@Engine@@UEAAXXZ 00000001402c93e8     Engine:Engine.dll
 0006:000003f0       __imp_?AddLight@CGameInstance@Engine@@QEAAJPEAUID3D11Device@@PEAUID3D11DeviceContext@@AEBUtagLight_Desc@2@@Z 00000001402c93f0     Engine:Engine.dll
 0006:000003f8       __imp_?RenderLevelUI@CLevel@Engine@@UEAAXXZ 00000001402c93f8     Engine:Engine.dll
 0006:00000400       __imp_?Initialize@CLevel@Engine@@UEAAJXZ 00000001402c9400     Engine:Engine.dll
 0006:00000408       __imp_?Create@CModel@Engine@@SAPEAV12@PEAUID3D11Device@@PEAUID3D11DeviceContext@@W4MESH_TYPE@12@PEBDUXMMATRIX@DirectX@@I@Z 00000001402c9408     Engine:Engine.dll
 0006:00000410       __imp_?Create@COBBCollider@Engine@@SAPEAV12@PEAUID3D11Device@@PEAUID3D11DeviceContext@@@Z 00000001402c9410     Engine:Engine.dll
 0006:00000418       __imp_?Create@CSphereCollider@Engine@@SAPEAV12@PEAUID3D11Device@@PEAUID3D11DeviceContext@@@Z 00000001402c9418     Engine:Engine.dll
 0006:00000420       __imp_?Create@CVIBuffer_Terrain@Engine@@SAPEAV12@PEAUID3D11Device@@PEAUID3D11DeviceContext@@PEB_W@Z 00000001402c9420     Engine:Engine.dll
 0006:00000428       __imp_?Elements@tagVertex_Anim_Model_Declaration@Engine@@2PAUD3D11_INPUT_ELEMENT_DESC@@A 00000001402c9428     Engine:Engine.dll
 0006:00000430       __imp_?SetVisible@CCollider@Engine@@QEAAX_N@Z 00000001402c9430     Engine:Engine.dll
 0006:00000438       __imp_?Update@COBBCollider@Engine@@UEAAXUXMMATRIX@DirectX@@@Z 00000001402c9438     Engine:Engine.dll
 0006:00000440       __imp_?Get_Scale@CTransform@Engine@@QEAA?AUXMFLOAT3@DirectX@@XZ 00000001402c9440     Engine:Engine.dll
 0006:00000448       __imp_?SetRotationXYZ@CTransform@Engine@@QEAAXUXMFLOAT3@DirectX@@@Z 00000001402c9448     Engine:Engine.dll
 0006:00000450       __imp_?Set_WorldMatrix@CTransform@Engine@@QEAAXUXMFLOAT4X4@DirectX@@@Z 00000001402c9450     Engine:Engine.dll
 0006:00000458       __imp_?GetInstance@CPipeLine@Engine@@SAPEAV12@XZ 00000001402c9458     Engine:Engine.dll
 0006:00000460       __imp_?Get_Transform_float4x4@CPipeLine@Engine@@QEAA?AUXMFLOAT4X4@DirectX@@W4TRANSFORM_STATE@12@@Z 00000001402c9460     Engine:Engine.dll
 0006:00000468       __imp_?SetTimer@CGameInstance@Engine@@QEAAXPEB_W@Z 00000001402c9468     Engine:Engine.dll
 0006:00000470       __imp_?AddRef@CBase@Engine@@QEAAKXZ 00000001402c9470     Engine:Engine.dll
 0006:00000478       __imp_??1CBase@Engine@@UEAA@XZ 00000001402c9478     Engine:Engine.dll
 0006:00000480       __imp_?Compare@CCollider@Engine@@QEAA_NPEAV12@@Z 00000001402c9480     Engine:Engine.dll
 0006:00000488       __imp_??0CBase@Engine@@QEAA@XZ 00000001402c9488     Engine:Engine.dll
 0006:00000490       \177Engine_NULL_THUNK_DATA 00000001402c9490     Engine:Engine.dll
 0006:000005a8       __imp_CreateRectRgn        00000001402c95a8     gdi32:GDI32.dll
 0006:000005b0       __imp_GetDeviceCaps        00000001402c95b0     gdi32:GDI32.dll
 0006:000005b8       __imp_DeleteObject         00000001402c95b8     gdi32:GDI32.dll
 0006:000005c0       \177GDI32_NULL_THUNK_DATA  00000001402c95c0     gdi32:GDI32.dll
 0006:00000618       __imp_ImmGetContext        00000001402c9618     imm32:IMM32.dll
 0006:00000620       __imp_ImmSetCompositionWindow 00000001402c9620     imm32:IMM32.dll
 0006:00000628       __imp_ImmSetCandidateWindow 00000001402c9628     imm32:IMM32.dll
 0006:00000630       __imp_ImmReleaseContext    00000001402c9630     imm32:IMM32.dll
 0006:00000638       \177IMM32_NULL_THUNK_DATA  00000001402c9638     imm32:IMM32.dll
 0006:00000690       __imp_CloseHandle          00000001402c9690     kernel32:KERNEL32.dll
 0006:00000698       __imp_InitializeCriticalSection 00000001402c9698     kernel32:KERNEL32.dll
 0006:000006a0       __imp_EnterCriticalSection 00000001402c96a0     kernel32:KERNEL32.dll
 0006:000006a8       __imp_LeaveCriticalSection 00000001402c96a8     kernel32:KERNEL32.dll
 0006:000006b0       __imp_DeleteCriticalSection 00000001402c96b0     kernel32:KERNEL32.dll
 0006:000006b8       __imp_WaitForSingleObject  00000001402c96b8     kernel32:KERNEL32.dll
 0006:000006c0       __imp_CreateFileW          00000001402c96c0     kernel32:KERNEL32.dll
 0006:000006c8       __imp_ReadFile             00000001402c96c8     kernel32:KERNEL32.dll
 0006:000006d0       __imp_WriteFile            00000001402c96d0     kernel32:KERNEL32.dll
 0006:000006d8       __imp_lstrcpyW             00000001402c96d8     kernel32:KERNEL32.dll
 0006:000006e0       __imp_GetSystemTimeAsFileTime 00000001402c96e0     kernel32:KERNEL32.dll
 0006:000006e8       __imp_GetCurrentThreadId   00000001402c96e8     kernel32:KERNEL32.dll
 0006:000006f0       __imp_GetCurrentProcessId  00000001402c96f0     kernel32:KERNEL32.dll
 0006:000006f8       __imp_VirtualQuery         00000001402c96f8     kernel32:KERNEL32.dll
 0006:00000700       __imp_GetProcessHeap       00000001402c9700     kernel32:KERNEL32.dll
 0006:00000708       __imp_HeapFree             00000001402c9708     kernel32:KERNEL32.dll
 0006:00000710       __imp_HeapAlloc            00000001402c9710     kernel32:KERNEL32.dll
 0006:00000718       __imp_LoadLibraryA         00000001402c9718     kernel32:KERNEL32.dll
 0006:00000720       __imp_QueryPerformanceCounter 00000001402c9720     kernel32:KERNEL32.dll
 0006:00000728       __imp_RaiseException       00000001402c9728     kernel32:KERNEL32.dll
 0006:00000730       __imp_IsDebuggerPresent    00000001402c9730     kernel32:KERNEL32.dll
 0006:00000738       __imp_GetModuleHandleW     00000001402c9738     kernel32:KERNEL32.dll
 0006:00000740       __imp_CreateEventW         00000001402c9740     kernel32:KERNEL32.dll
 0006:00000748       __imp_WaitForSingleObjectEx 00000001402c9748     kernel32:KERNEL32.dll
 0006:00000750       __imp_ResetEvent           00000001402c9750     kernel32:KERNEL32.dll
 0006:00000758       __imp_SetEvent             00000001402c9758     kernel32:KERNEL32.dll
 0006:00000760       __imp_IsProcessorFeaturePresent 00000001402c9760     kernel32:KERNEL32.dll
 0006:00000768       __imp_TerminateProcess     00000001402c9768     kernel32:KERNEL32.dll
 0006:00000770       __imp_GetCurrentProcess    00000001402c9770     kernel32:KERNEL32.dll
 0006:00000778       __imp_SetUnhandledExceptionFilter 00000001402c9778     kernel32:KERNEL32.dll
 0006:00000780       __imp_UnhandledExceptionFilter 00000001402c9780     kernel32:KERNEL32.dll
 0006:00000788       __imp_InitializeSListHead  00000001402c9788     kernel32:KERNEL32.dll
 0006:00000790       __imp_RtlVirtualUnwind     00000001402c9790     kernel32:KERNEL32.dll
 0006:00000798       __imp_RtlLookupFunctionEntry 00000001402c9798     kernel32:KERNEL32.dll
 0006:000007a0       __imp_RtlCaptureContext    00000001402c97a0     kernel32:KERNEL32.dll
 0006:000007a8       __imp_GlobalFree           00000001402c97a8     kernel32:KERNEL32.dll
 0006:000007b0       __imp_GlobalUnlock         00000001402c97b0     kernel32:KERNEL32.dll
 0006:000007b8       __imp_GetProcAddress       00000001402c97b8     kernel32:KERNEL32.dll
 0006:000007c0       __imp_GetModuleHandleA     00000001402c97c0     kernel32:KERNEL32.dll
 0006:000007c8       __imp_FreeLibrary          00000001402c97c8     kernel32:KERNEL32.dll
 0006:000007d0       __imp_GetLastError         00000001402c97d0     kernel32:KERNEL32.dll
 0006:000007d8       __imp_QueryPerformanceFrequency 00000001402c97d8     kernel32:KERNEL32.dll
 0006:000007e0       __imp_GlobalLock           00000001402c97e0     kernel32:KERNEL32.dll
 0006:000007e8       __imp_GlobalAlloc          00000001402c97e8     kernel32:KERNEL32.dll
 0006:000007f0       __imp_VerSetConditionMask  00000001402c97f0     kernel32:KERNEL32.dll
 0006:000007f8       __imp_WideCharToMultiByte  00000001402c97f8     kernel32:KERNEL32.dll
 0006:00000800       __imp_GetStartupInfoW      00000001402c9800     kernel32:KERNEL32.dll
 0006:00000808       __imp_MultiByteToWideChar  00000001402c9808     kernel32:KERNEL32.dll
 0006:00000810       \177KERNEL32_NULL_THUNK_DATA 00000001402c9810     kernel32:KERNEL32.dll
 0006:000008b0       __imp_?_Xlength_error@std@@YAXPEBD@Z 00000001402c98b0     msvcprtd:MSVCP140D.dll
 0006:000008b8       __imp_?_Xbad_alloc@std@@YAXXZ 00000001402c98b8     msvcprtd:MSVCP140D.dll
 0006:000008c0       __imp_?_Debug_message@std@@YAXPEB_W0I@Z 00000001402c98c0     msvcprtd:MSVCP140D.dll
 0006:000008c8       __imp_??1_Lockit@std@@QEAA@XZ 00000001402c98c8     msvcprtd:MSVCP140D.dll
 0006:000008d0       __imp_??0_Lockit@std@@QEAA@H@Z 00000001402c98d0     msvcprtd:MSVCP140D.dll
 0006:000008d8       __imp_?_Xout_of_range@std@@YAXPEBD@Z 00000001402c98d8     msvcprtd:MSVCP140D.dll
 0006:000008e0       \177MSVCP140D_NULL_THUNK_DATA 00000001402c98e0     msvcprtd:MSVCP140D.dll
 0006:00000940       __imp_LoadAcceleratorsW    00000001402c9940     user32:USER32.dll
 0006:00000948       __imp_ShowWindow           00000001402c9948     user32:USER32.dll
 0006:00000950       __imp_CreateWindowExW      00000001402c9950     user32:USER32.dll
 0006:00000958       __imp_OpenClipboard        00000001402c9958     user32:USER32.dll
 0006:00000960       __imp_CloseClipboard       00000001402c9960     user32:USER32.dll
 0006:00000968       __imp_RegisterClassExW     00000001402c9968     user32:USER32.dll
 0006:00000970       __imp_PostQuitMessage      00000001402c9970     user32:USER32.dll
 0006:00000978       __imp_TranslateAcceleratorW 00000001402c9978     user32:USER32.dll
 0006:00000980       __imp_PeekMessageW         00000001402c9980     user32:USER32.dll
 0006:00000988       __imp_DispatchMessageW     00000001402c9988     user32:USER32.dll
 0006:00000990       __imp_TranslateMessage     00000001402c9990     user32:USER32.dll
 0006:00000998       __imp_LoadStringW          00000001402c9998     user32:USER32.dll
 0006:000009a0       __imp_SetClipboardData     00000001402c99a0     user32:USER32.dll
 0006:000009a8       __imp_GetClipboardData     00000001402c99a8     user32:USER32.dll
 0006:000009b0       __imp_EmptyClipboard       00000001402c99b0     user32:USER32.dll
 0006:000009b8       __imp_TrackMouseEvent      00000001402c99b8     user32:USER32.dll
 0006:000009c0       __imp_UpdateWindow         00000001402c99c0     user32:USER32.dll
 0006:000009c8       __imp_BeginPaint           00000001402c99c8     user32:USER32.dll
 0006:000009d0       __imp_LoadIconW            00000001402c99d0     user32:USER32.dll
 0006:000009d8       __imp_AdjustWindowRect     00000001402c99d8     user32:USER32.dll
 0006:000009e0       __imp_DefWindowProcW       00000001402c99e0     user32:USER32.dll
 0006:000009e8       __imp_EndPaint             00000001402c99e8     user32:USER32.dll
 0006:000009f0       __imp_GetKeyState          00000001402c99f0     user32:USER32.dll
 0006:000009f8       __imp_GetCapture           00000001402c99f8     user32:USER32.dll
 0006:00000a00       __imp_SetCapture           00000001402c9a00     user32:USER32.dll
 0006:00000a08       __imp_ReleaseCapture       00000001402c9a08     user32:USER32.dll
 0006:00000a10       __imp_IsWindowUnicode      00000001402c9a10     user32:USER32.dll
 0006:00000a18       __imp_GetForegroundWindow  00000001402c9a18     user32:USER32.dll
 0006:00000a20       __imp_GetDC                00000001402c9a20     user32:USER32.dll
 0006:00000a28       __imp_ReleaseDC            00000001402c9a28     user32:USER32.dll
 0006:00000a30       __imp_GetClientRect        00000001402c9a30     user32:USER32.dll
 0006:00000a38       __imp_SetCursorPos         00000001402c9a38     user32:USER32.dll
 0006:00000a40       __imp_SetCursor            00000001402c9a40     user32:USER32.dll
 0006:00000a48       __imp_GetCursorPos         00000001402c9a48     user32:USER32.dll
 0006:00000a50       __imp_ClientToScreen       00000001402c9a50     user32:USER32.dll
 0006:00000a58       __imp_ScreenToClient       00000001402c9a58     user32:USER32.dll
 0006:00000a60       __imp_LoadCursorW          00000001402c9a60     user32:USER32.dll
 0006:00000a68       __imp_SetProcessDPIAware   00000001402c9a68     user32:USER32.dll
 0006:00000a70       __imp_MessageBoxW          00000001402c9a70     user32:USER32.dll
 0006:00000a78       __imp_SetWindowTextW       00000001402c9a78     user32:USER32.dll
 0006:00000a80       __imp_MonitorFromWindow    00000001402c9a80     user32:USER32.dll
 0006:00000a88       \177USER32_NULL_THUNK_DATA 00000001402c9a88     user32:USER32.dll
 0006:00000b20       __imp_strchr               00000001402c9b20     vcruntimed:VCRUNTIME140D.dll
 0006:00000b28       __imp___std_type_info_destroy_list 00000001402c9b28     vcruntimed:VCRUNTIME140D.dll
 0006:00000b30       __imp___vcrt_LoadLibraryExW 00000001402c9b30     vcruntimed:VCRUNTIME140D.dll
 0006:00000b38       __imp___vcrt_GetModuleHandleW 00000001402c9b38     vcruntimed:VCRUNTIME140D.dll
 0006:00000b40       __imp___vcrt_GetModuleFileNameW 00000001402c9b40     vcruntimed:VCRUNTIME140D.dll
 0006:00000b48       __imp_memchr               00000001402c9b48     vcruntimed:VCRUNTIME140D.dll
 0006:00000b50       __imp_memcmp               00000001402c9b50     vcruntimed:VCRUNTIME140D.dll
 0006:00000b58       __imp_memcpy               00000001402c9b58     vcruntimed:VCRUNTIME140D.dll
 0006:00000b60       __imp_memmove              00000001402c9b60     vcruntimed:VCRUNTIME140D.dll
 0006:00000b68       __imp_memset               00000001402c9b68     vcruntimed:VCRUNTIME140D.dll
 0006:00000b70       __imp_strstr               00000001402c9b70     vcruntimed:VCRUNTIME140D.dll
 0006:00000b78       __imp___CxxFrameHandler3   00000001402c9b78     vcruntimed:VCRUNTIME140D.dll
 0006:00000b80       __imp__CxxThrowException   00000001402c9b80     vcruntimed:VCRUNTIME140D.dll
 0006:00000b88       __imp___RTDynamicCast      00000001402c9b88     vcruntimed:VCRUNTIME140D.dll
 0006:00000b90       __imp___C_specific_handler 00000001402c9b90     vcruntimed:VCRUNTIME140D.dll
 0006:00000b98       __imp___vcrt_InitializeCriticalSectionEx 00000001402c9b98     vcruntimed:VCRUNTIME140D.dll
 0006:00000ba0       __imp___std_exception_copy 00000001402c9ba0     vcruntimed:VCRUNTIME140D.dll
 0006:00000ba8       __imp___std_exception_destroy 00000001402c9ba8     vcruntimed:VCRUNTIME140D.dll
 0006:00000bb0       \177VCRUNTIME140D_NULL_THUNK_DATA 00000001402c9bb0     vcruntimed:VCRUNTIME140D.dll
 0006:00000c20       __imp_DwmIsCompositionEnabled 00000001402c9c20     dwmapi:dwmapi.dll
 0006:00000c28       __imp_DwmGetColorizationColor 00000001402c9c28     dwmapi:dwmapi.dll
 0006:00000c30       __imp_DwmEnableBlurBehindWindow 00000001402c9c30     dwmapi:dwmapi.dll
 0006:00000c38       \177dwmapi_NULL_THUNK_DATA 00000001402c9c38     dwmapi:dwmapi.dll
 0006:00000c90       __imp_CoInitializeEx       00000001402c9c90     ole32:ole32.dll
 0006:00000c98       \177ole32_NULL_THUNK_DATA  00000001402c9c98     ole32:ole32.dll
 0006:00000cf0       __imp_floorf               00000001402c9cf0     ucrtd:ucrtbased.dll
 0006:00000cf8       __imp_sinf                 00000001402c9cf8     ucrtd:ucrtbased.dll
 0006:00000d00       __imp_cosf                 00000001402c9d00     ucrtd:ucrtbased.dll
 0006:00000d08       __imp_ceilf                00000001402c9d08     ucrtd:ucrtbased.dll
 0006:00000d10       __imp_atof                 00000001402c9d10     ucrtd:ucrtbased.dll
 0006:00000d18       __imp_log                  00000001402c9d18     ucrtd:ucrtbased.dll
 0006:00000d20       __imp_pow                  00000001402c9d20     ucrtd:ucrtbased.dll
 0006:00000d28       __imp_atan2f               00000001402c9d28     ucrtd:ucrtbased.dll
 0006:00000d30       __imp_logf                 00000001402c9d30     ucrtd:ucrtbased.dll
 0006:00000d38       __imp_powf                 00000001402c9d38     ucrtd:ucrtbased.dll
 0006:00000d40       __imp__invalid_parameter   00000001402c9d40     ucrtd:ucrtbased.dll
 0006:00000d48       __imp_wcslen               00000001402c9d48     ucrtd:ucrtbased.dll
 0006:00000d50       __imp__CrtDbgReportW       00000001402c9d50     ucrtd:ucrtbased.dll
 0006:00000d58       __imp_srand                00000001402c9d58     ucrtd:ucrtbased.dll
 0006:00000d60       __imp_rand                 00000001402c9d60     ucrtd:ucrtbased.dll
 0006:00000d68       __imp__fdtest              00000001402c9d68     ucrtd:ucrtbased.dll
 0006:00000d70       __imp__time64              00000001402c9d70     ucrtd:ucrtbased.dll
 0006:00000d78       __imp__beginthreadex       00000001402c9d78     ucrtd:ucrtbased.dll
 0006:00000d80       __imp_terminate            00000001402c9d80     ucrtd:ucrtbased.dll
 0006:00000d88       __imp__CrtDbgReport        00000001402c9d88     ucrtd:ucrtbased.dll
 0006:00000d90       __imp__seh_filter_dll      00000001402c9d90     ucrtd:ucrtbased.dll
 0006:00000d98       __imp__configure_narrow_argv 00000001402c9d98     ucrtd:ucrtbased.dll
 0006:00000da0       __imp__initialize_narrow_environment 00000001402c9da0     ucrtd:ucrtbased.dll
 0006:00000da8       __imp__initialize_onexit_table 00000001402c9da8     ucrtd:ucrtbased.dll
 0006:00000db0       __imp__register_onexit_function 00000001402c9db0     ucrtd:ucrtbased.dll
 0006:00000db8       __imp_toupper              00000001402c9db8     ucrtd:ucrtbased.dll
 0006:00000dc0       __imp__crt_atexit          00000001402c9dc0     ucrtd:ucrtbased.dll
 0006:00000dc8       __imp__crt_at_quick_exit   00000001402c9dc8     ucrtd:ucrtbased.dll
 0006:00000dd0       __imp__cexit               00000001402c9dd0     ucrtd:ucrtbased.dll
 0006:00000dd8       __imp__callnewh            00000001402c9dd8     ucrtd:ucrtbased.dll
 0006:00000de0       __imp__free_dbg            00000001402c9de0     ucrtd:ucrtbased.dll
 0006:00000de8       __imp__malloc_dbg          00000001402c9de8     ucrtd:ucrtbased.dll
 0006:00000df0       __imp___stdio_common_vsprintf_s 00000001402c9df0     ucrtd:ucrtbased.dll
 0006:00000df8       __imp__seh_filter_exe      00000001402c9df8     ucrtd:ucrtbased.dll
 0006:00000e00       __imp__set_app_type        00000001402c9e00     ucrtd:ucrtbased.dll
 0006:00000e08       __imp___setusermatherr     00000001402c9e08     ucrtd:ucrtbased.dll
 0006:00000e10       __imp__configure_wide_argv 00000001402c9e10     ucrtd:ucrtbased.dll
 0006:00000e18       __imp__initialize_wide_environment 00000001402c9e18     ucrtd:ucrtbased.dll
 0006:00000e20       __imp__get_wide_winmain_command_line 00000001402c9e20     ucrtd:ucrtbased.dll
 0006:00000e28       __imp__initterm            00000001402c9e28     ucrtd:ucrtbased.dll
 0006:00000e30       __imp__initterm_e          00000001402c9e30     ucrtd:ucrtbased.dll
 0006:00000e38       __imp_exit                 00000001402c9e38     ucrtd:ucrtbased.dll
 0006:00000e40       __imp__exit                00000001402c9e40     ucrtd:ucrtbased.dll
 0006:00000e48       __imp__set_fmode           00000001402c9e48     ucrtd:ucrtbased.dll
 0006:00000e50       __imp__c_exit              00000001402c9e50     ucrtd:ucrtbased.dll
 0006:00000e58       __imp__register_thread_local_exe_atexit_callback 00000001402c9e58     ucrtd:ucrtbased.dll
 0006:00000e60       __imp__configthreadlocale  00000001402c9e60     ucrtd:ucrtbased.dll
 0006:00000e68       __imp__set_new_mode        00000001402c9e68     ucrtd:ucrtbased.dll
 0006:00000e70       __imp___p__commode         00000001402c9e70     ucrtd:ucrtbased.dll
 0006:00000e78       __imp__wmakepath_s         00000001402c9e78     ucrtd:ucrtbased.dll
 0006:00000e80       __imp__wsplitpath_s        00000001402c9e80     ucrtd:ucrtbased.dll
 0006:00000e88       __imp_wcscpy_s             00000001402c9e88     ucrtd:ucrtbased.dll
 0006:00000e90       __imp_strncmp              00000001402c9e90     ucrtd:ucrtbased.dll
 0006:00000e98       __imp_strcpy               00000001402c9e98     ucrtd:ucrtbased.dll
 0006:00000ea0       __imp_sqrtf                00000001402c9ea0     ucrtd:ucrtbased.dll
 0006:00000ea8       __imp_fmodf                00000001402c9ea8     ucrtd:ucrtbased.dll
 0006:00000eb0       __imp_fabs                 00000001402c9eb0     ucrtd:ucrtbased.dll
 0006:00000eb8       __imp_qsort                00000001402c9eb8     ucrtd:ucrtbased.dll
 0006:00000ec0       __imp_malloc               00000001402c9ec0     ucrtd:ucrtbased.dll
 0006:00000ec8       __imp_free                 00000001402c9ec8     ucrtd:ucrtbased.dll
 0006:00000ed0       __imp___stdio_common_vsscanf 00000001402c9ed0     ucrtd:ucrtbased.dll
 0006:00000ed8       __imp___stdio_common_vsprintf 00000001402c9ed8     ucrtd:ucrtbased.dll
 0006:00000ee0       __imp___stdio_common_vfprintf 00000001402c9ee0     ucrtd:ucrtbased.dll
 0006:00000ee8       __imp_fwrite               00000001402c9ee8     ucrtd:ucrtbased.dll
 0006:00000ef0       __imp_ftell                00000001402c9ef0     ucrtd:ucrtbased.dll
 0006:00000ef8       __imp_fseek                00000001402c9ef8     ucrtd:ucrtbased.dll
 0006:00000f00       __imp_fread                00000001402c9f00     ucrtd:ucrtbased.dll
 0006:00000f08       __imp_fflush               00000001402c9f08     ucrtd:ucrtbased.dll
 0006:00000f10       __imp_fclose               00000001402c9f10     ucrtd:ucrtbased.dll
 0006:00000f18       __imp__wfopen              00000001402c9f18     ucrtd:ucrtbased.dll
 0006:00000f20       __imp___acrt_iob_func      00000001402c9f20     ucrtd:ucrtbased.dll
 0006:00000f28       __imp__wassert             00000001402c9f28     ucrtd:ucrtbased.dll
 0006:00000f30       __imp_strncpy              00000001402c9f30     ucrtd:ucrtbased.dll
 0006:00000f38       __imp_strlen               00000001402c9f38     ucrtd:ucrtbased.dll
 0006:00000f40       __imp__execute_onexit_table 00000001402c9f40     ucrtd:ucrtbased.dll
 0006:00000f48       __imp_strcmp               00000001402c9f48     ucrtd:ucrtbased.dll
 0006:00000f50       __imp_acosf                00000001402c9f50     ucrtd:ucrtbased.dll
 0006:00000f58       \177ucrtbased_NULL_THUNK_DATA 00000001402c9f58     ucrtd:ucrtbased.dll
 0006:00001028       __IMPORT_DESCRIPTOR_Engine 00000001402ca028     Engine:Engine.dll
 0006:0000103c       __IMPORT_DESCRIPTOR_KERNEL32 00000001402ca03c     kernel32:KERNEL32.dll
 0006:00001050       __IMPORT_DESCRIPTOR_USER32 00000001402ca050     user32:USER32.dll
 0006:00001064       __IMPORT_DESCRIPTOR_GDI32  00000001402ca064     gdi32:GDI32.dll
 0006:00001078       __IMPORT_DESCRIPTOR_COMDLG32 00000001402ca078     comdlg32:COMDLG32.dll
 0006:0000108c       __IMPORT_DESCRIPTOR_ole32  00000001402ca08c     ole32:ole32.dll
 0006:000010a0       __IMPORT_DESCRIPTOR_IMM32  00000001402ca0a0     imm32:IMM32.dll
 0006:000010b4       __IMPORT_DESCRIPTOR_D3DCOMPILER_47 00000001402ca0b4     d3dcompiler:D3DCOMPILER_47.dll
 0006:000010c8       __IMPORT_DESCRIPTOR_dwmapi 00000001402ca0c8     dwmapi:dwmapi.dll
 0006:000010dc       __IMPORT_DESCRIPTOR_MSVCP140D 00000001402ca0dc     msvcprtd:MSVCP140D.dll
 0006:000010f0       __IMPORT_DESCRIPTOR_VCRUNTIME140D 00000001402ca0f0     vcruntimed:VCRUNTIME140D.dll
 0006:00001104       __IMPORT_DESCRIPTOR_ucrtbased 00000001402ca104     ucrtd:ucrtbased.dll
 0006:00001118       __NULL_IMPORT_DESCRIPTOR   00000001402ca118     Engine:Engine.dll
 0008:00000000       _tls_start                 00000001402d0000     MSVCRTD:tlssup.obj
 0008:00000104       _Init_thread_epoch         00000001402d0104     MSVCRTD:thread_safe_statics.obj
 0008:00000208       _tls_end                   00000001402d0208     MSVCRTD:tlssup.obj
 0009:00000000       __guard_check_icall_fptr   00000001402d1000     MSVCRTD:guard_support.obj
 0009:00000010       __guard_dispatch_icall_fptr 00000001402d1010     MSVCRTD:guard_support.obj
