; Listing generated by Microsoft (R) Optimizing Compiler Version 19.00.24245.0 

include listing.inc

INCLUDELIB MSVCRTD
INCLUDELIB OLDNAMES

PUBLIC	?szTitle@@3PA_WA				; szTitle
PUBLIC	?szWindowClass@@3PA_WA				; szWindowClass
PUBLIC	?g_hInst@@3PEAUHINSTANCE__@@EA			; g_hInst
PUBLIC	?g_hWnd@@3PEAUHWND__@@EA			; g_hWnd
PUBLIC	?AliceBlue@Colors@DirectX@@3UXMVECTORF32@2@B	; DirectX::Colors::AliceBlue
PUBLIC	?AntiqueWhite@Colors@DirectX@@3UXMVECTORF32@2@B	; DirectX::Colors::AntiqueWhite
PUBLIC	?Aqua@Colors@DirectX@@3UXMVECTORF32@2@B		; DirectX::Colors::Aqua
PUBLIC	?Aquamarine@Colors@DirectX@@3UXMVECTORF32@2@B	; DirectX::Colors::Aquamarine
PUBLIC	?Azure@Colors@DirectX@@3UXMVECTORF32@2@B	; DirectX::Colors::Azure
PUBLIC	?Beige@Colors@DirectX@@3UXMVECTORF32@2@B	; DirectX::Colors::Beige
PUBLIC	?Bisque@Colors@DirectX@@3UXMVECTORF32@2@B	; DirectX::Colors::Bisque
PUBLIC	?Black@Colors@DirectX@@3UXMVECTORF32@2@B	; DirectX::Colors::Black
PUBLIC	?BlanchedAlmond@Colors@DirectX@@3UXMVECTORF32@2@B ; DirectX::Colors::BlanchedAlmond
PUBLIC	?Blue@Colors@DirectX@@3UXMVECTORF32@2@B		; DirectX::Colors::Blue
PUBLIC	?BlueViolet@Colors@DirectX@@3UXMVECTORF32@2@B	; DirectX::Colors::BlueViolet
PUBLIC	?Brown@Colors@DirectX@@3UXMVECTORF32@2@B	; DirectX::Colors::Brown
PUBLIC	?BurlyWood@Colors@DirectX@@3UXMVECTORF32@2@B	; DirectX::Colors::BurlyWood
PUBLIC	?CadetBlue@Colors@DirectX@@3UXMVECTORF32@2@B	; DirectX::Colors::CadetBlue
PUBLIC	?Chartreuse@Colors@DirectX@@3UXMVECTORF32@2@B	; DirectX::Colors::Chartreuse
PUBLIC	?Chocolate@Colors@DirectX@@3UXMVECTORF32@2@B	; DirectX::Colors::Chocolate
PUBLIC	?Coral@Colors@DirectX@@3UXMVECTORF32@2@B	; DirectX::Colors::Coral
PUBLIC	?CornflowerBlue@Colors@DirectX@@3UXMVECTORF32@2@B ; DirectX::Colors::CornflowerBlue
PUBLIC	?Cornsilk@Colors@DirectX@@3UXMVECTORF32@2@B	; DirectX::Colors::Cornsilk
PUBLIC	?Crimson@Colors@DirectX@@3UXMVECTORF32@2@B	; DirectX::Colors::Crimson
PUBLIC	?Cyan@Colors@DirectX@@3UXMVECTORF32@2@B		; DirectX::Colors::Cyan
PUBLIC	?DarkBlue@Colors@DirectX@@3UXMVECTORF32@2@B	; DirectX::Colors::DarkBlue
PUBLIC	?DarkCyan@Colors@DirectX@@3UXMVECTORF32@2@B	; DirectX::Colors::DarkCyan
PUBLIC	?DarkGoldenrod@Colors@DirectX@@3UXMVECTORF32@2@B ; DirectX::Colors::DarkGoldenrod
PUBLIC	?DarkGray@Colors@DirectX@@3UXMVECTORF32@2@B	; DirectX::Colors::DarkGray
PUBLIC	?DarkGreen@Colors@DirectX@@3UXMVECTORF32@2@B	; DirectX::Colors::DarkGreen
PUBLIC	?DarkKhaki@Colors@DirectX@@3UXMVECTORF32@2@B	; DirectX::Colors::DarkKhaki
PUBLIC	?DarkMagenta@Colors@DirectX@@3UXMVECTORF32@2@B	; DirectX::Colors::DarkMagenta
PUBLIC	?DarkOliveGreen@Colors@DirectX@@3UXMVECTORF32@2@B ; DirectX::Colors::DarkOliveGreen
PUBLIC	?DarkOrange@Colors@DirectX@@3UXMVECTORF32@2@B	; DirectX::Colors::DarkOrange
PUBLIC	?DarkOrchid@Colors@DirectX@@3UXMVECTORF32@2@B	; DirectX::Colors::DarkOrchid
PUBLIC	?DarkRed@Colors@DirectX@@3UXMVECTORF32@2@B	; DirectX::Colors::DarkRed
PUBLIC	?DarkSalmon@Colors@DirectX@@3UXMVECTORF32@2@B	; DirectX::Colors::DarkSalmon
PUBLIC	?DarkSeaGreen@Colors@DirectX@@3UXMVECTORF32@2@B	; DirectX::Colors::DarkSeaGreen
PUBLIC	?DarkSlateBlue@Colors@DirectX@@3UXMVECTORF32@2@B ; DirectX::Colors::DarkSlateBlue
PUBLIC	?DarkSlateGray@Colors@DirectX@@3UXMVECTORF32@2@B ; DirectX::Colors::DarkSlateGray
PUBLIC	?DarkTurquoise@Colors@DirectX@@3UXMVECTORF32@2@B ; DirectX::Colors::DarkTurquoise
PUBLIC	?DarkViolet@Colors@DirectX@@3UXMVECTORF32@2@B	; DirectX::Colors::DarkViolet
PUBLIC	?DeepPink@Colors@DirectX@@3UXMVECTORF32@2@B	; DirectX::Colors::DeepPink
PUBLIC	?DeepSkyBlue@Colors@DirectX@@3UXMVECTORF32@2@B	; DirectX::Colors::DeepSkyBlue
PUBLIC	?DimGray@Colors@DirectX@@3UXMVECTORF32@2@B	; DirectX::Colors::DimGray
PUBLIC	?DodgerBlue@Colors@DirectX@@3UXMVECTORF32@2@B	; DirectX::Colors::DodgerBlue
PUBLIC	?Firebrick@Colors@DirectX@@3UXMVECTORF32@2@B	; DirectX::Colors::Firebrick
PUBLIC	?FloralWhite@Colors@DirectX@@3UXMVECTORF32@2@B	; DirectX::Colors::FloralWhite
PUBLIC	?ForestGreen@Colors@DirectX@@3UXMVECTORF32@2@B	; DirectX::Colors::ForestGreen
PUBLIC	?Fuchsia@Colors@DirectX@@3UXMVECTORF32@2@B	; DirectX::Colors::Fuchsia
PUBLIC	?Gainsboro@Colors@DirectX@@3UXMVECTORF32@2@B	; DirectX::Colors::Gainsboro
PUBLIC	?GhostWhite@Colors@DirectX@@3UXMVECTORF32@2@B	; DirectX::Colors::GhostWhite
PUBLIC	?Gold@Colors@DirectX@@3UXMVECTORF32@2@B		; DirectX::Colors::Gold
PUBLIC	?Goldenrod@Colors@DirectX@@3UXMVECTORF32@2@B	; DirectX::Colors::Goldenrod
PUBLIC	?Gray@Colors@DirectX@@3UXMVECTORF32@2@B		; DirectX::Colors::Gray
PUBLIC	?Green@Colors@DirectX@@3UXMVECTORF32@2@B	; DirectX::Colors::Green
PUBLIC	?GreenYellow@Colors@DirectX@@3UXMVECTORF32@2@B	; DirectX::Colors::GreenYellow
PUBLIC	?Honeydew@Colors@DirectX@@3UXMVECTORF32@2@B	; DirectX::Colors::Honeydew
PUBLIC	?HotPink@Colors@DirectX@@3UXMVECTORF32@2@B	; DirectX::Colors::HotPink
PUBLIC	?IndianRed@Colors@DirectX@@3UXMVECTORF32@2@B	; DirectX::Colors::IndianRed
PUBLIC	?Indigo@Colors@DirectX@@3UXMVECTORF32@2@B	; DirectX::Colors::Indigo
PUBLIC	?Ivory@Colors@DirectX@@3UXMVECTORF32@2@B	; DirectX::Colors::Ivory
PUBLIC	?Khaki@Colors@DirectX@@3UXMVECTORF32@2@B	; DirectX::Colors::Khaki
PUBLIC	?Lavender@Colors@DirectX@@3UXMVECTORF32@2@B	; DirectX::Colors::Lavender
PUBLIC	?LavenderBlush@Colors@DirectX@@3UXMVECTORF32@2@B ; DirectX::Colors::LavenderBlush
PUBLIC	?LawnGreen@Colors@DirectX@@3UXMVECTORF32@2@B	; DirectX::Colors::LawnGreen
PUBLIC	?LemonChiffon@Colors@DirectX@@3UXMVECTORF32@2@B	; DirectX::Colors::LemonChiffon
PUBLIC	?LightBlue@Colors@DirectX@@3UXMVECTORF32@2@B	; DirectX::Colors::LightBlue
PUBLIC	?LightCoral@Colors@DirectX@@3UXMVECTORF32@2@B	; DirectX::Colors::LightCoral
PUBLIC	?LightCyan@Colors@DirectX@@3UXMVECTORF32@2@B	; DirectX::Colors::LightCyan
PUBLIC	?LightGoldenrodYellow@Colors@DirectX@@3UXMVECTORF32@2@B ; DirectX::Colors::LightGoldenrodYellow
PUBLIC	?LightGreen@Colors@DirectX@@3UXMVECTORF32@2@B	; DirectX::Colors::LightGreen
PUBLIC	?LightGray@Colors@DirectX@@3UXMVECTORF32@2@B	; DirectX::Colors::LightGray
PUBLIC	?LightPink@Colors@DirectX@@3UXMVECTORF32@2@B	; DirectX::Colors::LightPink
PUBLIC	?LightSalmon@Colors@DirectX@@3UXMVECTORF32@2@B	; DirectX::Colors::LightSalmon
PUBLIC	?LightSeaGreen@Colors@DirectX@@3UXMVECTORF32@2@B ; DirectX::Colors::LightSeaGreen
PUBLIC	?LightSkyBlue@Colors@DirectX@@3UXMVECTORF32@2@B	; DirectX::Colors::LightSkyBlue
PUBLIC	?LightSlateGray@Colors@DirectX@@3UXMVECTORF32@2@B ; DirectX::Colors::LightSlateGray
PUBLIC	?LightSteelBlue@Colors@DirectX@@3UXMVECTORF32@2@B ; DirectX::Colors::LightSteelBlue
PUBLIC	?LightYellow@Colors@DirectX@@3UXMVECTORF32@2@B	; DirectX::Colors::LightYellow
PUBLIC	?Lime@Colors@DirectX@@3UXMVECTORF32@2@B		; DirectX::Colors::Lime
PUBLIC	?LimeGreen@Colors@DirectX@@3UXMVECTORF32@2@B	; DirectX::Colors::LimeGreen
PUBLIC	?Linen@Colors@DirectX@@3UXMVECTORF32@2@B	; DirectX::Colors::Linen
PUBLIC	?Magenta@Colors@DirectX@@3UXMVECTORF32@2@B	; DirectX::Colors::Magenta
PUBLIC	?Maroon@Colors@DirectX@@3UXMVECTORF32@2@B	; DirectX::Colors::Maroon
PUBLIC	?MediumAquamarine@Colors@DirectX@@3UXMVECTORF32@2@B ; DirectX::Colors::MediumAquamarine
PUBLIC	?MediumBlue@Colors@DirectX@@3UXMVECTORF32@2@B	; DirectX::Colors::MediumBlue
PUBLIC	?MediumOrchid@Colors@DirectX@@3UXMVECTORF32@2@B	; DirectX::Colors::MediumOrchid
PUBLIC	?MediumPurple@Colors@DirectX@@3UXMVECTORF32@2@B	; DirectX::Colors::MediumPurple
PUBLIC	?MediumSeaGreen@Colors@DirectX@@3UXMVECTORF32@2@B ; DirectX::Colors::MediumSeaGreen
PUBLIC	?MediumSlateBlue@Colors@DirectX@@3UXMVECTORF32@2@B ; DirectX::Colors::MediumSlateBlue
PUBLIC	?MediumSpringGreen@Colors@DirectX@@3UXMVECTORF32@2@B ; DirectX::Colors::MediumSpringGreen
PUBLIC	?MediumTurquoise@Colors@DirectX@@3UXMVECTORF32@2@B ; DirectX::Colors::MediumTurquoise
PUBLIC	?MediumVioletRed@Colors@DirectX@@3UXMVECTORF32@2@B ; DirectX::Colors::MediumVioletRed
PUBLIC	?MidnightBlue@Colors@DirectX@@3UXMVECTORF32@2@B	; DirectX::Colors::MidnightBlue
PUBLIC	?MintCream@Colors@DirectX@@3UXMVECTORF32@2@B	; DirectX::Colors::MintCream
PUBLIC	?MistyRose@Colors@DirectX@@3UXMVECTORF32@2@B	; DirectX::Colors::MistyRose
PUBLIC	?Moccasin@Colors@DirectX@@3UXMVECTORF32@2@B	; DirectX::Colors::Moccasin
PUBLIC	?NavajoWhite@Colors@DirectX@@3UXMVECTORF32@2@B	; DirectX::Colors::NavajoWhite
PUBLIC	?Navy@Colors@DirectX@@3UXMVECTORF32@2@B		; DirectX::Colors::Navy
PUBLIC	?OldLace@Colors@DirectX@@3UXMVECTORF32@2@B	; DirectX::Colors::OldLace
PUBLIC	?Olive@Colors@DirectX@@3UXMVECTORF32@2@B	; DirectX::Colors::Olive
PUBLIC	?OliveDrab@Colors@DirectX@@3UXMVECTORF32@2@B	; DirectX::Colors::OliveDrab
PUBLIC	?Orange@Colors@DirectX@@3UXMVECTORF32@2@B	; DirectX::Colors::Orange
PUBLIC	?OrangeRed@Colors@DirectX@@3UXMVECTORF32@2@B	; DirectX::Colors::OrangeRed
PUBLIC	?Orchid@Colors@DirectX@@3UXMVECTORF32@2@B	; DirectX::Colors::Orchid
PUBLIC	?PaleGoldenrod@Colors@DirectX@@3UXMVECTORF32@2@B ; DirectX::Colors::PaleGoldenrod
PUBLIC	?PaleGreen@Colors@DirectX@@3UXMVECTORF32@2@B	; DirectX::Colors::PaleGreen
PUBLIC	?PaleTurquoise@Colors@DirectX@@3UXMVECTORF32@2@B ; DirectX::Colors::PaleTurquoise
PUBLIC	?PaleVioletRed@Colors@DirectX@@3UXMVECTORF32@2@B ; DirectX::Colors::PaleVioletRed
PUBLIC	?PapayaWhip@Colors@DirectX@@3UXMVECTORF32@2@B	; DirectX::Colors::PapayaWhip
PUBLIC	?PeachPuff@Colors@DirectX@@3UXMVECTORF32@2@B	; DirectX::Colors::PeachPuff
PUBLIC	?Peru@Colors@DirectX@@3UXMVECTORF32@2@B		; DirectX::Colors::Peru
PUBLIC	?Pink@Colors@DirectX@@3UXMVECTORF32@2@B		; DirectX::Colors::Pink
PUBLIC	?Plum@Colors@DirectX@@3UXMVECTORF32@2@B		; DirectX::Colors::Plum
PUBLIC	?PowderBlue@Colors@DirectX@@3UXMVECTORF32@2@B	; DirectX::Colors::PowderBlue
PUBLIC	?Purple@Colors@DirectX@@3UXMVECTORF32@2@B	; DirectX::Colors::Purple
PUBLIC	?Red@Colors@DirectX@@3UXMVECTORF32@2@B		; DirectX::Colors::Red
PUBLIC	?RosyBrown@Colors@DirectX@@3UXMVECTORF32@2@B	; DirectX::Colors::RosyBrown
PUBLIC	?RoyalBlue@Colors@DirectX@@3UXMVECTORF32@2@B	; DirectX::Colors::RoyalBlue
PUBLIC	?SaddleBrown@Colors@DirectX@@3UXMVECTORF32@2@B	; DirectX::Colors::SaddleBrown
PUBLIC	?Salmon@Colors@DirectX@@3UXMVECTORF32@2@B	; DirectX::Colors::Salmon
PUBLIC	?SandyBrown@Colors@DirectX@@3UXMVECTORF32@2@B	; DirectX::Colors::SandyBrown
PUBLIC	?SeaGreen@Colors@DirectX@@3UXMVECTORF32@2@B	; DirectX::Colors::SeaGreen
PUBLIC	?SeaShell@Colors@DirectX@@3UXMVECTORF32@2@B	; DirectX::Colors::SeaShell
PUBLIC	?Sienna@Colors@DirectX@@3UXMVECTORF32@2@B	; DirectX::Colors::Sienna
PUBLIC	?g_BoxOffset@DirectX@@3QBUXMVECTORF32@1@B	; DirectX::g_BoxOffset
PUBLIC	?Silver@Colors@DirectX@@3UXMVECTORF32@2@B	; DirectX::Colors::Silver
PUBLIC	?g_RayEpsilon@DirectX@@3UXMVECTORF32@1@B	; DirectX::g_RayEpsilon
PUBLIC	?SkyBlue@Colors@DirectX@@3UXMVECTORF32@2@B	; DirectX::Colors::SkyBlue
PUBLIC	?g_RayNegEpsilon@DirectX@@3UXMVECTORF32@1@B	; DirectX::g_RayNegEpsilon
PUBLIC	?SlateBlue@Colors@DirectX@@3UXMVECTORF32@2@B	; DirectX::Colors::SlateBlue
PUBLIC	?g_FltMin@DirectX@@3UXMVECTORF32@1@B		; DirectX::g_FltMin
PUBLIC	?SlateGray@Colors@DirectX@@3UXMVECTORF32@2@B	; DirectX::Colors::SlateGray
PUBLIC	?g_FltMax@DirectX@@3UXMVECTORF32@1@B		; DirectX::g_FltMax
PUBLIC	?Snow@Colors@DirectX@@3UXMVECTORF32@2@B		; DirectX::Colors::Snow
PUBLIC	?SpringGreen@Colors@DirectX@@3UXMVECTORF32@2@B	; DirectX::Colors::SpringGreen
PUBLIC	?SteelBlue@Colors@DirectX@@3UXMVECTORF32@2@B	; DirectX::Colors::SteelBlue
PUBLIC	?Tan@Colors@DirectX@@3UXMVECTORF32@2@B		; DirectX::Colors::Tan
PUBLIC	?Teal@Colors@DirectX@@3UXMVECTORF32@2@B		; DirectX::Colors::Teal
PUBLIC	?Thistle@Colors@DirectX@@3UXMVECTORF32@2@B	; DirectX::Colors::Thistle
PUBLIC	?Tomato@Colors@DirectX@@3UXMVECTORF32@2@B	; DirectX::Colors::Tomato
PUBLIC	?Transparent@Colors@DirectX@@3UXMVECTORF32@2@B	; DirectX::Colors::Transparent
PUBLIC	?Turquoise@Colors@DirectX@@3UXMVECTORF32@2@B	; DirectX::Colors::Turquoise
PUBLIC	?Violet@Colors@DirectX@@3UXMVECTORF32@2@B	; DirectX::Colors::Violet
PUBLIC	?Wheat@Colors@DirectX@@3UXMVECTORF32@2@B	; DirectX::Colors::Wheat
PUBLIC	?White@Colors@DirectX@@3UXMVECTORF32@2@B	; DirectX::Colors::White
PUBLIC	?WhiteSmoke@Colors@DirectX@@3UXMVECTORF32@2@B	; DirectX::Colors::WhiteSmoke
PUBLIC	?Yellow@Colors@DirectX@@3UXMVECTORF32@2@B	; DirectX::Colors::Yellow
PUBLIC	?YellowGreen@Colors@DirectX@@3UXMVECTORF32@2@B	; DirectX::Colors::YellowGreen
PUBLIC	?g_UnitVectorEpsilon@Internal@DirectX@@3UXMVECTORF32@2@B ; DirectX::Internal::g_UnitVectorEpsilon
PUBLIC	?g_UnitQuaternionEpsilon@Internal@DirectX@@3UXMVECTORF32@2@B ; DirectX::Internal::g_UnitQuaternionEpsilon
PUBLIC	?g_UnitPlaneEpsilon@Internal@DirectX@@3UXMVECTORF32@2@B ; DirectX::Internal::g_UnitPlaneEpsilon
PUBLIC	?g_XMSinCoefficients0@DirectX@@3UXMVECTORF32@1@B ; DirectX::g_XMSinCoefficients0
PUBLIC	?g_XMSinCoefficients1@DirectX@@3UXMVECTORF32@1@B ; DirectX::g_XMSinCoefficients1
PUBLIC	?g_XMCosCoefficients0@DirectX@@3UXMVECTORF32@1@B ; DirectX::g_XMCosCoefficients0
PUBLIC	?g_XMCosCoefficients1@DirectX@@3UXMVECTORF32@1@B ; DirectX::g_XMCosCoefficients1
PUBLIC	?g_XMTanCoefficients0@DirectX@@3UXMVECTORF32@1@B ; DirectX::g_XMTanCoefficients0
PUBLIC	?g_XMTanCoefficients1@DirectX@@3UXMVECTORF32@1@B ; DirectX::g_XMTanCoefficients1
PUBLIC	?g_XMTanCoefficients2@DirectX@@3UXMVECTORF32@1@B ; DirectX::g_XMTanCoefficients2
PUBLIC	?g_XMArcCoefficients0@DirectX@@3UXMVECTORF32@1@B ; DirectX::g_XMArcCoefficients0
PUBLIC	?g_XMArcCoefficients1@DirectX@@3UXMVECTORF32@1@B ; DirectX::g_XMArcCoefficients1
PUBLIC	?g_XMATanCoefficients0@DirectX@@3UXMVECTORF32@1@B ; DirectX::g_XMATanCoefficients0
PUBLIC	?g_XMATanCoefficients1@DirectX@@3UXMVECTORF32@1@B ; DirectX::g_XMATanCoefficients1
PUBLIC	?g_XMATanEstCoefficients0@DirectX@@3UXMVECTORF32@1@B ; DirectX::g_XMATanEstCoefficients0
PUBLIC	?g_XMATanEstCoefficients1@DirectX@@3UXMVECTORF32@1@B ; DirectX::g_XMATanEstCoefficients1
PUBLIC	?g_XMTanEstCoefficients@DirectX@@3UXMVECTORF32@1@B ; DirectX::g_XMTanEstCoefficients
PUBLIC	?g_XMArcEstCoefficients@DirectX@@3UXMVECTORF32@1@B ; DirectX::g_XMArcEstCoefficients
PUBLIC	?g_XMPiConstants0@DirectX@@3UXMVECTORF32@1@B	; DirectX::g_XMPiConstants0
PUBLIC	?g_XMIdentityR0@DirectX@@3UXMVECTORF32@1@B	; DirectX::g_XMIdentityR0
PUBLIC	?g_XMIdentityR1@DirectX@@3UXMVECTORF32@1@B	; DirectX::g_XMIdentityR1
PUBLIC	?g_XMIdentityR2@DirectX@@3UXMVECTORF32@1@B	; DirectX::g_XMIdentityR2
PUBLIC	?g_XMIdentityR3@DirectX@@3UXMVECTORF32@1@B	; DirectX::g_XMIdentityR3
PUBLIC	?g_XMNegIdentityR0@DirectX@@3UXMVECTORF32@1@B	; DirectX::g_XMNegIdentityR0
PUBLIC	?g_XMNegIdentityR1@DirectX@@3UXMVECTORF32@1@B	; DirectX::g_XMNegIdentityR1
PUBLIC	?g_XMNegIdentityR2@DirectX@@3UXMVECTORF32@1@B	; DirectX::g_XMNegIdentityR2
PUBLIC	?g_XMNegIdentityR3@DirectX@@3UXMVECTORF32@1@B	; DirectX::g_XMNegIdentityR3
PUBLIC	?g_XMNegativeZero@DirectX@@3UXMVECTORU32@1@B	; DirectX::g_XMNegativeZero
PUBLIC	?g_XMNegate3@DirectX@@3UXMVECTORU32@1@B		; DirectX::g_XMNegate3
PUBLIC	?g_XMMask3@DirectX@@3UXMVECTORU32@1@B		; DirectX::g_XMMask3
PUBLIC	?g_XMMaskX@DirectX@@3UXMVECTORU32@1@B		; DirectX::g_XMMaskX
PUBLIC	?g_XMMaskY@DirectX@@3UXMVECTORU32@1@B		; DirectX::g_XMMaskY
PUBLIC	?g_XMMaskZ@DirectX@@3UXMVECTORU32@1@B		; DirectX::g_XMMaskZ
PUBLIC	?g_XMMaskW@DirectX@@3UXMVECTORU32@1@B		; DirectX::g_XMMaskW
PUBLIC	?g_XMOne@DirectX@@3UXMVECTORF32@1@B		; DirectX::g_XMOne
PUBLIC	?g_XMOne3@DirectX@@3UXMVECTORF32@1@B		; DirectX::g_XMOne3
PUBLIC	?g_XMZero@DirectX@@3UXMVECTORF32@1@B		; DirectX::g_XMZero
PUBLIC	?g_XMTwo@DirectX@@3UXMVECTORF32@1@B		; DirectX::g_XMTwo
PUBLIC	?g_XMFour@DirectX@@3UXMVECTORF32@1@B		; DirectX::g_XMFour
PUBLIC	?g_XMSix@DirectX@@3UXMVECTORF32@1@B		; DirectX::g_XMSix
PUBLIC	?g_XMNegativeOne@DirectX@@3UXMVECTORF32@1@B	; DirectX::g_XMNegativeOne
PUBLIC	?g_XMOneHalf@DirectX@@3UXMVECTORF32@1@B		; DirectX::g_XMOneHalf
PUBLIC	?g_XMNegativeOneHalf@DirectX@@3UXMVECTORF32@1@B	; DirectX::g_XMNegativeOneHalf
PUBLIC	?g_XMNegativeTwoPi@DirectX@@3UXMVECTORF32@1@B	; DirectX::g_XMNegativeTwoPi
PUBLIC	?g_XMNegativePi@DirectX@@3UXMVECTORF32@1@B	; DirectX::g_XMNegativePi
PUBLIC	?g_XMHalfPi@DirectX@@3UXMVECTORF32@1@B		; DirectX::g_XMHalfPi
PUBLIC	?g_XMPi@DirectX@@3UXMVECTORF32@1@B		; DirectX::g_XMPi
PUBLIC	?g_XMReciprocalPi@DirectX@@3UXMVECTORF32@1@B	; DirectX::g_XMReciprocalPi
PUBLIC	?g_XMTwoPi@DirectX@@3UXMVECTORF32@1@B		; DirectX::g_XMTwoPi
PUBLIC	?g_XMReciprocalTwoPi@DirectX@@3UXMVECTORF32@1@B	; DirectX::g_XMReciprocalTwoPi
PUBLIC	?g_XMEpsilon@DirectX@@3UXMVECTORF32@1@B		; DirectX::g_XMEpsilon
PUBLIC	?g_XMInfinity@DirectX@@3UXMVECTORI32@1@B	; DirectX::g_XMInfinity
PUBLIC	?g_XMQNaN@DirectX@@3UXMVECTORI32@1@B		; DirectX::g_XMQNaN
PUBLIC	?g_XMQNaNTest@DirectX@@3UXMVECTORI32@1@B	; DirectX::g_XMQNaNTest
PUBLIC	?g_XMAbsMask@DirectX@@3UXMVECTORI32@1@B		; DirectX::g_XMAbsMask
PUBLIC	?g_XMFltMin@DirectX@@3UXMVECTORI32@1@B		; DirectX::g_XMFltMin
PUBLIC	?g_XMFltMax@DirectX@@3UXMVECTORI32@1@B		; DirectX::g_XMFltMax
PUBLIC	?g_XMNegOneMask@DirectX@@3UXMVECTORU32@1@B	; DirectX::g_XMNegOneMask
PUBLIC	?g_XMMaskA8R8G8B8@DirectX@@3UXMVECTORU32@1@B	; DirectX::g_XMMaskA8R8G8B8
PUBLIC	?g_XMFlipA8R8G8B8@DirectX@@3UXMVECTORU32@1@B	; DirectX::g_XMFlipA8R8G8B8
PUBLIC	?g_XMFixAA8R8G8B8@DirectX@@3UXMVECTORF32@1@B	; DirectX::g_XMFixAA8R8G8B8
PUBLIC	?g_XMNormalizeA8R8G8B8@DirectX@@3UXMVECTORF32@1@B ; DirectX::g_XMNormalizeA8R8G8B8
PUBLIC	?g_XMMaskA2B10G10R10@DirectX@@3UXMVECTORU32@1@B	; DirectX::g_XMMaskA2B10G10R10
PUBLIC	?g_XMFlipA2B10G10R10@DirectX@@3UXMVECTORU32@1@B	; DirectX::g_XMFlipA2B10G10R10
PUBLIC	?g_XMFixAA2B10G10R10@DirectX@@3UXMVECTORF32@1@B	; DirectX::g_XMFixAA2B10G10R10
PUBLIC	?g_XMNormalizeA2B10G10R10@DirectX@@3UXMVECTORF32@1@B ; DirectX::g_XMNormalizeA2B10G10R10
PUBLIC	?g_XMMaskX16Y16@DirectX@@3UXMVECTORU32@1@B	; DirectX::g_XMMaskX16Y16
PUBLIC	?g_XMFlipX16Y16@DirectX@@3UXMVECTORI32@1@B	; DirectX::g_XMFlipX16Y16
PUBLIC	?g_XMFixX16Y16@DirectX@@3UXMVECTORF32@1@B	; DirectX::g_XMFixX16Y16
PUBLIC	?g_XMNormalizeX16Y16@DirectX@@3UXMVECTORF32@1@B	; DirectX::g_XMNormalizeX16Y16
PUBLIC	?g_XMMaskX16Y16Z16W16@DirectX@@3UXMVECTORU32@1@B ; DirectX::g_XMMaskX16Y16Z16W16
PUBLIC	?g_XMFlipX16Y16Z16W16@DirectX@@3UXMVECTORI32@1@B ; DirectX::g_XMFlipX16Y16Z16W16
PUBLIC	?g_XMFixX16Y16Z16W16@DirectX@@3UXMVECTORF32@1@B	; DirectX::g_XMFixX16Y16Z16W16
PUBLIC	?g_XMNormalizeX16Y16Z16W16@DirectX@@3UXMVECTORF32@1@B ; DirectX::g_XMNormalizeX16Y16Z16W16
PUBLIC	?g_XMNoFraction@DirectX@@3UXMVECTORF32@1@B	; DirectX::g_XMNoFraction
PUBLIC	?g_XMMaskByte@DirectX@@3UXMVECTORI32@1@B	; DirectX::g_XMMaskByte
PUBLIC	?g_XMNegateX@DirectX@@3UXMVECTORF32@1@B		; DirectX::g_XMNegateX
PUBLIC	?g_XMNegateY@DirectX@@3UXMVECTORF32@1@B		; DirectX::g_XMNegateY
PUBLIC	?g_XMNegateZ@DirectX@@3UXMVECTORF32@1@B		; DirectX::g_XMNegateZ
PUBLIC	?g_XMNegateW@DirectX@@3UXMVECTORF32@1@B		; DirectX::g_XMNegateW
PUBLIC	?g_XMSelect0101@DirectX@@3UXMVECTORU32@1@B	; DirectX::g_XMSelect0101
PUBLIC	?g_XMSelect1010@DirectX@@3UXMVECTORU32@1@B	; DirectX::g_XMSelect1010
PUBLIC	?g_XMOneHalfMinusEpsilon@DirectX@@3UXMVECTORI32@1@B ; DirectX::g_XMOneHalfMinusEpsilon
PUBLIC	?g_XMSelect1000@DirectX@@3UXMVECTORU32@1@B	; DirectX::g_XMSelect1000
PUBLIC	?g_XMSelect1100@DirectX@@3UXMVECTORU32@1@B	; DirectX::g_XMSelect1100
PUBLIC	?g_XMSelect1110@DirectX@@3UXMVECTORU32@1@B	; DirectX::g_XMSelect1110
PUBLIC	?g_XMSelect1011@DirectX@@3UXMVECTORU32@1@B	; DirectX::g_XMSelect1011
PUBLIC	?g_XMFixupY16@DirectX@@3UXMVECTORF32@1@B	; DirectX::g_XMFixupY16
PUBLIC	?g_XMFixupY16W16@DirectX@@3UXMVECTORF32@1@B	; DirectX::g_XMFixupY16W16
PUBLIC	?g_XMFlipY@DirectX@@3UXMVECTORU32@1@B		; DirectX::g_XMFlipY
PUBLIC	?g_XMFlipZ@DirectX@@3UXMVECTORU32@1@B		; DirectX::g_XMFlipZ
PUBLIC	?g_XMFlipW@DirectX@@3UXMVECTORU32@1@B		; DirectX::g_XMFlipW
PUBLIC	?g_XMFlipYZ@DirectX@@3UXMVECTORU32@1@B		; DirectX::g_XMFlipYZ
PUBLIC	?g_XMFlipZW@DirectX@@3UXMVECTORU32@1@B		; DirectX::g_XMFlipZW
PUBLIC	?g_XMFlipYW@DirectX@@3UXMVECTORU32@1@B		; DirectX::g_XMFlipYW
PUBLIC	?g_XMMaskDec4@DirectX@@3UXMVECTORI32@1@B	; DirectX::g_XMMaskDec4
PUBLIC	?g_XMXorDec4@DirectX@@3UXMVECTORI32@1@B		; DirectX::g_XMXorDec4
PUBLIC	?g_XMAddUDec4@DirectX@@3UXMVECTORF32@1@B	; DirectX::g_XMAddUDec4
PUBLIC	?g_XMAddDec4@DirectX@@3UXMVECTORF32@1@B		; DirectX::g_XMAddDec4
PUBLIC	?g_XMMulDec4@DirectX@@3UXMVECTORF32@1@B		; DirectX::g_XMMulDec4
PUBLIC	?g_XMMaskByte4@DirectX@@3UXMVECTORU32@1@B	; DirectX::g_XMMaskByte4
PUBLIC	?g_XMXorByte4@DirectX@@3UXMVECTORI32@1@B	; DirectX::g_XMXorByte4
PUBLIC	?g_XMAddByte4@DirectX@@3UXMVECTORF32@1@B	; DirectX::g_XMAddByte4
PUBLIC	?g_XMFixUnsigned@DirectX@@3UXMVECTORF32@1@B	; DirectX::g_XMFixUnsigned
PUBLIC	?g_XMMaxInt@DirectX@@3UXMVECTORF32@1@B		; DirectX::g_XMMaxInt
PUBLIC	?g_XMMaxUInt@DirectX@@3UXMVECTORF32@1@B		; DirectX::g_XMMaxUInt
PUBLIC	?g_XMUnsignedFix@DirectX@@3UXMVECTORF32@1@B	; DirectX::g_XMUnsignedFix
PUBLIC	?g_XMsrgbScale@DirectX@@3UXMVECTORF32@1@B	; DirectX::g_XMsrgbScale
PUBLIC	?g_XMsrgbA@DirectX@@3UXMVECTORF32@1@B		; DirectX::g_XMsrgbA
PUBLIC	?g_XMsrgbA1@DirectX@@3UXMVECTORF32@1@B		; DirectX::g_XMsrgbA1
PUBLIC	?g_XMExponentBias@DirectX@@3UXMVECTORI32@1@B	; DirectX::g_XMExponentBias
PUBLIC	?g_XMSubnormalExponent@DirectX@@3UXMVECTORI32@1@B ; DirectX::g_XMSubnormalExponent
PUBLIC	?g_XMNumTrailing@DirectX@@3UXMVECTORI32@1@B	; DirectX::g_XMNumTrailing
PUBLIC	?g_XMMinNormal@DirectX@@3UXMVECTORI32@1@B	; DirectX::g_XMMinNormal
PUBLIC	?g_XMNegInfinity@DirectX@@3UXMVECTORU32@1@B	; DirectX::g_XMNegInfinity
PUBLIC	?g_XMNegQNaN@DirectX@@3UXMVECTORU32@1@B		; DirectX::g_XMNegQNaN
PUBLIC	?g_XMBin128@DirectX@@3UXMVECTORI32@1@B		; DirectX::g_XMBin128
PUBLIC	?g_XMBinNeg150@DirectX@@3UXMVECTORU32@1@B	; DirectX::g_XMBinNeg150
PUBLIC	?g_XM253@DirectX@@3UXMVECTORI32@1@B		; DirectX::g_XM253
PUBLIC	?g_XMExpEst1@DirectX@@3UXMVECTORF32@1@B		; DirectX::g_XMExpEst1
PUBLIC	?g_XMExpEst2@DirectX@@3UXMVECTORF32@1@B		; DirectX::g_XMExpEst2
PUBLIC	?g_XMExpEst3@DirectX@@3UXMVECTORF32@1@B		; DirectX::g_XMExpEst3
PUBLIC	?g_XMExpEst4@DirectX@@3UXMVECTORF32@1@B		; DirectX::g_XMExpEst4
PUBLIC	?g_XMExpEst5@DirectX@@3UXMVECTORF32@1@B		; DirectX::g_XMExpEst5
PUBLIC	?g_XMExpEst6@DirectX@@3UXMVECTORF32@1@B		; DirectX::g_XMExpEst6
PUBLIC	?g_XMExpEst7@DirectX@@3UXMVECTORF32@1@B		; DirectX::g_XMExpEst7
PUBLIC	?g_XMLogEst0@DirectX@@3UXMVECTORF32@1@B		; DirectX::g_XMLogEst0
PUBLIC	?g_XMLogEst1@DirectX@@3UXMVECTORF32@1@B		; DirectX::g_XMLogEst1
PUBLIC	?g_XMLogEst2@DirectX@@3UXMVECTORF32@1@B		; DirectX::g_XMLogEst2
PUBLIC	?g_XMLogEst3@DirectX@@3UXMVECTORF32@1@B		; DirectX::g_XMLogEst3
PUBLIC	?g_XMLogEst4@DirectX@@3UXMVECTORF32@1@B		; DirectX::g_XMLogEst4
PUBLIC	?g_XMLogEst5@DirectX@@3UXMVECTORF32@1@B		; DirectX::g_XMLogEst5
PUBLIC	?g_XMLogEst6@DirectX@@3UXMVECTORF32@1@B		; DirectX::g_XMLogEst6
PUBLIC	?g_XMLogEst7@DirectX@@3UXMVECTORF32@1@B		; DirectX::g_XMLogEst7
PUBLIC	?g_XMLgE@DirectX@@3UXMVECTORF32@1@B		; DirectX::g_XMLgE
PUBLIC	?g_XMInvLgE@DirectX@@3UXMVECTORF32@1@B		; DirectX::g_XMInvLgE
_BSS	SEGMENT
?szTitle@@3PA_WA DW 064H DUP (?)			; szTitle
?szWindowClass@@3PA_WA DW 064H DUP (?)			; szWindowClass
?g_hInst@@3PEAUHINSTANCE__@@EA DQ 01H DUP (?)		; g_hInst
?g_hWnd@@3PEAUHWND__@@EA DQ 01H DUP (?)			; g_hWnd
_BSS	ENDS
;	COMDAT ?g_XMInvLgE@DirectX@@3UXMVECTORF32@1@B
CONST	SEGMENT
?g_XMInvLgE@DirectX@@3UXMVECTORF32@1@B DD 03f317218r ; 0.693147 ; DirectX::g_XMInvLgE
	DD	03f317218r			; 0.693147
	DD	03f317218r			; 0.693147
	DD	03f317218r			; 0.693147
CONST	ENDS
;	COMDAT ?g_XMLgE@DirectX@@3UXMVECTORF32@1@B
CONST	SEGMENT
?g_XMLgE@DirectX@@3UXMVECTORF32@1@B DD 03fb8aa3br ; 1.4427 ; DirectX::g_XMLgE
	DD	03fb8aa3br			; 1.4427
	DD	03fb8aa3br			; 1.4427
	DD	03fb8aa3br			; 1.4427
CONST	ENDS
;	COMDAT ?g_XMLogEst7@DirectX@@3UXMVECTORF32@1@B
CONST	SEGMENT
?g_XMLogEst7@DirectX@@3UXMVECTORF32@1@B DD 0bc2d4f59r ; -0.010578 ; DirectX::g_XMLogEst7
	DD	0bc2d4f59r			; -0.010578
	DD	0bc2d4f59r			; -0.010578
	DD	0bc2d4f59r			; -0.010578
CONST	ENDS
;	COMDAT ?g_XMLogEst6@DirectX@@3UXMVECTORF32@1@B
CONST	SEGMENT
?g_XMLogEst6@DirectX@@3UXMVECTORF32@1@B DD 03d6a1405r ; 0.057148 ; DirectX::g_XMLogEst6
	DD	03d6a1405r			; 0.057148
	DD	03d6a1405r			; 0.057148
	DD	03d6a1405r			; 0.057148
CONST	ENDS
;	COMDAT ?g_XMLogEst5@DirectX@@3UXMVECTORF32@1@B
CONST	SEGMENT
?g_XMLogEst5@DirectX@@3UXMVECTORF32@1@B DD 0be153261r ; -0.1457 ; DirectX::g_XMLogEst5
	DD	0be153261r			; -0.1457
	DD	0be153261r			; -0.1457
	DD	0be153261r			; -0.1457
CONST	ENDS
;	COMDAT ?g_XMLogEst4@DirectX@@3UXMVECTORF32@1@B
CONST	SEGMENT
?g_XMLogEst4@DirectX@@3UXMVECTORF32@1@B DD 03e7e8e61r ; 0.24859 ; DirectX::g_XMLogEst4
	DD	03e7e8e61r			; 0.24859
	DD	03e7e8e61r			; 0.24859
	DD	03e7e8e61r			; 0.24859
CONST	ENDS
;	COMDAT ?g_XMLogEst3@DirectX@@3UXMVECTORF32@1@B
CONST	SEGMENT
?g_XMLogEst3@DirectX@@3UXMVECTORF32@1@B DD 0beb359der ; -0.350295 ; DirectX::g_XMLogEst3
	DD	0beb359der			; -0.350295
	DD	0beb359der			; -0.350295
	DD	0beb359der			; -0.350295
CONST	ENDS
;	COMDAT ?g_XMLogEst2@DirectX@@3UXMVECTORF32@1@B
CONST	SEGMENT
?g_XMLogEst2@DirectX@@3UXMVECTORF32@1@B DD 03ef571d2r ; 0.479384 ; DirectX::g_XMLogEst2
	DD	03ef571d2r			; 0.479384
	DD	03ef571d2r			; 0.479384
	DD	03ef571d2r			; 0.479384
CONST	ENDS
;	COMDAT ?g_XMLogEst1@DirectX@@3UXMVECTORF32@1@B
CONST	SEGMENT
?g_XMLogEst1@DirectX@@3UXMVECTORF32@1@B DD 0bf38a351r ; -0.721242 ; DirectX::g_XMLogEst1
	DD	0bf38a351r			; -0.721242
	DD	0bf38a351r			; -0.721242
	DD	0bf38a351r			; -0.721242
CONST	ENDS
;	COMDAT ?g_XMLogEst0@DirectX@@3UXMVECTORF32@1@B
CONST	SEGMENT
?g_XMLogEst0@DirectX@@3UXMVECTORF32@1@B DD 03fb8aa2ar ; 1.44269 ; DirectX::g_XMLogEst0
	DD	03fb8aa2ar			; 1.44269
	DD	03fb8aa2ar			; 1.44269
	DD	03fb8aa2ar			; 1.44269
CONST	ENDS
;	COMDAT ?g_XMExpEst7@DirectX@@3UXMVECTORF32@1@B
CONST	SEGMENT
?g_XMExpEst7@DirectX@@3UXMVECTORF32@1@B DD 0b7364261r ; -1.08635e-05 ; DirectX::g_XMExpEst7
	DD	0b7364261r			; -1.08635e-05
	DD	0b7364261r			; -1.08635e-05
	DD	0b7364261r			; -1.08635e-05
CONST	ENDS
;	COMDAT ?g_XMExpEst6@DirectX@@3UXMVECTORF32@1@B
CONST	SEGMENT
?g_XMExpEst6@DirectX@@3UXMVECTORF32@1@B DD 0391aa7d7r ; 0.000147491 ; DirectX::g_XMExpEst6
	DD	0391aa7d7r			; 0.000147491
	DD	0391aa7d7r			; 0.000147491
	DD	0391aa7d7r			; 0.000147491
CONST	ENDS
;	COMDAT ?g_XMExpEst5@DirectX@@3UXMVECTORF32@1@B
CONST	SEGMENT
?g_XMExpEst5@DirectX@@3UXMVECTORF32@1@B DD 0baae1854r ; -0.00132824 ; DirectX::g_XMExpEst5
	DD	0baae1854r			; -0.00132824
	DD	0baae1854r			; -0.00132824
	DD	0baae1854r			; -0.00132824
CONST	ENDS
;	COMDAT ?g_XMExpEst4@DirectX@@3UXMVECTORF32@1@B
CONST	SEGMENT
?g_XMExpEst4@DirectX@@3UXMVECTORF32@1@B DD 03c1d8c54r ; 0.00961598 ; DirectX::g_XMExpEst4
	DD	03c1d8c54r			; 0.00961598
	DD	03c1d8c54r			; 0.00961598
	DD	03c1d8c54r			; 0.00961598
CONST	ENDS
;	COMDAT ?g_XMExpEst3@DirectX@@3UXMVECTORF32@1@B
CONST	SEGMENT
?g_XMExpEst3@DirectX@@3UXMVECTORF32@1@B DD 0bd6357car ; -0.0555036 ; DirectX::g_XMExpEst3
	DD	0bd6357car			; -0.0555036
	DD	0bd6357car			; -0.0555036
	DD	0bd6357car			; -0.0555036
CONST	ENDS
;	COMDAT ?g_XMExpEst2@DirectX@@3UXMVECTORF32@1@B
CONST	SEGMENT
?g_XMExpEst2@DirectX@@3UXMVECTORF32@1@B DD 03e75fdedr ; 0.240226 ; DirectX::g_XMExpEst2
	DD	03e75fdedr			; 0.240226
	DD	03e75fdedr			; 0.240226
	DD	03e75fdedr			; 0.240226
CONST	ENDS
;	COMDAT ?g_XMExpEst1@DirectX@@3UXMVECTORF32@1@B
CONST	SEGMENT
?g_XMExpEst1@DirectX@@3UXMVECTORF32@1@B DD 0bf317218r ; -0.693147 ; DirectX::g_XMExpEst1
	DD	0bf317218r			; -0.693147
	DD	0bf317218r			; -0.693147
	DD	0bf317218r			; -0.693147
CONST	ENDS
;	COMDAT ?g_XM253@DirectX@@3UXMVECTORI32@1@B
CONST	SEGMENT
?g_XM253@DirectX@@3UXMVECTORI32@1@B DD 0fdH		; DirectX::g_XM253
	DD	0fdH
	DD	0fdH
	DD	0fdH
CONST	ENDS
;	COMDAT ?g_XMBinNeg150@DirectX@@3UXMVECTORU32@1@B
CONST	SEGMENT
?g_XMBinNeg150@DirectX@@3UXMVECTORU32@1@B DD 0c3160000H	; DirectX::g_XMBinNeg150
	DD	0c3160000H
	DD	0c3160000H
	DD	0c3160000H
CONST	ENDS
;	COMDAT ?g_XMBin128@DirectX@@3UXMVECTORI32@1@B
CONST	SEGMENT
?g_XMBin128@DirectX@@3UXMVECTORI32@1@B DD 043000000H	; DirectX::g_XMBin128
	DD	043000000H
	DD	043000000H
	DD	043000000H
CONST	ENDS
;	COMDAT ?g_XMNegQNaN@DirectX@@3UXMVECTORU32@1@B
CONST	SEGMENT
?g_XMNegQNaN@DirectX@@3UXMVECTORU32@1@B DD 0ffc00000H	; DirectX::g_XMNegQNaN
	DD	0ffc00000H
	DD	0ffc00000H
	DD	0ffc00000H
CONST	ENDS
;	COMDAT ?g_XMNegInfinity@DirectX@@3UXMVECTORU32@1@B
CONST	SEGMENT
?g_XMNegInfinity@DirectX@@3UXMVECTORU32@1@B DD 0ff800000H ; DirectX::g_XMNegInfinity
	DD	0ff800000H
	DD	0ff800000H
	DD	0ff800000H
CONST	ENDS
;	COMDAT ?g_XMMinNormal@DirectX@@3UXMVECTORI32@1@B
CONST	SEGMENT
?g_XMMinNormal@DirectX@@3UXMVECTORI32@1@B DD 0800000H	; DirectX::g_XMMinNormal
	DD	0800000H
	DD	0800000H
	DD	0800000H
CONST	ENDS
;	COMDAT ?g_XMNumTrailing@DirectX@@3UXMVECTORI32@1@B
CONST	SEGMENT
?g_XMNumTrailing@DirectX@@3UXMVECTORI32@1@B DD 017H	; DirectX::g_XMNumTrailing
	DD	017H
	DD	017H
	DD	017H
CONST	ENDS
;	COMDAT ?g_XMSubnormalExponent@DirectX@@3UXMVECTORI32@1@B
CONST	SEGMENT
?g_XMSubnormalExponent@DirectX@@3UXMVECTORI32@1@B DD 0ffffff82H ; DirectX::g_XMSubnormalExponent
	DD	0ffffff82H
	DD	0ffffff82H
	DD	0ffffff82H
CONST	ENDS
;	COMDAT ?g_XMExponentBias@DirectX@@3UXMVECTORI32@1@B
CONST	SEGMENT
?g_XMExponentBias@DirectX@@3UXMVECTORI32@1@B DD 07fH	; DirectX::g_XMExponentBias
	DD	07fH
	DD	07fH
	DD	07fH
CONST	ENDS
;	COMDAT ?g_XMsrgbA1@DirectX@@3UXMVECTORF32@1@B
CONST	SEGMENT
?g_XMsrgbA1@DirectX@@3UXMVECTORF32@1@B DD 03f870a3dr ; 1.055 ; DirectX::g_XMsrgbA1
	DD	03f870a3dr			; 1.055
	DD	03f870a3dr			; 1.055
	DD	03f800000r			; 1
CONST	ENDS
;	COMDAT ?g_XMsrgbA@DirectX@@3UXMVECTORF32@1@B
CONST	SEGMENT
?g_XMsrgbA@DirectX@@3UXMVECTORF32@1@B DD 03d6147aer ; 0.055 ; DirectX::g_XMsrgbA
	DD	03d6147aer			; 0.055
	DD	03d6147aer			; 0.055
	DD	000000000r			; 0
CONST	ENDS
;	COMDAT ?g_XMsrgbScale@DirectX@@3UXMVECTORF32@1@B
CONST	SEGMENT
?g_XMsrgbScale@DirectX@@3UXMVECTORF32@1@B DD 0414eb852r ; 12.92 ; DirectX::g_XMsrgbScale
	DD	0414eb852r			; 12.92
	DD	0414eb852r			; 12.92
	DD	03f800000r			; 1
CONST	ENDS
;	COMDAT ?g_XMUnsignedFix@DirectX@@3UXMVECTORF32@1@B
CONST	SEGMENT
?g_XMUnsignedFix@DirectX@@3UXMVECTORF32@1@B DD 04f000000r ; 2.14748e+09 ; DirectX::g_XMUnsignedFix
	DD	04f000000r			; 2.14748e+09
	DD	04f000000r			; 2.14748e+09
	DD	04f000000r			; 2.14748e+09
CONST	ENDS
;	COMDAT ?g_XMMaxUInt@DirectX@@3UXMVECTORF32@1@B
CONST	SEGMENT
?g_XMMaxUInt@DirectX@@3UXMVECTORF32@1@B DD 04f7fffffr ; 4.29497e+09 ; DirectX::g_XMMaxUInt
	DD	04f7fffffr			; 4.29497e+09
	DD	04f7fffffr			; 4.29497e+09
	DD	04f7fffffr			; 4.29497e+09
CONST	ENDS
;	COMDAT ?g_XMMaxInt@DirectX@@3UXMVECTORF32@1@B
CONST	SEGMENT
?g_XMMaxInt@DirectX@@3UXMVECTORF32@1@B DD 04effffffr ; 2.14748e+09 ; DirectX::g_XMMaxInt
	DD	04effffffr			; 2.14748e+09
	DD	04effffffr			; 2.14748e+09
	DD	04effffffr			; 2.14748e+09
CONST	ENDS
;	COMDAT ?g_XMFixUnsigned@DirectX@@3UXMVECTORF32@1@B
CONST	SEGMENT
?g_XMFixUnsigned@DirectX@@3UXMVECTORF32@1@B DD 04f000000r ; 2.14748e+09 ; DirectX::g_XMFixUnsigned
	DD	04f000000r			; 2.14748e+09
	DD	04f000000r			; 2.14748e+09
	DD	04f000000r			; 2.14748e+09
CONST	ENDS
;	COMDAT ?g_XMAddByte4@DirectX@@3UXMVECTORF32@1@B
CONST	SEGMENT
?g_XMAddByte4@DirectX@@3UXMVECTORF32@1@B DD 0c3000000r ; -128 ; DirectX::g_XMAddByte4
	DD	0c7000000r			; -32768
	DD	0cb000000r			; -8.38861e+06
	DD	000000000r			; 0
CONST	ENDS
;	COMDAT ?g_XMXorByte4@DirectX@@3UXMVECTORI32@1@B
CONST	SEGMENT
?g_XMXorByte4@DirectX@@3UXMVECTORI32@1@B DD 080H	; DirectX::g_XMXorByte4
	DD	08000H
	DD	0800000H
	DD	00H
CONST	ENDS
;	COMDAT ?g_XMMaskByte4@DirectX@@3UXMVECTORU32@1@B
CONST	SEGMENT
?g_XMMaskByte4@DirectX@@3UXMVECTORU32@1@B DD 0ffH	; DirectX::g_XMMaskByte4
	DD	0ff00H
	DD	0ff0000H
	DD	0ff000000H
CONST	ENDS
;	COMDAT ?g_XMMulDec4@DirectX@@3UXMVECTORF32@1@B
CONST	SEGMENT
?g_XMMulDec4@DirectX@@3UXMVECTORF32@1@B DD 03f800000r ; 1 ; DirectX::g_XMMulDec4
	DD	03a800000r			; 0.000976563
	DD	035800000r			; 9.53674e-07
	DD	030800000r			; 9.31323e-10
CONST	ENDS
;	COMDAT ?g_XMAddDec4@DirectX@@3UXMVECTORF32@1@B
CONST	SEGMENT
?g_XMAddDec4@DirectX@@3UXMVECTORF32@1@B DD 0c4000000r ; -512 ; DirectX::g_XMAddDec4
	DD	0c9000000r			; -524288
	DD	0ce000000r			; -5.36871e+08
	DD	000000000r			; 0
CONST	ENDS
;	COMDAT ?g_XMAddUDec4@DirectX@@3UXMVECTORF32@1@B
CONST	SEGMENT
?g_XMAddUDec4@DirectX@@3UXMVECTORF32@1@B DD 000000000r ; 0 ; DirectX::g_XMAddUDec4
	DD	000000000r			; 0
	DD	000000000r			; 0
	DD	04f000000r			; 2.14748e+09
CONST	ENDS
;	COMDAT ?g_XMXorDec4@DirectX@@3UXMVECTORI32@1@B
CONST	SEGMENT
?g_XMXorDec4@DirectX@@3UXMVECTORI32@1@B DD 0200H	; DirectX::g_XMXorDec4
	DD	080000H
	DD	020000000H
	DD	00H
CONST	ENDS
;	COMDAT ?g_XMMaskDec4@DirectX@@3UXMVECTORI32@1@B
CONST	SEGMENT
?g_XMMaskDec4@DirectX@@3UXMVECTORI32@1@B DD 03ffH	; DirectX::g_XMMaskDec4
	DD	0ffc00H
	DD	03ff00000H
	DD	0c0000000H
CONST	ENDS
;	COMDAT ?g_XMFlipYW@DirectX@@3UXMVECTORU32@1@B
CONST	SEGMENT
?g_XMFlipYW@DirectX@@3UXMVECTORU32@1@B DD 00H		; DirectX::g_XMFlipYW
	DD	080000000H
	DD	00H
	DD	080000000H
CONST	ENDS
;	COMDAT ?g_XMFlipZW@DirectX@@3UXMVECTORU32@1@B
CONST	SEGMENT
?g_XMFlipZW@DirectX@@3UXMVECTORU32@1@B DD 00H		; DirectX::g_XMFlipZW
	DD	00H
	DD	080000000H
	DD	080000000H
CONST	ENDS
;	COMDAT ?g_XMFlipYZ@DirectX@@3UXMVECTORU32@1@B
CONST	SEGMENT
?g_XMFlipYZ@DirectX@@3UXMVECTORU32@1@B DD 00H		; DirectX::g_XMFlipYZ
	DD	080000000H
	DD	080000000H
	DD	00H
CONST	ENDS
;	COMDAT ?g_XMFlipW@DirectX@@3UXMVECTORU32@1@B
CONST	SEGMENT
?g_XMFlipW@DirectX@@3UXMVECTORU32@1@B DD 00H		; DirectX::g_XMFlipW
	DD	00H
	DD	00H
	DD	080000000H
CONST	ENDS
;	COMDAT ?g_XMFlipZ@DirectX@@3UXMVECTORU32@1@B
CONST	SEGMENT
?g_XMFlipZ@DirectX@@3UXMVECTORU32@1@B DD 00H		; DirectX::g_XMFlipZ
	DD	00H
	DD	080000000H
	DD	00H
CONST	ENDS
;	COMDAT ?g_XMFlipY@DirectX@@3UXMVECTORU32@1@B
CONST	SEGMENT
?g_XMFlipY@DirectX@@3UXMVECTORU32@1@B DD 00H		; DirectX::g_XMFlipY
	DD	080000000H
	DD	00H
	DD	00H
CONST	ENDS
;	COMDAT ?g_XMFixupY16W16@DirectX@@3UXMVECTORF32@1@B
CONST	SEGMENT
?g_XMFixupY16W16@DirectX@@3UXMVECTORF32@1@B DD 03f800000r ; 1 ; DirectX::g_XMFixupY16W16
	DD	03f800000r			; 1
	DD	037800000r			; 1.52588e-05
	DD	037800000r			; 1.52588e-05
CONST	ENDS
;	COMDAT ?g_XMFixupY16@DirectX@@3UXMVECTORF32@1@B
CONST	SEGMENT
?g_XMFixupY16@DirectX@@3UXMVECTORF32@1@B DD 03f800000r ; 1 ; DirectX::g_XMFixupY16
	DD	037800000r			; 1.52588e-05
	DD	000000000r			; 0
	DD	000000000r			; 0
CONST	ENDS
;	COMDAT ?g_XMSelect1011@DirectX@@3UXMVECTORU32@1@B
CONST	SEGMENT
?g_XMSelect1011@DirectX@@3UXMVECTORU32@1@B DD 0ffffffffH ; DirectX::g_XMSelect1011
	DD	00H
	DD	0ffffffffH
	DD	0ffffffffH
CONST	ENDS
;	COMDAT ?g_XMSelect1110@DirectX@@3UXMVECTORU32@1@B
CONST	SEGMENT
?g_XMSelect1110@DirectX@@3UXMVECTORU32@1@B DD 0ffffffffH ; DirectX::g_XMSelect1110
	DD	0ffffffffH
	DD	0ffffffffH
	DD	00H
CONST	ENDS
;	COMDAT ?g_XMSelect1100@DirectX@@3UXMVECTORU32@1@B
CONST	SEGMENT
?g_XMSelect1100@DirectX@@3UXMVECTORU32@1@B DD 0ffffffffH ; DirectX::g_XMSelect1100
	DD	0ffffffffH
	DD	00H
	DD	00H
CONST	ENDS
;	COMDAT ?g_XMSelect1000@DirectX@@3UXMVECTORU32@1@B
CONST	SEGMENT
?g_XMSelect1000@DirectX@@3UXMVECTORU32@1@B DD 0ffffffffH ; DirectX::g_XMSelect1000
	DD	00H
	DD	00H
	DD	00H
CONST	ENDS
;	COMDAT ?g_XMOneHalfMinusEpsilon@DirectX@@3UXMVECTORI32@1@B
CONST	SEGMENT
?g_XMOneHalfMinusEpsilon@DirectX@@3UXMVECTORI32@1@B DD 03efffffdH ; DirectX::g_XMOneHalfMinusEpsilon
	DD	03efffffdH
	DD	03efffffdH
	DD	03efffffdH
CONST	ENDS
;	COMDAT ?g_XMSelect1010@DirectX@@3UXMVECTORU32@1@B
CONST	SEGMENT
?g_XMSelect1010@DirectX@@3UXMVECTORU32@1@B DD 0ffffffffH ; DirectX::g_XMSelect1010
	DD	00H
	DD	0ffffffffH
	DD	00H
CONST	ENDS
;	COMDAT ?g_XMSelect0101@DirectX@@3UXMVECTORU32@1@B
CONST	SEGMENT
?g_XMSelect0101@DirectX@@3UXMVECTORU32@1@B DD 00H	; DirectX::g_XMSelect0101
	DD	0ffffffffH
	DD	00H
	DD	0ffffffffH
CONST	ENDS
;	COMDAT ?g_XMNegateW@DirectX@@3UXMVECTORF32@1@B
CONST	SEGMENT
?g_XMNegateW@DirectX@@3UXMVECTORF32@1@B DD 03f800000r ; 1 ; DirectX::g_XMNegateW
	DD	03f800000r			; 1
	DD	03f800000r			; 1
	DD	0bf800000r			; -1
CONST	ENDS
;	COMDAT ?g_XMNegateZ@DirectX@@3UXMVECTORF32@1@B
CONST	SEGMENT
?g_XMNegateZ@DirectX@@3UXMVECTORF32@1@B DD 03f800000r ; 1 ; DirectX::g_XMNegateZ
	DD	03f800000r			; 1
	DD	0bf800000r			; -1
	DD	03f800000r			; 1
CONST	ENDS
;	COMDAT ?g_XMNegateY@DirectX@@3UXMVECTORF32@1@B
CONST	SEGMENT
?g_XMNegateY@DirectX@@3UXMVECTORF32@1@B DD 03f800000r ; 1 ; DirectX::g_XMNegateY
	DD	0bf800000r			; -1
	DD	03f800000r			; 1
	DD	03f800000r			; 1
CONST	ENDS
;	COMDAT ?g_XMNegateX@DirectX@@3UXMVECTORF32@1@B
CONST	SEGMENT
?g_XMNegateX@DirectX@@3UXMVECTORF32@1@B DD 0bf800000r ; -1 ; DirectX::g_XMNegateX
	DD	03f800000r			; 1
	DD	03f800000r			; 1
	DD	03f800000r			; 1
CONST	ENDS
;	COMDAT ?g_XMMaskByte@DirectX@@3UXMVECTORI32@1@B
CONST	SEGMENT
?g_XMMaskByte@DirectX@@3UXMVECTORI32@1@B DD 0ffH	; DirectX::g_XMMaskByte
	DD	0ffH
	DD	0ffH
	DD	0ffH
CONST	ENDS
;	COMDAT ?g_XMNoFraction@DirectX@@3UXMVECTORF32@1@B
CONST	SEGMENT
?g_XMNoFraction@DirectX@@3UXMVECTORF32@1@B DD 04b000000r ; 8.38861e+06 ; DirectX::g_XMNoFraction
	DD	04b000000r			; 8.38861e+06
	DD	04b000000r			; 8.38861e+06
	DD	04b000000r			; 8.38861e+06
CONST	ENDS
;	COMDAT ?g_XMNormalizeX16Y16Z16W16@DirectX@@3UXMVECTORF32@1@B
CONST	SEGMENT
?g_XMNormalizeX16Y16Z16W16@DirectX@@3UXMVECTORF32@1@B DD 038000100r ; 3.05185e-05 ; DirectX::g_XMNormalizeX16Y16Z16W16
	DD	038000100r			; 3.05185e-05
	DD	030000100r			; 4.65675e-10
	DD	030000100r			; 4.65675e-10
CONST	ENDS
;	COMDAT ?g_XMFixX16Y16Z16W16@DirectX@@3UXMVECTORF32@1@B
CONST	SEGMENT
?g_XMFixX16Y16Z16W16@DirectX@@3UXMVECTORF32@1@B DD 0c7000000r ; -32768 ; DirectX::g_XMFixX16Y16Z16W16
	DD	0c7000000r			; -32768
	DD	000000000r			; 0
	DD	000000000r			; 0
CONST	ENDS
;	COMDAT ?g_XMFlipX16Y16Z16W16@DirectX@@3UXMVECTORI32@1@B
CONST	SEGMENT
?g_XMFlipX16Y16Z16W16@DirectX@@3UXMVECTORI32@1@B DD 08000H ; DirectX::g_XMFlipX16Y16Z16W16
	DD	08000H
	DD	00H
	DD	00H
CONST	ENDS
;	COMDAT ?g_XMMaskX16Y16Z16W16@DirectX@@3UXMVECTORU32@1@B
CONST	SEGMENT
?g_XMMaskX16Y16Z16W16@DirectX@@3UXMVECTORU32@1@B DD 0ffffH ; DirectX::g_XMMaskX16Y16Z16W16
	DD	0ffffH
	DD	0ffff0000H
	DD	0ffff0000H
CONST	ENDS
;	COMDAT ?g_XMNormalizeX16Y16@DirectX@@3UXMVECTORF32@1@B
CONST	SEGMENT
?g_XMNormalizeX16Y16@DirectX@@3UXMVECTORF32@1@B DD 038000100r ; 3.05185e-05 ; DirectX::g_XMNormalizeX16Y16
	DD	030000100r			; 4.65675e-10
	DD	000000000r			; 0
	DD	000000000r			; 0
CONST	ENDS
;	COMDAT ?g_XMFixX16Y16@DirectX@@3UXMVECTORF32@1@B
CONST	SEGMENT
?g_XMFixX16Y16@DirectX@@3UXMVECTORF32@1@B DD 0c7000000r ; -32768 ; DirectX::g_XMFixX16Y16
	DD	000000000r			; 0
	DD	000000000r			; 0
	DD	000000000r			; 0
CONST	ENDS
;	COMDAT ?g_XMFlipX16Y16@DirectX@@3UXMVECTORI32@1@B
CONST	SEGMENT
?g_XMFlipX16Y16@DirectX@@3UXMVECTORI32@1@B DD 08000H	; DirectX::g_XMFlipX16Y16
	DD	00H
	DD	00H
	DD	00H
CONST	ENDS
;	COMDAT ?g_XMMaskX16Y16@DirectX@@3UXMVECTORU32@1@B
CONST	SEGMENT
?g_XMMaskX16Y16@DirectX@@3UXMVECTORU32@1@B DD 0ffffH	; DirectX::g_XMMaskX16Y16
	DD	0ffff0000H
	DD	00H
	DD	00H
CONST	ENDS
;	COMDAT ?g_XMNormalizeA2B10G10R10@DirectX@@3UXMVECTORF32@1@B
CONST	SEGMENT
?g_XMNormalizeA2B10G10R10@DirectX@@3UXMVECTORF32@1@B DD 03b004020r ; 0.00195695 ; DirectX::g_XMNormalizeA2B10G10R10
	DD	036004020r			; 1.91108e-06
	DD	031004020r			; 1.86629e-09
	DD	02faaaaabr			; 3.10441e-10
CONST	ENDS
;	COMDAT ?g_XMFixAA2B10G10R10@DirectX@@3UXMVECTORF32@1@B
CONST	SEGMENT
?g_XMFixAA2B10G10R10@DirectX@@3UXMVECTORF32@1@B DD 0c4000000r ; -512 ; DirectX::g_XMFixAA2B10G10R10
	DD	0c9000000r			; -524288
	DD	0ce000000r			; -5.36871e+08
	DD	04f000000r			; 2.14748e+09
CONST	ENDS
;	COMDAT ?g_XMFlipA2B10G10R10@DirectX@@3UXMVECTORU32@1@B
CONST	SEGMENT
?g_XMFlipA2B10G10R10@DirectX@@3UXMVECTORU32@1@B DD 0200H ; DirectX::g_XMFlipA2B10G10R10
	DD	080000H
	DD	020000000H
	DD	080000000H
CONST	ENDS
;	COMDAT ?g_XMMaskA2B10G10R10@DirectX@@3UXMVECTORU32@1@B
CONST	SEGMENT
?g_XMMaskA2B10G10R10@DirectX@@3UXMVECTORU32@1@B DD 03ffH ; DirectX::g_XMMaskA2B10G10R10
	DD	0ffc00H
	DD	03ff00000H
	DD	0c0000000H
CONST	ENDS
;	COMDAT ?g_XMNormalizeA8R8G8B8@DirectX@@3UXMVECTORF32@1@B
CONST	SEGMENT
?g_XMNormalizeA8R8G8B8@DirectX@@3UXMVECTORF32@1@B DD 033808081r ; 5.98384e-08 ; DirectX::g_XMNormalizeA8R8G8B8
	DD	037808081r			; 1.53186e-05
	DD	03b808081r			; 0.00392157
	DD	02f808081r			; 2.33744e-10
CONST	ENDS
;	COMDAT ?g_XMFixAA8R8G8B8@DirectX@@3UXMVECTORF32@1@B
CONST	SEGMENT
?g_XMFixAA8R8G8B8@DirectX@@3UXMVECTORF32@1@B DD 000000000r ; 0 ; DirectX::g_XMFixAA8R8G8B8
	DD	000000000r			; 0
	DD	000000000r			; 0
	DD	04f000000r			; 2.14748e+09
CONST	ENDS
;	COMDAT ?g_XMFlipA8R8G8B8@DirectX@@3UXMVECTORU32@1@B
CONST	SEGMENT
?g_XMFlipA8R8G8B8@DirectX@@3UXMVECTORU32@1@B DD 00H	; DirectX::g_XMFlipA8R8G8B8
	DD	00H
	DD	00H
	DD	080000000H
CONST	ENDS
;	COMDAT ?g_XMMaskA8R8G8B8@DirectX@@3UXMVECTORU32@1@B
CONST	SEGMENT
?g_XMMaskA8R8G8B8@DirectX@@3UXMVECTORU32@1@B DD 0ff0000H ; DirectX::g_XMMaskA8R8G8B8
	DD	0ff00H
	DD	0ffH
	DD	0ff000000H
CONST	ENDS
;	COMDAT ?g_XMNegOneMask@DirectX@@3UXMVECTORU32@1@B
CONST	SEGMENT
?g_XMNegOneMask@DirectX@@3UXMVECTORU32@1@B DD 0ffffffffH ; DirectX::g_XMNegOneMask
	DD	0ffffffffH
	DD	0ffffffffH
	DD	0ffffffffH
CONST	ENDS
;	COMDAT ?g_XMFltMax@DirectX@@3UXMVECTORI32@1@B
CONST	SEGMENT
?g_XMFltMax@DirectX@@3UXMVECTORI32@1@B DD 07f7fffffH	; DirectX::g_XMFltMax
	DD	07f7fffffH
	DD	07f7fffffH
	DD	07f7fffffH
CONST	ENDS
;	COMDAT ?g_XMFltMin@DirectX@@3UXMVECTORI32@1@B
CONST	SEGMENT
?g_XMFltMin@DirectX@@3UXMVECTORI32@1@B DD 0800000H	; DirectX::g_XMFltMin
	DD	0800000H
	DD	0800000H
	DD	0800000H
CONST	ENDS
;	COMDAT ?g_XMAbsMask@DirectX@@3UXMVECTORI32@1@B
CONST	SEGMENT
?g_XMAbsMask@DirectX@@3UXMVECTORI32@1@B DD 07fffffffH	; DirectX::g_XMAbsMask
	DD	07fffffffH
	DD	07fffffffH
	DD	07fffffffH
CONST	ENDS
;	COMDAT ?g_XMQNaNTest@DirectX@@3UXMVECTORI32@1@B
CONST	SEGMENT
?g_XMQNaNTest@DirectX@@3UXMVECTORI32@1@B DD 07fffffH	; DirectX::g_XMQNaNTest
	DD	07fffffH
	DD	07fffffH
	DD	07fffffH
CONST	ENDS
;	COMDAT ?g_XMQNaN@DirectX@@3UXMVECTORI32@1@B
CONST	SEGMENT
?g_XMQNaN@DirectX@@3UXMVECTORI32@1@B DD 07fc00000H	; DirectX::g_XMQNaN
	DD	07fc00000H
	DD	07fc00000H
	DD	07fc00000H
CONST	ENDS
;	COMDAT ?g_XMInfinity@DirectX@@3UXMVECTORI32@1@B
CONST	SEGMENT
?g_XMInfinity@DirectX@@3UXMVECTORI32@1@B DD 07f800000H	; DirectX::g_XMInfinity
	DD	07f800000H
	DD	07f800000H
	DD	07f800000H
CONST	ENDS
;	COMDAT ?g_XMEpsilon@DirectX@@3UXMVECTORF32@1@B
CONST	SEGMENT
?g_XMEpsilon@DirectX@@3UXMVECTORF32@1@B DD 034000000r ; 1.19209e-07 ; DirectX::g_XMEpsilon
	DD	034000000r			; 1.19209e-07
	DD	034000000r			; 1.19209e-07
	DD	034000000r			; 1.19209e-07
CONST	ENDS
;	COMDAT ?g_XMReciprocalTwoPi@DirectX@@3UXMVECTORF32@1@B
CONST	SEGMENT
?g_XMReciprocalTwoPi@DirectX@@3UXMVECTORF32@1@B DD 03e22f983r ; 0.159155 ; DirectX::g_XMReciprocalTwoPi
	DD	03e22f983r			; 0.159155
	DD	03e22f983r			; 0.159155
	DD	03e22f983r			; 0.159155
CONST	ENDS
;	COMDAT ?g_XMTwoPi@DirectX@@3UXMVECTORF32@1@B
CONST	SEGMENT
?g_XMTwoPi@DirectX@@3UXMVECTORF32@1@B DD 040c90fdbr ; 6.28319 ; DirectX::g_XMTwoPi
	DD	040c90fdbr			; 6.28319
	DD	040c90fdbr			; 6.28319
	DD	040c90fdbr			; 6.28319
CONST	ENDS
;	COMDAT ?g_XMReciprocalPi@DirectX@@3UXMVECTORF32@1@B
CONST	SEGMENT
?g_XMReciprocalPi@DirectX@@3UXMVECTORF32@1@B DD 03ea2f983r ; 0.31831 ; DirectX::g_XMReciprocalPi
	DD	03ea2f983r			; 0.31831
	DD	03ea2f983r			; 0.31831
	DD	03ea2f983r			; 0.31831
CONST	ENDS
;	COMDAT ?g_XMPi@DirectX@@3UXMVECTORF32@1@B
CONST	SEGMENT
?g_XMPi@DirectX@@3UXMVECTORF32@1@B DD 040490fdbr ; 3.14159 ; DirectX::g_XMPi
	DD	040490fdbr			; 3.14159
	DD	040490fdbr			; 3.14159
	DD	040490fdbr			; 3.14159
CONST	ENDS
;	COMDAT ?g_XMHalfPi@DirectX@@3UXMVECTORF32@1@B
CONST	SEGMENT
?g_XMHalfPi@DirectX@@3UXMVECTORF32@1@B DD 03fc90fdbr ; 1.5708 ; DirectX::g_XMHalfPi
	DD	03fc90fdbr			; 1.5708
	DD	03fc90fdbr			; 1.5708
	DD	03fc90fdbr			; 1.5708
CONST	ENDS
;	COMDAT ?g_XMNegativePi@DirectX@@3UXMVECTORF32@1@B
CONST	SEGMENT
?g_XMNegativePi@DirectX@@3UXMVECTORF32@1@B DD 0c0490fdbr ; -3.14159 ; DirectX::g_XMNegativePi
	DD	0c0490fdbr			; -3.14159
	DD	0c0490fdbr			; -3.14159
	DD	0c0490fdbr			; -3.14159
CONST	ENDS
;	COMDAT ?g_XMNegativeTwoPi@DirectX@@3UXMVECTORF32@1@B
CONST	SEGMENT
?g_XMNegativeTwoPi@DirectX@@3UXMVECTORF32@1@B DD 0c0c90fdbr ; -6.28319 ; DirectX::g_XMNegativeTwoPi
	DD	0c0c90fdbr			; -6.28319
	DD	0c0c90fdbr			; -6.28319
	DD	0c0c90fdbr			; -6.28319
CONST	ENDS
;	COMDAT ?g_XMNegativeOneHalf@DirectX@@3UXMVECTORF32@1@B
CONST	SEGMENT
?g_XMNegativeOneHalf@DirectX@@3UXMVECTORF32@1@B DD 0bf000000r ; -0.5 ; DirectX::g_XMNegativeOneHalf
	DD	0bf000000r			; -0.5
	DD	0bf000000r			; -0.5
	DD	0bf000000r			; -0.5
CONST	ENDS
;	COMDAT ?g_XMOneHalf@DirectX@@3UXMVECTORF32@1@B
CONST	SEGMENT
?g_XMOneHalf@DirectX@@3UXMVECTORF32@1@B DD 03f000000r ; 0.5 ; DirectX::g_XMOneHalf
	DD	03f000000r			; 0.5
	DD	03f000000r			; 0.5
	DD	03f000000r			; 0.5
CONST	ENDS
;	COMDAT ?g_XMNegativeOne@DirectX@@3UXMVECTORF32@1@B
CONST	SEGMENT
?g_XMNegativeOne@DirectX@@3UXMVECTORF32@1@B DD 0bf800000r ; -1 ; DirectX::g_XMNegativeOne
	DD	0bf800000r			; -1
	DD	0bf800000r			; -1
	DD	0bf800000r			; -1
CONST	ENDS
;	COMDAT ?g_XMSix@DirectX@@3UXMVECTORF32@1@B
CONST	SEGMENT
?g_XMSix@DirectX@@3UXMVECTORF32@1@B DD 040c00000r ; 6	; DirectX::g_XMSix
	DD	040c00000r			; 6
	DD	040c00000r			; 6
	DD	040c00000r			; 6
CONST	ENDS
;	COMDAT ?g_XMFour@DirectX@@3UXMVECTORF32@1@B
CONST	SEGMENT
?g_XMFour@DirectX@@3UXMVECTORF32@1@B DD 040800000r ; 4	; DirectX::g_XMFour
	DD	040800000r			; 4
	DD	040800000r			; 4
	DD	040800000r			; 4
CONST	ENDS
;	COMDAT ?g_XMTwo@DirectX@@3UXMVECTORF32@1@B
CONST	SEGMENT
?g_XMTwo@DirectX@@3UXMVECTORF32@1@B DD 040000000r ; 2	; DirectX::g_XMTwo
	DD	040000000r			; 2
	DD	040000000r			; 2
	DD	040000000r			; 2
CONST	ENDS
;	COMDAT ?g_XMZero@DirectX@@3UXMVECTORF32@1@B
CONST	SEGMENT
?g_XMZero@DirectX@@3UXMVECTORF32@1@B DD 000000000r ; 0	; DirectX::g_XMZero
	DD	000000000r			; 0
	DD	000000000r			; 0
	DD	000000000r			; 0
CONST	ENDS
;	COMDAT ?g_XMOne3@DirectX@@3UXMVECTORF32@1@B
CONST	SEGMENT
?g_XMOne3@DirectX@@3UXMVECTORF32@1@B DD 03f800000r ; 1	; DirectX::g_XMOne3
	DD	03f800000r			; 1
	DD	03f800000r			; 1
	DD	000000000r			; 0
CONST	ENDS
;	COMDAT ?g_XMOne@DirectX@@3UXMVECTORF32@1@B
CONST	SEGMENT
?g_XMOne@DirectX@@3UXMVECTORF32@1@B DD 03f800000r ; 1	; DirectX::g_XMOne
	DD	03f800000r			; 1
	DD	03f800000r			; 1
	DD	03f800000r			; 1
CONST	ENDS
;	COMDAT ?g_XMMaskW@DirectX@@3UXMVECTORU32@1@B
CONST	SEGMENT
?g_XMMaskW@DirectX@@3UXMVECTORU32@1@B DD 00H		; DirectX::g_XMMaskW
	DD	00H
	DD	00H
	DD	0ffffffffH
CONST	ENDS
;	COMDAT ?g_XMMaskZ@DirectX@@3UXMVECTORU32@1@B
CONST	SEGMENT
?g_XMMaskZ@DirectX@@3UXMVECTORU32@1@B DD 00H		; DirectX::g_XMMaskZ
	DD	00H
	DD	0ffffffffH
	DD	00H
CONST	ENDS
;	COMDAT ?g_XMMaskY@DirectX@@3UXMVECTORU32@1@B
CONST	SEGMENT
?g_XMMaskY@DirectX@@3UXMVECTORU32@1@B DD 00H		; DirectX::g_XMMaskY
	DD	0ffffffffH
	DD	00H
	DD	00H
CONST	ENDS
;	COMDAT ?g_XMMaskX@DirectX@@3UXMVECTORU32@1@B
CONST	SEGMENT
?g_XMMaskX@DirectX@@3UXMVECTORU32@1@B DD 0ffffffffH	; DirectX::g_XMMaskX
	DD	00H
	DD	00H
	DD	00H
CONST	ENDS
;	COMDAT ?g_XMMask3@DirectX@@3UXMVECTORU32@1@B
CONST	SEGMENT
?g_XMMask3@DirectX@@3UXMVECTORU32@1@B DD 0ffffffffH	; DirectX::g_XMMask3
	DD	0ffffffffH
	DD	0ffffffffH
	DD	00H
CONST	ENDS
;	COMDAT ?g_XMNegate3@DirectX@@3UXMVECTORU32@1@B
CONST	SEGMENT
?g_XMNegate3@DirectX@@3UXMVECTORU32@1@B DD 080000000H	; DirectX::g_XMNegate3
	DD	080000000H
	DD	080000000H
	DD	00H
CONST	ENDS
;	COMDAT ?g_XMNegativeZero@DirectX@@3UXMVECTORU32@1@B
CONST	SEGMENT
?g_XMNegativeZero@DirectX@@3UXMVECTORU32@1@B DD 080000000H ; DirectX::g_XMNegativeZero
	DD	080000000H
	DD	080000000H
	DD	080000000H
CONST	ENDS
;	COMDAT ?g_XMNegIdentityR3@DirectX@@3UXMVECTORF32@1@B
CONST	SEGMENT
?g_XMNegIdentityR3@DirectX@@3UXMVECTORF32@1@B DD 000000000r ; 0 ; DirectX::g_XMNegIdentityR3
	DD	000000000r			; 0
	DD	000000000r			; 0
	DD	0bf800000r			; -1
CONST	ENDS
;	COMDAT ?g_XMNegIdentityR2@DirectX@@3UXMVECTORF32@1@B
CONST	SEGMENT
?g_XMNegIdentityR2@DirectX@@3UXMVECTORF32@1@B DD 000000000r ; 0 ; DirectX::g_XMNegIdentityR2
	DD	000000000r			; 0
	DD	0bf800000r			; -1
	DD	000000000r			; 0
CONST	ENDS
;	COMDAT ?g_XMNegIdentityR1@DirectX@@3UXMVECTORF32@1@B
CONST	SEGMENT
?g_XMNegIdentityR1@DirectX@@3UXMVECTORF32@1@B DD 000000000r ; 0 ; DirectX::g_XMNegIdentityR1
	DD	0bf800000r			; -1
	DD	000000000r			; 0
	DD	000000000r			; 0
CONST	ENDS
;	COMDAT ?g_XMNegIdentityR0@DirectX@@3UXMVECTORF32@1@B
CONST	SEGMENT
?g_XMNegIdentityR0@DirectX@@3UXMVECTORF32@1@B DD 0bf800000r ; -1 ; DirectX::g_XMNegIdentityR0
	DD	000000000r			; 0
	DD	000000000r			; 0
	DD	000000000r			; 0
CONST	ENDS
;	COMDAT ?g_XMIdentityR3@DirectX@@3UXMVECTORF32@1@B
CONST	SEGMENT
?g_XMIdentityR3@DirectX@@3UXMVECTORF32@1@B DD 000000000r ; 0 ; DirectX::g_XMIdentityR3
	DD	000000000r			; 0
	DD	000000000r			; 0
	DD	03f800000r			; 1
CONST	ENDS
;	COMDAT ?g_XMIdentityR2@DirectX@@3UXMVECTORF32@1@B
CONST	SEGMENT
?g_XMIdentityR2@DirectX@@3UXMVECTORF32@1@B DD 000000000r ; 0 ; DirectX::g_XMIdentityR2
	DD	000000000r			; 0
	DD	03f800000r			; 1
	DD	000000000r			; 0
CONST	ENDS
;	COMDAT ?g_XMIdentityR1@DirectX@@3UXMVECTORF32@1@B
CONST	SEGMENT
?g_XMIdentityR1@DirectX@@3UXMVECTORF32@1@B DD 000000000r ; 0 ; DirectX::g_XMIdentityR1
	DD	03f800000r			; 1
	DD	000000000r			; 0
	DD	000000000r			; 0
CONST	ENDS
;	COMDAT ?g_XMIdentityR0@DirectX@@3UXMVECTORF32@1@B
CONST	SEGMENT
?g_XMIdentityR0@DirectX@@3UXMVECTORF32@1@B DD 03f800000r ; 1 ; DirectX::g_XMIdentityR0
	DD	000000000r			; 0
	DD	000000000r			; 0
	DD	000000000r			; 0
CONST	ENDS
;	COMDAT ?g_XMPiConstants0@DirectX@@3UXMVECTORF32@1@B
CONST	SEGMENT
?g_XMPiConstants0@DirectX@@3UXMVECTORF32@1@B DD 040490fdbr ; 3.14159 ; DirectX::g_XMPiConstants0
	DD	040c90fdbr			; 6.28319
	DD	03ea2f983r			; 0.31831
	DD	03e22f983r			; 0.159155
CONST	ENDS
;	COMDAT ?g_XMArcEstCoefficients@DirectX@@3UXMVECTORF32@1@B
CONST	SEGMENT
?g_XMArcEstCoefficients@DirectX@@3UXMVECTORF32@1@B DD 03fc90da4r ; 1.57073 ; DirectX::g_XMArcEstCoefficients
	DD	0be593484r			; -0.212114
	DD	03d981627r			; 0.074261
	DD	0bc996e30r			; -0.0187293
CONST	ENDS
;	COMDAT ?g_XMTanEstCoefficients@DirectX@@3UXMVECTORF32@1@B
CONST	SEGMENT
?g_XMTanEstCoefficients@DirectX@@3UXMVECTORF32@1@B DD 0401ef9dbr ; 2.484 ; DirectX::g_XMTanEstCoefficients
	DD	0be482f23r			; -0.195492
	DD	0401de9e6r			; 2.4674
	DD	03ea2f983r			; 0.31831
CONST	ENDS
;	COMDAT ?g_XMATanEstCoefficients1@DirectX@@3UXMVECTORF32@1@B
CONST	SEGMENT
?g_XMATanEstCoefficients1@DirectX@@3UXMVECTORF32@1@B DD 0bea91d04r ; -0.330299 ; DirectX::g_XMATanEstCoefficients1
	DD	03e3876e2r			; 0.180141
	DD	0bdae5a36r			; -0.085133
	DD	03caaae5fr			; 0.0208351
CONST	ENDS
;	COMDAT ?g_XMATanEstCoefficients0@DirectX@@3UXMVECTORF32@1@B
CONST	SEGMENT
?g_XMATanEstCoefficients0@DirectX@@3UXMVECTORF32@1@B DD 03f7ff738r ; 0.999866 ; DirectX::g_XMATanEstCoefficients0
	DD	03f7ff738r			; 0.999866
	DD	03f7ff738r			; 0.999866
	DD	03f7ff738r			; 0.999866
CONST	ENDS
;	COMDAT ?g_XMATanCoefficients1@DirectX@@3UXMVECTORF32@1@B
CONST	SEGMENT
?g_XMATanCoefficients1@DirectX@@3UXMVECTORF32@1@B DD 0bd9a3174r ; -0.0752896 ; DirectX::g_XMATanCoefficients1
	DD	03d2fc1fer			; 0.0429096
	DD	0bc846e02r			; -0.0161657
	DD	03b3bd74ar			; 0.00286623
CONST	ENDS
;	COMDAT ?g_XMATanCoefficients0@DirectX@@3UXMVECTORF32@1@B
CONST	SEGMENT
?g_XMATanCoefficients0@DirectX@@3UXMVECTORF32@1@B DD 0beaaaa6cr ; -0.333331 ; DirectX::g_XMATanCoefficients0
	DD	03e4cbbe5r			; 0.199936
	DD	0be117fc7r			; -0.142089
	DD	03dda3d83r			; 0.106563
CONST	ENDS
;	COMDAT ?g_XMArcCoefficients1@DirectX@@3UXMVECTORF32@1@B
CONST	SEGMENT
?g_XMArcCoefficients1@DirectX@@3UXMVECTORF32@1@B DD 03cfd10f8r ; 0.0308919 ; DirectX::g_XMArcCoefficients1
	DD	0bc8bfc66r			; -0.0170881
	DD	03bda90c5r			; 0.00667009
	DD	0baa57a2cr			; -0.00126249
CONST	ENDS
;	COMDAT ?g_XMArcCoefficients0@DirectX@@3UXMVECTORF32@1@B
CONST	SEGMENT
?g_XMArcCoefficients0@DirectX@@3UXMVECTORF32@1@B DD 03fc90fdar ; 1.5708 ; DirectX::g_XMArcCoefficients0
	DD	0be5bbfcar			; -0.214599
	DD	03db63a9er			; 0.088979
	DD	0bd4d8392r			; -0.0501743
CONST	ENDS
;	COMDAT ?g_XMTanCoefficients2@DirectX@@3UXMVECTORF32@1@B
CONST	SEGMENT
?g_XMTanCoefficients2@DirectX@@3UXMVECTORF32@1@B DD 03a1aac12r ; 0.000590027 ; DirectX::g_XMTanCoefficients2
	DD	0397abeb9r			; 0.000239129
	DD	038cb3f0cr			; 9.69154e-05
	DD	03824bec9r			; 3.92783e-05
CONST	ENDS
;	COMDAT ?g_XMTanCoefficients1@DirectX@@3UXMVECTORF32@1@B
CONST	SEGMENT
?g_XMTanCoefficients1@DirectX@@3UXMVECTORF32@1@B DD 03cb327a4r ; 0.0218695 ; DirectX::g_XMTanCoefficients1
	DD	03c11371br			; 0.00886324
	DD	03b6b69e9r			; 0.00359213
	DD	03abed1b3r			; 0.00145583
CONST	ENDS
;	COMDAT ?g_XMTanCoefficients0@DirectX@@3UXMVECTORF32@1@B
CONST	SEGMENT
?g_XMTanCoefficients0@DirectX@@3UXMVECTORF32@1@B DD 03f800000r ; 1 ; DirectX::g_XMTanCoefficients0
	DD	03eaaaaabr			; 0.333333
	DD	03e088889r			; 0.133333
	DD	03d5d0dd1r			; 0.0539683
CONST	ENDS
;	COMDAT ?g_XMCosCoefficients1@DirectX@@3UXMVECTORF32@1@B
CONST	SEGMENT
?g_XMCosCoefficients1@DirectX@@3UXMVECTORF32@1@B DD 0b48bdd11r ; -2.60516e-07 ; DirectX::g_XMCosCoefficients1
	DD	0befff67er			; -0.499927
	DD	03d29f587r			; 0.0414939
	DD	0baa69fdbr			; -0.00127124
CONST	ENDS
;	COMDAT ?g_XMCosCoefficients0@DirectX@@3UXMVECTORF32@1@B
CONST	SEGMENT
?g_XMCosCoefficients0@DirectX@@3UXMVECTORF32@1@B DD 0bf000000r ; -0.5 ; DirectX::g_XMCosCoefficients0
	DD	03d2aaaa3r			; 0.0416666
	DD	0bab609aar			; -0.00138884
	DD	037cfb4c2r			; 2.47605e-05
CONST	ENDS
;	COMDAT ?g_XMSinCoefficients1@DirectX@@3UXMVECTORF32@1@B
CONST	SEGMENT
?g_XMSinCoefficients1@DirectX@@3UXMVECTORF32@1@B DD 0b2cd365br ; -2.38899e-08 ; DirectX::g_XMSinCoefficients1
	DD	0be2aa888r			; -0.166659
	DD	03c08373cr			; 0.00831395
	DD	0b9423ec8r			; -0.000185247
CONST	ENDS
;	COMDAT ?g_XMSinCoefficients0@DirectX@@3UXMVECTORF32@1@B
CONST	SEGMENT
?g_XMSinCoefficients0@DirectX@@3UXMVECTORF32@1@B DD 0be2aaaabr ; -0.166667 ; DirectX::g_XMSinCoefficients0
	DD	03c088886r			; 0.00833333
	DD	0b9500bf1r			; -0.000198409
	DD	03638b88er			; 2.75256e-06
CONST	ENDS
;	COMDAT ?g_UnitPlaneEpsilon@Internal@DirectX@@3UXMVECTORF32@2@B
CONST	SEGMENT
?g_UnitPlaneEpsilon@Internal@DirectX@@3UXMVECTORF32@2@B DD 038d1b717r ; 0.0001 ; DirectX::Internal::g_UnitPlaneEpsilon
	DD	038d1b717r			; 0.0001
	DD	038d1b717r			; 0.0001
	DD	038d1b717r			; 0.0001
CONST	ENDS
;	COMDAT ?g_UnitQuaternionEpsilon@Internal@DirectX@@3UXMVECTORF32@2@B
CONST	SEGMENT
?g_UnitQuaternionEpsilon@Internal@DirectX@@3UXMVECTORF32@2@B DD 038d1b717r ; 0.0001 ; DirectX::Internal::g_UnitQuaternionEpsilon
	DD	038d1b717r			; 0.0001
	DD	038d1b717r			; 0.0001
	DD	038d1b717r			; 0.0001
CONST	ENDS
;	COMDAT ?g_UnitVectorEpsilon@Internal@DirectX@@3UXMVECTORF32@2@B
CONST	SEGMENT
?g_UnitVectorEpsilon@Internal@DirectX@@3UXMVECTORF32@2@B DD 038d1b717r ; 0.0001 ; DirectX::Internal::g_UnitVectorEpsilon
	DD	038d1b717r			; 0.0001
	DD	038d1b717r			; 0.0001
	DD	038d1b717r			; 0.0001
CONST	ENDS
;	COMDAT ?YellowGreen@Colors@DirectX@@3UXMVECTORF32@2@B
CONST	SEGMENT
?YellowGreen@Colors@DirectX@@3UXMVECTORF32@2@B DD 03f1a9a9br ; 0.603922 ; DirectX::Colors::YellowGreen
	DD	03f4dcdcfr			; 0.803922
	DD	03e48c8car			; 0.196078
	DD	03f800000r			; 1
CONST	ENDS
;	COMDAT ?Yellow@Colors@DirectX@@3UXMVECTORF32@2@B
CONST	SEGMENT
?Yellow@Colors@DirectX@@3UXMVECTORF32@2@B DD 03f800000r ; 1 ; DirectX::Colors::Yellow
	DD	03f800000r			; 1
	DD	000000000r			; 0
	DD	03f800000r			; 1
CONST	ENDS
;	COMDAT ?WhiteSmoke@Colors@DirectX@@3UXMVECTORF32@2@B
CONST	SEGMENT
?WhiteSmoke@Colors@DirectX@@3UXMVECTORF32@2@B DD 03f75f5f7r ; 0.960784 ; DirectX::Colors::WhiteSmoke
	DD	03f75f5f7r			; 0.960784
	DD	03f75f5f7r			; 0.960784
	DD	03f800000r			; 1
CONST	ENDS
;	COMDAT ?White@Colors@DirectX@@3UXMVECTORF32@2@B
CONST	SEGMENT
?White@Colors@DirectX@@3UXMVECTORF32@2@B DD 03f800000r ; 1 ; DirectX::Colors::White
	DD	03f800000r			; 1
	DD	03f800000r			; 1
	DD	03f800000r			; 1
CONST	ENDS
;	COMDAT ?Wheat@Colors@DirectX@@3UXMVECTORF32@2@B
CONST	SEGMENT
?Wheat@Colors@DirectX@@3UXMVECTORF32@2@B DD 03f75f5f7r ; 0.960784 ; DirectX::Colors::Wheat
	DD	03f5edee0r			; 0.870588
	DD	03f33b3b4r			; 0.701961
	DD	03f800000r			; 1
CONST	ENDS
;	COMDAT ?Violet@Colors@DirectX@@3UXMVECTORF32@2@B
CONST	SEGMENT
?Violet@Colors@DirectX@@3UXMVECTORF32@2@B DD 03f6eeef0r ; 0.933333 ; DirectX::Colors::Violet
	DD	03f028283r			; 0.509804
	DD	03f6eeef0r			; 0.933333
	DD	03f800000r			; 1
CONST	ENDS
;	COMDAT ?Turquoise@Colors@DirectX@@3UXMVECTORF32@2@B
CONST	SEGMENT
?Turquoise@Colors@DirectX@@3UXMVECTORF32@2@B DD 03e808081r ; 0.25098 ; DirectX::Colors::Turquoise
	DD	03f60e0e2r			; 0.878431
	DD	03f50d0d2r			; 0.815686
	DD	03f800000r			; 1
CONST	ENDS
;	COMDAT ?Transparent@Colors@DirectX@@3UXMVECTORF32@2@B
CONST	SEGMENT
?Transparent@Colors@DirectX@@3UXMVECTORF32@2@B DD 000000000r ; 0 ; DirectX::Colors::Transparent
	DD	000000000r			; 0
	DD	000000000r			; 0
	DD	000000000r			; 0
CONST	ENDS
;	COMDAT ?Tomato@Colors@DirectX@@3UXMVECTORF32@2@B
CONST	SEGMENT
?Tomato@Colors@DirectX@@3UXMVECTORF32@2@B DD 03f800000r ; 1 ; DirectX::Colors::Tomato
	DD	03ec6c6c8r			; 0.388235
	DD	03e8e8e8fr			; 0.278431
	DD	03f800000r			; 1
CONST	ENDS
;	COMDAT ?Thistle@Colors@DirectX@@3UXMVECTORF32@2@B
CONST	SEGMENT
?Thistle@Colors@DirectX@@3UXMVECTORF32@2@B DD 03f58d8dar ; 0.847059 ; DirectX::Colors::Thistle
	DD	03f3fbfc0r			; 0.74902
	DD	03f58d8dar			; 0.847059
	DD	03f800000r			; 1
CONST	ENDS
;	COMDAT ?Teal@Colors@DirectX@@3UXMVECTORF32@2@B
CONST	SEGMENT
?Teal@Colors@DirectX@@3UXMVECTORF32@2@B DD 000000000r ; 0 ; DirectX::Colors::Teal
	DD	03f008081r			; 0.501961
	DD	03f008081r			; 0.501961
	DD	03f800000r			; 1
CONST	ENDS
;	COMDAT ?Tan@Colors@DirectX@@3UXMVECTORF32@2@B
CONST	SEGMENT
?Tan@Colors@DirectX@@3UXMVECTORF32@2@B DD 03f52d2d4r ; 0.823529 ; DirectX::Colors::Tan
	DD	03f34b4b5r			; 0.705882
	DD	03f0c8c8dr			; 0.54902
	DD	03f800000r			; 1
CONST	ENDS
;	COMDAT ?SteelBlue@Colors@DirectX@@3UXMVECTORF32@2@B
CONST	SEGMENT
?SteelBlue@Colors@DirectX@@3UXMVECTORF32@2@B DD 03e8c8c8dr ; 0.27451 ; DirectX::Colors::SteelBlue
	DD	03f028283r			; 0.509804
	DD	03f34b4b5r			; 0.705882
	DD	03f800000r			; 1
CONST	ENDS
;	COMDAT ?SpringGreen@Colors@DirectX@@3UXMVECTORF32@2@B
CONST	SEGMENT
?SpringGreen@Colors@DirectX@@3UXMVECTORF32@2@B DD 000000000r ; 0 ; DirectX::Colors::SpringGreen
	DD	03f800000r			; 1
	DD	03efeff00r			; 0.498039
	DD	03f800000r			; 1
CONST	ENDS
;	COMDAT ?Snow@Colors@DirectX@@3UXMVECTORF32@2@B
CONST	SEGMENT
?Snow@Colors@DirectX@@3UXMVECTORF32@2@B DD 03f800000r ; 1 ; DirectX::Colors::Snow
	DD	03f7afafcr			; 0.980392
	DD	03f7afafcr			; 0.980392
	DD	03f800000r			; 1
CONST	ENDS
;	COMDAT ?g_FltMax@DirectX@@3UXMVECTORF32@1@B
CONST	SEGMENT
?g_FltMax@DirectX@@3UXMVECTORF32@1@B DD 07f7fffffr ; 3.40282e+38 ; DirectX::g_FltMax
	DD	07f7fffffr			; 3.40282e+38
	DD	07f7fffffr			; 3.40282e+38
	DD	07f7fffffr			; 3.40282e+38
CONST	ENDS
;	COMDAT ?SlateGray@Colors@DirectX@@3UXMVECTORF32@2@B
CONST	SEGMENT
?SlateGray@Colors@DirectX@@3UXMVECTORF32@2@B DD 03ee0e0e2r ; 0.439216 ; DirectX::Colors::SlateGray
	DD	03f008081r			; 0.501961
	DD	03f109091r			; 0.564706
	DD	03f800000r			; 1
CONST	ENDS
;	COMDAT ?g_FltMin@DirectX@@3UXMVECTORF32@1@B
CONST	SEGMENT
?g_FltMin@DirectX@@3UXMVECTORF32@1@B DD 0ff7fffffr ; -3.40282e+38 ; DirectX::g_FltMin
	DD	0ff7fffffr			; -3.40282e+38
	DD	0ff7fffffr			; -3.40282e+38
	DD	0ff7fffffr			; -3.40282e+38
CONST	ENDS
;	COMDAT ?SlateBlue@Colors@DirectX@@3UXMVECTORF32@2@B
CONST	SEGMENT
?SlateBlue@Colors@DirectX@@3UXMVECTORF32@2@B DD 03ed4d4d6r ; 0.415686 ; DirectX::Colors::SlateBlue
	DD	03eb4b4b5r			; 0.352941
	DD	03f4dcdcfr			; 0.803922
	DD	03f800000r			; 1
CONST	ENDS
;	COMDAT ?g_RayNegEpsilon@DirectX@@3UXMVECTORF32@1@B
CONST	SEGMENT
?g_RayNegEpsilon@DirectX@@3UXMVECTORF32@1@B DD 09e3ce508r ; -1e-20 ; DirectX::g_RayNegEpsilon
	DD	09e3ce508r			; -1e-20
	DD	09e3ce508r			; -1e-20
	DD	09e3ce508r			; -1e-20
CONST	ENDS
;	COMDAT ?SkyBlue@Colors@DirectX@@3UXMVECTORF32@2@B
CONST	SEGMENT
?SkyBlue@Colors@DirectX@@3UXMVECTORF32@2@B DD 03f078788r ; 0.529412 ; DirectX::Colors::SkyBlue
	DD	03f4eced0r			; 0.807843
	DD	03f6bebedr			; 0.921569
	DD	03f800000r			; 1
CONST	ENDS
;	COMDAT ?g_RayEpsilon@DirectX@@3UXMVECTORF32@1@B
CONST	SEGMENT
?g_RayEpsilon@DirectX@@3UXMVECTORF32@1@B DD 01e3ce508r ; 1e-20 ; DirectX::g_RayEpsilon
	DD	01e3ce508r			; 1e-20
	DD	01e3ce508r			; 1e-20
	DD	01e3ce508r			; 1e-20
CONST	ENDS
;	COMDAT ?Silver@Colors@DirectX@@3UXMVECTORF32@2@B
CONST	SEGMENT
?Silver@Colors@DirectX@@3UXMVECTORF32@2@B DD 03f40c0c2r ; 0.752941 ; DirectX::Colors::Silver
	DD	03f40c0c2r			; 0.752941
	DD	03f40c0c2r			; 0.752941
	DD	03f800000r			; 1
CONST	ENDS
;	COMDAT ?g_BoxOffset@DirectX@@3QBUXMVECTORF32@1@B
CONST	SEGMENT
?g_BoxOffset@DirectX@@3QBUXMVECTORF32@1@B DD 0bf800000r ; -1 ; DirectX::g_BoxOffset
	DD	0bf800000r			; -1
	DD	03f800000r			; 1
	DD	000000000r			; 0
	DD	03f800000r			; 1
	DD	0bf800000r			; -1
	DD	03f800000r			; 1
	DD	000000000r			; 0
	DD	03f800000r			; 1
	DD	03f800000r			; 1
	DD	03f800000r			; 1
	DD	000000000r			; 0
	DD	0bf800000r			; -1
	DD	03f800000r			; 1
	DD	03f800000r			; 1
	DD	000000000r			; 0
	DD	0bf800000r			; -1
	DD	0bf800000r			; -1
	DD	0bf800000r			; -1
	DD	000000000r			; 0
	DD	03f800000r			; 1
	DD	0bf800000r			; -1
	DD	0bf800000r			; -1
	DD	000000000r			; 0
	DD	03f800000r			; 1
	DD	03f800000r			; 1
	DD	0bf800000r			; -1
	DD	000000000r			; 0
	DD	0bf800000r			; -1
	DD	03f800000r			; 1
	DD	0bf800000r			; -1
	DD	000000000r			; 0
CONST	ENDS
;	COMDAT ?Sienna@Colors@DirectX@@3UXMVECTORF32@2@B
CONST	SEGMENT
?Sienna@Colors@DirectX@@3UXMVECTORF32@2@B DD 03f20a0a1r ; 0.627451 ; DirectX::Colors::Sienna
	DD	03ea4a4a5r			; 0.321569
	DD	03e34b4b5r			; 0.176471
	DD	03f800000r			; 1
CONST	ENDS
;	COMDAT ?SeaShell@Colors@DirectX@@3UXMVECTORF32@2@B
CONST	SEGMENT
?SeaShell@Colors@DirectX@@3UXMVECTORF32@2@B DD 03f800000r ; 1 ; DirectX::Colors::SeaShell
	DD	03f75f5f7r			; 0.960784
	DD	03f6eeef0r			; 0.933333
	DD	03f800000r			; 1
CONST	ENDS
;	COMDAT ?SeaGreen@Colors@DirectX@@3UXMVECTORF32@2@B
CONST	SEGMENT
?SeaGreen@Colors@DirectX@@3UXMVECTORF32@2@B DD 03e38b8b9r ; 0.180392 ; DirectX::Colors::SeaGreen
	DD	03f0b8b8cr			; 0.545098
	DD	03eaeaeafr			; 0.341176
	DD	03f800000r			; 1
CONST	ENDS
;	COMDAT ?SandyBrown@Colors@DirectX@@3UXMVECTORF32@2@B
CONST	SEGMENT
?SandyBrown@Colors@DirectX@@3UXMVECTORF32@2@B DD 03f74f4f6r ; 0.956863 ; DirectX::Colors::SandyBrown
	DD	03f24a4a5r			; 0.643137
	DD	03ec0c0c2r			; 0.376471
	DD	03f800000r			; 1
CONST	ENDS
;	COMDAT ?Salmon@Colors@DirectX@@3UXMVECTORF32@2@B
CONST	SEGMENT
?Salmon@Colors@DirectX@@3UXMVECTORF32@2@B DD 03f7afafcr ; 0.980392 ; DirectX::Colors::Salmon
	DD	03f008081r			; 0.501961
	DD	03ee4e4e6r			; 0.447059
	DD	03f800000r			; 1
CONST	ENDS
;	COMDAT ?SaddleBrown@Colors@DirectX@@3UXMVECTORF32@2@B
CONST	SEGMENT
?SaddleBrown@Colors@DirectX@@3UXMVECTORF32@2@B DD 03f0b8b8cr ; 0.545098 ; DirectX::Colors::SaddleBrown
	DD	03e8a8a8br			; 0.270588
	DD	03d989899r			; 0.0745098
	DD	03f800000r			; 1
CONST	ENDS
;	COMDAT ?RoyalBlue@Colors@DirectX@@3UXMVECTORF32@2@B
CONST	SEGMENT
?RoyalBlue@Colors@DirectX@@3UXMVECTORF32@2@B DD 03e828283r ; 0.254902 ; DirectX::Colors::RoyalBlue
	DD	03ed2d2d4r			; 0.411765
	DD	03f61e1e3r			; 0.882353
	DD	03f800000r			; 1
CONST	ENDS
;	COMDAT ?RosyBrown@Colors@DirectX@@3UXMVECTORF32@2@B
CONST	SEGMENT
?RosyBrown@Colors@DirectX@@3UXMVECTORF32@2@B DD 03f3cbcbdr ; 0.737255 ; DirectX::Colors::RosyBrown
	DD	03f0f8f90r			; 0.560784
	DD	03f0f8f90r			; 0.560784
	DD	03f800000r			; 1
CONST	ENDS
;	COMDAT ?Red@Colors@DirectX@@3UXMVECTORF32@2@B
CONST	SEGMENT
?Red@Colors@DirectX@@3UXMVECTORF32@2@B DD 03f800000r ; 1 ; DirectX::Colors::Red
	DD	000000000r			; 0
	DD	000000000r			; 0
	DD	03f800000r			; 1
CONST	ENDS
;	COMDAT ?Purple@Colors@DirectX@@3UXMVECTORF32@2@B
CONST	SEGMENT
?Purple@Colors@DirectX@@3UXMVECTORF32@2@B DD 03f008081r ; 0.501961 ; DirectX::Colors::Purple
	DD	000000000r			; 0
	DD	03f008081r			; 0.501961
	DD	03f800000r			; 1
CONST	ENDS
;	COMDAT ?PowderBlue@Colors@DirectX@@3UXMVECTORF32@2@B
CONST	SEGMENT
?PowderBlue@Colors@DirectX@@3UXMVECTORF32@2@B DD 03f30b0b1r ; 0.690196 ; DirectX::Colors::PowderBlue
	DD	03f60e0e2r			; 0.878431
	DD	03f66e6e8r			; 0.901961
	DD	03f800000r			; 1
CONST	ENDS
;	COMDAT ?Plum@Colors@DirectX@@3UXMVECTORF32@2@B
CONST	SEGMENT
?Plum@Colors@DirectX@@3UXMVECTORF32@2@B DD 03f5ddddfr ; 0.866667 ; DirectX::Colors::Plum
	DD	03f20a0a1r			; 0.627451
	DD	03f5ddddfr			; 0.866667
	DD	03f800000r			; 1
CONST	ENDS
;	COMDAT ?Pink@Colors@DirectX@@3UXMVECTORF32@2@B
CONST	SEGMENT
?Pink@Colors@DirectX@@3UXMVECTORF32@2@B DD 03f800000r ; 1 ; DirectX::Colors::Pink
	DD	03f40c0c2r			; 0.752941
	DD	03f4bcbcdr			; 0.796079
	DD	03f800000r			; 1
CONST	ENDS
;	COMDAT ?Peru@Colors@DirectX@@3UXMVECTORF32@2@B
CONST	SEGMENT
?Peru@Colors@DirectX@@3UXMVECTORF32@2@B DD 03f4dcdcfr ; 0.803922 ; DirectX::Colors::Peru
	DD	03f058586r			; 0.521569
	DD	03e7cfcfer			; 0.247059
	DD	03f800000r			; 1
CONST	ENDS
;	COMDAT ?PeachPuff@Colors@DirectX@@3UXMVECTORF32@2@B
CONST	SEGMENT
?PeachPuff@Colors@DirectX@@3UXMVECTORF32@2@B DD 03f800000r ; 1 ; DirectX::Colors::PeachPuff
	DD	03f5adadcr			; 0.854902
	DD	03f39b9bar			; 0.72549
	DD	03f800000r			; 1
CONST	ENDS
;	COMDAT ?PapayaWhip@Colors@DirectX@@3UXMVECTORF32@2@B
CONST	SEGMENT
?PapayaWhip@Colors@DirectX@@3UXMVECTORF32@2@B DD 03f800000r ; 1 ; DirectX::Colors::PapayaWhip
	DD	03f6feff1r			; 0.937255
	DD	03f55d5d7r			; 0.835294
	DD	03f800000r			; 1
CONST	ENDS
;	COMDAT ?PaleVioletRed@Colors@DirectX@@3UXMVECTORF32@2@B
CONST	SEGMENT
?PaleVioletRed@Colors@DirectX@@3UXMVECTORF32@2@B DD 03f5bdbddr ; 0.858824 ; DirectX::Colors::PaleVioletRed
	DD	03ee0e0e2r			; 0.439216
	DD	03f139394r			; 0.576471
	DD	03f800000r			; 1
CONST	ENDS
;	COMDAT ?PaleTurquoise@Colors@DirectX@@3UXMVECTORF32@2@B
CONST	SEGMENT
?PaleTurquoise@Colors@DirectX@@3UXMVECTORF32@2@B DD 03f2fafb0r ; 0.686275 ; DirectX::Colors::PaleTurquoise
	DD	03f6eeef0r			; 0.933333
	DD	03f6eeef0r			; 0.933333
	DD	03f800000r			; 1
CONST	ENDS
;	COMDAT ?PaleGreen@Colors@DirectX@@3UXMVECTORF32@2@B
CONST	SEGMENT
?PaleGreen@Colors@DirectX@@3UXMVECTORF32@2@B DD 03f189899r ; 0.596078 ; DirectX::Colors::PaleGreen
	DD	03f7bfbfdr			; 0.984314
	DD	03f189899r			; 0.596078
	DD	03f800000r			; 1
CONST	ENDS
;	COMDAT ?PaleGoldenrod@Colors@DirectX@@3UXMVECTORF32@2@B
CONST	SEGMENT
?PaleGoldenrod@Colors@DirectX@@3UXMVECTORF32@2@B DD 03f6eeef0r ; 0.933333 ; DirectX::Colors::PaleGoldenrod
	DD	03f68e8ear			; 0.909804
	DD	03f2aaaabr			; 0.666667
	DD	03f800000r			; 1
CONST	ENDS
;	COMDAT ?Orchid@Colors@DirectX@@3UXMVECTORF32@2@B
CONST	SEGMENT
?Orchid@Colors@DirectX@@3UXMVECTORF32@2@B DD 03f5adadcr ; 0.854902 ; DirectX::Colors::Orchid
	DD	03ee0e0e2r			; 0.439216
	DD	03f56d6d8r			; 0.839216
	DD	03f800000r			; 1
CONST	ENDS
;	COMDAT ?OrangeRed@Colors@DirectX@@3UXMVECTORF32@2@B
CONST	SEGMENT
?OrangeRed@Colors@DirectX@@3UXMVECTORF32@2@B DD 03f800000r ; 1 ; DirectX::Colors::OrangeRed
	DD	03e8a8a8br			; 0.270588
	DD	000000000r			; 0
	DD	03f800000r			; 1
CONST	ENDS
;	COMDAT ?Orange@Colors@DirectX@@3UXMVECTORF32@2@B
CONST	SEGMENT
?Orange@Colors@DirectX@@3UXMVECTORF32@2@B DD 03f800000r ; 1 ; DirectX::Colors::Orange
	DD	03f25a5a6r			; 0.647059
	DD	000000000r			; 0
	DD	03f800000r			; 1
CONST	ENDS
;	COMDAT ?OliveDrab@Colors@DirectX@@3UXMVECTORF32@2@B
CONST	SEGMENT
?OliveDrab@Colors@DirectX@@3UXMVECTORF32@2@B DD 03ed6d6d8r ; 0.419608 ; DirectX::Colors::OliveDrab
	DD	03f0e8e8fr			; 0.556863
	DD	03e0c8c8dr			; 0.137255
	DD	03f800000r			; 1
CONST	ENDS
;	COMDAT ?Olive@Colors@DirectX@@3UXMVECTORF32@2@B
CONST	SEGMENT
?Olive@Colors@DirectX@@3UXMVECTORF32@2@B DD 03f008081r ; 0.501961 ; DirectX::Colors::Olive
	DD	03f008081r			; 0.501961
	DD	000000000r			; 0
	DD	03f800000r			; 1
CONST	ENDS
;	COMDAT ?OldLace@Colors@DirectX@@3UXMVECTORF32@2@B
CONST	SEGMENT
?OldLace@Colors@DirectX@@3UXMVECTORF32@2@B DD 03f7dfdffr ; 0.992157 ; DirectX::Colors::OldLace
	DD	03f75f5f7r			; 0.960784
	DD	03f66e6e8r			; 0.901961
	DD	03f800000r			; 1
CONST	ENDS
;	COMDAT ?Navy@Colors@DirectX@@3UXMVECTORF32@2@B
CONST	SEGMENT
?Navy@Colors@DirectX@@3UXMVECTORF32@2@B DD 000000000r ; 0 ; DirectX::Colors::Navy
	DD	000000000r			; 0
	DD	03f008081r			; 0.501961
	DD	03f800000r			; 1
CONST	ENDS
;	COMDAT ?NavajoWhite@Colors@DirectX@@3UXMVECTORF32@2@B
CONST	SEGMENT
?NavajoWhite@Colors@DirectX@@3UXMVECTORF32@2@B DD 03f800000r ; 1 ; DirectX::Colors::NavajoWhite
	DD	03f5edee0r			; 0.870588
	DD	03f2dadaer			; 0.678431
	DD	03f800000r			; 1
CONST	ENDS
;	COMDAT ?Moccasin@Colors@DirectX@@3UXMVECTORF32@2@B
CONST	SEGMENT
?Moccasin@Colors@DirectX@@3UXMVECTORF32@2@B DD 03f800000r ; 1 ; DirectX::Colors::Moccasin
	DD	03f64e4e6r			; 0.894118
	DD	03f35b5b6r			; 0.709804
	DD	03f800000r			; 1
CONST	ENDS
;	COMDAT ?MistyRose@Colors@DirectX@@3UXMVECTORF32@2@B
CONST	SEGMENT
?MistyRose@Colors@DirectX@@3UXMVECTORF32@2@B DD 03f800000r ; 1 ; DirectX::Colors::MistyRose
	DD	03f64e4e6r			; 0.894118
	DD	03f61e1e3r			; 0.882353
	DD	03f800000r			; 1
CONST	ENDS
;	COMDAT ?MintCream@Colors@DirectX@@3UXMVECTORF32@2@B
CONST	SEGMENT
?MintCream@Colors@DirectX@@3UXMVECTORF32@2@B DD 03f75f5f7r ; 0.960784 ; DirectX::Colors::MintCream
	DD	03f800000r			; 1
	DD	03f7afafcr			; 0.980392
	DD	03f800000r			; 1
CONST	ENDS
;	COMDAT ?MidnightBlue@Colors@DirectX@@3UXMVECTORF32@2@B
CONST	SEGMENT
?MidnightBlue@Colors@DirectX@@3UXMVECTORF32@2@B DD 03dc8c8car ; 0.0980392 ; DirectX::Colors::MidnightBlue
	DD	03dc8c8car			; 0.0980392
	DD	03ee0e0e2r			; 0.439216
	DD	03f800000r			; 1
CONST	ENDS
;	COMDAT ?MediumVioletRed@Colors@DirectX@@3UXMVECTORF32@2@B
CONST	SEGMENT
?MediumVioletRed@Colors@DirectX@@3UXMVECTORF32@2@B DD 03f47c7c9r ; 0.780392 ; DirectX::Colors::MediumVioletRed
	DD	03da8a8a9r			; 0.0823529
	DD	03f058586r			; 0.521569
	DD	03f800000r			; 1
CONST	ENDS
;	COMDAT ?MediumTurquoise@Colors@DirectX@@3UXMVECTORF32@2@B
CONST	SEGMENT
?MediumTurquoise@Colors@DirectX@@3UXMVECTORF32@2@B DD 03e909091r ; 0.282353 ; DirectX::Colors::MediumTurquoise
	DD	03f51d1d3r			; 0.819608
	DD	03f4ccccer			; 0.8
	DD	03f800000r			; 1
CONST	ENDS
;	COMDAT ?MediumSpringGreen@Colors@DirectX@@3UXMVECTORF32@2@B
CONST	SEGMENT
?MediumSpringGreen@Colors@DirectX@@3UXMVECTORF32@2@B DD 000000000r ; 0 ; DirectX::Colors::MediumSpringGreen
	DD	03f7afafcr			; 0.980392
	DD	03f1a9a9br			; 0.603922
	DD	03f800000r			; 1
CONST	ENDS
;	COMDAT ?MediumSlateBlue@Colors@DirectX@@3UXMVECTORF32@2@B
CONST	SEGMENT
?MediumSlateBlue@Colors@DirectX@@3UXMVECTORF32@2@B DD 03ef6f6f8r ; 0.482353 ; DirectX::Colors::MediumSlateBlue
	DD	03ed0d0d2r			; 0.407843
	DD	03f6eeef0r			; 0.933333
	DD	03f800000r			; 1
CONST	ENDS
;	COMDAT ?MediumSeaGreen@Colors@DirectX@@3UXMVECTORF32@2@B
CONST	SEGMENT
?MediumSeaGreen@Colors@DirectX@@3UXMVECTORF32@2@B DD 03e70f0f2r ; 0.235294 ; DirectX::Colors::MediumSeaGreen
	DD	03f33b3b4r			; 0.701961
	DD	03ee2e2e4r			; 0.443137
	DD	03f800000r			; 1
CONST	ENDS
;	COMDAT ?MediumPurple@Colors@DirectX@@3UXMVECTORF32@2@B
CONST	SEGMENT
?MediumPurple@Colors@DirectX@@3UXMVECTORF32@2@B DD 03f139394r ; 0.576471 ; DirectX::Colors::MediumPurple
	DD	03ee0e0e2r			; 0.439216
	DD	03f5bdbddr			; 0.858824
	DD	03f800000r			; 1
CONST	ENDS
;	COMDAT ?MediumOrchid@Colors@DirectX@@3UXMVECTORF32@2@B
CONST	SEGMENT
?MediumOrchid@Colors@DirectX@@3UXMVECTORF32@2@B DD 03f3ababbr ; 0.729412 ; DirectX::Colors::MediumOrchid
	DD	03eaaaaabr			; 0.333333
	DD	03f53d3d5r			; 0.827451
	DD	03f800000r			; 1
CONST	ENDS
;	COMDAT ?MediumBlue@Colors@DirectX@@3UXMVECTORF32@2@B
CONST	SEGMENT
?MediumBlue@Colors@DirectX@@3UXMVECTORF32@2@B DD 000000000r ; 0 ; DirectX::Colors::MediumBlue
	DD	000000000r			; 0
	DD	03f4dcdcfr			; 0.803922
	DD	03f800000r			; 1
CONST	ENDS
;	COMDAT ?MediumAquamarine@Colors@DirectX@@3UXMVECTORF32@2@B
CONST	SEGMENT
?MediumAquamarine@Colors@DirectX@@3UXMVECTORF32@2@B DD 03ecccccer ; 0.4 ; DirectX::Colors::MediumAquamarine
	DD	03f4dcdcfr			; 0.803922
	DD	03f2aaaabr			; 0.666667
	DD	03f800000r			; 1
CONST	ENDS
;	COMDAT ?Maroon@Colors@DirectX@@3UXMVECTORF32@2@B
CONST	SEGMENT
?Maroon@Colors@DirectX@@3UXMVECTORF32@2@B DD 03f008081r ; 0.501961 ; DirectX::Colors::Maroon
	DD	000000000r			; 0
	DD	000000000r			; 0
	DD	03f800000r			; 1
CONST	ENDS
;	COMDAT ?Magenta@Colors@DirectX@@3UXMVECTORF32@2@B
CONST	SEGMENT
?Magenta@Colors@DirectX@@3UXMVECTORF32@2@B DD 03f800000r ; 1 ; DirectX::Colors::Magenta
	DD	000000000r			; 0
	DD	03f800000r			; 1
	DD	03f800000r			; 1
CONST	ENDS
;	COMDAT ?Linen@Colors@DirectX@@3UXMVECTORF32@2@B
CONST	SEGMENT
?Linen@Colors@DirectX@@3UXMVECTORF32@2@B DD 03f7afafcr ; 0.980392 ; DirectX::Colors::Linen
	DD	03f70f0f2r			; 0.941177
	DD	03f66e6e8r			; 0.901961
	DD	03f800000r			; 1
CONST	ENDS
;	COMDAT ?LimeGreen@Colors@DirectX@@3UXMVECTORF32@2@B
CONST	SEGMENT
?LimeGreen@Colors@DirectX@@3UXMVECTORF32@2@B DD 03e48c8car ; 0.196078 ; DirectX::Colors::LimeGreen
	DD	03f4dcdcfr			; 0.803922
	DD	03e48c8car			; 0.196078
	DD	03f800000r			; 1
CONST	ENDS
;	COMDAT ?Lime@Colors@DirectX@@3UXMVECTORF32@2@B
CONST	SEGMENT
?Lime@Colors@DirectX@@3UXMVECTORF32@2@B DD 000000000r ; 0 ; DirectX::Colors::Lime
	DD	03f800000r			; 1
	DD	000000000r			; 0
	DD	03f800000r			; 1
CONST	ENDS
;	COMDAT ?LightYellow@Colors@DirectX@@3UXMVECTORF32@2@B
CONST	SEGMENT
?LightYellow@Colors@DirectX@@3UXMVECTORF32@2@B DD 03f800000r ; 1 ; DirectX::Colors::LightYellow
	DD	03f800000r			; 1
	DD	03f60e0e2r			; 0.878431
	DD	03f800000r			; 1
CONST	ENDS
;	COMDAT ?LightSteelBlue@Colors@DirectX@@3UXMVECTORF32@2@B
CONST	SEGMENT
?LightSteelBlue@Colors@DirectX@@3UXMVECTORF32@2@B DD 03f30b0b1r ; 0.690196 ; DirectX::Colors::LightSteelBlue
	DD	03f44c4c6r			; 0.768628
	DD	03f5edee0r			; 0.870588
	DD	03f800000r			; 1
CONST	ENDS
;	COMDAT ?LightSlateGray@Colors@DirectX@@3UXMVECTORF32@2@B
CONST	SEGMENT
?LightSlateGray@Colors@DirectX@@3UXMVECTORF32@2@B DD 03eeeeef0r ; 0.466667 ; DirectX::Colors::LightSlateGray
	DD	03f088889r			; 0.533333
	DD	03f19999ar			; 0.6
	DD	03f800000r			; 1
CONST	ENDS
;	COMDAT ?LightSkyBlue@Colors@DirectX@@3UXMVECTORF32@2@B
CONST	SEGMENT
?LightSkyBlue@Colors@DirectX@@3UXMVECTORF32@2@B DD 03f078788r ; 0.529412 ; DirectX::Colors::LightSkyBlue
	DD	03f4eced0r			; 0.807843
	DD	03f7afafcr			; 0.980392
	DD	03f800000r			; 1
CONST	ENDS
;	COMDAT ?LightSeaGreen@Colors@DirectX@@3UXMVECTORF32@2@B
CONST	SEGMENT
?LightSeaGreen@Colors@DirectX@@3UXMVECTORF32@2@B DD 03e008081r ; 0.12549 ; DirectX::Colors::LightSeaGreen
	DD	03f32b2b3r			; 0.698039
	DD	03f2aaaabr			; 0.666667
	DD	03f800000r			; 1
CONST	ENDS
;	COMDAT ?LightSalmon@Colors@DirectX@@3UXMVECTORF32@2@B
CONST	SEGMENT
?LightSalmon@Colors@DirectX@@3UXMVECTORF32@2@B DD 03f800000r ; 1 ; DirectX::Colors::LightSalmon
	DD	03f20a0a1r			; 0.627451
	DD	03ef4f4f6r			; 0.478431
	DD	03f800000r			; 1
CONST	ENDS
;	COMDAT ?LightPink@Colors@DirectX@@3UXMVECTORF32@2@B
CONST	SEGMENT
?LightPink@Colors@DirectX@@3UXMVECTORF32@2@B DD 03f800000r ; 1 ; DirectX::Colors::LightPink
	DD	03f36b6b7r			; 0.713726
	DD	03f41c1c3r			; 0.756863
	DD	03f800000r			; 1
CONST	ENDS
;	COMDAT ?LightGray@Colors@DirectX@@3UXMVECTORF32@2@B
CONST	SEGMENT
?LightGray@Colors@DirectX@@3UXMVECTORF32@2@B DD 03f53d3d5r ; 0.827451 ; DirectX::Colors::LightGray
	DD	03f53d3d5r			; 0.827451
	DD	03f53d3d5r			; 0.827451
	DD	03f800000r			; 1
CONST	ENDS
;	COMDAT ?LightGreen@Colors@DirectX@@3UXMVECTORF32@2@B
CONST	SEGMENT
?LightGreen@Colors@DirectX@@3UXMVECTORF32@2@B DD 03f109091r ; 0.564706 ; DirectX::Colors::LightGreen
	DD	03f6eeef0r			; 0.933333
	DD	03f109091r			; 0.564706
	DD	03f800000r			; 1
CONST	ENDS
;	COMDAT ?LightGoldenrodYellow@Colors@DirectX@@3UXMVECTORF32@2@B
CONST	SEGMENT
?LightGoldenrodYellow@Colors@DirectX@@3UXMVECTORF32@2@B DD 03f7afafcr ; 0.980392 ; DirectX::Colors::LightGoldenrodYellow
	DD	03f7afafcr			; 0.980392
	DD	03f52d2d4r			; 0.823529
	DD	03f800000r			; 1
CONST	ENDS
;	COMDAT ?LightCyan@Colors@DirectX@@3UXMVECTORF32@2@B
CONST	SEGMENT
?LightCyan@Colors@DirectX@@3UXMVECTORF32@2@B DD 03f60e0e2r ; 0.878431 ; DirectX::Colors::LightCyan
	DD	03f800000r			; 1
	DD	03f800000r			; 1
	DD	03f800000r			; 1
CONST	ENDS
;	COMDAT ?LightCoral@Colors@DirectX@@3UXMVECTORF32@2@B
CONST	SEGMENT
?LightCoral@Colors@DirectX@@3UXMVECTORF32@2@B DD 03f70f0f2r ; 0.941177 ; DirectX::Colors::LightCoral
	DD	03f008081r			; 0.501961
	DD	03f008081r			; 0.501961
	DD	03f800000r			; 1
CONST	ENDS
;	COMDAT ?LightBlue@Colors@DirectX@@3UXMVECTORF32@2@B
CONST	SEGMENT
?LightBlue@Colors@DirectX@@3UXMVECTORF32@2@B DD 03f2dadaer ; 0.678431 ; DirectX::Colors::LightBlue
	DD	03f58d8dar			; 0.847059
	DD	03f66e6e8r			; 0.901961
	DD	03f800000r			; 1
CONST	ENDS
;	COMDAT ?LemonChiffon@Colors@DirectX@@3UXMVECTORF32@2@B
CONST	SEGMENT
?LemonChiffon@Colors@DirectX@@3UXMVECTORF32@2@B DD 03f800000r ; 1 ; DirectX::Colors::LemonChiffon
	DD	03f7afafcr			; 0.980392
	DD	03f4dcdcfr			; 0.803922
	DD	03f800000r			; 1
CONST	ENDS
;	COMDAT ?LawnGreen@Colors@DirectX@@3UXMVECTORF32@2@B
CONST	SEGMENT
?LawnGreen@Colors@DirectX@@3UXMVECTORF32@2@B DD 03ef8f8far ; 0.486275 ; DirectX::Colors::LawnGreen
	DD	03f7cfcfer			; 0.988235
	DD	000000000r			; 0
	DD	03f800000r			; 1
CONST	ENDS
;	COMDAT ?LavenderBlush@Colors@DirectX@@3UXMVECTORF32@2@B
CONST	SEGMENT
?LavenderBlush@Colors@DirectX@@3UXMVECTORF32@2@B DD 03f800000r ; 1 ; DirectX::Colors::LavenderBlush
	DD	03f70f0f2r			; 0.941177
	DD	03f75f5f7r			; 0.960784
	DD	03f800000r			; 1
CONST	ENDS
;	COMDAT ?Lavender@Colors@DirectX@@3UXMVECTORF32@2@B
CONST	SEGMENT
?Lavender@Colors@DirectX@@3UXMVECTORF32@2@B DD 03f66e6e8r ; 0.901961 ; DirectX::Colors::Lavender
	DD	03f66e6e8r			; 0.901961
	DD	03f7afafcr			; 0.980392
	DD	03f800000r			; 1
CONST	ENDS
;	COMDAT ?Khaki@Colors@DirectX@@3UXMVECTORF32@2@B
CONST	SEGMENT
?Khaki@Colors@DirectX@@3UXMVECTORF32@2@B DD 03f70f0f2r ; 0.941177 ; DirectX::Colors::Khaki
	DD	03f66e6e8r			; 0.901961
	DD	03f0c8c8dr			; 0.54902
	DD	03f800000r			; 1
CONST	ENDS
;	COMDAT ?Ivory@Colors@DirectX@@3UXMVECTORF32@2@B
CONST	SEGMENT
?Ivory@Colors@DirectX@@3UXMVECTORF32@2@B DD 03f800000r ; 1 ; DirectX::Colors::Ivory
	DD	03f800000r			; 1
	DD	03f70f0f2r			; 0.941177
	DD	03f800000r			; 1
CONST	ENDS
;	COMDAT ?Indigo@Colors@DirectX@@3UXMVECTORF32@2@B
CONST	SEGMENT
?Indigo@Colors@DirectX@@3UXMVECTORF32@2@B DD 03e969697r ; 0.294118 ; DirectX::Colors::Indigo
	DD	000000000r			; 0
	DD	03f028283r			; 0.509804
	DD	03f800000r			; 1
CONST	ENDS
;	COMDAT ?IndianRed@Colors@DirectX@@3UXMVECTORF32@2@B
CONST	SEGMENT
?IndianRed@Colors@DirectX@@3UXMVECTORF32@2@B DD 03f4dcdcfr ; 0.803922 ; DirectX::Colors::IndianRed
	DD	03eb8b8b9r			; 0.360784
	DD	03eb8b8b9r			; 0.360784
	DD	03f800000r			; 1
CONST	ENDS
;	COMDAT ?HotPink@Colors@DirectX@@3UXMVECTORF32@2@B
CONST	SEGMENT
?HotPink@Colors@DirectX@@3UXMVECTORF32@2@B DD 03f800000r ; 1 ; DirectX::Colors::HotPink
	DD	03ed2d2d4r			; 0.411765
	DD	03f34b4b5r			; 0.705882
	DD	03f800000r			; 1
CONST	ENDS
;	COMDAT ?Honeydew@Colors@DirectX@@3UXMVECTORF32@2@B
CONST	SEGMENT
?Honeydew@Colors@DirectX@@3UXMVECTORF32@2@B DD 03f70f0f2r ; 0.941177 ; DirectX::Colors::Honeydew
	DD	03f800000r			; 1
	DD	03f70f0f2r			; 0.941177
	DD	03f800000r			; 1
CONST	ENDS
;	COMDAT ?GreenYellow@Colors@DirectX@@3UXMVECTORF32@2@B
CONST	SEGMENT
?GreenYellow@Colors@DirectX@@3UXMVECTORF32@2@B DD 03f2dadaer ; 0.678431 ; DirectX::Colors::GreenYellow
	DD	03f800000r			; 1
	DD	03e3cbcbdr			; 0.184314
	DD	03f800000r			; 1
CONST	ENDS
;	COMDAT ?Green@Colors@DirectX@@3UXMVECTORF32@2@B
CONST	SEGMENT
?Green@Colors@DirectX@@3UXMVECTORF32@2@B DD 000000000r ; 0 ; DirectX::Colors::Green
	DD	03f008081r			; 0.501961
	DD	000000000r			; 0
	DD	03f800000r			; 1
CONST	ENDS
;	COMDAT ?Gray@Colors@DirectX@@3UXMVECTORF32@2@B
CONST	SEGMENT
?Gray@Colors@DirectX@@3UXMVECTORF32@2@B DD 03f008081r ; 0.501961 ; DirectX::Colors::Gray
	DD	03f008081r			; 0.501961
	DD	03f008081r			; 0.501961
	DD	03f800000r			; 1
CONST	ENDS
;	COMDAT ?Goldenrod@Colors@DirectX@@3UXMVECTORF32@2@B
CONST	SEGMENT
?Goldenrod@Colors@DirectX@@3UXMVECTORF32@2@B DD 03f5adadcr ; 0.854902 ; DirectX::Colors::Goldenrod
	DD	03f25a5a6r			; 0.647059
	DD	03e008081r			; 0.12549
	DD	03f800000r			; 1
CONST	ENDS
;	COMDAT ?Gold@Colors@DirectX@@3UXMVECTORF32@2@B
CONST	SEGMENT
?Gold@Colors@DirectX@@3UXMVECTORF32@2@B DD 03f800000r ; 1 ; DirectX::Colors::Gold
	DD	03f57d7d9r			; 0.843137
	DD	000000000r			; 0
	DD	03f800000r			; 1
CONST	ENDS
;	COMDAT ?GhostWhite@Colors@DirectX@@3UXMVECTORF32@2@B
CONST	SEGMENT
?GhostWhite@Colors@DirectX@@3UXMVECTORF32@2@B DD 03f78f8far ; 0.972549 ; DirectX::Colors::GhostWhite
	DD	03f78f8far			; 0.972549
	DD	03f800000r			; 1
	DD	03f800000r			; 1
CONST	ENDS
;	COMDAT ?Gainsboro@Colors@DirectX@@3UXMVECTORF32@2@B
CONST	SEGMENT
?Gainsboro@Colors@DirectX@@3UXMVECTORF32@2@B DD 03f5cdcder ; 0.862745 ; DirectX::Colors::Gainsboro
	DD	03f5cdcder			; 0.862745
	DD	03f5cdcder			; 0.862745
	DD	03f800000r			; 1
CONST	ENDS
;	COMDAT ?Fuchsia@Colors@DirectX@@3UXMVECTORF32@2@B
CONST	SEGMENT
?Fuchsia@Colors@DirectX@@3UXMVECTORF32@2@B DD 03f800000r ; 1 ; DirectX::Colors::Fuchsia
	DD	000000000r			; 0
	DD	03f800000r			; 1
	DD	03f800000r			; 1
CONST	ENDS
;	COMDAT ?ForestGreen@Colors@DirectX@@3UXMVECTORF32@2@B
CONST	SEGMENT
?ForestGreen@Colors@DirectX@@3UXMVECTORF32@2@B DD 03e088889r ; 0.133333 ; DirectX::Colors::ForestGreen
	DD	03f0b8b8cr			; 0.545098
	DD	03e088889r			; 0.133333
	DD	03f800000r			; 1
CONST	ENDS
;	COMDAT ?FloralWhite@Colors@DirectX@@3UXMVECTORF32@2@B
CONST	SEGMENT
?FloralWhite@Colors@DirectX@@3UXMVECTORF32@2@B DD 03f800000r ; 1 ; DirectX::Colors::FloralWhite
	DD	03f7afafcr			; 0.980392
	DD	03f70f0f2r			; 0.941177
	DD	03f800000r			; 1
CONST	ENDS
;	COMDAT ?Firebrick@Colors@DirectX@@3UXMVECTORF32@2@B
CONST	SEGMENT
?Firebrick@Colors@DirectX@@3UXMVECTORF32@2@B DD 03f32b2b3r ; 0.698039 ; DirectX::Colors::Firebrick
	DD	03e088889r			; 0.133333
	DD	03e088889r			; 0.133333
	DD	03f800000r			; 1
CONST	ENDS
;	COMDAT ?DodgerBlue@Colors@DirectX@@3UXMVECTORF32@2@B
CONST	SEGMENT
?DodgerBlue@Colors@DirectX@@3UXMVECTORF32@2@B DD 03df0f0f2r ; 0.117647 ; DirectX::Colors::DodgerBlue
	DD	03f109091r			; 0.564706
	DD	03f800000r			; 1
	DD	03f800000r			; 1
CONST	ENDS
;	COMDAT ?DimGray@Colors@DirectX@@3UXMVECTORF32@2@B
CONST	SEGMENT
?DimGray@Colors@DirectX@@3UXMVECTORF32@2@B DD 03ed2d2d4r ; 0.411765 ; DirectX::Colors::DimGray
	DD	03ed2d2d4r			; 0.411765
	DD	03ed2d2d4r			; 0.411765
	DD	03f800000r			; 1
CONST	ENDS
;	COMDAT ?DeepSkyBlue@Colors@DirectX@@3UXMVECTORF32@2@B
CONST	SEGMENT
?DeepSkyBlue@Colors@DirectX@@3UXMVECTORF32@2@B DD 000000000r ; 0 ; DirectX::Colors::DeepSkyBlue
	DD	03f3fbfc0r			; 0.74902
	DD	03f800000r			; 1
	DD	03f800000r			; 1
CONST	ENDS
;	COMDAT ?DeepPink@Colors@DirectX@@3UXMVECTORF32@2@B
CONST	SEGMENT
?DeepPink@Colors@DirectX@@3UXMVECTORF32@2@B DD 03f800000r ; 1 ; DirectX::Colors::DeepPink
	DD	03da0a0a1r			; 0.0784314
	DD	03f139394r			; 0.576471
	DD	03f800000r			; 1
CONST	ENDS
;	COMDAT ?DarkViolet@Colors@DirectX@@3UXMVECTORF32@2@B
CONST	SEGMENT
?DarkViolet@Colors@DirectX@@3UXMVECTORF32@2@B DD 03f149495r ; 0.580392 ; DirectX::Colors::DarkViolet
	DD	000000000r			; 0
	DD	03f53d3d5r			; 0.827451
	DD	03f800000r			; 1
CONST	ENDS
;	COMDAT ?DarkTurquoise@Colors@DirectX@@3UXMVECTORF32@2@B
CONST	SEGMENT
?DarkTurquoise@Colors@DirectX@@3UXMVECTORF32@2@B DD 000000000r ; 0 ; DirectX::Colors::DarkTurquoise
	DD	03f4eced0r			; 0.807843
	DD	03f51d1d3r			; 0.819608
	DD	03f800000r			; 1
CONST	ENDS
;	COMDAT ?DarkSlateGray@Colors@DirectX@@3UXMVECTORF32@2@B
CONST	SEGMENT
?DarkSlateGray@Colors@DirectX@@3UXMVECTORF32@2@B DD 03e3cbcbdr ; 0.184314 ; DirectX::Colors::DarkSlateGray
	DD	03e9e9e9fr			; 0.309804
	DD	03e9e9e9fr			; 0.309804
	DD	03f800000r			; 1
CONST	ENDS
;	COMDAT ?DarkSlateBlue@Colors@DirectX@@3UXMVECTORF32@2@B
CONST	SEGMENT
?DarkSlateBlue@Colors@DirectX@@3UXMVECTORF32@2@B DD 03e909091r ; 0.282353 ; DirectX::Colors::DarkSlateBlue
	DD	03e74f4f6r			; 0.239216
	DD	03f0b8b8cr			; 0.545098
	DD	03f800000r			; 1
CONST	ENDS
;	COMDAT ?DarkSeaGreen@Colors@DirectX@@3UXMVECTORF32@2@B
CONST	SEGMENT
?DarkSeaGreen@Colors@DirectX@@3UXMVECTORF32@2@B DD 03f0f8f90r ; 0.560784 ; DirectX::Colors::DarkSeaGreen
	DD	03f3cbcbdr			; 0.737255
	DD	03f0b8b8cr			; 0.545098
	DD	03f800000r			; 1
CONST	ENDS
;	COMDAT ?DarkSalmon@Colors@DirectX@@3UXMVECTORF32@2@B
CONST	SEGMENT
?DarkSalmon@Colors@DirectX@@3UXMVECTORF32@2@B DD 03f69e9ebr ; 0.913726 ; DirectX::Colors::DarkSalmon
	DD	03f169697r			; 0.588235
	DD	03ef4f4f6r			; 0.478431
	DD	03f800000r			; 1
CONST	ENDS
;	COMDAT ?DarkRed@Colors@DirectX@@3UXMVECTORF32@2@B
CONST	SEGMENT
?DarkRed@Colors@DirectX@@3UXMVECTORF32@2@B DD 03f0b8b8cr ; 0.545098 ; DirectX::Colors::DarkRed
	DD	000000000r			; 0
	DD	000000000r			; 0
	DD	03f800000r			; 1
CONST	ENDS
;	COMDAT ?DarkOrchid@Colors@DirectX@@3UXMVECTORF32@2@B
CONST	SEGMENT
?DarkOrchid@Colors@DirectX@@3UXMVECTORF32@2@B DD 03f19999ar ; 0.6 ; DirectX::Colors::DarkOrchid
	DD	03e48c8car			; 0.196078
	DD	03f4ccccer			; 0.8
	DD	03f800000r			; 1
CONST	ENDS
;	COMDAT ?DarkOrange@Colors@DirectX@@3UXMVECTORF32@2@B
CONST	SEGMENT
?DarkOrange@Colors@DirectX@@3UXMVECTORF32@2@B DD 03f800000r ; 1 ; DirectX::Colors::DarkOrange
	DD	03f0c8c8dr			; 0.54902
	DD	000000000r			; 0
	DD	03f800000r			; 1
CONST	ENDS
;	COMDAT ?DarkOliveGreen@Colors@DirectX@@3UXMVECTORF32@2@B
CONST	SEGMENT
?DarkOliveGreen@Colors@DirectX@@3UXMVECTORF32@2@B DD 03eaaaaabr ; 0.333333 ; DirectX::Colors::DarkOliveGreen
	DD	03ed6d6d8r			; 0.419608
	DD	03e3cbcbdr			; 0.184314
	DD	03f800000r			; 1
CONST	ENDS
;	COMDAT ?DarkMagenta@Colors@DirectX@@3UXMVECTORF32@2@B
CONST	SEGMENT
?DarkMagenta@Colors@DirectX@@3UXMVECTORF32@2@B DD 03f0b8b8cr ; 0.545098 ; DirectX::Colors::DarkMagenta
	DD	000000000r			; 0
	DD	03f0b8b8cr			; 0.545098
	DD	03f800000r			; 1
CONST	ENDS
;	COMDAT ?DarkKhaki@Colors@DirectX@@3UXMVECTORF32@2@B
CONST	SEGMENT
?DarkKhaki@Colors@DirectX@@3UXMVECTORF32@2@B DD 03f3dbdber ; 0.741176 ; DirectX::Colors::DarkKhaki
	DD	03f37b7b8r			; 0.717647
	DD	03ed6d6d8r			; 0.419608
	DD	03f800000r			; 1
CONST	ENDS
;	COMDAT ?DarkGreen@Colors@DirectX@@3UXMVECTORF32@2@B
CONST	SEGMENT
?DarkGreen@Colors@DirectX@@3UXMVECTORF32@2@B DD 000000000r ; 0 ; DirectX::Colors::DarkGreen
	DD	03ec8c8car			; 0.392157
	DD	000000000r			; 0
	DD	03f800000r			; 1
CONST	ENDS
;	COMDAT ?DarkGray@Colors@DirectX@@3UXMVECTORF32@2@B
CONST	SEGMENT
?DarkGray@Colors@DirectX@@3UXMVECTORF32@2@B DD 03f29a9aar ; 0.662745 ; DirectX::Colors::DarkGray
	DD	03f29a9aar			; 0.662745
	DD	03f29a9aar			; 0.662745
	DD	03f800000r			; 1
CONST	ENDS
;	COMDAT ?DarkGoldenrod@Colors@DirectX@@3UXMVECTORF32@2@B
CONST	SEGMENT
?DarkGoldenrod@Colors@DirectX@@3UXMVECTORF32@2@B DD 03f38b8b9r ; 0.721569 ; DirectX::Colors::DarkGoldenrod
	DD	03f068687r			; 0.52549
	DD	03d30b0b1r			; 0.0431373
	DD	03f800000r			; 1
CONST	ENDS
;	COMDAT ?DarkCyan@Colors@DirectX@@3UXMVECTORF32@2@B
CONST	SEGMENT
?DarkCyan@Colors@DirectX@@3UXMVECTORF32@2@B DD 000000000r ; 0 ; DirectX::Colors::DarkCyan
	DD	03f0b8b8cr			; 0.545098
	DD	03f0b8b8cr			; 0.545098
	DD	03f800000r			; 1
CONST	ENDS
;	COMDAT ?DarkBlue@Colors@DirectX@@3UXMVECTORF32@2@B
CONST	SEGMENT
?DarkBlue@Colors@DirectX@@3UXMVECTORF32@2@B DD 000000000r ; 0 ; DirectX::Colors::DarkBlue
	DD	000000000r			; 0
	DD	03f0b8b8cr			; 0.545098
	DD	03f800000r			; 1
CONST	ENDS
;	COMDAT ?Cyan@Colors@DirectX@@3UXMVECTORF32@2@B
CONST	SEGMENT
?Cyan@Colors@DirectX@@3UXMVECTORF32@2@B DD 000000000r ; 0 ; DirectX::Colors::Cyan
	DD	03f800000r			; 1
	DD	03f800000r			; 1
	DD	03f800000r			; 1
CONST	ENDS
;	COMDAT ?Crimson@Colors@DirectX@@3UXMVECTORF32@2@B
CONST	SEGMENT
?Crimson@Colors@DirectX@@3UXMVECTORF32@2@B DD 03f5cdcder ; 0.862745 ; DirectX::Colors::Crimson
	DD	03da0a0a1r			; 0.0784314
	DD	03e70f0f2r			; 0.235294
	DD	03f800000r			; 1
CONST	ENDS
;	COMDAT ?Cornsilk@Colors@DirectX@@3UXMVECTORF32@2@B
CONST	SEGMENT
?Cornsilk@Colors@DirectX@@3UXMVECTORF32@2@B DD 03f800000r ; 1 ; DirectX::Colors::Cornsilk
	DD	03f78f8far			; 0.972549
	DD	03f5cdcder			; 0.862745
	DD	03f800000r			; 1
CONST	ENDS
;	COMDAT ?CornflowerBlue@Colors@DirectX@@3UXMVECTORF32@2@B
CONST	SEGMENT
?CornflowerBlue@Colors@DirectX@@3UXMVECTORF32@2@B DD 03ec8c8car ; 0.392157 ; DirectX::Colors::CornflowerBlue
	DD	03f159596r			; 0.584314
	DD	03f6dedefr			; 0.929412
	DD	03f800000r			; 1
CONST	ENDS
;	COMDAT ?Coral@Colors@DirectX@@3UXMVECTORF32@2@B
CONST	SEGMENT
?Coral@Colors@DirectX@@3UXMVECTORF32@2@B DD 03f800000r ; 1 ; DirectX::Colors::Coral
	DD	03efeff00r			; 0.498039
	DD	03ea0a0a1r			; 0.313726
	DD	03f800000r			; 1
CONST	ENDS
;	COMDAT ?Chocolate@Colors@DirectX@@3UXMVECTORF32@2@B
CONST	SEGMENT
?Chocolate@Colors@DirectX@@3UXMVECTORF32@2@B DD 03f52d2d4r ; 0.823529 ; DirectX::Colors::Chocolate
	DD	03ed2d2d4r			; 0.411765
	DD	03df0f0f2r			; 0.117647
	DD	03f800000r			; 1
CONST	ENDS
;	COMDAT ?Chartreuse@Colors@DirectX@@3UXMVECTORF32@2@B
CONST	SEGMENT
?Chartreuse@Colors@DirectX@@3UXMVECTORF32@2@B DD 03efeff00r ; 0.498039 ; DirectX::Colors::Chartreuse
	DD	03f800000r			; 1
	DD	000000000r			; 0
	DD	03f800000r			; 1
CONST	ENDS
;	COMDAT ?CadetBlue@Colors@DirectX@@3UXMVECTORF32@2@B
CONST	SEGMENT
?CadetBlue@Colors@DirectX@@3UXMVECTORF32@2@B DD 03ebebebfr ; 0.372549 ; DirectX::Colors::CadetBlue
	DD	03f1e9e9fr			; 0.619608
	DD	03f20a0a1r			; 0.627451
	DD	03f800000r			; 1
CONST	ENDS
;	COMDAT ?BurlyWood@Colors@DirectX@@3UXMVECTORF32@2@B
CONST	SEGMENT
?BurlyWood@Colors@DirectX@@3UXMVECTORF32@2@B DD 03f5edee0r ; 0.870588 ; DirectX::Colors::BurlyWood
	DD	03f38b8b9r			; 0.721569
	DD	03f078788r			; 0.529412
	DD	03f800000r			; 1
CONST	ENDS
;	COMDAT ?Brown@Colors@DirectX@@3UXMVECTORF32@2@B
CONST	SEGMENT
?Brown@Colors@DirectX@@3UXMVECTORF32@2@B DD 03f25a5a6r ; 0.647059 ; DirectX::Colors::Brown
	DD	03e28a8a9r			; 0.164706
	DD	03e28a8a9r			; 0.164706
	DD	03f800000r			; 1
CONST	ENDS
;	COMDAT ?BlueViolet@Colors@DirectX@@3UXMVECTORF32@2@B
CONST	SEGMENT
?BlueViolet@Colors@DirectX@@3UXMVECTORF32@2@B DD 03f0a8a8br ; 0.541176 ; DirectX::Colors::BlueViolet
	DD	03e2cacadr			; 0.168627
	DD	03f62e2e4r			; 0.886275
	DD	03f800000r			; 1
CONST	ENDS
;	COMDAT ?Blue@Colors@DirectX@@3UXMVECTORF32@2@B
CONST	SEGMENT
?Blue@Colors@DirectX@@3UXMVECTORF32@2@B DD 000000000r ; 0 ; DirectX::Colors::Blue
	DD	000000000r			; 0
	DD	03f800000r			; 1
	DD	03f800000r			; 1
CONST	ENDS
;	COMDAT ?BlanchedAlmond@Colors@DirectX@@3UXMVECTORF32@2@B
CONST	SEGMENT
?BlanchedAlmond@Colors@DirectX@@3UXMVECTORF32@2@B DD 03f800000r ; 1 ; DirectX::Colors::BlanchedAlmond
	DD	03f6bebedr			; 0.921569
	DD	03f4dcdcfr			; 0.803922
	DD	03f800000r			; 1
CONST	ENDS
;	COMDAT ?Black@Colors@DirectX@@3UXMVECTORF32@2@B
CONST	SEGMENT
?Black@Colors@DirectX@@3UXMVECTORF32@2@B DD 000000000r ; 0 ; DirectX::Colors::Black
	DD	000000000r			; 0
	DD	000000000r			; 0
	DD	03f800000r			; 1
CONST	ENDS
;	COMDAT ?Bisque@Colors@DirectX@@3UXMVECTORF32@2@B
CONST	SEGMENT
?Bisque@Colors@DirectX@@3UXMVECTORF32@2@B DD 03f800000r ; 1 ; DirectX::Colors::Bisque
	DD	03f64e4e6r			; 0.894118
	DD	03f44c4c6r			; 0.768628
	DD	03f800000r			; 1
CONST	ENDS
;	COMDAT ?Beige@Colors@DirectX@@3UXMVECTORF32@2@B
CONST	SEGMENT
?Beige@Colors@DirectX@@3UXMVECTORF32@2@B DD 03f75f5f7r ; 0.960784 ; DirectX::Colors::Beige
	DD	03f75f5f7r			; 0.960784
	DD	03f5cdcder			; 0.862745
	DD	03f800000r			; 1
CONST	ENDS
;	COMDAT ?Azure@Colors@DirectX@@3UXMVECTORF32@2@B
CONST	SEGMENT
?Azure@Colors@DirectX@@3UXMVECTORF32@2@B DD 03f70f0f2r ; 0.941177 ; DirectX::Colors::Azure
	DD	03f800000r			; 1
	DD	03f800000r			; 1
	DD	03f800000r			; 1
CONST	ENDS
;	COMDAT ?Aquamarine@Colors@DirectX@@3UXMVECTORF32@2@B
CONST	SEGMENT
?Aquamarine@Colors@DirectX@@3UXMVECTORF32@2@B DD 03efeff00r ; 0.498039 ; DirectX::Colors::Aquamarine
	DD	03f800000r			; 1
	DD	03f54d4d6r			; 0.831373
	DD	03f800000r			; 1
CONST	ENDS
;	COMDAT ?Aqua@Colors@DirectX@@3UXMVECTORF32@2@B
CONST	SEGMENT
?Aqua@Colors@DirectX@@3UXMVECTORF32@2@B DD 000000000r ; 0 ; DirectX::Colors::Aqua
	DD	03f800000r			; 1
	DD	03f800000r			; 1
	DD	03f800000r			; 1
CONST	ENDS
;	COMDAT ?AntiqueWhite@Colors@DirectX@@3UXMVECTORF32@2@B
CONST	SEGMENT
?AntiqueWhite@Colors@DirectX@@3UXMVECTORF32@2@B DD 03f7afafcr ; 0.980392 ; DirectX::Colors::AntiqueWhite
	DD	03f6bebedr			; 0.921569
	DD	03f57d7d9r			; 0.843137
	DD	03f800000r			; 1
CONST	ENDS
;	COMDAT ?AliceBlue@Colors@DirectX@@3UXMVECTORF32@2@B
CONST	SEGMENT
?AliceBlue@Colors@DirectX@@3UXMVECTORF32@2@B DD 03f70f0f2r ; 0.941177 ; DirectX::Colors::AliceBlue
	DD	03f78f8far			; 0.972549
	DD	03f800000r			; 1
	DD	03f800000r			; 1
CONST	ENDS
PUBLIC	??_H@YAXPEAX_K1P6APEAX0@Z@Z			; `vector constructor iterator'
PUBLIC	?__empty_global_delete@@YAXPEAX@Z		; __empty_global_delete
PUBLIC	?__empty_global_delete@@YAXPEAX_K@Z		; __empty_global_delete
PUBLIC	wWinMain
PUBLIC	?MyRegisterClass@@YAGPEAUHINSTANCE__@@@Z	; MyRegisterClass
PUBLIC	?InitInstance@@YAHPEAUHINSTANCE__@@H@Z		; InitInstance
PUBLIC	?WndProc@@YA_JPEAUHWND__@@I_K_J@Z		; WndProc
PUBLIC	??$Safe_Release@PEAVCApplication@Client@@@Engine@@YAKAEAPEAVCApplication@Client@@@Z ; Engine::Safe_Release<Client::CApplication * __ptr64>
PUBLIC	??_C@_1BK@OHCPODKI@?$AAT?$AAi?$AAm?$AAe?$AAr?$AA_?$AAS?$AAy?$AAs?$AAt?$AAe?$AAm?$AA?$AA@ ; `string'
PUBLIC	??_C@_1O@FEGOGPBC@?$AA1?$AA4?$AA4?$AAF?$AAP?$AAS?$AA?$AA@ ; `string'
PUBLIC	__real@3be38e39
EXTRN	__imp_LoadStringW:PROC
EXTRN	__imp_TranslateMessage:PROC
EXTRN	__imp_DispatchMessageW:PROC
EXTRN	__imp_PeekMessageW:PROC
EXTRN	__imp_DefWindowProcW:PROC
EXTRN	__imp_PostQuitMessage:PROC
EXTRN	__imp_RegisterClassExW:PROC
EXTRN	__imp_CreateWindowExW:PROC
EXTRN	__imp_ShowWindow:PROC
EXTRN	__imp_LoadAcceleratorsW:PROC
EXTRN	__imp_TranslateAcceleratorW:PROC
EXTRN	__imp_UpdateWindow:PROC
EXTRN	__imp_BeginPaint:PROC
EXTRN	__imp_EndPaint:PROC
EXTRN	__imp_AdjustWindowRect:PROC
EXTRN	__imp_LoadCursorW:PROC
EXTRN	__imp_LoadIconW:PROC
EXTRN	__imp_?Release@CBase@Engine@@QEAAKXZ:PROC
EXTRN	?Tick@CApplication@Client@@QEAAXN@Z:PROC	; Client::CApplication::Tick
EXTRN	?Render@CApplication@Client@@QEAAJXZ:PROC	; Client::CApplication::Render
EXTRN	?Create@CApplication@Client@@SAPEAV12@XZ:PROC	; Client::CApplication::Create
EXTRN	__imp_?GetInstance@CGameInstance@Engine@@SAPEAV12@XZ:PROC
EXTRN	__imp_?CreateTimer@CGameInstance@Engine@@QEAAJPEB_W@Z:PROC
EXTRN	__imp_?GetTimer@CGameInstance@Engine@@QEAAMPEB_W@Z:PROC
EXTRN	__imp_?SetTimer@CGameInstance@Engine@@QEAAXPEB_W@Z:PROC
EXTRN	?ImGui_ImplWin32_WndProcHandler@@YA_JPEAUHWND__@@I_K_J@Z:PROC ; ImGui_ImplWin32_WndProcHandler
EXTRN	_RTC_CheckStackVars:PROC
EXTRN	_RTC_InitBase:PROC
EXTRN	_RTC_Shutdown:PROC
EXTRN	__GSHandlerCheck:PROC
EXTRN	__security_check_cookie:PROC
EXTRN	__security_cookie:QWORD
EXTRN	_fltused:DWORD
;	COMDAT pdata
pdata	SEGMENT
$pdata$??_H@YAXPEAX_K1P6APEAX0@Z@Z DD imagerel $LN7
	DD	imagerel $LN7+181
	DD	imagerel $unwind$??_H@YAXPEAX_K1P6APEAX0@Z@Z
pdata	ENDS
;	COMDAT pdata
pdata	SEGMENT
$pdata$?__empty_global_delete@@YAXPEAX@Z DD imagerel $LN3
	DD	imagerel $LN3+50
	DD	imagerel $unwind$?__empty_global_delete@@YAXPEAX@Z
pdata	ENDS
;	COMDAT pdata
pdata	SEGMENT
$pdata$?__empty_global_delete@@YAXPEAX_K@Z DD imagerel $LN3
	DD	imagerel $LN3+55
	DD	imagerel $unwind$?__empty_global_delete@@YAXPEAX_K@Z
pdata	ENDS
;	COMDAT pdata
pdata	SEGMENT
$pdata$wWinMain DD imagerel $LN13
	DD	imagerel $LN13+629
	DD	imagerel $unwind$wWinMain
pdata	ENDS
;	COMDAT pdata
pdata	SEGMENT
$pdata$?MyRegisterClass@@YAGPEAUHINSTANCE__@@@Z DD imagerel $LN3
	DD	imagerel $LN3+251
	DD	imagerel $unwind$?MyRegisterClass@@YAGPEAUHINSTANCE__@@@Z
pdata	ENDS
;	COMDAT pdata
pdata	SEGMENT
$pdata$?InitInstance@@YAHPEAUHINSTANCE__@@H@Z DD imagerel $LN4
	DD	imagerel $LN4+341
	DD	imagerel $unwind$?InitInstance@@YAHPEAUHINSTANCE__@@H@Z
pdata	ENDS
;	COMDAT pdata
pdata	SEGMENT
$pdata$?WndProc@@YA_JPEAUHWND__@@I_K_J@Z DD imagerel $LN9
	DD	imagerel $LN9+283
	DD	imagerel $unwind$?WndProc@@YA_JPEAUHWND__@@I_K_J@Z
pdata	ENDS
;	COMDAT pdata
pdata	SEGMENT
$pdata$??$Safe_Release@PEAVCApplication@Client@@@Engine@@YAKAEAPEAVCApplication@Client@@@Z DD imagerel $LN5
	DD	imagerel $LN5+114
	DD	imagerel $unwind$??$Safe_Release@PEAVCApplication@Client@@@Engine@@YAKAEAPEAVCApplication@Client@@@Z
pdata	ENDS
;	COMDAT __real@3be38e39
CONST	SEGMENT
__real@3be38e39 DD 03be38e39r			; 0.00694444
CONST	ENDS
;	COMDAT rtc$TMZ
rtc$TMZ	SEGMENT
_RTC_Shutdown.rtc$TMZ DQ FLAT:_RTC_Shutdown
rtc$TMZ	ENDS
;	COMDAT rtc$IMZ
rtc$IMZ	SEGMENT
_RTC_InitBase.rtc$IMZ DQ FLAT:_RTC_InitBase
rtc$IMZ	ENDS
;	COMDAT ??_C@_1O@FEGOGPBC@?$AA1?$AA4?$AA4?$AAF?$AAP?$AAS?$AA?$AA@
CONST	SEGMENT
??_C@_1O@FEGOGPBC@?$AA1?$AA4?$AA4?$AAF?$AAP?$AAS?$AA?$AA@ DB '1', 00H, '4'
	DB	00H, '4', 00H, 'F', 00H, 'P', 00H, 'S', 00H, 00H, 00H ; `string'
CONST	ENDS
;	COMDAT ??_C@_1BK@OHCPODKI@?$AAT?$AAi?$AAm?$AAe?$AAr?$AA_?$AAS?$AAy?$AAs?$AAt?$AAe?$AAm?$AA?$AA@
CONST	SEGMENT
??_C@_1BK@OHCPODKI@?$AAT?$AAi?$AAm?$AAe?$AAr?$AA_?$AAS?$AAy?$AAs?$AAt?$AAe?$AAm?$AA?$AA@ DB 'T'
	DB	00H, 'i', 00H, 'm', 00H, 'e', 00H, 'r', 00H, '_', 00H, 'S', 00H
	DB	'y', 00H, 's', 00H, 't', 00H, 'e', 00H, 'm', 00H, 00H, 00H ; `string'
CONST	ENDS
;	COMDAT xdata
xdata	SEGMENT
$unwind$??$Safe_Release@PEAVCApplication@Client@@@Engine@@YAKAEAPEAVCApplication@Client@@@Z DD 025052a01H
	DD	010e2313H
	DD	070070021H
	DD	05006H
xdata	ENDS
;	COMDAT xdata
xdata	SEGMENT
$unwind$?WndProc@@YA_JPEAUHWND__@@I_K_J@Z DD 025054919H
	DD	011c2321H
	DD	07015002fH
	DD	05014H
	DD	imagerel __GSHandlerCheck
	DD	0168H
xdata	ENDS
;	COMDAT CONST
CONST	SEGMENT
?WndProc@@YA_JPEAUHWND__@@I_K_J@Z$rtcName$0 DB 070H	; WndProc
	DB	073H
	DB	00H
	ORG $+13
?WndProc@@YA_JPEAUHWND__@@I_K_J@Z$rtcVarDesc DD 030H	; WndProc
	DD	048H
	DQ	FLAT:?WndProc@@YA_JPEAUHWND__@@I_K_J@Z$rtcName$0
	ORG $+48
?WndProc@@YA_JPEAUHWND__@@I_K_J@Z$rtcFrameData DD 01H	; WndProc
	DD	00H
	DQ	FLAT:?WndProc@@YA_JPEAUHWND__@@I_K_J@Z$rtcVarDesc
CONST	ENDS
;	COMDAT xdata
xdata	SEGMENT
$unwind$?InitInstance@@YAHPEAUHINSTANCE__@@H@Z DD 065053f19H
	DD	01126317H
	DD	0700b002fH
	DD	0500aH
	DD	imagerel __GSHandlerCheck
	DD	0168H
xdata	ENDS
;	COMDAT CONST
CONST	SEGMENT
?InitInstance@@YAHPEAUHINSTANCE__@@H@Z$rtcName$0 DB 072H ; InitInstance
	DB	063H
	DB	057H
	DB	069H
	DB	06eH
	DB	064H
	DB	06fH
	DB	077H
	DB	00H
	ORG $+7
?InitInstance@@YAHPEAUHINSTANCE__@@H@Z$rtcVarDesc DD 068H ; InitInstance
	DD	010H
	DQ	FLAT:?InitInstance@@YAHPEAUHINSTANCE__@@H@Z$rtcName$0
	ORG $+48
?InitInstance@@YAHPEAUHINSTANCE__@@H@Z$rtcFrameData DD 01H ; InitInstance
	DD	00H
	DQ	FLAT:?InitInstance@@YAHPEAUHINSTANCE__@@H@Z$rtcVarDesc
CONST	ENDS
;	COMDAT xdata
xdata	SEGMENT
$unwind$?MyRegisterClass@@YAGPEAUHINSTANCE__@@@Z DD 025053b19H
	DD	010e2313H
	DD	07007002bH
	DD	05006H
	DD	imagerel __GSHandlerCheck
	DD	0148H
xdata	ENDS
;	COMDAT CONST
CONST	SEGMENT
?MyRegisterClass@@YAGPEAUHINSTANCE__@@@Z$rtcName$0 DB 077H ; MyRegisterClass
	DB	063H
	DB	065H
	DB	078H
	DB	00H
	ORG $+11
?MyRegisterClass@@YAGPEAUHINSTANCE__@@@Z$rtcVarDesc DD 030H ; MyRegisterClass
	DD	050H
	DQ	FLAT:?MyRegisterClass@@YAGPEAUHINSTANCE__@@@Z$rtcName$0
	ORG $+48
?MyRegisterClass@@YAGPEAUHINSTANCE__@@@Z$rtcFrameData DD 01H ; MyRegisterClass
	DD	00H
	DQ	FLAT:?MyRegisterClass@@YAGPEAUHINSTANCE__@@@Z$rtcVarDesc
CONST	ENDS
;	COMDAT xdata
xdata	SEGMENT
$unwind$wWinMain DD 035054a19H
	DD	011d3322H
	DD	070160039H
	DD	05015H
	DD	imagerel __GSHandlerCheck
	DD	01b8H
xdata	ENDS
;	COMDAT CONST
CONST	SEGMENT
wWinMain$rtcName$0 DB 070H
	DB	041H
	DB	070H
	DB	070H
	DB	06cH
	DB	069H
	DB	063H
	DB	061H
	DB	074H
	DB	069H
	DB	06fH
	DB	06eH
	DB	00H
	ORG $+3
wWinMain$rtcName$1 DB 06dH
	DB	073H
	DB	067H
	DB	00H
	ORG $+12
wWinMain$rtcVarDesc DD 078H
	DD	030H
	DQ	FLAT:wWinMain$rtcName$1
	DD	038H
	DD	08H
	DQ	FLAT:wWinMain$rtcName$0
	ORG $+96
wWinMain$rtcFrameData DD 02H
	DD	00H
	DQ	FLAT:wWinMain$rtcVarDesc
CONST	ENDS
;	COMDAT xdata
xdata	SEGMENT
$unwind$?__empty_global_delete@@YAXPEAX_K@Z DD 05052d01H
	DD	01130316H
	DD	0700c0019H
	DD	0500bH
xdata	ENDS
;	COMDAT xdata
xdata	SEGMENT
$unwind$?__empty_global_delete@@YAXPEAX@Z DD 05052801H
	DD	010e0311H
	DD	070070019H
	DD	05006H
xdata	ENDS
;	COMDAT xdata
xdata	SEGMENT
$unwind$??_H@YAXPEAX_K1P6APEAX0@Z@Z DD 025053901H
	DD	011d2322H
	DD	07016001fH
	DD	05015H
xdata	ENDS
; Function compile flags: /Odtp /RTCsu /ZI
; File c:\users\arcco\documents\github\framework\reference\headers\engine_template.h
;	COMDAT ??$Safe_Release@PEAVCApplication@Client@@@Engine@@YAKAEAPEAVCApplication@Client@@@Z
_TEXT	SEGMENT
dwRefCnt$ = 4
classType$ = 256
??$Safe_Release@PEAVCApplication@Client@@@Engine@@YAKAEAPEAVCApplication@Client@@@Z PROC ; Engine::Safe_Release<Client::CApplication * __ptr64>, COMDAT

; 18   : 	{

$LN5:
  00000	48 89 4c 24 08	 mov	 QWORD PTR [rsp+8], rcx
  00005	55		 push	 rbp
  00006	57		 push	 rdi
  00007	48 81 ec 08 01
	00 00		 sub	 rsp, 264		; 00000108H
  0000e	48 8d 6c 24 20	 lea	 rbp, QWORD PTR [rsp+32]
  00013	48 8b fc	 mov	 rdi, rsp
  00016	b9 42 00 00 00	 mov	 ecx, 66			; 00000042H
  0001b	b8 cc cc cc cc	 mov	 eax, -858993460		; ccccccccH
  00020	f3 ab		 rep stosd
  00022	48 8b 8c 24 28
	01 00 00	 mov	 rcx, QWORD PTR [rsp+296]

; 19   : 		unsigned long dwRefCnt = 0;

  0002a	c7 45 04 00 00
	00 00		 mov	 DWORD PTR dwRefCnt$[rbp], 0

; 20   : 
; 21   : 		if (nullptr != classType)

  00031	48 8b 85 00 01
	00 00		 mov	 rax, QWORD PTR classType$[rbp]
  00038	48 83 38 00	 cmp	 QWORD PTR [rax], 0
  0003c	74 27		 je	 SHORT $LN2@Safe_Relea

; 22   : 		{
; 23   : 			dwRefCnt = classType->Release();

  0003e	48 8b 85 00 01
	00 00		 mov	 rax, QWORD PTR classType$[rbp]
  00045	48 8b 08	 mov	 rcx, QWORD PTR [rax]
  00048	ff 15 00 00 00
	00		 call	 QWORD PTR __imp_?Release@CBase@Engine@@QEAAKXZ
  0004e	89 45 04	 mov	 DWORD PTR dwRefCnt$[rbp], eax

; 24   : 
; 25   : 			if (0 == dwRefCnt)

  00051	83 7d 04 00	 cmp	 DWORD PTR dwRefCnt$[rbp], 0
  00055	75 0e		 jne	 SHORT $LN3@Safe_Relea

; 26   : 			{
; 27   : 				classType = nullptr;

  00057	48 8b 85 00 01
	00 00		 mov	 rax, QWORD PTR classType$[rbp]
  0005e	48 c7 00 00 00
	00 00		 mov	 QWORD PTR [rax], 0
$LN3@Safe_Relea:
$LN2@Safe_Relea:

; 28   : 			}
; 29   : 		}
; 30   : 
; 31   : 		return dwRefCnt;

  00065	8b 45 04	 mov	 eax, DWORD PTR dwRefCnt$[rbp]

; 32   : 	}

  00068	48 8d a5 e8 00
	00 00		 lea	 rsp, QWORD PTR [rbp+232]
  0006f	5f		 pop	 rdi
  00070	5d		 pop	 rbp
  00071	c3		 ret	 0
??$Safe_Release@PEAVCApplication@Client@@@Engine@@YAKAEAPEAVCApplication@Client@@@Z ENDP ; Engine::Safe_Release<Client::CApplication * __ptr64>
_TEXT	ENDS
; Function compile flags: /Odtp /RTCsu /ZI
; File c:\users\arcco\documents\github\framework\client\config\client.cpp
;	COMDAT ?WndProc@@YA_JPEAUHWND__@@I_K_J@Z
_TEXT	SEGMENT
ps$4 = 16
hdc$5 = 120
tv70 = 324
__$ArrayPad$ = 328
hWnd$ = 368
message$ = 376
wParam$ = 384
lParam$ = 392
?WndProc@@YA_JPEAUHWND__@@I_K_J@Z PROC			; WndProc, COMDAT

; 136  : {

$LN9:
  00000	4c 89 4c 24 20	 mov	 QWORD PTR [rsp+32], r9
  00005	4c 89 44 24 18	 mov	 QWORD PTR [rsp+24], r8
  0000a	89 54 24 10	 mov	 DWORD PTR [rsp+16], edx
  0000e	48 89 4c 24 08	 mov	 QWORD PTR [rsp+8], rcx
  00013	55		 push	 rbp
  00014	57		 push	 rdi
  00015	48 81 ec 78 01
	00 00		 sub	 rsp, 376		; 00000178H
  0001c	48 8d 6c 24 20	 lea	 rbp, QWORD PTR [rsp+32]
  00021	48 8b fc	 mov	 rdi, rsp
  00024	b9 5e 00 00 00	 mov	 ecx, 94			; 0000005eH
  00029	b8 cc cc cc cc	 mov	 eax, -858993460		; ccccccccH
  0002e	f3 ab		 rep stosd
  00030	48 8b 8c 24 98
	01 00 00	 mov	 rcx, QWORD PTR [rsp+408]
  00038	48 8b 05 00 00
	00 00		 mov	 rax, QWORD PTR __security_cookie
  0003f	48 33 c5	 xor	 rax, rbp
  00042	48 89 85 48 01
	00 00		 mov	 QWORD PTR __$ArrayPad$[rbp], rax

; 137  : 	if (ImGui_ImplWin32_WndProcHandler(hWnd, message, wParam, lParam))

  00049	4c 8b 8d 88 01
	00 00		 mov	 r9, QWORD PTR lParam$[rbp]
  00050	4c 8b 85 80 01
	00 00		 mov	 r8, QWORD PTR wParam$[rbp]
  00057	8b 95 78 01 00
	00		 mov	 edx, DWORD PTR message$[rbp]
  0005d	48 8b 8d 70 01
	00 00		 mov	 rcx, QWORD PTR hWnd$[rbp]
  00064	e8 00 00 00 00	 call	 ?ImGui_ImplWin32_WndProcHandler@@YA_JPEAUHWND__@@I_K_J@Z ; ImGui_ImplWin32_WndProcHandler
  00069	48 85 c0	 test	 rax, rax
  0006c	74 07		 je	 SHORT $LN4@WndProc

; 138  : 		return true;

  0006e	b8 01 00 00 00	 mov	 eax, 1
  00073	eb 77		 jmp	 SHORT $LN1@WndProc
$LN4@WndProc:

; 139  : 
; 140  :     switch (message)

  00075	8b 85 78 01 00
	00		 mov	 eax, DWORD PTR message$[rbp]
  0007b	89 85 44 01 00
	00		 mov	 DWORD PTR tv70[rbp], eax
  00081	83 bd 44 01 00
	00 02		 cmp	 DWORD PTR tv70[rbp], 2
  00088	74 33		 je	 SHORT $LN6@WndProc
  0008a	83 bd 44 01 00
	00 0f		 cmp	 DWORD PTR tv70[rbp], 15
  00091	74 02		 je	 SHORT $LN5@WndProc
  00093	eb 32		 jmp	 SHORT $LN7@WndProc
$LN5@WndProc:

; 141  :     {
; 142  :     case WM_PAINT:
; 143  :         {
; 144  :             PAINTSTRUCT ps;
; 145  :             HDC hdc = BeginPaint(hWnd, &ps);

  00095	48 8d 55 10	 lea	 rdx, QWORD PTR ps$4[rbp]
  00099	48 8b 8d 70 01
	00 00		 mov	 rcx, QWORD PTR hWnd$[rbp]
  000a0	ff 15 00 00 00
	00		 call	 QWORD PTR __imp_BeginPaint
  000a6	48 89 45 78	 mov	 QWORD PTR hdc$5[rbp], rax

; 146  : 
; 147  :             EndPaint(hWnd, &ps);

  000aa	48 8d 55 10	 lea	 rdx, QWORD PTR ps$4[rbp]
  000ae	48 8b 8d 70 01
	00 00		 mov	 rcx, QWORD PTR hWnd$[rbp]
  000b5	ff 15 00 00 00
	00		 call	 QWORD PTR __imp_EndPaint

; 148  :         }
; 149  :         break;

  000bb	eb 2d		 jmp	 SHORT $LN2@WndProc
$LN6@WndProc:

; 150  :     case WM_DESTROY:
; 151  :         PostQuitMessage(0);

  000bd	33 c9		 xor	 ecx, ecx
  000bf	ff 15 00 00 00
	00		 call	 QWORD PTR __imp_PostQuitMessage

; 152  :         break;

  000c5	eb 23		 jmp	 SHORT $LN2@WndProc
$LN7@WndProc:

; 153  :     default:
; 154  :         return DefWindowProc(hWnd, message, wParam, lParam);

  000c7	4c 8b 8d 88 01
	00 00		 mov	 r9, QWORD PTR lParam$[rbp]
  000ce	4c 8b 85 80 01
	00 00		 mov	 r8, QWORD PTR wParam$[rbp]
  000d5	8b 95 78 01 00
	00		 mov	 edx, DWORD PTR message$[rbp]
  000db	48 8b 8d 70 01
	00 00		 mov	 rcx, QWORD PTR hWnd$[rbp]
  000e2	ff 15 00 00 00
	00		 call	 QWORD PTR __imp_DefWindowProcW
  000e8	eb 02		 jmp	 SHORT $LN1@WndProc
$LN2@WndProc:

; 155  :     }
; 156  :     return 0;

  000ea	33 c0		 xor	 eax, eax
$LN1@WndProc:

; 157  : }

  000ec	48 8b f8	 mov	 rdi, rax
  000ef	48 8d 4d e0	 lea	 rcx, QWORD PTR [rbp-32]
  000f3	48 8d 15 00 00
	00 00		 lea	 rdx, OFFSET FLAT:?WndProc@@YA_JPEAUHWND__@@I_K_J@Z$rtcFrameData
  000fa	e8 00 00 00 00	 call	 _RTC_CheckStackVars
  000ff	48 8b c7	 mov	 rax, rdi
  00102	48 8b 8d 48 01
	00 00		 mov	 rcx, QWORD PTR __$ArrayPad$[rbp]
  00109	48 33 cd	 xor	 rcx, rbp
  0010c	e8 00 00 00 00	 call	 __security_check_cookie
  00111	48 8d a5 58 01
	00 00		 lea	 rsp, QWORD PTR [rbp+344]
  00118	5f		 pop	 rdi
  00119	5d		 pop	 rbp
  0011a	c3		 ret	 0
?WndProc@@YA_JPEAUHWND__@@I_K_J@Z ENDP			; WndProc
_TEXT	ENDS
; Function compile flags: /Odtp /RTCsu /ZI
; File c:\users\arcco\documents\github\framework\client\config\client.cpp
;	COMDAT ?InitInstance@@YAHPEAUHINSTANCE__@@H@Z
_TEXT	SEGMENT
rcWindow$ = 8
hWnd$ = 56
__$ArrayPad$ = 264
hInstance$ = 304
nCmdShow$ = 312
?InitInstance@@YAHPEAUHINSTANCE__@@H@Z PROC		; InitInstance, COMDAT

; 110  : {

$LN4:
  00000	89 54 24 10	 mov	 DWORD PTR [rsp+16], edx
  00004	48 89 4c 24 08	 mov	 QWORD PTR [rsp+8], rcx
  00009	55		 push	 rbp
  0000a	57		 push	 rdi
  0000b	48 81 ec 78 01
	00 00		 sub	 rsp, 376		; 00000178H
  00012	48 8d 6c 24 60	 lea	 rbp, QWORD PTR [rsp+96]
  00017	48 8b fc	 mov	 rdi, rsp
  0001a	b9 5e 00 00 00	 mov	 ecx, 94			; 0000005eH
  0001f	b8 cc cc cc cc	 mov	 eax, -858993460		; ccccccccH
  00024	f3 ab		 rep stosd
  00026	48 8b 8c 24 98
	01 00 00	 mov	 rcx, QWORD PTR [rsp+408]
  0002e	48 8b 05 00 00
	00 00		 mov	 rax, QWORD PTR __security_cookie
  00035	48 33 c5	 xor	 rax, rbp
  00038	48 89 85 08 01
	00 00		 mov	 QWORD PTR __$ArrayPad$[rbp], rax

; 111  :    g_hInst = hInstance;

  0003f	48 8b 85 30 01
	00 00		 mov	 rax, QWORD PTR hInstance$[rbp]
  00046	48 89 05 00 00
	00 00		 mov	 QWORD PTR ?g_hInst@@3PEAUHINSTANCE__@@EA, rax ; g_hInst

; 112  : 
; 113  :    RECT	rcWindow = { 0, 0, g_iWinSizeX, g_iWinSizeY };

  0004d	c7 45 08 00 00
	00 00		 mov	 DWORD PTR rcWindow$[rbp], 0
  00054	c7 45 0c 00 00
	00 00		 mov	 DWORD PTR rcWindow$[rbp+4], 0
  0005b	c7 45 10 00 05
	00 00		 mov	 DWORD PTR rcWindow$[rbp+8], 1280 ; 00000500H
  00062	c7 45 14 d0 02
	00 00		 mov	 DWORD PTR rcWindow$[rbp+12], 720 ; 000002d0H

; 114  : 
; 115  :    AdjustWindowRect(&rcWindow, WS_OVERLAPPEDWINDOW, TRUE);

  00069	41 b8 01 00 00
	00		 mov	 r8d, 1
  0006f	ba 00 00 cf 00	 mov	 edx, 13565952		; 00cf0000H
  00074	48 8d 4d 08	 lea	 rcx, QWORD PTR rcWindow$[rbp]
  00078	ff 15 00 00 00
	00		 call	 QWORD PTR __imp_AdjustWindowRect

; 116  : 
; 117  :    HWND hWnd = CreateWindowW(szWindowClass, szTitle, WS_OVERLAPPEDWINDOW,

  0007e	8b 45 0c	 mov	 eax, DWORD PTR rcWindow$[rbp+4]
  00081	8b 4d 14	 mov	 ecx, DWORD PTR rcWindow$[rbp+12]
  00084	2b c8		 sub	 ecx, eax
  00086	8b c1		 mov	 eax, ecx
  00088	8b 4d 08	 mov	 ecx, DWORD PTR rcWindow$[rbp]
  0008b	8b 55 10	 mov	 edx, DWORD PTR rcWindow$[rbp+8]
  0008e	2b d1		 sub	 edx, ecx
  00090	8b ca		 mov	 ecx, edx
  00092	48 c7 44 24 58
	00 00 00 00	 mov	 QWORD PTR [rsp+88], 0
  0009b	48 8b 95 30 01
	00 00		 mov	 rdx, QWORD PTR hInstance$[rbp]
  000a2	48 89 54 24 50	 mov	 QWORD PTR [rsp+80], rdx
  000a7	48 c7 44 24 48
	00 00 00 00	 mov	 QWORD PTR [rsp+72], 0
  000b0	48 c7 44 24 40
	00 00 00 00	 mov	 QWORD PTR [rsp+64], 0
  000b9	89 44 24 38	 mov	 DWORD PTR [rsp+56], eax
  000bd	89 4c 24 30	 mov	 DWORD PTR [rsp+48], ecx
  000c1	c7 44 24 28 00
	00 00 00	 mov	 DWORD PTR [rsp+40], 0
  000c9	c7 44 24 20 00
	00 00 80	 mov	 DWORD PTR [rsp+32], -2147483648 ; ffffffff80000000H
  000d1	41 b9 00 00 cf
	00		 mov	 r9d, 13565952		; 00cf0000H
  000d7	4c 8d 05 00 00
	00 00		 lea	 r8, OFFSET FLAT:?szTitle@@3PA_WA ; szTitle
  000de	48 8d 15 00 00
	00 00		 lea	 rdx, OFFSET FLAT:?szWindowClass@@3PA_WA ; szWindowClass
  000e5	33 c9		 xor	 ecx, ecx
  000e7	ff 15 00 00 00
	00		 call	 QWORD PTR __imp_CreateWindowExW
  000ed	48 89 45 38	 mov	 QWORD PTR hWnd$[rbp], rax

; 118  : 	   CW_USEDEFAULT, 0, rcWindow.right - rcWindow.left, rcWindow.bottom - rcWindow.top, nullptr, nullptr, hInstance, nullptr);
; 119  : 
; 120  :    if (!hWnd)

  000f1	48 83 7d 38 00	 cmp	 QWORD PTR hWnd$[rbp], 0
  000f6	75 04		 jne	 SHORT $LN2@InitInstan

; 121  :    {
; 122  :       return FALSE;

  000f8	33 c0		 xor	 eax, eax
  000fa	eb 2a		 jmp	 SHORT $LN1@InitInstan
$LN2@InitInstan:

; 123  :    }
; 124  : 
; 125  :    ShowWindow(hWnd, nCmdShow);

  000fc	8b 95 38 01 00
	00		 mov	 edx, DWORD PTR nCmdShow$[rbp]
  00102	48 8b 4d 38	 mov	 rcx, QWORD PTR hWnd$[rbp]
  00106	ff 15 00 00 00
	00		 call	 QWORD PTR __imp_ShowWindow

; 126  :    UpdateWindow(hWnd);

  0010c	48 8b 4d 38	 mov	 rcx, QWORD PTR hWnd$[rbp]
  00110	ff 15 00 00 00
	00		 call	 QWORD PTR __imp_UpdateWindow

; 127  : 
; 128  :    g_hWnd = hWnd;

  00116	48 8b 45 38	 mov	 rax, QWORD PTR hWnd$[rbp]
  0011a	48 89 05 00 00
	00 00		 mov	 QWORD PTR ?g_hWnd@@3PEAUHWND__@@EA, rax ; g_hWnd

; 129  : 
; 130  :    return TRUE;

  00121	b8 01 00 00 00	 mov	 eax, 1
$LN1@InitInstan:

; 131  : }

  00126	48 8b f8	 mov	 rdi, rax
  00129	48 8d 4d a0	 lea	 rcx, QWORD PTR [rbp-96]
  0012d	48 8d 15 00 00
	00 00		 lea	 rdx, OFFSET FLAT:?InitInstance@@YAHPEAUHINSTANCE__@@H@Z$rtcFrameData
  00134	e8 00 00 00 00	 call	 _RTC_CheckStackVars
  00139	48 8b c7	 mov	 rax, rdi
  0013c	48 8b 8d 08 01
	00 00		 mov	 rcx, QWORD PTR __$ArrayPad$[rbp]
  00143	48 33 cd	 xor	 rcx, rbp
  00146	e8 00 00 00 00	 call	 __security_check_cookie
  0014b	48 8d a5 18 01
	00 00		 lea	 rsp, QWORD PTR [rbp+280]
  00152	5f		 pop	 rdi
  00153	5d		 pop	 rbp
  00154	c3		 ret	 0
?InitInstance@@YAHPEAUHINSTANCE__@@H@Z ENDP		; InitInstance
_TEXT	ENDS
; Function compile flags: /Odtp /RTCsu /ZI
; File c:\users\arcco\documents\github\framework\client\config\client.cpp
;	COMDAT ?MyRegisterClass@@YAGPEAUHINSTANCE__@@@Z
_TEXT	SEGMENT
wcex$ = 16
__$ArrayPad$ = 296
hInstance$ = 336
?MyRegisterClass@@YAGPEAUHINSTANCE__@@@Z PROC		; MyRegisterClass, COMDAT

; 89   : {

$LN3:
  00000	48 89 4c 24 08	 mov	 QWORD PTR [rsp+8], rcx
  00005	55		 push	 rbp
  00006	57		 push	 rdi
  00007	48 81 ec 58 01
	00 00		 sub	 rsp, 344		; 00000158H
  0000e	48 8d 6c 24 20	 lea	 rbp, QWORD PTR [rsp+32]
  00013	48 8b fc	 mov	 rdi, rsp
  00016	b9 56 00 00 00	 mov	 ecx, 86			; 00000056H
  0001b	b8 cc cc cc cc	 mov	 eax, -858993460		; ccccccccH
  00020	f3 ab		 rep stosd
  00022	48 8b 8c 24 78
	01 00 00	 mov	 rcx, QWORD PTR [rsp+376]
  0002a	48 8b 05 00 00
	00 00		 mov	 rax, QWORD PTR __security_cookie
  00031	48 33 c5	 xor	 rax, rbp
  00034	48 89 85 28 01
	00 00		 mov	 QWORD PTR __$ArrayPad$[rbp], rax

; 90   :     WNDCLASSEXW wcex;
; 91   : 
; 92   :     wcex.cbSize = sizeof(WNDCLASSEX);

  0003b	c7 45 10 50 00
	00 00		 mov	 DWORD PTR wcex$[rbp], 80 ; 00000050H

; 93   : 
; 94   :     wcex.style          = CS_HREDRAW | CS_VREDRAW;

  00042	c7 45 14 03 00
	00 00		 mov	 DWORD PTR wcex$[rbp+4], 3

; 95   :     wcex.lpfnWndProc    = WndProc;

  00049	48 8d 05 00 00
	00 00		 lea	 rax, OFFSET FLAT:?WndProc@@YA_JPEAUHWND__@@I_K_J@Z ; WndProc
  00050	48 89 45 18	 mov	 QWORD PTR wcex$[rbp+8], rax

; 96   :     wcex.cbClsExtra     = 0;

  00054	c7 45 20 00 00
	00 00		 mov	 DWORD PTR wcex$[rbp+16], 0

; 97   :     wcex.cbWndExtra     = 0;

  0005b	c7 45 24 00 00
	00 00		 mov	 DWORD PTR wcex$[rbp+20], 0

; 98   :     wcex.hInstance      = hInstance;

  00062	48 8b 85 50 01
	00 00		 mov	 rax, QWORD PTR hInstance$[rbp]
  00069	48 89 45 28	 mov	 QWORD PTR wcex$[rbp+24], rax

; 99   :     wcex.hIcon          = LoadIcon(hInstance, MAKEINTRESOURCE(IDI_CLIENT));

  0006d	ba 6b 00 00 00	 mov	 edx, 107		; 0000006bH
  00072	48 8b 8d 50 01
	00 00		 mov	 rcx, QWORD PTR hInstance$[rbp]
  00079	ff 15 00 00 00
	00		 call	 QWORD PTR __imp_LoadIconW
  0007f	48 89 45 30	 mov	 QWORD PTR wcex$[rbp+32], rax

; 100  :     wcex.hCursor        = LoadCursor(nullptr, IDC_ARROW);

  00083	ba 00 7f 00 00	 mov	 edx, 32512		; 00007f00H
  00088	33 c9		 xor	 ecx, ecx
  0008a	ff 15 00 00 00
	00		 call	 QWORD PTR __imp_LoadCursorW
  00090	48 89 45 38	 mov	 QWORD PTR wcex$[rbp+40], rax

; 101  :     wcex.hbrBackground  = (HBRUSH)(COLOR_WINDOW+1);

  00094	48 c7 45 40 06
	00 00 00	 mov	 QWORD PTR wcex$[rbp+48], 6

; 102  : 	wcex.lpszMenuName	= nullptr;

  0009c	48 c7 45 48 00
	00 00 00	 mov	 QWORD PTR wcex$[rbp+56], 0

; 103  :     wcex.lpszClassName  = szWindowClass;

  000a4	48 8d 05 00 00
	00 00		 lea	 rax, OFFSET FLAT:?szWindowClass@@3PA_WA ; szWindowClass
  000ab	48 89 45 50	 mov	 QWORD PTR wcex$[rbp+64], rax

; 104  :     wcex.hIconSm        = LoadIcon(wcex.hInstance, MAKEINTRESOURCE(IDI_SMALL));

  000af	ba 6c 00 00 00	 mov	 edx, 108		; 0000006cH
  000b4	48 8b 4d 28	 mov	 rcx, QWORD PTR wcex$[rbp+24]
  000b8	ff 15 00 00 00
	00		 call	 QWORD PTR __imp_LoadIconW
  000be	48 89 45 58	 mov	 QWORD PTR wcex$[rbp+72], rax

; 105  : 
; 106  :     return RegisterClassExW(&wcex);

  000c2	48 8d 4d 10	 lea	 rcx, QWORD PTR wcex$[rbp]
  000c6	ff 15 00 00 00
	00		 call	 QWORD PTR __imp_RegisterClassExW

; 107  : }

  000cc	48 8b f8	 mov	 rdi, rax
  000cf	48 8d 4d e0	 lea	 rcx, QWORD PTR [rbp-32]
  000d3	48 8d 15 00 00
	00 00		 lea	 rdx, OFFSET FLAT:?MyRegisterClass@@YAGPEAUHINSTANCE__@@@Z$rtcFrameData
  000da	e8 00 00 00 00	 call	 _RTC_CheckStackVars
  000df	48 8b c7	 mov	 rax, rdi
  000e2	48 8b 8d 28 01
	00 00		 mov	 rcx, QWORD PTR __$ArrayPad$[rbp]
  000e9	48 33 cd	 xor	 rcx, rbp
  000ec	e8 00 00 00 00	 call	 __security_check_cookie
  000f1	48 8d a5 38 01
	00 00		 lea	 rsp, QWORD PTR [rbp+312]
  000f8	5f		 pop	 rdi
  000f9	5d		 pop	 rbp
  000fa	c3		 ret	 0
?MyRegisterClass@@YAGPEAUHINSTANCE__@@@Z ENDP		; MyRegisterClass
_TEXT	ENDS
; Function compile flags: /Odtp /RTCsu /ZI
; File c:\users\arcco\documents\github\framework\client\config\client.cpp
;	COMDAT wWinMain
_TEXT	SEGMENT
pApplication$ = 8
hAccelTable$ = 40
msg$ = 72
pGameInstance$ = 152
LocalTime$ = 180
__$ArrayPad$ = 392
hInstance$ = 432
hPrevInstance$ = 440
lpCmdLine$ = 448
nCmdShow$ = 456
wWinMain PROC						; COMDAT

; 23   : {

$LN13:
  00000	44 89 4c 24 20	 mov	 DWORD PTR [rsp+32], r9d
  00005	4c 89 44 24 18	 mov	 QWORD PTR [rsp+24], r8
  0000a	48 89 54 24 10	 mov	 QWORD PTR [rsp+16], rdx
  0000f	48 89 4c 24 08	 mov	 QWORD PTR [rsp+8], rcx
  00014	55		 push	 rbp
  00015	57		 push	 rdi
  00016	48 81 ec c8 01
	00 00		 sub	 rsp, 456		; 000001c8H
  0001d	48 8d 6c 24 30	 lea	 rbp, QWORD PTR [rsp+48]
  00022	48 8b fc	 mov	 rdi, rsp
  00025	b9 72 00 00 00	 mov	 ecx, 114		; 00000072H
  0002a	b8 cc cc cc cc	 mov	 eax, -858993460		; ccccccccH
  0002f	f3 ab		 rep stosd
  00031	48 8b 8c 24 e8
	01 00 00	 mov	 rcx, QWORD PTR [rsp+488]
  00039	48 8b 05 00 00
	00 00		 mov	 rax, QWORD PTR __security_cookie
  00040	48 33 c5	 xor	 rax, rbp
  00043	48 89 85 88 01
	00 00		 mov	 QWORD PTR __$ArrayPad$[rbp], rax

; 24   : //#ifdef _DEBUG
; 25   : //	_CrtSetDbgFlag(_CRTDBG_ALLOC_MEM_DF | _CRTDBG_LEAK_CHECK_DF);
; 26   : //	//_CrtSetBreakAlloc(611);
; 27   : //#endif
; 28   : 
; 29   :     UNREFERENCED_PARAMETER(hPrevInstance);
; 30   :     UNREFERENCED_PARAMETER(lpCmdLine);
; 31   : 
; 32   :     LoadStringW(hInstance, IDS_APP_TITLE, szTitle, MAX_LOADSTRING);

  0004a	41 b9 64 00 00
	00		 mov	 r9d, 100		; 00000064H
  00050	4c 8d 05 00 00
	00 00		 lea	 r8, OFFSET FLAT:?szTitle@@3PA_WA ; szTitle
  00057	ba 67 00 00 00	 mov	 edx, 103		; 00000067H
  0005c	48 8b 8d b0 01
	00 00		 mov	 rcx, QWORD PTR hInstance$[rbp]
  00063	ff 15 00 00 00
	00		 call	 QWORD PTR __imp_LoadStringW

; 33   :     LoadStringW(hInstance, IDC_CLIENT, szWindowClass, MAX_LOADSTRING);

  00069	41 b9 64 00 00
	00		 mov	 r9d, 100		; 00000064H
  0006f	4c 8d 05 00 00
	00 00		 lea	 r8, OFFSET FLAT:?szWindowClass@@3PA_WA ; szWindowClass
  00076	ba 6d 00 00 00	 mov	 edx, 109		; 0000006dH
  0007b	48 8b 8d b0 01
	00 00		 mov	 rcx, QWORD PTR hInstance$[rbp]
  00082	ff 15 00 00 00
	00		 call	 QWORD PTR __imp_LoadStringW

; 34   :     MyRegisterClass(hInstance);

  00088	48 8b 8d b0 01
	00 00		 mov	 rcx, QWORD PTR hInstance$[rbp]
  0008f	e8 00 00 00 00	 call	 ?MyRegisterClass@@YAGPEAUHINSTANCE__@@@Z ; MyRegisterClass

; 35   : 
; 36   :     if (!InitInstance (hInstance, nCmdShow))

  00094	8b 95 c8 01 00
	00		 mov	 edx, DWORD PTR nCmdShow$[rbp]
  0009a	48 8b 8d b0 01
	00 00		 mov	 rcx, QWORD PTR hInstance$[rbp]
  000a1	e8 00 00 00 00	 call	 ?InitInstance@@YAHPEAUHINSTANCE__@@H@Z ; InitInstance
  000a6	85 c0		 test	 eax, eax
  000a8	75 07		 jne	 SHORT $LN4@wWinMain

; 37   :     {
; 38   :         return FALSE;

  000aa	33 c0		 xor	 eax, eax
  000ac	e9 95 01 00 00	 jmp	 $LN1@wWinMain
$LN4@wWinMain:

; 39   :     }
; 40   : 
; 41   : 	CApplication* pApplication = CApplication::Create();

  000b1	e8 00 00 00 00	 call	 ?Create@CApplication@Client@@SAPEAV12@XZ ; Client::CApplication::Create
  000b6	48 89 45 08	 mov	 QWORD PTR pApplication$[rbp], rax

; 42   : 	if (nullptr == pApplication)

  000ba	48 83 7d 08 00	 cmp	 QWORD PTR pApplication$[rbp], 0
  000bf	75 07		 jne	 SHORT $LN5@wWinMain

; 43   : 		return FALSE;

  000c1	33 c0		 xor	 eax, eax
  000c3	e9 7e 01 00 00	 jmp	 $LN1@wWinMain
$LN5@wWinMain:

; 44   : 
; 45   :     HACCEL hAccelTable = LoadAccelerators(hInstance, MAKEINTRESOURCE(IDC_CLIENT));

  000c8	ba 6d 00 00 00	 mov	 edx, 109		; 0000006dH
  000cd	48 8b 8d b0 01
	00 00		 mov	 rcx, QWORD PTR hInstance$[rbp]
  000d4	ff 15 00 00 00
	00		 call	 QWORD PTR __imp_LoadAcceleratorsW
  000da	48 89 45 28	 mov	 QWORD PTR hAccelTable$[rbp], rax

; 46   : 
; 47   :     MSG msg;
; 48   : 
; 49   : 	CGameInstance* pGameInstance = CGameInstance::GetInstance();

  000de	ff 15 00 00 00
	00		 call	 QWORD PTR __imp_?GetInstance@CGameInstance@Engine@@SAPEAV12@XZ
  000e4	48 89 85 98 00
	00 00		 mov	 QWORD PTR pGameInstance$[rbp], rax

; 50   : 
; 51   : 	if (FAILED(pGameInstance->CreateTimer(TEXT("Timer_System"))))

  000eb	48 8d 15 00 00
	00 00		 lea	 rdx, OFFSET FLAT:??_C@_1BK@OHCPODKI@?$AAT?$AAi?$AAm?$AAe?$AAr?$AA_?$AAS?$AAy?$AAs?$AAt?$AAe?$AAm?$AA?$AA@
  000f2	48 8b 8d 98 00
	00 00		 mov	 rcx, QWORD PTR pGameInstance$[rbp]
  000f9	ff 15 00 00 00
	00		 call	 QWORD PTR __imp_?CreateTimer@CGameInstance@Engine@@QEAAJPEB_W@Z
  000ff	85 c0		 test	 eax, eax
  00101	7d 07		 jge	 SHORT $LN6@wWinMain

; 52   : 		return FALSE;

  00103	33 c0		 xor	 eax, eax
  00105	e9 3c 01 00 00	 jmp	 $LN1@wWinMain
$LN6@wWinMain:

; 53   : 
; 54   : 	if (FAILED(pGameInstance->CreateTimer(TEXT("144FPS"))))

  0010a	48 8d 15 00 00
	00 00		 lea	 rdx, OFFSET FLAT:??_C@_1O@FEGOGPBC@?$AA1?$AA4?$AA4?$AAF?$AAP?$AAS?$AA?$AA@
  00111	48 8b 8d 98 00
	00 00		 mov	 rcx, QWORD PTR pGameInstance$[rbp]
  00118	ff 15 00 00 00
	00		 call	 QWORD PTR __imp_?CreateTimer@CGameInstance@Engine@@QEAAJPEB_W@Z
  0011e	85 c0		 test	 eax, eax
  00120	7d 07		 jge	 SHORT $LN7@wWinMain

; 55   : 		return FALSE;

  00122	33 c0		 xor	 eax, eax
  00124	e9 1d 01 00 00	 jmp	 $LN1@wWinMain
$LN7@wWinMain:

; 56   : 
; 57   : 	_float LocalTime = 0.f;

  00129	0f 57 c0	 xorps	 xmm0, xmm0
  0012c	f3 0f 11 85 b4
	00 00 00	 movss	 DWORD PTR LocalTime$[rbp], xmm0
$LN2@wWinMain:

; 58   : 	while (true)

  00134	33 c0		 xor	 eax, eax
  00136	83 f8 01	 cmp	 eax, 1
  00139	0f 84 fb 00 00
	00		 je	 $LN3@wWinMain

; 59   : 	{
; 60   : 		if (PeekMessage(&msg, nullptr, 0, 0, PM_REMOVE))

  0013f	c7 44 24 20 01
	00 00 00	 mov	 DWORD PTR [rsp+32], 1
  00147	45 33 c9	 xor	 r9d, r9d
  0014a	45 33 c0	 xor	 r8d, r8d
  0014d	33 d2		 xor	 edx, edx
  0014f	48 8d 4d 48	 lea	 rcx, QWORD PTR msg$[rbp]
  00153	ff 15 00 00 00
	00		 call	 QWORD PTR __imp_PeekMessageW
  00159	85 c0		 test	 eax, eax
  0015b	74 35		 je	 SHORT $LN8@wWinMain

; 61   : 		{
; 62   : 			if (WM_QUIT == msg.message)

  0015d	83 7d 50 12	 cmp	 DWORD PTR msg$[rbp+8], 18
  00161	75 05		 jne	 SHORT $LN9@wWinMain

; 63   : 				break;

  00163	e9 d2 00 00 00	 jmp	 $LN3@wWinMain
$LN9@wWinMain:

; 64   : 
; 65   : 			if (!TranslateAccelerator(msg.hwnd, hAccelTable, &msg))

  00168	4c 8d 45 48	 lea	 r8, QWORD PTR msg$[rbp]
  0016c	48 8b 55 28	 mov	 rdx, QWORD PTR hAccelTable$[rbp]
  00170	48 8b 4d 48	 mov	 rcx, QWORD PTR msg$[rbp]
  00174	ff 15 00 00 00
	00		 call	 QWORD PTR __imp_TranslateAcceleratorW
  0017a	85 c0		 test	 eax, eax
  0017c	75 14		 jne	 SHORT $LN10@wWinMain

; 66   : 			{
; 67   : 				TranslateMessage(&msg);

  0017e	48 8d 4d 48	 lea	 rcx, QWORD PTR msg$[rbp]
  00182	ff 15 00 00 00
	00		 call	 QWORD PTR __imp_TranslateMessage

; 68   : 				DispatchMessage(&msg);

  00188	48 8d 4d 48	 lea	 rcx, QWORD PTR msg$[rbp]
  0018c	ff 15 00 00 00
	00		 call	 QWORD PTR __imp_DispatchMessageW
$LN10@wWinMain:
$LN8@wWinMain:

; 69   : 			}
; 70   : 		}
; 71   : 
; 72   : 		pGameInstance->SetTimer(TEXT("Timer_System"));

  00192	48 8d 15 00 00
	00 00		 lea	 rdx, OFFSET FLAT:??_C@_1BK@OHCPODKI@?$AAT?$AAi?$AAm?$AAe?$AAr?$AA_?$AAS?$AAy?$AAs?$AAt?$AAe?$AAm?$AA?$AA@
  00199	48 8b 8d 98 00
	00 00		 mov	 rcx, QWORD PTR pGameInstance$[rbp]
  001a0	ff 15 00 00 00
	00		 call	 QWORD PTR __imp_?SetTimer@CGameInstance@Engine@@QEAAXPEB_W@Z

; 73   : 		LocalTime += pGameInstance->GetTimer(TEXT("Timer_System"));

  001a6	48 8d 15 00 00
	00 00		 lea	 rdx, OFFSET FLAT:??_C@_1BK@OHCPODKI@?$AAT?$AAi?$AAm?$AAe?$AAr?$AA_?$AAS?$AAy?$AAs?$AAt?$AAe?$AAm?$AA?$AA@
  001ad	48 8b 8d 98 00
	00 00		 mov	 rcx, QWORD PTR pGameInstance$[rbp]
  001b4	ff 15 00 00 00
	00		 call	 QWORD PTR __imp_?GetTimer@CGameInstance@Engine@@QEAAMPEB_W@Z
  001ba	f3 0f 10 8d b4
	00 00 00	 movss	 xmm1, DWORD PTR LocalTime$[rbp]
  001c2	f3 0f 58 c8	 addss	 xmm1, xmm0
  001c6	0f 28 c1	 movaps	 xmm0, xmm1
  001c9	f3 0f 11 85 b4
	00 00 00	 movss	 DWORD PTR LocalTime$[rbp], xmm0

; 74   : 		if (nullptr != pApplication && LocalTime >= 1.f / 144.f)

  001d1	48 83 7d 08 00	 cmp	 QWORD PTR pApplication$[rbp], 0
  001d6	74 5d		 je	 SHORT $LN11@wWinMain
  001d8	f3 0f 10 85 b4
	00 00 00	 movss	 xmm0, DWORD PTR LocalTime$[rbp]
  001e0	0f 2f 05 00 00
	00 00		 comiss	 xmm0, DWORD PTR __real@3be38e39
  001e7	72 4c		 jb	 SHORT $LN11@wWinMain

; 75   : 		{
; 76   : 			pGameInstance->SetTimer(TEXT("144FPS"));

  001e9	48 8d 15 00 00
	00 00		 lea	 rdx, OFFSET FLAT:??_C@_1O@FEGOGPBC@?$AA1?$AA4?$AA4?$AAF?$AAP?$AAS?$AA?$AA@
  001f0	48 8b 8d 98 00
	00 00		 mov	 rcx, QWORD PTR pGameInstance$[rbp]
  001f7	ff 15 00 00 00
	00		 call	 QWORD PTR __imp_?SetTimer@CGameInstance@Engine@@QEAAXPEB_W@Z

; 77   : 			pApplication->Tick(pGameInstance->GetTimer(TEXT("144FPS")));

  001fd	48 8d 15 00 00
	00 00		 lea	 rdx, OFFSET FLAT:??_C@_1O@FEGOGPBC@?$AA1?$AA4?$AA4?$AAF?$AAP?$AAS?$AA?$AA@
  00204	48 8b 8d 98 00
	00 00		 mov	 rcx, QWORD PTR pGameInstance$[rbp]
  0020b	ff 15 00 00 00
	00		 call	 QWORD PTR __imp_?GetTimer@CGameInstance@Engine@@QEAAMPEB_W@Z
  00211	f3 0f 5a c0	 cvtss2sd xmm0, xmm0
  00215	0f 28 c8	 movaps	 xmm1, xmm0
  00218	48 8b 4d 08	 mov	 rcx, QWORD PTR pApplication$[rbp]
  0021c	e8 00 00 00 00	 call	 ?Tick@CApplication@Client@@QEAAXN@Z ; Client::CApplication::Tick

; 78   : 			pApplication->Render();

  00221	48 8b 4d 08	 mov	 rcx, QWORD PTR pApplication$[rbp]
  00225	e8 00 00 00 00	 call	 ?Render@CApplication@Client@@QEAAJXZ ; Client::CApplication::Render

; 79   : 			LocalTime = 0.f;

  0022a	0f 57 c0	 xorps	 xmm0, xmm0
  0022d	f3 0f 11 85 b4
	00 00 00	 movss	 DWORD PTR LocalTime$[rbp], xmm0
$LN11@wWinMain:

; 80   : 		}
; 81   : 	}

  00235	e9 fa fe ff ff	 jmp	 $LN2@wWinMain
$LN3@wWinMain:

; 82   : 
; 83   : 	Safe_Release(pApplication);

  0023a	48 8d 4d 08	 lea	 rcx, QWORD PTR pApplication$[rbp]
  0023e	e8 00 00 00 00	 call	 ??$Safe_Release@PEAVCApplication@Client@@@Engine@@YAKAEAPEAVCApplication@Client@@@Z ; Engine::Safe_Release<Client::CApplication * __ptr64>

; 84   : 
; 85   :     return (int) msg.wParam;

  00243	8b 45 58	 mov	 eax, DWORD PTR msg$[rbp+16]
$LN1@wWinMain:

; 86   : }

  00246	48 8b f8	 mov	 rdi, rax
  00249	48 8d 4d d0	 lea	 rcx, QWORD PTR [rbp-48]
  0024d	48 8d 15 00 00
	00 00		 lea	 rdx, OFFSET FLAT:wWinMain$rtcFrameData
  00254	e8 00 00 00 00	 call	 _RTC_CheckStackVars
  00259	48 8b c7	 mov	 rax, rdi
  0025c	48 8b 8d 88 01
	00 00		 mov	 rcx, QWORD PTR __$ArrayPad$[rbp]
  00263	48 33 cd	 xor	 rcx, rbp
  00266	e8 00 00 00 00	 call	 __security_check_cookie
  0026b	48 8d a5 98 01
	00 00		 lea	 rsp, QWORD PTR [rbp+408]
  00272	5f		 pop	 rdi
  00273	5d		 pop	 rbp
  00274	c3		 ret	 0
wWinMain ENDP
_TEXT	ENDS
; Function compile flags: /Odtp /RTCsu /ZI
; File c:\users\arcco\documents\github\framework\client\config\client.cpp
;	COMDAT ?__empty_global_delete@@YAXPEAX_K@Z
_TEXT	SEGMENT
__formal$ = 224
__formal$ = 232
?__empty_global_delete@@YAXPEAX_K@Z PROC		; __empty_global_delete, COMDAT

; 158  : }

$LN3:
  00000	48 89 54 24 10	 mov	 QWORD PTR [rsp+16], rdx
  00005	48 89 4c 24 08	 mov	 QWORD PTR [rsp+8], rcx
  0000a	55		 push	 rbp
  0000b	57		 push	 rdi
  0000c	48 81 ec c8 00
	00 00		 sub	 rsp, 200		; 000000c8H
  00013	48 8b ec	 mov	 rbp, rsp
  00016	48 8b fc	 mov	 rdi, rsp
  00019	b9 32 00 00 00	 mov	 ecx, 50			; 00000032H
  0001e	b8 cc cc cc cc	 mov	 eax, -858993460		; ccccccccH
  00023	f3 ab		 rep stosd
  00025	48 8b 8c 24 e8
	00 00 00	 mov	 rcx, QWORD PTR [rsp+232]
  0002d	48 8d a5 c8 00
	00 00		 lea	 rsp, QWORD PTR [rbp+200]
  00034	5f		 pop	 rdi
  00035	5d		 pop	 rbp
  00036	c3		 ret	 0
?__empty_global_delete@@YAXPEAX_K@Z ENDP		; __empty_global_delete
_TEXT	ENDS
; Function compile flags: /Odtp /RTCsu /ZI
; File c:\users\arcco\documents\github\framework\client\config\client.cpp
;	COMDAT ?__empty_global_delete@@YAXPEAX@Z
_TEXT	SEGMENT
__formal$ = 224
?__empty_global_delete@@YAXPEAX@Z PROC			; __empty_global_delete, COMDAT

; 158  : }

$LN3:
  00000	48 89 4c 24 08	 mov	 QWORD PTR [rsp+8], rcx
  00005	55		 push	 rbp
  00006	57		 push	 rdi
  00007	48 81 ec c8 00
	00 00		 sub	 rsp, 200		; 000000c8H
  0000e	48 8b ec	 mov	 rbp, rsp
  00011	48 8b fc	 mov	 rdi, rsp
  00014	b9 32 00 00 00	 mov	 ecx, 50			; 00000032H
  00019	b8 cc cc cc cc	 mov	 eax, -858993460		; ccccccccH
  0001e	f3 ab		 rep stosd
  00020	48 8b 8c 24 e8
	00 00 00	 mov	 rcx, QWORD PTR [rsp+232]
  00028	48 8d a5 c8 00
	00 00		 lea	 rsp, QWORD PTR [rbp+200]
  0002f	5f		 pop	 rdi
  00030	5d		 pop	 rbp
  00031	c3		 ret	 0
?__empty_global_delete@@YAXPEAX@Z ENDP			; __empty_global_delete
_TEXT	ENDS
; Function compile flags: /Odtp /RTCsu /ZI
;	COMDAT ??_H@YAXPEAX_K1P6APEAX0@Z@Z
_TEXT	SEGMENT
tv66 = 192
tv67 = 200
__t$ = 240
__s$ = 248
__n$ = 256
__f$ = 264
??_H@YAXPEAX_K1P6APEAX0@Z@Z PROC			; `vector constructor iterator', COMDAT
$LN7:
  00000	4c 89 4c 24 20	 mov	 QWORD PTR [rsp+32], r9
  00005	4c 89 44 24 18	 mov	 QWORD PTR [rsp+24], r8
  0000a	48 89 54 24 10	 mov	 QWORD PTR [rsp+16], rdx
  0000f	48 89 4c 24 08	 mov	 QWORD PTR [rsp+8], rcx
  00014	55		 push	 rbp
  00015	57		 push	 rdi
  00016	48 81 ec f8 00
	00 00		 sub	 rsp, 248		; 000000f8H
  0001d	48 8d 6c 24 20	 lea	 rbp, QWORD PTR [rsp+32]
  00022	48 8b fc	 mov	 rdi, rsp
  00025	b9 3e 00 00 00	 mov	 ecx, 62			; 0000003eH
  0002a	b8 cc cc cc cc	 mov	 eax, -858993460		; ccccccccH
  0002f	f3 ab		 rep stosd
  00031	48 8b 8c 24 18
	01 00 00	 mov	 rcx, QWORD PTR [rsp+280]
$LN2@vector:
  00039	48 8b 85 00 01
	00 00		 mov	 rax, QWORD PTR __n$[rbp]
  00040	48 89 85 c0 00
	00 00		 mov	 QWORD PTR tv66[rbp], rax
  00047	48 8b 85 00 01
	00 00		 mov	 rax, QWORD PTR __n$[rbp]
  0004e	48 ff c8	 dec	 rax
  00051	48 89 85 00 01
	00 00		 mov	 QWORD PTR __n$[rbp], rax
  00058	48 83 bd c0 00
	00 00 00	 cmp	 QWORD PTR tv66[rbp], 0
  00060	76 0c		 jbe	 SHORT $LN5@vector
  00062	c7 85 c8 00 00
	00 01 00 00 00	 mov	 DWORD PTR tv67[rbp], 1
  0006c	eb 0a		 jmp	 SHORT $LN6@vector
$LN5@vector:
  0006e	c7 85 c8 00 00
	00 00 00 00 00	 mov	 DWORD PTR tv67[rbp], 0
$LN6@vector:
  00078	83 bd c8 00 00
	00 00		 cmp	 DWORD PTR tv67[rbp], 0
  0007f	74 2a		 je	 SHORT $LN3@vector
  00081	48 8b 8d f0 00
	00 00		 mov	 rcx, QWORD PTR __t$[rbp]
  00088	ff 95 08 01 00
	00		 call	 QWORD PTR __f$[rbp]
  0008e	48 8b 85 f8 00
	00 00		 mov	 rax, QWORD PTR __s$[rbp]
  00095	48 8b 8d f0 00
	00 00		 mov	 rcx, QWORD PTR __t$[rbp]
  0009c	48 03 c8	 add	 rcx, rax
  0009f	48 8b c1	 mov	 rax, rcx
  000a2	48 89 85 f0 00
	00 00		 mov	 QWORD PTR __t$[rbp], rax
  000a9	eb 8e		 jmp	 SHORT $LN2@vector
$LN3@vector:
  000ab	48 8d a5 d8 00
	00 00		 lea	 rsp, QWORD PTR [rbp+216]
  000b2	5f		 pop	 rdi
  000b3	5d		 pop	 rbp
  000b4	c3		 ret	 0
??_H@YAXPEAX_K1P6APEAX0@Z@Z ENDP			; `vector constructor iterator'
_TEXT	ENDS
END
