; Listing generated by Microsoft (R) Optimizing Compiler Version 19.00.24245.0 

include listing.inc

INCLUDELIB MSVCRTD
INCLUDELIB OLDNAMES

PUBLIC	??0CCommandSystem@@QEAA@XZ			; CCommandSystem::CCommandSystem
PUBLIC	??1CCommandSystem@@QEAA@XZ			; CCommandSystem::~CCommandSystem
EXTRN	_RTC_InitBase:PROC
EXTRN	_RTC_Shutdown:PROC
;	COMDAT pdata
pdata	SEGMENT
$pdata$??0CCommandSystem@@QEAA@XZ DD imagerel $LN3
	DD	imagerel $LN3+57
	DD	imagerel $unwind$??0CCommandSystem@@QEAA@XZ
pdata	ENDS
;	COMDAT pdata
pdata	SEGMENT
$pdata$??1CCommandSystem@@QEAA@XZ DD imagerel $LN3
	DD	imagerel $LN3+50
	DD	imagerel $unwind$??1CCommandSystem@@QEAA@XZ
pdata	ENDS
;	COMDAT rtc$TMZ
rtc$TMZ	SEGMENT
_RTC_Shutdown.rtc$TMZ DQ FLAT:_RTC_Shutdown
rtc$TMZ	ENDS
;	COMDAT rtc$IMZ
rtc$IMZ	SEGMENT
_RTC_InitBase.rtc$IMZ DQ FLAT:_RTC_InitBase
rtc$IMZ	ENDS
;	COMDAT xdata
xdata	SEGMENT
$unwind$??1CCommandSystem@@QEAA@XZ DD 05052801H
	DD	010e0311H
	DD	070070019H
	DD	05006H
xdata	ENDS
;	COMDAT xdata
xdata	SEGMENT
$unwind$??0CCommandSystem@@QEAA@XZ DD 05052801H
	DD	010e0311H
	DD	070070019H
	DD	05006H
xdata	ENDS
; Function compile flags: /Odtp /RTCsu /ZI
; File c:\github\framework\client\private\commandsystem.cpp
;	COMDAT ??1CCommandSystem@@QEAA@XZ
_TEXT	SEGMENT
this$ = 224
??1CCommandSystem@@QEAA@XZ PROC				; CCommandSystem::~CCommandSystem, COMDAT

; 11   : {

$LN3:
  00000	48 89 4c 24 08	 mov	 QWORD PTR [rsp+8], rcx
  00005	55		 push	 rbp
  00006	57		 push	 rdi
  00007	48 81 ec c8 00
	00 00		 sub	 rsp, 200		; 000000c8H
  0000e	48 8b ec	 mov	 rbp, rsp
  00011	48 8b fc	 mov	 rdi, rsp
  00014	b9 32 00 00 00	 mov	 ecx, 50			; 00000032H
  00019	b8 cc cc cc cc	 mov	 eax, -858993460		; ccccccccH
  0001e	f3 ab		 rep stosd
  00020	48 8b 8c 24 e8
	00 00 00	 mov	 rcx, QWORD PTR [rsp+232]

; 12   : }

  00028	48 8d a5 c8 00
	00 00		 lea	 rsp, QWORD PTR [rbp+200]
  0002f	5f		 pop	 rdi
  00030	5d		 pop	 rbp
  00031	c3		 ret	 0
??1CCommandSystem@@QEAA@XZ ENDP				; CCommandSystem::~CCommandSystem
_TEXT	ENDS
; Function compile flags: /Odtp /RTCsu /ZI
; File c:\github\framework\client\private\commandsystem.cpp
;	COMDAT ??0CCommandSystem@@QEAA@XZ
_TEXT	SEGMENT
this$ = 224
??0CCommandSystem@@QEAA@XZ PROC				; CCommandSystem::CCommandSystem, COMDAT

; 6    : {

$LN3:
  00000	48 89 4c 24 08	 mov	 QWORD PTR [rsp+8], rcx
  00005	55		 push	 rbp
  00006	57		 push	 rdi
  00007	48 81 ec c8 00
	00 00		 sub	 rsp, 200		; 000000c8H
  0000e	48 8b ec	 mov	 rbp, rsp
  00011	48 8b fc	 mov	 rdi, rsp
  00014	b9 32 00 00 00	 mov	 ecx, 50			; 00000032H
  00019	b8 cc cc cc cc	 mov	 eax, -858993460		; ccccccccH
  0001e	f3 ab		 rep stosd
  00020	48 8b 8c 24 e8
	00 00 00	 mov	 rcx, QWORD PTR [rsp+232]

; 7    : }

  00028	48 8b 85 e0 00
	00 00		 mov	 rax, QWORD PTR this$[rbp]
  0002f	48 8d a5 c8 00
	00 00		 lea	 rsp, QWORD PTR [rbp+200]
  00036	5f		 pop	 rdi
  00037	5d		 pop	 rbp
  00038	c3		 ret	 0
??0CCommandSystem@@QEAA@XZ ENDP				; CCommandSystem::CCommandSystem
_TEXT	ENDS
END
