; Listing generated by Microsoft (R) Optimizing Compiler Version 19.00.24245.0 

include listing.inc

INCLUDELIB MSVCRTD
INCLUDELIB OLDNAMES

PUBLIC	?s_iCount@CEnemy@Client@@0IA			; Client::CEnemy::s_iCount
PUBLIC	?AliceBlue@Colors@DirectX@@3UXMVECTORF32@2@B	; DirectX::Colors::AliceBlue
PUBLIC	?AntiqueWhite@Colors@DirectX@@3UXMVECTORF32@2@B	; DirectX::Colors::AntiqueWhite
PUBLIC	?Aqua@Colors@DirectX@@3UXMVECTORF32@2@B		; DirectX::Colors::Aqua
PUBLIC	?Aquamarine@Colors@DirectX@@3UXMVECTORF32@2@B	; DirectX::Colors::Aquamarine
PUBLIC	?Azure@Colors@DirectX@@3UXMVECTORF32@2@B	; DirectX::Colors::Azure
PUBLIC	?Beige@Colors@DirectX@@3UXMVECTORF32@2@B	; DirectX::Colors::Beige
PUBLIC	?Bisque@Colors@DirectX@@3UXMVECTORF32@2@B	; DirectX::Colors::Bisque
PUBLIC	?Black@Colors@DirectX@@3UXMVECTORF32@2@B	; DirectX::Colors::Black
PUBLIC	?BlanchedAlmond@Colors@DirectX@@3UXMVECTORF32@2@B ; DirectX::Colors::BlanchedAlmond
PUBLIC	?Blue@Colors@DirectX@@3UXMVECTORF32@2@B		; DirectX::Colors::Blue
PUBLIC	?BlueViolet@Colors@DirectX@@3UXMVECTORF32@2@B	; DirectX::Colors::BlueViolet
PUBLIC	?Brown@Colors@DirectX@@3UXMVECTORF32@2@B	; DirectX::Colors::Brown
PUBLIC	?BurlyWood@Colors@DirectX@@3UXMVECTORF32@2@B	; DirectX::Colors::BurlyWood
PUBLIC	?CadetBlue@Colors@DirectX@@3UXMVECTORF32@2@B	; DirectX::Colors::CadetBlue
PUBLIC	?Chartreuse@Colors@DirectX@@3UXMVECTORF32@2@B	; DirectX::Colors::Chartreuse
PUBLIC	?Chocolate@Colors@DirectX@@3UXMVECTORF32@2@B	; DirectX::Colors::Chocolate
PUBLIC	?Coral@Colors@DirectX@@3UXMVECTORF32@2@B	; DirectX::Colors::Coral
PUBLIC	?CornflowerBlue@Colors@DirectX@@3UXMVECTORF32@2@B ; DirectX::Colors::CornflowerBlue
PUBLIC	?Cornsilk@Colors@DirectX@@3UXMVECTORF32@2@B	; DirectX::Colors::Cornsilk
PUBLIC	?Crimson@Colors@DirectX@@3UXMVECTORF32@2@B	; DirectX::Colors::Crimson
PUBLIC	?Cyan@Colors@DirectX@@3UXMVECTORF32@2@B		; DirectX::Colors::Cyan
PUBLIC	?DarkBlue@Colors@DirectX@@3UXMVECTORF32@2@B	; DirectX::Colors::DarkBlue
PUBLIC	?DarkCyan@Colors@DirectX@@3UXMVECTORF32@2@B	; DirectX::Colors::DarkCyan
PUBLIC	?DarkGoldenrod@Colors@DirectX@@3UXMVECTORF32@2@B ; DirectX::Colors::DarkGoldenrod
PUBLIC	?DarkGray@Colors@DirectX@@3UXMVECTORF32@2@B	; DirectX::Colors::DarkGray
PUBLIC	?DarkGreen@Colors@DirectX@@3UXMVECTORF32@2@B	; DirectX::Colors::DarkGreen
PUBLIC	?DarkKhaki@Colors@DirectX@@3UXMVECTORF32@2@B	; DirectX::Colors::DarkKhaki
PUBLIC	?DarkMagenta@Colors@DirectX@@3UXMVECTORF32@2@B	; DirectX::Colors::DarkMagenta
PUBLIC	?DarkOliveGreen@Colors@DirectX@@3UXMVECTORF32@2@B ; DirectX::Colors::DarkOliveGreen
PUBLIC	?DarkOrange@Colors@DirectX@@3UXMVECTORF32@2@B	; DirectX::Colors::DarkOrange
PUBLIC	?DarkOrchid@Colors@DirectX@@3UXMVECTORF32@2@B	; DirectX::Colors::DarkOrchid
PUBLIC	?DarkRed@Colors@DirectX@@3UXMVECTORF32@2@B	; DirectX::Colors::DarkRed
PUBLIC	?DarkSalmon@Colors@DirectX@@3UXMVECTORF32@2@B	; DirectX::Colors::DarkSalmon
PUBLIC	?DarkSeaGreen@Colors@DirectX@@3UXMVECTORF32@2@B	; DirectX::Colors::DarkSeaGreen
PUBLIC	?DarkSlateBlue@Colors@DirectX@@3UXMVECTORF32@2@B ; DirectX::Colors::DarkSlateBlue
PUBLIC	?DarkSlateGray@Colors@DirectX@@3UXMVECTORF32@2@B ; DirectX::Colors::DarkSlateGray
PUBLIC	?DarkTurquoise@Colors@DirectX@@3UXMVECTORF32@2@B ; DirectX::Colors::DarkTurquoise
PUBLIC	?DarkViolet@Colors@DirectX@@3UXMVECTORF32@2@B	; DirectX::Colors::DarkViolet
PUBLIC	?DeepPink@Colors@DirectX@@3UXMVECTORF32@2@B	; DirectX::Colors::DeepPink
PUBLIC	?DeepSkyBlue@Colors@DirectX@@3UXMVECTORF32@2@B	; DirectX::Colors::DeepSkyBlue
PUBLIC	?DimGray@Colors@DirectX@@3UXMVECTORF32@2@B	; DirectX::Colors::DimGray
PUBLIC	?DodgerBlue@Colors@DirectX@@3UXMVECTORF32@2@B	; DirectX::Colors::DodgerBlue
PUBLIC	?Firebrick@Colors@DirectX@@3UXMVECTORF32@2@B	; DirectX::Colors::Firebrick
PUBLIC	?FloralWhite@Colors@DirectX@@3UXMVECTORF32@2@B	; DirectX::Colors::FloralWhite
PUBLIC	?ForestGreen@Colors@DirectX@@3UXMVECTORF32@2@B	; DirectX::Colors::ForestGreen
PUBLIC	?Fuchsia@Colors@DirectX@@3UXMVECTORF32@2@B	; DirectX::Colors::Fuchsia
PUBLIC	?Gainsboro@Colors@DirectX@@3UXMVECTORF32@2@B	; DirectX::Colors::Gainsboro
PUBLIC	?GhostWhite@Colors@DirectX@@3UXMVECTORF32@2@B	; DirectX::Colors::GhostWhite
PUBLIC	?Gold@Colors@DirectX@@3UXMVECTORF32@2@B		; DirectX::Colors::Gold
PUBLIC	?Goldenrod@Colors@DirectX@@3UXMVECTORF32@2@B	; DirectX::Colors::Goldenrod
PUBLIC	?Gray@Colors@DirectX@@3UXMVECTORF32@2@B		; DirectX::Colors::Gray
PUBLIC	?Green@Colors@DirectX@@3UXMVECTORF32@2@B	; DirectX::Colors::Green
PUBLIC	?GreenYellow@Colors@DirectX@@3UXMVECTORF32@2@B	; DirectX::Colors::GreenYellow
PUBLIC	?Honeydew@Colors@DirectX@@3UXMVECTORF32@2@B	; DirectX::Colors::Honeydew
PUBLIC	?HotPink@Colors@DirectX@@3UXMVECTORF32@2@B	; DirectX::Colors::HotPink
PUBLIC	?IndianRed@Colors@DirectX@@3UXMVECTORF32@2@B	; DirectX::Colors::IndianRed
PUBLIC	?Indigo@Colors@DirectX@@3UXMVECTORF32@2@B	; DirectX::Colors::Indigo
PUBLIC	?Ivory@Colors@DirectX@@3UXMVECTORF32@2@B	; DirectX::Colors::Ivory
PUBLIC	?Khaki@Colors@DirectX@@3UXMVECTORF32@2@B	; DirectX::Colors::Khaki
PUBLIC	?Lavender@Colors@DirectX@@3UXMVECTORF32@2@B	; DirectX::Colors::Lavender
PUBLIC	?LavenderBlush@Colors@DirectX@@3UXMVECTORF32@2@B ; DirectX::Colors::LavenderBlush
PUBLIC	?LawnGreen@Colors@DirectX@@3UXMVECTORF32@2@B	; DirectX::Colors::LawnGreen
PUBLIC	?LemonChiffon@Colors@DirectX@@3UXMVECTORF32@2@B	; DirectX::Colors::LemonChiffon
PUBLIC	?LightBlue@Colors@DirectX@@3UXMVECTORF32@2@B	; DirectX::Colors::LightBlue
PUBLIC	?LightCoral@Colors@DirectX@@3UXMVECTORF32@2@B	; DirectX::Colors::LightCoral
PUBLIC	?LightCyan@Colors@DirectX@@3UXMVECTORF32@2@B	; DirectX::Colors::LightCyan
PUBLIC	?LightGoldenrodYellow@Colors@DirectX@@3UXMVECTORF32@2@B ; DirectX::Colors::LightGoldenrodYellow
PUBLIC	?LightGreen@Colors@DirectX@@3UXMVECTORF32@2@B	; DirectX::Colors::LightGreen
PUBLIC	?LightGray@Colors@DirectX@@3UXMVECTORF32@2@B	; DirectX::Colors::LightGray
PUBLIC	?LightPink@Colors@DirectX@@3UXMVECTORF32@2@B	; DirectX::Colors::LightPink
PUBLIC	?LightSalmon@Colors@DirectX@@3UXMVECTORF32@2@B	; DirectX::Colors::LightSalmon
PUBLIC	?LightSeaGreen@Colors@DirectX@@3UXMVECTORF32@2@B ; DirectX::Colors::LightSeaGreen
PUBLIC	?LightSkyBlue@Colors@DirectX@@3UXMVECTORF32@2@B	; DirectX::Colors::LightSkyBlue
PUBLIC	?LightSlateGray@Colors@DirectX@@3UXMVECTORF32@2@B ; DirectX::Colors::LightSlateGray
PUBLIC	?LightSteelBlue@Colors@DirectX@@3UXMVECTORF32@2@B ; DirectX::Colors::LightSteelBlue
PUBLIC	?LightYellow@Colors@DirectX@@3UXMVECTORF32@2@B	; DirectX::Colors::LightYellow
PUBLIC	?Lime@Colors@DirectX@@3UXMVECTORF32@2@B		; DirectX::Colors::Lime
PUBLIC	?LimeGreen@Colors@DirectX@@3UXMVECTORF32@2@B	; DirectX::Colors::LimeGreen
PUBLIC	?Linen@Colors@DirectX@@3UXMVECTORF32@2@B	; DirectX::Colors::Linen
PUBLIC	?Magenta@Colors@DirectX@@3UXMVECTORF32@2@B	; DirectX::Colors::Magenta
PUBLIC	?Maroon@Colors@DirectX@@3UXMVECTORF32@2@B	; DirectX::Colors::Maroon
PUBLIC	?MediumAquamarine@Colors@DirectX@@3UXMVECTORF32@2@B ; DirectX::Colors::MediumAquamarine
PUBLIC	?MediumBlue@Colors@DirectX@@3UXMVECTORF32@2@B	; DirectX::Colors::MediumBlue
PUBLIC	?MediumOrchid@Colors@DirectX@@3UXMVECTORF32@2@B	; DirectX::Colors::MediumOrchid
PUBLIC	?MediumPurple@Colors@DirectX@@3UXMVECTORF32@2@B	; DirectX::Colors::MediumPurple
PUBLIC	?MediumSeaGreen@Colors@DirectX@@3UXMVECTORF32@2@B ; DirectX::Colors::MediumSeaGreen
PUBLIC	?MediumSlateBlue@Colors@DirectX@@3UXMVECTORF32@2@B ; DirectX::Colors::MediumSlateBlue
PUBLIC	?MediumSpringGreen@Colors@DirectX@@3UXMVECTORF32@2@B ; DirectX::Colors::MediumSpringGreen
PUBLIC	?MediumTurquoise@Colors@DirectX@@3UXMVECTORF32@2@B ; DirectX::Colors::MediumTurquoise
PUBLIC	?MediumVioletRed@Colors@DirectX@@3UXMVECTORF32@2@B ; DirectX::Colors::MediumVioletRed
PUBLIC	?MidnightBlue@Colors@DirectX@@3UXMVECTORF32@2@B	; DirectX::Colors::MidnightBlue
PUBLIC	?MintCream@Colors@DirectX@@3UXMVECTORF32@2@B	; DirectX::Colors::MintCream
PUBLIC	?MistyRose@Colors@DirectX@@3UXMVECTORF32@2@B	; DirectX::Colors::MistyRose
PUBLIC	?Moccasin@Colors@DirectX@@3UXMVECTORF32@2@B	; DirectX::Colors::Moccasin
PUBLIC	?NavajoWhite@Colors@DirectX@@3UXMVECTORF32@2@B	; DirectX::Colors::NavajoWhite
PUBLIC	?Navy@Colors@DirectX@@3UXMVECTORF32@2@B		; DirectX::Colors::Navy
PUBLIC	?OldLace@Colors@DirectX@@3UXMVECTORF32@2@B	; DirectX::Colors::OldLace
PUBLIC	?Olive@Colors@DirectX@@3UXMVECTORF32@2@B	; DirectX::Colors::Olive
PUBLIC	?OliveDrab@Colors@DirectX@@3UXMVECTORF32@2@B	; DirectX::Colors::OliveDrab
PUBLIC	?Orange@Colors@DirectX@@3UXMVECTORF32@2@B	; DirectX::Colors::Orange
PUBLIC	?OrangeRed@Colors@DirectX@@3UXMVECTORF32@2@B	; DirectX::Colors::OrangeRed
PUBLIC	?Orchid@Colors@DirectX@@3UXMVECTORF32@2@B	; DirectX::Colors::Orchid
PUBLIC	?PaleGoldenrod@Colors@DirectX@@3UXMVECTORF32@2@B ; DirectX::Colors::PaleGoldenrod
PUBLIC	?PaleGreen@Colors@DirectX@@3UXMVECTORF32@2@B	; DirectX::Colors::PaleGreen
PUBLIC	?PaleTurquoise@Colors@DirectX@@3UXMVECTORF32@2@B ; DirectX::Colors::PaleTurquoise
PUBLIC	?PaleVioletRed@Colors@DirectX@@3UXMVECTORF32@2@B ; DirectX::Colors::PaleVioletRed
PUBLIC	?PapayaWhip@Colors@DirectX@@3UXMVECTORF32@2@B	; DirectX::Colors::PapayaWhip
PUBLIC	?PeachPuff@Colors@DirectX@@3UXMVECTORF32@2@B	; DirectX::Colors::PeachPuff
PUBLIC	?Peru@Colors@DirectX@@3UXMVECTORF32@2@B		; DirectX::Colors::Peru
PUBLIC	?Pink@Colors@DirectX@@3UXMVECTORF32@2@B		; DirectX::Colors::Pink
PUBLIC	?Plum@Colors@DirectX@@3UXMVECTORF32@2@B		; DirectX::Colors::Plum
PUBLIC	?PowderBlue@Colors@DirectX@@3UXMVECTORF32@2@B	; DirectX::Colors::PowderBlue
PUBLIC	?Purple@Colors@DirectX@@3UXMVECTORF32@2@B	; DirectX::Colors::Purple
PUBLIC	?Red@Colors@DirectX@@3UXMVECTORF32@2@B		; DirectX::Colors::Red
PUBLIC	?RosyBrown@Colors@DirectX@@3UXMVECTORF32@2@B	; DirectX::Colors::RosyBrown
PUBLIC	?RoyalBlue@Colors@DirectX@@3UXMVECTORF32@2@B	; DirectX::Colors::RoyalBlue
PUBLIC	?SaddleBrown@Colors@DirectX@@3UXMVECTORF32@2@B	; DirectX::Colors::SaddleBrown
PUBLIC	?Salmon@Colors@DirectX@@3UXMVECTORF32@2@B	; DirectX::Colors::Salmon
PUBLIC	?SandyBrown@Colors@DirectX@@3UXMVECTORF32@2@B	; DirectX::Colors::SandyBrown
PUBLIC	?SeaGreen@Colors@DirectX@@3UXMVECTORF32@2@B	; DirectX::Colors::SeaGreen
PUBLIC	?SeaShell@Colors@DirectX@@3UXMVECTORF32@2@B	; DirectX::Colors::SeaShell
PUBLIC	?Sienna@Colors@DirectX@@3UXMVECTORF32@2@B	; DirectX::Colors::Sienna
PUBLIC	?g_BoxOffset@DirectX@@3QBUXMVECTORF32@1@B	; DirectX::g_BoxOffset
PUBLIC	?Silver@Colors@DirectX@@3UXMVECTORF32@2@B	; DirectX::Colors::Silver
PUBLIC	?g_RayEpsilon@DirectX@@3UXMVECTORF32@1@B	; DirectX::g_RayEpsilon
PUBLIC	?SkyBlue@Colors@DirectX@@3UXMVECTORF32@2@B	; DirectX::Colors::SkyBlue
PUBLIC	?g_RayNegEpsilon@DirectX@@3UXMVECTORF32@1@B	; DirectX::g_RayNegEpsilon
PUBLIC	?SlateBlue@Colors@DirectX@@3UXMVECTORF32@2@B	; DirectX::Colors::SlateBlue
PUBLIC	?g_FltMin@DirectX@@3UXMVECTORF32@1@B		; DirectX::g_FltMin
PUBLIC	?SlateGray@Colors@DirectX@@3UXMVECTORF32@2@B	; DirectX::Colors::SlateGray
PUBLIC	?g_FltMax@DirectX@@3UXMVECTORF32@1@B		; DirectX::g_FltMax
PUBLIC	?Snow@Colors@DirectX@@3UXMVECTORF32@2@B		; DirectX::Colors::Snow
PUBLIC	?SpringGreen@Colors@DirectX@@3UXMVECTORF32@2@B	; DirectX::Colors::SpringGreen
PUBLIC	?SteelBlue@Colors@DirectX@@3UXMVECTORF32@2@B	; DirectX::Colors::SteelBlue
PUBLIC	?Tan@Colors@DirectX@@3UXMVECTORF32@2@B		; DirectX::Colors::Tan
PUBLIC	?Teal@Colors@DirectX@@3UXMVECTORF32@2@B		; DirectX::Colors::Teal
PUBLIC	?Thistle@Colors@DirectX@@3UXMVECTORF32@2@B	; DirectX::Colors::Thistle
PUBLIC	?Tomato@Colors@DirectX@@3UXMVECTORF32@2@B	; DirectX::Colors::Tomato
PUBLIC	?Transparent@Colors@DirectX@@3UXMVECTORF32@2@B	; DirectX::Colors::Transparent
PUBLIC	?Turquoise@Colors@DirectX@@3UXMVECTORF32@2@B	; DirectX::Colors::Turquoise
PUBLIC	?Violet@Colors@DirectX@@3UXMVECTORF32@2@B	; DirectX::Colors::Violet
PUBLIC	?Wheat@Colors@DirectX@@3UXMVECTORF32@2@B	; DirectX::Colors::Wheat
PUBLIC	?White@Colors@DirectX@@3UXMVECTORF32@2@B	; DirectX::Colors::White
PUBLIC	?WhiteSmoke@Colors@DirectX@@3UXMVECTORF32@2@B	; DirectX::Colors::WhiteSmoke
PUBLIC	?Yellow@Colors@DirectX@@3UXMVECTORF32@2@B	; DirectX::Colors::Yellow
PUBLIC	?YellowGreen@Colors@DirectX@@3UXMVECTORF32@2@B	; DirectX::Colors::YellowGreen
PUBLIC	?g_UnitVectorEpsilon@Internal@DirectX@@3UXMVECTORF32@2@B ; DirectX::Internal::g_UnitVectorEpsilon
PUBLIC	?g_UnitQuaternionEpsilon@Internal@DirectX@@3UXMVECTORF32@2@B ; DirectX::Internal::g_UnitQuaternionEpsilon
PUBLIC	?g_UnitPlaneEpsilon@Internal@DirectX@@3UXMVECTORF32@2@B ; DirectX::Internal::g_UnitPlaneEpsilon
PUBLIC	?g_XMSinCoefficients0@DirectX@@3UXMVECTORF32@1@B ; DirectX::g_XMSinCoefficients0
PUBLIC	?g_XMSinCoefficients1@DirectX@@3UXMVECTORF32@1@B ; DirectX::g_XMSinCoefficients1
PUBLIC	?g_XMCosCoefficients0@DirectX@@3UXMVECTORF32@1@B ; DirectX::g_XMCosCoefficients0
PUBLIC	?g_XMCosCoefficients1@DirectX@@3UXMVECTORF32@1@B ; DirectX::g_XMCosCoefficients1
PUBLIC	?g_XMTanCoefficients0@DirectX@@3UXMVECTORF32@1@B ; DirectX::g_XMTanCoefficients0
PUBLIC	?g_XMTanCoefficients1@DirectX@@3UXMVECTORF32@1@B ; DirectX::g_XMTanCoefficients1
PUBLIC	?g_XMTanCoefficients2@DirectX@@3UXMVECTORF32@1@B ; DirectX::g_XMTanCoefficients2
PUBLIC	?g_XMArcCoefficients0@DirectX@@3UXMVECTORF32@1@B ; DirectX::g_XMArcCoefficients0
PUBLIC	?g_XMArcCoefficients1@DirectX@@3UXMVECTORF32@1@B ; DirectX::g_XMArcCoefficients1
PUBLIC	?g_XMATanCoefficients0@DirectX@@3UXMVECTORF32@1@B ; DirectX::g_XMATanCoefficients0
PUBLIC	?g_XMATanCoefficients1@DirectX@@3UXMVECTORF32@1@B ; DirectX::g_XMATanCoefficients1
PUBLIC	?g_XMATanEstCoefficients0@DirectX@@3UXMVECTORF32@1@B ; DirectX::g_XMATanEstCoefficients0
PUBLIC	?g_XMATanEstCoefficients1@DirectX@@3UXMVECTORF32@1@B ; DirectX::g_XMATanEstCoefficients1
PUBLIC	?g_XMTanEstCoefficients@DirectX@@3UXMVECTORF32@1@B ; DirectX::g_XMTanEstCoefficients
PUBLIC	?g_XMArcEstCoefficients@DirectX@@3UXMVECTORF32@1@B ; DirectX::g_XMArcEstCoefficients
PUBLIC	?g_XMPiConstants0@DirectX@@3UXMVECTORF32@1@B	; DirectX::g_XMPiConstants0
PUBLIC	?g_XMIdentityR0@DirectX@@3UXMVECTORF32@1@B	; DirectX::g_XMIdentityR0
PUBLIC	?g_XMIdentityR1@DirectX@@3UXMVECTORF32@1@B	; DirectX::g_XMIdentityR1
PUBLIC	?g_XMIdentityR2@DirectX@@3UXMVECTORF32@1@B	; DirectX::g_XMIdentityR2
PUBLIC	?g_XMIdentityR3@DirectX@@3UXMVECTORF32@1@B	; DirectX::g_XMIdentityR3
PUBLIC	?g_XMNegIdentityR0@DirectX@@3UXMVECTORF32@1@B	; DirectX::g_XMNegIdentityR0
PUBLIC	?g_XMNegIdentityR1@DirectX@@3UXMVECTORF32@1@B	; DirectX::g_XMNegIdentityR1
PUBLIC	?g_XMNegIdentityR2@DirectX@@3UXMVECTORF32@1@B	; DirectX::g_XMNegIdentityR2
PUBLIC	?g_XMNegIdentityR3@DirectX@@3UXMVECTORF32@1@B	; DirectX::g_XMNegIdentityR3
PUBLIC	?g_XMNegativeZero@DirectX@@3UXMVECTORU32@1@B	; DirectX::g_XMNegativeZero
PUBLIC	?g_XMNegate3@DirectX@@3UXMVECTORU32@1@B		; DirectX::g_XMNegate3
PUBLIC	?g_XMMask3@DirectX@@3UXMVECTORU32@1@B		; DirectX::g_XMMask3
PUBLIC	?g_XMMaskX@DirectX@@3UXMVECTORU32@1@B		; DirectX::g_XMMaskX
PUBLIC	?g_XMMaskY@DirectX@@3UXMVECTORU32@1@B		; DirectX::g_XMMaskY
PUBLIC	?g_XMMaskZ@DirectX@@3UXMVECTORU32@1@B		; DirectX::g_XMMaskZ
PUBLIC	?g_XMMaskW@DirectX@@3UXMVECTORU32@1@B		; DirectX::g_XMMaskW
PUBLIC	?g_XMOne@DirectX@@3UXMVECTORF32@1@B		; DirectX::g_XMOne
PUBLIC	?g_XMOne3@DirectX@@3UXMVECTORF32@1@B		; DirectX::g_XMOne3
PUBLIC	?g_XMZero@DirectX@@3UXMVECTORF32@1@B		; DirectX::g_XMZero
PUBLIC	?g_XMTwo@DirectX@@3UXMVECTORF32@1@B		; DirectX::g_XMTwo
PUBLIC	?g_XMFour@DirectX@@3UXMVECTORF32@1@B		; DirectX::g_XMFour
PUBLIC	?g_XMSix@DirectX@@3UXMVECTORF32@1@B		; DirectX::g_XMSix
PUBLIC	?g_XMNegativeOne@DirectX@@3UXMVECTORF32@1@B	; DirectX::g_XMNegativeOne
PUBLIC	?g_XMOneHalf@DirectX@@3UXMVECTORF32@1@B		; DirectX::g_XMOneHalf
PUBLIC	?g_XMNegativeOneHalf@DirectX@@3UXMVECTORF32@1@B	; DirectX::g_XMNegativeOneHalf
PUBLIC	?g_XMNegativeTwoPi@DirectX@@3UXMVECTORF32@1@B	; DirectX::g_XMNegativeTwoPi
PUBLIC	?g_XMNegativePi@DirectX@@3UXMVECTORF32@1@B	; DirectX::g_XMNegativePi
PUBLIC	?g_XMHalfPi@DirectX@@3UXMVECTORF32@1@B		; DirectX::g_XMHalfPi
PUBLIC	?g_XMPi@DirectX@@3UXMVECTORF32@1@B		; DirectX::g_XMPi
PUBLIC	?g_XMReciprocalPi@DirectX@@3UXMVECTORF32@1@B	; DirectX::g_XMReciprocalPi
PUBLIC	?g_XMTwoPi@DirectX@@3UXMVECTORF32@1@B		; DirectX::g_XMTwoPi
PUBLIC	?g_XMReciprocalTwoPi@DirectX@@3UXMVECTORF32@1@B	; DirectX::g_XMReciprocalTwoPi
PUBLIC	?g_XMEpsilon@DirectX@@3UXMVECTORF32@1@B		; DirectX::g_XMEpsilon
PUBLIC	?g_XMInfinity@DirectX@@3UXMVECTORI32@1@B	; DirectX::g_XMInfinity
PUBLIC	?g_XMQNaN@DirectX@@3UXMVECTORI32@1@B		; DirectX::g_XMQNaN
PUBLIC	?g_XMQNaNTest@DirectX@@3UXMVECTORI32@1@B	; DirectX::g_XMQNaNTest
PUBLIC	?g_XMAbsMask@DirectX@@3UXMVECTORI32@1@B		; DirectX::g_XMAbsMask
PUBLIC	?g_XMFltMin@DirectX@@3UXMVECTORI32@1@B		; DirectX::g_XMFltMin
PUBLIC	?g_XMFltMax@DirectX@@3UXMVECTORI32@1@B		; DirectX::g_XMFltMax
PUBLIC	?g_XMNegOneMask@DirectX@@3UXMVECTORU32@1@B	; DirectX::g_XMNegOneMask
PUBLIC	?g_XMMaskA8R8G8B8@DirectX@@3UXMVECTORU32@1@B	; DirectX::g_XMMaskA8R8G8B8
PUBLIC	?g_XMFlipA8R8G8B8@DirectX@@3UXMVECTORU32@1@B	; DirectX::g_XMFlipA8R8G8B8
PUBLIC	?g_XMFixAA8R8G8B8@DirectX@@3UXMVECTORF32@1@B	; DirectX::g_XMFixAA8R8G8B8
PUBLIC	?g_XMNormalizeA8R8G8B8@DirectX@@3UXMVECTORF32@1@B ; DirectX::g_XMNormalizeA8R8G8B8
PUBLIC	?g_XMMaskA2B10G10R10@DirectX@@3UXMVECTORU32@1@B	; DirectX::g_XMMaskA2B10G10R10
PUBLIC	?g_XMFlipA2B10G10R10@DirectX@@3UXMVECTORU32@1@B	; DirectX::g_XMFlipA2B10G10R10
PUBLIC	?g_XMFixAA2B10G10R10@DirectX@@3UXMVECTORF32@1@B	; DirectX::g_XMFixAA2B10G10R10
PUBLIC	?g_XMNormalizeA2B10G10R10@DirectX@@3UXMVECTORF32@1@B ; DirectX::g_XMNormalizeA2B10G10R10
PUBLIC	?g_XMMaskX16Y16@DirectX@@3UXMVECTORU32@1@B	; DirectX::g_XMMaskX16Y16
PUBLIC	?g_XMFlipX16Y16@DirectX@@3UXMVECTORI32@1@B	; DirectX::g_XMFlipX16Y16
PUBLIC	?g_XMFixX16Y16@DirectX@@3UXMVECTORF32@1@B	; DirectX::g_XMFixX16Y16
PUBLIC	?g_XMNormalizeX16Y16@DirectX@@3UXMVECTORF32@1@B	; DirectX::g_XMNormalizeX16Y16
PUBLIC	?g_XMMaskX16Y16Z16W16@DirectX@@3UXMVECTORU32@1@B ; DirectX::g_XMMaskX16Y16Z16W16
PUBLIC	?g_XMFlipX16Y16Z16W16@DirectX@@3UXMVECTORI32@1@B ; DirectX::g_XMFlipX16Y16Z16W16
PUBLIC	?g_XMFixX16Y16Z16W16@DirectX@@3UXMVECTORF32@1@B	; DirectX::g_XMFixX16Y16Z16W16
PUBLIC	?g_XMNormalizeX16Y16Z16W16@DirectX@@3UXMVECTORF32@1@B ; DirectX::g_XMNormalizeX16Y16Z16W16
PUBLIC	?g_XMNoFraction@DirectX@@3UXMVECTORF32@1@B	; DirectX::g_XMNoFraction
PUBLIC	?g_XMMaskByte@DirectX@@3UXMVECTORI32@1@B	; DirectX::g_XMMaskByte
PUBLIC	?g_XMNegateX@DirectX@@3UXMVECTORF32@1@B		; DirectX::g_XMNegateX
PUBLIC	?g_XMNegateY@DirectX@@3UXMVECTORF32@1@B		; DirectX::g_XMNegateY
PUBLIC	?g_XMNegateZ@DirectX@@3UXMVECTORF32@1@B		; DirectX::g_XMNegateZ
PUBLIC	?g_XMNegateW@DirectX@@3UXMVECTORF32@1@B		; DirectX::g_XMNegateW
PUBLIC	?g_XMSelect0101@DirectX@@3UXMVECTORU32@1@B	; DirectX::g_XMSelect0101
PUBLIC	?g_XMSelect1010@DirectX@@3UXMVECTORU32@1@B	; DirectX::g_XMSelect1010
PUBLIC	?g_XMOneHalfMinusEpsilon@DirectX@@3UXMVECTORI32@1@B ; DirectX::g_XMOneHalfMinusEpsilon
PUBLIC	?g_XMSelect1000@DirectX@@3UXMVECTORU32@1@B	; DirectX::g_XMSelect1000
PUBLIC	?g_XMSelect1100@DirectX@@3UXMVECTORU32@1@B	; DirectX::g_XMSelect1100
PUBLIC	?g_XMSelect1110@DirectX@@3UXMVECTORU32@1@B	; DirectX::g_XMSelect1110
PUBLIC	?g_XMSelect1011@DirectX@@3UXMVECTORU32@1@B	; DirectX::g_XMSelect1011
PUBLIC	?g_XMFixupY16@DirectX@@3UXMVECTORF32@1@B	; DirectX::g_XMFixupY16
PUBLIC	?g_XMFixupY16W16@DirectX@@3UXMVECTORF32@1@B	; DirectX::g_XMFixupY16W16
PUBLIC	?g_XMFlipY@DirectX@@3UXMVECTORU32@1@B		; DirectX::g_XMFlipY
PUBLIC	?g_XMFlipZ@DirectX@@3UXMVECTORU32@1@B		; DirectX::g_XMFlipZ
PUBLIC	?g_XMFlipW@DirectX@@3UXMVECTORU32@1@B		; DirectX::g_XMFlipW
PUBLIC	?g_XMFlipYZ@DirectX@@3UXMVECTORU32@1@B		; DirectX::g_XMFlipYZ
PUBLIC	?g_XMFlipZW@DirectX@@3UXMVECTORU32@1@B		; DirectX::g_XMFlipZW
PUBLIC	?g_XMFlipYW@DirectX@@3UXMVECTORU32@1@B		; DirectX::g_XMFlipYW
PUBLIC	?g_XMMaskDec4@DirectX@@3UXMVECTORI32@1@B	; DirectX::g_XMMaskDec4
PUBLIC	?g_XMXorDec4@DirectX@@3UXMVECTORI32@1@B		; DirectX::g_XMXorDec4
PUBLIC	?g_XMAddUDec4@DirectX@@3UXMVECTORF32@1@B	; DirectX::g_XMAddUDec4
PUBLIC	?g_XMAddDec4@DirectX@@3UXMVECTORF32@1@B		; DirectX::g_XMAddDec4
PUBLIC	?g_XMMulDec4@DirectX@@3UXMVECTORF32@1@B		; DirectX::g_XMMulDec4
PUBLIC	?g_XMMaskByte4@DirectX@@3UXMVECTORU32@1@B	; DirectX::g_XMMaskByte4
PUBLIC	?g_XMXorByte4@DirectX@@3UXMVECTORI32@1@B	; DirectX::g_XMXorByte4
PUBLIC	?g_XMAddByte4@DirectX@@3UXMVECTORF32@1@B	; DirectX::g_XMAddByte4
PUBLIC	?g_XMFixUnsigned@DirectX@@3UXMVECTORF32@1@B	; DirectX::g_XMFixUnsigned
PUBLIC	?g_XMMaxInt@DirectX@@3UXMVECTORF32@1@B		; DirectX::g_XMMaxInt
PUBLIC	?g_XMMaxUInt@DirectX@@3UXMVECTORF32@1@B		; DirectX::g_XMMaxUInt
PUBLIC	?g_XMUnsignedFix@DirectX@@3UXMVECTORF32@1@B	; DirectX::g_XMUnsignedFix
PUBLIC	?g_XMsrgbScale@DirectX@@3UXMVECTORF32@1@B	; DirectX::g_XMsrgbScale
PUBLIC	?g_XMsrgbA@DirectX@@3UXMVECTORF32@1@B		; DirectX::g_XMsrgbA
PUBLIC	?g_XMsrgbA1@DirectX@@3UXMVECTORF32@1@B		; DirectX::g_XMsrgbA1
PUBLIC	?g_XMExponentBias@DirectX@@3UXMVECTORI32@1@B	; DirectX::g_XMExponentBias
PUBLIC	?g_XMSubnormalExponent@DirectX@@3UXMVECTORI32@1@B ; DirectX::g_XMSubnormalExponent
PUBLIC	?g_XMNumTrailing@DirectX@@3UXMVECTORI32@1@B	; DirectX::g_XMNumTrailing
PUBLIC	?g_XMMinNormal@DirectX@@3UXMVECTORI32@1@B	; DirectX::g_XMMinNormal
PUBLIC	?g_XMNegInfinity@DirectX@@3UXMVECTORU32@1@B	; DirectX::g_XMNegInfinity
PUBLIC	?g_XMNegQNaN@DirectX@@3UXMVECTORU32@1@B		; DirectX::g_XMNegQNaN
PUBLIC	?g_XMBin128@DirectX@@3UXMVECTORI32@1@B		; DirectX::g_XMBin128
PUBLIC	?g_XMBinNeg150@DirectX@@3UXMVECTORU32@1@B	; DirectX::g_XMBinNeg150
PUBLIC	?g_XM253@DirectX@@3UXMVECTORI32@1@B		; DirectX::g_XM253
PUBLIC	?g_XMExpEst1@DirectX@@3UXMVECTORF32@1@B		; DirectX::g_XMExpEst1
PUBLIC	?g_XMExpEst2@DirectX@@3UXMVECTORF32@1@B		; DirectX::g_XMExpEst2
PUBLIC	?g_XMExpEst3@DirectX@@3UXMVECTORF32@1@B		; DirectX::g_XMExpEst3
PUBLIC	?g_XMExpEst4@DirectX@@3UXMVECTORF32@1@B		; DirectX::g_XMExpEst4
PUBLIC	?g_XMExpEst5@DirectX@@3UXMVECTORF32@1@B		; DirectX::g_XMExpEst5
PUBLIC	?g_XMExpEst6@DirectX@@3UXMVECTORF32@1@B		; DirectX::g_XMExpEst6
PUBLIC	?g_XMExpEst7@DirectX@@3UXMVECTORF32@1@B		; DirectX::g_XMExpEst7
PUBLIC	?g_XMLogEst0@DirectX@@3UXMVECTORF32@1@B		; DirectX::g_XMLogEst0
PUBLIC	?g_XMLogEst1@DirectX@@3UXMVECTORF32@1@B		; DirectX::g_XMLogEst1
PUBLIC	?g_XMLogEst2@DirectX@@3UXMVECTORF32@1@B		; DirectX::g_XMLogEst2
PUBLIC	?g_XMLogEst3@DirectX@@3UXMVECTORF32@1@B		; DirectX::g_XMLogEst3
PUBLIC	?g_XMLogEst4@DirectX@@3UXMVECTORF32@1@B		; DirectX::g_XMLogEst4
PUBLIC	?g_XMLogEst5@DirectX@@3UXMVECTORF32@1@B		; DirectX::g_XMLogEst5
PUBLIC	?g_XMLogEst6@DirectX@@3UXMVECTORF32@1@B		; DirectX::g_XMLogEst6
PUBLIC	?g_XMLogEst7@DirectX@@3UXMVECTORF32@1@B		; DirectX::g_XMLogEst7
PUBLIC	?g_XMLgE@DirectX@@3UXMVECTORF32@1@B		; DirectX::g_XMLgE
PUBLIC	?g_XMInvLgE@DirectX@@3UXMVECTORF32@1@B		; DirectX::g_XMInvLgE
_BSS	SEGMENT
?s_iCount@CEnemy@Client@@0IA DD 01H DUP (?)		; Client::CEnemy::s_iCount
_BSS	ENDS
;	COMDAT ?g_XMInvLgE@DirectX@@3UXMVECTORF32@1@B
CONST	SEGMENT
?g_XMInvLgE@DirectX@@3UXMVECTORF32@1@B DD 03f317218r ; 0.693147 ; DirectX::g_XMInvLgE
	DD	03f317218r			; 0.693147
	DD	03f317218r			; 0.693147
	DD	03f317218r			; 0.693147
CONST	ENDS
;	COMDAT ?g_XMLgE@DirectX@@3UXMVECTORF32@1@B
CONST	SEGMENT
?g_XMLgE@DirectX@@3UXMVECTORF32@1@B DD 03fb8aa3br ; 1.4427 ; DirectX::g_XMLgE
	DD	03fb8aa3br			; 1.4427
	DD	03fb8aa3br			; 1.4427
	DD	03fb8aa3br			; 1.4427
CONST	ENDS
;	COMDAT ?g_XMLogEst7@DirectX@@3UXMVECTORF32@1@B
CONST	SEGMENT
?g_XMLogEst7@DirectX@@3UXMVECTORF32@1@B DD 0bc2d4f59r ; -0.010578 ; DirectX::g_XMLogEst7
	DD	0bc2d4f59r			; -0.010578
	DD	0bc2d4f59r			; -0.010578
	DD	0bc2d4f59r			; -0.010578
CONST	ENDS
;	COMDAT ?g_XMLogEst6@DirectX@@3UXMVECTORF32@1@B
CONST	SEGMENT
?g_XMLogEst6@DirectX@@3UXMVECTORF32@1@B DD 03d6a1405r ; 0.057148 ; DirectX::g_XMLogEst6
	DD	03d6a1405r			; 0.057148
	DD	03d6a1405r			; 0.057148
	DD	03d6a1405r			; 0.057148
CONST	ENDS
;	COMDAT ?g_XMLogEst5@DirectX@@3UXMVECTORF32@1@B
CONST	SEGMENT
?g_XMLogEst5@DirectX@@3UXMVECTORF32@1@B DD 0be153261r ; -0.1457 ; DirectX::g_XMLogEst5
	DD	0be153261r			; -0.1457
	DD	0be153261r			; -0.1457
	DD	0be153261r			; -0.1457
CONST	ENDS
;	COMDAT ?g_XMLogEst4@DirectX@@3UXMVECTORF32@1@B
CONST	SEGMENT
?g_XMLogEst4@DirectX@@3UXMVECTORF32@1@B DD 03e7e8e61r ; 0.24859 ; DirectX::g_XMLogEst4
	DD	03e7e8e61r			; 0.24859
	DD	03e7e8e61r			; 0.24859
	DD	03e7e8e61r			; 0.24859
CONST	ENDS
;	COMDAT ?g_XMLogEst3@DirectX@@3UXMVECTORF32@1@B
CONST	SEGMENT
?g_XMLogEst3@DirectX@@3UXMVECTORF32@1@B DD 0beb359der ; -0.350295 ; DirectX::g_XMLogEst3
	DD	0beb359der			; -0.350295
	DD	0beb359der			; -0.350295
	DD	0beb359der			; -0.350295
CONST	ENDS
;	COMDAT ?g_XMLogEst2@DirectX@@3UXMVECTORF32@1@B
CONST	SEGMENT
?g_XMLogEst2@DirectX@@3UXMVECTORF32@1@B DD 03ef571d2r ; 0.479384 ; DirectX::g_XMLogEst2
	DD	03ef571d2r			; 0.479384
	DD	03ef571d2r			; 0.479384
	DD	03ef571d2r			; 0.479384
CONST	ENDS
;	COMDAT ?g_XMLogEst1@DirectX@@3UXMVECTORF32@1@B
CONST	SEGMENT
?g_XMLogEst1@DirectX@@3UXMVECTORF32@1@B DD 0bf38a351r ; -0.721242 ; DirectX::g_XMLogEst1
	DD	0bf38a351r			; -0.721242
	DD	0bf38a351r			; -0.721242
	DD	0bf38a351r			; -0.721242
CONST	ENDS
;	COMDAT ?g_XMLogEst0@DirectX@@3UXMVECTORF32@1@B
CONST	SEGMENT
?g_XMLogEst0@DirectX@@3UXMVECTORF32@1@B DD 03fb8aa2ar ; 1.44269 ; DirectX::g_XMLogEst0
	DD	03fb8aa2ar			; 1.44269
	DD	03fb8aa2ar			; 1.44269
	DD	03fb8aa2ar			; 1.44269
CONST	ENDS
;	COMDAT ?g_XMExpEst7@DirectX@@3UXMVECTORF32@1@B
CONST	SEGMENT
?g_XMExpEst7@DirectX@@3UXMVECTORF32@1@B DD 0b7364261r ; -1.08635e-05 ; DirectX::g_XMExpEst7
	DD	0b7364261r			; -1.08635e-05
	DD	0b7364261r			; -1.08635e-05
	DD	0b7364261r			; -1.08635e-05
CONST	ENDS
;	COMDAT ?g_XMExpEst6@DirectX@@3UXMVECTORF32@1@B
CONST	SEGMENT
?g_XMExpEst6@DirectX@@3UXMVECTORF32@1@B DD 0391aa7d7r ; 0.000147491 ; DirectX::g_XMExpEst6
	DD	0391aa7d7r			; 0.000147491
	DD	0391aa7d7r			; 0.000147491
	DD	0391aa7d7r			; 0.000147491
CONST	ENDS
;	COMDAT ?g_XMExpEst5@DirectX@@3UXMVECTORF32@1@B
CONST	SEGMENT
?g_XMExpEst5@DirectX@@3UXMVECTORF32@1@B DD 0baae1854r ; -0.00132824 ; DirectX::g_XMExpEst5
	DD	0baae1854r			; -0.00132824
	DD	0baae1854r			; -0.00132824
	DD	0baae1854r			; -0.00132824
CONST	ENDS
;	COMDAT ?g_XMExpEst4@DirectX@@3UXMVECTORF32@1@B
CONST	SEGMENT
?g_XMExpEst4@DirectX@@3UXMVECTORF32@1@B DD 03c1d8c54r ; 0.00961598 ; DirectX::g_XMExpEst4
	DD	03c1d8c54r			; 0.00961598
	DD	03c1d8c54r			; 0.00961598
	DD	03c1d8c54r			; 0.00961598
CONST	ENDS
;	COMDAT ?g_XMExpEst3@DirectX@@3UXMVECTORF32@1@B
CONST	SEGMENT
?g_XMExpEst3@DirectX@@3UXMVECTORF32@1@B DD 0bd6357car ; -0.0555036 ; DirectX::g_XMExpEst3
	DD	0bd6357car			; -0.0555036
	DD	0bd6357car			; -0.0555036
	DD	0bd6357car			; -0.0555036
CONST	ENDS
;	COMDAT ?g_XMExpEst2@DirectX@@3UXMVECTORF32@1@B
CONST	SEGMENT
?g_XMExpEst2@DirectX@@3UXMVECTORF32@1@B DD 03e75fdedr ; 0.240226 ; DirectX::g_XMExpEst2
	DD	03e75fdedr			; 0.240226
	DD	03e75fdedr			; 0.240226
	DD	03e75fdedr			; 0.240226
CONST	ENDS
;	COMDAT ?g_XMExpEst1@DirectX@@3UXMVECTORF32@1@B
CONST	SEGMENT
?g_XMExpEst1@DirectX@@3UXMVECTORF32@1@B DD 0bf317218r ; -0.693147 ; DirectX::g_XMExpEst1
	DD	0bf317218r			; -0.693147
	DD	0bf317218r			; -0.693147
	DD	0bf317218r			; -0.693147
CONST	ENDS
;	COMDAT ?g_XM253@DirectX@@3UXMVECTORI32@1@B
CONST	SEGMENT
?g_XM253@DirectX@@3UXMVECTORI32@1@B DD 0fdH		; DirectX::g_XM253
	DD	0fdH
	DD	0fdH
	DD	0fdH
CONST	ENDS
;	COMDAT ?g_XMBinNeg150@DirectX@@3UXMVECTORU32@1@B
CONST	SEGMENT
?g_XMBinNeg150@DirectX@@3UXMVECTORU32@1@B DD 0c3160000H	; DirectX::g_XMBinNeg150
	DD	0c3160000H
	DD	0c3160000H
	DD	0c3160000H
CONST	ENDS
;	COMDAT ?g_XMBin128@DirectX@@3UXMVECTORI32@1@B
CONST	SEGMENT
?g_XMBin128@DirectX@@3UXMVECTORI32@1@B DD 043000000H	; DirectX::g_XMBin128
	DD	043000000H
	DD	043000000H
	DD	043000000H
CONST	ENDS
;	COMDAT ?g_XMNegQNaN@DirectX@@3UXMVECTORU32@1@B
CONST	SEGMENT
?g_XMNegQNaN@DirectX@@3UXMVECTORU32@1@B DD 0ffc00000H	; DirectX::g_XMNegQNaN
	DD	0ffc00000H
	DD	0ffc00000H
	DD	0ffc00000H
CONST	ENDS
;	COMDAT ?g_XMNegInfinity@DirectX@@3UXMVECTORU32@1@B
CONST	SEGMENT
?g_XMNegInfinity@DirectX@@3UXMVECTORU32@1@B DD 0ff800000H ; DirectX::g_XMNegInfinity
	DD	0ff800000H
	DD	0ff800000H
	DD	0ff800000H
CONST	ENDS
;	COMDAT ?g_XMMinNormal@DirectX@@3UXMVECTORI32@1@B
CONST	SEGMENT
?g_XMMinNormal@DirectX@@3UXMVECTORI32@1@B DD 0800000H	; DirectX::g_XMMinNormal
	DD	0800000H
	DD	0800000H
	DD	0800000H
CONST	ENDS
;	COMDAT ?g_XMNumTrailing@DirectX@@3UXMVECTORI32@1@B
CONST	SEGMENT
?g_XMNumTrailing@DirectX@@3UXMVECTORI32@1@B DD 017H	; DirectX::g_XMNumTrailing
	DD	017H
	DD	017H
	DD	017H
CONST	ENDS
;	COMDAT ?g_XMSubnormalExponent@DirectX@@3UXMVECTORI32@1@B
CONST	SEGMENT
?g_XMSubnormalExponent@DirectX@@3UXMVECTORI32@1@B DD 0ffffff82H ; DirectX::g_XMSubnormalExponent
	DD	0ffffff82H
	DD	0ffffff82H
	DD	0ffffff82H
CONST	ENDS
;	COMDAT ?g_XMExponentBias@DirectX@@3UXMVECTORI32@1@B
CONST	SEGMENT
?g_XMExponentBias@DirectX@@3UXMVECTORI32@1@B DD 07fH	; DirectX::g_XMExponentBias
	DD	07fH
	DD	07fH
	DD	07fH
CONST	ENDS
;	COMDAT ?g_XMsrgbA1@DirectX@@3UXMVECTORF32@1@B
CONST	SEGMENT
?g_XMsrgbA1@DirectX@@3UXMVECTORF32@1@B DD 03f870a3dr ; 1.055 ; DirectX::g_XMsrgbA1
	DD	03f870a3dr			; 1.055
	DD	03f870a3dr			; 1.055
	DD	03f800000r			; 1
CONST	ENDS
;	COMDAT ?g_XMsrgbA@DirectX@@3UXMVECTORF32@1@B
CONST	SEGMENT
?g_XMsrgbA@DirectX@@3UXMVECTORF32@1@B DD 03d6147aer ; 0.055 ; DirectX::g_XMsrgbA
	DD	03d6147aer			; 0.055
	DD	03d6147aer			; 0.055
	DD	000000000r			; 0
CONST	ENDS
;	COMDAT ?g_XMsrgbScale@DirectX@@3UXMVECTORF32@1@B
CONST	SEGMENT
?g_XMsrgbScale@DirectX@@3UXMVECTORF32@1@B DD 0414eb852r ; 12.92 ; DirectX::g_XMsrgbScale
	DD	0414eb852r			; 12.92
	DD	0414eb852r			; 12.92
	DD	03f800000r			; 1
CONST	ENDS
;	COMDAT ?g_XMUnsignedFix@DirectX@@3UXMVECTORF32@1@B
CONST	SEGMENT
?g_XMUnsignedFix@DirectX@@3UXMVECTORF32@1@B DD 04f000000r ; 2.14748e+09 ; DirectX::g_XMUnsignedFix
	DD	04f000000r			; 2.14748e+09
	DD	04f000000r			; 2.14748e+09
	DD	04f000000r			; 2.14748e+09
CONST	ENDS
;	COMDAT ?g_XMMaxUInt@DirectX@@3UXMVECTORF32@1@B
CONST	SEGMENT
?g_XMMaxUInt@DirectX@@3UXMVECTORF32@1@B DD 04f7fffffr ; 4.29497e+09 ; DirectX::g_XMMaxUInt
	DD	04f7fffffr			; 4.29497e+09
	DD	04f7fffffr			; 4.29497e+09
	DD	04f7fffffr			; 4.29497e+09
CONST	ENDS
;	COMDAT ?g_XMMaxInt@DirectX@@3UXMVECTORF32@1@B
CONST	SEGMENT
?g_XMMaxInt@DirectX@@3UXMVECTORF32@1@B DD 04effffffr ; 2.14748e+09 ; DirectX::g_XMMaxInt
	DD	04effffffr			; 2.14748e+09
	DD	04effffffr			; 2.14748e+09
	DD	04effffffr			; 2.14748e+09
CONST	ENDS
;	COMDAT ?g_XMFixUnsigned@DirectX@@3UXMVECTORF32@1@B
CONST	SEGMENT
?g_XMFixUnsigned@DirectX@@3UXMVECTORF32@1@B DD 04f000000r ; 2.14748e+09 ; DirectX::g_XMFixUnsigned
	DD	04f000000r			; 2.14748e+09
	DD	04f000000r			; 2.14748e+09
	DD	04f000000r			; 2.14748e+09
CONST	ENDS
;	COMDAT ?g_XMAddByte4@DirectX@@3UXMVECTORF32@1@B
CONST	SEGMENT
?g_XMAddByte4@DirectX@@3UXMVECTORF32@1@B DD 0c3000000r ; -128 ; DirectX::g_XMAddByte4
	DD	0c7000000r			; -32768
	DD	0cb000000r			; -8.38861e+06
	DD	000000000r			; 0
CONST	ENDS
;	COMDAT ?g_XMXorByte4@DirectX@@3UXMVECTORI32@1@B
CONST	SEGMENT
?g_XMXorByte4@DirectX@@3UXMVECTORI32@1@B DD 080H	; DirectX::g_XMXorByte4
	DD	08000H
	DD	0800000H
	DD	00H
CONST	ENDS
;	COMDAT ?g_XMMaskByte4@DirectX@@3UXMVECTORU32@1@B
CONST	SEGMENT
?g_XMMaskByte4@DirectX@@3UXMVECTORU32@1@B DD 0ffH	; DirectX::g_XMMaskByte4
	DD	0ff00H
	DD	0ff0000H
	DD	0ff000000H
CONST	ENDS
;	COMDAT ?g_XMMulDec4@DirectX@@3UXMVECTORF32@1@B
CONST	SEGMENT
?g_XMMulDec4@DirectX@@3UXMVECTORF32@1@B DD 03f800000r ; 1 ; DirectX::g_XMMulDec4
	DD	03a800000r			; 0.000976563
	DD	035800000r			; 9.53674e-07
	DD	030800000r			; 9.31323e-10
CONST	ENDS
;	COMDAT ?g_XMAddDec4@DirectX@@3UXMVECTORF32@1@B
CONST	SEGMENT
?g_XMAddDec4@DirectX@@3UXMVECTORF32@1@B DD 0c4000000r ; -512 ; DirectX::g_XMAddDec4
	DD	0c9000000r			; -524288
	DD	0ce000000r			; -5.36871e+08
	DD	000000000r			; 0
CONST	ENDS
;	COMDAT ?g_XMAddUDec4@DirectX@@3UXMVECTORF32@1@B
CONST	SEGMENT
?g_XMAddUDec4@DirectX@@3UXMVECTORF32@1@B DD 000000000r ; 0 ; DirectX::g_XMAddUDec4
	DD	000000000r			; 0
	DD	000000000r			; 0
	DD	04f000000r			; 2.14748e+09
CONST	ENDS
;	COMDAT ?g_XMXorDec4@DirectX@@3UXMVECTORI32@1@B
CONST	SEGMENT
?g_XMXorDec4@DirectX@@3UXMVECTORI32@1@B DD 0200H	; DirectX::g_XMXorDec4
	DD	080000H
	DD	020000000H
	DD	00H
CONST	ENDS
;	COMDAT ?g_XMMaskDec4@DirectX@@3UXMVECTORI32@1@B
CONST	SEGMENT
?g_XMMaskDec4@DirectX@@3UXMVECTORI32@1@B DD 03ffH	; DirectX::g_XMMaskDec4
	DD	0ffc00H
	DD	03ff00000H
	DD	0c0000000H
CONST	ENDS
;	COMDAT ?g_XMFlipYW@DirectX@@3UXMVECTORU32@1@B
CONST	SEGMENT
?g_XMFlipYW@DirectX@@3UXMVECTORU32@1@B DD 00H		; DirectX::g_XMFlipYW
	DD	080000000H
	DD	00H
	DD	080000000H
CONST	ENDS
;	COMDAT ?g_XMFlipZW@DirectX@@3UXMVECTORU32@1@B
CONST	SEGMENT
?g_XMFlipZW@DirectX@@3UXMVECTORU32@1@B DD 00H		; DirectX::g_XMFlipZW
	DD	00H
	DD	080000000H
	DD	080000000H
CONST	ENDS
;	COMDAT ?g_XMFlipYZ@DirectX@@3UXMVECTORU32@1@B
CONST	SEGMENT
?g_XMFlipYZ@DirectX@@3UXMVECTORU32@1@B DD 00H		; DirectX::g_XMFlipYZ
	DD	080000000H
	DD	080000000H
	DD	00H
CONST	ENDS
;	COMDAT ?g_XMFlipW@DirectX@@3UXMVECTORU32@1@B
CONST	SEGMENT
?g_XMFlipW@DirectX@@3UXMVECTORU32@1@B DD 00H		; DirectX::g_XMFlipW
	DD	00H
	DD	00H
	DD	080000000H
CONST	ENDS
;	COMDAT ?g_XMFlipZ@DirectX@@3UXMVECTORU32@1@B
CONST	SEGMENT
?g_XMFlipZ@DirectX@@3UXMVECTORU32@1@B DD 00H		; DirectX::g_XMFlipZ
	DD	00H
	DD	080000000H
	DD	00H
CONST	ENDS
;	COMDAT ?g_XMFlipY@DirectX@@3UXMVECTORU32@1@B
CONST	SEGMENT
?g_XMFlipY@DirectX@@3UXMVECTORU32@1@B DD 00H		; DirectX::g_XMFlipY
	DD	080000000H
	DD	00H
	DD	00H
CONST	ENDS
;	COMDAT ?g_XMFixupY16W16@DirectX@@3UXMVECTORF32@1@B
CONST	SEGMENT
?g_XMFixupY16W16@DirectX@@3UXMVECTORF32@1@B DD 03f800000r ; 1 ; DirectX::g_XMFixupY16W16
	DD	03f800000r			; 1
	DD	037800000r			; 1.52588e-05
	DD	037800000r			; 1.52588e-05
CONST	ENDS
;	COMDAT ?g_XMFixupY16@DirectX@@3UXMVECTORF32@1@B
CONST	SEGMENT
?g_XMFixupY16@DirectX@@3UXMVECTORF32@1@B DD 03f800000r ; 1 ; DirectX::g_XMFixupY16
	DD	037800000r			; 1.52588e-05
	DD	000000000r			; 0
	DD	000000000r			; 0
CONST	ENDS
;	COMDAT ?g_XMSelect1011@DirectX@@3UXMVECTORU32@1@B
CONST	SEGMENT
?g_XMSelect1011@DirectX@@3UXMVECTORU32@1@B DD 0ffffffffH ; DirectX::g_XMSelect1011
	DD	00H
	DD	0ffffffffH
	DD	0ffffffffH
CONST	ENDS
;	COMDAT ?g_XMSelect1110@DirectX@@3UXMVECTORU32@1@B
CONST	SEGMENT
?g_XMSelect1110@DirectX@@3UXMVECTORU32@1@B DD 0ffffffffH ; DirectX::g_XMSelect1110
	DD	0ffffffffH
	DD	0ffffffffH
	DD	00H
CONST	ENDS
;	COMDAT ?g_XMSelect1100@DirectX@@3UXMVECTORU32@1@B
CONST	SEGMENT
?g_XMSelect1100@DirectX@@3UXMVECTORU32@1@B DD 0ffffffffH ; DirectX::g_XMSelect1100
	DD	0ffffffffH
	DD	00H
	DD	00H
CONST	ENDS
;	COMDAT ?g_XMSelect1000@DirectX@@3UXMVECTORU32@1@B
CONST	SEGMENT
?g_XMSelect1000@DirectX@@3UXMVECTORU32@1@B DD 0ffffffffH ; DirectX::g_XMSelect1000
	DD	00H
	DD	00H
	DD	00H
CONST	ENDS
;	COMDAT ?g_XMOneHalfMinusEpsilon@DirectX@@3UXMVECTORI32@1@B
CONST	SEGMENT
?g_XMOneHalfMinusEpsilon@DirectX@@3UXMVECTORI32@1@B DD 03efffffdH ; DirectX::g_XMOneHalfMinusEpsilon
	DD	03efffffdH
	DD	03efffffdH
	DD	03efffffdH
CONST	ENDS
;	COMDAT ?g_XMSelect1010@DirectX@@3UXMVECTORU32@1@B
CONST	SEGMENT
?g_XMSelect1010@DirectX@@3UXMVECTORU32@1@B DD 0ffffffffH ; DirectX::g_XMSelect1010
	DD	00H
	DD	0ffffffffH
	DD	00H
CONST	ENDS
;	COMDAT ?g_XMSelect0101@DirectX@@3UXMVECTORU32@1@B
CONST	SEGMENT
?g_XMSelect0101@DirectX@@3UXMVECTORU32@1@B DD 00H	; DirectX::g_XMSelect0101
	DD	0ffffffffH
	DD	00H
	DD	0ffffffffH
CONST	ENDS
;	COMDAT ?g_XMNegateW@DirectX@@3UXMVECTORF32@1@B
CONST	SEGMENT
?g_XMNegateW@DirectX@@3UXMVECTORF32@1@B DD 03f800000r ; 1 ; DirectX::g_XMNegateW
	DD	03f800000r			; 1
	DD	03f800000r			; 1
	DD	0bf800000r			; -1
CONST	ENDS
;	COMDAT ?g_XMNegateZ@DirectX@@3UXMVECTORF32@1@B
CONST	SEGMENT
?g_XMNegateZ@DirectX@@3UXMVECTORF32@1@B DD 03f800000r ; 1 ; DirectX::g_XMNegateZ
	DD	03f800000r			; 1
	DD	0bf800000r			; -1
	DD	03f800000r			; 1
CONST	ENDS
;	COMDAT ?g_XMNegateY@DirectX@@3UXMVECTORF32@1@B
CONST	SEGMENT
?g_XMNegateY@DirectX@@3UXMVECTORF32@1@B DD 03f800000r ; 1 ; DirectX::g_XMNegateY
	DD	0bf800000r			; -1
	DD	03f800000r			; 1
	DD	03f800000r			; 1
CONST	ENDS
;	COMDAT ?g_XMNegateX@DirectX@@3UXMVECTORF32@1@B
CONST	SEGMENT
?g_XMNegateX@DirectX@@3UXMVECTORF32@1@B DD 0bf800000r ; -1 ; DirectX::g_XMNegateX
	DD	03f800000r			; 1
	DD	03f800000r			; 1
	DD	03f800000r			; 1
CONST	ENDS
;	COMDAT ?g_XMMaskByte@DirectX@@3UXMVECTORI32@1@B
CONST	SEGMENT
?g_XMMaskByte@DirectX@@3UXMVECTORI32@1@B DD 0ffH	; DirectX::g_XMMaskByte
	DD	0ffH
	DD	0ffH
	DD	0ffH
CONST	ENDS
;	COMDAT ?g_XMNoFraction@DirectX@@3UXMVECTORF32@1@B
CONST	SEGMENT
?g_XMNoFraction@DirectX@@3UXMVECTORF32@1@B DD 04b000000r ; 8.38861e+06 ; DirectX::g_XMNoFraction
	DD	04b000000r			; 8.38861e+06
	DD	04b000000r			; 8.38861e+06
	DD	04b000000r			; 8.38861e+06
CONST	ENDS
;	COMDAT ?g_XMNormalizeX16Y16Z16W16@DirectX@@3UXMVECTORF32@1@B
CONST	SEGMENT
?g_XMNormalizeX16Y16Z16W16@DirectX@@3UXMVECTORF32@1@B DD 038000100r ; 3.05185e-05 ; DirectX::g_XMNormalizeX16Y16Z16W16
	DD	038000100r			; 3.05185e-05
	DD	030000100r			; 4.65675e-10
	DD	030000100r			; 4.65675e-10
CONST	ENDS
;	COMDAT ?g_XMFixX16Y16Z16W16@DirectX@@3UXMVECTORF32@1@B
CONST	SEGMENT
?g_XMFixX16Y16Z16W16@DirectX@@3UXMVECTORF32@1@B DD 0c7000000r ; -32768 ; DirectX::g_XMFixX16Y16Z16W16
	DD	0c7000000r			; -32768
	DD	000000000r			; 0
	DD	000000000r			; 0
CONST	ENDS
;	COMDAT ?g_XMFlipX16Y16Z16W16@DirectX@@3UXMVECTORI32@1@B
CONST	SEGMENT
?g_XMFlipX16Y16Z16W16@DirectX@@3UXMVECTORI32@1@B DD 08000H ; DirectX::g_XMFlipX16Y16Z16W16
	DD	08000H
	DD	00H
	DD	00H
CONST	ENDS
;	COMDAT ?g_XMMaskX16Y16Z16W16@DirectX@@3UXMVECTORU32@1@B
CONST	SEGMENT
?g_XMMaskX16Y16Z16W16@DirectX@@3UXMVECTORU32@1@B DD 0ffffH ; DirectX::g_XMMaskX16Y16Z16W16
	DD	0ffffH
	DD	0ffff0000H
	DD	0ffff0000H
CONST	ENDS
;	COMDAT ?g_XMNormalizeX16Y16@DirectX@@3UXMVECTORF32@1@B
CONST	SEGMENT
?g_XMNormalizeX16Y16@DirectX@@3UXMVECTORF32@1@B DD 038000100r ; 3.05185e-05 ; DirectX::g_XMNormalizeX16Y16
	DD	030000100r			; 4.65675e-10
	DD	000000000r			; 0
	DD	000000000r			; 0
CONST	ENDS
;	COMDAT ?g_XMFixX16Y16@DirectX@@3UXMVECTORF32@1@B
CONST	SEGMENT
?g_XMFixX16Y16@DirectX@@3UXMVECTORF32@1@B DD 0c7000000r ; -32768 ; DirectX::g_XMFixX16Y16
	DD	000000000r			; 0
	DD	000000000r			; 0
	DD	000000000r			; 0
CONST	ENDS
;	COMDAT ?g_XMFlipX16Y16@DirectX@@3UXMVECTORI32@1@B
CONST	SEGMENT
?g_XMFlipX16Y16@DirectX@@3UXMVECTORI32@1@B DD 08000H	; DirectX::g_XMFlipX16Y16
	DD	00H
	DD	00H
	DD	00H
CONST	ENDS
;	COMDAT ?g_XMMaskX16Y16@DirectX@@3UXMVECTORU32@1@B
CONST	SEGMENT
?g_XMMaskX16Y16@DirectX@@3UXMVECTORU32@1@B DD 0ffffH	; DirectX::g_XMMaskX16Y16
	DD	0ffff0000H
	DD	00H
	DD	00H
CONST	ENDS
;	COMDAT ?g_XMNormalizeA2B10G10R10@DirectX@@3UXMVECTORF32@1@B
CONST	SEGMENT
?g_XMNormalizeA2B10G10R10@DirectX@@3UXMVECTORF32@1@B DD 03b004020r ; 0.00195695 ; DirectX::g_XMNormalizeA2B10G10R10
	DD	036004020r			; 1.91108e-06
	DD	031004020r			; 1.86629e-09
	DD	02faaaaabr			; 3.10441e-10
CONST	ENDS
;	COMDAT ?g_XMFixAA2B10G10R10@DirectX@@3UXMVECTORF32@1@B
CONST	SEGMENT
?g_XMFixAA2B10G10R10@DirectX@@3UXMVECTORF32@1@B DD 0c4000000r ; -512 ; DirectX::g_XMFixAA2B10G10R10
	DD	0c9000000r			; -524288
	DD	0ce000000r			; -5.36871e+08
	DD	04f000000r			; 2.14748e+09
CONST	ENDS
;	COMDAT ?g_XMFlipA2B10G10R10@DirectX@@3UXMVECTORU32@1@B
CONST	SEGMENT
?g_XMFlipA2B10G10R10@DirectX@@3UXMVECTORU32@1@B DD 0200H ; DirectX::g_XMFlipA2B10G10R10
	DD	080000H
	DD	020000000H
	DD	080000000H
CONST	ENDS
;	COMDAT ?g_XMMaskA2B10G10R10@DirectX@@3UXMVECTORU32@1@B
CONST	SEGMENT
?g_XMMaskA2B10G10R10@DirectX@@3UXMVECTORU32@1@B DD 03ffH ; DirectX::g_XMMaskA2B10G10R10
	DD	0ffc00H
	DD	03ff00000H
	DD	0c0000000H
CONST	ENDS
;	COMDAT ?g_XMNormalizeA8R8G8B8@DirectX@@3UXMVECTORF32@1@B
CONST	SEGMENT
?g_XMNormalizeA8R8G8B8@DirectX@@3UXMVECTORF32@1@B DD 033808081r ; 5.98384e-08 ; DirectX::g_XMNormalizeA8R8G8B8
	DD	037808081r			; 1.53186e-05
	DD	03b808081r			; 0.00392157
	DD	02f808081r			; 2.33744e-10
CONST	ENDS
;	COMDAT ?g_XMFixAA8R8G8B8@DirectX@@3UXMVECTORF32@1@B
CONST	SEGMENT
?g_XMFixAA8R8G8B8@DirectX@@3UXMVECTORF32@1@B DD 000000000r ; 0 ; DirectX::g_XMFixAA8R8G8B8
	DD	000000000r			; 0
	DD	000000000r			; 0
	DD	04f000000r			; 2.14748e+09
CONST	ENDS
;	COMDAT ?g_XMFlipA8R8G8B8@DirectX@@3UXMVECTORU32@1@B
CONST	SEGMENT
?g_XMFlipA8R8G8B8@DirectX@@3UXMVECTORU32@1@B DD 00H	; DirectX::g_XMFlipA8R8G8B8
	DD	00H
	DD	00H
	DD	080000000H
CONST	ENDS
;	COMDAT ?g_XMMaskA8R8G8B8@DirectX@@3UXMVECTORU32@1@B
CONST	SEGMENT
?g_XMMaskA8R8G8B8@DirectX@@3UXMVECTORU32@1@B DD 0ff0000H ; DirectX::g_XMMaskA8R8G8B8
	DD	0ff00H
	DD	0ffH
	DD	0ff000000H
CONST	ENDS
;	COMDAT ?g_XMNegOneMask@DirectX@@3UXMVECTORU32@1@B
CONST	SEGMENT
?g_XMNegOneMask@DirectX@@3UXMVECTORU32@1@B DD 0ffffffffH ; DirectX::g_XMNegOneMask
	DD	0ffffffffH
	DD	0ffffffffH
	DD	0ffffffffH
CONST	ENDS
;	COMDAT ?g_XMFltMax@DirectX@@3UXMVECTORI32@1@B
CONST	SEGMENT
?g_XMFltMax@DirectX@@3UXMVECTORI32@1@B DD 07f7fffffH	; DirectX::g_XMFltMax
	DD	07f7fffffH
	DD	07f7fffffH
	DD	07f7fffffH
CONST	ENDS
;	COMDAT ?g_XMFltMin@DirectX@@3UXMVECTORI32@1@B
CONST	SEGMENT
?g_XMFltMin@DirectX@@3UXMVECTORI32@1@B DD 0800000H	; DirectX::g_XMFltMin
	DD	0800000H
	DD	0800000H
	DD	0800000H
CONST	ENDS
;	COMDAT ?g_XMAbsMask@DirectX@@3UXMVECTORI32@1@B
CONST	SEGMENT
?g_XMAbsMask@DirectX@@3UXMVECTORI32@1@B DD 07fffffffH	; DirectX::g_XMAbsMask
	DD	07fffffffH
	DD	07fffffffH
	DD	07fffffffH
CONST	ENDS
;	COMDAT ?g_XMQNaNTest@DirectX@@3UXMVECTORI32@1@B
CONST	SEGMENT
?g_XMQNaNTest@DirectX@@3UXMVECTORI32@1@B DD 07fffffH	; DirectX::g_XMQNaNTest
	DD	07fffffH
	DD	07fffffH
	DD	07fffffH
CONST	ENDS
;	COMDAT ?g_XMQNaN@DirectX@@3UXMVECTORI32@1@B
CONST	SEGMENT
?g_XMQNaN@DirectX@@3UXMVECTORI32@1@B DD 07fc00000H	; DirectX::g_XMQNaN
	DD	07fc00000H
	DD	07fc00000H
	DD	07fc00000H
CONST	ENDS
;	COMDAT ?g_XMInfinity@DirectX@@3UXMVECTORI32@1@B
CONST	SEGMENT
?g_XMInfinity@DirectX@@3UXMVECTORI32@1@B DD 07f800000H	; DirectX::g_XMInfinity
	DD	07f800000H
	DD	07f800000H
	DD	07f800000H
CONST	ENDS
;	COMDAT ?g_XMEpsilon@DirectX@@3UXMVECTORF32@1@B
CONST	SEGMENT
?g_XMEpsilon@DirectX@@3UXMVECTORF32@1@B DD 034000000r ; 1.19209e-07 ; DirectX::g_XMEpsilon
	DD	034000000r			; 1.19209e-07
	DD	034000000r			; 1.19209e-07
	DD	034000000r			; 1.19209e-07
CONST	ENDS
;	COMDAT ?g_XMReciprocalTwoPi@DirectX@@3UXMVECTORF32@1@B
CONST	SEGMENT
?g_XMReciprocalTwoPi@DirectX@@3UXMVECTORF32@1@B DD 03e22f983r ; 0.159155 ; DirectX::g_XMReciprocalTwoPi
	DD	03e22f983r			; 0.159155
	DD	03e22f983r			; 0.159155
	DD	03e22f983r			; 0.159155
CONST	ENDS
;	COMDAT ?g_XMTwoPi@DirectX@@3UXMVECTORF32@1@B
CONST	SEGMENT
?g_XMTwoPi@DirectX@@3UXMVECTORF32@1@B DD 040c90fdbr ; 6.28319 ; DirectX::g_XMTwoPi
	DD	040c90fdbr			; 6.28319
	DD	040c90fdbr			; 6.28319
	DD	040c90fdbr			; 6.28319
CONST	ENDS
;	COMDAT ?g_XMReciprocalPi@DirectX@@3UXMVECTORF32@1@B
CONST	SEGMENT
?g_XMReciprocalPi@DirectX@@3UXMVECTORF32@1@B DD 03ea2f983r ; 0.31831 ; DirectX::g_XMReciprocalPi
	DD	03ea2f983r			; 0.31831
	DD	03ea2f983r			; 0.31831
	DD	03ea2f983r			; 0.31831
CONST	ENDS
;	COMDAT ?g_XMPi@DirectX@@3UXMVECTORF32@1@B
CONST	SEGMENT
?g_XMPi@DirectX@@3UXMVECTORF32@1@B DD 040490fdbr ; 3.14159 ; DirectX::g_XMPi
	DD	040490fdbr			; 3.14159
	DD	040490fdbr			; 3.14159
	DD	040490fdbr			; 3.14159
CONST	ENDS
;	COMDAT ?g_XMHalfPi@DirectX@@3UXMVECTORF32@1@B
CONST	SEGMENT
?g_XMHalfPi@DirectX@@3UXMVECTORF32@1@B DD 03fc90fdbr ; 1.5708 ; DirectX::g_XMHalfPi
	DD	03fc90fdbr			; 1.5708
	DD	03fc90fdbr			; 1.5708
	DD	03fc90fdbr			; 1.5708
CONST	ENDS
;	COMDAT ?g_XMNegativePi@DirectX@@3UXMVECTORF32@1@B
CONST	SEGMENT
?g_XMNegativePi@DirectX@@3UXMVECTORF32@1@B DD 0c0490fdbr ; -3.14159 ; DirectX::g_XMNegativePi
	DD	0c0490fdbr			; -3.14159
	DD	0c0490fdbr			; -3.14159
	DD	0c0490fdbr			; -3.14159
CONST	ENDS
;	COMDAT ?g_XMNegativeTwoPi@DirectX@@3UXMVECTORF32@1@B
CONST	SEGMENT
?g_XMNegativeTwoPi@DirectX@@3UXMVECTORF32@1@B DD 0c0c90fdbr ; -6.28319 ; DirectX::g_XMNegativeTwoPi
	DD	0c0c90fdbr			; -6.28319
	DD	0c0c90fdbr			; -6.28319
	DD	0c0c90fdbr			; -6.28319
CONST	ENDS
;	COMDAT ?g_XMNegativeOneHalf@DirectX@@3UXMVECTORF32@1@B
CONST	SEGMENT
?g_XMNegativeOneHalf@DirectX@@3UXMVECTORF32@1@B DD 0bf000000r ; -0.5 ; DirectX::g_XMNegativeOneHalf
	DD	0bf000000r			; -0.5
	DD	0bf000000r			; -0.5
	DD	0bf000000r			; -0.5
CONST	ENDS
;	COMDAT ?g_XMOneHalf@DirectX@@3UXMVECTORF32@1@B
CONST	SEGMENT
?g_XMOneHalf@DirectX@@3UXMVECTORF32@1@B DD 03f000000r ; 0.5 ; DirectX::g_XMOneHalf
	DD	03f000000r			; 0.5
	DD	03f000000r			; 0.5
	DD	03f000000r			; 0.5
CONST	ENDS
;	COMDAT ?g_XMNegativeOne@DirectX@@3UXMVECTORF32@1@B
CONST	SEGMENT
?g_XMNegativeOne@DirectX@@3UXMVECTORF32@1@B DD 0bf800000r ; -1 ; DirectX::g_XMNegativeOne
	DD	0bf800000r			; -1
	DD	0bf800000r			; -1
	DD	0bf800000r			; -1
CONST	ENDS
;	COMDAT ?g_XMSix@DirectX@@3UXMVECTORF32@1@B
CONST	SEGMENT
?g_XMSix@DirectX@@3UXMVECTORF32@1@B DD 040c00000r ; 6	; DirectX::g_XMSix
	DD	040c00000r			; 6
	DD	040c00000r			; 6
	DD	040c00000r			; 6
CONST	ENDS
;	COMDAT ?g_XMFour@DirectX@@3UXMVECTORF32@1@B
CONST	SEGMENT
?g_XMFour@DirectX@@3UXMVECTORF32@1@B DD 040800000r ; 4	; DirectX::g_XMFour
	DD	040800000r			; 4
	DD	040800000r			; 4
	DD	040800000r			; 4
CONST	ENDS
;	COMDAT ?g_XMTwo@DirectX@@3UXMVECTORF32@1@B
CONST	SEGMENT
?g_XMTwo@DirectX@@3UXMVECTORF32@1@B DD 040000000r ; 2	; DirectX::g_XMTwo
	DD	040000000r			; 2
	DD	040000000r			; 2
	DD	040000000r			; 2
CONST	ENDS
;	COMDAT ?g_XMZero@DirectX@@3UXMVECTORF32@1@B
CONST	SEGMENT
?g_XMZero@DirectX@@3UXMVECTORF32@1@B DD 000000000r ; 0	; DirectX::g_XMZero
	DD	000000000r			; 0
	DD	000000000r			; 0
	DD	000000000r			; 0
CONST	ENDS
;	COMDAT ?g_XMOne3@DirectX@@3UXMVECTORF32@1@B
CONST	SEGMENT
?g_XMOne3@DirectX@@3UXMVECTORF32@1@B DD 03f800000r ; 1	; DirectX::g_XMOne3
	DD	03f800000r			; 1
	DD	03f800000r			; 1
	DD	000000000r			; 0
CONST	ENDS
;	COMDAT ?g_XMOne@DirectX@@3UXMVECTORF32@1@B
CONST	SEGMENT
?g_XMOne@DirectX@@3UXMVECTORF32@1@B DD 03f800000r ; 1	; DirectX::g_XMOne
	DD	03f800000r			; 1
	DD	03f800000r			; 1
	DD	03f800000r			; 1
CONST	ENDS
;	COMDAT ?g_XMMaskW@DirectX@@3UXMVECTORU32@1@B
CONST	SEGMENT
?g_XMMaskW@DirectX@@3UXMVECTORU32@1@B DD 00H		; DirectX::g_XMMaskW
	DD	00H
	DD	00H
	DD	0ffffffffH
CONST	ENDS
;	COMDAT ?g_XMMaskZ@DirectX@@3UXMVECTORU32@1@B
CONST	SEGMENT
?g_XMMaskZ@DirectX@@3UXMVECTORU32@1@B DD 00H		; DirectX::g_XMMaskZ
	DD	00H
	DD	0ffffffffH
	DD	00H
CONST	ENDS
;	COMDAT ?g_XMMaskY@DirectX@@3UXMVECTORU32@1@B
CONST	SEGMENT
?g_XMMaskY@DirectX@@3UXMVECTORU32@1@B DD 00H		; DirectX::g_XMMaskY
	DD	0ffffffffH
	DD	00H
	DD	00H
CONST	ENDS
;	COMDAT ?g_XMMaskX@DirectX@@3UXMVECTORU32@1@B
CONST	SEGMENT
?g_XMMaskX@DirectX@@3UXMVECTORU32@1@B DD 0ffffffffH	; DirectX::g_XMMaskX
	DD	00H
	DD	00H
	DD	00H
CONST	ENDS
;	COMDAT ?g_XMMask3@DirectX@@3UXMVECTORU32@1@B
CONST	SEGMENT
?g_XMMask3@DirectX@@3UXMVECTORU32@1@B DD 0ffffffffH	; DirectX::g_XMMask3
	DD	0ffffffffH
	DD	0ffffffffH
	DD	00H
CONST	ENDS
;	COMDAT ?g_XMNegate3@DirectX@@3UXMVECTORU32@1@B
CONST	SEGMENT
?g_XMNegate3@DirectX@@3UXMVECTORU32@1@B DD 080000000H	; DirectX::g_XMNegate3
	DD	080000000H
	DD	080000000H
	DD	00H
CONST	ENDS
;	COMDAT ?g_XMNegativeZero@DirectX@@3UXMVECTORU32@1@B
CONST	SEGMENT
?g_XMNegativeZero@DirectX@@3UXMVECTORU32@1@B DD 080000000H ; DirectX::g_XMNegativeZero
	DD	080000000H
	DD	080000000H
	DD	080000000H
CONST	ENDS
;	COMDAT ?g_XMNegIdentityR3@DirectX@@3UXMVECTORF32@1@B
CONST	SEGMENT
?g_XMNegIdentityR3@DirectX@@3UXMVECTORF32@1@B DD 000000000r ; 0 ; DirectX::g_XMNegIdentityR3
	DD	000000000r			; 0
	DD	000000000r			; 0
	DD	0bf800000r			; -1
CONST	ENDS
;	COMDAT ?g_XMNegIdentityR2@DirectX@@3UXMVECTORF32@1@B
CONST	SEGMENT
?g_XMNegIdentityR2@DirectX@@3UXMVECTORF32@1@B DD 000000000r ; 0 ; DirectX::g_XMNegIdentityR2
	DD	000000000r			; 0
	DD	0bf800000r			; -1
	DD	000000000r			; 0
CONST	ENDS
;	COMDAT ?g_XMNegIdentityR1@DirectX@@3UXMVECTORF32@1@B
CONST	SEGMENT
?g_XMNegIdentityR1@DirectX@@3UXMVECTORF32@1@B DD 000000000r ; 0 ; DirectX::g_XMNegIdentityR1
	DD	0bf800000r			; -1
	DD	000000000r			; 0
	DD	000000000r			; 0
CONST	ENDS
;	COMDAT ?g_XMNegIdentityR0@DirectX@@3UXMVECTORF32@1@B
CONST	SEGMENT
?g_XMNegIdentityR0@DirectX@@3UXMVECTORF32@1@B DD 0bf800000r ; -1 ; DirectX::g_XMNegIdentityR0
	DD	000000000r			; 0
	DD	000000000r			; 0
	DD	000000000r			; 0
CONST	ENDS
;	COMDAT ?g_XMIdentityR3@DirectX@@3UXMVECTORF32@1@B
CONST	SEGMENT
?g_XMIdentityR3@DirectX@@3UXMVECTORF32@1@B DD 000000000r ; 0 ; DirectX::g_XMIdentityR3
	DD	000000000r			; 0
	DD	000000000r			; 0
	DD	03f800000r			; 1
CONST	ENDS
;	COMDAT ?g_XMIdentityR2@DirectX@@3UXMVECTORF32@1@B
CONST	SEGMENT
?g_XMIdentityR2@DirectX@@3UXMVECTORF32@1@B DD 000000000r ; 0 ; DirectX::g_XMIdentityR2
	DD	000000000r			; 0
	DD	03f800000r			; 1
	DD	000000000r			; 0
CONST	ENDS
;	COMDAT ?g_XMIdentityR1@DirectX@@3UXMVECTORF32@1@B
CONST	SEGMENT
?g_XMIdentityR1@DirectX@@3UXMVECTORF32@1@B DD 000000000r ; 0 ; DirectX::g_XMIdentityR1
	DD	03f800000r			; 1
	DD	000000000r			; 0
	DD	000000000r			; 0
CONST	ENDS
;	COMDAT ?g_XMIdentityR0@DirectX@@3UXMVECTORF32@1@B
CONST	SEGMENT
?g_XMIdentityR0@DirectX@@3UXMVECTORF32@1@B DD 03f800000r ; 1 ; DirectX::g_XMIdentityR0
	DD	000000000r			; 0
	DD	000000000r			; 0
	DD	000000000r			; 0
CONST	ENDS
;	COMDAT ?g_XMPiConstants0@DirectX@@3UXMVECTORF32@1@B
CONST	SEGMENT
?g_XMPiConstants0@DirectX@@3UXMVECTORF32@1@B DD 040490fdbr ; 3.14159 ; DirectX::g_XMPiConstants0
	DD	040c90fdbr			; 6.28319
	DD	03ea2f983r			; 0.31831
	DD	03e22f983r			; 0.159155
CONST	ENDS
;	COMDAT ?g_XMArcEstCoefficients@DirectX@@3UXMVECTORF32@1@B
CONST	SEGMENT
?g_XMArcEstCoefficients@DirectX@@3UXMVECTORF32@1@B DD 03fc90da4r ; 1.57073 ; DirectX::g_XMArcEstCoefficients
	DD	0be593484r			; -0.212114
	DD	03d981627r			; 0.074261
	DD	0bc996e30r			; -0.0187293
CONST	ENDS
;	COMDAT ?g_XMTanEstCoefficients@DirectX@@3UXMVECTORF32@1@B
CONST	SEGMENT
?g_XMTanEstCoefficients@DirectX@@3UXMVECTORF32@1@B DD 0401ef9dbr ; 2.484 ; DirectX::g_XMTanEstCoefficients
	DD	0be482f23r			; -0.195492
	DD	0401de9e6r			; 2.4674
	DD	03ea2f983r			; 0.31831
CONST	ENDS
;	COMDAT ?g_XMATanEstCoefficients1@DirectX@@3UXMVECTORF32@1@B
CONST	SEGMENT
?g_XMATanEstCoefficients1@DirectX@@3UXMVECTORF32@1@B DD 0bea91d04r ; -0.330299 ; DirectX::g_XMATanEstCoefficients1
	DD	03e3876e2r			; 0.180141
	DD	0bdae5a36r			; -0.085133
	DD	03caaae5fr			; 0.0208351
CONST	ENDS
;	COMDAT ?g_XMATanEstCoefficients0@DirectX@@3UXMVECTORF32@1@B
CONST	SEGMENT
?g_XMATanEstCoefficients0@DirectX@@3UXMVECTORF32@1@B DD 03f7ff738r ; 0.999866 ; DirectX::g_XMATanEstCoefficients0
	DD	03f7ff738r			; 0.999866
	DD	03f7ff738r			; 0.999866
	DD	03f7ff738r			; 0.999866
CONST	ENDS
;	COMDAT ?g_XMATanCoefficients1@DirectX@@3UXMVECTORF32@1@B
CONST	SEGMENT
?g_XMATanCoefficients1@DirectX@@3UXMVECTORF32@1@B DD 0bd9a3174r ; -0.0752896 ; DirectX::g_XMATanCoefficients1
	DD	03d2fc1fer			; 0.0429096
	DD	0bc846e02r			; -0.0161657
	DD	03b3bd74ar			; 0.00286623
CONST	ENDS
;	COMDAT ?g_XMATanCoefficients0@DirectX@@3UXMVECTORF32@1@B
CONST	SEGMENT
?g_XMATanCoefficients0@DirectX@@3UXMVECTORF32@1@B DD 0beaaaa6cr ; -0.333331 ; DirectX::g_XMATanCoefficients0
	DD	03e4cbbe5r			; 0.199936
	DD	0be117fc7r			; -0.142089
	DD	03dda3d83r			; 0.106563
CONST	ENDS
;	COMDAT ?g_XMArcCoefficients1@DirectX@@3UXMVECTORF32@1@B
CONST	SEGMENT
?g_XMArcCoefficients1@DirectX@@3UXMVECTORF32@1@B DD 03cfd10f8r ; 0.0308919 ; DirectX::g_XMArcCoefficients1
	DD	0bc8bfc66r			; -0.0170881
	DD	03bda90c5r			; 0.00667009
	DD	0baa57a2cr			; -0.00126249
CONST	ENDS
;	COMDAT ?g_XMArcCoefficients0@DirectX@@3UXMVECTORF32@1@B
CONST	SEGMENT
?g_XMArcCoefficients0@DirectX@@3UXMVECTORF32@1@B DD 03fc90fdar ; 1.5708 ; DirectX::g_XMArcCoefficients0
	DD	0be5bbfcar			; -0.214599
	DD	03db63a9er			; 0.088979
	DD	0bd4d8392r			; -0.0501743
CONST	ENDS
;	COMDAT ?g_XMTanCoefficients2@DirectX@@3UXMVECTORF32@1@B
CONST	SEGMENT
?g_XMTanCoefficients2@DirectX@@3UXMVECTORF32@1@B DD 03a1aac12r ; 0.000590027 ; DirectX::g_XMTanCoefficients2
	DD	0397abeb9r			; 0.000239129
	DD	038cb3f0cr			; 9.69154e-05
	DD	03824bec9r			; 3.92783e-05
CONST	ENDS
;	COMDAT ?g_XMTanCoefficients1@DirectX@@3UXMVECTORF32@1@B
CONST	SEGMENT
?g_XMTanCoefficients1@DirectX@@3UXMVECTORF32@1@B DD 03cb327a4r ; 0.0218695 ; DirectX::g_XMTanCoefficients1
	DD	03c11371br			; 0.00886324
	DD	03b6b69e9r			; 0.00359213
	DD	03abed1b3r			; 0.00145583
CONST	ENDS
;	COMDAT ?g_XMTanCoefficients0@DirectX@@3UXMVECTORF32@1@B
CONST	SEGMENT
?g_XMTanCoefficients0@DirectX@@3UXMVECTORF32@1@B DD 03f800000r ; 1 ; DirectX::g_XMTanCoefficients0
	DD	03eaaaaabr			; 0.333333
	DD	03e088889r			; 0.133333
	DD	03d5d0dd1r			; 0.0539683
CONST	ENDS
;	COMDAT ?g_XMCosCoefficients1@DirectX@@3UXMVECTORF32@1@B
CONST	SEGMENT
?g_XMCosCoefficients1@DirectX@@3UXMVECTORF32@1@B DD 0b48bdd11r ; -2.60516e-07 ; DirectX::g_XMCosCoefficients1
	DD	0befff67er			; -0.499927
	DD	03d29f587r			; 0.0414939
	DD	0baa69fdbr			; -0.00127124
CONST	ENDS
;	COMDAT ?g_XMCosCoefficients0@DirectX@@3UXMVECTORF32@1@B
CONST	SEGMENT
?g_XMCosCoefficients0@DirectX@@3UXMVECTORF32@1@B DD 0bf000000r ; -0.5 ; DirectX::g_XMCosCoefficients0
	DD	03d2aaaa3r			; 0.0416666
	DD	0bab609aar			; -0.00138884
	DD	037cfb4c2r			; 2.47605e-05
CONST	ENDS
;	COMDAT ?g_XMSinCoefficients1@DirectX@@3UXMVECTORF32@1@B
CONST	SEGMENT
?g_XMSinCoefficients1@DirectX@@3UXMVECTORF32@1@B DD 0b2cd365br ; -2.38899e-08 ; DirectX::g_XMSinCoefficients1
	DD	0be2aa888r			; -0.166659
	DD	03c08373cr			; 0.00831395
	DD	0b9423ec8r			; -0.000185247
CONST	ENDS
;	COMDAT ?g_XMSinCoefficients0@DirectX@@3UXMVECTORF32@1@B
CONST	SEGMENT
?g_XMSinCoefficients0@DirectX@@3UXMVECTORF32@1@B DD 0be2aaaabr ; -0.166667 ; DirectX::g_XMSinCoefficients0
	DD	03c088886r			; 0.00833333
	DD	0b9500bf1r			; -0.000198409
	DD	03638b88er			; 2.75256e-06
CONST	ENDS
;	COMDAT ?g_UnitPlaneEpsilon@Internal@DirectX@@3UXMVECTORF32@2@B
CONST	SEGMENT
?g_UnitPlaneEpsilon@Internal@DirectX@@3UXMVECTORF32@2@B DD 038d1b717r ; 0.0001 ; DirectX::Internal::g_UnitPlaneEpsilon
	DD	038d1b717r			; 0.0001
	DD	038d1b717r			; 0.0001
	DD	038d1b717r			; 0.0001
CONST	ENDS
;	COMDAT ?g_UnitQuaternionEpsilon@Internal@DirectX@@3UXMVECTORF32@2@B
CONST	SEGMENT
?g_UnitQuaternionEpsilon@Internal@DirectX@@3UXMVECTORF32@2@B DD 038d1b717r ; 0.0001 ; DirectX::Internal::g_UnitQuaternionEpsilon
	DD	038d1b717r			; 0.0001
	DD	038d1b717r			; 0.0001
	DD	038d1b717r			; 0.0001
CONST	ENDS
;	COMDAT ?g_UnitVectorEpsilon@Internal@DirectX@@3UXMVECTORF32@2@B
CONST	SEGMENT
?g_UnitVectorEpsilon@Internal@DirectX@@3UXMVECTORF32@2@B DD 038d1b717r ; 0.0001 ; DirectX::Internal::g_UnitVectorEpsilon
	DD	038d1b717r			; 0.0001
	DD	038d1b717r			; 0.0001
	DD	038d1b717r			; 0.0001
CONST	ENDS
;	COMDAT ?YellowGreen@Colors@DirectX@@3UXMVECTORF32@2@B
CONST	SEGMENT
?YellowGreen@Colors@DirectX@@3UXMVECTORF32@2@B DD 03f1a9a9br ; 0.603922 ; DirectX::Colors::YellowGreen
	DD	03f4dcdcfr			; 0.803922
	DD	03e48c8car			; 0.196078
	DD	03f800000r			; 1
CONST	ENDS
;	COMDAT ?Yellow@Colors@DirectX@@3UXMVECTORF32@2@B
CONST	SEGMENT
?Yellow@Colors@DirectX@@3UXMVECTORF32@2@B DD 03f800000r ; 1 ; DirectX::Colors::Yellow
	DD	03f800000r			; 1
	DD	000000000r			; 0
	DD	03f800000r			; 1
CONST	ENDS
;	COMDAT ?WhiteSmoke@Colors@DirectX@@3UXMVECTORF32@2@B
CONST	SEGMENT
?WhiteSmoke@Colors@DirectX@@3UXMVECTORF32@2@B DD 03f75f5f7r ; 0.960784 ; DirectX::Colors::WhiteSmoke
	DD	03f75f5f7r			; 0.960784
	DD	03f75f5f7r			; 0.960784
	DD	03f800000r			; 1
CONST	ENDS
;	COMDAT ?White@Colors@DirectX@@3UXMVECTORF32@2@B
CONST	SEGMENT
?White@Colors@DirectX@@3UXMVECTORF32@2@B DD 03f800000r ; 1 ; DirectX::Colors::White
	DD	03f800000r			; 1
	DD	03f800000r			; 1
	DD	03f800000r			; 1
CONST	ENDS
;	COMDAT ?Wheat@Colors@DirectX@@3UXMVECTORF32@2@B
CONST	SEGMENT
?Wheat@Colors@DirectX@@3UXMVECTORF32@2@B DD 03f75f5f7r ; 0.960784 ; DirectX::Colors::Wheat
	DD	03f5edee0r			; 0.870588
	DD	03f33b3b4r			; 0.701961
	DD	03f800000r			; 1
CONST	ENDS
;	COMDAT ?Violet@Colors@DirectX@@3UXMVECTORF32@2@B
CONST	SEGMENT
?Violet@Colors@DirectX@@3UXMVECTORF32@2@B DD 03f6eeef0r ; 0.933333 ; DirectX::Colors::Violet
	DD	03f028283r			; 0.509804
	DD	03f6eeef0r			; 0.933333
	DD	03f800000r			; 1
CONST	ENDS
;	COMDAT ?Turquoise@Colors@DirectX@@3UXMVECTORF32@2@B
CONST	SEGMENT
?Turquoise@Colors@DirectX@@3UXMVECTORF32@2@B DD 03e808081r ; 0.25098 ; DirectX::Colors::Turquoise
	DD	03f60e0e2r			; 0.878431
	DD	03f50d0d2r			; 0.815686
	DD	03f800000r			; 1
CONST	ENDS
;	COMDAT ?Transparent@Colors@DirectX@@3UXMVECTORF32@2@B
CONST	SEGMENT
?Transparent@Colors@DirectX@@3UXMVECTORF32@2@B DD 000000000r ; 0 ; DirectX::Colors::Transparent
	DD	000000000r			; 0
	DD	000000000r			; 0
	DD	000000000r			; 0
CONST	ENDS
;	COMDAT ?Tomato@Colors@DirectX@@3UXMVECTORF32@2@B
CONST	SEGMENT
?Tomato@Colors@DirectX@@3UXMVECTORF32@2@B DD 03f800000r ; 1 ; DirectX::Colors::Tomato
	DD	03ec6c6c8r			; 0.388235
	DD	03e8e8e8fr			; 0.278431
	DD	03f800000r			; 1
CONST	ENDS
;	COMDAT ?Thistle@Colors@DirectX@@3UXMVECTORF32@2@B
CONST	SEGMENT
?Thistle@Colors@DirectX@@3UXMVECTORF32@2@B DD 03f58d8dar ; 0.847059 ; DirectX::Colors::Thistle
	DD	03f3fbfc0r			; 0.74902
	DD	03f58d8dar			; 0.847059
	DD	03f800000r			; 1
CONST	ENDS
;	COMDAT ?Teal@Colors@DirectX@@3UXMVECTORF32@2@B
CONST	SEGMENT
?Teal@Colors@DirectX@@3UXMVECTORF32@2@B DD 000000000r ; 0 ; DirectX::Colors::Teal
	DD	03f008081r			; 0.501961
	DD	03f008081r			; 0.501961
	DD	03f800000r			; 1
CONST	ENDS
;	COMDAT ?Tan@Colors@DirectX@@3UXMVECTORF32@2@B
CONST	SEGMENT
?Tan@Colors@DirectX@@3UXMVECTORF32@2@B DD 03f52d2d4r ; 0.823529 ; DirectX::Colors::Tan
	DD	03f34b4b5r			; 0.705882
	DD	03f0c8c8dr			; 0.54902
	DD	03f800000r			; 1
CONST	ENDS
;	COMDAT ?SteelBlue@Colors@DirectX@@3UXMVECTORF32@2@B
CONST	SEGMENT
?SteelBlue@Colors@DirectX@@3UXMVECTORF32@2@B DD 03e8c8c8dr ; 0.27451 ; DirectX::Colors::SteelBlue
	DD	03f028283r			; 0.509804
	DD	03f34b4b5r			; 0.705882
	DD	03f800000r			; 1
CONST	ENDS
;	COMDAT ?SpringGreen@Colors@DirectX@@3UXMVECTORF32@2@B
CONST	SEGMENT
?SpringGreen@Colors@DirectX@@3UXMVECTORF32@2@B DD 000000000r ; 0 ; DirectX::Colors::SpringGreen
	DD	03f800000r			; 1
	DD	03efeff00r			; 0.498039
	DD	03f800000r			; 1
CONST	ENDS
;	COMDAT ?Snow@Colors@DirectX@@3UXMVECTORF32@2@B
CONST	SEGMENT
?Snow@Colors@DirectX@@3UXMVECTORF32@2@B DD 03f800000r ; 1 ; DirectX::Colors::Snow
	DD	03f7afafcr			; 0.980392
	DD	03f7afafcr			; 0.980392
	DD	03f800000r			; 1
CONST	ENDS
;	COMDAT ?g_FltMax@DirectX@@3UXMVECTORF32@1@B
CONST	SEGMENT
?g_FltMax@DirectX@@3UXMVECTORF32@1@B DD 07f7fffffr ; 3.40282e+38 ; DirectX::g_FltMax
	DD	07f7fffffr			; 3.40282e+38
	DD	07f7fffffr			; 3.40282e+38
	DD	07f7fffffr			; 3.40282e+38
CONST	ENDS
;	COMDAT ?SlateGray@Colors@DirectX@@3UXMVECTORF32@2@B
CONST	SEGMENT
?SlateGray@Colors@DirectX@@3UXMVECTORF32@2@B DD 03ee0e0e2r ; 0.439216 ; DirectX::Colors::SlateGray
	DD	03f008081r			; 0.501961
	DD	03f109091r			; 0.564706
	DD	03f800000r			; 1
CONST	ENDS
;	COMDAT ?g_FltMin@DirectX@@3UXMVECTORF32@1@B
CONST	SEGMENT
?g_FltMin@DirectX@@3UXMVECTORF32@1@B DD 0ff7fffffr ; -3.40282e+38 ; DirectX::g_FltMin
	DD	0ff7fffffr			; -3.40282e+38
	DD	0ff7fffffr			; -3.40282e+38
	DD	0ff7fffffr			; -3.40282e+38
CONST	ENDS
;	COMDAT ?SlateBlue@Colors@DirectX@@3UXMVECTORF32@2@B
CONST	SEGMENT
?SlateBlue@Colors@DirectX@@3UXMVECTORF32@2@B DD 03ed4d4d6r ; 0.415686 ; DirectX::Colors::SlateBlue
	DD	03eb4b4b5r			; 0.352941
	DD	03f4dcdcfr			; 0.803922
	DD	03f800000r			; 1
CONST	ENDS
;	COMDAT ?g_RayNegEpsilon@DirectX@@3UXMVECTORF32@1@B
CONST	SEGMENT
?g_RayNegEpsilon@DirectX@@3UXMVECTORF32@1@B DD 09e3ce508r ; -1e-20 ; DirectX::g_RayNegEpsilon
	DD	09e3ce508r			; -1e-20
	DD	09e3ce508r			; -1e-20
	DD	09e3ce508r			; -1e-20
CONST	ENDS
;	COMDAT ?SkyBlue@Colors@DirectX@@3UXMVECTORF32@2@B
CONST	SEGMENT
?SkyBlue@Colors@DirectX@@3UXMVECTORF32@2@B DD 03f078788r ; 0.529412 ; DirectX::Colors::SkyBlue
	DD	03f4eced0r			; 0.807843
	DD	03f6bebedr			; 0.921569
	DD	03f800000r			; 1
CONST	ENDS
;	COMDAT ?g_RayEpsilon@DirectX@@3UXMVECTORF32@1@B
CONST	SEGMENT
?g_RayEpsilon@DirectX@@3UXMVECTORF32@1@B DD 01e3ce508r ; 1e-20 ; DirectX::g_RayEpsilon
	DD	01e3ce508r			; 1e-20
	DD	01e3ce508r			; 1e-20
	DD	01e3ce508r			; 1e-20
CONST	ENDS
;	COMDAT ?Silver@Colors@DirectX@@3UXMVECTORF32@2@B
CONST	SEGMENT
?Silver@Colors@DirectX@@3UXMVECTORF32@2@B DD 03f40c0c2r ; 0.752941 ; DirectX::Colors::Silver
	DD	03f40c0c2r			; 0.752941
	DD	03f40c0c2r			; 0.752941
	DD	03f800000r			; 1
CONST	ENDS
;	COMDAT ?g_BoxOffset@DirectX@@3QBUXMVECTORF32@1@B
CONST	SEGMENT
?g_BoxOffset@DirectX@@3QBUXMVECTORF32@1@B DD 0bf800000r ; -1 ; DirectX::g_BoxOffset
	DD	0bf800000r			; -1
	DD	03f800000r			; 1
	DD	000000000r			; 0
	DD	03f800000r			; 1
	DD	0bf800000r			; -1
	DD	03f800000r			; 1
	DD	000000000r			; 0
	DD	03f800000r			; 1
	DD	03f800000r			; 1
	DD	03f800000r			; 1
	DD	000000000r			; 0
	DD	0bf800000r			; -1
	DD	03f800000r			; 1
	DD	03f800000r			; 1
	DD	000000000r			; 0
	DD	0bf800000r			; -1
	DD	0bf800000r			; -1
	DD	0bf800000r			; -1
	DD	000000000r			; 0
	DD	03f800000r			; 1
	DD	0bf800000r			; -1
	DD	0bf800000r			; -1
	DD	000000000r			; 0
	DD	03f800000r			; 1
	DD	03f800000r			; 1
	DD	0bf800000r			; -1
	DD	000000000r			; 0
	DD	0bf800000r			; -1
	DD	03f800000r			; 1
	DD	0bf800000r			; -1
	DD	000000000r			; 0
CONST	ENDS
;	COMDAT ?Sienna@Colors@DirectX@@3UXMVECTORF32@2@B
CONST	SEGMENT
?Sienna@Colors@DirectX@@3UXMVECTORF32@2@B DD 03f20a0a1r ; 0.627451 ; DirectX::Colors::Sienna
	DD	03ea4a4a5r			; 0.321569
	DD	03e34b4b5r			; 0.176471
	DD	03f800000r			; 1
CONST	ENDS
;	COMDAT ?SeaShell@Colors@DirectX@@3UXMVECTORF32@2@B
CONST	SEGMENT
?SeaShell@Colors@DirectX@@3UXMVECTORF32@2@B DD 03f800000r ; 1 ; DirectX::Colors::SeaShell
	DD	03f75f5f7r			; 0.960784
	DD	03f6eeef0r			; 0.933333
	DD	03f800000r			; 1
CONST	ENDS
;	COMDAT ?SeaGreen@Colors@DirectX@@3UXMVECTORF32@2@B
CONST	SEGMENT
?SeaGreen@Colors@DirectX@@3UXMVECTORF32@2@B DD 03e38b8b9r ; 0.180392 ; DirectX::Colors::SeaGreen
	DD	03f0b8b8cr			; 0.545098
	DD	03eaeaeafr			; 0.341176
	DD	03f800000r			; 1
CONST	ENDS
;	COMDAT ?SandyBrown@Colors@DirectX@@3UXMVECTORF32@2@B
CONST	SEGMENT
?SandyBrown@Colors@DirectX@@3UXMVECTORF32@2@B DD 03f74f4f6r ; 0.956863 ; DirectX::Colors::SandyBrown
	DD	03f24a4a5r			; 0.643137
	DD	03ec0c0c2r			; 0.376471
	DD	03f800000r			; 1
CONST	ENDS
;	COMDAT ?Salmon@Colors@DirectX@@3UXMVECTORF32@2@B
CONST	SEGMENT
?Salmon@Colors@DirectX@@3UXMVECTORF32@2@B DD 03f7afafcr ; 0.980392 ; DirectX::Colors::Salmon
	DD	03f008081r			; 0.501961
	DD	03ee4e4e6r			; 0.447059
	DD	03f800000r			; 1
CONST	ENDS
;	COMDAT ?SaddleBrown@Colors@DirectX@@3UXMVECTORF32@2@B
CONST	SEGMENT
?SaddleBrown@Colors@DirectX@@3UXMVECTORF32@2@B DD 03f0b8b8cr ; 0.545098 ; DirectX::Colors::SaddleBrown
	DD	03e8a8a8br			; 0.270588
	DD	03d989899r			; 0.0745098
	DD	03f800000r			; 1
CONST	ENDS
;	COMDAT ?RoyalBlue@Colors@DirectX@@3UXMVECTORF32@2@B
CONST	SEGMENT
?RoyalBlue@Colors@DirectX@@3UXMVECTORF32@2@B DD 03e828283r ; 0.254902 ; DirectX::Colors::RoyalBlue
	DD	03ed2d2d4r			; 0.411765
	DD	03f61e1e3r			; 0.882353
	DD	03f800000r			; 1
CONST	ENDS
;	COMDAT ?RosyBrown@Colors@DirectX@@3UXMVECTORF32@2@B
CONST	SEGMENT
?RosyBrown@Colors@DirectX@@3UXMVECTORF32@2@B DD 03f3cbcbdr ; 0.737255 ; DirectX::Colors::RosyBrown
	DD	03f0f8f90r			; 0.560784
	DD	03f0f8f90r			; 0.560784
	DD	03f800000r			; 1
CONST	ENDS
;	COMDAT ?Red@Colors@DirectX@@3UXMVECTORF32@2@B
CONST	SEGMENT
?Red@Colors@DirectX@@3UXMVECTORF32@2@B DD 03f800000r ; 1 ; DirectX::Colors::Red
	DD	000000000r			; 0
	DD	000000000r			; 0
	DD	03f800000r			; 1
CONST	ENDS
;	COMDAT ?Purple@Colors@DirectX@@3UXMVECTORF32@2@B
CONST	SEGMENT
?Purple@Colors@DirectX@@3UXMVECTORF32@2@B DD 03f008081r ; 0.501961 ; DirectX::Colors::Purple
	DD	000000000r			; 0
	DD	03f008081r			; 0.501961
	DD	03f800000r			; 1
CONST	ENDS
;	COMDAT ?PowderBlue@Colors@DirectX@@3UXMVECTORF32@2@B
CONST	SEGMENT
?PowderBlue@Colors@DirectX@@3UXMVECTORF32@2@B DD 03f30b0b1r ; 0.690196 ; DirectX::Colors::PowderBlue
	DD	03f60e0e2r			; 0.878431
	DD	03f66e6e8r			; 0.901961
	DD	03f800000r			; 1
CONST	ENDS
;	COMDAT ?Plum@Colors@DirectX@@3UXMVECTORF32@2@B
CONST	SEGMENT
?Plum@Colors@DirectX@@3UXMVECTORF32@2@B DD 03f5ddddfr ; 0.866667 ; DirectX::Colors::Plum
	DD	03f20a0a1r			; 0.627451
	DD	03f5ddddfr			; 0.866667
	DD	03f800000r			; 1
CONST	ENDS
;	COMDAT ?Pink@Colors@DirectX@@3UXMVECTORF32@2@B
CONST	SEGMENT
?Pink@Colors@DirectX@@3UXMVECTORF32@2@B DD 03f800000r ; 1 ; DirectX::Colors::Pink
	DD	03f40c0c2r			; 0.752941
	DD	03f4bcbcdr			; 0.796079
	DD	03f800000r			; 1
CONST	ENDS
;	COMDAT ?Peru@Colors@DirectX@@3UXMVECTORF32@2@B
CONST	SEGMENT
?Peru@Colors@DirectX@@3UXMVECTORF32@2@B DD 03f4dcdcfr ; 0.803922 ; DirectX::Colors::Peru
	DD	03f058586r			; 0.521569
	DD	03e7cfcfer			; 0.247059
	DD	03f800000r			; 1
CONST	ENDS
;	COMDAT ?PeachPuff@Colors@DirectX@@3UXMVECTORF32@2@B
CONST	SEGMENT
?PeachPuff@Colors@DirectX@@3UXMVECTORF32@2@B DD 03f800000r ; 1 ; DirectX::Colors::PeachPuff
	DD	03f5adadcr			; 0.854902
	DD	03f39b9bar			; 0.72549
	DD	03f800000r			; 1
CONST	ENDS
;	COMDAT ?PapayaWhip@Colors@DirectX@@3UXMVECTORF32@2@B
CONST	SEGMENT
?PapayaWhip@Colors@DirectX@@3UXMVECTORF32@2@B DD 03f800000r ; 1 ; DirectX::Colors::PapayaWhip
	DD	03f6feff1r			; 0.937255
	DD	03f55d5d7r			; 0.835294
	DD	03f800000r			; 1
CONST	ENDS
;	COMDAT ?PaleVioletRed@Colors@DirectX@@3UXMVECTORF32@2@B
CONST	SEGMENT
?PaleVioletRed@Colors@DirectX@@3UXMVECTORF32@2@B DD 03f5bdbddr ; 0.858824 ; DirectX::Colors::PaleVioletRed
	DD	03ee0e0e2r			; 0.439216
	DD	03f139394r			; 0.576471
	DD	03f800000r			; 1
CONST	ENDS
;	COMDAT ?PaleTurquoise@Colors@DirectX@@3UXMVECTORF32@2@B
CONST	SEGMENT
?PaleTurquoise@Colors@DirectX@@3UXMVECTORF32@2@B DD 03f2fafb0r ; 0.686275 ; DirectX::Colors::PaleTurquoise
	DD	03f6eeef0r			; 0.933333
	DD	03f6eeef0r			; 0.933333
	DD	03f800000r			; 1
CONST	ENDS
;	COMDAT ?PaleGreen@Colors@DirectX@@3UXMVECTORF32@2@B
CONST	SEGMENT
?PaleGreen@Colors@DirectX@@3UXMVECTORF32@2@B DD 03f189899r ; 0.596078 ; DirectX::Colors::PaleGreen
	DD	03f7bfbfdr			; 0.984314
	DD	03f189899r			; 0.596078
	DD	03f800000r			; 1
CONST	ENDS
;	COMDAT ?PaleGoldenrod@Colors@DirectX@@3UXMVECTORF32@2@B
CONST	SEGMENT
?PaleGoldenrod@Colors@DirectX@@3UXMVECTORF32@2@B DD 03f6eeef0r ; 0.933333 ; DirectX::Colors::PaleGoldenrod
	DD	03f68e8ear			; 0.909804
	DD	03f2aaaabr			; 0.666667
	DD	03f800000r			; 1
CONST	ENDS
;	COMDAT ?Orchid@Colors@DirectX@@3UXMVECTORF32@2@B
CONST	SEGMENT
?Orchid@Colors@DirectX@@3UXMVECTORF32@2@B DD 03f5adadcr ; 0.854902 ; DirectX::Colors::Orchid
	DD	03ee0e0e2r			; 0.439216
	DD	03f56d6d8r			; 0.839216
	DD	03f800000r			; 1
CONST	ENDS
;	COMDAT ?OrangeRed@Colors@DirectX@@3UXMVECTORF32@2@B
CONST	SEGMENT
?OrangeRed@Colors@DirectX@@3UXMVECTORF32@2@B DD 03f800000r ; 1 ; DirectX::Colors::OrangeRed
	DD	03e8a8a8br			; 0.270588
	DD	000000000r			; 0
	DD	03f800000r			; 1
CONST	ENDS
;	COMDAT ?Orange@Colors@DirectX@@3UXMVECTORF32@2@B
CONST	SEGMENT
?Orange@Colors@DirectX@@3UXMVECTORF32@2@B DD 03f800000r ; 1 ; DirectX::Colors::Orange
	DD	03f25a5a6r			; 0.647059
	DD	000000000r			; 0
	DD	03f800000r			; 1
CONST	ENDS
;	COMDAT ?OliveDrab@Colors@DirectX@@3UXMVECTORF32@2@B
CONST	SEGMENT
?OliveDrab@Colors@DirectX@@3UXMVECTORF32@2@B DD 03ed6d6d8r ; 0.419608 ; DirectX::Colors::OliveDrab
	DD	03f0e8e8fr			; 0.556863
	DD	03e0c8c8dr			; 0.137255
	DD	03f800000r			; 1
CONST	ENDS
;	COMDAT ?Olive@Colors@DirectX@@3UXMVECTORF32@2@B
CONST	SEGMENT
?Olive@Colors@DirectX@@3UXMVECTORF32@2@B DD 03f008081r ; 0.501961 ; DirectX::Colors::Olive
	DD	03f008081r			; 0.501961
	DD	000000000r			; 0
	DD	03f800000r			; 1
CONST	ENDS
;	COMDAT ?OldLace@Colors@DirectX@@3UXMVECTORF32@2@B
CONST	SEGMENT
?OldLace@Colors@DirectX@@3UXMVECTORF32@2@B DD 03f7dfdffr ; 0.992157 ; DirectX::Colors::OldLace
	DD	03f75f5f7r			; 0.960784
	DD	03f66e6e8r			; 0.901961
	DD	03f800000r			; 1
CONST	ENDS
;	COMDAT ?Navy@Colors@DirectX@@3UXMVECTORF32@2@B
CONST	SEGMENT
?Navy@Colors@DirectX@@3UXMVECTORF32@2@B DD 000000000r ; 0 ; DirectX::Colors::Navy
	DD	000000000r			; 0
	DD	03f008081r			; 0.501961
	DD	03f800000r			; 1
CONST	ENDS
;	COMDAT ?NavajoWhite@Colors@DirectX@@3UXMVECTORF32@2@B
CONST	SEGMENT
?NavajoWhite@Colors@DirectX@@3UXMVECTORF32@2@B DD 03f800000r ; 1 ; DirectX::Colors::NavajoWhite
	DD	03f5edee0r			; 0.870588
	DD	03f2dadaer			; 0.678431
	DD	03f800000r			; 1
CONST	ENDS
;	COMDAT ?Moccasin@Colors@DirectX@@3UXMVECTORF32@2@B
CONST	SEGMENT
?Moccasin@Colors@DirectX@@3UXMVECTORF32@2@B DD 03f800000r ; 1 ; DirectX::Colors::Moccasin
	DD	03f64e4e6r			; 0.894118
	DD	03f35b5b6r			; 0.709804
	DD	03f800000r			; 1
CONST	ENDS
;	COMDAT ?MistyRose@Colors@DirectX@@3UXMVECTORF32@2@B
CONST	SEGMENT
?MistyRose@Colors@DirectX@@3UXMVECTORF32@2@B DD 03f800000r ; 1 ; DirectX::Colors::MistyRose
	DD	03f64e4e6r			; 0.894118
	DD	03f61e1e3r			; 0.882353
	DD	03f800000r			; 1
CONST	ENDS
;	COMDAT ?MintCream@Colors@DirectX@@3UXMVECTORF32@2@B
CONST	SEGMENT
?MintCream@Colors@DirectX@@3UXMVECTORF32@2@B DD 03f75f5f7r ; 0.960784 ; DirectX::Colors::MintCream
	DD	03f800000r			; 1
	DD	03f7afafcr			; 0.980392
	DD	03f800000r			; 1
CONST	ENDS
;	COMDAT ?MidnightBlue@Colors@DirectX@@3UXMVECTORF32@2@B
CONST	SEGMENT
?MidnightBlue@Colors@DirectX@@3UXMVECTORF32@2@B DD 03dc8c8car ; 0.0980392 ; DirectX::Colors::MidnightBlue
	DD	03dc8c8car			; 0.0980392
	DD	03ee0e0e2r			; 0.439216
	DD	03f800000r			; 1
CONST	ENDS
;	COMDAT ?MediumVioletRed@Colors@DirectX@@3UXMVECTORF32@2@B
CONST	SEGMENT
?MediumVioletRed@Colors@DirectX@@3UXMVECTORF32@2@B DD 03f47c7c9r ; 0.780392 ; DirectX::Colors::MediumVioletRed
	DD	03da8a8a9r			; 0.0823529
	DD	03f058586r			; 0.521569
	DD	03f800000r			; 1
CONST	ENDS
;	COMDAT ?MediumTurquoise@Colors@DirectX@@3UXMVECTORF32@2@B
CONST	SEGMENT
?MediumTurquoise@Colors@DirectX@@3UXMVECTORF32@2@B DD 03e909091r ; 0.282353 ; DirectX::Colors::MediumTurquoise
	DD	03f51d1d3r			; 0.819608
	DD	03f4ccccer			; 0.8
	DD	03f800000r			; 1
CONST	ENDS
;	COMDAT ?MediumSpringGreen@Colors@DirectX@@3UXMVECTORF32@2@B
CONST	SEGMENT
?MediumSpringGreen@Colors@DirectX@@3UXMVECTORF32@2@B DD 000000000r ; 0 ; DirectX::Colors::MediumSpringGreen
	DD	03f7afafcr			; 0.980392
	DD	03f1a9a9br			; 0.603922
	DD	03f800000r			; 1
CONST	ENDS
;	COMDAT ?MediumSlateBlue@Colors@DirectX@@3UXMVECTORF32@2@B
CONST	SEGMENT
?MediumSlateBlue@Colors@DirectX@@3UXMVECTORF32@2@B DD 03ef6f6f8r ; 0.482353 ; DirectX::Colors::MediumSlateBlue
	DD	03ed0d0d2r			; 0.407843
	DD	03f6eeef0r			; 0.933333
	DD	03f800000r			; 1
CONST	ENDS
;	COMDAT ?MediumSeaGreen@Colors@DirectX@@3UXMVECTORF32@2@B
CONST	SEGMENT
?MediumSeaGreen@Colors@DirectX@@3UXMVECTORF32@2@B DD 03e70f0f2r ; 0.235294 ; DirectX::Colors::MediumSeaGreen
	DD	03f33b3b4r			; 0.701961
	DD	03ee2e2e4r			; 0.443137
	DD	03f800000r			; 1
CONST	ENDS
;	COMDAT ?MediumPurple@Colors@DirectX@@3UXMVECTORF32@2@B
CONST	SEGMENT
?MediumPurple@Colors@DirectX@@3UXMVECTORF32@2@B DD 03f139394r ; 0.576471 ; DirectX::Colors::MediumPurple
	DD	03ee0e0e2r			; 0.439216
	DD	03f5bdbddr			; 0.858824
	DD	03f800000r			; 1
CONST	ENDS
;	COMDAT ?MediumOrchid@Colors@DirectX@@3UXMVECTORF32@2@B
CONST	SEGMENT
?MediumOrchid@Colors@DirectX@@3UXMVECTORF32@2@B DD 03f3ababbr ; 0.729412 ; DirectX::Colors::MediumOrchid
	DD	03eaaaaabr			; 0.333333
	DD	03f53d3d5r			; 0.827451
	DD	03f800000r			; 1
CONST	ENDS
;	COMDAT ?MediumBlue@Colors@DirectX@@3UXMVECTORF32@2@B
CONST	SEGMENT
?MediumBlue@Colors@DirectX@@3UXMVECTORF32@2@B DD 000000000r ; 0 ; DirectX::Colors::MediumBlue
	DD	000000000r			; 0
	DD	03f4dcdcfr			; 0.803922
	DD	03f800000r			; 1
CONST	ENDS
;	COMDAT ?MediumAquamarine@Colors@DirectX@@3UXMVECTORF32@2@B
CONST	SEGMENT
?MediumAquamarine@Colors@DirectX@@3UXMVECTORF32@2@B DD 03ecccccer ; 0.4 ; DirectX::Colors::MediumAquamarine
	DD	03f4dcdcfr			; 0.803922
	DD	03f2aaaabr			; 0.666667
	DD	03f800000r			; 1
CONST	ENDS
;	COMDAT ?Maroon@Colors@DirectX@@3UXMVECTORF32@2@B
CONST	SEGMENT
?Maroon@Colors@DirectX@@3UXMVECTORF32@2@B DD 03f008081r ; 0.501961 ; DirectX::Colors::Maroon
	DD	000000000r			; 0
	DD	000000000r			; 0
	DD	03f800000r			; 1
CONST	ENDS
;	COMDAT ?Magenta@Colors@DirectX@@3UXMVECTORF32@2@B
CONST	SEGMENT
?Magenta@Colors@DirectX@@3UXMVECTORF32@2@B DD 03f800000r ; 1 ; DirectX::Colors::Magenta
	DD	000000000r			; 0
	DD	03f800000r			; 1
	DD	03f800000r			; 1
CONST	ENDS
;	COMDAT ?Linen@Colors@DirectX@@3UXMVECTORF32@2@B
CONST	SEGMENT
?Linen@Colors@DirectX@@3UXMVECTORF32@2@B DD 03f7afafcr ; 0.980392 ; DirectX::Colors::Linen
	DD	03f70f0f2r			; 0.941177
	DD	03f66e6e8r			; 0.901961
	DD	03f800000r			; 1
CONST	ENDS
;	COMDAT ?LimeGreen@Colors@DirectX@@3UXMVECTORF32@2@B
CONST	SEGMENT
?LimeGreen@Colors@DirectX@@3UXMVECTORF32@2@B DD 03e48c8car ; 0.196078 ; DirectX::Colors::LimeGreen
	DD	03f4dcdcfr			; 0.803922
	DD	03e48c8car			; 0.196078
	DD	03f800000r			; 1
CONST	ENDS
;	COMDAT ?Lime@Colors@DirectX@@3UXMVECTORF32@2@B
CONST	SEGMENT
?Lime@Colors@DirectX@@3UXMVECTORF32@2@B DD 000000000r ; 0 ; DirectX::Colors::Lime
	DD	03f800000r			; 1
	DD	000000000r			; 0
	DD	03f800000r			; 1
CONST	ENDS
;	COMDAT ?LightYellow@Colors@DirectX@@3UXMVECTORF32@2@B
CONST	SEGMENT
?LightYellow@Colors@DirectX@@3UXMVECTORF32@2@B DD 03f800000r ; 1 ; DirectX::Colors::LightYellow
	DD	03f800000r			; 1
	DD	03f60e0e2r			; 0.878431
	DD	03f800000r			; 1
CONST	ENDS
;	COMDAT ?LightSteelBlue@Colors@DirectX@@3UXMVECTORF32@2@B
CONST	SEGMENT
?LightSteelBlue@Colors@DirectX@@3UXMVECTORF32@2@B DD 03f30b0b1r ; 0.690196 ; DirectX::Colors::LightSteelBlue
	DD	03f44c4c6r			; 0.768628
	DD	03f5edee0r			; 0.870588
	DD	03f800000r			; 1
CONST	ENDS
;	COMDAT ?LightSlateGray@Colors@DirectX@@3UXMVECTORF32@2@B
CONST	SEGMENT
?LightSlateGray@Colors@DirectX@@3UXMVECTORF32@2@B DD 03eeeeef0r ; 0.466667 ; DirectX::Colors::LightSlateGray
	DD	03f088889r			; 0.533333
	DD	03f19999ar			; 0.6
	DD	03f800000r			; 1
CONST	ENDS
;	COMDAT ?LightSkyBlue@Colors@DirectX@@3UXMVECTORF32@2@B
CONST	SEGMENT
?LightSkyBlue@Colors@DirectX@@3UXMVECTORF32@2@B DD 03f078788r ; 0.529412 ; DirectX::Colors::LightSkyBlue
	DD	03f4eced0r			; 0.807843
	DD	03f7afafcr			; 0.980392
	DD	03f800000r			; 1
CONST	ENDS
;	COMDAT ?LightSeaGreen@Colors@DirectX@@3UXMVECTORF32@2@B
CONST	SEGMENT
?LightSeaGreen@Colors@DirectX@@3UXMVECTORF32@2@B DD 03e008081r ; 0.12549 ; DirectX::Colors::LightSeaGreen
	DD	03f32b2b3r			; 0.698039
	DD	03f2aaaabr			; 0.666667
	DD	03f800000r			; 1
CONST	ENDS
;	COMDAT ?LightSalmon@Colors@DirectX@@3UXMVECTORF32@2@B
CONST	SEGMENT
?LightSalmon@Colors@DirectX@@3UXMVECTORF32@2@B DD 03f800000r ; 1 ; DirectX::Colors::LightSalmon
	DD	03f20a0a1r			; 0.627451
	DD	03ef4f4f6r			; 0.478431
	DD	03f800000r			; 1
CONST	ENDS
;	COMDAT ?LightPink@Colors@DirectX@@3UXMVECTORF32@2@B
CONST	SEGMENT
?LightPink@Colors@DirectX@@3UXMVECTORF32@2@B DD 03f800000r ; 1 ; DirectX::Colors::LightPink
	DD	03f36b6b7r			; 0.713726
	DD	03f41c1c3r			; 0.756863
	DD	03f800000r			; 1
CONST	ENDS
;	COMDAT ?LightGray@Colors@DirectX@@3UXMVECTORF32@2@B
CONST	SEGMENT
?LightGray@Colors@DirectX@@3UXMVECTORF32@2@B DD 03f53d3d5r ; 0.827451 ; DirectX::Colors::LightGray
	DD	03f53d3d5r			; 0.827451
	DD	03f53d3d5r			; 0.827451
	DD	03f800000r			; 1
CONST	ENDS
;	COMDAT ?LightGreen@Colors@DirectX@@3UXMVECTORF32@2@B
CONST	SEGMENT
?LightGreen@Colors@DirectX@@3UXMVECTORF32@2@B DD 03f109091r ; 0.564706 ; DirectX::Colors::LightGreen
	DD	03f6eeef0r			; 0.933333
	DD	03f109091r			; 0.564706
	DD	03f800000r			; 1
CONST	ENDS
;	COMDAT ?LightGoldenrodYellow@Colors@DirectX@@3UXMVECTORF32@2@B
CONST	SEGMENT
?LightGoldenrodYellow@Colors@DirectX@@3UXMVECTORF32@2@B DD 03f7afafcr ; 0.980392 ; DirectX::Colors::LightGoldenrodYellow
	DD	03f7afafcr			; 0.980392
	DD	03f52d2d4r			; 0.823529
	DD	03f800000r			; 1
CONST	ENDS
;	COMDAT ?LightCyan@Colors@DirectX@@3UXMVECTORF32@2@B
CONST	SEGMENT
?LightCyan@Colors@DirectX@@3UXMVECTORF32@2@B DD 03f60e0e2r ; 0.878431 ; DirectX::Colors::LightCyan
	DD	03f800000r			; 1
	DD	03f800000r			; 1
	DD	03f800000r			; 1
CONST	ENDS
;	COMDAT ?LightCoral@Colors@DirectX@@3UXMVECTORF32@2@B
CONST	SEGMENT
?LightCoral@Colors@DirectX@@3UXMVECTORF32@2@B DD 03f70f0f2r ; 0.941177 ; DirectX::Colors::LightCoral
	DD	03f008081r			; 0.501961
	DD	03f008081r			; 0.501961
	DD	03f800000r			; 1
CONST	ENDS
;	COMDAT ?LightBlue@Colors@DirectX@@3UXMVECTORF32@2@B
CONST	SEGMENT
?LightBlue@Colors@DirectX@@3UXMVECTORF32@2@B DD 03f2dadaer ; 0.678431 ; DirectX::Colors::LightBlue
	DD	03f58d8dar			; 0.847059
	DD	03f66e6e8r			; 0.901961
	DD	03f800000r			; 1
CONST	ENDS
;	COMDAT ?LemonChiffon@Colors@DirectX@@3UXMVECTORF32@2@B
CONST	SEGMENT
?LemonChiffon@Colors@DirectX@@3UXMVECTORF32@2@B DD 03f800000r ; 1 ; DirectX::Colors::LemonChiffon
	DD	03f7afafcr			; 0.980392
	DD	03f4dcdcfr			; 0.803922
	DD	03f800000r			; 1
CONST	ENDS
;	COMDAT ?LawnGreen@Colors@DirectX@@3UXMVECTORF32@2@B
CONST	SEGMENT
?LawnGreen@Colors@DirectX@@3UXMVECTORF32@2@B DD 03ef8f8far ; 0.486275 ; DirectX::Colors::LawnGreen
	DD	03f7cfcfer			; 0.988235
	DD	000000000r			; 0
	DD	03f800000r			; 1
CONST	ENDS
;	COMDAT ?LavenderBlush@Colors@DirectX@@3UXMVECTORF32@2@B
CONST	SEGMENT
?LavenderBlush@Colors@DirectX@@3UXMVECTORF32@2@B DD 03f800000r ; 1 ; DirectX::Colors::LavenderBlush
	DD	03f70f0f2r			; 0.941177
	DD	03f75f5f7r			; 0.960784
	DD	03f800000r			; 1
CONST	ENDS
;	COMDAT ?Lavender@Colors@DirectX@@3UXMVECTORF32@2@B
CONST	SEGMENT
?Lavender@Colors@DirectX@@3UXMVECTORF32@2@B DD 03f66e6e8r ; 0.901961 ; DirectX::Colors::Lavender
	DD	03f66e6e8r			; 0.901961
	DD	03f7afafcr			; 0.980392
	DD	03f800000r			; 1
CONST	ENDS
;	COMDAT ?Khaki@Colors@DirectX@@3UXMVECTORF32@2@B
CONST	SEGMENT
?Khaki@Colors@DirectX@@3UXMVECTORF32@2@B DD 03f70f0f2r ; 0.941177 ; DirectX::Colors::Khaki
	DD	03f66e6e8r			; 0.901961
	DD	03f0c8c8dr			; 0.54902
	DD	03f800000r			; 1
CONST	ENDS
;	COMDAT ?Ivory@Colors@DirectX@@3UXMVECTORF32@2@B
CONST	SEGMENT
?Ivory@Colors@DirectX@@3UXMVECTORF32@2@B DD 03f800000r ; 1 ; DirectX::Colors::Ivory
	DD	03f800000r			; 1
	DD	03f70f0f2r			; 0.941177
	DD	03f800000r			; 1
CONST	ENDS
;	COMDAT ?Indigo@Colors@DirectX@@3UXMVECTORF32@2@B
CONST	SEGMENT
?Indigo@Colors@DirectX@@3UXMVECTORF32@2@B DD 03e969697r ; 0.294118 ; DirectX::Colors::Indigo
	DD	000000000r			; 0
	DD	03f028283r			; 0.509804
	DD	03f800000r			; 1
CONST	ENDS
;	COMDAT ?IndianRed@Colors@DirectX@@3UXMVECTORF32@2@B
CONST	SEGMENT
?IndianRed@Colors@DirectX@@3UXMVECTORF32@2@B DD 03f4dcdcfr ; 0.803922 ; DirectX::Colors::IndianRed
	DD	03eb8b8b9r			; 0.360784
	DD	03eb8b8b9r			; 0.360784
	DD	03f800000r			; 1
CONST	ENDS
;	COMDAT ?HotPink@Colors@DirectX@@3UXMVECTORF32@2@B
CONST	SEGMENT
?HotPink@Colors@DirectX@@3UXMVECTORF32@2@B DD 03f800000r ; 1 ; DirectX::Colors::HotPink
	DD	03ed2d2d4r			; 0.411765
	DD	03f34b4b5r			; 0.705882
	DD	03f800000r			; 1
CONST	ENDS
;	COMDAT ?Honeydew@Colors@DirectX@@3UXMVECTORF32@2@B
CONST	SEGMENT
?Honeydew@Colors@DirectX@@3UXMVECTORF32@2@B DD 03f70f0f2r ; 0.941177 ; DirectX::Colors::Honeydew
	DD	03f800000r			; 1
	DD	03f70f0f2r			; 0.941177
	DD	03f800000r			; 1
CONST	ENDS
;	COMDAT ?GreenYellow@Colors@DirectX@@3UXMVECTORF32@2@B
CONST	SEGMENT
?GreenYellow@Colors@DirectX@@3UXMVECTORF32@2@B DD 03f2dadaer ; 0.678431 ; DirectX::Colors::GreenYellow
	DD	03f800000r			; 1
	DD	03e3cbcbdr			; 0.184314
	DD	03f800000r			; 1
CONST	ENDS
;	COMDAT ?Green@Colors@DirectX@@3UXMVECTORF32@2@B
CONST	SEGMENT
?Green@Colors@DirectX@@3UXMVECTORF32@2@B DD 000000000r ; 0 ; DirectX::Colors::Green
	DD	03f008081r			; 0.501961
	DD	000000000r			; 0
	DD	03f800000r			; 1
CONST	ENDS
;	COMDAT ?Gray@Colors@DirectX@@3UXMVECTORF32@2@B
CONST	SEGMENT
?Gray@Colors@DirectX@@3UXMVECTORF32@2@B DD 03f008081r ; 0.501961 ; DirectX::Colors::Gray
	DD	03f008081r			; 0.501961
	DD	03f008081r			; 0.501961
	DD	03f800000r			; 1
CONST	ENDS
;	COMDAT ?Goldenrod@Colors@DirectX@@3UXMVECTORF32@2@B
CONST	SEGMENT
?Goldenrod@Colors@DirectX@@3UXMVECTORF32@2@B DD 03f5adadcr ; 0.854902 ; DirectX::Colors::Goldenrod
	DD	03f25a5a6r			; 0.647059
	DD	03e008081r			; 0.12549
	DD	03f800000r			; 1
CONST	ENDS
;	COMDAT ?Gold@Colors@DirectX@@3UXMVECTORF32@2@B
CONST	SEGMENT
?Gold@Colors@DirectX@@3UXMVECTORF32@2@B DD 03f800000r ; 1 ; DirectX::Colors::Gold
	DD	03f57d7d9r			; 0.843137
	DD	000000000r			; 0
	DD	03f800000r			; 1
CONST	ENDS
;	COMDAT ?GhostWhite@Colors@DirectX@@3UXMVECTORF32@2@B
CONST	SEGMENT
?GhostWhite@Colors@DirectX@@3UXMVECTORF32@2@B DD 03f78f8far ; 0.972549 ; DirectX::Colors::GhostWhite
	DD	03f78f8far			; 0.972549
	DD	03f800000r			; 1
	DD	03f800000r			; 1
CONST	ENDS
;	COMDAT ?Gainsboro@Colors@DirectX@@3UXMVECTORF32@2@B
CONST	SEGMENT
?Gainsboro@Colors@DirectX@@3UXMVECTORF32@2@B DD 03f5cdcder ; 0.862745 ; DirectX::Colors::Gainsboro
	DD	03f5cdcder			; 0.862745
	DD	03f5cdcder			; 0.862745
	DD	03f800000r			; 1
CONST	ENDS
;	COMDAT ?Fuchsia@Colors@DirectX@@3UXMVECTORF32@2@B
CONST	SEGMENT
?Fuchsia@Colors@DirectX@@3UXMVECTORF32@2@B DD 03f800000r ; 1 ; DirectX::Colors::Fuchsia
	DD	000000000r			; 0
	DD	03f800000r			; 1
	DD	03f800000r			; 1
CONST	ENDS
;	COMDAT ?ForestGreen@Colors@DirectX@@3UXMVECTORF32@2@B
CONST	SEGMENT
?ForestGreen@Colors@DirectX@@3UXMVECTORF32@2@B DD 03e088889r ; 0.133333 ; DirectX::Colors::ForestGreen
	DD	03f0b8b8cr			; 0.545098
	DD	03e088889r			; 0.133333
	DD	03f800000r			; 1
CONST	ENDS
;	COMDAT ?FloralWhite@Colors@DirectX@@3UXMVECTORF32@2@B
CONST	SEGMENT
?FloralWhite@Colors@DirectX@@3UXMVECTORF32@2@B DD 03f800000r ; 1 ; DirectX::Colors::FloralWhite
	DD	03f7afafcr			; 0.980392
	DD	03f70f0f2r			; 0.941177
	DD	03f800000r			; 1
CONST	ENDS
;	COMDAT ?Firebrick@Colors@DirectX@@3UXMVECTORF32@2@B
CONST	SEGMENT
?Firebrick@Colors@DirectX@@3UXMVECTORF32@2@B DD 03f32b2b3r ; 0.698039 ; DirectX::Colors::Firebrick
	DD	03e088889r			; 0.133333
	DD	03e088889r			; 0.133333
	DD	03f800000r			; 1
CONST	ENDS
;	COMDAT ?DodgerBlue@Colors@DirectX@@3UXMVECTORF32@2@B
CONST	SEGMENT
?DodgerBlue@Colors@DirectX@@3UXMVECTORF32@2@B DD 03df0f0f2r ; 0.117647 ; DirectX::Colors::DodgerBlue
	DD	03f109091r			; 0.564706
	DD	03f800000r			; 1
	DD	03f800000r			; 1
CONST	ENDS
;	COMDAT ?DimGray@Colors@DirectX@@3UXMVECTORF32@2@B
CONST	SEGMENT
?DimGray@Colors@DirectX@@3UXMVECTORF32@2@B DD 03ed2d2d4r ; 0.411765 ; DirectX::Colors::DimGray
	DD	03ed2d2d4r			; 0.411765
	DD	03ed2d2d4r			; 0.411765
	DD	03f800000r			; 1
CONST	ENDS
;	COMDAT ?DeepSkyBlue@Colors@DirectX@@3UXMVECTORF32@2@B
CONST	SEGMENT
?DeepSkyBlue@Colors@DirectX@@3UXMVECTORF32@2@B DD 000000000r ; 0 ; DirectX::Colors::DeepSkyBlue
	DD	03f3fbfc0r			; 0.74902
	DD	03f800000r			; 1
	DD	03f800000r			; 1
CONST	ENDS
;	COMDAT ?DeepPink@Colors@DirectX@@3UXMVECTORF32@2@B
CONST	SEGMENT
?DeepPink@Colors@DirectX@@3UXMVECTORF32@2@B DD 03f800000r ; 1 ; DirectX::Colors::DeepPink
	DD	03da0a0a1r			; 0.0784314
	DD	03f139394r			; 0.576471
	DD	03f800000r			; 1
CONST	ENDS
;	COMDAT ?DarkViolet@Colors@DirectX@@3UXMVECTORF32@2@B
CONST	SEGMENT
?DarkViolet@Colors@DirectX@@3UXMVECTORF32@2@B DD 03f149495r ; 0.580392 ; DirectX::Colors::DarkViolet
	DD	000000000r			; 0
	DD	03f53d3d5r			; 0.827451
	DD	03f800000r			; 1
CONST	ENDS
;	COMDAT ?DarkTurquoise@Colors@DirectX@@3UXMVECTORF32@2@B
CONST	SEGMENT
?DarkTurquoise@Colors@DirectX@@3UXMVECTORF32@2@B DD 000000000r ; 0 ; DirectX::Colors::DarkTurquoise
	DD	03f4eced0r			; 0.807843
	DD	03f51d1d3r			; 0.819608
	DD	03f800000r			; 1
CONST	ENDS
;	COMDAT ?DarkSlateGray@Colors@DirectX@@3UXMVECTORF32@2@B
CONST	SEGMENT
?DarkSlateGray@Colors@DirectX@@3UXMVECTORF32@2@B DD 03e3cbcbdr ; 0.184314 ; DirectX::Colors::DarkSlateGray
	DD	03e9e9e9fr			; 0.309804
	DD	03e9e9e9fr			; 0.309804
	DD	03f800000r			; 1
CONST	ENDS
;	COMDAT ?DarkSlateBlue@Colors@DirectX@@3UXMVECTORF32@2@B
CONST	SEGMENT
?DarkSlateBlue@Colors@DirectX@@3UXMVECTORF32@2@B DD 03e909091r ; 0.282353 ; DirectX::Colors::DarkSlateBlue
	DD	03e74f4f6r			; 0.239216
	DD	03f0b8b8cr			; 0.545098
	DD	03f800000r			; 1
CONST	ENDS
;	COMDAT ?DarkSeaGreen@Colors@DirectX@@3UXMVECTORF32@2@B
CONST	SEGMENT
?DarkSeaGreen@Colors@DirectX@@3UXMVECTORF32@2@B DD 03f0f8f90r ; 0.560784 ; DirectX::Colors::DarkSeaGreen
	DD	03f3cbcbdr			; 0.737255
	DD	03f0b8b8cr			; 0.545098
	DD	03f800000r			; 1
CONST	ENDS
;	COMDAT ?DarkSalmon@Colors@DirectX@@3UXMVECTORF32@2@B
CONST	SEGMENT
?DarkSalmon@Colors@DirectX@@3UXMVECTORF32@2@B DD 03f69e9ebr ; 0.913726 ; DirectX::Colors::DarkSalmon
	DD	03f169697r			; 0.588235
	DD	03ef4f4f6r			; 0.478431
	DD	03f800000r			; 1
CONST	ENDS
;	COMDAT ?DarkRed@Colors@DirectX@@3UXMVECTORF32@2@B
CONST	SEGMENT
?DarkRed@Colors@DirectX@@3UXMVECTORF32@2@B DD 03f0b8b8cr ; 0.545098 ; DirectX::Colors::DarkRed
	DD	000000000r			; 0
	DD	000000000r			; 0
	DD	03f800000r			; 1
CONST	ENDS
;	COMDAT ?DarkOrchid@Colors@DirectX@@3UXMVECTORF32@2@B
CONST	SEGMENT
?DarkOrchid@Colors@DirectX@@3UXMVECTORF32@2@B DD 03f19999ar ; 0.6 ; DirectX::Colors::DarkOrchid
	DD	03e48c8car			; 0.196078
	DD	03f4ccccer			; 0.8
	DD	03f800000r			; 1
CONST	ENDS
;	COMDAT ?DarkOrange@Colors@DirectX@@3UXMVECTORF32@2@B
CONST	SEGMENT
?DarkOrange@Colors@DirectX@@3UXMVECTORF32@2@B DD 03f800000r ; 1 ; DirectX::Colors::DarkOrange
	DD	03f0c8c8dr			; 0.54902
	DD	000000000r			; 0
	DD	03f800000r			; 1
CONST	ENDS
;	COMDAT ?DarkOliveGreen@Colors@DirectX@@3UXMVECTORF32@2@B
CONST	SEGMENT
?DarkOliveGreen@Colors@DirectX@@3UXMVECTORF32@2@B DD 03eaaaaabr ; 0.333333 ; DirectX::Colors::DarkOliveGreen
	DD	03ed6d6d8r			; 0.419608
	DD	03e3cbcbdr			; 0.184314
	DD	03f800000r			; 1
CONST	ENDS
;	COMDAT ?DarkMagenta@Colors@DirectX@@3UXMVECTORF32@2@B
CONST	SEGMENT
?DarkMagenta@Colors@DirectX@@3UXMVECTORF32@2@B DD 03f0b8b8cr ; 0.545098 ; DirectX::Colors::DarkMagenta
	DD	000000000r			; 0
	DD	03f0b8b8cr			; 0.545098
	DD	03f800000r			; 1
CONST	ENDS
;	COMDAT ?DarkKhaki@Colors@DirectX@@3UXMVECTORF32@2@B
CONST	SEGMENT
?DarkKhaki@Colors@DirectX@@3UXMVECTORF32@2@B DD 03f3dbdber ; 0.741176 ; DirectX::Colors::DarkKhaki
	DD	03f37b7b8r			; 0.717647
	DD	03ed6d6d8r			; 0.419608
	DD	03f800000r			; 1
CONST	ENDS
;	COMDAT ?DarkGreen@Colors@DirectX@@3UXMVECTORF32@2@B
CONST	SEGMENT
?DarkGreen@Colors@DirectX@@3UXMVECTORF32@2@B DD 000000000r ; 0 ; DirectX::Colors::DarkGreen
	DD	03ec8c8car			; 0.392157
	DD	000000000r			; 0
	DD	03f800000r			; 1
CONST	ENDS
;	COMDAT ?DarkGray@Colors@DirectX@@3UXMVECTORF32@2@B
CONST	SEGMENT
?DarkGray@Colors@DirectX@@3UXMVECTORF32@2@B DD 03f29a9aar ; 0.662745 ; DirectX::Colors::DarkGray
	DD	03f29a9aar			; 0.662745
	DD	03f29a9aar			; 0.662745
	DD	03f800000r			; 1
CONST	ENDS
;	COMDAT ?DarkGoldenrod@Colors@DirectX@@3UXMVECTORF32@2@B
CONST	SEGMENT
?DarkGoldenrod@Colors@DirectX@@3UXMVECTORF32@2@B DD 03f38b8b9r ; 0.721569 ; DirectX::Colors::DarkGoldenrod
	DD	03f068687r			; 0.52549
	DD	03d30b0b1r			; 0.0431373
	DD	03f800000r			; 1
CONST	ENDS
;	COMDAT ?DarkCyan@Colors@DirectX@@3UXMVECTORF32@2@B
CONST	SEGMENT
?DarkCyan@Colors@DirectX@@3UXMVECTORF32@2@B DD 000000000r ; 0 ; DirectX::Colors::DarkCyan
	DD	03f0b8b8cr			; 0.545098
	DD	03f0b8b8cr			; 0.545098
	DD	03f800000r			; 1
CONST	ENDS
;	COMDAT ?DarkBlue@Colors@DirectX@@3UXMVECTORF32@2@B
CONST	SEGMENT
?DarkBlue@Colors@DirectX@@3UXMVECTORF32@2@B DD 000000000r ; 0 ; DirectX::Colors::DarkBlue
	DD	000000000r			; 0
	DD	03f0b8b8cr			; 0.545098
	DD	03f800000r			; 1
CONST	ENDS
;	COMDAT ?Cyan@Colors@DirectX@@3UXMVECTORF32@2@B
CONST	SEGMENT
?Cyan@Colors@DirectX@@3UXMVECTORF32@2@B DD 000000000r ; 0 ; DirectX::Colors::Cyan
	DD	03f800000r			; 1
	DD	03f800000r			; 1
	DD	03f800000r			; 1
CONST	ENDS
;	COMDAT ?Crimson@Colors@DirectX@@3UXMVECTORF32@2@B
CONST	SEGMENT
?Crimson@Colors@DirectX@@3UXMVECTORF32@2@B DD 03f5cdcder ; 0.862745 ; DirectX::Colors::Crimson
	DD	03da0a0a1r			; 0.0784314
	DD	03e70f0f2r			; 0.235294
	DD	03f800000r			; 1
CONST	ENDS
;	COMDAT ?Cornsilk@Colors@DirectX@@3UXMVECTORF32@2@B
CONST	SEGMENT
?Cornsilk@Colors@DirectX@@3UXMVECTORF32@2@B DD 03f800000r ; 1 ; DirectX::Colors::Cornsilk
	DD	03f78f8far			; 0.972549
	DD	03f5cdcder			; 0.862745
	DD	03f800000r			; 1
CONST	ENDS
;	COMDAT ?CornflowerBlue@Colors@DirectX@@3UXMVECTORF32@2@B
CONST	SEGMENT
?CornflowerBlue@Colors@DirectX@@3UXMVECTORF32@2@B DD 03ec8c8car ; 0.392157 ; DirectX::Colors::CornflowerBlue
	DD	03f159596r			; 0.584314
	DD	03f6dedefr			; 0.929412
	DD	03f800000r			; 1
CONST	ENDS
;	COMDAT ?Coral@Colors@DirectX@@3UXMVECTORF32@2@B
CONST	SEGMENT
?Coral@Colors@DirectX@@3UXMVECTORF32@2@B DD 03f800000r ; 1 ; DirectX::Colors::Coral
	DD	03efeff00r			; 0.498039
	DD	03ea0a0a1r			; 0.313726
	DD	03f800000r			; 1
CONST	ENDS
;	COMDAT ?Chocolate@Colors@DirectX@@3UXMVECTORF32@2@B
CONST	SEGMENT
?Chocolate@Colors@DirectX@@3UXMVECTORF32@2@B DD 03f52d2d4r ; 0.823529 ; DirectX::Colors::Chocolate
	DD	03ed2d2d4r			; 0.411765
	DD	03df0f0f2r			; 0.117647
	DD	03f800000r			; 1
CONST	ENDS
;	COMDAT ?Chartreuse@Colors@DirectX@@3UXMVECTORF32@2@B
CONST	SEGMENT
?Chartreuse@Colors@DirectX@@3UXMVECTORF32@2@B DD 03efeff00r ; 0.498039 ; DirectX::Colors::Chartreuse
	DD	03f800000r			; 1
	DD	000000000r			; 0
	DD	03f800000r			; 1
CONST	ENDS
;	COMDAT ?CadetBlue@Colors@DirectX@@3UXMVECTORF32@2@B
CONST	SEGMENT
?CadetBlue@Colors@DirectX@@3UXMVECTORF32@2@B DD 03ebebebfr ; 0.372549 ; DirectX::Colors::CadetBlue
	DD	03f1e9e9fr			; 0.619608
	DD	03f20a0a1r			; 0.627451
	DD	03f800000r			; 1
CONST	ENDS
;	COMDAT ?BurlyWood@Colors@DirectX@@3UXMVECTORF32@2@B
CONST	SEGMENT
?BurlyWood@Colors@DirectX@@3UXMVECTORF32@2@B DD 03f5edee0r ; 0.870588 ; DirectX::Colors::BurlyWood
	DD	03f38b8b9r			; 0.721569
	DD	03f078788r			; 0.529412
	DD	03f800000r			; 1
CONST	ENDS
;	COMDAT ?Brown@Colors@DirectX@@3UXMVECTORF32@2@B
CONST	SEGMENT
?Brown@Colors@DirectX@@3UXMVECTORF32@2@B DD 03f25a5a6r ; 0.647059 ; DirectX::Colors::Brown
	DD	03e28a8a9r			; 0.164706
	DD	03e28a8a9r			; 0.164706
	DD	03f800000r			; 1
CONST	ENDS
;	COMDAT ?BlueViolet@Colors@DirectX@@3UXMVECTORF32@2@B
CONST	SEGMENT
?BlueViolet@Colors@DirectX@@3UXMVECTORF32@2@B DD 03f0a8a8br ; 0.541176 ; DirectX::Colors::BlueViolet
	DD	03e2cacadr			; 0.168627
	DD	03f62e2e4r			; 0.886275
	DD	03f800000r			; 1
CONST	ENDS
;	COMDAT ?Blue@Colors@DirectX@@3UXMVECTORF32@2@B
CONST	SEGMENT
?Blue@Colors@DirectX@@3UXMVECTORF32@2@B DD 000000000r ; 0 ; DirectX::Colors::Blue
	DD	000000000r			; 0
	DD	03f800000r			; 1
	DD	03f800000r			; 1
CONST	ENDS
;	COMDAT ?BlanchedAlmond@Colors@DirectX@@3UXMVECTORF32@2@B
CONST	SEGMENT
?BlanchedAlmond@Colors@DirectX@@3UXMVECTORF32@2@B DD 03f800000r ; 1 ; DirectX::Colors::BlanchedAlmond
	DD	03f6bebedr			; 0.921569
	DD	03f4dcdcfr			; 0.803922
	DD	03f800000r			; 1
CONST	ENDS
;	COMDAT ?Black@Colors@DirectX@@3UXMVECTORF32@2@B
CONST	SEGMENT
?Black@Colors@DirectX@@3UXMVECTORF32@2@B DD 000000000r ; 0 ; DirectX::Colors::Black
	DD	000000000r			; 0
	DD	000000000r			; 0
	DD	03f800000r			; 1
CONST	ENDS
;	COMDAT ?Bisque@Colors@DirectX@@3UXMVECTORF32@2@B
CONST	SEGMENT
?Bisque@Colors@DirectX@@3UXMVECTORF32@2@B DD 03f800000r ; 1 ; DirectX::Colors::Bisque
	DD	03f64e4e6r			; 0.894118
	DD	03f44c4c6r			; 0.768628
	DD	03f800000r			; 1
CONST	ENDS
;	COMDAT ?Beige@Colors@DirectX@@3UXMVECTORF32@2@B
CONST	SEGMENT
?Beige@Colors@DirectX@@3UXMVECTORF32@2@B DD 03f75f5f7r ; 0.960784 ; DirectX::Colors::Beige
	DD	03f75f5f7r			; 0.960784
	DD	03f5cdcder			; 0.862745
	DD	03f800000r			; 1
CONST	ENDS
;	COMDAT ?Azure@Colors@DirectX@@3UXMVECTORF32@2@B
CONST	SEGMENT
?Azure@Colors@DirectX@@3UXMVECTORF32@2@B DD 03f70f0f2r ; 0.941177 ; DirectX::Colors::Azure
	DD	03f800000r			; 1
	DD	03f800000r			; 1
	DD	03f800000r			; 1
CONST	ENDS
;	COMDAT ?Aquamarine@Colors@DirectX@@3UXMVECTORF32@2@B
CONST	SEGMENT
?Aquamarine@Colors@DirectX@@3UXMVECTORF32@2@B DD 03efeff00r ; 0.498039 ; DirectX::Colors::Aquamarine
	DD	03f800000r			; 1
	DD	03f54d4d6r			; 0.831373
	DD	03f800000r			; 1
CONST	ENDS
;	COMDAT ?Aqua@Colors@DirectX@@3UXMVECTORF32@2@B
CONST	SEGMENT
?Aqua@Colors@DirectX@@3UXMVECTORF32@2@B DD 000000000r ; 0 ; DirectX::Colors::Aqua
	DD	03f800000r			; 1
	DD	03f800000r			; 1
	DD	03f800000r			; 1
CONST	ENDS
;	COMDAT ?AntiqueWhite@Colors@DirectX@@3UXMVECTORF32@2@B
CONST	SEGMENT
?AntiqueWhite@Colors@DirectX@@3UXMVECTORF32@2@B DD 03f7afafcr ; 0.980392 ; DirectX::Colors::AntiqueWhite
	DD	03f6bebedr			; 0.921569
	DD	03f57d7d9r			; 0.843137
	DD	03f800000r			; 1
CONST	ENDS
;	COMDAT ?AliceBlue@Colors@DirectX@@3UXMVECTORF32@2@B
CONST	SEGMENT
?AliceBlue@Colors@DirectX@@3UXMVECTORF32@2@B DD 03f70f0f2r ; 0.941177 ; DirectX::Colors::AliceBlue
	DD	03f78f8far			; 0.972549
	DD	03f800000r			; 1
	DD	03f800000r			; 1
CONST	ENDS
PUBLIC	??_H@YAXPEAX_K1P6APEAX0@Z@Z			; `vector constructor iterator'
PUBLIC	?__empty_global_delete@@YAXPEAX@Z		; __empty_global_delete
PUBLIC	?__empty_global_delete@@YAXPEAX_K@Z		; __empty_global_delete
PUBLIC	?fpclassify@@YAHM@Z				; fpclassify
PUBLIC	?acos@@YAMM@Z					; acos
PUBLIC	??BXMVECTORI32@DirectX@@QEBA?AT__m128@@XZ	; DirectX::XMVECTORI32::operator __m128
PUBLIC	??BXMVECTORU32@DirectX@@QEBA?AT__m128@@XZ	; DirectX::XMVECTORU32::operator __m128
PUBLIC	??GDirectX@@YQ?AT__m128@@T1@@Z			; DirectX::operator-
PUBLIC	??HDirectX@@YQ?AT__m128@@T1@0@Z			; DirectX::operator+
PUBLIC	??GDirectX@@YQ?AT__m128@@T1@0@Z			; DirectX::operator-
PUBLIC	??DDirectX@@YQ?AT__m128@@T1@M@Z			; DirectX::operator*
PUBLIC	??0XMMATRIX@DirectX@@QEAA@XZ			; DirectX::XMMATRIX::XMMATRIX
PUBLIC	??DXMMATRIX@DirectX@@QEBQ?AU01@U01@@Z		; DirectX::XMMATRIX::operator*
PUBLIC	??0XMFLOAT3@DirectX@@QEAA@XZ			; DirectX::XMFLOAT3::XMFLOAT3
PUBLIC	??0XMFLOAT3@DirectX@@QEAA@MMM@Z			; DirectX::XMFLOAT3::XMFLOAT3
PUBLIC	??4XMFLOAT3@DirectX@@QEAAAEAU01@AEBU01@@Z	; DirectX::XMFLOAT3::operator=
PUBLIC	??0XMFLOAT4@DirectX@@QEAA@XZ			; DirectX::XMFLOAT4::XMFLOAT4
PUBLIC	??0XMFLOAT4X4@DirectX@@QEAA@XZ			; DirectX::XMFLOAT4X4::XMFLOAT4X4
PUBLIC	?XMLoadFloat3@DirectX@@YQ?AT__m128@@PEBUXMFLOAT3@1@@Z ; DirectX::XMLoadFloat3
PUBLIC	?XMLoadFloat4@DirectX@@YQ?AT__m128@@PEBUXMFLOAT4@1@@Z ; DirectX::XMLoadFloat4
PUBLIC	?XMLoadFloat4x4@DirectX@@YQ?AUXMMATRIX@1@PEBUXMFLOAT4X4@1@@Z ; DirectX::XMLoadFloat4x4
PUBLIC	?XMStoreFloat3@DirectX@@YQXPEAUXMFLOAT3@1@T__m128@@@Z ; DirectX::XMStoreFloat3
PUBLIC	?XMStoreFloat4@DirectX@@YQXPEAUXMFLOAT4@1@T__m128@@@Z ; DirectX::XMStoreFloat4
PUBLIC	?XMStoreFloat4x4@DirectX@@YQXPEAUXMFLOAT4X4@1@UXMMATRIX@1@@Z ; DirectX::XMStoreFloat4x4
PUBLIC	?XMVectorSet@DirectX@@YQ?AT__m128@@MMMM@Z	; DirectX::XMVectorSet
PUBLIC	?XMVectorGetX@DirectX@@YQMT__m128@@@Z		; DirectX::XMVectorGetX
PUBLIC	?XMVectorGetY@DirectX@@YQMT__m128@@@Z		; DirectX::XMVectorGetY
PUBLIC	?XMVectorNegate@DirectX@@YQ?AT__m128@@T2@@Z	; DirectX::XMVectorNegate
PUBLIC	?XMVectorAdd@DirectX@@YQ?AT__m128@@T2@0@Z	; DirectX::XMVectorAdd
PUBLIC	?XMVectorSubtract@DirectX@@YQ?AT__m128@@T2@0@Z	; DirectX::XMVectorSubtract
PUBLIC	?XMVectorScale@DirectX@@YQ?AT__m128@@T2@M@Z	; DirectX::XMVectorScale
PUBLIC	?XMVectorLerp@DirectX@@YQ?AT__m128@@T2@0M@Z	; DirectX::XMVectorLerp
PUBLIC	?XMVector3Dot@DirectX@@YQ?AT__m128@@T2@0@Z	; DirectX::XMVector3Dot
PUBLIC	?XMVector3Cross@DirectX@@YQ?AT__m128@@T2@0@Z	; DirectX::XMVector3Cross
PUBLIC	?XMVector3Length@DirectX@@YQ?AT__m128@@T2@@Z	; DirectX::XMVector3Length
PUBLIC	?XMVector3Normalize@DirectX@@YQ?AT__m128@@T2@@Z	; DirectX::XMVector3Normalize
PUBLIC	?XMMatrixMultiply@DirectX@@YQ?AUXMMATRIX@1@U21@AEBU21@@Z ; DirectX::XMMatrixMultiply
PUBLIC	??0tagColliderDesc@CCollider@Engine@@QEAA@XZ	; Engine::CCollider::tagColliderDesc::tagColliderDesc
PUBLIC	??0CEnemy@Client@@QEAA@PEAUID3D11Device@@PEAUID3D11DeviceContext@@@Z ; Client::CEnemy::CEnemy
PUBLIC	??0CEnemy@Client@@QEAA@AEBV01@@Z		; Client::CEnemy::CEnemy
PUBLIC	??1CEnemy@Client@@UEAA@XZ			; Client::CEnemy::~CEnemy
PUBLIC	?Initialize_Prototype@CEnemy@Client@@UEAAJW4TYPE@12@@Z ; Client::CEnemy::Initialize_Prototype
PUBLIC	?Initialize@CEnemy@Client@@UEAAJPEAX@Z		; Client::CEnemy::Initialize
PUBLIC	?Tick@CEnemy@Client@@UEAAXN@Z			; Client::CEnemy::Tick
PUBLIC	?LateTick@CEnemy@Client@@UEAAXN@Z		; Client::CEnemy::LateTick
PUBLIC	?Render@CEnemy@Client@@UEAAJXZ			; Client::CEnemy::Render
PUBLIC	?RenderGUI@CEnemy@Client@@UEAAXXZ		; Client::CEnemy::RenderGUI
PUBLIC	?GetWorldMatrix@CEnemy@Client@@QEAA?BUXMMATRIX@DirectX@@XZ ; Client::CEnemy::GetWorldMatrix
PUBLIC	?Reset@CEnemy@Client@@QEAAXXZ			; Client::CEnemy::Reset
PUBLIC	?IsOverlap@CEnemy@Client@@QEBA_NXZ		; Client::CEnemy::IsOverlap
PUBLIC	?SetOverlap@CEnemy@Client@@QEAAX_NUXMFLOAT3@DirectX@@@Z ; Client::CEnemy::SetOverlap
PUBLIC	?GetPosition@CEnemy@Client@@QEAA?AUXMFLOAT4@DirectX@@XZ ; Client::CEnemy::GetPosition
PUBLIC	?SetPosition@CEnemy@Client@@QEAAXUXMFLOAT3@DirectX@@@Z ; Client::CEnemy::SetPosition
PUBLIC	?GetRootBonePosition@CEnemy@Client@@QEAA?AT__m128@@XZ ; Client::CEnemy::GetRootBonePosition
PUBLIC	?GetOverlapCollider@CEnemy@Client@@QEAAPEAVCCollider@Engine@@XZ ; Client::CEnemy::GetOverlapCollider
PUBLIC	?SetNuckback@CEnemy@Client@@QEAAXM@Z		; Client::CEnemy::SetNuckback
PUBLIC	?SetAirborne@CEnemy@Client@@QEAAXM@Z		; Client::CEnemy::SetAirborne
PUBLIC	?RecvDamage@CEnemy@Client@@QEAAXM@Z		; Client::CEnemy::RecvDamage
PUBLIC	?AddComponents@CEnemy@Client@@AEAAJXZ		; Client::CEnemy::AddComponents
PUBLIC	?SetupShaderResources@CEnemy@Client@@AEAAJXZ	; Client::CEnemy::SetupShaderResources
PUBLIC	?OverlapProcess@CEnemy@Client@@AEAAXN@Z		; Client::CEnemy::OverlapProcess
PUBLIC	?LookPlayer@CEnemy@Client@@AEAAXN@Z		; Client::CEnemy::LookPlayer
PUBLIC	?Trace@CEnemy@Client@@AEAAXN@Z			; Client::CEnemy::Trace
PUBLIC	?Attack@CEnemy@Client@@AEAAXN@Z			; Client::CEnemy::Attack
PUBLIC	?Idle@CEnemy@Client@@AEAAXN@Z			; Client::CEnemy::Idle
PUBLIC	?Hit@CEnemy@Client@@AEAA_NN@Z			; Client::CEnemy::Hit
PUBLIC	?NuckBack@CEnemy@Client@@AEAAXN@Z		; Client::CEnemy::NuckBack
PUBLIC	?Airborne@CEnemy@Client@@AEAAXN@Z		; Client::CEnemy::Airborne
PUBLIC	?Holding@CEnemy@Client@@AEAAXN@Z		; Client::CEnemy::Holding
PUBLIC	?DieCheck@CEnemy@Client@@AEAA_NXZ		; Client::CEnemy::DieCheck
PUBLIC	?Die@CEnemy@Client@@AEAAXN@Z			; Client::CEnemy::Die
PUBLIC	?Freeze@CEnemy@Client@@AEAANN@Z			; Client::CEnemy::Freeze
PUBLIC	?AnimationState@CEnemy@Client@@AEAAXN@Z		; Client::CEnemy::AnimationState
PUBLIC	?OnCollisionEnter@CEnemy@Client@@UEAAXPEAVCCollider@Engine@@0@Z ; Client::CEnemy::OnCollisionEnter
PUBLIC	?OnCollisionStay@CEnemy@Client@@UEAAXPEAVCCollider@Engine@@0@Z ; Client::CEnemy::OnCollisionStay
PUBLIC	?OnCollisionExit@CEnemy@Client@@UEAAXPEAVCCollider@Engine@@0@Z ; Client::CEnemy::OnCollisionExit
PUBLIC	?Create@CEnemy@Client@@SAPEAV12@PEAUID3D11Device@@PEAUID3D11DeviceContext@@W4TYPE@12@@Z ; Client::CEnemy::Create
PUBLIC	?Clone@CEnemy@Client@@UEAAPEAVCGameObject@Engine@@PEAX@Z ; Client::CEnemy::Clone
PUBLIC	?Free@CEnemy@Client@@UEAAXXZ			; Client::CEnemy::Free
PUBLIC	??_GCEnemy@Client@@UEAAPEAXI@Z			; Client::CEnemy::`scalar deleting destructor'
PUBLIC	?IsFreeze@CApplicationManager@Client@@QEBA_NXZ	; Client::CApplicationManager::IsFreeze
PUBLIC	?SetHitFreeze@CApplicationManager@Client@@QEAAX_N@Z ; Client::CApplicationManager::SetHitFreeze
PUBLIC	?GetCollider@CPlayerCamera@Client@@QEAAPEAVCCollider@Engine@@XZ ; Client::CPlayerCamera::GetCollider
PUBLIC	?ResetComboTime@CCharacter@Client@@QEAAXXZ	; Client::CCharacter::ResetComboTime
PUBLIC	?AddCombo@CCharacter@Client@@QEAAXXZ		; Client::CCharacter::AddCombo
PUBLIC	?GetBodyCollider@CCharacter@Client@@QEBAPEAVCCollider@Engine@@XZ ; Client::CCharacter::GetBodyCollider
PUBLIC	?GetWeaponCollider@CCharacter@Client@@QEBAPEAVCCollider@Engine@@XZ ; Client::CCharacter::GetWeaponCollider
PUBLIC	?GetEnemyCheckCollider@CCharacter@Client@@QEBAPEAVCCollider@Engine@@XZ ; Client::CCharacter::GetEnemyCheckCollider
PUBLIC	?GetOffSetMatrix@CBone@Engine@@QEBA?AUXMFLOAT4X4@DirectX@@XZ ; Engine::CBone::GetOffSetMatrix
PUBLIC	?GetCombinedMatrix@CBone@Engine@@QEBA?AUXMFLOAT4X4@DirectX@@XZ ; Engine::CBone::GetCombinedMatrix
PUBLIC	??$isnan@M@@YA_NM@Z				; isnan<float>
PUBLIC	??$Safe_Release@PEAVCEnemy@Client@@@Engine@@YAKAEAPEAVCEnemy@Client@@@Z ; Engine::Safe_Release<Client::CEnemy * __ptr64>
PUBLIC	??$Safe_Release@PEAVCRenderer@Engine@@@Engine@@YAKAEAPEAVCRenderer@0@@Z ; Engine::Safe_Release<Engine::CRenderer * __ptr64>
PUBLIC	??$Safe_Release@PEAVCTransform@Engine@@@Engine@@YAKAEAPEAVCTransform@0@@Z ; Engine::Safe_Release<Engine::CTransform * __ptr64>
PUBLIC	??$Safe_Release@PEAVCModel@Engine@@@Engine@@YAKAEAPEAVCModel@0@@Z ; Engine::Safe_Release<Engine::CModel * __ptr64>
PUBLIC	??$Safe_Release@PEAVCShader@Engine@@@Engine@@YAKAEAPEAVCShader@0@@Z ; Engine::Safe_Release<Engine::CShader * __ptr64>
PUBLIC	??$Safe_Release@PEAVCCollider@Engine@@@Engine@@YAKAEAPEAVCCollider@0@@Z ; Engine::Safe_Release<Engine::CCollider * __ptr64>
PUBLIC	??_C@_1JE@DMOBBMDE@?$AAc?$AA?3?$AA?2?$AAp?$AAr?$AAo?$AAg?$AAr?$AAa?$AAm?$AA?5?$AAf?$AAi?$AAl?$AAe?$AAs?$AA?5?$AA?$CI?$AAx?$AA8?$AA6?$AA?$CJ?$AA?2?$AAw?$AAi?$AAn?$AAd?$AAo?$AAw?$AAs?$AA?5?$AAk@ ; `string'
PUBLIC	??_C@_1BA@LBADLIHI@?$AAp?$AAS?$AAo?$AAu?$AAr?$AAc?$AAe?$AA?$AA@ ; `string'
PUBLIC	?__LINE__Var@?0??XMLoadFloat3@DirectX@@YQ?AT__m128@@PEBUXMFLOAT3@2@@Z@4JA ; `DirectX::XMLoadFloat3'::`1'::__LINE__Var
PUBLIC	?__LINE__Var@?0??XMLoadFloat4@DirectX@@YQ?AT__m128@@PEBUXMFLOAT4@2@@Z@4JA ; `DirectX::XMLoadFloat4'::`1'::__LINE__Var
PUBLIC	?__LINE__Var@?0??XMLoadFloat4x4@DirectX@@YQ?AUXMMATRIX@2@PEBUXMFLOAT4X4@2@@Z@4JA ; `DirectX::XMLoadFloat4x4'::`1'::__LINE__Var
PUBLIC	??_C@_1BK@FHLBGAOP@?$AAp?$AAD?$AAe?$AAs?$AAt?$AAi?$AAn?$AAa?$AAt?$AAi?$AAo?$AAn?$AA?$AA@ ; `string'
PUBLIC	?__LINE__Var@?0??XMStoreFloat3@DirectX@@YQXPEAUXMFLOAT3@2@T__m128@@@Z@4JA ; `DirectX::XMStoreFloat3'::`1'::__LINE__Var
PUBLIC	?__LINE__Var@?0??XMStoreFloat4@DirectX@@YQXPEAUXMFLOAT4@2@T__m128@@@Z@4JA ; `DirectX::XMStoreFloat4'::`1'::__LINE__Var
PUBLIC	?__LINE__Var@?0??XMStoreFloat4x4@DirectX@@YQXPEAUXMFLOAT4X4@2@UXMMATRIX@2@@Z@4JA ; `DirectX::XMStoreFloat4x4'::`1'::__LINE__Var
PUBLIC	??_7CEnemy@Client@@6BCGameObject@Engine@@@	; Client::CEnemy::`vftable'
PUBLIC	??_7CEnemy@Client@@6BIOnCollisionEnter@Engine@@@ ; Client::CEnemy::`vftable'
PUBLIC	??_7CEnemy@Client@@6BIOnCollisionStay@Engine@@@	; Client::CEnemy::`vftable'
PUBLIC	??_7CEnemy@Client@@6BIOnCollisionExit@Engine@@@	; Client::CEnemy::`vftable'
PUBLIC	??_C@_1BM@CJMPMHDD@?$AAc?$AAo?$AAm?$AA_?$AAt?$AAr?$AAa?$AAn?$AAs?$AAf?$AAo?$AAr?$AAm?$AA?$AA@ ; `string'
PUBLIC	??_C@_0N@EDEIEADG@Bip001Pelvis?$AA@		; `string'
PUBLIC	??_C@_0L@KMOGLACE@BulletCase?$AA@		; `string'
PUBLIC	??_C@_06HFDDOAAP@Bip001?$AA@			; `string'
PUBLIC	??_C@_05KKFOKGIE@Cheek?$AA@			; `string'
PUBLIC	??_C@_07ICGMBDOO@Cheek01?$AA@			; `string'
PUBLIC	??_C@_0BB@FMIBAICL@g_DiffuseTexture?$AA@	; `string'
PUBLIC	??_C@_0N@OEHGEODD@g_BoneMatrix?$AA@		; `string'
PUBLIC	??_C@_1BK@GIOMOCNE@?$AAc?$AAo?$AAm?$AA_?$AAr?$AAe?$AAn?$AAd?$AAe?$AAr?$AAe?$AAr?$AA?$AA@ ; `string'
PUBLIC	??_C@_1CG@COFFFCLL@?$AAp?$AAr?$AAo?$AAt?$AAo?$AA_?$AAc?$AAo?$AAm?$AA_?$AAr?$AAe?$AAn?$AAd?$AAe?$AAr?$AAe?$AAr?$AA?$AA@ ; `string'
PUBLIC	??_C@_1CI@MLEFGO@?$AAp?$AAr?$AAo?$AAt?$AAo?$AA_?$AAc?$AAo?$AAm?$AA_?$AAt?$AAr?$AAa?$AAn?$AAs?$AAf?$AAo?$AAr?$AAm?$AA?$AA@ ; `string'
PUBLIC	??_C@_1BG@GGOMMBBL@?$AAc?$AAo?$AAm?$AA_?$AAs?$AAh?$AAa?$AAd?$AAe?$AAr?$AA?$AA@ ; `string'
PUBLIC	??_C@_1DM@OGMOEMJ@?$AAp?$AAr?$AAo?$AAt?$AAo?$AA_?$AAc?$AAo?$AAm?$AA_?$AAs?$AAh?$AAa?$AAd?$AAe?$AAr?$AA_?$AAv?$AAt?$AAx?$AAa?$AAn?$AAi?$AAm?$AAm?$AAo?$AAd?$AAe?$AAl?$AA?$AA@ ; `string'
PUBLIC	??_C@_1BE@MLNOEPCA@?$AAc?$AAo?$AAm?$AA_?$AAm?$AAo?$AAd?$AAe?$AAl?$AA?$AA@ ; `string'
PUBLIC	??_C@_1DA@JHHOCPPA@?$AAp?$AAr?$AAo?$AAt?$AAo?$AA_?$AAc?$AAo?$AAm?$AA_?$AAm?$AAo?$AAd?$AAe?$AAl?$AA_?$AAe?$AAn?$AAe?$AAm?$AAy?$AA0?$AA1?$AA?$AA@ ; `string'
PUBLIC	??_C@_1DA@IFMLIABO@?$AAp?$AAr?$AAo?$AAt?$AAo?$AA_?$AAc?$AAo?$AAm?$AA_?$AAm?$AAo?$AAd?$AAe?$AAl?$AA_?$AAe?$AAn?$AAe?$AAm?$AAy?$AA0?$AA2?$AA?$AA@ ; `string'
PUBLIC	??_C@_1BK@BKCENIHA@?$AAc?$AAo?$AAm?$AA_?$AAc?$AAo?$AAl?$AAl?$AAi?$AAd?$AAe?$AAr?$AA?$AA@ ; `string'
PUBLIC	??_C@_1CO@HJBGOIAH@?$AAp?$AAr?$AAo?$AAt?$AAo?$AA_?$AAc?$AAo?$AAm?$AA_?$AAo?$AAb?$AAb?$AA_?$AAc?$AAo?$AAl?$AAl?$AAi?$AAd?$AAe?$AAr?$AA?$AA@ ; `string'
PUBLIC	??_C@_1CE@JKMOMFCH@?$AAc?$AAo?$AAm?$AA_?$AAc?$AAo?$AAl?$AAl?$AAd?$AAe?$AAr?$AA_?$AAe?$AAn?$AAe?$AAm?$AAy?$AA?$AA@ ; `string'
PUBLIC	??_C@_1DE@OCAJEKIC@?$AAp?$AAr?$AAo?$AAt?$AAo?$AA_?$AAc?$AAo?$AAm?$AA_?$AAs?$AAp?$AAh?$AAe?$AAr?$AAe?$AA_?$AAc?$AAo?$AAl?$AAl?$AAi?$AAd?$AAe?$AAr?$AA?$AA@ ; `string'
PUBLIC	??_C@_1CG@CHKGKHGN@?$AAc?$AAo?$AAm?$AA_?$AAc?$AAo?$AAl?$AAl?$AAd?$AAe?$AAr?$AA_?$AAw?$AAe?$AAa?$AAp?$AAo?$AAn?$AA?$AA@ ; `string'
PUBLIC	??_C@_0O@PFNLPMLD@g_WorldMatrix?$AA@		; `string'
PUBLIC	??_C@_0N@ELIMCBLG@g_ViewMatrix?$AA@		; `string'
PUBLIC	??_C@_0N@OOHDPIO@g_ProjMatrix?$AA@		; `string'
PUBLIC	??_C@_0P@BDEIJKBM@g_vCamPosition?$AA@		; `string'
PUBLIC	??_C@_0M@NHGOLGEL@g_vLightDir?$AA@		; `string'
PUBLIC	??_C@_0BA@PCOGIHOF@g_vLightDiffuse?$AA@		; `string'
PUBLIC	??_C@_0BB@IJIIKIH@g_vLightSpecular?$AA@		; `string'
PUBLIC	??_C@_0BA@EALGDMPJ@g_vLightAmbient?$AA@		; `string'
PUBLIC	?__LINE__Var@?0??Create@CEnemy@Client@@SAPEAV23@PEAUID3D11Device@@PEAUID3D11DeviceContext@@W4TYPE@23@@Z@4JA ; `Client::CEnemy::Create'::`1'::__LINE__Var
PUBLIC	??_C@_0CN@NPIBGABL@c?3?2github?2framework?2client?2priva@ ; `string'
PUBLIC	??_C@_1BA@HHOMBECE@?$AAM?$AAe?$AAs?$AAs?$AAa?$AAg?$AAe?$AA?$AA@ ; `string'
PUBLIC	??_C@_1DE@HGPPJNOD@?$AAF?$AAa?$AAi?$AAl?$AAe?$AAd?$AA?5?$AAt?$AAo?$AA?5?$AAC?$AAr?$AAe?$AAa?$AAt?$AAe?$AA?5?$AA?3?$AA?5?$AAC?$AAE?$AAn?$AAe?$AAm?$AAy?$AA?$AA@ ; `string'
PUBLIC	?__LINE__Var@?0??Clone@CEnemy@Client@@UEAAPEAVCGameObject@Engine@@PEAX@Z@4JA ; `Client::CEnemy::Clone'::`1'::__LINE__Var
PUBLIC	??_C@_1DC@DLCINEP@?$AAF?$AAa?$AAi?$AAl?$AAe?$AAd?$AA?5?$AAt?$AAo?$AA?5?$AAC?$AAl?$AAo?$AAn?$AAe?$AA?5?$AA?3?$AA?5?$AAC?$AAE?$AAn?$AAe?$AAm?$AAy?$AA?$AA@ ; `string'
PUBLIC	??_R0?AVCGameObject@Engine@@@8			; Engine::CGameObject `RTTI Type Descriptor'
PUBLIC	??_R0?AVCEnemy@Client@@@8			; Client::CEnemy `RTTI Type Descriptor'
PUBLIC	??_R0?AVCCharacter@Client@@@8			; Client::CCharacter `RTTI Type Descriptor'
PUBLIC	??_R0?AVCPlayerCamera@Client@@@8		; Client::CPlayerCamera `RTTI Type Descriptor'
PUBLIC	??_R4CEnemy@Client@@6BCGameObject@Engine@@@	; Client::CEnemy::`RTTI Complete Object Locator'
PUBLIC	??_R3CEnemy@Client@@8				; Client::CEnemy::`RTTI Class Hierarchy Descriptor'
PUBLIC	??_R2CEnemy@Client@@8				; Client::CEnemy::`RTTI Base Class Array'
PUBLIC	??_R1A@?0A@EA@CEnemy@Client@@8			; Client::CEnemy::`RTTI Base Class Descriptor at (0,-1,0,64)'
PUBLIC	??_R1A@?0A@EA@CGameObject@Engine@@8		; Engine::CGameObject::`RTTI Base Class Descriptor at (0,-1,0,64)'
PUBLIC	??_R3CGameObject@Engine@@8			; Engine::CGameObject::`RTTI Class Hierarchy Descriptor'
PUBLIC	??_R2CGameObject@Engine@@8			; Engine::CGameObject::`RTTI Base Class Array'
PUBLIC	??_R1A@?0A@EA@CBase@Engine@@8			; Engine::CBase::`RTTI Base Class Descriptor at (0,-1,0,64)'
PUBLIC	??_R0?AVCBase@Engine@@@8			; Engine::CBase `RTTI Type Descriptor'
PUBLIC	??_R3CBase@Engine@@8				; Engine::CBase::`RTTI Class Hierarchy Descriptor'
PUBLIC	??_R2CBase@Engine@@8				; Engine::CBase::`RTTI Base Class Array'
PUBLIC	??_R1HI@?0A@EA@IOnCollisionEnter@Engine@@8	; Engine::IOnCollisionEnter::`RTTI Base Class Descriptor at (120,-1,0,64)'
PUBLIC	??_R0?AVIOnCollisionEnter@Engine@@@8		; Engine::IOnCollisionEnter `RTTI Type Descriptor'
PUBLIC	??_R3IOnCollisionEnter@Engine@@8		; Engine::IOnCollisionEnter::`RTTI Class Hierarchy Descriptor'
PUBLIC	??_R2IOnCollisionEnter@Engine@@8		; Engine::IOnCollisionEnter::`RTTI Base Class Array'
PUBLIC	??_R1A@?0A@EA@IOnCollisionEnter@Engine@@8	; Engine::IOnCollisionEnter::`RTTI Base Class Descriptor at (0,-1,0,64)'
PUBLIC	??_R1IA@?0A@EA@IOnCollisionStay@Engine@@8	; Engine::IOnCollisionStay::`RTTI Base Class Descriptor at (128,-1,0,64)'
PUBLIC	??_R0?AVIOnCollisionStay@Engine@@@8		; Engine::IOnCollisionStay `RTTI Type Descriptor'
PUBLIC	??_R3IOnCollisionStay@Engine@@8			; Engine::IOnCollisionStay::`RTTI Class Hierarchy Descriptor'
PUBLIC	??_R2IOnCollisionStay@Engine@@8			; Engine::IOnCollisionStay::`RTTI Base Class Array'
PUBLIC	??_R1A@?0A@EA@IOnCollisionStay@Engine@@8	; Engine::IOnCollisionStay::`RTTI Base Class Descriptor at (0,-1,0,64)'
PUBLIC	??_R1II@?0A@EA@IOnCollisionExit@Engine@@8	; Engine::IOnCollisionExit::`RTTI Base Class Descriptor at (136,-1,0,64)'
PUBLIC	??_R0?AVIOnCollisionExit@Engine@@@8		; Engine::IOnCollisionExit `RTTI Type Descriptor'
PUBLIC	??_R3IOnCollisionExit@Engine@@8			; Engine::IOnCollisionExit::`RTTI Class Hierarchy Descriptor'
PUBLIC	??_R2IOnCollisionExit@Engine@@8			; Engine::IOnCollisionExit::`RTTI Base Class Array'
PUBLIC	??_R1A@?0A@EA@IOnCollisionExit@Engine@@8	; Engine::IOnCollisionExit::`RTTI Base Class Descriptor at (0,-1,0,64)'
PUBLIC	??_R4CEnemy@Client@@6BIOnCollisionEnter@Engine@@@ ; Client::CEnemy::`RTTI Complete Object Locator'
PUBLIC	??_R4CEnemy@Client@@6BIOnCollisionStay@Engine@@@ ; Client::CEnemy::`RTTI Complete Object Locator'
PUBLIC	??_R4CEnemy@Client@@6BIOnCollisionExit@Engine@@@ ; Client::CEnemy::`RTTI Complete Object Locator'
PUBLIC	__real@00000000
PUBLIC	__real@0000000000000000
PUBLIC	__real@3dcccccd
PUBLIC	__real@3e19999a
PUBLIC	__real@3ecccccd
PUBLIC	__real@3f000000
PUBLIC	__real@3f4ccccd
PUBLIC	__real@3f800000
PUBLIC	__real@3f8ccccd
PUBLIC	__real@3fa66666
PUBLIC	__real@3fb999999999999a
PUBLIC	__real@3fc00000
PUBLIC	__real@3fc999999999999a
PUBLIC	__real@3fd9999a
PUBLIC	__real@3fe999999999999a
PUBLIC	__real@3ff0000000000000
PUBLIC	__real@40000000
PUBLIC	__real@40600000
PUBLIC	__real@40800000
PUBLIC	__real@40a00000
PUBLIC	__real@41200000
PUBLIC	__real@457a0000
PUBLIC	__real@bf4ccccd
PUBLIC	__xmm@80000000800000008000000080000000
EXTRN	??3@YAXPEAX_K@Z:PROC				; operator delete
EXTRN	memset:PROC
EXTRN	strcmp:PROC
EXTRN	__imp_MessageBoxW:PROC
EXTRN	__imp_rand:PROC
EXTRN	__imp__wassert:PROC
EXTRN	__imp__fdtest:PROC
EXTRN	__imp_acosf:PROC
EXTRN	??2@YAPEAX_KHPEBDH@Z:PROC			; operator new
EXTRN	??3@YAXPEAXHPEBDH@Z:PROC			; operator delete
EXTRN	__imp_?Release@CBase@Engine@@QEAAKXZ:PROC
EXTRN	__imp_??0CGameObject@Engine@@IEAA@PEAUID3D11Device@@PEAUID3D11DeviceContext@@@Z:PROC
EXTRN	__imp_??0CGameObject@Engine@@IEAA@AEBV01@@Z:PROC
EXTRN	__imp_??1CGameObject@Engine@@MEAA@XZ:PROC
EXTRN	__imp_?Initialize_Prototype@CGameObject@Engine@@UEAAJXZ:PROC
EXTRN	__imp_?Initialize@CGameObject@Engine@@UEAAJPEAX@Z:PROC
EXTRN	__imp_?Tick@CGameObject@Engine@@UEAAXN@Z:PROC
EXTRN	__imp_?LateTick@CGameObject@Engine@@UEAAXN@Z:PROC
EXTRN	__imp_?Render@CGameObject@Engine@@UEAAJXZ:PROC
EXTRN	__imp_?Find_Component@CGameObject@Engine@@QEAAPEAVCComponent@2@PEB_W@Z:PROC
EXTRN	__imp_?Add_Component@CGameObject@Engine@@IEAAJIPEB_W0PEAPEAVCComponent@2@PEAX@Z:PROC
EXTRN	__imp_?SetState@CGameObject@Engine@@QEAAXW4STATE@12@@Z:PROC
EXTRN	__imp_?IsDestroy@CGameObject@Engine@@QEAA_NXZ:PROC
EXTRN	__imp_?Free@CGameObject@Engine@@UEAAXXZ:PROC
EXTRN	__imp_?SetActive@CCollider@Engine@@QEAAX_N@Z:PROC
EXTRN	__imp_?Compare@CCollider@Engine@@QEAA_NPEAV12@@Z:PROC
EXTRN	__imp_?EraseHitCollider@CCollider@Engine@@QEAAXPEAV12@@Z:PROC
EXTRN	__imp_?GetOwner@CCollider@Engine@@QEBAPEAVCGameObject@2@XZ:PROC
EXTRN	__imp_??0IOnCollisionEnter@Engine@@QEAA@XZ:PROC
EXTRN	__imp_??0IOnCollisionStay@Engine@@QEAA@XZ:PROC
EXTRN	__imp_??0IOnCollisionExit@Engine@@QEAA@XZ:PROC
EXTRN	??_ECEnemy@Client@@UEAAPEAXI@Z:PROC		; Client::CEnemy::`vector deleting destructor'
EXTRN	__imp_?Setup_ShaderMaterialResource@CModel@Engine@@QEAAJPEAVCShader@2@PEBDIW4aiTextureType@@@Z:PROC
EXTRN	__imp_?Setup_BoneMatrices@CModel@Engine@@QEAAJPEAVCShader@2@PEBDI@Z:PROC
EXTRN	__imp_?Setup_Animation@CModel@Engine@@QEAAJIW4TYPE@CAnimation@2@_N@Z:PROC
EXTRN	__imp_?Play_Animation@CModel@Engine@@QEAAJNPEAVCTransform@2@N_N@Z:PROC
EXTRN	__imp_?Render@CModel@Engine@@QEAAJI@Z:PROC
EXTRN	__imp_?GetMeshName@CModel@Engine@@QEAAPEBDI@Z:PROC
EXTRN	__imp_?Get_MeshCount@CModel@Engine@@QEAAIXZ:PROC
EXTRN	__imp_?GetBonePtr@CModel@Engine@@QEAAPEAVCBone@2@PEBD@Z:PROC
EXTRN	__imp_?GetLocalMatrix@CModel@Engine@@QEBA?AUXMFLOAT4X4@DirectX@@XZ:PROC
EXTRN	__imp_?AnimationCompare@CModel@Engine@@QEBA_NI@Z:PROC
EXTRN	__imp_?AnimationIsFinish@CModel@Engine@@QEAA_NXZ:PROC
EXTRN	__imp_?AnimationIsFinishEx@CModel@Engine@@QEAA_NXZ:PROC
EXTRN	__imp_?AnimationIsPreFinish@CModel@Engine@@QEAA_NXZ:PROC
EXTRN	__imp_?AnimationIsPreFinishEx@CModel@Engine@@QEAA_NXZ:PROC
EXTRN	__imp_?AnimationReset@CModel@Engine@@QEAAXXZ:PROC
EXTRN	__imp_?Get_State@CTransform@Engine@@QEAA?AT__m128@@W4STATE@12@@Z:PROC
EXTRN	__imp_?Get_WorldMatrix@CTransform@Engine@@QEAA?AUXMFLOAT4X4@DirectX@@XZ:PROC
EXTRN	__imp_?Set_State@CTransform@Engine@@QEAAXW4STATE@12@T__m128@@@Z:PROC
EXTRN	__imp_?Rotate@CTransform@Engine@@QEAAXT__m128@@N@Z:PROC
EXTRN	__imp_?LookAt@CTransform@Engine@@QEAAXT__m128@@@Z:PROC
EXTRN	__imp_?Chase@CTransform@Engine@@QEAAXT__m128@@NM@Z:PROC
EXTRN	__imp_?Setup_ShaderResource@CTransform@Engine@@QEAAJPEAVCShader@2@PEBD@Z:PROC
EXTRN	__imp_?Add_RenderGroup@CRenderer@Engine@@QEAAJW4RENDER_GROUP@12@PEAVCGameObject@2@@Z:PROC
EXTRN	__imp_?Begin@CShader@Engine@@QEAAJI@Z:PROC
EXTRN	__imp_?SetMatrix@CShader@Engine@@QEAAJPEBDPEBUXMFLOAT4X4@DirectX@@@Z:PROC
EXTRN	__imp_?SetRawValue@CShader@Engine@@QEAAJPEBDPEBXI@Z:PROC
EXTRN	__imp_?GetInstance@CGameInstance@Engine@@SAPEAV12@XZ:PROC
EXTRN	__imp_?Get_Transform_float4x4@CGameInstance@Engine@@QEAA?AUXMFLOAT4X4@DirectX@@W4TRANSFORM_STATE@CPipeLine@2@@Z:PROC
EXTRN	__imp_?Get_CamPosition@CGameInstance@Engine@@QEAA?AUXMFLOAT4@DirectX@@XZ:PROC
EXTRN	__imp_?Input_KeyState_Custom@CGameInstance@Engine@@QEAA?AW4KEY_STATE@2@H@Z:PROC
EXTRN	__imp_?GetLightDesc@CGameInstance@Engine@@QEAAPEBUtagLight_Desc@2@I@Z:PROC
EXTRN	__imp_?AddCollider@CGameInstance@Engine@@QEAAJPEAVCCollider@2@I@Z:PROC
EXTRN	?GetInstance@CSkillBallSystem@Client@@SAPEAV12@XZ:PROC ; Client::CSkillBallSystem::GetInstance
EXTRN	?PushSkill@CSkillBallSystem@Client@@QEAAJPEAUID3D11Device@@PEAUID3D11DeviceContext@@W4TYPE@CSkillBase@2@@Z:PROC ; Client::CSkillBallSystem::PushSkill
EXTRN	?GetInstance@CApplicationManager@Client@@SAPEAV12@XZ:PROC ; Client::CApplicationManager::GetInstance
EXTRN	?LookPos@CCharacter@Client@@QEAAXT__m128@@@Z:PROC ; Client::CCharacter::LookPos
EXTRN	?DeleteTargetFromList@CCharacter@Client@@QEAAXPEAVCGameObject@Engine@@@Z:PROC ; Client::CCharacter::DeleteTargetFromList
EXTRN	?Hit@CCharacter@Client@@QEAAXXZ:PROC		; Client::CCharacter::Hit
EXTRN	?RecvDamage@CCharacter@Client@@QEAAXM@Z:PROC	; Client::CCharacter::RecvDamage
EXTRN	?GetDamage@CCharacter@Client@@QEAAMXZ:PROC	; Client::CCharacter::GetDamage
EXTRN	?Initialize_Prototype@CGameObject@Engine@@UEAAJXZ:PROC ; Engine::CGameObject::Initialize_Prototype
EXTRN	_RTC_CheckStackVars:PROC
EXTRN	_RTC_InitBase:PROC
EXTRN	_RTC_Shutdown:PROC
EXTRN	__CxxFrameHandler3:PROC
EXTRN	__GSHandlerCheck:PROC
EXTRN	__GSHandlerCheck_EH:PROC
EXTRN	__RTDynamicCast:PROC
EXTRN	__chkstk:PROC
EXTRN	__security_check_cookie:PROC
EXTRN	??_7type_info@@6B@:BYTE				; type_info::`vftable'
EXTRN	__security_cookie:QWORD
EXTRN	_fltused:DWORD
;	COMDAT pdata
pdata	SEGMENT
$pdata$??_H@YAXPEAX_K1P6APEAX0@Z@Z DD imagerel $LN7
	DD	imagerel $LN7+181
	DD	imagerel $unwind$??_H@YAXPEAX_K1P6APEAX0@Z@Z
pdata	ENDS
;	COMDAT pdata
pdata	SEGMENT
$pdata$?__empty_global_delete@@YAXPEAX@Z DD imagerel $LN3
	DD	imagerel $LN3+50
	DD	imagerel $unwind$?__empty_global_delete@@YAXPEAX@Z
pdata	ENDS
;	COMDAT pdata
pdata	SEGMENT
$pdata$?__empty_global_delete@@YAXPEAX_K@Z DD imagerel $LN3
	DD	imagerel $LN3+55
	DD	imagerel $unwind$?__empty_global_delete@@YAXPEAX_K@Z
pdata	ENDS
;	COMDAT pdata
pdata	SEGMENT
$pdata$?fpclassify@@YAHM@Z DD imagerel $LN3
	DD	imagerel $LN3+59
	DD	imagerel $unwind$?fpclassify@@YAHM@Z
pdata	ENDS
;	COMDAT pdata
pdata	SEGMENT
$pdata$?acos@@YAMM@Z DD imagerel $LN3
	DD	imagerel $LN3+59
	DD	imagerel $unwind$?acos@@YAMM@Z
pdata	ENDS
;	COMDAT pdata
pdata	SEGMENT
$pdata$??BXMVECTORI32@DirectX@@QEBA?AT__m128@@XZ DD imagerel $LN3
	DD	imagerel $LN3+82
	DD	imagerel $unwind$??BXMVECTORI32@DirectX@@QEBA?AT__m128@@XZ
pdata	ENDS
;	COMDAT pdata
pdata	SEGMENT
$pdata$??BXMVECTORU32@DirectX@@QEBA?AT__m128@@XZ DD imagerel $LN3
	DD	imagerel $LN3+82
	DD	imagerel $unwind$??BXMVECTORU32@DirectX@@QEBA?AT__m128@@XZ
pdata	ENDS
;	COMDAT pdata
pdata	SEGMENT
$pdata$??GDirectX@@YQ?AT__m128@@T1@@Z DD imagerel $LN3
	DD	imagerel $LN3+79
	DD	imagerel $unwind$??GDirectX@@YQ?AT__m128@@T1@@Z
pdata	ENDS
;	COMDAT pdata
pdata	SEGMENT
$pdata$??HDirectX@@YQ?AT__m128@@T1@0@Z DD imagerel $LN3
	DD	imagerel $LN3+99
	DD	imagerel $unwind$??HDirectX@@YQ?AT__m128@@T1@0@Z
pdata	ENDS
;	COMDAT pdata
pdata	SEGMENT
$pdata$??GDirectX@@YQ?AT__m128@@T1@0@Z DD imagerel $LN3
	DD	imagerel $LN3+99
	DD	imagerel $unwind$??GDirectX@@YQ?AT__m128@@T1@0@Z
pdata	ENDS
;	COMDAT pdata
pdata	SEGMENT
$pdata$??DDirectX@@YQ?AT__m128@@T1@M@Z DD imagerel $LN3
	DD	imagerel $LN3+92
	DD	imagerel $unwind$??DDirectX@@YQ?AT__m128@@T1@M@Z
pdata	ENDS
;	COMDAT pdata
pdata	SEGMENT
$pdata$??0XMMATRIX@DirectX@@QEAA@XZ DD imagerel $LN3
	DD	imagerel $LN3+57
	DD	imagerel $unwind$??0XMMATRIX@DirectX@@QEAA@XZ
pdata	ENDS
;	COMDAT pdata
pdata	SEGMENT
$pdata$??DXMMATRIX@DirectX@@QEBQ?AU01@U01@@Z DD imagerel $LN3
	DD	imagerel $LN3+224
	DD	imagerel $unwind$??DXMMATRIX@DirectX@@QEBQ?AU01@U01@@Z
pdata	ENDS
;	COMDAT pdata
pdata	SEGMENT
$pdata$??0XMFLOAT3@DirectX@@QEAA@XZ DD imagerel $LN3
	DD	imagerel $LN3+57
	DD	imagerel $unwind$??0XMFLOAT3@DirectX@@QEAA@XZ
pdata	ENDS
;	COMDAT pdata
pdata	SEGMENT
$pdata$??0XMFLOAT3@DirectX@@QEAA@MMM@Z DD imagerel $LN3
	DD	imagerel $LN3+134
	DD	imagerel $unwind$??0XMFLOAT3@DirectX@@QEAA@MMM@Z
pdata	ENDS
;	COMDAT pdata
pdata	SEGMENT
$pdata$??4XMFLOAT3@DirectX@@QEAAAEAU01@AEBU01@@Z DD imagerel $LN3
	DD	imagerel $LN3+132
	DD	imagerel $unwind$??4XMFLOAT3@DirectX@@QEAAAEAU01@AEBU01@@Z
pdata	ENDS
;	COMDAT pdata
pdata	SEGMENT
$pdata$??0XMFLOAT4@DirectX@@QEAA@XZ DD imagerel $LN3
	DD	imagerel $LN3+57
	DD	imagerel $unwind$??0XMFLOAT4@DirectX@@QEAA@XZ
pdata	ENDS
;	COMDAT pdata
pdata	SEGMENT
$pdata$??0XMFLOAT4X4@DirectX@@QEAA@XZ DD imagerel $LN3
	DD	imagerel $LN3+57
	DD	imagerel $unwind$??0XMFLOAT4X4@DirectX@@QEAA@XZ
pdata	ENDS
;	COMDAT pdata
pdata	SEGMENT
$pdata$?XMLoadFloat3@DirectX@@YQ?AT__m128@@PEBUXMFLOAT3@1@@Z DD imagerel $LN4
	DD	imagerel $LN4+277
	DD	imagerel $unwind$?XMLoadFloat3@DirectX@@YQ?AT__m128@@PEBUXMFLOAT3@1@@Z
pdata	ENDS
;	COMDAT pdata
pdata	SEGMENT
$pdata$?XMLoadFloat4@DirectX@@YQ?AT__m128@@PEBUXMFLOAT4@1@@Z DD imagerel $LN4
	DD	imagerel $LN4+119
	DD	imagerel $unwind$?XMLoadFloat4@DirectX@@YQ?AT__m128@@PEBUXMFLOAT4@1@@Z
pdata	ENDS
;	COMDAT pdata
pdata	SEGMENT
$pdata$?XMLoadFloat4x4@DirectX@@YQ?AUXMMATRIX@1@PEBUXMFLOAT4X4@1@@Z DD imagerel $LN4
	DD	imagerel $LN4+344
	DD	imagerel $unwind$?XMLoadFloat4x4@DirectX@@YQ?AUXMMATRIX@1@PEBUXMFLOAT4X4@1@@Z
pdata	ENDS
;	COMDAT pdata
pdata	SEGMENT
$pdata$?XMStoreFloat3@DirectX@@YQXPEAUXMFLOAT3@1@T__m128@@@Z DD imagerel $LN4
	DD	imagerel $LN4+218
	DD	imagerel $unwind$?XMStoreFloat3@DirectX@@YQXPEAUXMFLOAT3@1@T__m128@@@Z
pdata	ENDS
;	COMDAT pdata
pdata	SEGMENT
$pdata$?XMStoreFloat4@DirectX@@YQXPEAUXMFLOAT4@1@T__m128@@@Z DD imagerel $LN4
	DD	imagerel $LN4+125
	DD	imagerel $unwind$?XMStoreFloat4@DirectX@@YQXPEAUXMFLOAT4@1@T__m128@@@Z
pdata	ENDS
;	COMDAT pdata
pdata	SEGMENT
$pdata$?XMStoreFloat4x4@DirectX@@YQXPEAUXMFLOAT4X4@1@UXMMATRIX@1@@Z DD imagerel $LN4
	DD	imagerel $LN4+247
	DD	imagerel $unwind$?XMStoreFloat4x4@DirectX@@YQXPEAUXMFLOAT4X4@1@UXMMATRIX@1@@Z
pdata	ENDS
;	COMDAT pdata
pdata	SEGMENT
$pdata$?XMVectorSet@DirectX@@YQ?AT__m128@@MMMM@Z DD imagerel $LN3
	DD	imagerel $LN3+121
	DD	imagerel $unwind$?XMVectorSet@DirectX@@YQ?AT__m128@@MMMM@Z
pdata	ENDS
;	COMDAT pdata
pdata	SEGMENT
$pdata$?XMVectorGetX@DirectX@@YQMT__m128@@@Z DD imagerel $LN3
	DD	imagerel $LN3+76
	DD	imagerel $unwind$?XMVectorGetX@DirectX@@YQMT__m128@@@Z
pdata	ENDS
;	COMDAT pdata
pdata	SEGMENT
$pdata$?XMVectorGetY@DirectX@@YQMT__m128@@@Z DD imagerel $LN3
	DD	imagerel $LN3+103
	DD	imagerel $unwind$?XMVectorGetY@DirectX@@YQMT__m128@@@Z
pdata	ENDS
;	COMDAT pdata
pdata	SEGMENT
$pdata$?XMVectorNegate@DirectX@@YQ?AT__m128@@T2@@Z DD imagerel $LN3
	DD	imagerel $LN3+99
	DD	imagerel $unwind$?XMVectorNegate@DirectX@@YQ?AT__m128@@T2@@Z
pdata	ENDS
;	COMDAT pdata
pdata	SEGMENT
$pdata$?XMVectorAdd@DirectX@@YQ?AT__m128@@T2@0@Z DD imagerel $LN3
	DD	imagerel $LN3+94
	DD	imagerel $unwind$?XMVectorAdd@DirectX@@YQ?AT__m128@@T2@0@Z
pdata	ENDS
;	COMDAT pdata
pdata	SEGMENT
$pdata$?XMVectorSubtract@DirectX@@YQ?AT__m128@@T2@0@Z DD imagerel $LN3
	DD	imagerel $LN3+94
	DD	imagerel $unwind$?XMVectorSubtract@DirectX@@YQ?AT__m128@@T2@0@Z
pdata	ENDS
;	COMDAT pdata
pdata	SEGMENT
$pdata$?XMVectorScale@DirectX@@YQ?AT__m128@@T2@M@Z DD imagerel $LN3
	DD	imagerel $LN3+113
	DD	imagerel $unwind$?XMVectorScale@DirectX@@YQ?AT__m128@@T2@M@Z
pdata	ENDS
;	COMDAT pdata
pdata	SEGMENT
$pdata$?XMVectorLerp@DirectX@@YQ?AT__m128@@T2@0M@Z DD imagerel $LN3
	DD	imagerel $LN3+193
	DD	imagerel $unwind$?XMVectorLerp@DirectX@@YQ?AT__m128@@T2@0M@Z
pdata	ENDS
;	COMDAT pdata
pdata	SEGMENT
$pdata$?XMVector3Dot@DirectX@@YQ?AT__m128@@T2@0@Z DD imagerel $LN3
	DD	imagerel $LN3+247
	DD	imagerel $unwind$?XMVector3Dot@DirectX@@YQ?AT__m128@@T2@0@Z
pdata	ENDS
;	COMDAT pdata
pdata	SEGMENT
$pdata$?XMVector3Cross@DirectX@@YQ?AT__m128@@T2@0@Z DD imagerel $LN3
	DD	imagerel $LN3+328
	DD	imagerel $unwind$?XMVector3Cross@DirectX@@YQ?AT__m128@@T2@0@Z
pdata	ENDS
;	COMDAT pdata
pdata	SEGMENT
$pdata$?XMVector3Length@DirectX@@YQ?AT__m128@@T2@@Z DD imagerel $LN3
	DD	imagerel $LN3+243
	DD	imagerel $unwind$?XMVector3Length@DirectX@@YQ?AT__m128@@T2@@Z
pdata	ENDS
;	COMDAT pdata
pdata	SEGMENT
$pdata$?XMVector3Normalize@DirectX@@YQ?AT__m128@@T2@@Z DD imagerel $LN3
	DD	imagerel $LN3+535
	DD	imagerel $unwind$?XMVector3Normalize@DirectX@@YQ?AT__m128@@T2@@Z
pdata	ENDS
;	COMDAT pdata
pdata	SEGMENT
$pdata$?XMMatrixMultiply@DirectX@@YQ?AUXMMATRIX@1@U21@AEBU21@@Z DD imagerel $LN3
	DD	imagerel $LN3+2098
	DD	imagerel $unwind$?XMMatrixMultiply@DirectX@@YQ?AUXMMATRIX@1@U21@AEBU21@@Z
pdata	ENDS
;	COMDAT pdata
pdata	SEGMENT
$pdata$??0tagColliderDesc@CCollider@Engine@@QEAA@XZ DD imagerel $LN3
	DD	imagerel $LN3+116
	DD	imagerel $unwind$??0tagColliderDesc@CCollider@Engine@@QEAA@XZ
pdata	ENDS
;	COMDAT pdata
pdata	SEGMENT
$pdata$??0CEnemy@Client@@QEAA@PEAUID3D11Device@@PEAUID3D11DeviceContext@@@Z DD imagerel $LN4
	DD	imagerel $LN4+1180
	DD	imagerel $unwind$??0CEnemy@Client@@QEAA@PEAUID3D11Device@@PEAUID3D11DeviceContext@@@Z
pdata	ENDS
;	COMDAT pdata
pdata	SEGMENT
$pdata$?dtor$0@?0???0CEnemy@Client@@QEAA@PEAUID3D11Device@@PEAUID3D11DeviceContext@@@Z@4HA DD imagerel ?dtor$0@?0???0CEnemy@Client@@QEAA@PEAUID3D11Device@@PEAUID3D11DeviceContext@@@Z@4HA
	DD	imagerel ?dtor$0@?0???0CEnemy@Client@@QEAA@PEAUID3D11Device@@PEAUID3D11DeviceContext@@@Z@4HA+40
	DD	imagerel $unwind$?dtor$0@?0???0CEnemy@Client@@QEAA@PEAUID3D11Device@@PEAUID3D11DeviceContext@@@Z@4HA
pdata	ENDS
;	COMDAT pdata
pdata	SEGMENT
$pdata$??0CEnemy@Client@@QEAA@AEBV01@@Z DD imagerel $LN4
	DD	imagerel $LN4+1264
	DD	imagerel $unwind$??0CEnemy@Client@@QEAA@AEBV01@@Z
pdata	ENDS
;	COMDAT pdata
pdata	SEGMENT
$pdata$?dtor$0@?0???0CEnemy@Client@@QEAA@AEBV01@@Z@4HA DD imagerel ?dtor$0@?0???0CEnemy@Client@@QEAA@AEBV01@@Z@4HA
	DD	imagerel ?dtor$0@?0???0CEnemy@Client@@QEAA@AEBV01@@Z@4HA+40
	DD	imagerel $unwind$?dtor$0@?0???0CEnemy@Client@@QEAA@AEBV01@@Z@4HA
pdata	ENDS
;	COMDAT pdata
pdata	SEGMENT
$pdata$??1CEnemy@Client@@UEAA@XZ DD imagerel $LN3
	DD	imagerel $LN3+65
	DD	imagerel $unwind$??1CEnemy@Client@@UEAA@XZ
pdata	ENDS
;	COMDAT pdata
pdata	SEGMENT
$pdata$?Initialize_Prototype@CEnemy@Client@@UEAAJW4TYPE@12@@Z DD imagerel $LN4
	DD	imagerel $LN4+176
	DD	imagerel $unwind$?Initialize_Prototype@CEnemy@Client@@UEAAJW4TYPE@12@@Z
pdata	ENDS
;	COMDAT pdata
pdata	SEGMENT
$pdata$?Initialize@CEnemy@Client@@UEAAJPEAX@Z DD imagerel $LN9
	DD	imagerel $LN9+1240
	DD	imagerel $unwind$?Initialize@CEnemy@Client@@UEAAJPEAX@Z
pdata	ENDS
;	COMDAT pdata
pdata	SEGMENT
$pdata$?Tick@CEnemy@Client@@UEAAXN@Z DD imagerel $LN7
	DD	imagerel $LN7+424
	DD	imagerel $unwind$?Tick@CEnemy@Client@@UEAAXN@Z
pdata	ENDS
;	COMDAT pdata
pdata	SEGMENT
$pdata$?LateTick@CEnemy@Client@@UEAAXN@Z DD imagerel $LN4
	DD	imagerel $LN4+1406
	DD	imagerel $unwind$?LateTick@CEnemy@Client@@UEAAXN@Z
pdata	ENDS
;	COMDAT pdata
pdata	SEGMENT
$pdata$?Render@CEnemy@Client@@UEAAJXZ DD imagerel $LN12
	DD	imagerel $LN12+438
	DD	imagerel $unwind$?Render@CEnemy@Client@@UEAAJXZ
pdata	ENDS
;	COMDAT pdata
pdata	SEGMENT
$pdata$?RenderGUI@CEnemy@Client@@UEAAXXZ DD imagerel $LN3
	DD	imagerel $LN3+50
	DD	imagerel $unwind$?RenderGUI@CEnemy@Client@@UEAAXXZ
pdata	ENDS
;	COMDAT pdata
pdata	SEGMENT
$pdata$?GetWorldMatrix@CEnemy@Client@@QEAA?BUXMMATRIX@DirectX@@XZ DD imagerel $LN3
	DD	imagerel $LN3+180
	DD	imagerel $unwind$?GetWorldMatrix@CEnemy@Client@@QEAA?BUXMMATRIX@DirectX@@XZ
pdata	ENDS
;	COMDAT pdata
pdata	SEGMENT
$pdata$?Reset@CEnemy@Client@@QEAAXXZ DD imagerel $LN3
	DD	imagerel $LN3+441
	DD	imagerel $unwind$?Reset@CEnemy@Client@@QEAAXXZ
pdata	ENDS
;	COMDAT pdata
pdata	SEGMENT
$pdata$?IsOverlap@CEnemy@Client@@QEBA_NXZ DD imagerel $LN3
	DD	imagerel $LN3+64
	DD	imagerel $unwind$?IsOverlap@CEnemy@Client@@QEBA_NXZ
pdata	ENDS
;	COMDAT pdata
pdata	SEGMENT
$pdata$?SetOverlap@CEnemy@Client@@QEAAX_NUXMFLOAT3@DirectX@@@Z DD imagerel $LN3
	DD	imagerel $LN3+109
	DD	imagerel $unwind$?SetOverlap@CEnemy@Client@@QEAAX_NUXMFLOAT3@DirectX@@@Z
pdata	ENDS
;	COMDAT pdata
pdata	SEGMENT
$pdata$?GetPosition@CEnemy@Client@@QEAA?AUXMFLOAT4@DirectX@@XZ DD imagerel $LN5
	DD	imagerel $LN5+274
	DD	imagerel $unwind$?GetPosition@CEnemy@Client@@QEAA?AUXMFLOAT4@DirectX@@XZ
pdata	ENDS
;	COMDAT pdata
pdata	SEGMENT
$pdata$?SetPosition@CEnemy@Client@@QEAAXUXMFLOAT3@DirectX@@@Z DD imagerel $LN4
	DD	imagerel $LN4+141
	DD	imagerel $unwind$?SetPosition@CEnemy@Client@@QEAAXUXMFLOAT3@DirectX@@@Z
pdata	ENDS
;	COMDAT pdata
pdata	SEGMENT
$pdata$?GetRootBonePosition@CEnemy@Client@@QEAA?AT__m128@@XZ DD imagerel $LN3
	DD	imagerel $LN3+244
	DD	imagerel $unwind$?GetRootBonePosition@CEnemy@Client@@QEAA?AT__m128@@XZ
pdata	ENDS
;	COMDAT pdata
pdata	SEGMENT
$pdata$?GetOverlapCollider@CEnemy@Client@@QEAAPEAVCCollider@Engine@@XZ DD imagerel $LN3
	DD	imagerel $LN3+64
	DD	imagerel $unwind$?GetOverlapCollider@CEnemy@Client@@QEAAPEAVCCollider@Engine@@XZ
pdata	ENDS
;	COMDAT pdata
pdata	SEGMENT
$pdata$?SetNuckback@CEnemy@Client@@QEAAXM@Z DD imagerel $LN3
	DD	imagerel $LN3+107
	DD	imagerel $unwind$?SetNuckback@CEnemy@Client@@QEAAXM@Z
pdata	ENDS
;	COMDAT pdata
pdata	SEGMENT
$pdata$?SetAirborne@CEnemy@Client@@QEAAXM@Z DD imagerel $LN3
	DD	imagerel $LN3+138
	DD	imagerel $unwind$?SetAirborne@CEnemy@Client@@QEAAXM@Z
pdata	ENDS
;	COMDAT pdata
pdata	SEGMENT
$pdata$?RecvDamage@CEnemy@Client@@QEAAXM@Z DD imagerel $LN4
	DD	imagerel $LN4+249
	DD	imagerel $unwind$?RecvDamage@CEnemy@Client@@QEAAXM@Z
pdata	ENDS
;	COMDAT pdata
pdata	SEGMENT
$pdata$?AddComponents@CEnemy@Client@@AEAAJXZ DD imagerel $LN10
	DD	imagerel $LN10+1165
	DD	imagerel $unwind$?AddComponents@CEnemy@Client@@AEAAJXZ
pdata	ENDS
;	COMDAT pdata
pdata	SEGMENT
$pdata$?SetupShaderResources@CEnemy@Client@@AEAAJXZ DD imagerel $LN15
	DD	imagerel $LN15+696
	DD	imagerel $unwind$?SetupShaderResources@CEnemy@Client@@AEAAJXZ
pdata	ENDS
;	COMDAT pdata
pdata	SEGMENT
$pdata$?OverlapProcess@CEnemy@Client@@AEAAXN@Z DD imagerel $LN37
	DD	imagerel $LN37+2031
	DD	imagerel $unwind$?OverlapProcess@CEnemy@Client@@AEAAXN@Z
pdata	ENDS
;	COMDAT pdata
pdata	SEGMENT
$pdata$?LookPlayer@CEnemy@Client@@AEAAXN@Z DD imagerel $LN9
	DD	imagerel $LN9+905
	DD	imagerel $unwind$?LookPlayer@CEnemy@Client@@AEAAXN@Z
pdata	ENDS
;	COMDAT pdata
pdata	SEGMENT
$pdata$?Trace@CEnemy@Client@@AEAAXN@Z DD imagerel $LN6
	DD	imagerel $LN6+352
	DD	imagerel $unwind$?Trace@CEnemy@Client@@AEAAXN@Z
pdata	ENDS
;	COMDAT pdata
pdata	SEGMENT
$pdata$?Attack@CEnemy@Client@@AEAAXN@Z DD imagerel $LN5
	DD	imagerel $LN5+149
	DD	imagerel $unwind$?Attack@CEnemy@Client@@AEAAXN@Z
pdata	ENDS
;	COMDAT pdata
pdata	SEGMENT
$pdata$?Idle@CEnemy@Client@@AEAAXN@Z DD imagerel $LN5
	DD	imagerel $LN5+200
	DD	imagerel $unwind$?Idle@CEnemy@Client@@AEAAXN@Z
pdata	ENDS
;	COMDAT pdata
pdata	SEGMENT
$pdata$?Hit@CEnemy@Client@@AEAA_NN@Z DD imagerel $LN16
	DD	imagerel $LN16+542
	DD	imagerel $unwind$?Hit@CEnemy@Client@@AEAA_NN@Z
pdata	ENDS
;	COMDAT pdata
pdata	SEGMENT
$pdata$?NuckBack@CEnemy@Client@@AEAAXN@Z DD imagerel $LN4
	DD	imagerel $LN4+557
	DD	imagerel $unwind$?NuckBack@CEnemy@Client@@AEAAXN@Z
pdata	ENDS
;	COMDAT pdata
pdata	SEGMENT
$pdata$?Airborne@CEnemy@Client@@AEAAXN@Z DD imagerel $LN23
	DD	imagerel $LN23+741
	DD	imagerel $unwind$?Airborne@CEnemy@Client@@AEAAXN@Z
pdata	ENDS
;	COMDAT pdata
pdata	SEGMENT
$pdata$?Holding@CEnemy@Client@@AEAAXN@Z DD imagerel $LN3
	DD	imagerel $LN3+56
	DD	imagerel $unwind$?Holding@CEnemy@Client@@AEAAXN@Z
pdata	ENDS
;	COMDAT pdata
pdata	SEGMENT
$pdata$?DieCheck@CEnemy@Client@@AEAA_NXZ DD imagerel $LN4
	DD	imagerel $LN4+89
	DD	imagerel $unwind$?DieCheck@CEnemy@Client@@AEAA_NXZ
pdata	ENDS
;	COMDAT pdata
pdata	SEGMENT
$pdata$?Die@CEnemy@Client@@AEAAXN@Z DD imagerel $LN8
	DD	imagerel $LN8+406
	DD	imagerel $unwind$?Die@CEnemy@Client@@AEAAXN@Z
pdata	ENDS
;	COMDAT pdata
pdata	SEGMENT
$pdata$?Freeze@CEnemy@Client@@AEAANN@Z DD imagerel $LN5
	DD	imagerel $LN5+395
	DD	imagerel $unwind$?Freeze@CEnemy@Client@@AEAANN@Z
pdata	ENDS
;	COMDAT pdata
pdata	SEGMENT
$pdata$?AnimationState@CEnemy@Client@@AEAAXN@Z DD imagerel $LN44
	DD	imagerel $LN44+1735
	DD	imagerel $unwind$?AnimationState@CEnemy@Client@@AEAAXN@Z
pdata	ENDS
;	COMDAT pdata
pdata	SEGMENT
$pdata$?OnCollisionEnter@CEnemy@Client@@UEAAXPEAVCCollider@Engine@@0@Z DD imagerel $LN19
	DD	imagerel $LN19+1493
	DD	imagerel $unwind$?OnCollisionEnter@CEnemy@Client@@UEAAXPEAVCCollider@Engine@@0@Z
pdata	ENDS
;	COMDAT pdata
pdata	SEGMENT
$pdata$?OnCollisionStay@CEnemy@Client@@UEAAXPEAVCCollider@Engine@@0@Z DD imagerel $LN4
	DD	imagerel $LN4+205
	DD	imagerel $unwind$?OnCollisionStay@CEnemy@Client@@UEAAXPEAVCCollider@Engine@@0@Z
pdata	ENDS
;	COMDAT pdata
pdata	SEGMENT
$pdata$?OnCollisionExit@CEnemy@Client@@UEAAXPEAVCCollider@Engine@@0@Z DD imagerel $LN3
	DD	imagerel $LN3+60
	DD	imagerel $unwind$?OnCollisionExit@CEnemy@Client@@UEAAXPEAVCCollider@Engine@@0@Z
pdata	ENDS
;	COMDAT pdata
pdata	SEGMENT
$pdata$?Create@CEnemy@Client@@SAPEAV12@PEAUID3D11Device@@PEAUID3D11DeviceContext@@W4TYPE@12@@Z DD imagerel $LN7
	DD	imagerel $LN7+305
	DD	imagerel $unwind$?Create@CEnemy@Client@@SAPEAV12@PEAUID3D11Device@@PEAUID3D11DeviceContext@@W4TYPE@12@@Z
pdata	ENDS
;	COMDAT pdata
pdata	SEGMENT
$pdata$?dtor$0@?0??Create@CEnemy@Client@@SAPEAV12@PEAUID3D11Device@@PEAUID3D11DeviceContext@@W4TYPE@12@@Z@4HA DD imagerel ?dtor$0@?0??Create@CEnemy@Client@@SAPEAV12@PEAUID3D11Device@@PEAUID3D11DeviceContext@@W4TYPE@12@@Z@4HA
	DD	imagerel ?dtor$0@?0??Create@CEnemy@Client@@SAPEAV12@PEAUID3D11Device@@PEAUID3D11DeviceContext@@W4TYPE@12@@Z@4HA+61
	DD	imagerel $unwind$?dtor$0@?0??Create@CEnemy@Client@@SAPEAV12@PEAUID3D11Device@@PEAUID3D11DeviceContext@@W4TYPE@12@@Z@4HA
pdata	ENDS
;	COMDAT pdata
pdata	SEGMENT
$pdata$?Clone@CEnemy@Client@@UEAAPEAVCGameObject@Engine@@PEAX@Z DD imagerel $LN7
	DD	imagerel $LN7+294
	DD	imagerel $unwind$?Clone@CEnemy@Client@@UEAAPEAVCGameObject@Engine@@PEAX@Z
pdata	ENDS
;	COMDAT pdata
pdata	SEGMENT
$pdata$?dtor$0@?0??Clone@CEnemy@Client@@UEAAPEAVCGameObject@Engine@@PEAX@Z@4HA DD imagerel ?dtor$0@?0??Clone@CEnemy@Client@@UEAAPEAVCGameObject@Engine@@PEAX@Z@4HA
	DD	imagerel ?dtor$0@?0??Clone@CEnemy@Client@@UEAAPEAVCGameObject@Engine@@PEAX@Z@4HA+61
	DD	imagerel $unwind$?dtor$0@?0??Clone@CEnemy@Client@@UEAAPEAVCGameObject@Engine@@PEAX@Z@4HA
pdata	ENDS
;	COMDAT pdata
pdata	SEGMENT
$pdata$?Free@CEnemy@Client@@UEAAXXZ DD imagerel $LN3
	DD	imagerel $LN3+205
	DD	imagerel $unwind$?Free@CEnemy@Client@@UEAAXXZ
pdata	ENDS
;	COMDAT pdata
pdata	SEGMENT
$pdata$??_GCEnemy@Client@@UEAAPEAXI@Z DD imagerel $LN4
	DD	imagerel $LN4+105
	DD	imagerel $unwind$??_GCEnemy@Client@@UEAAPEAXI@Z
pdata	ENDS
;	COMDAT pdata
pdata	SEGMENT
$pdata$?IsFreeze@CApplicationManager@Client@@QEBA_NXZ DD imagerel $LN3
	DD	imagerel $LN3+61
	DD	imagerel $unwind$?IsFreeze@CApplicationManager@Client@@QEBA_NXZ
pdata	ENDS
;	COMDAT pdata
pdata	SEGMENT
$pdata$?SetHitFreeze@CApplicationManager@Client@@QEAAX_N@Z DD imagerel $LN3
	DD	imagerel $LN3+71
	DD	imagerel $unwind$?SetHitFreeze@CApplicationManager@Client@@QEAAX_N@Z
pdata	ENDS
;	COMDAT pdata
pdata	SEGMENT
$pdata$?GetCollider@CPlayerCamera@Client@@QEAAPEAVCCollider@Engine@@XZ DD imagerel $LN3
	DD	imagerel $LN3+64
	DD	imagerel $unwind$?GetCollider@CPlayerCamera@Client@@QEAAPEAVCCollider@Engine@@XZ
pdata	ENDS
;	COMDAT pdata
pdata	SEGMENT
$pdata$?ResetComboTime@CCharacter@Client@@QEAAXXZ DD imagerel $LN3
	DD	imagerel $LN3+68
	DD	imagerel $unwind$?ResetComboTime@CCharacter@Client@@QEAAXXZ
pdata	ENDS
;	COMDAT pdata
pdata	SEGMENT
$pdata$?AddCombo@CCharacter@Client@@QEAAXXZ DD imagerel $LN3
	DD	imagerel $LN3+78
	DD	imagerel $unwind$?AddCombo@CCharacter@Client@@QEAAXXZ
pdata	ENDS
;	COMDAT pdata
pdata	SEGMENT
$pdata$?GetBodyCollider@CCharacter@Client@@QEBAPEAVCCollider@Engine@@XZ DD imagerel $LN3
	DD	imagerel $LN3+64
	DD	imagerel $unwind$?GetBodyCollider@CCharacter@Client@@QEBAPEAVCCollider@Engine@@XZ
pdata	ENDS
;	COMDAT pdata
pdata	SEGMENT
$pdata$?GetWeaponCollider@CCharacter@Client@@QEBAPEAVCCollider@Engine@@XZ DD imagerel $LN3
	DD	imagerel $LN3+64
	DD	imagerel $unwind$?GetWeaponCollider@CCharacter@Client@@QEBAPEAVCCollider@Engine@@XZ
pdata	ENDS
;	COMDAT pdata
pdata	SEGMENT
$pdata$?GetEnemyCheckCollider@CCharacter@Client@@QEBAPEAVCCollider@Engine@@XZ DD imagerel $LN3
	DD	imagerel $LN3+64
	DD	imagerel $unwind$?GetEnemyCheckCollider@CCharacter@Client@@QEBAPEAVCCollider@Engine@@XZ
pdata	ENDS
;	COMDAT pdata
pdata	SEGMENT
$pdata$?GetOffSetMatrix@CBone@Engine@@QEBA?AUXMFLOAT4X4@DirectX@@XZ DD imagerel $LN3
	DD	imagerel $LN3+92
	DD	imagerel $unwind$?GetOffSetMatrix@CBone@Engine@@QEBA?AUXMFLOAT4X4@DirectX@@XZ
pdata	ENDS
;	COMDAT pdata
pdata	SEGMENT
$pdata$?GetCombinedMatrix@CBone@Engine@@QEBA?AUXMFLOAT4X4@DirectX@@XZ DD imagerel $LN3
	DD	imagerel $LN3+92
	DD	imagerel $unwind$?GetCombinedMatrix@CBone@Engine@@QEBA?AUXMFLOAT4X4@DirectX@@XZ
pdata	ENDS
;	COMDAT pdata
pdata	SEGMENT
$pdata$??$isnan@M@@YA_NM@Z DD imagerel $LN5
	DD	imagerel $LN5+92
	DD	imagerel $unwind$??$isnan@M@@YA_NM@Z
pdata	ENDS
;	COMDAT pdata
pdata	SEGMENT
$pdata$??$Safe_Release@PEAVCEnemy@Client@@@Engine@@YAKAEAPEAVCEnemy@Client@@@Z DD imagerel $LN5
	DD	imagerel $LN5+114
	DD	imagerel $unwind$??$Safe_Release@PEAVCEnemy@Client@@@Engine@@YAKAEAPEAVCEnemy@Client@@@Z
pdata	ENDS
;	COMDAT pdata
pdata	SEGMENT
$pdata$??$Safe_Release@PEAVCRenderer@Engine@@@Engine@@YAKAEAPEAVCRenderer@0@@Z DD imagerel $LN5
	DD	imagerel $LN5+114
	DD	imagerel $unwind$??$Safe_Release@PEAVCRenderer@Engine@@@Engine@@YAKAEAPEAVCRenderer@0@@Z
pdata	ENDS
;	COMDAT pdata
pdata	SEGMENT
$pdata$??$Safe_Release@PEAVCTransform@Engine@@@Engine@@YAKAEAPEAVCTransform@0@@Z DD imagerel $LN5
	DD	imagerel $LN5+114
	DD	imagerel $unwind$??$Safe_Release@PEAVCTransform@Engine@@@Engine@@YAKAEAPEAVCTransform@0@@Z
pdata	ENDS
;	COMDAT pdata
pdata	SEGMENT
$pdata$??$Safe_Release@PEAVCModel@Engine@@@Engine@@YAKAEAPEAVCModel@0@@Z DD imagerel $LN5
	DD	imagerel $LN5+114
	DD	imagerel $unwind$??$Safe_Release@PEAVCModel@Engine@@@Engine@@YAKAEAPEAVCModel@0@@Z
pdata	ENDS
;	COMDAT pdata
pdata	SEGMENT
$pdata$??$Safe_Release@PEAVCShader@Engine@@@Engine@@YAKAEAPEAVCShader@0@@Z DD imagerel $LN5
	DD	imagerel $LN5+114
	DD	imagerel $unwind$??$Safe_Release@PEAVCShader@Engine@@@Engine@@YAKAEAPEAVCShader@0@@Z
pdata	ENDS
;	COMDAT pdata
pdata	SEGMENT
$pdata$??$Safe_Release@PEAVCCollider@Engine@@@Engine@@YAKAEAPEAVCCollider@0@@Z DD imagerel $LN5
	DD	imagerel $LN5+114
	DD	imagerel $unwind$??$Safe_Release@PEAVCCollider@Engine@@@Engine@@YAKAEAPEAVCCollider@0@@Z
pdata	ENDS
;	COMDAT __xmm@80000000800000008000000080000000
CONST	SEGMENT
__xmm@80000000800000008000000080000000 DB 00H, 00H, 00H, 080H, 00H, 00H, 00H
	DB	080H, 00H, 00H, 00H, 080H, 00H, 00H, 00H, 080H
CONST	ENDS
;	COMDAT __real@bf4ccccd
CONST	SEGMENT
__real@bf4ccccd DD 0bf4ccccdr			; -0.8
CONST	ENDS
;	COMDAT __real@457a0000
CONST	SEGMENT
__real@457a0000 DD 0457a0000r			; 4000
CONST	ENDS
;	COMDAT __real@41200000
CONST	SEGMENT
__real@41200000 DD 041200000r			; 10
CONST	ENDS
;	COMDAT __real@40a00000
CONST	SEGMENT
__real@40a00000 DD 040a00000r			; 5
CONST	ENDS
;	COMDAT __real@40800000
CONST	SEGMENT
__real@40800000 DD 040800000r			; 4
CONST	ENDS
;	COMDAT __real@40600000
CONST	SEGMENT
__real@40600000 DD 040600000r			; 3.5
CONST	ENDS
;	COMDAT __real@40000000
CONST	SEGMENT
__real@40000000 DD 040000000r			; 2
CONST	ENDS
;	COMDAT __real@3ff0000000000000
CONST	SEGMENT
__real@3ff0000000000000 DQ 03ff0000000000000r	; 1
CONST	ENDS
;	COMDAT __real@3fe999999999999a
CONST	SEGMENT
__real@3fe999999999999a DQ 03fe999999999999ar	; 0.8
CONST	ENDS
;	COMDAT __real@3fd9999a
CONST	SEGMENT
__real@3fd9999a DD 03fd9999ar			; 1.7
CONST	ENDS
;	COMDAT __real@3fc999999999999a
CONST	SEGMENT
__real@3fc999999999999a DQ 03fc999999999999ar	; 0.2
CONST	ENDS
;	COMDAT __real@3fc00000
CONST	SEGMENT
__real@3fc00000 DD 03fc00000r			; 1.5
CONST	ENDS
;	COMDAT __real@3fb999999999999a
CONST	SEGMENT
__real@3fb999999999999a DQ 03fb999999999999ar	; 0.1
CONST	ENDS
;	COMDAT __real@3fa66666
CONST	SEGMENT
__real@3fa66666 DD 03fa66666r			; 1.3
CONST	ENDS
;	COMDAT __real@3f8ccccd
CONST	SEGMENT
__real@3f8ccccd DD 03f8ccccdr			; 1.1
CONST	ENDS
;	COMDAT __real@3f800000
CONST	SEGMENT
__real@3f800000 DD 03f800000r			; 1
CONST	ENDS
;	COMDAT __real@3f4ccccd
CONST	SEGMENT
__real@3f4ccccd DD 03f4ccccdr			; 0.8
CONST	ENDS
;	COMDAT __real@3f000000
CONST	SEGMENT
__real@3f000000 DD 03f000000r			; 0.5
CONST	ENDS
;	COMDAT __real@3ecccccd
CONST	SEGMENT
__real@3ecccccd DD 03ecccccdr			; 0.4
CONST	ENDS
;	COMDAT __real@3e19999a
CONST	SEGMENT
__real@3e19999a DD 03e19999ar			; 0.15
CONST	ENDS
;	COMDAT __real@3dcccccd
CONST	SEGMENT
__real@3dcccccd DD 03dcccccdr			; 0.1
CONST	ENDS
;	COMDAT __real@0000000000000000
CONST	SEGMENT
__real@0000000000000000 DQ 00000000000000000r	; 0
CONST	ENDS
;	COMDAT __real@00000000
CONST	SEGMENT
__real@00000000 DD 000000000r			; 0
CONST	ENDS
;	COMDAT rtc$TMZ
rtc$TMZ	SEGMENT
_RTC_Shutdown.rtc$TMZ DQ FLAT:_RTC_Shutdown
rtc$TMZ	ENDS
;	COMDAT rtc$IMZ
rtc$IMZ	SEGMENT
_RTC_InitBase.rtc$IMZ DQ FLAT:_RTC_InitBase
rtc$IMZ	ENDS
;	COMDAT ??_R4CEnemy@Client@@6BIOnCollisionExit@Engine@@@
rdata$r	SEGMENT
??_R4CEnemy@Client@@6BIOnCollisionExit@Engine@@@ DD 01H	; Client::CEnemy::`RTTI Complete Object Locator'
	DD	088H
	DD	00H
	DD	imagerel ??_R0?AVCEnemy@Client@@@8
	DD	imagerel ??_R3CEnemy@Client@@8
	DD	imagerel ??_R4CEnemy@Client@@6BIOnCollisionExit@Engine@@@
rdata$r	ENDS
;	COMDAT ??_R4CEnemy@Client@@6BIOnCollisionStay@Engine@@@
rdata$r	SEGMENT
??_R4CEnemy@Client@@6BIOnCollisionStay@Engine@@@ DD 01H	; Client::CEnemy::`RTTI Complete Object Locator'
	DD	080H
	DD	00H
	DD	imagerel ??_R0?AVCEnemy@Client@@@8
	DD	imagerel ??_R3CEnemy@Client@@8
	DD	imagerel ??_R4CEnemy@Client@@6BIOnCollisionStay@Engine@@@
rdata$r	ENDS
;	COMDAT ??_R4CEnemy@Client@@6BIOnCollisionEnter@Engine@@@
rdata$r	SEGMENT
??_R4CEnemy@Client@@6BIOnCollisionEnter@Engine@@@ DD 01H ; Client::CEnemy::`RTTI Complete Object Locator'
	DD	078H
	DD	00H
	DD	imagerel ??_R0?AVCEnemy@Client@@@8
	DD	imagerel ??_R3CEnemy@Client@@8
	DD	imagerel ??_R4CEnemy@Client@@6BIOnCollisionEnter@Engine@@@
rdata$r	ENDS
;	COMDAT ??_R1A@?0A@EA@IOnCollisionExit@Engine@@8
rdata$r	SEGMENT
??_R1A@?0A@EA@IOnCollisionExit@Engine@@8 DD imagerel ??_R0?AVIOnCollisionExit@Engine@@@8 ; Engine::IOnCollisionExit::`RTTI Base Class Descriptor at (0,-1,0,64)'
	DD	00H
	DD	00H
	DD	0ffffffffH
	DD	00H
	DD	040H
	DD	imagerel ??_R3IOnCollisionExit@Engine@@8
rdata$r	ENDS
;	COMDAT ??_R2IOnCollisionExit@Engine@@8
rdata$r	SEGMENT
??_R2IOnCollisionExit@Engine@@8 DD imagerel ??_R1A@?0A@EA@IOnCollisionExit@Engine@@8 ; Engine::IOnCollisionExit::`RTTI Base Class Array'
	ORG $+3
rdata$r	ENDS
;	COMDAT ??_R3IOnCollisionExit@Engine@@8
rdata$r	SEGMENT
??_R3IOnCollisionExit@Engine@@8 DD 00H			; Engine::IOnCollisionExit::`RTTI Class Hierarchy Descriptor'
	DD	00H
	DD	01H
	DD	imagerel ??_R2IOnCollisionExit@Engine@@8
rdata$r	ENDS
;	COMDAT ??_R0?AVIOnCollisionExit@Engine@@@8
data$r	SEGMENT
??_R0?AVIOnCollisionExit@Engine@@@8 DQ FLAT:??_7type_info@@6B@ ; Engine::IOnCollisionExit `RTTI Type Descriptor'
	DQ	0000000000000000H
	DB	'.?AVIOnCollisionExit@Engine@@', 00H
data$r	ENDS
;	COMDAT ??_R1II@?0A@EA@IOnCollisionExit@Engine@@8
rdata$r	SEGMENT
??_R1II@?0A@EA@IOnCollisionExit@Engine@@8 DD imagerel ??_R0?AVIOnCollisionExit@Engine@@@8 ; Engine::IOnCollisionExit::`RTTI Base Class Descriptor at (136,-1,0,64)'
	DD	00H
	DD	088H
	DD	0ffffffffH
	DD	00H
	DD	040H
	DD	imagerel ??_R3IOnCollisionExit@Engine@@8
rdata$r	ENDS
;	COMDAT ??_R1A@?0A@EA@IOnCollisionStay@Engine@@8
rdata$r	SEGMENT
??_R1A@?0A@EA@IOnCollisionStay@Engine@@8 DD imagerel ??_R0?AVIOnCollisionStay@Engine@@@8 ; Engine::IOnCollisionStay::`RTTI Base Class Descriptor at (0,-1,0,64)'
	DD	00H
	DD	00H
	DD	0ffffffffH
	DD	00H
	DD	040H
	DD	imagerel ??_R3IOnCollisionStay@Engine@@8
rdata$r	ENDS
;	COMDAT ??_R2IOnCollisionStay@Engine@@8
rdata$r	SEGMENT
??_R2IOnCollisionStay@Engine@@8 DD imagerel ??_R1A@?0A@EA@IOnCollisionStay@Engine@@8 ; Engine::IOnCollisionStay::`RTTI Base Class Array'
	ORG $+3
rdata$r	ENDS
;	COMDAT ??_R3IOnCollisionStay@Engine@@8
rdata$r	SEGMENT
??_R3IOnCollisionStay@Engine@@8 DD 00H			; Engine::IOnCollisionStay::`RTTI Class Hierarchy Descriptor'
	DD	00H
	DD	01H
	DD	imagerel ??_R2IOnCollisionStay@Engine@@8
rdata$r	ENDS
;	COMDAT ??_R0?AVIOnCollisionStay@Engine@@@8
data$r	SEGMENT
??_R0?AVIOnCollisionStay@Engine@@@8 DQ FLAT:??_7type_info@@6B@ ; Engine::IOnCollisionStay `RTTI Type Descriptor'
	DQ	0000000000000000H
	DB	'.?AVIOnCollisionStay@Engine@@', 00H
data$r	ENDS
;	COMDAT ??_R1IA@?0A@EA@IOnCollisionStay@Engine@@8
rdata$r	SEGMENT
??_R1IA@?0A@EA@IOnCollisionStay@Engine@@8 DD imagerel ??_R0?AVIOnCollisionStay@Engine@@@8 ; Engine::IOnCollisionStay::`RTTI Base Class Descriptor at (128,-1,0,64)'
	DD	00H
	DD	080H
	DD	0ffffffffH
	DD	00H
	DD	040H
	DD	imagerel ??_R3IOnCollisionStay@Engine@@8
rdata$r	ENDS
;	COMDAT ??_R1A@?0A@EA@IOnCollisionEnter@Engine@@8
rdata$r	SEGMENT
??_R1A@?0A@EA@IOnCollisionEnter@Engine@@8 DD imagerel ??_R0?AVIOnCollisionEnter@Engine@@@8 ; Engine::IOnCollisionEnter::`RTTI Base Class Descriptor at (0,-1,0,64)'
	DD	00H
	DD	00H
	DD	0ffffffffH
	DD	00H
	DD	040H
	DD	imagerel ??_R3IOnCollisionEnter@Engine@@8
rdata$r	ENDS
;	COMDAT ??_R2IOnCollisionEnter@Engine@@8
rdata$r	SEGMENT
??_R2IOnCollisionEnter@Engine@@8 DD imagerel ??_R1A@?0A@EA@IOnCollisionEnter@Engine@@8 ; Engine::IOnCollisionEnter::`RTTI Base Class Array'
	ORG $+3
rdata$r	ENDS
;	COMDAT ??_R3IOnCollisionEnter@Engine@@8
rdata$r	SEGMENT
??_R3IOnCollisionEnter@Engine@@8 DD 00H			; Engine::IOnCollisionEnter::`RTTI Class Hierarchy Descriptor'
	DD	00H
	DD	01H
	DD	imagerel ??_R2IOnCollisionEnter@Engine@@8
rdata$r	ENDS
;	COMDAT ??_R0?AVIOnCollisionEnter@Engine@@@8
data$r	SEGMENT
??_R0?AVIOnCollisionEnter@Engine@@@8 DQ FLAT:??_7type_info@@6B@ ; Engine::IOnCollisionEnter `RTTI Type Descriptor'
	DQ	0000000000000000H
	DB	'.?AVIOnCollisionEnter@Engine@@', 00H
data$r	ENDS
;	COMDAT ??_R1HI@?0A@EA@IOnCollisionEnter@Engine@@8
rdata$r	SEGMENT
??_R1HI@?0A@EA@IOnCollisionEnter@Engine@@8 DD imagerel ??_R0?AVIOnCollisionEnter@Engine@@@8 ; Engine::IOnCollisionEnter::`RTTI Base Class Descriptor at (120,-1,0,64)'
	DD	00H
	DD	078H
	DD	0ffffffffH
	DD	00H
	DD	040H
	DD	imagerel ??_R3IOnCollisionEnter@Engine@@8
rdata$r	ENDS
;	COMDAT ??_R2CBase@Engine@@8
rdata$r	SEGMENT
??_R2CBase@Engine@@8 DD imagerel ??_R1A@?0A@EA@CBase@Engine@@8 ; Engine::CBase::`RTTI Base Class Array'
	ORG $+3
rdata$r	ENDS
;	COMDAT ??_R3CBase@Engine@@8
rdata$r	SEGMENT
??_R3CBase@Engine@@8 DD 00H				; Engine::CBase::`RTTI Class Hierarchy Descriptor'
	DD	00H
	DD	01H
	DD	imagerel ??_R2CBase@Engine@@8
rdata$r	ENDS
;	COMDAT ??_R0?AVCBase@Engine@@@8
data$r	SEGMENT
??_R0?AVCBase@Engine@@@8 DQ FLAT:??_7type_info@@6B@	; Engine::CBase `RTTI Type Descriptor'
	DQ	0000000000000000H
	DB	'.?AVCBase@Engine@@', 00H
data$r	ENDS
;	COMDAT ??_R1A@?0A@EA@CBase@Engine@@8
rdata$r	SEGMENT
??_R1A@?0A@EA@CBase@Engine@@8 DD imagerel ??_R0?AVCBase@Engine@@@8 ; Engine::CBase::`RTTI Base Class Descriptor at (0,-1,0,64)'
	DD	00H
	DD	00H
	DD	0ffffffffH
	DD	00H
	DD	040H
	DD	imagerel ??_R3CBase@Engine@@8
rdata$r	ENDS
;	COMDAT ??_R2CGameObject@Engine@@8
rdata$r	SEGMENT
??_R2CGameObject@Engine@@8 DD imagerel ??_R1A@?0A@EA@CGameObject@Engine@@8 ; Engine::CGameObject::`RTTI Base Class Array'
	DD	imagerel ??_R1A@?0A@EA@CBase@Engine@@8
	ORG $+3
rdata$r	ENDS
;	COMDAT ??_R3CGameObject@Engine@@8
rdata$r	SEGMENT
??_R3CGameObject@Engine@@8 DD 00H			; Engine::CGameObject::`RTTI Class Hierarchy Descriptor'
	DD	00H
	DD	02H
	DD	imagerel ??_R2CGameObject@Engine@@8
rdata$r	ENDS
;	COMDAT ??_R1A@?0A@EA@CGameObject@Engine@@8
rdata$r	SEGMENT
??_R1A@?0A@EA@CGameObject@Engine@@8 DD imagerel ??_R0?AVCGameObject@Engine@@@8 ; Engine::CGameObject::`RTTI Base Class Descriptor at (0,-1,0,64)'
	DD	01H
	DD	00H
	DD	0ffffffffH
	DD	00H
	DD	040H
	DD	imagerel ??_R3CGameObject@Engine@@8
rdata$r	ENDS
;	COMDAT ??_R1A@?0A@EA@CEnemy@Client@@8
rdata$r	SEGMENT
??_R1A@?0A@EA@CEnemy@Client@@8 DD imagerel ??_R0?AVCEnemy@Client@@@8 ; Client::CEnemy::`RTTI Base Class Descriptor at (0,-1,0,64)'
	DD	05H
	DD	00H
	DD	0ffffffffH
	DD	00H
	DD	040H
	DD	imagerel ??_R3CEnemy@Client@@8
rdata$r	ENDS
;	COMDAT ??_R2CEnemy@Client@@8
rdata$r	SEGMENT
??_R2CEnemy@Client@@8 DD imagerel ??_R1A@?0A@EA@CEnemy@Client@@8 ; Client::CEnemy::`RTTI Base Class Array'
	DD	imagerel ??_R1A@?0A@EA@CGameObject@Engine@@8
	DD	imagerel ??_R1A@?0A@EA@CBase@Engine@@8
	DD	imagerel ??_R1HI@?0A@EA@IOnCollisionEnter@Engine@@8
	DD	imagerel ??_R1IA@?0A@EA@IOnCollisionStay@Engine@@8
	DD	imagerel ??_R1II@?0A@EA@IOnCollisionExit@Engine@@8
	ORG $+3
rdata$r	ENDS
;	COMDAT ??_R3CEnemy@Client@@8
rdata$r	SEGMENT
??_R3CEnemy@Client@@8 DD 00H				; Client::CEnemy::`RTTI Class Hierarchy Descriptor'
	DD	01H
	DD	06H
	DD	imagerel ??_R2CEnemy@Client@@8
rdata$r	ENDS
;	COMDAT ??_R4CEnemy@Client@@6BCGameObject@Engine@@@
rdata$r	SEGMENT
??_R4CEnemy@Client@@6BCGameObject@Engine@@@ DD 01H	; Client::CEnemy::`RTTI Complete Object Locator'
	DD	00H
	DD	00H
	DD	imagerel ??_R0?AVCEnemy@Client@@@8
	DD	imagerel ??_R3CEnemy@Client@@8
	DD	imagerel ??_R4CEnemy@Client@@6BCGameObject@Engine@@@
rdata$r	ENDS
;	COMDAT ??_R0?AVCPlayerCamera@Client@@@8
data$r	SEGMENT
??_R0?AVCPlayerCamera@Client@@@8 DQ FLAT:??_7type_info@@6B@ ; Client::CPlayerCamera `RTTI Type Descriptor'
	DQ	0000000000000000H
	DB	'.?AVCPlayerCamera@Client@@', 00H
data$r	ENDS
;	COMDAT ??_R0?AVCCharacter@Client@@@8
data$r	SEGMENT
??_R0?AVCCharacter@Client@@@8 DQ FLAT:??_7type_info@@6B@ ; Client::CCharacter `RTTI Type Descriptor'
	DQ	0000000000000000H
	DB	'.?AVCCharacter@Client@@', 00H
data$r	ENDS
;	COMDAT ??_R0?AVCEnemy@Client@@@8
data$r	SEGMENT
??_R0?AVCEnemy@Client@@@8 DQ FLAT:??_7type_info@@6B@	; Client::CEnemy `RTTI Type Descriptor'
	DQ	0000000000000000H
	DB	'.?AVCEnemy@Client@@', 00H
data$r	ENDS
;	COMDAT ??_R0?AVCGameObject@Engine@@@8
data$r	SEGMENT
??_R0?AVCGameObject@Engine@@@8 DQ FLAT:??_7type_info@@6B@ ; Engine::CGameObject `RTTI Type Descriptor'
	DQ	0000000000000000H
	DB	'.?AVCGameObject@Engine@@', 00H
data$r	ENDS
;	COMDAT ??_C@_1DC@DLCINEP@?$AAF?$AAa?$AAi?$AAl?$AAe?$AAd?$AA?5?$AAt?$AAo?$AA?5?$AAC?$AAl?$AAo?$AAn?$AAe?$AA?5?$AA?3?$AA?5?$AAC?$AAE?$AAn?$AAe?$AAm?$AAy?$AA?$AA@
CONST	SEGMENT
??_C@_1DC@DLCINEP@?$AAF?$AAa?$AAi?$AAl?$AAe?$AAd?$AA?5?$AAt?$AAo?$AA?5?$AAC?$AAl?$AAo?$AAn?$AAe?$AA?5?$AA?3?$AA?5?$AAC?$AAE?$AAn?$AAe?$AAm?$AAy?$AA?$AA@ DB 'F'
	DB	00H, 'a', 00H, 'i', 00H, 'l', 00H, 'e', 00H, 'd', 00H, ' ', 00H
	DB	't', 00H, 'o', 00H, ' ', 00H, 'C', 00H, 'l', 00H, 'o', 00H, 'n'
	DB	00H, 'e', 00H, ' ', 00H, ':', 00H, ' ', 00H, 'C', 00H, 'E', 00H
	DB	'n', 00H, 'e', 00H, 'm', 00H, 'y', 00H, 00H, 00H ; `string'
CONST	ENDS
;	COMDAT ?__LINE__Var@?0??Clone@CEnemy@Client@@UEAAPEAVCGameObject@Engine@@PEAX@Z@4JA
_DATA	SEGMENT
?__LINE__Var@?0??Clone@CEnemy@Client@@UEAAPEAVCGameObject@Engine@@PEAX@Z@4JA DD 03adH ; `Client::CEnemy::Clone'::`1'::__LINE__Var
_DATA	ENDS
;	COMDAT ??_C@_1DE@HGPPJNOD@?$AAF?$AAa?$AAi?$AAl?$AAe?$AAd?$AA?5?$AAt?$AAo?$AA?5?$AAC?$AAr?$AAe?$AAa?$AAt?$AAe?$AA?5?$AA?3?$AA?5?$AAC?$AAE?$AAn?$AAe?$AAm?$AAy?$AA?$AA@
CONST	SEGMENT
??_C@_1DE@HGPPJNOD@?$AAF?$AAa?$AAi?$AAl?$AAe?$AAd?$AA?5?$AAt?$AAo?$AA?5?$AAC?$AAr?$AAe?$AAa?$AAt?$AAe?$AA?5?$AA?3?$AA?5?$AAC?$AAE?$AAn?$AAe?$AAm?$AAy?$AA?$AA@ DB 'F'
	DB	00H, 'a', 00H, 'i', 00H, 'l', 00H, 'e', 00H, 'd', 00H, ' ', 00H
	DB	't', 00H, 'o', 00H, ' ', 00H, 'C', 00H, 'r', 00H, 'e', 00H, 'a'
	DB	00H, 't', 00H, 'e', 00H, ' ', 00H, ':', 00H, ' ', 00H, 'C', 00H
	DB	'E', 00H, 'n', 00H, 'e', 00H, 'm', 00H, 'y', 00H, 00H, 00H ; `string'
CONST	ENDS
;	COMDAT ??_C@_1BA@HHOMBECE@?$AAM?$AAe?$AAs?$AAs?$AAa?$AAg?$AAe?$AA?$AA@
CONST	SEGMENT
??_C@_1BA@HHOMBECE@?$AAM?$AAe?$AAs?$AAs?$AAa?$AAg?$AAe?$AA?$AA@ DB 'M', 00H
	DB	'e', 00H, 's', 00H, 's', 00H, 'a', 00H, 'g', 00H, 'e', 00H, 00H
	DB	00H						; `string'
CONST	ENDS
;	COMDAT ??_C@_0CN@NPIBGABL@c?3?2github?2framework?2client?2priva@
CONST	SEGMENT
??_C@_0CN@NPIBGABL@c?3?2github?2framework?2client?2priva@ DB 'c:\github\f'
	DB	'ramework\client\private\enemy.cpp', 00H	; `string'
CONST	ENDS
;	COMDAT ?__LINE__Var@?0??Create@CEnemy@Client@@SAPEAV23@PEAUID3D11Device@@PEAUID3D11DeviceContext@@W4TYPE@23@@Z@4JA
_DATA	SEGMENT
?__LINE__Var@?0??Create@CEnemy@Client@@SAPEAV23@PEAUID3D11Device@@PEAUID3D11DeviceContext@@W4TYPE@23@@Z@4JA DD 03a1H ; `Client::CEnemy::Create'::`1'::__LINE__Var
_DATA	ENDS
;	COMDAT ??_C@_0BA@EALGDMPJ@g_vLightAmbient?$AA@
CONST	SEGMENT
??_C@_0BA@EALGDMPJ@g_vLightAmbient?$AA@ DB 'g_vLightAmbient', 00H ; `string'
CONST	ENDS
;	COMDAT ??_C@_0BB@IJIIKIH@g_vLightSpecular?$AA@
CONST	SEGMENT
??_C@_0BB@IJIIKIH@g_vLightSpecular?$AA@ DB 'g_vLightSpecular', 00H ; `string'
CONST	ENDS
;	COMDAT ??_C@_0BA@PCOGIHOF@g_vLightDiffuse?$AA@
CONST	SEGMENT
??_C@_0BA@PCOGIHOF@g_vLightDiffuse?$AA@ DB 'g_vLightDiffuse', 00H ; `string'
CONST	ENDS
;	COMDAT ??_C@_0M@NHGOLGEL@g_vLightDir?$AA@
CONST	SEGMENT
??_C@_0M@NHGOLGEL@g_vLightDir?$AA@ DB 'g_vLightDir', 00H ; `string'
CONST	ENDS
;	COMDAT ??_C@_0P@BDEIJKBM@g_vCamPosition?$AA@
CONST	SEGMENT
??_C@_0P@BDEIJKBM@g_vCamPosition?$AA@ DB 'g_vCamPosition', 00H ; `string'
CONST	ENDS
;	COMDAT ??_C@_0N@OOHDPIO@g_ProjMatrix?$AA@
CONST	SEGMENT
??_C@_0N@OOHDPIO@g_ProjMatrix?$AA@ DB 'g_ProjMatrix', 00H ; `string'
CONST	ENDS
;	COMDAT ??_C@_0N@ELIMCBLG@g_ViewMatrix?$AA@
CONST	SEGMENT
??_C@_0N@ELIMCBLG@g_ViewMatrix?$AA@ DB 'g_ViewMatrix', 00H ; `string'
CONST	ENDS
;	COMDAT ??_C@_0O@PFNLPMLD@g_WorldMatrix?$AA@
CONST	SEGMENT
??_C@_0O@PFNLPMLD@g_WorldMatrix?$AA@ DB 'g_WorldMatrix', 00H ; `string'
CONST	ENDS
;	COMDAT ??_C@_1CG@CHKGKHGN@?$AAc?$AAo?$AAm?$AA_?$AAc?$AAo?$AAl?$AAl?$AAd?$AAe?$AAr?$AA_?$AAw?$AAe?$AAa?$AAp?$AAo?$AAn?$AA?$AA@
CONST	SEGMENT
??_C@_1CG@CHKGKHGN@?$AAc?$AAo?$AAm?$AA_?$AAc?$AAo?$AAl?$AAl?$AAd?$AAe?$AAr?$AA_?$AAw?$AAe?$AAa?$AAp?$AAo?$AAn?$AA?$AA@ DB 'c'
	DB	00H, 'o', 00H, 'm', 00H, '_', 00H, 'c', 00H, 'o', 00H, 'l', 00H
	DB	'l', 00H, 'd', 00H, 'e', 00H, 'r', 00H, '_', 00H, 'w', 00H, 'e'
	DB	00H, 'a', 00H, 'p', 00H, 'o', 00H, 'n', 00H, 00H, 00H ; `string'
CONST	ENDS
;	COMDAT ??_C@_1DE@OCAJEKIC@?$AAp?$AAr?$AAo?$AAt?$AAo?$AA_?$AAc?$AAo?$AAm?$AA_?$AAs?$AAp?$AAh?$AAe?$AAr?$AAe?$AA_?$AAc?$AAo?$AAl?$AAl?$AAi?$AAd?$AAe?$AAr?$AA?$AA@
CONST	SEGMENT
??_C@_1DE@OCAJEKIC@?$AAp?$AAr?$AAo?$AAt?$AAo?$AA_?$AAc?$AAo?$AAm?$AA_?$AAs?$AAp?$AAh?$AAe?$AAr?$AAe?$AA_?$AAc?$AAo?$AAl?$AAl?$AAi?$AAd?$AAe?$AAr?$AA?$AA@ DB 'p'
	DB	00H, 'r', 00H, 'o', 00H, 't', 00H, 'o', 00H, '_', 00H, 'c', 00H
	DB	'o', 00H, 'm', 00H, '_', 00H, 's', 00H, 'p', 00H, 'h', 00H, 'e'
	DB	00H, 'r', 00H, 'e', 00H, '_', 00H, 'c', 00H, 'o', 00H, 'l', 00H
	DB	'l', 00H, 'i', 00H, 'd', 00H, 'e', 00H, 'r', 00H, 00H, 00H ; `string'
CONST	ENDS
;	COMDAT ??_C@_1CE@JKMOMFCH@?$AAc?$AAo?$AAm?$AA_?$AAc?$AAo?$AAl?$AAl?$AAd?$AAe?$AAr?$AA_?$AAe?$AAn?$AAe?$AAm?$AAy?$AA?$AA@
CONST	SEGMENT
??_C@_1CE@JKMOMFCH@?$AAc?$AAo?$AAm?$AA_?$AAc?$AAo?$AAl?$AAl?$AAd?$AAe?$AAr?$AA_?$AAe?$AAn?$AAe?$AAm?$AAy?$AA?$AA@ DB 'c'
	DB	00H, 'o', 00H, 'm', 00H, '_', 00H, 'c', 00H, 'o', 00H, 'l', 00H
	DB	'l', 00H, 'd', 00H, 'e', 00H, 'r', 00H, '_', 00H, 'e', 00H, 'n'
	DB	00H, 'e', 00H, 'm', 00H, 'y', 00H, 00H, 00H	; `string'
CONST	ENDS
;	COMDAT ??_C@_1CO@HJBGOIAH@?$AAp?$AAr?$AAo?$AAt?$AAo?$AA_?$AAc?$AAo?$AAm?$AA_?$AAo?$AAb?$AAb?$AA_?$AAc?$AAo?$AAl?$AAl?$AAi?$AAd?$AAe?$AAr?$AA?$AA@
CONST	SEGMENT
??_C@_1CO@HJBGOIAH@?$AAp?$AAr?$AAo?$AAt?$AAo?$AA_?$AAc?$AAo?$AAm?$AA_?$AAo?$AAb?$AAb?$AA_?$AAc?$AAo?$AAl?$AAl?$AAi?$AAd?$AAe?$AAr?$AA?$AA@ DB 'p'
	DB	00H, 'r', 00H, 'o', 00H, 't', 00H, 'o', 00H, '_', 00H, 'c', 00H
	DB	'o', 00H, 'm', 00H, '_', 00H, 'o', 00H, 'b', 00H, 'b', 00H, '_'
	DB	00H, 'c', 00H, 'o', 00H, 'l', 00H, 'l', 00H, 'i', 00H, 'd', 00H
	DB	'e', 00H, 'r', 00H, 00H, 00H			; `string'
CONST	ENDS
;	COMDAT ??_C@_1BK@BKCENIHA@?$AAc?$AAo?$AAm?$AA_?$AAc?$AAo?$AAl?$AAl?$AAi?$AAd?$AAe?$AAr?$AA?$AA@
CONST	SEGMENT
??_C@_1BK@BKCENIHA@?$AAc?$AAo?$AAm?$AA_?$AAc?$AAo?$AAl?$AAl?$AAi?$AAd?$AAe?$AAr?$AA?$AA@ DB 'c'
	DB	00H, 'o', 00H, 'm', 00H, '_', 00H, 'c', 00H, 'o', 00H, 'l', 00H
	DB	'l', 00H, 'i', 00H, 'd', 00H, 'e', 00H, 'r', 00H, 00H, 00H ; `string'
CONST	ENDS
;	COMDAT ??_C@_1DA@IFMLIABO@?$AAp?$AAr?$AAo?$AAt?$AAo?$AA_?$AAc?$AAo?$AAm?$AA_?$AAm?$AAo?$AAd?$AAe?$AAl?$AA_?$AAe?$AAn?$AAe?$AAm?$AAy?$AA0?$AA2?$AA?$AA@
CONST	SEGMENT
??_C@_1DA@IFMLIABO@?$AAp?$AAr?$AAo?$AAt?$AAo?$AA_?$AAc?$AAo?$AAm?$AA_?$AAm?$AAo?$AAd?$AAe?$AAl?$AA_?$AAe?$AAn?$AAe?$AAm?$AAy?$AA0?$AA2?$AA?$AA@ DB 'p'
	DB	00H, 'r', 00H, 'o', 00H, 't', 00H, 'o', 00H, '_', 00H, 'c', 00H
	DB	'o', 00H, 'm', 00H, '_', 00H, 'm', 00H, 'o', 00H, 'd', 00H, 'e'
	DB	00H, 'l', 00H, '_', 00H, 'e', 00H, 'n', 00H, 'e', 00H, 'm', 00H
	DB	'y', 00H, '0', 00H, '2', 00H, 00H, 00H	; `string'
CONST	ENDS
;	COMDAT ??_C@_1DA@JHHOCPPA@?$AAp?$AAr?$AAo?$AAt?$AAo?$AA_?$AAc?$AAo?$AAm?$AA_?$AAm?$AAo?$AAd?$AAe?$AAl?$AA_?$AAe?$AAn?$AAe?$AAm?$AAy?$AA0?$AA1?$AA?$AA@
CONST	SEGMENT
??_C@_1DA@JHHOCPPA@?$AAp?$AAr?$AAo?$AAt?$AAo?$AA_?$AAc?$AAo?$AAm?$AA_?$AAm?$AAo?$AAd?$AAe?$AAl?$AA_?$AAe?$AAn?$AAe?$AAm?$AAy?$AA0?$AA1?$AA?$AA@ DB 'p'
	DB	00H, 'r', 00H, 'o', 00H, 't', 00H, 'o', 00H, '_', 00H, 'c', 00H
	DB	'o', 00H, 'm', 00H, '_', 00H, 'm', 00H, 'o', 00H, 'd', 00H, 'e'
	DB	00H, 'l', 00H, '_', 00H, 'e', 00H, 'n', 00H, 'e', 00H, 'm', 00H
	DB	'y', 00H, '0', 00H, '1', 00H, 00H, 00H	; `string'
CONST	ENDS
;	COMDAT ??_C@_1BE@MLNOEPCA@?$AAc?$AAo?$AAm?$AA_?$AAm?$AAo?$AAd?$AAe?$AAl?$AA?$AA@
CONST	SEGMENT
??_C@_1BE@MLNOEPCA@?$AAc?$AAo?$AAm?$AA_?$AAm?$AAo?$AAd?$AAe?$AAl?$AA?$AA@ DB 'c'
	DB	00H, 'o', 00H, 'm', 00H, '_', 00H, 'm', 00H, 'o', 00H, 'd', 00H
	DB	'e', 00H, 'l', 00H, 00H, 00H			; `string'
CONST	ENDS
;	COMDAT ??_C@_1DM@OGMOEMJ@?$AAp?$AAr?$AAo?$AAt?$AAo?$AA_?$AAc?$AAo?$AAm?$AA_?$AAs?$AAh?$AAa?$AAd?$AAe?$AAr?$AA_?$AAv?$AAt?$AAx?$AAa?$AAn?$AAi?$AAm?$AAm?$AAo?$AAd?$AAe?$AAl?$AA?$AA@
CONST	SEGMENT
??_C@_1DM@OGMOEMJ@?$AAp?$AAr?$AAo?$AAt?$AAo?$AA_?$AAc?$AAo?$AAm?$AA_?$AAs?$AAh?$AAa?$AAd?$AAe?$AAr?$AA_?$AAv?$AAt?$AAx?$AAa?$AAn?$AAi?$AAm?$AAm?$AAo?$AAd?$AAe?$AAl?$AA?$AA@ DB 'p'
	DB	00H, 'r', 00H, 'o', 00H, 't', 00H, 'o', 00H, '_', 00H, 'c', 00H
	DB	'o', 00H, 'm', 00H, '_', 00H, 's', 00H, 'h', 00H, 'a', 00H, 'd'
	DB	00H, 'e', 00H, 'r', 00H, '_', 00H, 'v', 00H, 't', 00H, 'x', 00H
	DB	'a', 00H, 'n', 00H, 'i', 00H, 'm', 00H, 'm', 00H, 'o', 00H, 'd'
	DB	00H, 'e', 00H, 'l', 00H, 00H, 00H		; `string'
CONST	ENDS
;	COMDAT ??_C@_1BG@GGOMMBBL@?$AAc?$AAo?$AAm?$AA_?$AAs?$AAh?$AAa?$AAd?$AAe?$AAr?$AA?$AA@
CONST	SEGMENT
??_C@_1BG@GGOMMBBL@?$AAc?$AAo?$AAm?$AA_?$AAs?$AAh?$AAa?$AAd?$AAe?$AAr?$AA?$AA@ DB 'c'
	DB	00H, 'o', 00H, 'm', 00H, '_', 00H, 's', 00H, 'h', 00H, 'a', 00H
	DB	'd', 00H, 'e', 00H, 'r', 00H, 00H, 00H	; `string'
CONST	ENDS
;	COMDAT ??_C@_1CI@MLEFGO@?$AAp?$AAr?$AAo?$AAt?$AAo?$AA_?$AAc?$AAo?$AAm?$AA_?$AAt?$AAr?$AAa?$AAn?$AAs?$AAf?$AAo?$AAr?$AAm?$AA?$AA@
CONST	SEGMENT
??_C@_1CI@MLEFGO@?$AAp?$AAr?$AAo?$AAt?$AAo?$AA_?$AAc?$AAo?$AAm?$AA_?$AAt?$AAr?$AAa?$AAn?$AAs?$AAf?$AAo?$AAr?$AAm?$AA?$AA@ DB 'p'
	DB	00H, 'r', 00H, 'o', 00H, 't', 00H, 'o', 00H, '_', 00H, 'c', 00H
	DB	'o', 00H, 'm', 00H, '_', 00H, 't', 00H, 'r', 00H, 'a', 00H, 'n'
	DB	00H, 's', 00H, 'f', 00H, 'o', 00H, 'r', 00H, 'm', 00H, 00H, 00H ; `string'
CONST	ENDS
;	COMDAT ??_C@_1CG@COFFFCLL@?$AAp?$AAr?$AAo?$AAt?$AAo?$AA_?$AAc?$AAo?$AAm?$AA_?$AAr?$AAe?$AAn?$AAd?$AAe?$AAr?$AAe?$AAr?$AA?$AA@
CONST	SEGMENT
??_C@_1CG@COFFFCLL@?$AAp?$AAr?$AAo?$AAt?$AAo?$AA_?$AAc?$AAo?$AAm?$AA_?$AAr?$AAe?$AAn?$AAd?$AAe?$AAr?$AAe?$AAr?$AA?$AA@ DB 'p'
	DB	00H, 'r', 00H, 'o', 00H, 't', 00H, 'o', 00H, '_', 00H, 'c', 00H
	DB	'o', 00H, 'm', 00H, '_', 00H, 'r', 00H, 'e', 00H, 'n', 00H, 'd'
	DB	00H, 'e', 00H, 'r', 00H, 'e', 00H, 'r', 00H, 00H, 00H ; `string'
CONST	ENDS
;	COMDAT ??_C@_1BK@GIOMOCNE@?$AAc?$AAo?$AAm?$AA_?$AAr?$AAe?$AAn?$AAd?$AAe?$AAr?$AAe?$AAr?$AA?$AA@
CONST	SEGMENT
??_C@_1BK@GIOMOCNE@?$AAc?$AAo?$AAm?$AA_?$AAr?$AAe?$AAn?$AAd?$AAe?$AAr?$AAe?$AAr?$AA?$AA@ DB 'c'
	DB	00H, 'o', 00H, 'm', 00H, '_', 00H, 'r', 00H, 'e', 00H, 'n', 00H
	DB	'd', 00H, 'e', 00H, 'r', 00H, 'e', 00H, 'r', 00H, 00H, 00H ; `string'
CONST	ENDS
;	COMDAT ??_C@_0N@OEHGEODD@g_BoneMatrix?$AA@
CONST	SEGMENT
??_C@_0N@OEHGEODD@g_BoneMatrix?$AA@ DB 'g_BoneMatrix', 00H ; `string'
CONST	ENDS
;	COMDAT ??_C@_0BB@FMIBAICL@g_DiffuseTexture?$AA@
CONST	SEGMENT
??_C@_0BB@FMIBAICL@g_DiffuseTexture?$AA@ DB 'g_DiffuseTexture', 00H ; `string'
CONST	ENDS
;	COMDAT ??_C@_07ICGMBDOO@Cheek01?$AA@
CONST	SEGMENT
??_C@_07ICGMBDOO@Cheek01?$AA@ DB 'Cheek01', 00H		; `string'
CONST	ENDS
;	COMDAT ??_C@_05KKFOKGIE@Cheek?$AA@
CONST	SEGMENT
??_C@_05KKFOKGIE@Cheek?$AA@ DB 'Cheek', 00H		; `string'
CONST	ENDS
;	COMDAT ??_C@_06HFDDOAAP@Bip001?$AA@
CONST	SEGMENT
??_C@_06HFDDOAAP@Bip001?$AA@ DB 'Bip001', 00H		; `string'
CONST	ENDS
;	COMDAT ??_C@_0L@KMOGLACE@BulletCase?$AA@
CONST	SEGMENT
??_C@_0L@KMOGLACE@BulletCase?$AA@ DB 'BulletCase', 00H	; `string'
CONST	ENDS
;	COMDAT ??_C@_0N@EDEIEADG@Bip001Pelvis?$AA@
CONST	SEGMENT
??_C@_0N@EDEIEADG@Bip001Pelvis?$AA@ DB 'Bip001Pelvis', 00H ; `string'
CONST	ENDS
;	COMDAT ??_C@_1BM@CJMPMHDD@?$AAc?$AAo?$AAm?$AA_?$AAt?$AAr?$AAa?$AAn?$AAs?$AAf?$AAo?$AAr?$AAm?$AA?$AA@
CONST	SEGMENT
??_C@_1BM@CJMPMHDD@?$AAc?$AAo?$AAm?$AA_?$AAt?$AAr?$AAa?$AAn?$AAs?$AAf?$AAo?$AAr?$AAm?$AA?$AA@ DB 'c'
	DB	00H, 'o', 00H, 'm', 00H, '_', 00H, 't', 00H, 'r', 00H, 'a', 00H
	DB	'n', 00H, 's', 00H, 'f', 00H, 'o', 00H, 'r', 00H, 'm', 00H, 00H
	DB	00H						; `string'
CONST	ENDS
;	COMDAT ??_7CEnemy@Client@@6BIOnCollisionExit@Engine@@@
CONST	SEGMENT
??_7CEnemy@Client@@6BIOnCollisionExit@Engine@@@ DQ FLAT:??_R4CEnemy@Client@@6BIOnCollisionExit@Engine@@@ ; Client::CEnemy::`vftable'
	DQ	FLAT:?OnCollisionExit@CEnemy@Client@@UEAAXPEAVCCollider@Engine@@0@Z
CONST	ENDS
;	COMDAT ??_7CEnemy@Client@@6BIOnCollisionStay@Engine@@@
CONST	SEGMENT
??_7CEnemy@Client@@6BIOnCollisionStay@Engine@@@ DQ FLAT:??_R4CEnemy@Client@@6BIOnCollisionStay@Engine@@@ ; Client::CEnemy::`vftable'
	DQ	FLAT:?OnCollisionStay@CEnemy@Client@@UEAAXPEAVCCollider@Engine@@0@Z
CONST	ENDS
;	COMDAT ??_7CEnemy@Client@@6BIOnCollisionEnter@Engine@@@
CONST	SEGMENT
??_7CEnemy@Client@@6BIOnCollisionEnter@Engine@@@ DQ FLAT:??_R4CEnemy@Client@@6BIOnCollisionEnter@Engine@@@ ; Client::CEnemy::`vftable'
	DQ	FLAT:?OnCollisionEnter@CEnemy@Client@@UEAAXPEAVCCollider@Engine@@0@Z
CONST	ENDS
;	COMDAT ??_7CEnemy@Client@@6BCGameObject@Engine@@@
CONST	SEGMENT
??_7CEnemy@Client@@6BCGameObject@Engine@@@ DQ FLAT:??_R4CEnemy@Client@@6BCGameObject@Engine@@@ ; Client::CEnemy::`vftable'
	DQ	FLAT:??_ECEnemy@Client@@UEAAPEAXI@Z
	DQ	FLAT:?Free@CEnemy@Client@@UEAAXXZ
	DQ	FLAT:?Initialize_Prototype@CGameObject@Engine@@UEAAJXZ
	DQ	FLAT:?Initialize@CEnemy@Client@@UEAAJPEAX@Z
	DQ	FLAT:?Tick@CEnemy@Client@@UEAAXN@Z
	DQ	FLAT:?LateTick@CEnemy@Client@@UEAAXN@Z
	DQ	FLAT:?Render@CEnemy@Client@@UEAAJXZ
	DQ	FLAT:?RenderGUI@CEnemy@Client@@UEAAXXZ
	DQ	FLAT:?Clone@CEnemy@Client@@UEAAPEAVCGameObject@Engine@@PEAX@Z
	DQ	FLAT:?Initialize_Prototype@CEnemy@Client@@UEAAJW4TYPE@12@@Z
CONST	ENDS
;	COMDAT ?__LINE__Var@?0??XMStoreFloat4x4@DirectX@@YQXPEAUXMFLOAT4X4@2@UXMMATRIX@2@@Z@4JA
_DATA	SEGMENT
?__LINE__Var@?0??XMStoreFloat4x4@DirectX@@YQXPEAUXMFLOAT4X4@2@UXMMATRIX@2@@Z@4JA DD 071aH ; `DirectX::XMStoreFloat4x4'::`1'::__LINE__Var
_DATA	ENDS
;	COMDAT ?__LINE__Var@?0??XMStoreFloat4@DirectX@@YQXPEAUXMFLOAT4@2@T__m128@@@Z@4JA
_DATA	SEGMENT
?__LINE__Var@?0??XMStoreFloat4@DirectX@@YQXPEAUXMFLOAT4@2@T__m128@@@Z@4JA DD 0602H ; `DirectX::XMStoreFloat4'::`1'::__LINE__Var
_DATA	ENDS
;	COMDAT ?__LINE__Var@?0??XMStoreFloat3@DirectX@@YQXPEAUXMFLOAT3@2@T__m128@@@Z@4JA
_DATA	SEGMENT
?__LINE__Var@?0??XMStoreFloat3@DirectX@@YQXPEAUXMFLOAT3@2@T__m128@@@Z@4JA DD 0553H ; `DirectX::XMStoreFloat3'::`1'::__LINE__Var
_DATA	ENDS
;	COMDAT ??_C@_1BK@FHLBGAOP@?$AAp?$AAD?$AAe?$AAs?$AAt?$AAi?$AAn?$AAa?$AAt?$AAi?$AAo?$AAn?$AA?$AA@
CONST	SEGMENT
??_C@_1BK@FHLBGAOP@?$AAp?$AAD?$AAe?$AAs?$AAt?$AAi?$AAn?$AAa?$AAt?$AAi?$AAo?$AAn?$AA?$AA@ DB 'p'
	DB	00H, 'D', 00H, 'e', 00H, 's', 00H, 't', 00H, 'i', 00H, 'n', 00H
	DB	'a', 00H, 't', 00H, 'i', 00H, 'o', 00H, 'n', 00H, 00H, 00H ; `string'
CONST	ENDS
;	COMDAT ?__LINE__Var@?0??XMLoadFloat4x4@DirectX@@YQ?AUXMMATRIX@2@PEBUXMFLOAT4X4@2@@Z@4JA
_DATA	SEGMENT
?__LINE__Var@?0??XMLoadFloat4x4@DirectX@@YQ?AUXMMATRIX@2@PEBUXMFLOAT4X4@2@@Z@4JA DD 03f5H ; `DirectX::XMLoadFloat4x4'::`1'::__LINE__Var
_DATA	ENDS
;	COMDAT ?__LINE__Var@?0??XMLoadFloat4@DirectX@@YQ?AT__m128@@PEBUXMFLOAT4@2@@Z@4JA
_DATA	SEGMENT
?__LINE__Var@?0??XMLoadFloat4@DirectX@@YQ?AT__m128@@PEBUXMFLOAT4@2@@Z@4JA DD 02a8H ; `DirectX::XMLoadFloat4'::`1'::__LINE__Var
_DATA	ENDS
;	COMDAT ?__LINE__Var@?0??XMLoadFloat3@DirectX@@YQ?AT__m128@@PEBUXMFLOAT3@2@@Z@4JA
_DATA	SEGMENT
?__LINE__Var@?0??XMLoadFloat3@DirectX@@YQ?AT__m128@@PEBUXMFLOAT3@2@@Z@4JA DD 01f3H ; `DirectX::XMLoadFloat3'::`1'::__LINE__Var
_DATA	ENDS
;	COMDAT ??_C@_1BA@LBADLIHI@?$AAp?$AAS?$AAo?$AAu?$AAr?$AAc?$AAe?$AA?$AA@
CONST	SEGMENT
??_C@_1BA@LBADLIHI@?$AAp?$AAS?$AAo?$AAu?$AAr?$AAc?$AAe?$AA?$AA@ DB 'p', 00H
	DB	'S', 00H, 'o', 00H, 'u', 00H, 'r', 00H, 'c', 00H, 'e', 00H, 00H
	DB	00H						; `string'
CONST	ENDS
;	COMDAT ??_C@_1JE@DMOBBMDE@?$AAc?$AA?3?$AA?2?$AAp?$AAr?$AAo?$AAg?$AAr?$AAa?$AAm?$AA?5?$AAf?$AAi?$AAl?$AAe?$AAs?$AA?5?$AA?$CI?$AAx?$AA8?$AA6?$AA?$CJ?$AA?2?$AAw?$AAi?$AAn?$AAd?$AAo?$AAw?$AAs?$AA?5?$AAk@
CONST	SEGMENT
??_C@_1JE@DMOBBMDE@?$AAc?$AA?3?$AA?2?$AAp?$AAr?$AAo?$AAg?$AAr?$AAa?$AAm?$AA?5?$AAf?$AAi?$AAl?$AAe?$AAs?$AA?5?$AA?$CI?$AAx?$AA8?$AA6?$AA?$CJ?$AA?2?$AAw?$AAi?$AAn?$AAd?$AAo?$AAw?$AAs?$AA?5?$AAk@ DB 'c'
	DB	00H, ':', 00H, '\', 00H, 'p', 00H, 'r', 00H, 'o', 00H, 'g', 00H
	DB	'r', 00H, 'a', 00H, 'm', 00H, ' ', 00H, 'f', 00H, 'i', 00H, 'l'
	DB	00H, 'e', 00H, 's', 00H, ' ', 00H, '(', 00H, 'x', 00H, '8', 00H
	DB	'6', 00H, ')', 00H, '\', 00H, 'w', 00H, 'i', 00H, 'n', 00H, 'd'
	DB	00H, 'o', 00H, 'w', 00H, 's', 00H, ' ', 00H, 'k', 00H, 'i', 00H
	DB	't', 00H, 's', 00H, '\', 00H, '8', 00H, '.', 00H, '1', 00H, '\'
	DB	00H, 'i', 00H, 'n', 00H, 'c', 00H, 'l', 00H, 'u', 00H, 'd', 00H
	DB	'e', 00H, '\', 00H, 'u', 00H, 'm', 00H, '\', 00H, 'd', 00H, 'i'
	DB	00H, 'r', 00H, 'e', 00H, 'c', 00H, 't', 00H, 'x', 00H, 'm', 00H
	DB	'a', 00H, 't', 00H, 'h', 00H, 'c', 00H, 'o', 00H, 'n', 00H, 'v'
	DB	00H, 'e', 00H, 'r', 00H, 't', 00H, '.', 00H, 'i', 00H, 'n', 00H
	DB	'l', 00H, 00H, 00H				; `string'
CONST	ENDS
;	COMDAT xdata
xdata	SEGMENT
$unwind$??$Safe_Release@PEAVCCollider@Engine@@@Engine@@YAKAEAPEAVCCollider@0@@Z DD 025052a01H
	DD	010e2313H
	DD	070070021H
	DD	05006H
xdata	ENDS
;	COMDAT xdata
xdata	SEGMENT
$unwind$??$Safe_Release@PEAVCShader@Engine@@@Engine@@YAKAEAPEAVCShader@0@@Z DD 025052a01H
	DD	010e2313H
	DD	070070021H
	DD	05006H
xdata	ENDS
;	COMDAT xdata
xdata	SEGMENT
$unwind$??$Safe_Release@PEAVCModel@Engine@@@Engine@@YAKAEAPEAVCModel@0@@Z DD 025052a01H
	DD	010e2313H
	DD	070070021H
	DD	05006H
xdata	ENDS
;	COMDAT xdata
xdata	SEGMENT
$unwind$??$Safe_Release@PEAVCTransform@Engine@@@Engine@@YAKAEAPEAVCTransform@0@@Z DD 025052a01H
	DD	010e2313H
	DD	070070021H
	DD	05006H
xdata	ENDS
;	COMDAT xdata
xdata	SEGMENT
$unwind$??$Safe_Release@PEAVCRenderer@Engine@@@Engine@@YAKAEAPEAVCRenderer@0@@Z DD 025052a01H
	DD	010e2313H
	DD	070070021H
	DD	05006H
xdata	ENDS
;	COMDAT xdata
xdata	SEGMENT
$unwind$??$Safe_Release@PEAVCEnemy@Client@@@Engine@@YAKAEAPEAVCEnemy@Client@@@Z DD 025052a01H
	DD	010e2313H
	DD	070070021H
	DD	05006H
xdata	ENDS
;	COMDAT xdata
xdata	SEGMENT
$unwind$??$isnan@M@@YA_NM@Z DD 025052301H
	DD	010f2314H
	DD	07008001fH
	DD	05007H
xdata	ENDS
;	COMDAT xdata
xdata	SEGMENT
$unwind$?GetCombinedMatrix@CBone@Engine@@QEBA?AUXMFLOAT4X4@DirectX@@XZ DD 05062e01H
	DD	01140317H
	DD	0700d0018H
	DD	0500b600cH
xdata	ENDS
;	COMDAT xdata
xdata	SEGMENT
$unwind$?GetOffSetMatrix@CBone@Engine@@QEBA?AUXMFLOAT4X4@DirectX@@XZ DD 05062e01H
	DD	01140317H
	DD	0700d0018H
	DD	0500b600cH
xdata	ENDS
;	COMDAT xdata
xdata	SEGMENT
$unwind$?GetEnemyCheckCollider@CCharacter@Client@@QEBAPEAVCCollider@Engine@@XZ DD 05052801H
	DD	010e0311H
	DD	070070019H
	DD	05006H
xdata	ENDS
;	COMDAT xdata
xdata	SEGMENT
$unwind$?GetWeaponCollider@CCharacter@Client@@QEBAPEAVCCollider@Engine@@XZ DD 05052801H
	DD	010e0311H
	DD	070070019H
	DD	05006H
xdata	ENDS
;	COMDAT xdata
xdata	SEGMENT
$unwind$?GetBodyCollider@CCharacter@Client@@QEBAPEAVCCollider@Engine@@XZ DD 05052801H
	DD	010e0311H
	DD	070070019H
	DD	05006H
xdata	ENDS
;	COMDAT xdata
xdata	SEGMENT
$unwind$?AddCombo@CCharacter@Client@@QEAAXXZ DD 05052801H
	DD	010e0311H
	DD	070070019H
	DD	05006H
xdata	ENDS
;	COMDAT xdata
xdata	SEGMENT
$unwind$?ResetComboTime@CCharacter@Client@@QEAAXXZ DD 05052801H
	DD	010e0311H
	DD	070070019H
	DD	05006H
xdata	ENDS
;	COMDAT xdata
xdata	SEGMENT
$unwind$?GetCollider@CPlayerCamera@Client@@QEAAPEAVCCollider@Engine@@XZ DD 05052801H
	DD	010e0311H
	DD	070070019H
	DD	05006H
xdata	ENDS
;	COMDAT xdata
xdata	SEGMENT
$unwind$?SetHitFreeze@CApplicationManager@Client@@QEAAX_N@Z DD 05052c01H
	DD	01120315H
	DD	0700b0019H
	DD	0500aH
xdata	ENDS
;	COMDAT xdata
xdata	SEGMENT
$unwind$?IsFreeze@CApplicationManager@Client@@QEBA_NXZ DD 05052801H
	DD	010e0311H
	DD	070070019H
	DD	05006H
xdata	ENDS
;	COMDAT xdata
xdata	SEGMENT
$unwind$??_GCEnemy@Client@@UEAAPEAXI@Z DD 025052e01H
	DD	01122317H
	DD	0700b001dH
	DD	0500aH
xdata	ENDS
;	COMDAT xdata
xdata	SEGMENT
$unwind$?Free@CEnemy@Client@@UEAAXXZ DD 025052a01H
	DD	010e2313H
	DD	07007001dH
	DD	05006H
xdata	ENDS
;	COMDAT xdata
xdata	SEGMENT
$unwind$?dtor$0@?0??Clone@CEnemy@Client@@UEAAPEAVCGameObject@Engine@@PEAX@Z@4HA DD 031001H
	DD	0700c4210H
	DD	0500bH
xdata	ENDS
;	COMDAT xdata
xdata	SEGMENT
$ip2state$?Clone@CEnemy@Client@@UEAAPEAVCGameObject@Engine@@PEAX@Z DD imagerel ?Clone@CEnemy@Client@@UEAAPEAVCGameObject@Engine@@PEAX@Z
	DD	0ffffffffH
	DD	imagerel ?Clone@CEnemy@Client@@UEAAPEAVCGameObject@Engine@@PEAX@Z+115
	DD	00H
	DD	imagerel ?Clone@CEnemy@Client@@UEAAPEAVCGameObject@Engine@@PEAX@Z+178
	DD	0ffffffffH
xdata	ENDS
;	COMDAT xdata
xdata	SEGMENT
$stateUnwindMap$?Clone@CEnemy@Client@@UEAAPEAVCGameObject@Engine@@PEAX@Z DD 0ffffffffH
	DD	imagerel ?dtor$0@?0??Clone@CEnemy@Client@@UEAAPEAVCGameObject@Engine@@PEAX@Z@4HA
xdata	ENDS
;	COMDAT xdata
xdata	SEGMENT
$unwind$?Clone@CEnemy@Client@@UEAAPEAVCGameObject@Engine@@PEAX@Z DD 025054b19H
	DD	01132318H
	DD	0700c002fH
	DD	0500bH
	DD	imagerel __GSHandlerCheck_EH
	DD	imagerel $cppxdata$?Clone@CEnemy@Client@@UEAAPEAVCGameObject@Engine@@PEAX@Z
	DD	0162H
xdata	ENDS
;	COMDAT CONST
CONST	SEGMENT
?Clone@CEnemy@Client@@UEAAPEAVCGameObject@Engine@@PEAX@Z$rtcName$0 DB 070H ; Client::CEnemy::Clone
	DB	049H
	DB	06eH
	DB	073H
	DB	074H
	DB	061H
	DB	06eH
	DB	063H
	DB	065H
	DB	00H
	ORG $+6
?Clone@CEnemy@Client@@UEAAPEAVCGameObject@Engine@@PEAX@Z$rtcVarDesc DD 028H ; Client::CEnemy::Clone
	DD	08H
	DQ	FLAT:?Clone@CEnemy@Client@@UEAAPEAVCGameObject@Engine@@PEAX@Z$rtcName$0
	ORG $+48
?Clone@CEnemy@Client@@UEAAPEAVCGameObject@Engine@@PEAX@Z$rtcFrameData DD 01H ; Client::CEnemy::Clone
	DD	00H
	DQ	FLAT:?Clone@CEnemy@Client@@UEAAPEAVCGameObject@Engine@@PEAX@Z$rtcVarDesc
$cppxdata$?Clone@CEnemy@Client@@UEAAPEAVCGameObject@Engine@@PEAX@Z DD 019930522H
	DD	01H
	DD	imagerel $stateUnwindMap$?Clone@CEnemy@Client@@UEAAPEAVCGameObject@Engine@@PEAX@Z
	DD	00H
	DD	00H
	DD	03H
	DD	imagerel $ip2state$?Clone@CEnemy@Client@@UEAAPEAVCGameObject@Engine@@PEAX@Z
	DD	0148H
	DD	00H
	DD	01H
CONST	ENDS
;	COMDAT xdata
xdata	SEGMENT
$unwind$?dtor$0@?0??Create@CEnemy@Client@@SAPEAV12@PEAUID3D11Device@@PEAUID3D11DeviceContext@@W4TYPE@12@@Z@4HA DD 031001H
	DD	0700c4210H
	DD	0500bH
xdata	ENDS
;	COMDAT xdata
xdata	SEGMENT
$ip2state$?Create@CEnemy@Client@@SAPEAV12@PEAUID3D11Device@@PEAUID3D11DeviceContext@@W4TYPE@12@@Z DD imagerel ?Create@CEnemy@Client@@SAPEAV12@PEAUID3D11Device@@PEAUID3D11DeviceContext@@W4TYPE@12@@Z
	DD	0ffffffffH
	DD	imagerel ?Create@CEnemy@Client@@SAPEAV12@PEAUID3D11Device@@PEAUID3D11DeviceContext@@W4TYPE@12@@Z+120
	DD	00H
	DD	imagerel ?Create@CEnemy@Client@@SAPEAV12@PEAUID3D11Device@@PEAUID3D11DeviceContext@@W4TYPE@12@@Z+190
	DD	0ffffffffH
xdata	ENDS
;	COMDAT xdata
xdata	SEGMENT
$stateUnwindMap$?Create@CEnemy@Client@@SAPEAV12@PEAUID3D11Device@@PEAUID3D11DeviceContext@@W4TYPE@12@@Z DD 0ffffffffH
	DD	imagerel ?dtor$0@?0??Create@CEnemy@Client@@SAPEAV12@PEAUID3D11Device@@PEAUID3D11DeviceContext@@W4TYPE@12@@Z@4HA
xdata	ENDS
;	COMDAT xdata
xdata	SEGMENT
$unwind$?Create@CEnemy@Client@@SAPEAV12@PEAUID3D11Device@@PEAUID3D11DeviceContext@@W4TYPE@12@@Z DD 025055019H
	DD	0118231dH
	DD	07011002fH
	DD	05010H
	DD	imagerel __GSHandlerCheck_EH
	DD	imagerel $cppxdata$?Create@CEnemy@Client@@SAPEAV12@PEAUID3D11Device@@PEAUID3D11DeviceContext@@W4TYPE@12@@Z
	DD	0162H
xdata	ENDS
;	COMDAT CONST
CONST	SEGMENT
?Create@CEnemy@Client@@SAPEAV12@PEAUID3D11Device@@PEAUID3D11DeviceContext@@W4TYPE@12@@Z$rtcName$0 DB 070H ; Client::CEnemy::Create
	DB	049H
	DB	06eH
	DB	073H
	DB	074H
	DB	061H
	DB	06eH
	DB	063H
	DB	065H
	DB	00H
	ORG $+6
?Create@CEnemy@Client@@SAPEAV12@PEAUID3D11Device@@PEAUID3D11DeviceContext@@W4TYPE@12@@Z$rtcVarDesc DD 028H ; Client::CEnemy::Create
	DD	08H
	DQ	FLAT:?Create@CEnemy@Client@@SAPEAV12@PEAUID3D11Device@@PEAUID3D11DeviceContext@@W4TYPE@12@@Z$rtcName$0
	ORG $+48
?Create@CEnemy@Client@@SAPEAV12@PEAUID3D11Device@@PEAUID3D11DeviceContext@@W4TYPE@12@@Z$rtcFrameData DD 01H ; Client::CEnemy::Create
	DD	00H
	DQ	FLAT:?Create@CEnemy@Client@@SAPEAV12@PEAUID3D11Device@@PEAUID3D11DeviceContext@@W4TYPE@12@@Z$rtcVarDesc
$cppxdata$?Create@CEnemy@Client@@SAPEAV12@PEAUID3D11Device@@PEAUID3D11DeviceContext@@W4TYPE@12@@Z DD 019930522H
	DD	01H
	DD	imagerel $stateUnwindMap$?Create@CEnemy@Client@@SAPEAV12@PEAUID3D11Device@@PEAUID3D11DeviceContext@@W4TYPE@12@@Z
	DD	00H
	DD	00H
	DD	03H
	DD	imagerel $ip2state$?Create@CEnemy@Client@@SAPEAV12@PEAUID3D11Device@@PEAUID3D11DeviceContext@@W4TYPE@12@@Z
	DD	0148H
	DD	00H
	DD	01H
CONST	ENDS
;	COMDAT xdata
xdata	SEGMENT
$unwind$?OnCollisionExit@CEnemy@Client@@UEAAXPEAVCCollider@Engine@@0@Z DD 05053201H
	DD	0118031bH
	DD	070110019H
	DD	05010H
xdata	ENDS
;	COMDAT xdata
xdata	SEGMENT
$unwind$?OnCollisionStay@CEnemy@Client@@UEAAXPEAVCCollider@Engine@@0@Z DD 035053401H
	DD	0118331dH
	DD	070110023H
	DD	05010H
xdata	ENDS
;	COMDAT xdata
xdata	SEGMENT
$unwind$?OnCollisionEnter@CEnemy@Client@@UEAAXPEAVCCollider@Engine@@0@Z DD 035064619H
	DD	0119331eH
	DD	0701200f2H
	DD	050106011H
	DD	imagerel __GSHandlerCheck
	DD	0788H
xdata	ENDS
;	COMDAT CONST
CONST	SEGMENT
?OnCollisionEnter@CEnemy@Client@@UEAAXPEAVCCollider@Engine@@0@Z$rtcName$0 DB 076H ; Client::CEnemy::OnCollisionEnter
	DB	053H
	DB	072H
	DB	063H
	DB	044H
	DB	069H
	DB	072H
	DB	00H
	ORG $+8
?OnCollisionEnter@CEnemy@Client@@UEAAXPEAVCCollider@Engine@@0@Z$rtcVarDesc DD 078H ; Client::CEnemy::OnCollisionEnter
	DD	0cH
	DQ	FLAT:?OnCollisionEnter@CEnemy@Client@@UEAAXPEAVCCollider@Engine@@0@Z$rtcName$0
	ORG $+48
?OnCollisionEnter@CEnemy@Client@@UEAAXPEAVCCollider@Engine@@0@Z$rtcFrameData DD 01H ; Client::CEnemy::OnCollisionEnter
	DD	00H
	DQ	FLAT:?OnCollisionEnter@CEnemy@Client@@UEAAXPEAVCCollider@Engine@@0@Z$rtcVarDesc
CONST	ENDS
;	COMDAT xdata
xdata	SEGMENT
$unwind$?AnimationState@CEnemy@Client@@AEAAXN@Z DD 025054119H
	DD	01142319H
	DD	0700d004bH
	DD	0500cH
	DD	imagerel __GSHandlerCheck
	DD	0248H
xdata	ENDS
;	COMDAT CONST
CONST	SEGMENT
?AnimationState@CEnemy@Client@@AEAAXN@Z$rtcName$0 DB 076H ; Client::CEnemy::AnimationState
	DB	050H
	DB	06cH
	DB	061H
	DB	079H
	DB	065H
	DB	072H
	DB	050H
	DB	06fH
	DB	073H
	DB	00H
	ORG $+5
?AnimationState@CEnemy@Client@@AEAAXN@Z$rtcName$1 DB 076H ; Client::CEnemy::AnimationState
	DB	050H
	DB	06fH
	DB	073H
	DB	069H
	DB	074H
	DB	069H
	DB	06fH
	DB	06eH
	DB	00H
	ORG $+6
?AnimationState@CEnemy@Client@@AEAAXN@Z$rtcVarDesc DD 060H ; Client::CEnemy::AnimationState
	DD	010H
	DQ	FLAT:?AnimationState@CEnemy@Client@@AEAAXN@Z$rtcName$1
	DD	030H
	DD	010H
	DQ	FLAT:?AnimationState@CEnemy@Client@@AEAAXN@Z$rtcName$0
	ORG $+96
?AnimationState@CEnemy@Client@@AEAAXN@Z$rtcFrameData DD 02H ; Client::CEnemy::AnimationState
	DD	00H
	DQ	FLAT:?AnimationState@CEnemy@Client@@AEAAXN@Z$rtcVarDesc
CONST	ENDS
;	COMDAT xdata
xdata	SEGMENT
$unwind$?Freeze@CEnemy@Client@@AEAANN@Z DD 035053001H
	DD	01143319H
	DD	0700d0037H
	DD	0500cH
xdata	ENDS
;	COMDAT xdata
xdata	SEGMENT
$unwind$?Die@CEnemy@Client@@AEAAXN@Z DD 025053001H
	DD	01142319H
	DD	0700d0021H
	DD	0500cH
xdata	ENDS
;	COMDAT xdata
xdata	SEGMENT
$unwind$?DieCheck@CEnemy@Client@@AEAA_NXZ DD 05052801H
	DD	010e0311H
	DD	070070019H
	DD	05006H
xdata	ENDS
;	COMDAT xdata
xdata	SEGMENT
$unwind$?Holding@CEnemy@Client@@AEAAXN@Z DD 05052e01H
	DD	01140317H
	DD	0700d0019H
	DD	0500cH
xdata	ENDS
;	COMDAT xdata
xdata	SEGMENT
$unwind$?Airborne@CEnemy@Client@@AEAAXN@Z DD 025053001H
	DD	01142319H
	DD	0700d001dH
	DD	0500cH
xdata	ENDS
;	COMDAT xdata
xdata	SEGMENT
$unwind$?NuckBack@CEnemy@Client@@AEAAXN@Z DD 025054119H
	DD	01142319H
	DD	0700d0059H
	DD	0500cH
	DD	imagerel __GSHandlerCheck
	DD	02b8H
xdata	ENDS
;	COMDAT CONST
CONST	SEGMENT
?NuckBack@CEnemy@Client@@AEAAXN@Z$rtcName$0 DB 076H	; Client::CEnemy::NuckBack
	DB	050H
	DB	06cH
	DB	061H
	DB	079H
	DB	065H
	DB	072H
	DB	050H
	DB	06fH
	DB	073H
	DB	00H
	ORG $+5
?NuckBack@CEnemy@Client@@AEAAXN@Z$rtcName$1 DB 076H	; Client::CEnemy::NuckBack
	DB	043H
	DB	075H
	DB	072H
	DB	072H
	DB	065H
	DB	06eH
	DB	074H
	DB	050H
	DB	06fH
	DB	073H
	DB	00H
	ORG $+4
?NuckBack@CEnemy@Client@@AEAAXN@Z$rtcVarDesc DD 060H	; Client::CEnemy::NuckBack
	DD	010H
	DQ	FLAT:?NuckBack@CEnemy@Client@@AEAAXN@Z$rtcName$1
	DD	030H
	DD	010H
	DQ	FLAT:?NuckBack@CEnemy@Client@@AEAAXN@Z$rtcName$0
	ORG $+96
?NuckBack@CEnemy@Client@@AEAAXN@Z$rtcFrameData DD 02H	; Client::CEnemy::NuckBack
	DD	00H
	DQ	FLAT:?NuckBack@CEnemy@Client@@AEAAXN@Z$rtcVarDesc
CONST	ENDS
;	COMDAT xdata
xdata	SEGMENT
$unwind$?Hit@CEnemy@Client@@AEAA_NN@Z DD 025053001H
	DD	01142319H
	DD	0700d0021H
	DD	0500cH
xdata	ENDS
;	COMDAT xdata
xdata	SEGMENT
$unwind$?Idle@CEnemy@Client@@AEAAXN@Z DD 025053001H
	DD	01142319H
	DD	0700d001dH
	DD	0500cH
xdata	ENDS
;	COMDAT xdata
xdata	SEGMENT
$unwind$?Attack@CEnemy@Client@@AEAAXN@Z DD 025053001H
	DD	01142319H
	DD	0700d001dH
	DD	0500cH
xdata	ENDS
;	COMDAT xdata
xdata	SEGMENT
$unwind$?Trace@CEnemy@Client@@AEAAXN@Z DD 025054119H
	DD	01142319H
	DD	0700d0029H
	DD	0500cH
	DD	imagerel __GSHandlerCheck
	DD	0138H
xdata	ENDS
;	COMDAT CONST
CONST	SEGMENT
?Trace@CEnemy@Client@@AEAAXN@Z$rtcName$0 DB 076H	; Client::CEnemy::Trace
	DB	050H
	DB	06cH
	DB	061H
	DB	079H
	DB	065H
	DB	072H
	DB	050H
	DB	06fH
	DB	073H
	DB	00H
	ORG $+5
?Trace@CEnemy@Client@@AEAAXN@Z$rtcVarDesc DD 030H	; Client::CEnemy::Trace
	DD	010H
	DQ	FLAT:?Trace@CEnemy@Client@@AEAAXN@Z$rtcName$0
	ORG $+48
?Trace@CEnemy@Client@@AEAAXN@Z$rtcFrameData DD 01H	; Client::CEnemy::Trace
	DD	00H
	DQ	FLAT:?Trace@CEnemy@Client@@AEAAXN@Z$rtcVarDesc
CONST	ENDS
;	COMDAT xdata
xdata	SEGMENT
$unwind$?LookPlayer@CEnemy@Client@@AEAAXN@Z DD 025054119H
	DD	01142319H
	DD	0700d00d3H
	DD	0500cH
	DD	imagerel __GSHandlerCheck
	DD	0688H
xdata	ENDS
;	COMDAT CONST
CONST	SEGMENT
?LookPlayer@CEnemy@Client@@AEAAXN@Z$rtcName$0 DB 076H	; Client::CEnemy::LookPlayer
	DB	050H
	DB	06cH
	DB	061H
	DB	079H
	DB	065H
	DB	072H
	DB	050H
	DB	06fH
	DB	073H
	DB	00H
	ORG $+5
?LookPlayer@CEnemy@Client@@AEAAXN@Z$rtcName$1 DB 076H	; Client::CEnemy::LookPlayer
	DB	050H
	DB	06fH
	DB	073H
	DB	069H
	DB	074H
	DB	069H
	DB	06fH
	DB	06eH
	DB	00H
	ORG $+6
?LookPlayer@CEnemy@Client@@AEAAXN@Z$rtcVarDesc DD 060H	; Client::CEnemy::LookPlayer
	DD	010H
	DQ	FLAT:?LookPlayer@CEnemy@Client@@AEAAXN@Z$rtcName$1
	DD	030H
	DD	010H
	DQ	FLAT:?LookPlayer@CEnemy@Client@@AEAAXN@Z$rtcName$0
	ORG $+96
?LookPlayer@CEnemy@Client@@AEAAXN@Z$rtcFrameData DD 02H	; Client::CEnemy::LookPlayer
	DD	00H
	DQ	FLAT:?LookPlayer@CEnemy@Client@@AEAAXN@Z$rtcVarDesc
CONST	ENDS
;	COMDAT xdata
xdata	SEGMENT
$unwind$?OverlapProcess@CEnemy@Client@@AEAAXN@Z DD 025053001H
	DD	01142319H
	DD	0700d00d9H
	DD	0500cH
xdata	ENDS
;	COMDAT xdata
xdata	SEGMENT
$unwind$?SetupShaderResources@CEnemy@Client@@AEAAJXZ DD 025052a01H
	DD	010e2313H
	DD	070070043H
	DD	05006H
xdata	ENDS
;	COMDAT xdata
xdata	SEGMENT
$unwind$?AddComponents@CEnemy@Client@@AEAAJXZ DD 035053b19H
	DD	010e3313H
	DD	070070051H
	DD	05006H
	DD	imagerel __GSHandlerCheck
	DD	0278H
xdata	ENDS
;	COMDAT CONST
CONST	SEGMENT
?AddComponents@CEnemy@Client@@AEAAJXZ$rtcName$0 DB 054H	; Client::CEnemy::AddComponents
	DB	072H
	DB	061H
	DB	06eH
	DB	073H
	DB	066H
	DB	06fH
	DB	072H
	DB	06dH
	DB	044H
	DB	065H
	DB	073H
	DB	063H
	DB	00H
	ORG $+2
?AddComponents@CEnemy@Client@@AEAAJXZ$rtcName$1 DB 063H	; Client::CEnemy::AddComponents
	DB	06fH
	DB	06cH
	DB	06cH
	DB	044H
	DB	065H
	DB	073H
	DB	063H
	DB	00H
	ORG $+7
?AddComponents@CEnemy@Client@@AEAAJXZ$rtcVarDesc DD 058H ; Client::CEnemy::AddComponents
	DD	030H
	DQ	FLAT:?AddComponents@CEnemy@Client@@AEAAJXZ$rtcName$1
	DD	038H
	DD	08H
	DQ	FLAT:?AddComponents@CEnemy@Client@@AEAAJXZ$rtcName$0
	ORG $+96
?AddComponents@CEnemy@Client@@AEAAJXZ$rtcFrameData DD 02H ; Client::CEnemy::AddComponents
	DD	00H
	DQ	FLAT:?AddComponents@CEnemy@Client@@AEAAJXZ$rtcVarDesc
CONST	ENDS
;	COMDAT xdata
xdata	SEGMENT
$unwind$?RecvDamage@CEnemy@Client@@QEAAXM@Z DD 025053001H
	DD	01142319H
	DD	0700d0029H
	DD	0500cH
xdata	ENDS
;	COMDAT xdata
xdata	SEGMENT
$unwind$?SetAirborne@CEnemy@Client@@QEAAXM@Z DD 025053001H
	DD	01142319H
	DD	0700d001dH
	DD	0500cH
xdata	ENDS
;	COMDAT xdata
xdata	SEGMENT
$unwind$?SetNuckback@CEnemy@Client@@QEAAXM@Z DD 05052e01H
	DD	01140317H
	DD	0700d0019H
	DD	0500cH
xdata	ENDS
;	COMDAT xdata
xdata	SEGMENT
$unwind$?GetOverlapCollider@CEnemy@Client@@QEAAPEAVCCollider@Engine@@XZ DD 05052801H
	DD	010e0311H
	DD	070070019H
	DD	05006H
xdata	ENDS
;	COMDAT xdata
xdata	SEGMENT
$unwind$?GetRootBonePosition@CEnemy@Client@@QEAA?AT__m128@@XZ DD 025064119H
	DD	01142319H
	DD	0700d0040H
	DD	0500b600cH
	DD	imagerel __GSHandlerCheck
	DD	01f8H
xdata	ENDS
;	COMDAT CONST
CONST	SEGMENT
?GetRootBonePosition@CEnemy@Client@@QEAA?AT__m128@@XZ$rtcName$0 DB 042H ; Client::CEnemy::GetRootBonePosition
	DB	06fH
	DB	06eH
	DB	065H
	DB	04dH
	DB	061H
	DB	074H
	DB	072H
	DB	069H
	DB	078H
	DB	00H
	ORG $+5
?GetRootBonePosition@CEnemy@Client@@QEAA?AT__m128@@XZ$rtcVarDesc DD 030H ; Client::CEnemy::GetRootBonePosition
	DD	040H
	DQ	FLAT:?GetRootBonePosition@CEnemy@Client@@QEAA?AT__m128@@XZ$rtcName$0
	ORG $+48
?GetRootBonePosition@CEnemy@Client@@QEAA?AT__m128@@XZ$rtcFrameData DD 01H ; Client::CEnemy::GetRootBonePosition
	DD	00H
	DQ	FLAT:?GetRootBonePosition@CEnemy@Client@@QEAA?AT__m128@@XZ$rtcVarDesc
CONST	ENDS
;	COMDAT xdata
xdata	SEGMENT
$unwind$?SetPosition@CEnemy@Client@@QEAAXUXMFLOAT3@DirectX@@@Z DD 025052f01H
	DD	01132318H
	DD	0700c0029H
	DD	0500bH
xdata	ENDS
;	COMDAT xdata
xdata	SEGMENT
$unwind$?GetPosition@CEnemy@Client@@QEAA?AUXMFLOAT4@DirectX@@XZ DD 025064119H
	DD	01142319H
	DD	0700d0028H
	DD	0500b600cH
	DD	imagerel __GSHandlerCheck
	DD	0138H
xdata	ENDS
;	COMDAT CONST
CONST	SEGMENT
?GetPosition@CEnemy@Client@@QEAA?AUXMFLOAT4@DirectX@@XZ$rtcName$0 DB 076H ; Client::CEnemy::GetPosition
	DB	050H
	DB	06fH
	DB	073H
	DB	00H
	ORG $+11
?GetPosition@CEnemy@Client@@QEAA?AUXMFLOAT4@DirectX@@XZ$rtcVarDesc DD 028H ; Client::CEnemy::GetPosition
	DD	010H
	DQ	FLAT:?GetPosition@CEnemy@Client@@QEAA?AUXMFLOAT4@DirectX@@XZ$rtcName$0
	ORG $+48
?GetPosition@CEnemy@Client@@QEAA?AUXMFLOAT4@DirectX@@XZ$rtcFrameData DD 01H ; Client::CEnemy::GetPosition
	DD	00H
	DQ	FLAT:?GetPosition@CEnemy@Client@@QEAA?AUXMFLOAT4@DirectX@@XZ$rtcVarDesc
CONST	ENDS
;	COMDAT xdata
xdata	SEGMENT
$unwind$?SetOverlap@CEnemy@Client@@QEAAX_NUXMFLOAT3@DirectX@@@Z DD 025053301H
	DD	0117231cH
	DD	07010001dH
	DD	0500fH
xdata	ENDS
;	COMDAT xdata
xdata	SEGMENT
$unwind$?IsOverlap@CEnemy@Client@@QEBA_NXZ DD 05052801H
	DD	010e0311H
	DD	070070019H
	DD	05006H
xdata	ENDS
;	COMDAT xdata
xdata	SEGMENT
$unwind$?Reset@CEnemy@Client@@QEAAXXZ DD 025062b01H
	DD	010f2314H
	DD	07008002eH
	DD	050066007H
xdata	ENDS
;	COMDAT xdata
xdata	SEGMENT
$unwind$?GetWorldMatrix@CEnemy@Client@@QEAA?BUXMMATRIX@DirectX@@XZ DD 025063001H
	DD	01142319H
	DD	0700d0040H
	DD	0500b600cH
xdata	ENDS
;	COMDAT xdata
xdata	SEGMENT
$unwind$?RenderGUI@CEnemy@Client@@UEAAXXZ DD 05052801H
	DD	010e0311H
	DD	070070019H
	DD	05006H
xdata	ENDS
;	COMDAT xdata
xdata	SEGMENT
$unwind$?Render@CEnemy@Client@@UEAAJXZ DD 035052a01H
	DD	010e3313H
	DD	070070027H
	DD	05006H
xdata	ENDS
;	COMDAT xdata
xdata	SEGMENT
$unwind$?LateTick@CEnemy@Client@@UEAAXN@Z DD 035064819H
	DD	011b3320H
	DD	0700e020aH
	DD	0500c600dH
	DD	imagerel __GSHandlerCheck
	DD	01048H
xdata	ENDS
;	COMDAT CONST
CONST	SEGMENT
?LateTick@CEnemy@Client@@UEAAXN@Z$rtcName$0 DB 074H	; Client::CEnemy::LateTick
	DB	072H
	DB	061H
	DB	06eH
	DB	04dH
	DB	061H
	DB	074H
	DB	072H
	DB	069H
	DB	078H
	DB	00H
	ORG $+5
?LateTick@CEnemy@Client@@UEAAXN@Z$rtcName$1 DB 06fH	; Client::CEnemy::LateTick
	DB	076H
	DB	065H
	DB	072H
	DB	06cH
	DB	061H
	DB	070H
	DB	04dH
	DB	061H
	DB	074H
	DB	072H
	DB	069H
	DB	078H
	DB	00H
	ORG $+2
?LateTick@CEnemy@Client@@UEAAXN@Z$rtcVarDesc DD 0a0H	; Client::CEnemy::LateTick
	DD	040H
	DQ	FLAT:?LateTick@CEnemy@Client@@UEAAXN@Z$rtcName$1
	DD	040H
	DD	040H
	DQ	FLAT:?LateTick@CEnemy@Client@@UEAAXN@Z$rtcName$0
	ORG $+96
?LateTick@CEnemy@Client@@UEAAXN@Z$rtcFrameData DD 02H	; Client::CEnemy::LateTick
	DD	00H
	DQ	FLAT:?LateTick@CEnemy@Client@@UEAAXN@Z$rtcVarDesc
CONST	ENDS
;	COMDAT xdata
xdata	SEGMENT
$unwind$?Tick@CEnemy@Client@@UEAAXN@Z DD 025053001H
	DD	01142319H
	DD	0700d0021H
	DD	0500cH
xdata	ENDS
;	COMDAT xdata
xdata	SEGMENT
$unwind$?Initialize@CEnemy@Client@@UEAAJPEAX@Z DD 025063001H
	DD	01142319H
	DD	0700d014eH
	DD	0500b600cH
xdata	ENDS
;	COMDAT xdata
xdata	SEGMENT
$unwind$?Initialize_Prototype@CEnemy@Client@@UEAAJW4TYPE@12@@Z DD 025052e01H
	DD	01122317H
	DD	0700b001dH
	DD	0500aH
xdata	ENDS
;	COMDAT xdata
xdata	SEGMENT
$unwind$??1CEnemy@Client@@UEAA@XZ DD 025052a01H
	DD	010e2313H
	DD	07007001dH
	DD	05006H
xdata	ENDS
;	COMDAT xdata
xdata	SEGMENT
$unwind$?dtor$0@?0???0CEnemy@Client@@QEAA@AEBV01@@Z@4HA DD 031001H
	DD	0700c4210H
	DD	0500bH
xdata	ENDS
;	COMDAT xdata
xdata	SEGMENT
$ip2state$??0CEnemy@Client@@QEAA@AEBV01@@Z DD imagerel ??0CEnemy@Client@@QEAA@AEBV01@@Z
	DD	0ffffffffH
	DD	imagerel ??0CEnemy@Client@@QEAA@AEBV01@@Z+79
	DD	00H
	DD	imagerel ??0CEnemy@Client@@QEAA@AEBV01@@Z+1247
	DD	0ffffffffH
xdata	ENDS
;	COMDAT xdata
xdata	SEGMENT
$stateUnwindMap$??0CEnemy@Client@@QEAA@AEBV01@@Z DD 0ffffffffH
	DD	imagerel ?dtor$0@?0???0CEnemy@Client@@QEAA@AEBV01@@Z@4HA
xdata	ENDS
;	COMDAT CONST
CONST	SEGMENT
$cppxdata$??0CEnemy@Client@@QEAA@AEBV01@@Z DD 019930522H
	DD	01H
	DD	imagerel $stateUnwindMap$??0CEnemy@Client@@QEAA@AEBV01@@Z
	DD	00H
	DD	00H
	DD	03H
	DD	imagerel $ip2state$??0CEnemy@Client@@QEAA@AEBV01@@Z
	DD	0e8H
	DD	00H
	DD	01H
CONST	ENDS
;	COMDAT xdata
xdata	SEGMENT
$unwind$??0CEnemy@Client@@QEAA@AEBV01@@Z DD 025053a11H
	DD	01132318H
	DD	0700c0021H
	DD	0500bH
	DD	imagerel __CxxFrameHandler3
	DD	imagerel $cppxdata$??0CEnemy@Client@@QEAA@AEBV01@@Z
xdata	ENDS
;	COMDAT xdata
xdata	SEGMENT
$unwind$?dtor$0@?0???0CEnemy@Client@@QEAA@PEAUID3D11Device@@PEAUID3D11DeviceContext@@@Z@4HA DD 031001H
	DD	0700c4210H
	DD	0500bH
xdata	ENDS
;	COMDAT xdata
xdata	SEGMENT
$ip2state$??0CEnemy@Client@@QEAA@PEAUID3D11Device@@PEAUID3D11DeviceContext@@@Z DD imagerel ??0CEnemy@Client@@QEAA@PEAUID3D11Device@@PEAUID3D11DeviceContext@@@Z
	DD	0ffffffffH
	DD	imagerel ??0CEnemy@Client@@QEAA@PEAUID3D11Device@@PEAUID3D11DeviceContext@@@Z+91
	DD	00H
	DD	imagerel ??0CEnemy@Client@@QEAA@PEAUID3D11Device@@PEAUID3D11DeviceContext@@@Z+1163
	DD	0ffffffffH
xdata	ENDS
;	COMDAT xdata
xdata	SEGMENT
$stateUnwindMap$??0CEnemy@Client@@QEAA@PEAUID3D11Device@@PEAUID3D11DeviceContext@@@Z DD 0ffffffffH
	DD	imagerel ?dtor$0@?0???0CEnemy@Client@@QEAA@PEAUID3D11Device@@PEAUID3D11DeviceContext@@@Z@4HA
xdata	ENDS
;	COMDAT CONST
CONST	SEGMENT
$cppxdata$??0CEnemy@Client@@QEAA@PEAUID3D11Device@@PEAUID3D11DeviceContext@@@Z DD 019930522H
	DD	01H
	DD	imagerel $stateUnwindMap$??0CEnemy@Client@@QEAA@PEAUID3D11Device@@PEAUID3D11DeviceContext@@@Z
	DD	00H
	DD	00H
	DD	03H
	DD	imagerel $ip2state$??0CEnemy@Client@@QEAA@PEAUID3D11Device@@PEAUID3D11DeviceContext@@@Z
	DD	0e8H
	DD	00H
	DD	01H
CONST	ENDS
;	COMDAT xdata
xdata	SEGMENT
$unwind$??0CEnemy@Client@@QEAA@PEAUID3D11Device@@PEAUID3D11DeviceContext@@@Z DD 025053f11H
	DD	0118231dH
	DD	070110021H
	DD	05010H
	DD	imagerel __CxxFrameHandler3
	DD	imagerel $cppxdata$??0CEnemy@Client@@QEAA@PEAUID3D11Device@@PEAUID3D11DeviceContext@@@Z
xdata	ENDS
;	COMDAT xdata
xdata	SEGMENT
$unwind$??0tagColliderDesc@CCollider@Engine@@QEAA@XZ DD 025052a01H
	DD	010e2313H
	DD	07007001dH
	DD	05006H
xdata	ENDS
;	COMDAT xdata
xdata	SEGMENT
$unwind$?XMMatrixMultiply@DirectX@@YQ?AUXMMATRIX@1@U21@AEBU21@@Z DD 035053f19H
	DD	010e3313H
	DD	0700701b7H
	DD	05006H
	DD	imagerel __GSHandlerCheck
	DD	0da8H
xdata	ENDS
;	COMDAT CONST
CONST	SEGMENT
?XMMatrixMultiply@DirectX@@YQ?AUXMMATRIX@1@U21@AEBU21@@Z$rtcName$0 DB 04dH ; DirectX::XMMatrixMultiply
	DB	031H
	DB	00H
	ORG $+5
?XMMatrixMultiply@DirectX@@YQ?AUXMMATRIX@1@U21@AEBU21@@Z$rtcName$1 DB 06dH ; DirectX::XMMatrixMultiply
	DB	052H
	DB	065H
	DB	073H
	DB	075H
	DB	06cH
	DB	074H
	DB	00H
?XMMatrixMultiply@DirectX@@YQ?AUXMMATRIX@1@U21@AEBU21@@Z$rtcVarDesc DD 0a0H ; DirectX::XMMatrixMultiply
	DD	040H
	DQ	FLAT:?XMMatrixMultiply@DirectX@@YQ?AUXMMATRIX@1@U21@AEBU21@@Z$rtcName$1
	DD	040H
	DD	040H
	DQ	FLAT:?XMMatrixMultiply@DirectX@@YQ?AUXMMATRIX@1@U21@AEBU21@@Z$rtcName$0
	ORG $+96
?XMMatrixMultiply@DirectX@@YQ?AUXMMATRIX@1@U21@AEBU21@@Z$rtcFrameData DD 02H ; DirectX::XMMatrixMultiply
	DD	00H
	DQ	FLAT:?XMMatrixMultiply@DirectX@@YQ?AUXMMATRIX@1@U21@AEBU21@@Z$rtcVarDesc
CONST	ENDS
;	COMDAT xdata
xdata	SEGMENT
$unwind$?XMVector3Normalize@DirectX@@YQ?AT__m128@@T2@@Z DD 035052a01H
	DD	010a330fH
	DD	0700300dfH
	DD	05002H
xdata	ENDS
;	COMDAT xdata
xdata	SEGMENT
$unwind$?XMVector3Length@DirectX@@YQ?AT__m128@@T2@@Z DD 015052a01H
	DD	010a130fH
	DD	070030057H
	DD	05002H
xdata	ENDS
;	COMDAT xdata
xdata	SEGMENT
$unwind$?XMVector3Cross@DirectX@@YQ?AT__m128@@T2@0@Z DD 035053601H
	DD	010a330fH
	DD	07003008bH
	DD	05002H
xdata	ENDS
;	COMDAT xdata
xdata	SEGMENT
$unwind$?XMVector3Dot@DirectX@@YQ?AT__m128@@T2@0@Z DD 015053601H
	DD	010a130fH
	DD	070030057H
	DD	05002H
xdata	ENDS
;	COMDAT xdata
xdata	SEGMENT
$unwind$?XMVectorLerp@DirectX@@YQ?AT__m128@@T2@0M@Z DD 015053b01H
	DD	010f1314H
	DD	070080051H
	DD	05007H
xdata	ENDS
;	COMDAT xdata
xdata	SEGMENT
$unwind$?XMVectorScale@DirectX@@YQ?AT__m128@@T2@M@Z DD 015052f01H
	DD	010f1314H
	DD	070080033H
	DD	05007H
xdata	ENDS
;	COMDAT xdata
xdata	SEGMENT
$unwind$?XMVectorSubtract@DirectX@@YQ?AT__m128@@T2@0@Z DD 015053601H
	DD	010a130fH
	DD	07003002dH
	DD	05002H
xdata	ENDS
;	COMDAT xdata
xdata	SEGMENT
$unwind$?XMVectorAdd@DirectX@@YQ?AT__m128@@T2@0@Z DD 015053601H
	DD	010a130fH
	DD	07003002dH
	DD	05002H
xdata	ENDS
;	COMDAT xdata
xdata	SEGMENT
$unwind$?XMVectorNegate@DirectX@@YQ?AT__m128@@T2@@Z DD 015052a01H
	DD	010a130fH
	DD	070030033H
	DD	05002H
xdata	ENDS
;	COMDAT xdata
xdata	SEGMENT
$unwind$?XMVectorGetY@DirectX@@YQMT__m128@@@Z DD 015052a01H
	DD	010a130fH
	DD	07003002dH
	DD	05002H
xdata	ENDS
;	COMDAT xdata
xdata	SEGMENT
$unwind$?XMVectorGetX@DirectX@@YQMT__m128@@@Z DD 015052a01H
	DD	010a130fH
	DD	070030021H
	DD	05002H
xdata	ENDS
;	COMDAT xdata
xdata	SEGMENT
$unwind$?XMVectorSet@DirectX@@YQ?AT__m128@@MMMM@Z DD 015053501H
	DD	01211326H
	DD	0701a0021H
	DD	05019H
xdata	ENDS
;	COMDAT xdata
xdata	SEGMENT
$unwind$?XMStoreFloat4x4@DirectX@@YQXPEAUXMFLOAT4X4@1@UXMMATRIX@1@@Z DD 025053601H
	DD	010e2313H
	DD	070070029H
	DD	05006H
xdata	ENDS
;	COMDAT CONST
CONST	SEGMENT
?XMStoreFloat4x4@DirectX@@YQXPEAUXMFLOAT4X4@1@UXMMATRIX@1@@Z$rtcName$0 DB 04dH ; DirectX::XMStoreFloat4x4
	DB	00H
	ORG $+14
?XMStoreFloat4x4@DirectX@@YQXPEAUXMFLOAT4X4@1@UXMMATRIX@1@@Z$rtcVarDesc DD 030H ; DirectX::XMStoreFloat4x4
	DD	040H
	DQ	FLAT:?XMStoreFloat4x4@DirectX@@YQXPEAUXMFLOAT4X4@1@UXMMATRIX@1@@Z$rtcName$0
	ORG $+48
?XMStoreFloat4x4@DirectX@@YQXPEAUXMFLOAT4X4@1@UXMMATRIX@1@@Z$rtcFrameData DD 01H ; DirectX::XMStoreFloat4x4
	DD	00H
	DQ	FLAT:?XMStoreFloat4x4@DirectX@@YQXPEAUXMFLOAT4X4@1@UXMMATRIX@1@@Z$rtcVarDesc
CONST	ENDS
;	COMDAT xdata
xdata	SEGMENT
$unwind$?XMStoreFloat4@DirectX@@YQXPEAUXMFLOAT4@1@T__m128@@@Z DD 025053601H
	DD	010e2313H
	DD	070070023H
	DD	05006H
xdata	ENDS
;	COMDAT xdata
xdata	SEGMENT
$unwind$?XMStoreFloat3@DirectX@@YQXPEAUXMFLOAT3@1@T__m128@@@Z DD 025053601H
	DD	010e2313H
	DD	07007003bH
	DD	05006H
xdata	ENDS
;	COMDAT xdata
xdata	SEGMENT
$unwind$?XMLoadFloat4x4@DirectX@@YQ?AUXMMATRIX@1@PEBUXMFLOAT4X4@1@@Z DD 035053b19H
	DD	010e3313H
	DD	070070043H
	DD	05006H
	DD	imagerel __GSHandlerCheck
	DD	0208H
xdata	ENDS
;	COMDAT CONST
CONST	SEGMENT
?XMLoadFloat4x4@DirectX@@YQ?AUXMMATRIX@1@PEBUXMFLOAT4X4@1@@Z$rtcName$0 DB 04dH ; DirectX::XMLoadFloat4x4
	DB	00H
	ORG $+14
?XMLoadFloat4x4@DirectX@@YQ?AUXMMATRIX@1@PEBUXMFLOAT4X4@1@@Z$rtcVarDesc DD 040H ; DirectX::XMLoadFloat4x4
	DD	040H
	DQ	FLAT:?XMLoadFloat4x4@DirectX@@YQ?AUXMMATRIX@1@PEBUXMFLOAT4X4@1@@Z$rtcName$0
	ORG $+48
?XMLoadFloat4x4@DirectX@@YQ?AUXMMATRIX@1@PEBUXMFLOAT4X4@1@@Z$rtcFrameData DD 01H ; DirectX::XMLoadFloat4x4
	DD	00H
	DQ	FLAT:?XMLoadFloat4x4@DirectX@@YQ?AUXMMATRIX@1@PEBUXMFLOAT4X4@1@@Z$rtcVarDesc
CONST	ENDS
;	COMDAT xdata
xdata	SEGMENT
$unwind$?XMLoadFloat4@DirectX@@YQ?AT__m128@@PEBUXMFLOAT4@1@@Z DD 035052a01H
	DD	010e3313H
	DD	070070025H
	DD	05006H
xdata	ENDS
;	COMDAT xdata
xdata	SEGMENT
$unwind$?XMLoadFloat3@DirectX@@YQ?AT__m128@@PEBUXMFLOAT3@1@@Z DD 035052a01H
	DD	010e3313H
	DD	070070055H
	DD	05006H
xdata	ENDS
;	COMDAT xdata
xdata	SEGMENT
$unwind$??0XMFLOAT4X4@DirectX@@QEAA@XZ DD 05052801H
	DD	010e0311H
	DD	070070019H
	DD	05006H
xdata	ENDS
;	COMDAT xdata
xdata	SEGMENT
$unwind$??0XMFLOAT4@DirectX@@QEAA@XZ DD 05052801H
	DD	010e0311H
	DD	070070019H
	DD	05006H
xdata	ENDS
;	COMDAT xdata
xdata	SEGMENT
$unwind$??4XMFLOAT3@DirectX@@QEAAAEAU01@AEBU01@@Z DD 05052d01H
	DD	01130316H
	DD	0700c0019H
	DD	0500bH
xdata	ENDS
;	COMDAT xdata
xdata	SEGMENT
$unwind$??0XMFLOAT3@DirectX@@QEAA@MMM@Z DD 05053a01H
	DD	01200323H
	DD	070190019H
	DD	05018H
xdata	ENDS
;	COMDAT xdata
xdata	SEGMENT
$unwind$??0XMFLOAT3@DirectX@@QEAA@XZ DD 05052801H
	DD	010e0311H
	DD	070070019H
	DD	05006H
xdata	ENDS
;	COMDAT xdata
xdata	SEGMENT
$unwind$??DXMMATRIX@DirectX@@QEBQ?AU01@U01@@Z DD 035063701H
	DD	010f3314H
	DD	070080042H
	DD	050066007H
xdata	ENDS
;	COMDAT CONST
CONST	SEGMENT
??DXMMATRIX@DirectX@@QEBQ?AU01@U01@@Z$rtcName$0 DB 04dH	; DirectX::XMMATRIX::operator*
	DB	00H
	ORG $+14
??DXMMATRIX@DirectX@@QEBQ?AU01@U01@@Z$rtcVarDesc DD 040H ; DirectX::XMMATRIX::operator*
	DD	040H
	DQ	FLAT:??DXMMATRIX@DirectX@@QEBQ?AU01@U01@@Z$rtcName$0
	ORG $+48
??DXMMATRIX@DirectX@@QEBQ?AU01@U01@@Z$rtcFrameData DD 01H ; DirectX::XMMATRIX::operator*
	DD	00H
	DQ	FLAT:??DXMMATRIX@DirectX@@QEBQ?AU01@U01@@Z$rtcVarDesc
CONST	ENDS
;	COMDAT xdata
xdata	SEGMENT
$unwind$??0XMMATRIX@DirectX@@QEAA@XZ DD 05052801H
	DD	010e0311H
	DD	070070019H
	DD	05006H
xdata	ENDS
;	COMDAT xdata
xdata	SEGMENT
$unwind$??DDirectX@@YQ?AT__m128@@T1@M@Z DD 035052f01H
	DD	010f3314H
	DD	07008002bH
	DD	05007H
xdata	ENDS
;	COMDAT xdata
xdata	SEGMENT
$unwind$??GDirectX@@YQ?AT__m128@@T1@0@Z DD 035053601H
	DD	010a330fH
	DD	070030031H
	DD	05002H
xdata	ENDS
;	COMDAT xdata
xdata	SEGMENT
$unwind$??HDirectX@@YQ?AT__m128@@T1@0@Z DD 035053601H
	DD	010a330fH
	DD	070030031H
	DD	05002H
xdata	ENDS
;	COMDAT xdata
xdata	SEGMENT
$unwind$??GDirectX@@YQ?AT__m128@@T1@@Z DD 035052a01H
	DD	010a330fH
	DD	07003002bH
	DD	05002H
xdata	ENDS
;	COMDAT xdata
xdata	SEGMENT
$unwind$??BXMVECTORU32@DirectX@@QEBA?AT__m128@@XZ DD 05052d01H
	DD	01130316H
	DD	0700c0019H
	DD	0500bH
xdata	ENDS
;	COMDAT xdata
xdata	SEGMENT
$unwind$??BXMVECTORI32@DirectX@@QEBA?AT__m128@@XZ DD 05052d01H
	DD	01130316H
	DD	0700c0019H
	DD	0500bH
xdata	ENDS
;	COMDAT xdata
xdata	SEGMENT
$unwind$?acos@@YAMM@Z DD 035052301H
	DD	010f3314H
	DD	07008001fH
	DD	05007H
xdata	ENDS
;	COMDAT xdata
xdata	SEGMENT
$unwind$?fpclassify@@YAHM@Z DD 025052301H
	DD	010f2314H
	DD	07008001dH
	DD	05007H
xdata	ENDS
;	COMDAT xdata
xdata	SEGMENT
$unwind$?__empty_global_delete@@YAXPEAX_K@Z DD 05052d01H
	DD	01130316H
	DD	0700c0019H
	DD	0500bH
xdata	ENDS
;	COMDAT xdata
xdata	SEGMENT
$unwind$?__empty_global_delete@@YAXPEAX@Z DD 05052801H
	DD	010e0311H
	DD	070070019H
	DD	05006H
xdata	ENDS
;	COMDAT xdata
xdata	SEGMENT
$unwind$??_H@YAXPEAX_K1P6APEAX0@Z@Z DD 025053901H
	DD	011d2322H
	DD	07016001fH
	DD	05015H
xdata	ENDS
; Function compile flags: /Odtp /RTCsu /ZI
; File c:\github\framework\reference\headers\engine_template.h
;	COMDAT ??$Safe_Release@PEAVCCollider@Engine@@@Engine@@YAKAEAPEAVCCollider@0@@Z
_TEXT	SEGMENT
dwRefCnt$ = 4
classType$ = 256
??$Safe_Release@PEAVCCollider@Engine@@@Engine@@YAKAEAPEAVCCollider@0@@Z PROC ; Engine::Safe_Release<Engine::CCollider * __ptr64>, COMDAT

; 18   : 	{

$LN5:
  00000	48 89 4c 24 08	 mov	 QWORD PTR [rsp+8], rcx
  00005	55		 push	 rbp
  00006	57		 push	 rdi
  00007	48 81 ec 08 01
	00 00		 sub	 rsp, 264		; 00000108H
  0000e	48 8d 6c 24 20	 lea	 rbp, QWORD PTR [rsp+32]
  00013	48 8b fc	 mov	 rdi, rsp
  00016	b9 42 00 00 00	 mov	 ecx, 66			; 00000042H
  0001b	b8 cc cc cc cc	 mov	 eax, -858993460		; ccccccccH
  00020	f3 ab		 rep stosd
  00022	48 8b 8c 24 28
	01 00 00	 mov	 rcx, QWORD PTR [rsp+296]

; 19   : 		unsigned long dwRefCnt = 0;

  0002a	c7 45 04 00 00
	00 00		 mov	 DWORD PTR dwRefCnt$[rbp], 0

; 20   : 
; 21   : 		if (nullptr != classType)

  00031	48 8b 85 00 01
	00 00		 mov	 rax, QWORD PTR classType$[rbp]
  00038	48 83 38 00	 cmp	 QWORD PTR [rax], 0
  0003c	74 27		 je	 SHORT $LN2@Safe_Relea

; 22   : 		{
; 23   : 			dwRefCnt = classType->Release();

  0003e	48 8b 85 00 01
	00 00		 mov	 rax, QWORD PTR classType$[rbp]
  00045	48 8b 08	 mov	 rcx, QWORD PTR [rax]
  00048	ff 15 00 00 00
	00		 call	 QWORD PTR __imp_?Release@CBase@Engine@@QEAAKXZ
  0004e	89 45 04	 mov	 DWORD PTR dwRefCnt$[rbp], eax

; 24   : 
; 25   : 			if (0 == dwRefCnt)

  00051	83 7d 04 00	 cmp	 DWORD PTR dwRefCnt$[rbp], 0
  00055	75 0e		 jne	 SHORT $LN3@Safe_Relea

; 26   : 			{
; 27   : 				classType = nullptr;

  00057	48 8b 85 00 01
	00 00		 mov	 rax, QWORD PTR classType$[rbp]
  0005e	48 c7 00 00 00
	00 00		 mov	 QWORD PTR [rax], 0
$LN3@Safe_Relea:
$LN2@Safe_Relea:

; 28   : 			}
; 29   : 		}
; 30   : 
; 31   : 		return dwRefCnt;

  00065	8b 45 04	 mov	 eax, DWORD PTR dwRefCnt$[rbp]

; 32   : 	}

  00068	48 8d a5 e8 00
	00 00		 lea	 rsp, QWORD PTR [rbp+232]
  0006f	5f		 pop	 rdi
  00070	5d		 pop	 rbp
  00071	c3		 ret	 0
??$Safe_Release@PEAVCCollider@Engine@@@Engine@@YAKAEAPEAVCCollider@0@@Z ENDP ; Engine::Safe_Release<Engine::CCollider * __ptr64>
_TEXT	ENDS
; Function compile flags: /Odtp /RTCsu /ZI
; File c:\github\framework\reference\headers\engine_template.h
;	COMDAT ??$Safe_Release@PEAVCShader@Engine@@@Engine@@YAKAEAPEAVCShader@0@@Z
_TEXT	SEGMENT
dwRefCnt$ = 4
classType$ = 256
??$Safe_Release@PEAVCShader@Engine@@@Engine@@YAKAEAPEAVCShader@0@@Z PROC ; Engine::Safe_Release<Engine::CShader * __ptr64>, COMDAT

; 18   : 	{

$LN5:
  00000	48 89 4c 24 08	 mov	 QWORD PTR [rsp+8], rcx
  00005	55		 push	 rbp
  00006	57		 push	 rdi
  00007	48 81 ec 08 01
	00 00		 sub	 rsp, 264		; 00000108H
  0000e	48 8d 6c 24 20	 lea	 rbp, QWORD PTR [rsp+32]
  00013	48 8b fc	 mov	 rdi, rsp
  00016	b9 42 00 00 00	 mov	 ecx, 66			; 00000042H
  0001b	b8 cc cc cc cc	 mov	 eax, -858993460		; ccccccccH
  00020	f3 ab		 rep stosd
  00022	48 8b 8c 24 28
	01 00 00	 mov	 rcx, QWORD PTR [rsp+296]

; 19   : 		unsigned long dwRefCnt = 0;

  0002a	c7 45 04 00 00
	00 00		 mov	 DWORD PTR dwRefCnt$[rbp], 0

; 20   : 
; 21   : 		if (nullptr != classType)

  00031	48 8b 85 00 01
	00 00		 mov	 rax, QWORD PTR classType$[rbp]
  00038	48 83 38 00	 cmp	 QWORD PTR [rax], 0
  0003c	74 27		 je	 SHORT $LN2@Safe_Relea

; 22   : 		{
; 23   : 			dwRefCnt = classType->Release();

  0003e	48 8b 85 00 01
	00 00		 mov	 rax, QWORD PTR classType$[rbp]
  00045	48 8b 08	 mov	 rcx, QWORD PTR [rax]
  00048	ff 15 00 00 00
	00		 call	 QWORD PTR __imp_?Release@CBase@Engine@@QEAAKXZ
  0004e	89 45 04	 mov	 DWORD PTR dwRefCnt$[rbp], eax

; 24   : 
; 25   : 			if (0 == dwRefCnt)

  00051	83 7d 04 00	 cmp	 DWORD PTR dwRefCnt$[rbp], 0
  00055	75 0e		 jne	 SHORT $LN3@Safe_Relea

; 26   : 			{
; 27   : 				classType = nullptr;

  00057	48 8b 85 00 01
	00 00		 mov	 rax, QWORD PTR classType$[rbp]
  0005e	48 c7 00 00 00
	00 00		 mov	 QWORD PTR [rax], 0
$LN3@Safe_Relea:
$LN2@Safe_Relea:

; 28   : 			}
; 29   : 		}
; 30   : 
; 31   : 		return dwRefCnt;

  00065	8b 45 04	 mov	 eax, DWORD PTR dwRefCnt$[rbp]

; 32   : 	}

  00068	48 8d a5 e8 00
	00 00		 lea	 rsp, QWORD PTR [rbp+232]
  0006f	5f		 pop	 rdi
  00070	5d		 pop	 rbp
  00071	c3		 ret	 0
??$Safe_Release@PEAVCShader@Engine@@@Engine@@YAKAEAPEAVCShader@0@@Z ENDP ; Engine::Safe_Release<Engine::CShader * __ptr64>
_TEXT	ENDS
; Function compile flags: /Odtp /RTCsu /ZI
; File c:\github\framework\reference\headers\engine_template.h
;	COMDAT ??$Safe_Release@PEAVCModel@Engine@@@Engine@@YAKAEAPEAVCModel@0@@Z
_TEXT	SEGMENT
dwRefCnt$ = 4
classType$ = 256
??$Safe_Release@PEAVCModel@Engine@@@Engine@@YAKAEAPEAVCModel@0@@Z PROC ; Engine::Safe_Release<Engine::CModel * __ptr64>, COMDAT

; 18   : 	{

$LN5:
  00000	48 89 4c 24 08	 mov	 QWORD PTR [rsp+8], rcx
  00005	55		 push	 rbp
  00006	57		 push	 rdi
  00007	48 81 ec 08 01
	00 00		 sub	 rsp, 264		; 00000108H
  0000e	48 8d 6c 24 20	 lea	 rbp, QWORD PTR [rsp+32]
  00013	48 8b fc	 mov	 rdi, rsp
  00016	b9 42 00 00 00	 mov	 ecx, 66			; 00000042H
  0001b	b8 cc cc cc cc	 mov	 eax, -858993460		; ccccccccH
  00020	f3 ab		 rep stosd
  00022	48 8b 8c 24 28
	01 00 00	 mov	 rcx, QWORD PTR [rsp+296]

; 19   : 		unsigned long dwRefCnt = 0;

  0002a	c7 45 04 00 00
	00 00		 mov	 DWORD PTR dwRefCnt$[rbp], 0

; 20   : 
; 21   : 		if (nullptr != classType)

  00031	48 8b 85 00 01
	00 00		 mov	 rax, QWORD PTR classType$[rbp]
  00038	48 83 38 00	 cmp	 QWORD PTR [rax], 0
  0003c	74 27		 je	 SHORT $LN2@Safe_Relea

; 22   : 		{
; 23   : 			dwRefCnt = classType->Release();

  0003e	48 8b 85 00 01
	00 00		 mov	 rax, QWORD PTR classType$[rbp]
  00045	48 8b 08	 mov	 rcx, QWORD PTR [rax]
  00048	ff 15 00 00 00
	00		 call	 QWORD PTR __imp_?Release@CBase@Engine@@QEAAKXZ
  0004e	89 45 04	 mov	 DWORD PTR dwRefCnt$[rbp], eax

; 24   : 
; 25   : 			if (0 == dwRefCnt)

  00051	83 7d 04 00	 cmp	 DWORD PTR dwRefCnt$[rbp], 0
  00055	75 0e		 jne	 SHORT $LN3@Safe_Relea

; 26   : 			{
; 27   : 				classType = nullptr;

  00057	48 8b 85 00 01
	00 00		 mov	 rax, QWORD PTR classType$[rbp]
  0005e	48 c7 00 00 00
	00 00		 mov	 QWORD PTR [rax], 0
$LN3@Safe_Relea:
$LN2@Safe_Relea:

; 28   : 			}
; 29   : 		}
; 30   : 
; 31   : 		return dwRefCnt;

  00065	8b 45 04	 mov	 eax, DWORD PTR dwRefCnt$[rbp]

; 32   : 	}

  00068	48 8d a5 e8 00
	00 00		 lea	 rsp, QWORD PTR [rbp+232]
  0006f	5f		 pop	 rdi
  00070	5d		 pop	 rbp
  00071	c3		 ret	 0
??$Safe_Release@PEAVCModel@Engine@@@Engine@@YAKAEAPEAVCModel@0@@Z ENDP ; Engine::Safe_Release<Engine::CModel * __ptr64>
_TEXT	ENDS
; Function compile flags: /Odtp /RTCsu /ZI
; File c:\github\framework\reference\headers\engine_template.h
;	COMDAT ??$Safe_Release@PEAVCTransform@Engine@@@Engine@@YAKAEAPEAVCTransform@0@@Z
_TEXT	SEGMENT
dwRefCnt$ = 4
classType$ = 256
??$Safe_Release@PEAVCTransform@Engine@@@Engine@@YAKAEAPEAVCTransform@0@@Z PROC ; Engine::Safe_Release<Engine::CTransform * __ptr64>, COMDAT

; 18   : 	{

$LN5:
  00000	48 89 4c 24 08	 mov	 QWORD PTR [rsp+8], rcx
  00005	55		 push	 rbp
  00006	57		 push	 rdi
  00007	48 81 ec 08 01
	00 00		 sub	 rsp, 264		; 00000108H
  0000e	48 8d 6c 24 20	 lea	 rbp, QWORD PTR [rsp+32]
  00013	48 8b fc	 mov	 rdi, rsp
  00016	b9 42 00 00 00	 mov	 ecx, 66			; 00000042H
  0001b	b8 cc cc cc cc	 mov	 eax, -858993460		; ccccccccH
  00020	f3 ab		 rep stosd
  00022	48 8b 8c 24 28
	01 00 00	 mov	 rcx, QWORD PTR [rsp+296]

; 19   : 		unsigned long dwRefCnt = 0;

  0002a	c7 45 04 00 00
	00 00		 mov	 DWORD PTR dwRefCnt$[rbp], 0

; 20   : 
; 21   : 		if (nullptr != classType)

  00031	48 8b 85 00 01
	00 00		 mov	 rax, QWORD PTR classType$[rbp]
  00038	48 83 38 00	 cmp	 QWORD PTR [rax], 0
  0003c	74 27		 je	 SHORT $LN2@Safe_Relea

; 22   : 		{
; 23   : 			dwRefCnt = classType->Release();

  0003e	48 8b 85 00 01
	00 00		 mov	 rax, QWORD PTR classType$[rbp]
  00045	48 8b 08	 mov	 rcx, QWORD PTR [rax]
  00048	ff 15 00 00 00
	00		 call	 QWORD PTR __imp_?Release@CBase@Engine@@QEAAKXZ
  0004e	89 45 04	 mov	 DWORD PTR dwRefCnt$[rbp], eax

; 24   : 
; 25   : 			if (0 == dwRefCnt)

  00051	83 7d 04 00	 cmp	 DWORD PTR dwRefCnt$[rbp], 0
  00055	75 0e		 jne	 SHORT $LN3@Safe_Relea

; 26   : 			{
; 27   : 				classType = nullptr;

  00057	48 8b 85 00 01
	00 00		 mov	 rax, QWORD PTR classType$[rbp]
  0005e	48 c7 00 00 00
	00 00		 mov	 QWORD PTR [rax], 0
$LN3@Safe_Relea:
$LN2@Safe_Relea:

; 28   : 			}
; 29   : 		}
; 30   : 
; 31   : 		return dwRefCnt;

  00065	8b 45 04	 mov	 eax, DWORD PTR dwRefCnt$[rbp]

; 32   : 	}

  00068	48 8d a5 e8 00
	00 00		 lea	 rsp, QWORD PTR [rbp+232]
  0006f	5f		 pop	 rdi
  00070	5d		 pop	 rbp
  00071	c3		 ret	 0
??$Safe_Release@PEAVCTransform@Engine@@@Engine@@YAKAEAPEAVCTransform@0@@Z ENDP ; Engine::Safe_Release<Engine::CTransform * __ptr64>
_TEXT	ENDS
; Function compile flags: /Odtp /RTCsu /ZI
; File c:\github\framework\reference\headers\engine_template.h
;	COMDAT ??$Safe_Release@PEAVCRenderer@Engine@@@Engine@@YAKAEAPEAVCRenderer@0@@Z
_TEXT	SEGMENT
dwRefCnt$ = 4
classType$ = 256
??$Safe_Release@PEAVCRenderer@Engine@@@Engine@@YAKAEAPEAVCRenderer@0@@Z PROC ; Engine::Safe_Release<Engine::CRenderer * __ptr64>, COMDAT

; 18   : 	{

$LN5:
  00000	48 89 4c 24 08	 mov	 QWORD PTR [rsp+8], rcx
  00005	55		 push	 rbp
  00006	57		 push	 rdi
  00007	48 81 ec 08 01
	00 00		 sub	 rsp, 264		; 00000108H
  0000e	48 8d 6c 24 20	 lea	 rbp, QWORD PTR [rsp+32]
  00013	48 8b fc	 mov	 rdi, rsp
  00016	b9 42 00 00 00	 mov	 ecx, 66			; 00000042H
  0001b	b8 cc cc cc cc	 mov	 eax, -858993460		; ccccccccH
  00020	f3 ab		 rep stosd
  00022	48 8b 8c 24 28
	01 00 00	 mov	 rcx, QWORD PTR [rsp+296]

; 19   : 		unsigned long dwRefCnt = 0;

  0002a	c7 45 04 00 00
	00 00		 mov	 DWORD PTR dwRefCnt$[rbp], 0

; 20   : 
; 21   : 		if (nullptr != classType)

  00031	48 8b 85 00 01
	00 00		 mov	 rax, QWORD PTR classType$[rbp]
  00038	48 83 38 00	 cmp	 QWORD PTR [rax], 0
  0003c	74 27		 je	 SHORT $LN2@Safe_Relea

; 22   : 		{
; 23   : 			dwRefCnt = classType->Release();

  0003e	48 8b 85 00 01
	00 00		 mov	 rax, QWORD PTR classType$[rbp]
  00045	48 8b 08	 mov	 rcx, QWORD PTR [rax]
  00048	ff 15 00 00 00
	00		 call	 QWORD PTR __imp_?Release@CBase@Engine@@QEAAKXZ
  0004e	89 45 04	 mov	 DWORD PTR dwRefCnt$[rbp], eax

; 24   : 
; 25   : 			if (0 == dwRefCnt)

  00051	83 7d 04 00	 cmp	 DWORD PTR dwRefCnt$[rbp], 0
  00055	75 0e		 jne	 SHORT $LN3@Safe_Relea

; 26   : 			{
; 27   : 				classType = nullptr;

  00057	48 8b 85 00 01
	00 00		 mov	 rax, QWORD PTR classType$[rbp]
  0005e	48 c7 00 00 00
	00 00		 mov	 QWORD PTR [rax], 0
$LN3@Safe_Relea:
$LN2@Safe_Relea:

; 28   : 			}
; 29   : 		}
; 30   : 
; 31   : 		return dwRefCnt;

  00065	8b 45 04	 mov	 eax, DWORD PTR dwRefCnt$[rbp]

; 32   : 	}

  00068	48 8d a5 e8 00
	00 00		 lea	 rsp, QWORD PTR [rbp+232]
  0006f	5f		 pop	 rdi
  00070	5d		 pop	 rbp
  00071	c3		 ret	 0
??$Safe_Release@PEAVCRenderer@Engine@@@Engine@@YAKAEAPEAVCRenderer@0@@Z ENDP ; Engine::Safe_Release<Engine::CRenderer * __ptr64>
_TEXT	ENDS
; Function compile flags: /Odtp /RTCsu /ZI
; File c:\github\framework\reference\headers\engine_template.h
;	COMDAT ??$Safe_Release@PEAVCEnemy@Client@@@Engine@@YAKAEAPEAVCEnemy@Client@@@Z
_TEXT	SEGMENT
dwRefCnt$ = 4
classType$ = 256
??$Safe_Release@PEAVCEnemy@Client@@@Engine@@YAKAEAPEAVCEnemy@Client@@@Z PROC ; Engine::Safe_Release<Client::CEnemy * __ptr64>, COMDAT

; 18   : 	{

$LN5:
  00000	48 89 4c 24 08	 mov	 QWORD PTR [rsp+8], rcx
  00005	55		 push	 rbp
  00006	57		 push	 rdi
  00007	48 81 ec 08 01
	00 00		 sub	 rsp, 264		; 00000108H
  0000e	48 8d 6c 24 20	 lea	 rbp, QWORD PTR [rsp+32]
  00013	48 8b fc	 mov	 rdi, rsp
  00016	b9 42 00 00 00	 mov	 ecx, 66			; 00000042H
  0001b	b8 cc cc cc cc	 mov	 eax, -858993460		; ccccccccH
  00020	f3 ab		 rep stosd
  00022	48 8b 8c 24 28
	01 00 00	 mov	 rcx, QWORD PTR [rsp+296]

; 19   : 		unsigned long dwRefCnt = 0;

  0002a	c7 45 04 00 00
	00 00		 mov	 DWORD PTR dwRefCnt$[rbp], 0

; 20   : 
; 21   : 		if (nullptr != classType)

  00031	48 8b 85 00 01
	00 00		 mov	 rax, QWORD PTR classType$[rbp]
  00038	48 83 38 00	 cmp	 QWORD PTR [rax], 0
  0003c	74 27		 je	 SHORT $LN2@Safe_Relea

; 22   : 		{
; 23   : 			dwRefCnt = classType->Release();

  0003e	48 8b 85 00 01
	00 00		 mov	 rax, QWORD PTR classType$[rbp]
  00045	48 8b 08	 mov	 rcx, QWORD PTR [rax]
  00048	ff 15 00 00 00
	00		 call	 QWORD PTR __imp_?Release@CBase@Engine@@QEAAKXZ
  0004e	89 45 04	 mov	 DWORD PTR dwRefCnt$[rbp], eax

; 24   : 
; 25   : 			if (0 == dwRefCnt)

  00051	83 7d 04 00	 cmp	 DWORD PTR dwRefCnt$[rbp], 0
  00055	75 0e		 jne	 SHORT $LN3@Safe_Relea

; 26   : 			{
; 27   : 				classType = nullptr;

  00057	48 8b 85 00 01
	00 00		 mov	 rax, QWORD PTR classType$[rbp]
  0005e	48 c7 00 00 00
	00 00		 mov	 QWORD PTR [rax], 0
$LN3@Safe_Relea:
$LN2@Safe_Relea:

; 28   : 			}
; 29   : 		}
; 30   : 
; 31   : 		return dwRefCnt;

  00065	8b 45 04	 mov	 eax, DWORD PTR dwRefCnt$[rbp]

; 32   : 	}

  00068	48 8d a5 e8 00
	00 00		 lea	 rsp, QWORD PTR [rbp+232]
  0006f	5f		 pop	 rdi
  00070	5d		 pop	 rbp
  00071	c3		 ret	 0
??$Safe_Release@PEAVCEnemy@Client@@@Engine@@YAKAEAPEAVCEnemy@Client@@@Z ENDP ; Engine::Safe_Release<Client::CEnemy * __ptr64>
_TEXT	ENDS
; Function compile flags: /Odtp /RTCsu /ZI
; File c:\program files (x86)\windows kits\10\include\10.0.10240.0\ucrt\math.h
;	COMDAT ??$isnan@M@@YA_NM@Z
_TEXT	SEGMENT
tv67 = 192
_X$ = 240
??$isnan@M@@YA_NM@Z PROC				; isnan<float>, COMDAT

; 402  :     {

$LN5:
  00000	f3 0f 11 44 24
	08		 movss	 DWORD PTR [rsp+8], xmm0
  00006	55		 push	 rbp
  00007	57		 push	 rdi
  00008	48 81 ec f8 00
	00 00		 sub	 rsp, 248		; 000000f8H
  0000f	48 8d 6c 24 20	 lea	 rbp, QWORD PTR [rsp+32]
  00014	48 8b fc	 mov	 rdi, rsp
  00017	b9 3e 00 00 00	 mov	 ecx, 62			; 0000003eH
  0001c	b8 cc cc cc cc	 mov	 eax, -858993460		; ccccccccH
  00021	f3 ab		 rep stosd

; 403  :         return fpclassify(_X) == FP_NAN;

  00023	f3 0f 10 85 f0
	00 00 00	 movss	 xmm0, DWORD PTR _X$[rbp]
  0002b	e8 00 00 00 00	 call	 ?fpclassify@@YAHM@Z	; fpclassify
  00030	83 f8 02	 cmp	 eax, 2
  00033	75 0c		 jne	 SHORT $LN3@isnan
  00035	c7 85 c0 00 00
	00 01 00 00 00	 mov	 DWORD PTR tv67[rbp], 1
  0003f	eb 0a		 jmp	 SHORT $LN4@isnan
$LN3@isnan:
  00041	c7 85 c0 00 00
	00 00 00 00 00	 mov	 DWORD PTR tv67[rbp], 0
$LN4@isnan:
  0004b	0f b6 85 c0 00
	00 00		 movzx	 eax, BYTE PTR tv67[rbp]

; 404  :     }

  00052	48 8d a5 d8 00
	00 00		 lea	 rsp, QWORD PTR [rbp+216]
  00059	5f		 pop	 rdi
  0005a	5d		 pop	 rbp
  0005b	c3		 ret	 0
??$isnan@M@@YA_NM@Z ENDP				; isnan<float>
_TEXT	ENDS
; Function compile flags: /Odtp /RTCsu /ZI
; File c:\github\framework\reference\headers\bone.h
;	COMDAT ?GetCombinedMatrix@CBone@Engine@@QEBA?AUXMFLOAT4X4@DirectX@@XZ
_TEXT	SEGMENT
this$ = 224
__$ReturnUdt$ = 232
?GetCombinedMatrix@CBone@Engine@@QEBA?AUXMFLOAT4X4@DirectX@@XZ PROC ; Engine::CBone::GetCombinedMatrix, COMDAT

; 16   : 	_float4x4 GetCombinedMatrix() const { return m_CombinedMatrix; }

$LN3:
  00000	48 89 54 24 10	 mov	 QWORD PTR [rsp+16], rdx
  00005	48 89 4c 24 08	 mov	 QWORD PTR [rsp+8], rcx
  0000a	55		 push	 rbp
  0000b	56		 push	 rsi
  0000c	57		 push	 rdi
  0000d	48 81 ec c0 00
	00 00		 sub	 rsp, 192		; 000000c0H
  00014	48 8b ec	 mov	 rbp, rsp
  00017	48 8b fc	 mov	 rdi, rsp
  0001a	b9 30 00 00 00	 mov	 ecx, 48			; 00000030H
  0001f	b8 cc cc cc cc	 mov	 eax, -858993460		; ccccccccH
  00024	f3 ab		 rep stosd
  00026	48 8b 8c 24 e8
	00 00 00	 mov	 rcx, QWORD PTR [rsp+232]
  0002e	48 8b 85 e0 00
	00 00		 mov	 rax, QWORD PTR this$[rbp]
  00035	48 8b bd e8 00
	00 00		 mov	 rdi, QWORD PTR __$ReturnUdt$[rbp]
  0003c	48 8d b0 9c 01
	00 00		 lea	 rsi, QWORD PTR [rax+412]
  00043	b9 40 00 00 00	 mov	 ecx, 64			; 00000040H
  00048	f3 a4		 rep movsb
  0004a	48 8b 85 e8 00
	00 00		 mov	 rax, QWORD PTR __$ReturnUdt$[rbp]
  00051	48 8d a5 c0 00
	00 00		 lea	 rsp, QWORD PTR [rbp+192]
  00058	5f		 pop	 rdi
  00059	5e		 pop	 rsi
  0005a	5d		 pop	 rbp
  0005b	c3		 ret	 0
?GetCombinedMatrix@CBone@Engine@@QEBA?AUXMFLOAT4X4@DirectX@@XZ ENDP ; Engine::CBone::GetCombinedMatrix
_TEXT	ENDS
; Function compile flags: /Odtp /RTCsu /ZI
; File c:\github\framework\reference\headers\bone.h
;	COMDAT ?GetOffSetMatrix@CBone@Engine@@QEBA?AUXMFLOAT4X4@DirectX@@XZ
_TEXT	SEGMENT
this$ = 224
__$ReturnUdt$ = 232
?GetOffSetMatrix@CBone@Engine@@QEBA?AUXMFLOAT4X4@DirectX@@XZ PROC ; Engine::CBone::GetOffSetMatrix, COMDAT

; 15   : 	_float4x4 GetOffSetMatrix() const { return m_OffsetMatrix; }

$LN3:
  00000	48 89 54 24 10	 mov	 QWORD PTR [rsp+16], rdx
  00005	48 89 4c 24 08	 mov	 QWORD PTR [rsp+8], rcx
  0000a	55		 push	 rbp
  0000b	56		 push	 rsi
  0000c	57		 push	 rdi
  0000d	48 81 ec c0 00
	00 00		 sub	 rsp, 192		; 000000c0H
  00014	48 8b ec	 mov	 rbp, rsp
  00017	48 8b fc	 mov	 rdi, rsp
  0001a	b9 30 00 00 00	 mov	 ecx, 48			; 00000030H
  0001f	b8 cc cc cc cc	 mov	 eax, -858993460		; ccccccccH
  00024	f3 ab		 rep stosd
  00026	48 8b 8c 24 e8
	00 00 00	 mov	 rcx, QWORD PTR [rsp+232]
  0002e	48 8b 85 e0 00
	00 00		 mov	 rax, QWORD PTR this$[rbp]
  00035	48 8b bd e8 00
	00 00		 mov	 rdi, QWORD PTR __$ReturnUdt$[rbp]
  0003c	48 8d b0 1c 01
	00 00		 lea	 rsi, QWORD PTR [rax+284]
  00043	b9 40 00 00 00	 mov	 ecx, 64			; 00000040H
  00048	f3 a4		 rep movsb
  0004a	48 8b 85 e8 00
	00 00		 mov	 rax, QWORD PTR __$ReturnUdt$[rbp]
  00051	48 8d a5 c0 00
	00 00		 lea	 rsp, QWORD PTR [rbp+192]
  00058	5f		 pop	 rdi
  00059	5e		 pop	 rsi
  0005a	5d		 pop	 rbp
  0005b	c3		 ret	 0
?GetOffSetMatrix@CBone@Engine@@QEBA?AUXMFLOAT4X4@DirectX@@XZ ENDP ; Engine::CBone::GetOffSetMatrix
_TEXT	ENDS
; Function compile flags: /Odtp /RTCsu /ZI
; File c:\github\framework\client\public\character.h
;	COMDAT ?GetEnemyCheckCollider@CCharacter@Client@@QEBAPEAVCCollider@Engine@@XZ
_TEXT	SEGMENT
this$ = 224
?GetEnemyCheckCollider@CCharacter@Client@@QEBAPEAVCCollider@Engine@@XZ PROC ; Client::CCharacter::GetEnemyCheckCollider, COMDAT

; 226  : 	CCollider* GetEnemyCheckCollider() const { return mEnemyCheckCollider; }

$LN3:
  00000	48 89 4c 24 08	 mov	 QWORD PTR [rsp+8], rcx
  00005	55		 push	 rbp
  00006	57		 push	 rdi
  00007	48 81 ec c8 00
	00 00		 sub	 rsp, 200		; 000000c8H
  0000e	48 8b ec	 mov	 rbp, rsp
  00011	48 8b fc	 mov	 rdi, rsp
  00014	b9 32 00 00 00	 mov	 ecx, 50			; 00000032H
  00019	b8 cc cc cc cc	 mov	 eax, -858993460		; ccccccccH
  0001e	f3 ab		 rep stosd
  00020	48 8b 8c 24 e8
	00 00 00	 mov	 rcx, QWORD PTR [rsp+232]
  00028	48 8b 85 e0 00
	00 00		 mov	 rax, QWORD PTR this$[rbp]
  0002f	48 8b 80 c8 00
	00 00		 mov	 rax, QWORD PTR [rax+200]
  00036	48 8d a5 c8 00
	00 00		 lea	 rsp, QWORD PTR [rbp+200]
  0003d	5f		 pop	 rdi
  0003e	5d		 pop	 rbp
  0003f	c3		 ret	 0
?GetEnemyCheckCollider@CCharacter@Client@@QEBAPEAVCCollider@Engine@@XZ ENDP ; Client::CCharacter::GetEnemyCheckCollider
_TEXT	ENDS
; Function compile flags: /Odtp /RTCsu /ZI
; File c:\github\framework\client\public\character.h
;	COMDAT ?GetWeaponCollider@CCharacter@Client@@QEBAPEAVCCollider@Engine@@XZ
_TEXT	SEGMENT
this$ = 224
?GetWeaponCollider@CCharacter@Client@@QEBAPEAVCCollider@Engine@@XZ PROC ; Client::CCharacter::GetWeaponCollider, COMDAT

; 224  : 	CCollider* GetWeaponCollider() const { return mWeaponCollider; }

$LN3:
  00000	48 89 4c 24 08	 mov	 QWORD PTR [rsp+8], rcx
  00005	55		 push	 rbp
  00006	57		 push	 rdi
  00007	48 81 ec c8 00
	00 00		 sub	 rsp, 200		; 000000c8H
  0000e	48 8b ec	 mov	 rbp, rsp
  00011	48 8b fc	 mov	 rdi, rsp
  00014	b9 32 00 00 00	 mov	 ecx, 50			; 00000032H
  00019	b8 cc cc cc cc	 mov	 eax, -858993460		; ccccccccH
  0001e	f3 ab		 rep stosd
  00020	48 8b 8c 24 e8
	00 00 00	 mov	 rcx, QWORD PTR [rsp+232]
  00028	48 8b 85 e0 00
	00 00		 mov	 rax, QWORD PTR this$[rbp]
  0002f	48 8b 80 d0 00
	00 00		 mov	 rax, QWORD PTR [rax+208]
  00036	48 8d a5 c8 00
	00 00		 lea	 rsp, QWORD PTR [rbp+200]
  0003d	5f		 pop	 rdi
  0003e	5d		 pop	 rbp
  0003f	c3		 ret	 0
?GetWeaponCollider@CCharacter@Client@@QEBAPEAVCCollider@Engine@@XZ ENDP ; Client::CCharacter::GetWeaponCollider
_TEXT	ENDS
; Function compile flags: /Odtp /RTCsu /ZI
; File c:\github\framework\client\public\character.h
;	COMDAT ?GetBodyCollider@CCharacter@Client@@QEBAPEAVCCollider@Engine@@XZ
_TEXT	SEGMENT
this$ = 224
?GetBodyCollider@CCharacter@Client@@QEBAPEAVCCollider@Engine@@XZ PROC ; Client::CCharacter::GetBodyCollider, COMDAT

; 223  : 	class CCollider* GetBodyCollider() const { return mCollider; };

$LN3:
  00000	48 89 4c 24 08	 mov	 QWORD PTR [rsp+8], rcx
  00005	55		 push	 rbp
  00006	57		 push	 rdi
  00007	48 81 ec c8 00
	00 00		 sub	 rsp, 200		; 000000c8H
  0000e	48 8b ec	 mov	 rbp, rsp
  00011	48 8b fc	 mov	 rdi, rsp
  00014	b9 32 00 00 00	 mov	 ecx, 50			; 00000032H
  00019	b8 cc cc cc cc	 mov	 eax, -858993460		; ccccccccH
  0001e	f3 ab		 rep stosd
  00020	48 8b 8c 24 e8
	00 00 00	 mov	 rcx, QWORD PTR [rsp+232]
  00028	48 8b 85 e0 00
	00 00		 mov	 rax, QWORD PTR this$[rbp]
  0002f	48 8b 80 b0 00
	00 00		 mov	 rax, QWORD PTR [rax+176]
  00036	48 8d a5 c8 00
	00 00		 lea	 rsp, QWORD PTR [rbp+200]
  0003d	5f		 pop	 rdi
  0003e	5d		 pop	 rbp
  0003f	c3		 ret	 0
?GetBodyCollider@CCharacter@Client@@QEBAPEAVCCollider@Engine@@XZ ENDP ; Client::CCharacter::GetBodyCollider
_TEXT	ENDS
; Function compile flags: /Odtp /RTCsu /ZI
; File c:\github\framework\client\public\character.h
;	COMDAT ?AddCombo@CCharacter@Client@@QEAAXXZ
_TEXT	SEGMENT
this$ = 224
?AddCombo@CCharacter@Client@@QEAAXXZ PROC		; Client::CCharacter::AddCombo, COMDAT

; 161  : 	void AddCombo() { m_iComboCount++; }

$LN3:
  00000	48 89 4c 24 08	 mov	 QWORD PTR [rsp+8], rcx
  00005	55		 push	 rbp
  00006	57		 push	 rdi
  00007	48 81 ec c8 00
	00 00		 sub	 rsp, 200		; 000000c8H
  0000e	48 8b ec	 mov	 rbp, rsp
  00011	48 8b fc	 mov	 rdi, rsp
  00014	b9 32 00 00 00	 mov	 ecx, 50			; 00000032H
  00019	b8 cc cc cc cc	 mov	 eax, -858993460		; ccccccccH
  0001e	f3 ab		 rep stosd
  00020	48 8b 8c 24 e8
	00 00 00	 mov	 rcx, QWORD PTR [rsp+232]
  00028	48 8b 85 e0 00
	00 00		 mov	 rax, QWORD PTR this$[rbp]
  0002f	8b 80 c0 02 00
	00		 mov	 eax, DWORD PTR [rax+704]
  00035	ff c0		 inc	 eax
  00037	48 8b 8d e0 00
	00 00		 mov	 rcx, QWORD PTR this$[rbp]
  0003e	89 81 c0 02 00
	00		 mov	 DWORD PTR [rcx+704], eax
  00044	48 8d a5 c8 00
	00 00		 lea	 rsp, QWORD PTR [rbp+200]
  0004b	5f		 pop	 rdi
  0004c	5d		 pop	 rbp
  0004d	c3		 ret	 0
?AddCombo@CCharacter@Client@@QEAAXXZ ENDP		; Client::CCharacter::AddCombo
_TEXT	ENDS
; Function compile flags: /Odtp /RTCsu /ZI
; File c:\github\framework\client\public\character.h
;	COMDAT ?ResetComboTime@CCharacter@Client@@QEAAXXZ
_TEXT	SEGMENT
this$ = 224
?ResetComboTime@CCharacter@Client@@QEAAXXZ PROC		; Client::CCharacter::ResetComboTime, COMDAT

; 160  : 	void ResetComboTime() { m_fCurComboTimer = 0.f; }

$LN3:
  00000	48 89 4c 24 08	 mov	 QWORD PTR [rsp+8], rcx
  00005	55		 push	 rbp
  00006	57		 push	 rdi
  00007	48 81 ec c8 00
	00 00		 sub	 rsp, 200		; 000000c8H
  0000e	48 8b ec	 mov	 rbp, rsp
  00011	48 8b fc	 mov	 rdi, rsp
  00014	b9 32 00 00 00	 mov	 ecx, 50			; 00000032H
  00019	b8 cc cc cc cc	 mov	 eax, -858993460		; ccccccccH
  0001e	f3 ab		 rep stosd
  00020	48 8b 8c 24 e8
	00 00 00	 mov	 rcx, QWORD PTR [rsp+232]
  00028	48 8b 85 e0 00
	00 00		 mov	 rax, QWORD PTR this$[rbp]
  0002f	0f 57 c0	 xorps	 xmm0, xmm0
  00032	f3 0f 11 80 c4
	02 00 00	 movss	 DWORD PTR [rax+708], xmm0
  0003a	48 8d a5 c8 00
	00 00		 lea	 rsp, QWORD PTR [rbp+200]
  00041	5f		 pop	 rdi
  00042	5d		 pop	 rbp
  00043	c3		 ret	 0
?ResetComboTime@CCharacter@Client@@QEAAXXZ ENDP		; Client::CCharacter::ResetComboTime
_TEXT	ENDS
; Function compile flags: /Odtp /RTCsu /ZI
; File c:\github\framework\client\public\playercamera.h
;	COMDAT ?GetCollider@CPlayerCamera@Client@@QEAAPEAVCCollider@Engine@@XZ
_TEXT	SEGMENT
this$ = 224
?GetCollider@CPlayerCamera@Client@@QEAAPEAVCCollider@Engine@@XZ PROC ; Client::CPlayerCamera::GetCollider, COMDAT

; 27   : 	CCollider* GetCollider() { return m_pCollider; }

$LN3:
  00000	48 89 4c 24 08	 mov	 QWORD PTR [rsp+8], rcx
  00005	55		 push	 rbp
  00006	57		 push	 rdi
  00007	48 81 ec c8 00
	00 00		 sub	 rsp, 200		; 000000c8H
  0000e	48 8b ec	 mov	 rbp, rsp
  00011	48 8b fc	 mov	 rdi, rsp
  00014	b9 32 00 00 00	 mov	 ecx, 50			; 00000032H
  00019	b8 cc cc cc cc	 mov	 eax, -858993460		; ccccccccH
  0001e	f3 ab		 rep stosd
  00020	48 8b 8c 24 e8
	00 00 00	 mov	 rcx, QWORD PTR [rsp+232]
  00028	48 8b 85 e0 00
	00 00		 mov	 rax, QWORD PTR this$[rbp]
  0002f	48 8b 80 30 01
	00 00		 mov	 rax, QWORD PTR [rax+304]
  00036	48 8d a5 c8 00
	00 00		 lea	 rsp, QWORD PTR [rbp+200]
  0003d	5f		 pop	 rdi
  0003e	5d		 pop	 rbp
  0003f	c3		 ret	 0
?GetCollider@CPlayerCamera@Client@@QEAAPEAVCCollider@Engine@@XZ ENDP ; Client::CPlayerCamera::GetCollider
_TEXT	ENDS
; Function compile flags: /Odtp /RTCsu /ZI
; File c:\github\framework\client\public\applicationmanager.h
;	COMDAT ?SetHitFreeze@CApplicationManager@Client@@QEAAX_N@Z
_TEXT	SEGMENT
this$ = 224
value$ = 232
?SetHitFreeze@CApplicationManager@Client@@QEAAX_N@Z PROC ; Client::CApplicationManager::SetHitFreeze, COMDAT

; 26   : 	void SetHitFreeze(_bool value) { m_bHitFreeze = value; }

$LN3:
  00000	88 54 24 10	 mov	 BYTE PTR [rsp+16], dl
  00004	48 89 4c 24 08	 mov	 QWORD PTR [rsp+8], rcx
  00009	55		 push	 rbp
  0000a	57		 push	 rdi
  0000b	48 81 ec c8 00
	00 00		 sub	 rsp, 200		; 000000c8H
  00012	48 8b ec	 mov	 rbp, rsp
  00015	48 8b fc	 mov	 rdi, rsp
  00018	b9 32 00 00 00	 mov	 ecx, 50			; 00000032H
  0001d	b8 cc cc cc cc	 mov	 eax, -858993460		; ccccccccH
  00022	f3 ab		 rep stosd
  00024	48 8b 8c 24 e8
	00 00 00	 mov	 rcx, QWORD PTR [rsp+232]
  0002c	48 8b 85 e0 00
	00 00		 mov	 rax, QWORD PTR this$[rbp]
  00033	0f b6 8d e8 00
	00 00		 movzx	 ecx, BYTE PTR value$[rbp]
  0003a	88 48 48	 mov	 BYTE PTR [rax+72], cl
  0003d	48 8d a5 c8 00
	00 00		 lea	 rsp, QWORD PTR [rbp+200]
  00044	5f		 pop	 rdi
  00045	5d		 pop	 rbp
  00046	c3		 ret	 0
?SetHitFreeze@CApplicationManager@Client@@QEAAX_N@Z ENDP ; Client::CApplicationManager::SetHitFreeze
_TEXT	ENDS
; Function compile flags: /Odtp /RTCsu /ZI
; File c:\github\framework\client\public\applicationmanager.h
;	COMDAT ?IsFreeze@CApplicationManager@Client@@QEBA_NXZ
_TEXT	SEGMENT
this$ = 224
?IsFreeze@CApplicationManager@Client@@QEBA_NXZ PROC	; Client::CApplicationManager::IsFreeze, COMDAT

; 22   : 	_bool IsFreeze() const { return m_bFreeze; }

$LN3:
  00000	48 89 4c 24 08	 mov	 QWORD PTR [rsp+8], rcx
  00005	55		 push	 rbp
  00006	57		 push	 rdi
  00007	48 81 ec c8 00
	00 00		 sub	 rsp, 200		; 000000c8H
  0000e	48 8b ec	 mov	 rbp, rsp
  00011	48 8b fc	 mov	 rdi, rsp
  00014	b9 32 00 00 00	 mov	 ecx, 50			; 00000032H
  00019	b8 cc cc cc cc	 mov	 eax, -858993460		; ccccccccH
  0001e	f3 ab		 rep stosd
  00020	48 8b 8c 24 e8
	00 00 00	 mov	 rcx, QWORD PTR [rsp+232]
  00028	48 8b 85 e0 00
	00 00		 mov	 rax, QWORD PTR this$[rbp]
  0002f	0f b6 40 38	 movzx	 eax, BYTE PTR [rax+56]
  00033	48 8d a5 c8 00
	00 00		 lea	 rsp, QWORD PTR [rbp+200]
  0003a	5f		 pop	 rdi
  0003b	5d		 pop	 rbp
  0003c	c3		 ret	 0
?IsFreeze@CApplicationManager@Client@@QEBA_NXZ ENDP	; Client::CApplicationManager::IsFreeze
_TEXT	ENDS
; Function compile flags: /Odtp /RTCsu /ZI
;	COMDAT ??_GCEnemy@Client@@UEAAPEAXI@Z
_TEXT	SEGMENT
this$ = 224
__flags$ = 232
??_GCEnemy@Client@@UEAAPEAXI@Z PROC			; Client::CEnemy::`scalar deleting destructor', COMDAT
$LN4:
  00000	89 54 24 10	 mov	 DWORD PTR [rsp+16], edx
  00004	48 89 4c 24 08	 mov	 QWORD PTR [rsp+8], rcx
  00009	55		 push	 rbp
  0000a	57		 push	 rdi
  0000b	48 81 ec e8 00
	00 00		 sub	 rsp, 232		; 000000e8H
  00012	48 8d 6c 24 20	 lea	 rbp, QWORD PTR [rsp+32]
  00017	48 8b fc	 mov	 rdi, rsp
  0001a	b9 3a 00 00 00	 mov	 ecx, 58			; 0000003aH
  0001f	b8 cc cc cc cc	 mov	 eax, -858993460		; ccccccccH
  00024	f3 ab		 rep stosd
  00026	48 8b 8c 24 08
	01 00 00	 mov	 rcx, QWORD PTR [rsp+264]
  0002e	48 8b 8d e0 00
	00 00		 mov	 rcx, QWORD PTR this$[rbp]
  00035	e8 00 00 00 00	 call	 ??1CEnemy@Client@@UEAA@XZ ; Client::CEnemy::~CEnemy
  0003a	8b 85 e8 00 00
	00		 mov	 eax, DWORD PTR __flags$[rbp]
  00040	83 e0 01	 and	 eax, 1
  00043	85 c0		 test	 eax, eax
  00045	74 11		 je	 SHORT $LN2@scalar
  00047	ba d8 01 00 00	 mov	 edx, 472		; 000001d8H
  0004c	48 8b 8d e0 00
	00 00		 mov	 rcx, QWORD PTR this$[rbp]
  00053	e8 00 00 00 00	 call	 ??3@YAXPEAX_K@Z		; operator delete
$LN2@scalar:
  00058	48 8b 85 e0 00
	00 00		 mov	 rax, QWORD PTR this$[rbp]
  0005f	48 8d a5 c8 00
	00 00		 lea	 rsp, QWORD PTR [rbp+200]
  00066	5f		 pop	 rdi
  00067	5d		 pop	 rbp
  00068	c3		 ret	 0
??_GCEnemy@Client@@UEAAPEAXI@Z ENDP			; Client::CEnemy::`scalar deleting destructor'
_TEXT	ENDS
; Function compile flags: /Odtp /RTCsu /ZI
; File c:\github\framework\client\private\enemy.cpp
;	COMDAT ?Free@CEnemy@Client@@UEAAXXZ
_TEXT	SEGMENT
this$ = 224
?Free@CEnemy@Client@@UEAAXXZ PROC			; Client::CEnemy::Free, COMDAT

; 953  : {

$LN3:
  00000	48 89 4c 24 08	 mov	 QWORD PTR [rsp+8], rcx
  00005	55		 push	 rbp
  00006	57		 push	 rdi
  00007	48 81 ec e8 00
	00 00		 sub	 rsp, 232		; 000000e8H
  0000e	48 8d 6c 24 20	 lea	 rbp, QWORD PTR [rsp+32]
  00013	48 8b fc	 mov	 rdi, rsp
  00016	b9 3a 00 00 00	 mov	 ecx, 58			; 0000003aH
  0001b	b8 cc cc cc cc	 mov	 eax, -858993460		; ccccccccH
  00020	f3 ab		 rep stosd
  00022	48 8b 8c 24 08
	01 00 00	 mov	 rcx, QWORD PTR [rsp+264]

; 954  : 	__super::Free();

  0002a	48 8b 8d e0 00
	00 00		 mov	 rcx, QWORD PTR this$[rbp]
  00031	ff 15 00 00 00
	00		 call	 QWORD PTR __imp_?Free@CGameObject@Engine@@UEAAXXZ

; 955  : 
; 956  : 	s_iCount--;

  00037	8b 05 00 00 00
	00		 mov	 eax, DWORD PTR ?s_iCount@CEnemy@Client@@0IA ; Client::CEnemy::s_iCount
  0003d	ff c8		 dec	 eax
  0003f	89 05 00 00 00
	00		 mov	 DWORD PTR ?s_iCount@CEnemy@Client@@0IA, eax ; Client::CEnemy::s_iCount

; 957  : 
; 958  : 	Safe_Release(renderer);

  00045	48 8b 85 e0 00
	00 00		 mov	 rax, QWORD PTR this$[rbp]
  0004c	48 05 90 00 00
	00		 add	 rax, 144		; 00000090H
  00052	48 8b c8	 mov	 rcx, rax
  00055	e8 00 00 00 00	 call	 ??$Safe_Release@PEAVCRenderer@Engine@@@Engine@@YAKAEAPEAVCRenderer@0@@Z ; Engine::Safe_Release<Engine::CRenderer * __ptr64>

; 959  : 	Safe_Release(transform);

  0005a	48 8b 85 e0 00
	00 00		 mov	 rax, QWORD PTR this$[rbp]
  00061	48 05 98 00 00
	00		 add	 rax, 152		; 00000098H
  00067	48 8b c8	 mov	 rcx, rax
  0006a	e8 00 00 00 00	 call	 ??$Safe_Release@PEAVCTransform@Engine@@@Engine@@YAKAEAPEAVCTransform@0@@Z ; Engine::Safe_Release<Engine::CTransform * __ptr64>

; 960  : 	Safe_Release(model);

  0006f	48 8b 85 e0 00
	00 00		 mov	 rax, QWORD PTR this$[rbp]
  00076	48 05 a0 00 00
	00		 add	 rax, 160		; 000000a0H
  0007c	48 8b c8	 mov	 rcx, rax
  0007f	e8 00 00 00 00	 call	 ??$Safe_Release@PEAVCModel@Engine@@@Engine@@YAKAEAPEAVCModel@0@@Z ; Engine::Safe_Release<Engine::CModel * __ptr64>

; 961  : 	Safe_Release(shader);

  00084	48 8b 85 e0 00
	00 00		 mov	 rax, QWORD PTR this$[rbp]
  0008b	48 05 a8 00 00
	00		 add	 rax, 168		; 000000a8H
  00091	48 8b c8	 mov	 rcx, rax
  00094	e8 00 00 00 00	 call	 ??$Safe_Release@PEAVCShader@Engine@@@Engine@@YAKAEAPEAVCShader@0@@Z ; Engine::Safe_Release<Engine::CShader * __ptr64>

; 962  : 	Safe_Release(collider);

  00099	48 8b 85 e0 00
	00 00		 mov	 rax, QWORD PTR this$[rbp]
  000a0	48 05 b0 00 00
	00		 add	 rax, 176		; 000000b0H
  000a6	48 8b c8	 mov	 rcx, rax
  000a9	e8 00 00 00 00	 call	 ??$Safe_Release@PEAVCCollider@Engine@@@Engine@@YAKAEAPEAVCCollider@0@@Z ; Engine::Safe_Release<Engine::CCollider * __ptr64>

; 963  : 	Safe_Release(m_pOverlapCollider);

  000ae	48 8b 85 e0 00
	00 00		 mov	 rax, QWORD PTR this$[rbp]
  000b5	48 05 b8 00 00
	00		 add	 rax, 184		; 000000b8H
  000bb	48 8b c8	 mov	 rcx, rax
  000be	e8 00 00 00 00	 call	 ??$Safe_Release@PEAVCCollider@Engine@@@Engine@@YAKAEAPEAVCCollider@0@@Z ; Engine::Safe_Release<Engine::CCollider * __ptr64>

; 964  : }

  000c3	48 8d a5 c8 00
	00 00		 lea	 rsp, QWORD PTR [rbp+200]
  000ca	5f		 pop	 rdi
  000cb	5d		 pop	 rbp
  000cc	c3		 ret	 0
?Free@CEnemy@Client@@UEAAXXZ ENDP			; Client::CEnemy::Free
_TEXT	ENDS
; Function compile flags: /Odtp /RTCsu /ZI
; File c:\github\framework\client\private\enemy.cpp
;	COMDAT ?Clone@CEnemy@Client@@UEAAPEAVCGameObject@Engine@@PEAX@Z
_TEXT	SEGMENT
pInstance$ = 8
$T4 = 232
$T5 = 264
$T6 = 296
tv83 = 312
__$ArrayPad$ = 320
this$ = 368
pArg$ = 376
?Clone@CEnemy@Client@@UEAAPEAVCGameObject@Engine@@PEAX@Z PROC ; Client::CEnemy::Clone, COMDAT

; 941  : {

$LN7:
  00000	48 89 54 24 10	 mov	 QWORD PTR [rsp+16], rdx
  00005	48 89 4c 24 08	 mov	 QWORD PTR [rsp+8], rcx
  0000a	55		 push	 rbp
  0000b	57		 push	 rdi
  0000c	48 81 ec 78 01
	00 00		 sub	 rsp, 376		; 00000178H
  00013	48 8d 6c 24 20	 lea	 rbp, QWORD PTR [rsp+32]
  00018	48 8b fc	 mov	 rdi, rsp
  0001b	b9 5e 00 00 00	 mov	 ecx, 94			; 0000005eH
  00020	b8 cc cc cc cc	 mov	 eax, -858993460		; ccccccccH
  00025	f3 ab		 rep stosd
  00027	48 8b 8c 24 98
	01 00 00	 mov	 rcx, QWORD PTR [rsp+408]
  0002f	48 c7 85 28 01
	00 00 fe ff ff
	ff		 mov	 QWORD PTR $T6[rbp], -2
  0003a	48 8b 05 00 00
	00 00		 mov	 rax, QWORD PTR __security_cookie
  00041	48 33 c5	 xor	 rax, rbp
  00044	48 89 85 40 01
	00 00		 mov	 QWORD PTR __$ArrayPad$[rbp], rax

; 942  : 	CEnemy* pInstance = new CEnemy(*this);

  0004b	8b 05 00 00 00
	00		 mov	 eax, DWORD PTR ?__LINE__Var@?0??Clone@CEnemy@Client@@UEAAPEAVCGameObject@Engine@@PEAX@Z@4JA
  00051	ff c0		 inc	 eax
  00053	44 8b c8	 mov	 r9d, eax
  00056	4c 8d 05 00 00
	00 00		 lea	 r8, OFFSET FLAT:??_C@_0CN@NPIBGABL@c?3?2github?2framework?2client?2priva@
  0005d	ba 01 00 00 00	 mov	 edx, 1
  00062	b9 d8 01 00 00	 mov	 ecx, 472		; 000001d8H
  00067	e8 00 00 00 00	 call	 ??2@YAPEAX_KHPEBDH@Z	; operator new
  0006c	48 89 85 08 01
	00 00		 mov	 QWORD PTR $T5[rbp], rax
  00073	48 83 bd 08 01
	00 00 00	 cmp	 QWORD PTR $T5[rbp], 0
  0007b	74 1c		 je	 SHORT $LN4@Clone
  0007d	48 8b 95 70 01
	00 00		 mov	 rdx, QWORD PTR this$[rbp]
  00084	48 8b 8d 08 01
	00 00		 mov	 rcx, QWORD PTR $T5[rbp]
  0008b	e8 00 00 00 00	 call	 ??0CEnemy@Client@@QEAA@AEBV01@@Z ; Client::CEnemy::CEnemy
  00090	48 89 85 38 01
	00 00		 mov	 QWORD PTR tv83[rbp], rax
  00097	eb 0b		 jmp	 SHORT $LN5@Clone
$LN4@Clone:
  00099	48 c7 85 38 01
	00 00 00 00 00
	00		 mov	 QWORD PTR tv83[rbp], 0
$LN5@Clone:
  000a4	48 8b 85 38 01
	00 00		 mov	 rax, QWORD PTR tv83[rbp]
  000ab	48 89 85 e8 00
	00 00		 mov	 QWORD PTR $T4[rbp], rax
  000b2	48 8b 85 e8 00
	00 00		 mov	 rax, QWORD PTR $T4[rbp]
  000b9	48 89 45 08	 mov	 QWORD PTR pInstance$[rbp], rax

; 943  : 	if (FAILED(pInstance->Initialize(pArg)))

  000bd	48 8b 95 78 01
	00 00		 mov	 rdx, QWORD PTR pArg$[rbp]
  000c4	48 8b 4d 08	 mov	 rcx, QWORD PTR pInstance$[rbp]
  000c8	e8 00 00 00 00	 call	 ?Initialize@CEnemy@Client@@UEAAJPEAX@Z ; Client::CEnemy::Initialize
  000cd	85 c0		 test	 eax, eax
  000cf	7d 22		 jge	 SHORT $LN2@Clone

; 944  : 	{
; 945  : 		MSG_BOX("Failed to Clone : CEnemy");

  000d1	45 33 c9	 xor	 r9d, r9d
  000d4	4c 8d 05 00 00
	00 00		 lea	 r8, OFFSET FLAT:??_C@_1BA@HHOMBECE@?$AAM?$AAe?$AAs?$AAs?$AAa?$AAg?$AAe?$AA?$AA@
  000db	48 8d 15 00 00
	00 00		 lea	 rdx, OFFSET FLAT:??_C@_1DC@DLCINEP@?$AAF?$AAa?$AAi?$AAl?$AAe?$AAd?$AA?5?$AAt?$AAo?$AA?5?$AAC?$AAl?$AAo?$AAn?$AAe?$AA?5?$AA?3?$AA?5?$AAC?$AAE?$AAn?$AAe?$AAm?$AAy?$AA?$AA@
  000e2	33 c9		 xor	 ecx, ecx
  000e4	ff 15 00 00 00
	00		 call	 QWORD PTR __imp_MessageBoxW

; 946  : 		Safe_Release(pInstance);

  000ea	48 8d 4d 08	 lea	 rcx, QWORD PTR pInstance$[rbp]
  000ee	e8 00 00 00 00	 call	 ??$Safe_Release@PEAVCEnemy@Client@@@Engine@@YAKAEAPEAVCEnemy@Client@@@Z ; Engine::Safe_Release<Client::CEnemy * __ptr64>
$LN2@Clone:

; 947  : 	}
; 948  : 
; 949  : 	return pInstance;

  000f3	48 8b 45 08	 mov	 rax, QWORD PTR pInstance$[rbp]

; 950  : }

  000f7	48 8b f8	 mov	 rdi, rax
  000fa	48 8d 4d e0	 lea	 rcx, QWORD PTR [rbp-32]
  000fe	48 8d 15 00 00
	00 00		 lea	 rdx, OFFSET FLAT:?Clone@CEnemy@Client@@UEAAPEAVCGameObject@Engine@@PEAX@Z$rtcFrameData
  00105	e8 00 00 00 00	 call	 _RTC_CheckStackVars
  0010a	48 8b c7	 mov	 rax, rdi
  0010d	48 8b 8d 40 01
	00 00		 mov	 rcx, QWORD PTR __$ArrayPad$[rbp]
  00114	48 33 cd	 xor	 rcx, rbp
  00117	e8 00 00 00 00	 call	 __security_check_cookie
  0011c	48 8d a5 58 01
	00 00		 lea	 rsp, QWORD PTR [rbp+344]
  00123	5f		 pop	 rdi
  00124	5d		 pop	 rbp
  00125	c3		 ret	 0
?Clone@CEnemy@Client@@UEAAPEAVCGameObject@Engine@@PEAX@Z ENDP ; Client::CEnemy::Clone
_TEXT	ENDS
;	COMDAT text$x
text$x	SEGMENT
pInstance$ = 8
$T4 = 232
$T5 = 264
$T6 = 296
tv83 = 312
__$ArrayPad$ = 320
this$ = 368
pArg$ = 376
?dtor$0@?0??Clone@CEnemy@Client@@UEAAPEAVCGameObject@Engine@@PEAX@Z@4HA PROC ; `Client::CEnemy::Clone'::`1'::dtor$0
  00000	48 89 4c 24 08	 mov	 QWORD PTR [rsp+8], rcx
  00005	48 89 54 24 10	 mov	 QWORD PTR [rsp+16], rdx
  0000a	55		 push	 rbp
  0000b	57		 push	 rdi
  0000c	48 83 ec 28	 sub	 rsp, 40			; 00000028H
  00010	48 8d 6a 20	 lea	 rbp, QWORD PTR [rdx+32]
  00014	44 8b 0d 00 00
	00 00		 mov	 r9d, DWORD PTR ?__LINE__Var@?0??Clone@CEnemy@Client@@UEAAPEAVCGameObject@Engine@@PEAX@Z@4JA
  0001b	41 ff c1	 inc	 r9d
  0001e	4c 8d 05 00 00
	00 00		 lea	 r8, OFFSET FLAT:??_C@_0CN@NPIBGABL@c?3?2github?2framework?2client?2priva@
  00025	ba 01 00 00 00	 mov	 edx, 1
  0002a	48 8b 8d 08 01
	00 00		 mov	 rcx, QWORD PTR $T5[rbp]
  00031	e8 00 00 00 00	 call	 ??3@YAXPEAXHPEBDH@Z	; operator delete
  00036	48 83 c4 28	 add	 rsp, 40			; 00000028H
  0003a	5f		 pop	 rdi
  0003b	5d		 pop	 rbp
  0003c	c3		 ret	 0
?dtor$0@?0??Clone@CEnemy@Client@@UEAAPEAVCGameObject@Engine@@PEAX@Z@4HA ENDP ; `Client::CEnemy::Clone'::`1'::dtor$0
text$x	ENDS
; Function compile flags: /Odtp /RTCsu /ZI
;	COMDAT text$x
text$x	SEGMENT
pInstance$ = 8
$T4 = 232
$T5 = 264
$T6 = 296
tv83 = 312
__$ArrayPad$ = 320
this$ = 368
pArg$ = 376
?dtor$0@?0??Clone@CEnemy@Client@@UEAAPEAVCGameObject@Engine@@PEAX@Z@4HA PROC ; `Client::CEnemy::Clone'::`1'::dtor$0
  00000	48 89 4c 24 08	 mov	 QWORD PTR [rsp+8], rcx
  00005	48 89 54 24 10	 mov	 QWORD PTR [rsp+16], rdx
  0000a	55		 push	 rbp
  0000b	57		 push	 rdi
  0000c	48 83 ec 28	 sub	 rsp, 40			; 00000028H
  00010	48 8d 6a 20	 lea	 rbp, QWORD PTR [rdx+32]
  00014	44 8b 0d 00 00
	00 00		 mov	 r9d, DWORD PTR ?__LINE__Var@?0??Clone@CEnemy@Client@@UEAAPEAVCGameObject@Engine@@PEAX@Z@4JA
  0001b	41 ff c1	 inc	 r9d
  0001e	4c 8d 05 00 00
	00 00		 lea	 r8, OFFSET FLAT:??_C@_0CN@NPIBGABL@c?3?2github?2framework?2client?2priva@
  00025	ba 01 00 00 00	 mov	 edx, 1
  0002a	48 8b 8d 08 01
	00 00		 mov	 rcx, QWORD PTR $T5[rbp]
  00031	e8 00 00 00 00	 call	 ??3@YAXPEAXHPEBDH@Z	; operator delete
  00036	48 83 c4 28	 add	 rsp, 40			; 00000028H
  0003a	5f		 pop	 rdi
  0003b	5d		 pop	 rbp
  0003c	c3		 ret	 0
?dtor$0@?0??Clone@CEnemy@Client@@UEAAPEAVCGameObject@Engine@@PEAX@Z@4HA ENDP ; `Client::CEnemy::Clone'::`1'::dtor$0
text$x	ENDS
; Function compile flags: /Odtp /RTCsu /ZI
; File c:\github\framework\client\private\enemy.cpp
;	COMDAT ?Create@CEnemy@Client@@SAPEAV12@PEAUID3D11Device@@PEAUID3D11DeviceContext@@W4TYPE@12@@Z
_TEXT	SEGMENT
pInstance$ = 8
$T4 = 232
$T5 = 264
$T6 = 296
tv84 = 312
__$ArrayPad$ = 320
pDevice$ = 368
pContext$ = 376
eType$ = 384
?Create@CEnemy@Client@@SAPEAV12@PEAUID3D11Device@@PEAUID3D11DeviceContext@@W4TYPE@12@@Z PROC ; Client::CEnemy::Create, COMDAT

; 929  : {

$LN7:
  00000	44 89 44 24 18	 mov	 DWORD PTR [rsp+24], r8d
  00005	48 89 54 24 10	 mov	 QWORD PTR [rsp+16], rdx
  0000a	48 89 4c 24 08	 mov	 QWORD PTR [rsp+8], rcx
  0000f	55		 push	 rbp
  00010	57		 push	 rdi
  00011	48 81 ec 78 01
	00 00		 sub	 rsp, 376		; 00000178H
  00018	48 8d 6c 24 20	 lea	 rbp, QWORD PTR [rsp+32]
  0001d	48 8b fc	 mov	 rdi, rsp
  00020	b9 5e 00 00 00	 mov	 ecx, 94			; 0000005eH
  00025	b8 cc cc cc cc	 mov	 eax, -858993460		; ccccccccH
  0002a	f3 ab		 rep stosd
  0002c	48 8b 8c 24 98
	01 00 00	 mov	 rcx, QWORD PTR [rsp+408]
  00034	48 c7 85 28 01
	00 00 fe ff ff
	ff		 mov	 QWORD PTR $T6[rbp], -2
  0003f	48 8b 05 00 00
	00 00		 mov	 rax, QWORD PTR __security_cookie
  00046	48 33 c5	 xor	 rax, rbp
  00049	48 89 85 40 01
	00 00		 mov	 QWORD PTR __$ArrayPad$[rbp], rax

; 930  : 	CEnemy*	pInstance = new CEnemy(pDevice, pContext);

  00050	8b 05 00 00 00
	00		 mov	 eax, DWORD PTR ?__LINE__Var@?0??Create@CEnemy@Client@@SAPEAV23@PEAUID3D11Device@@PEAUID3D11DeviceContext@@W4TYPE@23@@Z@4JA
  00056	ff c0		 inc	 eax
  00058	44 8b c8	 mov	 r9d, eax
  0005b	4c 8d 05 00 00
	00 00		 lea	 r8, OFFSET FLAT:??_C@_0CN@NPIBGABL@c?3?2github?2framework?2client?2priva@
  00062	ba 01 00 00 00	 mov	 edx, 1
  00067	b9 d8 01 00 00	 mov	 ecx, 472		; 000001d8H
  0006c	e8 00 00 00 00	 call	 ??2@YAPEAX_KHPEBDH@Z	; operator new
  00071	48 89 85 08 01
	00 00		 mov	 QWORD PTR $T5[rbp], rax
  00078	48 83 bd 08 01
	00 00 00	 cmp	 QWORD PTR $T5[rbp], 0
  00080	74 23		 je	 SHORT $LN4@Create
  00082	4c 8b 85 78 01
	00 00		 mov	 r8, QWORD PTR pContext$[rbp]
  00089	48 8b 95 70 01
	00 00		 mov	 rdx, QWORD PTR pDevice$[rbp]
  00090	48 8b 8d 08 01
	00 00		 mov	 rcx, QWORD PTR $T5[rbp]
  00097	e8 00 00 00 00	 call	 ??0CEnemy@Client@@QEAA@PEAUID3D11Device@@PEAUID3D11DeviceContext@@@Z ; Client::CEnemy::CEnemy
  0009c	48 89 85 38 01
	00 00		 mov	 QWORD PTR tv84[rbp], rax
  000a3	eb 0b		 jmp	 SHORT $LN5@Create
$LN4@Create:
  000a5	48 c7 85 38 01
	00 00 00 00 00
	00		 mov	 QWORD PTR tv84[rbp], 0
$LN5@Create:
  000b0	48 8b 85 38 01
	00 00		 mov	 rax, QWORD PTR tv84[rbp]
  000b7	48 89 85 e8 00
	00 00		 mov	 QWORD PTR $T4[rbp], rax
  000be	48 8b 85 e8 00
	00 00		 mov	 rax, QWORD PTR $T4[rbp]
  000c5	48 89 45 08	 mov	 QWORD PTR pInstance$[rbp], rax

; 931  : 	if (FAILED(pInstance->Initialize_Prototype(eType)))

  000c9	8b 95 80 01 00
	00		 mov	 edx, DWORD PTR eType$[rbp]
  000cf	48 8b 4d 08	 mov	 rcx, QWORD PTR pInstance$[rbp]
  000d3	e8 00 00 00 00	 call	 ?Initialize_Prototype@CEnemy@Client@@UEAAJW4TYPE@12@@Z ; Client::CEnemy::Initialize_Prototype
  000d8	85 c0		 test	 eax, eax
  000da	7d 22		 jge	 SHORT $LN2@Create

; 932  : 	{
; 933  : 		MSG_BOX("Failed to Create : CEnemy");

  000dc	45 33 c9	 xor	 r9d, r9d
  000df	4c 8d 05 00 00
	00 00		 lea	 r8, OFFSET FLAT:??_C@_1BA@HHOMBECE@?$AAM?$AAe?$AAs?$AAs?$AAa?$AAg?$AAe?$AA?$AA@
  000e6	48 8d 15 00 00
	00 00		 lea	 rdx, OFFSET FLAT:??_C@_1DE@HGPPJNOD@?$AAF?$AAa?$AAi?$AAl?$AAe?$AAd?$AA?5?$AAt?$AAo?$AA?5?$AAC?$AAr?$AAe?$AAa?$AAt?$AAe?$AA?5?$AA?3?$AA?5?$AAC?$AAE?$AAn?$AAe?$AAm?$AAy?$AA?$AA@
  000ed	33 c9		 xor	 ecx, ecx
  000ef	ff 15 00 00 00
	00		 call	 QWORD PTR __imp_MessageBoxW

; 934  : 		Safe_Release(pInstance);

  000f5	48 8d 4d 08	 lea	 rcx, QWORD PTR pInstance$[rbp]
  000f9	e8 00 00 00 00	 call	 ??$Safe_Release@PEAVCEnemy@Client@@@Engine@@YAKAEAPEAVCEnemy@Client@@@Z ; Engine::Safe_Release<Client::CEnemy * __ptr64>
$LN2@Create:

; 935  : 	}
; 936  : 
; 937  : 	return pInstance;

  000fe	48 8b 45 08	 mov	 rax, QWORD PTR pInstance$[rbp]

; 938  : }

  00102	48 8b f8	 mov	 rdi, rax
  00105	48 8d 4d e0	 lea	 rcx, QWORD PTR [rbp-32]
  00109	48 8d 15 00 00
	00 00		 lea	 rdx, OFFSET FLAT:?Create@CEnemy@Client@@SAPEAV12@PEAUID3D11Device@@PEAUID3D11DeviceContext@@W4TYPE@12@@Z$rtcFrameData
  00110	e8 00 00 00 00	 call	 _RTC_CheckStackVars
  00115	48 8b c7	 mov	 rax, rdi
  00118	48 8b 8d 40 01
	00 00		 mov	 rcx, QWORD PTR __$ArrayPad$[rbp]
  0011f	48 33 cd	 xor	 rcx, rbp
  00122	e8 00 00 00 00	 call	 __security_check_cookie
  00127	48 8d a5 58 01
	00 00		 lea	 rsp, QWORD PTR [rbp+344]
  0012e	5f		 pop	 rdi
  0012f	5d		 pop	 rbp
  00130	c3		 ret	 0
?Create@CEnemy@Client@@SAPEAV12@PEAUID3D11Device@@PEAUID3D11DeviceContext@@W4TYPE@12@@Z ENDP ; Client::CEnemy::Create
_TEXT	ENDS
;	COMDAT text$x
text$x	SEGMENT
pInstance$ = 8
$T4 = 232
$T5 = 264
$T6 = 296
tv84 = 312
__$ArrayPad$ = 320
pDevice$ = 368
pContext$ = 376
eType$ = 384
?dtor$0@?0??Create@CEnemy@Client@@SAPEAV12@PEAUID3D11Device@@PEAUID3D11DeviceContext@@W4TYPE@12@@Z@4HA PROC ; `Client::CEnemy::Create'::`1'::dtor$0
  00000	48 89 4c 24 08	 mov	 QWORD PTR [rsp+8], rcx
  00005	48 89 54 24 10	 mov	 QWORD PTR [rsp+16], rdx
  0000a	55		 push	 rbp
  0000b	57		 push	 rdi
  0000c	48 83 ec 28	 sub	 rsp, 40			; 00000028H
  00010	48 8d 6a 20	 lea	 rbp, QWORD PTR [rdx+32]
  00014	44 8b 0d 00 00
	00 00		 mov	 r9d, DWORD PTR ?__LINE__Var@?0??Create@CEnemy@Client@@SAPEAV23@PEAUID3D11Device@@PEAUID3D11DeviceContext@@W4TYPE@23@@Z@4JA
  0001b	41 ff c1	 inc	 r9d
  0001e	4c 8d 05 00 00
	00 00		 lea	 r8, OFFSET FLAT:??_C@_0CN@NPIBGABL@c?3?2github?2framework?2client?2priva@
  00025	ba 01 00 00 00	 mov	 edx, 1
  0002a	48 8b 8d 08 01
	00 00		 mov	 rcx, QWORD PTR $T5[rbp]
  00031	e8 00 00 00 00	 call	 ??3@YAXPEAXHPEBDH@Z	; operator delete
  00036	48 83 c4 28	 add	 rsp, 40			; 00000028H
  0003a	5f		 pop	 rdi
  0003b	5d		 pop	 rbp
  0003c	c3		 ret	 0
?dtor$0@?0??Create@CEnemy@Client@@SAPEAV12@PEAUID3D11Device@@PEAUID3D11DeviceContext@@W4TYPE@12@@Z@4HA ENDP ; `Client::CEnemy::Create'::`1'::dtor$0
text$x	ENDS
; Function compile flags: /Odtp /RTCsu /ZI
;	COMDAT text$x
text$x	SEGMENT
pInstance$ = 8
$T4 = 232
$T5 = 264
$T6 = 296
tv84 = 312
__$ArrayPad$ = 320
pDevice$ = 368
pContext$ = 376
eType$ = 384
?dtor$0@?0??Create@CEnemy@Client@@SAPEAV12@PEAUID3D11Device@@PEAUID3D11DeviceContext@@W4TYPE@12@@Z@4HA PROC ; `Client::CEnemy::Create'::`1'::dtor$0
  00000	48 89 4c 24 08	 mov	 QWORD PTR [rsp+8], rcx
  00005	48 89 54 24 10	 mov	 QWORD PTR [rsp+16], rdx
  0000a	55		 push	 rbp
  0000b	57		 push	 rdi
  0000c	48 83 ec 28	 sub	 rsp, 40			; 00000028H
  00010	48 8d 6a 20	 lea	 rbp, QWORD PTR [rdx+32]
  00014	44 8b 0d 00 00
	00 00		 mov	 r9d, DWORD PTR ?__LINE__Var@?0??Create@CEnemy@Client@@SAPEAV23@PEAUID3D11Device@@PEAUID3D11DeviceContext@@W4TYPE@23@@Z@4JA
  0001b	41 ff c1	 inc	 r9d
  0001e	4c 8d 05 00 00
	00 00		 lea	 r8, OFFSET FLAT:??_C@_0CN@NPIBGABL@c?3?2github?2framework?2client?2priva@
  00025	ba 01 00 00 00	 mov	 edx, 1
  0002a	48 8b 8d 08 01
	00 00		 mov	 rcx, QWORD PTR $T5[rbp]
  00031	e8 00 00 00 00	 call	 ??3@YAXPEAXHPEBDH@Z	; operator delete
  00036	48 83 c4 28	 add	 rsp, 40			; 00000028H
  0003a	5f		 pop	 rdi
  0003b	5d		 pop	 rbp
  0003c	c3		 ret	 0
?dtor$0@?0??Create@CEnemy@Client@@SAPEAV12@PEAUID3D11Device@@PEAUID3D11DeviceContext@@W4TYPE@12@@Z@4HA ENDP ; `Client::CEnemy::Create'::`1'::dtor$0
text$x	ENDS
; Function compile flags: /Odtp /RTCsu /ZI
; File c:\github\framework\client\private\enemy.cpp
;	COMDAT ?OnCollisionExit@CEnemy@Client@@UEAAXPEAVCCollider@Engine@@0@Z
_TEXT	SEGMENT
this$ = 224
src$ = 232
dest$ = 240
?OnCollisionExit@CEnemy@Client@@UEAAXPEAVCCollider@Engine@@0@Z PROC ; Client::CEnemy::OnCollisionExit, COMDAT

; 1077 : {

$LN3:
  00000	4c 89 44 24 18	 mov	 QWORD PTR [rsp+24], r8
  00005	48 89 54 24 10	 mov	 QWORD PTR [rsp+16], rdx
  0000a	48 89 4c 24 08	 mov	 QWORD PTR [rsp+8], rcx
  0000f	55		 push	 rbp
  00010	57		 push	 rdi
  00011	48 81 ec c8 00
	00 00		 sub	 rsp, 200		; 000000c8H
  00018	48 8b ec	 mov	 rbp, rsp
  0001b	48 8b fc	 mov	 rdi, rsp
  0001e	b9 32 00 00 00	 mov	 ecx, 50			; 00000032H
  00023	b8 cc cc cc cc	 mov	 eax, -858993460		; ccccccccH
  00028	f3 ab		 rep stosd
  0002a	48 8b 8c 24 e8
	00 00 00	 mov	 rcx, QWORD PTR [rsp+232]

; 1078 : 	//CEnemy* pEnemy = dynamic_cast<CEnemy*>(src->GetOwner());
; 1079 : 	//CEnemy* pAotherEnemy = dynamic_cast<CEnemy*>(dest->GetOwner());
; 1080 : 
; 1081 : 	////    
; 1082 : 	//if (pEnemy && pAotherEnemy)
; 1083 : 	//{
; 1084 : 	//	pEnemy->SetOverlap(false, _float3());
; 1085 : 	//	pAotherEnemy->SetOverlap(false, _float3());
; 1086 : 	//}
; 1087 : }

  00032	48 8d a5 c8 00
	00 00		 lea	 rsp, QWORD PTR [rbp+200]
  00039	5f		 pop	 rdi
  0003a	5d		 pop	 rbp
  0003b	c3		 ret	 0
?OnCollisionExit@CEnemy@Client@@UEAAXPEAVCCollider@Engine@@0@Z ENDP ; Client::CEnemy::OnCollisionExit
_TEXT	ENDS
; Function compile flags: /Odtp /RTCsu /ZI
; File c:\github\framework\client\private\enemy.cpp
;	COMDAT ?OnCollisionStay@CEnemy@Client@@UEAAXPEAVCCollider@Engine@@0@Z
_TEXT	SEGMENT
pCamera$ = 8
this$ = 256
src$ = 264
dest$ = 272
?OnCollisionStay@CEnemy@Client@@UEAAXPEAVCCollider@Engine@@0@Z PROC ; Client::CEnemy::OnCollisionStay, COMDAT

; 1068 : {

$LN4:
  00000	4c 89 44 24 18	 mov	 QWORD PTR [rsp+24], r8
  00005	48 89 54 24 10	 mov	 QWORD PTR [rsp+16], rdx
  0000a	48 89 4c 24 08	 mov	 QWORD PTR [rsp+8], rcx
  0000f	55		 push	 rbp
  00010	57		 push	 rdi
  00011	48 81 ec 18 01
	00 00		 sub	 rsp, 280		; 00000118H
  00018	48 8d 6c 24 30	 lea	 rbp, QWORD PTR [rsp+48]
  0001d	48 8b fc	 mov	 rdi, rsp
  00020	b9 46 00 00 00	 mov	 ecx, 70			; 00000046H
  00025	b8 cc cc cc cc	 mov	 eax, -858993460		; ccccccccH
  0002a	f3 ab		 rep stosd
  0002c	48 8b 8c 24 38
	01 00 00	 mov	 rcx, QWORD PTR [rsp+312]

; 1069 : 	CPlayerCamera* pCamera = dynamic_cast<CPlayerCamera*>(dest->GetOwner());

  00034	48 8b 8d 10 01
	00 00		 mov	 rcx, QWORD PTR dest$[rbp]
  0003b	ff 15 00 00 00
	00		 call	 QWORD PTR __imp_?GetOwner@CCollider@Engine@@QEBAPEAVCGameObject@2@XZ
  00041	c7 44 24 20 00
	00 00 00	 mov	 DWORD PTR [rsp+32], 0
  00049	4c 8d 0d 00 00
	00 00		 lea	 r9, OFFSET FLAT:??_R0?AVCPlayerCamera@Client@@@8
  00050	4c 8d 05 00 00
	00 00		 lea	 r8, OFFSET FLAT:??_R0?AVCGameObject@Engine@@@8
  00057	33 d2		 xor	 edx, edx
  00059	48 8b c8	 mov	 rcx, rax
  0005c	e8 00 00 00 00	 call	 __RTDynamicCast
  00061	48 89 45 08	 mov	 QWORD PTR pCamera$[rbp], rax

; 1070 : 	if (src->Compare(m_pOverlapCollider) && pCamera && dest->Compare(m_pCamera->GetCollider()))

  00065	48 8b 85 00 01
	00 00		 mov	 rax, QWORD PTR this$[rbp]
  0006c	48 8b 50 38	 mov	 rdx, QWORD PTR [rax+56]
  00070	48 8b 8d 08 01
	00 00		 mov	 rcx, QWORD PTR src$[rbp]
  00077	ff 15 00 00 00
	00		 call	 QWORD PTR __imp_?Compare@CCollider@Engine@@QEAA_NPEAV12@@Z
  0007d	0f b6 c0	 movzx	 eax, al
  00080	85 c0		 test	 eax, eax
  00082	74 3f		 je	 SHORT $LN2@OnCollisio
  00084	48 83 7d 08 00	 cmp	 QWORD PTR pCamera$[rbp], 0
  00089	74 38		 je	 SHORT $LN2@OnCollisio
  0008b	48 8b 85 00 01
	00 00		 mov	 rax, QWORD PTR this$[rbp]
  00092	48 8b 88 50 01
	00 00		 mov	 rcx, QWORD PTR [rax+336]
  00099	e8 00 00 00 00	 call	 ?GetCollider@CPlayerCamera@Client@@QEAAPEAVCCollider@Engine@@XZ ; Client::CPlayerCamera::GetCollider
  0009e	48 8b d0	 mov	 rdx, rax
  000a1	48 8b 8d 10 01
	00 00		 mov	 rcx, QWORD PTR dest$[rbp]
  000a8	ff 15 00 00 00
	00		 call	 QWORD PTR __imp_?Compare@CCollider@Engine@@QEAA_NPEAV12@@Z
  000ae	0f b6 c0	 movzx	 eax, al
  000b1	85 c0		 test	 eax, eax
  000b3	74 0e		 je	 SHORT $LN2@OnCollisio

; 1071 : 	{
; 1072 : 		m_bAlpha = true;

  000b5	48 8b 85 00 01
	00 00		 mov	 rax, QWORD PTR this$[rbp]
  000bc	c6 80 48 01 00
	00 01		 mov	 BYTE PTR [rax+328], 1
$LN2@OnCollisio:

; 1073 : 	}
; 1074 : }

  000c3	48 8d a5 e8 00
	00 00		 lea	 rsp, QWORD PTR [rbp+232]
  000ca	5f		 pop	 rdi
  000cb	5d		 pop	 rbp
  000cc	c3		 ret	 0
?OnCollisionStay@CEnemy@Client@@UEAAXPEAVCCollider@Engine@@0@Z ENDP ; Client::CEnemy::OnCollisionStay
_TEXT	ENDS
; Function compile flags: /Odtp /RTCsu /ZI
; File c:\github\framework\client\private\enemy.cpp
;	COMDAT ?OnCollisionEnter@CEnemy@Client@@UEAAXPEAVCCollider@Engine@@0@Z
_TEXT	SEGMENT
pEnemy$ = 8
pAotherEnemy$ = 40
vSrcDir$4 = 72
vPrevDir$5 = 128
vDir$6 = 176
vDir$7 = 224
pPlayer$ = 264
pWeaponCollider$8 = 296
pBodyCollider$9 = 328
$T10 = 944
$T11 = 992
$T12 = 1040
$T13 = 1088
$T14 = 1124
$T15 = 1184
$T16 = 1232
$T17 = 1268
$T18 = 1328
$T19 = 1376
$T20 = 1424
$T21 = 1472
$T22 = 1508
$T23 = 1568
$T24 = 1604
$T25 = 1664
$T26 = 1712
$T27 = 1760
$T28 = 1808
$T29 = 1856
__$ArrayPad$ = 1880
this$ = 1920
src$ = 1928
dest$ = 1936
?OnCollisionEnter@CEnemy@Client@@UEAAXPEAVCCollider@Engine@@0@Z PROC ; Client::CEnemy::OnCollisionEnter, COMDAT

; 967  : {

$LN19:
  00000	4c 89 44 24 18	 mov	 QWORD PTR [rsp+24], r8
  00005	48 89 54 24 10	 mov	 QWORD PTR [rsp+16], rdx
  0000a	48 89 4c 24 08	 mov	 QWORD PTR [rsp+8], rcx
  0000f	55		 push	 rbp
  00010	56		 push	 rsi
  00011	57		 push	 rdi
  00012	48 81 ec 90 07
	00 00		 sub	 rsp, 1936		; 00000790H
  00019	48 8d 6c 24 30	 lea	 rbp, QWORD PTR [rsp+48]
  0001e	48 8b fc	 mov	 rdi, rsp
  00021	b9 e4 01 00 00	 mov	 ecx, 484		; 000001e4H
  00026	b8 cc cc cc cc	 mov	 eax, -858993460		; ccccccccH
  0002b	f3 ab		 rep stosd
  0002d	48 8b 8c 24 b8
	07 00 00	 mov	 rcx, QWORD PTR [rsp+1976]
  00035	48 8b 05 00 00
	00 00		 mov	 rax, QWORD PTR __security_cookie
  0003c	48 33 c5	 xor	 rax, rbp
  0003f	48 89 85 58 07
	00 00		 mov	 QWORD PTR __$ArrayPad$[rbp], rax

; 968  : 	//   
; 969  : 	CEnemy* pEnemy = dynamic_cast<CEnemy*>(src->GetOwner());

  00046	48 8b 8d 88 07
	00 00		 mov	 rcx, QWORD PTR src$[rbp]
  0004d	ff 15 00 00 00
	00		 call	 QWORD PTR __imp_?GetOwner@CCollider@Engine@@QEBAPEAVCGameObject@2@XZ
  00053	c7 44 24 20 00
	00 00 00	 mov	 DWORD PTR [rsp+32], 0
  0005b	4c 8d 0d 00 00
	00 00		 lea	 r9, OFFSET FLAT:??_R0?AVCEnemy@Client@@@8
  00062	4c 8d 05 00 00
	00 00		 lea	 r8, OFFSET FLAT:??_R0?AVCGameObject@Engine@@@8
  00069	33 d2		 xor	 edx, edx
  0006b	48 8b c8	 mov	 rcx, rax
  0006e	e8 00 00 00 00	 call	 __RTDynamicCast
  00073	48 89 45 08	 mov	 QWORD PTR pEnemy$[rbp], rax

; 970  : 	CEnemy* pAotherEnemy = dynamic_cast<CEnemy*>(dest->GetOwner());

  00077	48 8b 8d 90 07
	00 00		 mov	 rcx, QWORD PTR dest$[rbp]
  0007e	ff 15 00 00 00
	00		 call	 QWORD PTR __imp_?GetOwner@CCollider@Engine@@QEBAPEAVCGameObject@2@XZ
  00084	c7 44 24 20 00
	00 00 00	 mov	 DWORD PTR [rsp+32], 0
  0008c	4c 8d 0d 00 00
	00 00		 lea	 r9, OFFSET FLAT:??_R0?AVCEnemy@Client@@@8
  00093	4c 8d 05 00 00
	00 00		 lea	 r8, OFFSET FLAT:??_R0?AVCGameObject@Engine@@@8
  0009a	33 d2		 xor	 edx, edx
  0009c	48 8b c8	 mov	 rcx, rax
  0009f	e8 00 00 00 00	 call	 __RTDynamicCast
  000a4	48 89 45 28	 mov	 QWORD PTR pAotherEnemy$[rbp], rax

; 971  : 	//    
; 972  : 
; 973  : 	if (pEnemy && pAotherEnemy)

  000a8	48 83 7d 08 00	 cmp	 QWORD PTR pEnemy$[rbp], 0
  000ad	0f 84 c5 02 00
	00		 je	 $LN2@OnCollisio
  000b3	48 83 7d 28 00	 cmp	 QWORD PTR pAotherEnemy$[rbp], 0
  000b8	0f 84 ba 02 00
	00		 je	 $LN2@OnCollisio

; 974  : 	{
; 975  : 		if (src->Compare(m_pOverlapCollider) && dest->Compare(pAotherEnemy->GetOverlapCollider()))

  000be	48 8b 85 80 07
	00 00		 mov	 rax, QWORD PTR this$[rbp]
  000c5	48 8b 50 40	 mov	 rdx, QWORD PTR [rax+64]
  000c9	48 8b 8d 88 07
	00 00		 mov	 rcx, QWORD PTR src$[rbp]
  000d0	ff 15 00 00 00
	00		 call	 QWORD PTR __imp_?Compare@CCollider@Engine@@QEAA_NPEAV12@@Z
  000d6	0f b6 c0	 movzx	 eax, al
  000d9	85 c0		 test	 eax, eax
  000db	0f 84 97 02 00
	00		 je	 $LN3@OnCollisio
  000e1	48 8b 4d 28	 mov	 rcx, QWORD PTR pAotherEnemy$[rbp]
  000e5	e8 00 00 00 00	 call	 ?GetOverlapCollider@CEnemy@Client@@QEAAPEAVCCollider@Engine@@XZ ; Client::CEnemy::GetOverlapCollider
  000ea	48 8b d0	 mov	 rdx, rax
  000ed	48 8b 8d 90 07
	00 00		 mov	 rcx, QWORD PTR dest$[rbp]
  000f4	ff 15 00 00 00
	00		 call	 QWORD PTR __imp_?Compare@CCollider@Engine@@QEAA_NPEAV12@@Z
  000fa	0f b6 c0	 movzx	 eax, al
  000fd	85 c0		 test	 eax, eax
  000ff	0f 84 73 02 00
	00		 je	 $LN3@OnCollisio

; 976  : 		{
; 977  : 			if (m_eType == TYPE::HUMANOID)

  00105	48 8b 85 80 07
	00 00		 mov	 rax, QWORD PTR this$[rbp]
  0010c	83 78 60 00	 cmp	 DWORD PTR [rax+96], 0
  00110	75 24		 jne	 SHORT $LN4@OnCollisio

; 978  : 			{
; 979  : 				if (model->AnimationCompare((_uint)CLIP::ATTACK4))

  00112	ba 03 00 00 00	 mov	 edx, 3
  00117	48 8b 85 80 07
	00 00		 mov	 rax, QWORD PTR this$[rbp]
  0011e	48 8b 48 28	 mov	 rcx, QWORD PTR [rax+40]
  00122	ff 15 00 00 00
	00		 call	 QWORD PTR __imp_?AnimationCompare@CModel@Engine@@QEBA_NI@Z
  00128	0f b6 c0	 movzx	 eax, al
  0012b	85 c0		 test	 eax, eax
  0012d	74 05		 je	 SHORT $LN6@OnCollisio

; 980  : 					return;

  0012f	e9 77 04 00 00	 jmp	 $LN1@OnCollisio
$LN6@OnCollisio:

; 981  : 			}

  00134	eb 2c		 jmp	 SHORT $LN5@OnCollisio
$LN4@OnCollisio:

; 982  : 			else if (m_eType == TYPE::ANIMAL)

  00136	48 8b 85 80 07
	00 00		 mov	 rax, QWORD PTR this$[rbp]
  0013d	83 78 60 01	 cmp	 DWORD PTR [rax+96], 1
  00141	75 1f		 jne	 SHORT $LN7@OnCollisio

; 983  : 			{
; 984  : 				if (model->AnimationCompare((_uint)CLIP_TWO::ATTACK1))

  00143	33 d2		 xor	 edx, edx
  00145	48 8b 85 80 07
	00 00		 mov	 rax, QWORD PTR this$[rbp]
  0014c	48 8b 48 28	 mov	 rcx, QWORD PTR [rax+40]
  00150	ff 15 00 00 00
	00		 call	 QWORD PTR __imp_?AnimationCompare@CModel@Engine@@QEBA_NI@Z
  00156	0f b6 c0	 movzx	 eax, al
  00159	85 c0		 test	 eax, eax
  0015b	74 05		 je	 SHORT $LN8@OnCollisio

; 985  : 					return;

  0015d	e9 49 04 00 00	 jmp	 $LN1@OnCollisio
$LN8@OnCollisio:
$LN7@OnCollisio:
$LN5@OnCollisio:

; 986  : 			}
; 987  : 
; 988  : 			_float3 vSrcDir;

  00162	48 8d 4d 48	 lea	 rcx, QWORD PTR vSrcDir$4[rbp]
  00166	e8 00 00 00 00	 call	 ??0XMFLOAT3@DirectX@@QEAA@XZ ; DirectX::XMFLOAT3::XMFLOAT3

; 989  : 
; 990  : 			// 
; 991  : 			if (pEnemy->IsOverlap())

  0016b	48 8b 4d 08	 mov	 rcx, QWORD PTR pEnemy$[rbp]
  0016f	e8 00 00 00 00	 call	 ?IsOverlap@CEnemy@Client@@QEBA_NXZ ; Client::CEnemy::IsOverlap
  00174	0f b6 c0	 movzx	 eax, al
  00177	85 c0		 test	 eax, eax
  00179	0f 84 21 01 00
	00		 je	 $LN9@OnCollisio

; 992  : 			{
; 993  : 				// 
; 994  : 				_vector vPrevDir = XMLoadFloat3(&m_vNagative);

  0017f	48 8b 85 80 07
	00 00		 mov	 rax, QWORD PTR this$[rbp]
  00186	48 05 e4 00 00
	00		 add	 rax, 228		; 000000e4H
  0018c	48 8b c8	 mov	 rcx, rax
  0018f	e8 00 00 00 00	 call	 ?XMLoadFloat3@DirectX@@YQ?AT__m128@@PEBUXMFLOAT3@1@@Z ; DirectX::XMLoadFloat3
  00194	0f 29 85 b0 03
	00 00		 movaps	 XMMWORD PTR $T10[rbp], xmm0
  0019b	0f 28 85 b0 03
	00 00		 movaps	 xmm0, XMMWORD PTR $T10[rbp]
  001a2	0f 29 85 80 00
	00 00		 movaps	 XMMWORD PTR vPrevDir$5[rbp], xmm0

; 995  : 				_vector vDir = XMVector3Normalize(vPrevDir + XMLoadFloat4(&pAotherEnemy->GetPosition()) - XMLoadFloat4(&pEnemy->GetPosition()));

  001a9	48 8d 95 64 04
	00 00		 lea	 rdx, QWORD PTR $T14[rbp]
  001b0	48 8b 4d 08	 mov	 rcx, QWORD PTR pEnemy$[rbp]
  001b4	e8 00 00 00 00	 call	 ?GetPosition@CEnemy@Client@@QEAA?AUXMFLOAT4@DirectX@@XZ ; Client::CEnemy::GetPosition
  001b9	48 8b c8	 mov	 rcx, rax
  001bc	e8 00 00 00 00	 call	 ?XMLoadFloat4@DirectX@@YQ?AT__m128@@PEBUXMFLOAT4@1@@Z ; DirectX::XMLoadFloat4
  001c1	0f 29 85 40 04
	00 00		 movaps	 XMMWORD PTR $T13[rbp], xmm0
  001c8	48 8d 95 f4 04
	00 00		 lea	 rdx, QWORD PTR $T17[rbp]
  001cf	48 8b 4d 28	 mov	 rcx, QWORD PTR pAotherEnemy$[rbp]
  001d3	e8 00 00 00 00	 call	 ?GetPosition@CEnemy@Client@@QEAA?AUXMFLOAT4@DirectX@@XZ ; Client::CEnemy::GetPosition
  001d8	48 8b c8	 mov	 rcx, rax
  001db	e8 00 00 00 00	 call	 ?XMLoadFloat4@DirectX@@YQ?AT__m128@@PEBUXMFLOAT4@1@@Z ; DirectX::XMLoadFloat4
  001e0	0f 29 85 d0 04
	00 00		 movaps	 XMMWORD PTR $T16[rbp], xmm0
  001e7	0f 28 8d d0 04
	00 00		 movaps	 xmm1, XMMWORD PTR $T16[rbp]
  001ee	0f 28 85 80 00
	00 00		 movaps	 xmm0, XMMWORD PTR vPrevDir$5[rbp]
  001f5	e8 00 00 00 00	 call	 ??HDirectX@@YQ?AT__m128@@T1@0@Z ; DirectX::operator+
  001fa	0f 29 85 a0 04
	00 00		 movaps	 XMMWORD PTR $T15[rbp], xmm0
  00201	0f 28 8d 40 04
	00 00		 movaps	 xmm1, XMMWORD PTR $T13[rbp]
  00208	0f 28 85 a0 04
	00 00		 movaps	 xmm0, XMMWORD PTR $T15[rbp]
  0020f	e8 00 00 00 00	 call	 ??GDirectX@@YQ?AT__m128@@T1@0@Z ; DirectX::operator-
  00214	0f 29 85 10 04
	00 00		 movaps	 XMMWORD PTR $T12[rbp], xmm0
  0021b	0f 28 85 10 04
	00 00		 movaps	 xmm0, XMMWORD PTR $T12[rbp]
  00222	e8 00 00 00 00	 call	 ?XMVector3Normalize@DirectX@@YQ?AT__m128@@T2@@Z ; DirectX::XMVector3Normalize
  00227	0f 29 85 e0 03
	00 00		 movaps	 XMMWORD PTR $T11[rbp], xmm0
  0022e	0f 28 85 e0 03
	00 00		 movaps	 xmm0, XMMWORD PTR $T11[rbp]
  00235	0f 29 85 b0 00
	00 00		 movaps	 XMMWORD PTR vDir$6[rbp], xmm0

; 996  : 				XMStoreFloat3(&vSrcDir, -vDir);

  0023c	0f 28 85 b0 00
	00 00		 movaps	 xmm0, XMMWORD PTR vDir$6[rbp]
  00243	e8 00 00 00 00	 call	 ??GDirectX@@YQ?AT__m128@@T1@@Z ; DirectX::operator-
  00248	0f 29 85 30 05
	00 00		 movaps	 XMMWORD PTR $T18[rbp], xmm0
  0024f	0f 28 8d 30 05
	00 00		 movaps	 xmm1, XMMWORD PTR $T18[rbp]
  00256	48 8d 4d 48	 lea	 rcx, QWORD PTR vSrcDir$4[rbp]
  0025a	e8 00 00 00 00	 call	 ?XMStoreFloat3@DirectX@@YQXPEAUXMFLOAT3@1@T__m128@@@Z ; DirectX::XMStoreFloat3

; 997  : 
; 998  : 				m_OverlapAcc = 0.0f;

  0025f	48 8b 85 80 07
	00 00		 mov	 rax, QWORD PTR this$[rbp]
  00266	0f 57 c0	 xorps	 xmm0, xmm0
  00269	f2 0f 11 80 f8
	00 00 00	 movsd	 QWORD PTR [rax+248], xmm0

; 999  : 				pEnemy->SetOverlap(true, vSrcDir);

  00271	48 8d 85 e0 06
	00 00		 lea	 rax, QWORD PTR $T27[rbp]
  00278	48 8d 4d 48	 lea	 rcx, QWORD PTR vSrcDir$4[rbp]
  0027c	48 8b f8	 mov	 rdi, rax
  0027f	48 8b f1	 mov	 rsi, rcx
  00282	b9 0c 00 00 00	 mov	 ecx, 12
  00287	f3 a4		 rep movsb
  00289	4c 8d 85 e0 06
	00 00		 lea	 r8, QWORD PTR $T27[rbp]
  00290	b2 01		 mov	 dl, 1
  00292	48 8b 4d 08	 mov	 rcx, QWORD PTR pEnemy$[rbp]
  00296	e8 00 00 00 00	 call	 ?SetOverlap@CEnemy@Client@@QEAAX_NUXMFLOAT3@DirectX@@@Z ; Client::CEnemy::SetOverlap

; 1000 : 			}
; 1001 : 			else

  0029b	e9 d8 00 00 00	 jmp	 $LN10@OnCollisio
$LN9@OnCollisio:

; 1002 : 			{
; 1003 : 				_vector vDir = XMVector3Normalize(XMLoadFloat4(&pAotherEnemy->GetPosition()) - XMLoadFloat4(&pEnemy->GetPosition()));

  002a0	48 8d 95 e4 05
	00 00		 lea	 rdx, QWORD PTR $T22[rbp]
  002a7	48 8b 4d 08	 mov	 rcx, QWORD PTR pEnemy$[rbp]
  002ab	e8 00 00 00 00	 call	 ?GetPosition@CEnemy@Client@@QEAA?AUXMFLOAT4@DirectX@@XZ ; Client::CEnemy::GetPosition
  002b0	48 8b c8	 mov	 rcx, rax
  002b3	e8 00 00 00 00	 call	 ?XMLoadFloat4@DirectX@@YQ?AT__m128@@PEBUXMFLOAT4@1@@Z ; DirectX::XMLoadFloat4
  002b8	0f 29 85 c0 05
	00 00		 movaps	 XMMWORD PTR $T21[rbp], xmm0
  002bf	48 8d 95 44 06
	00 00		 lea	 rdx, QWORD PTR $T24[rbp]
  002c6	48 8b 4d 28	 mov	 rcx, QWORD PTR pAotherEnemy$[rbp]
  002ca	e8 00 00 00 00	 call	 ?GetPosition@CEnemy@Client@@QEAA?AUXMFLOAT4@DirectX@@XZ ; Client::CEnemy::GetPosition
  002cf	48 8b c8	 mov	 rcx, rax
  002d2	e8 00 00 00 00	 call	 ?XMLoadFloat4@DirectX@@YQ?AT__m128@@PEBUXMFLOAT4@1@@Z ; DirectX::XMLoadFloat4
  002d7	0f 29 85 20 06
	00 00		 movaps	 XMMWORD PTR $T23[rbp], xmm0
  002de	0f 28 8d c0 05
	00 00		 movaps	 xmm1, XMMWORD PTR $T21[rbp]
  002e5	0f 28 85 20 06
	00 00		 movaps	 xmm0, XMMWORD PTR $T23[rbp]
  002ec	e8 00 00 00 00	 call	 ??GDirectX@@YQ?AT__m128@@T1@0@Z ; DirectX::operator-
  002f1	0f 29 85 90 05
	00 00		 movaps	 XMMWORD PTR $T20[rbp], xmm0
  002f8	0f 28 85 90 05
	00 00		 movaps	 xmm0, XMMWORD PTR $T20[rbp]
  002ff	e8 00 00 00 00	 call	 ?XMVector3Normalize@DirectX@@YQ?AT__m128@@T2@@Z ; DirectX::XMVector3Normalize
  00304	0f 29 85 60 05
	00 00		 movaps	 XMMWORD PTR $T19[rbp], xmm0
  0030b	0f 28 85 60 05
	00 00		 movaps	 xmm0, XMMWORD PTR $T19[rbp]
  00312	0f 29 85 e0 00
	00 00		 movaps	 XMMWORD PTR vDir$7[rbp], xmm0

; 1004 : 				XMStoreFloat3(&vSrcDir, -vDir);

  00319	0f 28 85 e0 00
	00 00		 movaps	 xmm0, XMMWORD PTR vDir$7[rbp]
  00320	e8 00 00 00 00	 call	 ??GDirectX@@YQ?AT__m128@@T1@@Z ; DirectX::operator-
  00325	0f 29 85 80 06
	00 00		 movaps	 XMMWORD PTR $T25[rbp], xmm0
  0032c	0f 28 8d 80 06
	00 00		 movaps	 xmm1, XMMWORD PTR $T25[rbp]
  00333	48 8d 4d 48	 lea	 rcx, QWORD PTR vSrcDir$4[rbp]
  00337	e8 00 00 00 00	 call	 ?XMStoreFloat3@DirectX@@YQXPEAUXMFLOAT3@1@T__m128@@@Z ; DirectX::XMStoreFloat3

; 1005 : 
; 1006 : 				m_OverlapAcc = 0.0f;

  0033c	48 8b 85 80 07
	00 00		 mov	 rax, QWORD PTR this$[rbp]
  00343	0f 57 c0	 xorps	 xmm0, xmm0
  00346	f2 0f 11 80 f8
	00 00 00	 movsd	 QWORD PTR [rax+248], xmm0

; 1007 : 				pEnemy->SetOverlap(true, vSrcDir);

  0034e	48 8d 85 10 07
	00 00		 lea	 rax, QWORD PTR $T28[rbp]
  00355	48 8d 4d 48	 lea	 rcx, QWORD PTR vSrcDir$4[rbp]
  00359	48 8b f8	 mov	 rdi, rax
  0035c	48 8b f1	 mov	 rsi, rcx
  0035f	b9 0c 00 00 00	 mov	 ecx, 12
  00364	f3 a4		 rep movsb
  00366	4c 8d 85 10 07
	00 00		 lea	 r8, QWORD PTR $T28[rbp]
  0036d	b2 01		 mov	 dl, 1
  0036f	48 8b 4d 08	 mov	 rcx, QWORD PTR pEnemy$[rbp]
  00373	e8 00 00 00 00	 call	 ?SetOverlap@CEnemy@Client@@QEAAX_NUXMFLOAT3@DirectX@@@Z ; Client::CEnemy::SetOverlap
$LN10@OnCollisio:
$LN3@OnCollisio:
$LN2@OnCollisio:

; 1008 : 			}
; 1009 : 		}
; 1010 : 	}
; 1011 : 
; 1012 : 	//  
; 1013 : 	CCharacter* pPlayer = dynamic_cast<CCharacter*>(dest->GetOwner());

  00378	48 8b 8d 90 07
	00 00		 mov	 rcx, QWORD PTR dest$[rbp]
  0037f	ff 15 00 00 00
	00		 call	 QWORD PTR __imp_?GetOwner@CCollider@Engine@@QEBAPEAVCGameObject@2@XZ
  00385	c7 44 24 20 00
	00 00 00	 mov	 DWORD PTR [rsp+32], 0
  0038d	4c 8d 0d 00 00
	00 00		 lea	 r9, OFFSET FLAT:??_R0?AVCCharacter@Client@@@8
  00394	4c 8d 05 00 00
	00 00		 lea	 r8, OFFSET FLAT:??_R0?AVCGameObject@Engine@@@8
  0039b	33 d2		 xor	 edx, edx
  0039d	48 8b c8	 mov	 rcx, rax
  003a0	e8 00 00 00 00	 call	 __RTDynamicCast
  003a5	48 89 85 08 01
	00 00		 mov	 QWORD PTR pPlayer$[rbp], rax

; 1014 : 	
; 1015 : 	if (pPlayer)

  003ac	48 83 bd 08 01
	00 00 00	 cmp	 QWORD PTR pPlayer$[rbp], 0
  003b4	0f 84 f1 01 00
	00		 je	 $LN11@OnCollisio

; 1016 : 	{
; 1017 : 		m_bOverlapped = false;

  003ba	48 8b 85 80 07
	00 00		 mov	 rax, QWORD PTR this$[rbp]
  003c1	c6 80 f0 00 00
	00 00		 mov	 BYTE PTR [rax+240], 0

; 1018 : 
; 1019 : 		//    
; 1020 : 		CCollider* pWeaponCollider = pPlayer->GetWeaponCollider();

  003c8	48 8b 8d 08 01
	00 00		 mov	 rcx, QWORD PTR pPlayer$[rbp]
  003cf	e8 00 00 00 00	 call	 ?GetWeaponCollider@CCharacter@Client@@QEBAPEAVCCollider@Engine@@XZ ; Client::CCharacter::GetWeaponCollider
  003d4	48 89 85 28 01
	00 00		 mov	 QWORD PTR pWeaponCollider$8[rbp], rax

; 1021 : 		if (src->Compare(m_pOverlapCollider) && dest->Compare(pWeaponCollider))

  003db	48 8b 85 80 07
	00 00		 mov	 rax, QWORD PTR this$[rbp]
  003e2	48 8b 50 40	 mov	 rdx, QWORD PTR [rax+64]
  003e6	48 8b 8d 88 07
	00 00		 mov	 rcx, QWORD PTR src$[rbp]
  003ed	ff 15 00 00 00
	00		 call	 QWORD PTR __imp_?Compare@CCollider@Engine@@QEAA_NPEAV12@@Z
  003f3	0f b6 c0	 movzx	 eax, al
  003f6	85 c0		 test	 eax, eax
  003f8	0f 84 05 01 00
	00		 je	 $LN12@OnCollisio
  003fe	48 8b 95 28 01
	00 00		 mov	 rdx, QWORD PTR pWeaponCollider$8[rbp]
  00405	48 8b 8d 90 07
	00 00		 mov	 rcx, QWORD PTR dest$[rbp]
  0040c	ff 15 00 00 00
	00		 call	 QWORD PTR __imp_?Compare@CCollider@Engine@@QEAA_NPEAV12@@Z
  00412	0f b6 c0	 movzx	 eax, al
  00415	85 c0		 test	 eax, eax
  00417	0f 84 e6 00 00
	00		 je	 $LN12@OnCollisio

; 1022 : 		{
; 1023 : 			m_iRandomHitAnim = rand() % 2;

  0041d	ff 15 00 00 00
	00		 call	 QWORD PTR __imp_rand
  00423	99		 cdq
  00424	83 e0 01	 and	 eax, 1
  00427	33 c2		 xor	 eax, edx
  00429	2b c2		 sub	 eax, edx
  0042b	48 8b 8d 80 07
	00 00		 mov	 rcx, QWORD PTR this$[rbp]
  00432	89 81 4c 01 00
	00		 mov	 DWORD PTR [rcx+332], eax

; 1024 : 
; 1025 : 			if (m_bHit)

  00438	48 8b 85 80 07
	00 00		 mov	 rax, QWORD PTR this$[rbp]
  0043f	0f b6 80 17 01
	00 00		 movzx	 eax, BYTE PTR [rax+279]
  00446	85 c0		 test	 eax, eax
  00448	0f 84 85 00 00
	00		 je	 $LN13@OnCollisio

; 1026 : 			{
; 1027 : 				if(model->AnimationCompare((_uint)CLIP::HIT1) || 
; 1028 : 					model->AnimationCompare((_uint)CLIP::HIT2) || 
; 1029 : 					model->AnimationCompare((_uint)CLIP_TWO::HIT1) || 

  0044e	ba 09 00 00 00	 mov	 edx, 9
  00453	48 8b 85 80 07
	00 00		 mov	 rax, QWORD PTR this$[rbp]
  0045a	48 8b 48 28	 mov	 rcx, QWORD PTR [rax+40]
  0045e	ff 15 00 00 00
	00		 call	 QWORD PTR __imp_?AnimationCompare@CModel@Engine@@QEBA_NI@Z
  00464	0f b6 c0	 movzx	 eax, al
  00467	85 c0		 test	 eax, eax
  00469	75 57		 jne	 SHORT $LN15@OnCollisio
  0046b	ba 0a 00 00 00	 mov	 edx, 10
  00470	48 8b 85 80 07
	00 00		 mov	 rax, QWORD PTR this$[rbp]
  00477	48 8b 48 28	 mov	 rcx, QWORD PTR [rax+40]
  0047b	ff 15 00 00 00
	00		 call	 QWORD PTR __imp_?AnimationCompare@CModel@Engine@@QEBA_NI@Z
  00481	0f b6 c0	 movzx	 eax, al
  00484	85 c0		 test	 eax, eax
  00486	75 3a		 jne	 SHORT $LN15@OnCollisio
  00488	ba 07 00 00 00	 mov	 edx, 7
  0048d	48 8b 85 80 07
	00 00		 mov	 rax, QWORD PTR this$[rbp]
  00494	48 8b 48 28	 mov	 rcx, QWORD PTR [rax+40]
  00498	ff 15 00 00 00
	00		 call	 QWORD PTR __imp_?AnimationCompare@CModel@Engine@@QEBA_NI@Z
  0049e	0f b6 c0	 movzx	 eax, al
  004a1	85 c0		 test	 eax, eax
  004a3	75 1d		 jne	 SHORT $LN15@OnCollisio
  004a5	ba 08 00 00 00	 mov	 edx, 8
  004aa	48 8b 85 80 07
	00 00		 mov	 rax, QWORD PTR this$[rbp]
  004b1	48 8b 48 28	 mov	 rcx, QWORD PTR [rax+40]
  004b5	ff 15 00 00 00
	00		 call	 QWORD PTR __imp_?AnimationCompare@CModel@Engine@@QEBA_NI@Z
  004bb	0f b6 c0	 movzx	 eax, al
  004be	85 c0		 test	 eax, eax
  004c0	74 11		 je	 SHORT $LN14@OnCollisio
$LN15@OnCollisio:

; 1030 : 					model->AnimationCompare((_uint)CLIP_TWO::HIT2))
; 1031 : 				model->AnimationReset();

  004c2	48 8b 85 80 07
	00 00		 mov	 rax, QWORD PTR this$[rbp]
  004c9	48 8b 48 28	 mov	 rcx, QWORD PTR [rax+40]
  004cd	ff 15 00 00 00
	00		 call	 QWORD PTR __imp_?AnimationReset@CModel@Engine@@QEAAXXZ
$LN14@OnCollisio:
$LN13@OnCollisio:

; 1032 : 			}
; 1033 : 
; 1034 : 			m_bHit = true;

  004d3	48 8b 85 80 07
	00 00		 mov	 rax, QWORD PTR this$[rbp]
  004da	c6 80 17 01 00
	00 01		 mov	 BYTE PTR [rax+279], 1

; 1035 : 			RecvDamage(pPlayer->GetDamage());

  004e1	48 8b 8d 08 01
	00 00		 mov	 rcx, QWORD PTR pPlayer$[rbp]
  004e8	e8 00 00 00 00	 call	 ?GetDamage@CCharacter@Client@@QEAAMXZ ; Client::CCharacter::GetDamage
  004ed	48 8b 85 80 07
	00 00		 mov	 rax, QWORD PTR this$[rbp]
  004f4	48 83 e8 78	 sub	 rax, 120		; 00000078H
  004f8	0f 28 c8	 movaps	 xmm1, xmm0
  004fb	48 8b c8	 mov	 rcx, rax
  004fe	e8 00 00 00 00	 call	 ?RecvDamage@CEnemy@Client@@QEAAXM@Z ; Client::CEnemy::RecvDamage
$LN12@OnCollisio:

; 1036 : 		}
; 1037 : 
; 1038 : 		//CCollider* pSkillCollider = pPlayer->GetSkillCollider();
; 1039 : 		//if (src->Compare(collider))
; 1040 : 		//{
; 1041 : 		//	if (dest->Compare(pSkillCollider))
; 1042 : 		//	{
; 1043 : 		//		CGameInstance* pInstance = CGameInstance::GetInstance();
; 1044 : 		//		_float DeltaTime = pInstance->GetTimer(TEXT("144FPS"));
; 1045 : 
; 1046 : 		//		Airborne(DeltaTime);
; 1047 : 		//		pPlayer->RecvDamage(pPlayer->GetDamage());
; 1048 : 		//	}
; 1049 : 		//}
; 1050 : 
; 1051 : 		//  
; 1052 : 		CCollider* pBodyCollider = pPlayer->GetBodyCollider();

  00503	48 8b 8d 08 01
	00 00		 mov	 rcx, QWORD PTR pPlayer$[rbp]
  0050a	e8 00 00 00 00	 call	 ?GetBodyCollider@CCharacter@Client@@QEBAPEAVCCollider@Engine@@XZ ; Client::CCharacter::GetBodyCollider
  0050f	48 89 85 48 01
	00 00		 mov	 QWORD PTR pBodyCollider$9[rbp], rax

; 1053 : 		if (src->Compare(m_pWeaponCollider))

  00516	48 8b 85 80 07
	00 00		 mov	 rax, QWORD PTR this$[rbp]
  0051d	48 8b 50 48	 mov	 rdx, QWORD PTR [rax+72]
  00521	48 8b 8d 88 07
	00 00		 mov	 rcx, QWORD PTR src$[rbp]
  00528	ff 15 00 00 00
	00		 call	 QWORD PTR __imp_?Compare@CCollider@Engine@@QEAA_NPEAV12@@Z
  0052e	0f b6 c0	 movzx	 eax, al
  00531	85 c0		 test	 eax, eax
  00533	74 76		 je	 SHORT $LN16@OnCollisio

; 1054 : 		{
; 1055 : 			if (dest->Compare(pBodyCollider))

  00535	48 8b 95 48 01
	00 00		 mov	 rdx, QWORD PTR pBodyCollider$9[rbp]
  0053c	48 8b 8d 90 07
	00 00		 mov	 rcx, QWORD PTR dest$[rbp]
  00543	ff 15 00 00 00
	00		 call	 QWORD PTR __imp_?Compare@CCollider@Engine@@QEAA_NPEAV12@@Z
  00549	0f b6 c0	 movzx	 eax, al
  0054c	85 c0		 test	 eax, eax
  0054e	74 5b		 je	 SHORT $LN17@OnCollisio

; 1056 : 			{
; 1057 : 				pPlayer->LookPos(transform->Get_State(CTransform::STATE_POSITION));

  00550	41 b8 03 00 00
	00		 mov	 r8d, 3
  00556	48 8d 95 b0 06
	00 00		 lea	 rdx, QWORD PTR $T26[rbp]
  0055d	48 8b 85 80 07
	00 00		 mov	 rax, QWORD PTR this$[rbp]
  00564	48 8b 48 20	 mov	 rcx, QWORD PTR [rax+32]
  00568	ff 15 00 00 00
	00		 call	 QWORD PTR __imp_?Get_State@CTransform@Engine@@QEAA?AT__m128@@W4STATE@12@@Z
  0056e	0f 10 00	 movups	 xmm0, XMMWORD PTR [rax]
  00571	0f 11 85 40 07
	00 00		 movups	 XMMWORD PTR $T29[rbp], xmm0
  00578	48 8d 95 40 07
	00 00		 lea	 rdx, QWORD PTR $T29[rbp]
  0057f	48 8b 8d 08 01
	00 00		 mov	 rcx, QWORD PTR pPlayer$[rbp]
  00586	e8 00 00 00 00	 call	 ?LookPos@CCharacter@Client@@QEAAXT__m128@@@Z ; Client::CCharacter::LookPos

; 1058 : 				pPlayer->Hit();

  0058b	48 8b 8d 08 01
	00 00		 mov	 rcx, QWORD PTR pPlayer$[rbp]
  00592	e8 00 00 00 00	 call	 ?Hit@CCharacter@Client@@QEAAXXZ ; Client::CCharacter::Hit

; 1059 : 				pPlayer->RecvDamage(10.f);

  00597	f3 0f 10 0d 00
	00 00 00	 movss	 xmm1, DWORD PTR __real@41200000
  0059f	48 8b 8d 08 01
	00 00		 mov	 rcx, QWORD PTR pPlayer$[rbp]
  005a6	e8 00 00 00 00	 call	 ?RecvDamage@CCharacter@Client@@QEAAXM@Z ; Client::CCharacter::RecvDamage
$LN17@OnCollisio:
$LN16@OnCollisio:
$LN11@OnCollisio:
$LN1@OnCollisio:

; 1060 : 			}
; 1061 : 		}
; 1062 : 	}
; 1063 : 
; 1064 : 
; 1065 : }

  005ab	48 8d 4d d0	 lea	 rcx, QWORD PTR [rbp-48]
  005af	48 8d 15 00 00
	00 00		 lea	 rdx, OFFSET FLAT:?OnCollisionEnter@CEnemy@Client@@UEAAXPEAVCCollider@Engine@@0@Z$rtcFrameData
  005b6	e8 00 00 00 00	 call	 _RTC_CheckStackVars
  005bb	48 8b 8d 58 07
	00 00		 mov	 rcx, QWORD PTR __$ArrayPad$[rbp]
  005c2	48 33 cd	 xor	 rcx, rbp
  005c5	e8 00 00 00 00	 call	 __security_check_cookie
  005ca	48 8d a5 60 07
	00 00		 lea	 rsp, QWORD PTR [rbp+1888]
  005d1	5f		 pop	 rdi
  005d2	5e		 pop	 rsi
  005d3	5d		 pop	 rbp
  005d4	c3		 ret	 0
?OnCollisionEnter@CEnemy@Client@@UEAAXPEAVCCollider@Engine@@0@Z ENDP ; Client::CEnemy::OnCollisionEnter
_TEXT	ENDS
; Function compile flags: /Odtp /RTCsu /ZI
; File c:\github\framework\client\private\enemy.cpp
;	COMDAT ?AnimationState@CEnemy@Client@@AEAAXN@Z
_TEXT	SEGMENT
vPlayerPos$5 = 16
vPosition$6 = 64
vTargetDir$7 = 112
vDistance$8 = 148
$T9 = 384
$T10 = 432
$T11 = 480
$T12 = 528
tv86 = 548
__$ArrayPad$ = 552
this$ = 592
TimeDelta$ = 600
?AnimationState@CEnemy@Client@@AEAAXN@Z PROC		; Client::CEnemy::AnimationState, COMDAT

; 772  : {

$LN44:
  00000	f2 0f 11 4c 24
	10		 movsd	 QWORD PTR [rsp+16], xmm1
  00006	48 89 4c 24 08	 mov	 QWORD PTR [rsp+8], rcx
  0000b	55		 push	 rbp
  0000c	57		 push	 rdi
  0000d	48 81 ec 58 02
	00 00		 sub	 rsp, 600		; 00000258H
  00014	48 8d 6c 24 20	 lea	 rbp, QWORD PTR [rsp+32]
  00019	48 8b fc	 mov	 rdi, rsp
  0001c	b9 96 00 00 00	 mov	 ecx, 150		; 00000096H
  00021	b8 cc cc cc cc	 mov	 eax, -858993460		; ccccccccH
  00026	f3 ab		 rep stosd
  00028	48 8b 8c 24 78
	02 00 00	 mov	 rcx, QWORD PTR [rsp+632]
  00030	48 8b 05 00 00
	00 00		 mov	 rax, QWORD PTR __security_cookie
  00037	48 33 c5	 xor	 rax, rbp
  0003a	48 89 85 28 02
	00 00		 mov	 QWORD PTR __$ArrayPad$[rbp], rax

; 773  : 	if (m_bAirHit)

  00041	48 8b 85 50 02
	00 00		 mov	 rax, QWORD PTR this$[rbp]
  00048	0f b6 80 b4 01
	00 00		 movzx	 eax, BYTE PTR [rax+436]
  0004f	85 c0		 test	 eax, eax
  00051	74 19		 je	 SHORT $LN4@AnimationS

; 774  : 	{
; 775  : 		Airborne(TimeDelta);

  00053	f2 0f 10 8d 58
	02 00 00	 movsd	 xmm1, QWORD PTR TimeDelta$[rbp]
  0005b	48 8b 8d 50 02
	00 00		 mov	 rcx, QWORD PTR this$[rbp]
  00062	e8 00 00 00 00	 call	 ?Airborne@CEnemy@Client@@AEAAXN@Z ; Client::CEnemy::Airborne
  00067	e9 e4 05 00 00	 jmp	 $LN5@AnimationS
$LN4@AnimationS:

; 776  : 	}
; 777  : 	else if (m_bHit)

  0006c	48 8b 85 50 02
	00 00		 mov	 rax, QWORD PTR this$[rbp]
  00073	0f b6 80 8f 01
	00 00		 movzx	 eax, BYTE PTR [rax+399]
  0007a	85 c0		 test	 eax, eax
  0007c	74 19		 je	 SHORT $LN6@AnimationS

; 778  : 	{
; 779  : 		Hit(TimeDelta);

  0007e	f2 0f 10 8d 58
	02 00 00	 movsd	 xmm1, QWORD PTR TimeDelta$[rbp]
  00086	48 8b 8d 50 02
	00 00		 mov	 rcx, QWORD PTR this$[rbp]
  0008d	e8 00 00 00 00	 call	 ?Hit@CEnemy@Client@@AEAA_NN@Z ; Client::CEnemy::Hit
  00092	e9 b9 05 00 00	 jmp	 $LN7@AnimationS
$LN6@AnimationS:

; 780  : 	}
; 781  : 	else if (m_bHolding)

  00097	48 8b 85 50 02
	00 00		 mov	 rax, QWORD PTR this$[rbp]
  0009e	0f b6 80 c0 01
	00 00		 movzx	 eax, BYTE PTR [rax+448]
  000a5	85 c0		 test	 eax, eax
  000a7	0f 84 b8 00 00
	00		 je	 $LN8@AnimationS

; 782  : 	{
; 783  : 		transform->LookAt(m_pPlayerTransform->Get_State(CTransform::STATE_POSITION));

  000ad	41 b8 03 00 00
	00		 mov	 r8d, 3
  000b3	48 8d 95 80 01
	00 00		 lea	 rdx, QWORD PTR $T9[rbp]
  000ba	48 8b 85 50 02
	00 00		 mov	 rax, QWORD PTR this$[rbp]
  000c1	48 8b 88 40 01
	00 00		 mov	 rcx, QWORD PTR [rax+320]
  000c8	ff 15 00 00 00
	00		 call	 QWORD PTR __imp_?Get_State@CTransform@Engine@@QEAA?AT__m128@@W4STATE@12@@Z
  000ce	0f 10 00	 movups	 xmm0, XMMWORD PTR [rax]
  000d1	0f 11 85 10 02
	00 00		 movups	 XMMWORD PTR $T12[rbp], xmm0
  000d8	48 8d 95 10 02
	00 00		 lea	 rdx, QWORD PTR $T12[rbp]
  000df	48 8b 85 50 02
	00 00		 mov	 rax, QWORD PTR this$[rbp]
  000e6	48 8b 88 98 00
	00 00		 mov	 rcx, QWORD PTR [rax+152]
  000ed	ff 15 00 00 00
	00		 call	 QWORD PTR __imp_?LookAt@CTransform@Engine@@QEAAXT__m128@@@Z

; 784  : 
; 785  : 		switch (m_eType)

  000f3	48 8b 85 50 02
	00 00		 mov	 rax, QWORD PTR this$[rbp]
  000fa	8b 80 d8 00 00
	00		 mov	 eax, DWORD PTR [rax+216]
  00100	89 85 24 02 00
	00		 mov	 DWORD PTR tv86[rbp], eax
  00106	83 bd 24 02 00
	00 00		 cmp	 DWORD PTR tv86[rbp], 0
  0010d	74 0b		 je	 SHORT $LN10@AnimationS
  0010f	83 bd 24 02 00
	00 01		 cmp	 DWORD PTR tv86[rbp], 1
  00116	74 26		 je	 SHORT $LN11@AnimationS
  00118	eb 46		 jmp	 SHORT $LN12@AnimationS
$LN10@AnimationS:

; 786  : 		{
; 787  : 		case Client::CEnemy::TYPE::HUMANOID:
; 788  : 			model->Setup_Animation((_uint)CLIP::HIT1, CAnimation::TYPE::LOOP, true);

  0011a	41 b1 01	 mov	 r9b, 1
  0011d	41 b8 01 00 00
	00		 mov	 r8d, 1
  00123	ba 09 00 00 00	 mov	 edx, 9
  00128	48 8b 85 50 02
	00 00		 mov	 rax, QWORD PTR this$[rbp]
  0012f	48 8b 88 a0 00
	00 00		 mov	 rcx, QWORD PTR [rax+160]
  00136	ff 15 00 00 00
	00		 call	 QWORD PTR __imp_?Setup_Animation@CModel@Engine@@QEAAJIW4TYPE@CAnimation@2@_N@Z

; 789  : 			break;

  0013c	eb 22		 jmp	 SHORT $LN2@AnimationS
$LN11@AnimationS:

; 790  : 		case Client::CEnemy::TYPE::ANIMAL:
; 791  : 			model->Setup_Animation((_uint)CLIP_TWO::HIT2, CAnimation::TYPE::LOOP, true);

  0013e	41 b1 01	 mov	 r9b, 1
  00141	41 b8 01 00 00
	00		 mov	 r8d, 1
  00147	ba 08 00 00 00	 mov	 edx, 8
  0014c	48 8b 85 50 02
	00 00		 mov	 rax, QWORD PTR this$[rbp]
  00153	48 8b 88 a0 00
	00 00		 mov	 rcx, QWORD PTR [rax+160]
  0015a	ff 15 00 00 00
	00		 call	 QWORD PTR __imp_?Setup_Animation@CModel@Engine@@QEAAJIW4TYPE@CAnimation@2@_N@Z
$LN12@AnimationS:
$LN2@AnimationS:

; 792  : 			break;
; 793  : 		default:
; 794  : 			break;
; 795  : 		}
; 796  : 
; 797  : 	}
; 798  : 	else

  00160	e9 eb 04 00 00	 jmp	 $LN9@AnimationS
$LN8@AnimationS:

; 799  : 	{
; 800  : 		_vector vPlayerPos = m_pPlayerTransform->Get_State(CTransform::STATE_POSITION);

  00165	41 b8 03 00 00
	00		 mov	 r8d, 3
  0016b	48 8d 55 10	 lea	 rdx, QWORD PTR vPlayerPos$5[rbp]
  0016f	48 8b 85 50 02
	00 00		 mov	 rax, QWORD PTR this$[rbp]
  00176	48 8b 88 40 01
	00 00		 mov	 rcx, QWORD PTR [rax+320]
  0017d	ff 15 00 00 00
	00		 call	 QWORD PTR __imp_?Get_State@CTransform@Engine@@QEAA?AT__m128@@W4STATE@12@@Z

; 801  : 		_vector vPosition = transform->Get_State(CTransform::STATE_POSITION);

  00183	41 b8 03 00 00
	00		 mov	 r8d, 3
  00189	48 8d 55 40	 lea	 rdx, QWORD PTR vPosition$6[rbp]
  0018d	48 8b 85 50 02
	00 00		 mov	 rax, QWORD PTR this$[rbp]
  00194	48 8b 88 98 00
	00 00		 mov	 rcx, QWORD PTR [rax+152]
  0019b	ff 15 00 00 00
	00		 call	 QWORD PTR __imp_?Get_State@CTransform@Engine@@QEAA?AT__m128@@W4STATE@12@@Z

; 802  : 
; 803  : 		_vector vTargetDir = vPlayerPos - vPosition;

  001a1	0f 28 4d 40	 movaps	 xmm1, XMMWORD PTR vPosition$6[rbp]
  001a5	0f 28 45 10	 movaps	 xmm0, XMMWORD PTR vPlayerPos$5[rbp]
  001a9	e8 00 00 00 00	 call	 ??GDirectX@@YQ?AT__m128@@T1@0@Z ; DirectX::operator-
  001ae	0f 29 85 b0 01
	00 00		 movaps	 XMMWORD PTR $T10[rbp], xmm0
  001b5	0f 28 85 b0 01
	00 00		 movaps	 xmm0, XMMWORD PTR $T10[rbp]
  001bc	0f 29 45 70	 movaps	 XMMWORD PTR vTargetDir$7[rbp], xmm0

; 804  : 		_float vDistance = XMVectorGetX(XMVector3Length(vTargetDir));

  001c0	0f 28 45 70	 movaps	 xmm0, XMMWORD PTR vTargetDir$7[rbp]
  001c4	e8 00 00 00 00	 call	 ?XMVector3Length@DirectX@@YQ?AT__m128@@T2@@Z ; DirectX::XMVector3Length
  001c9	0f 29 85 e0 01
	00 00		 movaps	 XMMWORD PTR $T11[rbp], xmm0
  001d0	0f 28 85 e0 01
	00 00		 movaps	 xmm0, XMMWORD PTR $T11[rbp]
  001d7	e8 00 00 00 00	 call	 ?XMVectorGetX@DirectX@@YQMT__m128@@@Z ; DirectX::XMVectorGetX
  001dc	f3 0f 11 85 94
	00 00 00	 movss	 DWORD PTR vDistance$8[rbp], xmm0

; 805  : 
; 806  : 		if (m_bOverlapped)

  001e4	48 8b 85 50 02
	00 00		 mov	 rax, QWORD PTR this$[rbp]
  001eb	0f b6 80 68 01
	00 00		 movzx	 eax, BYTE PTR [rax+360]
  001f2	85 c0		 test	 eax, eax
  001f4	74 19		 je	 SHORT $LN13@AnimationS

; 807  : 		{
; 808  : 				OverlapProcess(TimeDelta);

  001f6	f2 0f 10 8d 58
	02 00 00	 movsd	 xmm1, QWORD PTR TimeDelta$[rbp]
  001fe	48 8b 8d 50 02
	00 00		 mov	 rcx, QWORD PTR this$[rbp]
  00205	e8 00 00 00 00	 call	 ?OverlapProcess@CEnemy@Client@@AEAAXN@Z ; Client::CEnemy::OverlapProcess

; 809  : 		}
; 810  : 		else

  0020a	e9 41 04 00 00	 jmp	 $LN14@AnimationS
$LN13@AnimationS:

; 811  : 		{
; 812  : 			m_OverlapAcc = 0.0;

  0020f	48 8b 85 50 02
	00 00		 mov	 rax, QWORD PTR this$[rbp]
  00216	0f 57 c0	 xorps	 xmm0, xmm0
  00219	f2 0f 11 80 70
	01 00 00	 movsd	 QWORD PTR [rax+368], xmm0

; 813  : 
; 814  : 			if (!m_bRotationFinish)

  00221	48 8b 85 50 02
	00 00		 mov	 rax, QWORD PTR this$[rbp]
  00228	0f b6 80 49 01
	00 00		 movzx	 eax, BYTE PTR [rax+329]
  0022f	85 c0		 test	 eax, eax
  00231	75 14		 jne	 SHORT $LN15@AnimationS

; 815  : 				LookPlayer(TimeDelta);

  00233	f2 0f 10 8d 58
	02 00 00	 movsd	 xmm1, QWORD PTR TimeDelta$[rbp]
  0023b	48 8b 8d 50 02
	00 00		 mov	 rcx, QWORD PTR this$[rbp]
  00242	e8 00 00 00 00	 call	 ?LookPlayer@CEnemy@Client@@AEAAXN@Z ; Client::CEnemy::LookPlayer
$LN15@AnimationS:

; 816  : 
; 817  : 			if (m_bRotationFinish)

  00247	48 8b 85 50 02
	00 00		 mov	 rax, QWORD PTR this$[rbp]
  0024e	0f b6 80 49 01
	00 00		 movzx	 eax, BYTE PTR [rax+329]
  00255	85 c0		 test	 eax, eax
  00257	0f 84 9d 02 00
	00		 je	 $LN16@AnimationS

; 818  : 			{
; 819  : 				if (vDistance > m_fAttackRange)

  0025d	48 8b 85 50 02
	00 00		 mov	 rax, QWORD PTR this$[rbp]
  00264	f3 0f 10 85 94
	00 00 00	 movss	 xmm0, DWORD PTR vDistance$8[rbp]
  0026c	0f 2f 80 4c 01
	00 00		 comiss	 xmm0, DWORD PTR [rax+332]
  00273	0f 86 a2 01 00
	00		 jbe	 $LN17@AnimationS

; 820  : 				{
; 821  : 					if (m_bAttack)

  00279	48 8b 85 50 02
	00 00		 mov	 rax, QWORD PTR this$[rbp]
  00280	0f b6 80 50 01
	00 00		 movzx	 eax, BYTE PTR [rax+336]
  00287	85 c0		 test	 eax, eax
  00289	0f 84 d6 00 00
	00		 je	 $LN19@AnimationS

; 822  : 					{
; 823  : 						if (m_eType == TYPE::HUMANOID)

  0028f	48 8b 85 50 02
	00 00		 mov	 rax, QWORD PTR this$[rbp]
  00296	83 b8 d8 00 00
	00 00		 cmp	 DWORD PTR [rax+216], 0
  0029d	75 63		 jne	 SHORT $LN21@AnimationS

; 824  : 						{
; 825  : 							if (model->AnimationCompare(((_uint)CLIP::ATTACK4)))

  0029f	ba 03 00 00 00	 mov	 edx, 3
  002a4	48 8b 85 50 02
	00 00		 mov	 rax, QWORD PTR this$[rbp]
  002ab	48 8b 88 a0 00
	00 00		 mov	 rcx, QWORD PTR [rax+160]
  002b2	ff 15 00 00 00
	00		 call	 QWORD PTR __imp_?AnimationCompare@CModel@Engine@@QEBA_NI@Z
  002b8	0f b6 c0	 movzx	 eax, al
  002bb	85 c0		 test	 eax, eax
  002bd	74 41		 je	 SHORT $LN23@AnimationS

; 826  : 							{
; 827  : 								if (model->AnimationIsFinishEx())

  002bf	48 8b 85 50 02
	00 00		 mov	 rax, QWORD PTR this$[rbp]
  002c6	48 8b 88 a0 00
	00 00		 mov	 rcx, QWORD PTR [rax+160]
  002cd	ff 15 00 00 00
	00		 call	 QWORD PTR __imp_?AnimationIsFinishEx@CModel@Engine@@QEAA_NXZ
  002d3	0f b6 c0	 movzx	 eax, al
  002d6	85 c0		 test	 eax, eax
  002d8	74 26		 je	 SHORT $LN24@AnimationS

; 828  : 								{
; 829  : 									Trace(TimeDelta);

  002da	f2 0f 10 8d 58
	02 00 00	 movsd	 xmm1, QWORD PTR TimeDelta$[rbp]
  002e2	48 8b 8d 50 02
	00 00		 mov	 rcx, QWORD PTR this$[rbp]
  002e9	e8 00 00 00 00	 call	 ?Trace@CEnemy@Client@@AEAAXN@Z ; Client::CEnemy::Trace

; 830  : 									m_fAttackCoolTimer = 0.f;

  002ee	48 8b 85 50 02
	00 00		 mov	 rax, QWORD PTR this$[rbp]
  002f5	0f 57 c0	 xorps	 xmm0, xmm0
  002f8	f3 0f 11 80 a4
	01 00 00	 movss	 DWORD PTR [rax+420], xmm0
$LN24@AnimationS:
$LN23@AnimationS:

; 831  : 								}
; 832  : 							}
; 833  : 						}
; 834  : 						else

  00300	eb 5e		 jmp	 SHORT $LN22@AnimationS
$LN21@AnimationS:

; 835  : 						{
; 836  : 							if (model->AnimationCompare(((_uint)CLIP::ATTACK1)))

  00302	33 d2		 xor	 edx, edx
  00304	48 8b 85 50 02
	00 00		 mov	 rax, QWORD PTR this$[rbp]
  0030b	48 8b 88 a0 00
	00 00		 mov	 rcx, QWORD PTR [rax+160]
  00312	ff 15 00 00 00
	00		 call	 QWORD PTR __imp_?AnimationCompare@CModel@Engine@@QEBA_NI@Z
  00318	0f b6 c0	 movzx	 eax, al
  0031b	85 c0		 test	 eax, eax
  0031d	74 41		 je	 SHORT $LN25@AnimationS

; 837  : 							{
; 838  : 								if (model->AnimationIsFinishEx())

  0031f	48 8b 85 50 02
	00 00		 mov	 rax, QWORD PTR this$[rbp]
  00326	48 8b 88 a0 00
	00 00		 mov	 rcx, QWORD PTR [rax+160]
  0032d	ff 15 00 00 00
	00		 call	 QWORD PTR __imp_?AnimationIsFinishEx@CModel@Engine@@QEAA_NXZ
  00333	0f b6 c0	 movzx	 eax, al
  00336	85 c0		 test	 eax, eax
  00338	74 26		 je	 SHORT $LN26@AnimationS

; 839  : 								{
; 840  : 									Trace(TimeDelta);

  0033a	f2 0f 10 8d 58
	02 00 00	 movsd	 xmm1, QWORD PTR TimeDelta$[rbp]
  00342	48 8b 8d 50 02
	00 00		 mov	 rcx, QWORD PTR this$[rbp]
  00349	e8 00 00 00 00	 call	 ?Trace@CEnemy@Client@@AEAAXN@Z ; Client::CEnemy::Trace

; 841  : 									m_fAttackCoolTimer = 0.f;

  0034e	48 8b 85 50 02
	00 00		 mov	 rax, QWORD PTR this$[rbp]
  00355	0f 57 c0	 xorps	 xmm0, xmm0
  00358	f3 0f 11 80 a4
	01 00 00	 movss	 DWORD PTR [rax+420], xmm0
$LN26@AnimationS:
$LN25@AnimationS:
$LN22@AnimationS:

; 842  : 								}
; 843  : 							}
; 844  : 						}
; 845  : 					}
; 846  : 					else

  00360	e9 b1 00 00 00	 jmp	 $LN20@AnimationS
$LN19@AnimationS:

; 847  : 					{
; 848  : 						if (m_bTraceFinish)

  00365	48 8b 85 50 02
	00 00		 mov	 rax, QWORD PTR this$[rbp]
  0036c	0f b6 80 48 01
	00 00		 movzx	 eax, BYTE PTR [rax+328]
  00373	85 c0		 test	 eax, eax
  00375	74 79		 je	 SHORT $LN27@AnimationS

; 849  : 						{
; 850  : 							m_fTraceLocal += TimeDelta;

  00377	48 8b 85 50 02
	00 00		 mov	 rax, QWORD PTR this$[rbp]
  0037e	f3 0f 5a 80 ac
	01 00 00	 cvtss2sd xmm0, DWORD PTR [rax+428]
  00386	f2 0f 58 85 58
	02 00 00	 addsd	 xmm0, QWORD PTR TimeDelta$[rbp]
  0038e	f2 0f 5a c0	 cvtsd2ss xmm0, xmm0
  00392	48 8b 85 50 02
	00 00		 mov	 rax, QWORD PTR this$[rbp]
  00399	f3 0f 11 80 ac
	01 00 00	 movss	 DWORD PTR [rax+428], xmm0

; 851  : 							if (m_fTraceLocal >= m_fTraceTimeOut)

  003a1	48 8b 85 50 02
	00 00		 mov	 rax, QWORD PTR this$[rbp]
  003a8	48 8b 8d 50 02
	00 00		 mov	 rcx, QWORD PTR this$[rbp]
  003af	f3 0f 10 80 ac
	01 00 00	 movss	 xmm0, DWORD PTR [rax+428]
  003b7	0f 2f 81 b0 01
	00 00		 comiss	 xmm0, DWORD PTR [rcx+432]
  003be	72 2e		 jb	 SHORT $LN29@AnimationS

; 852  : 							{
; 853  : 								m_fTraceLocal = 0.0;

  003c0	48 8b 85 50 02
	00 00		 mov	 rax, QWORD PTR this$[rbp]
  003c7	0f 57 c0	 xorps	 xmm0, xmm0
  003ca	f3 0f 11 80 ac
	01 00 00	 movss	 DWORD PTR [rax+428], xmm0

; 854  : 								m_bRotationFinish = false;

  003d2	48 8b 85 50 02
	00 00		 mov	 rax, QWORD PTR this$[rbp]
  003d9	c6 80 49 01 00
	00 00		 mov	 BYTE PTR [rax+329], 0

; 855  : 								m_bTraceFinish = false;

  003e0	48 8b 85 50 02
	00 00		 mov	 rax, QWORD PTR this$[rbp]
  003e7	c6 80 48 01 00
	00 00		 mov	 BYTE PTR [rax+328], 0
$LN29@AnimationS:

; 856  : 							}
; 857  : 						}
; 858  : 						else

  003ee	eb 26		 jmp	 SHORT $LN28@AnimationS
$LN27@AnimationS:

; 859  : 						{
; 860  : 							Trace(TimeDelta);

  003f0	f2 0f 10 8d 58
	02 00 00	 movsd	 xmm1, QWORD PTR TimeDelta$[rbp]
  003f8	48 8b 8d 50 02
	00 00		 mov	 rcx, QWORD PTR this$[rbp]
  003ff	e8 00 00 00 00	 call	 ?Trace@CEnemy@Client@@AEAAXN@Z ; Client::CEnemy::Trace

; 861  : 							m_fAttackCoolTimer = 0.f;

  00404	48 8b 85 50 02
	00 00		 mov	 rax, QWORD PTR this$[rbp]
  0040b	0f 57 c0	 xorps	 xmm0, xmm0
  0040e	f3 0f 11 80 a4
	01 00 00	 movss	 DWORD PTR [rax+420], xmm0
$LN28@AnimationS:
$LN20@AnimationS:

; 862  : 						}
; 863  : 					}
; 864  : 				}
; 865  : 				else

  00416	e9 df 00 00 00	 jmp	 $LN18@AnimationS
$LN17@AnimationS:

; 866  : 				{
; 867  : 					m_bTraceFinish = true;

  0041b	48 8b 85 50 02
	00 00		 mov	 rax, QWORD PTR this$[rbp]
  00422	c6 80 48 01 00
	00 01		 mov	 BYTE PTR [rax+328], 1

; 868  : 
; 869  : 					if (!m_bAttack)

  00429	48 8b 85 50 02
	00 00		 mov	 rax, QWORD PTR this$[rbp]
  00430	0f b6 80 50 01
	00 00		 movzx	 eax, BYTE PTR [rax+336]
  00437	85 c0		 test	 eax, eax
  00439	75 56		 jne	 SHORT $LN30@AnimationS

; 870  : 					{
; 871  : 						if (m_eType == TYPE::HUMANOID)

  0043b	48 8b 85 50 02
	00 00		 mov	 rax, QWORD PTR this$[rbp]
  00442	83 b8 d8 00 00
	00 00		 cmp	 DWORD PTR [rax+216], 0
  00449	75 24		 jne	 SHORT $LN31@AnimationS

; 872  : 							model->Setup_Animation((_uint)CLIP::STAND, CAnimation::TYPE::LOOP, true);

  0044b	41 b1 01	 mov	 r9b, 1
  0044e	41 b8 01 00 00
	00		 mov	 r8d, 1
  00454	ba 14 00 00 00	 mov	 edx, 20
  00459	48 8b 85 50 02
	00 00		 mov	 rax, QWORD PTR this$[rbp]
  00460	48 8b 88 a0 00
	00 00		 mov	 rcx, QWORD PTR [rax+160]
  00467	ff 15 00 00 00
	00		 call	 QWORD PTR __imp_?Setup_Animation@CModel@Engine@@QEAAJIW4TYPE@CAnimation@2@_N@Z

; 873  : 						else

  0046d	eb 22		 jmp	 SHORT $LN32@AnimationS
$LN31@AnimationS:

; 874  : 							model->Setup_Animation((_uint)CLIP_TWO::STAND2, CAnimation::TYPE::LOOP, true);

  0046f	41 b1 01	 mov	 r9b, 1
  00472	41 b8 01 00 00
	00		 mov	 r8d, 1
  00478	ba 0f 00 00 00	 mov	 edx, 15
  0047d	48 8b 85 50 02
	00 00		 mov	 rax, QWORD PTR this$[rbp]
  00484	48 8b 88 a0 00
	00 00		 mov	 rcx, QWORD PTR [rax+160]
  0048b	ff 15 00 00 00
	00		 call	 QWORD PTR __imp_?Setup_Animation@CModel@Engine@@QEAAJIW4TYPE@CAnimation@2@_N@Z
$LN32@AnimationS:
$LN30@AnimationS:

; 875  : 					}
; 876  : 
; 877  : 					m_fAttackCoolTimer += TimeDelta;

  00491	48 8b 85 50 02
	00 00		 mov	 rax, QWORD PTR this$[rbp]
  00498	f3 0f 5a 80 a4
	01 00 00	 cvtss2sd xmm0, DWORD PTR [rax+420]
  004a0	f2 0f 58 85 58
	02 00 00	 addsd	 xmm0, QWORD PTR TimeDelta$[rbp]
  004a8	f2 0f 5a c0	 cvtsd2ss xmm0, xmm0
  004ac	48 8b 85 50 02
	00 00		 mov	 rax, QWORD PTR this$[rbp]
  004b3	f3 0f 11 80 a4
	01 00 00	 movss	 DWORD PTR [rax+420], xmm0

; 878  : 					if (m_fAttackCoolTimer >= m_fAttackCoolTimeOut)

  004bb	48 8b 85 50 02
	00 00		 mov	 rax, QWORD PTR this$[rbp]
  004c2	48 8b 8d 50 02
	00 00		 mov	 rcx, QWORD PTR this$[rbp]
  004c9	f3 0f 10 80 a4
	01 00 00	 movss	 xmm0, DWORD PTR [rax+420]
  004d1	0f 2f 81 a8 01
	00 00		 comiss	 xmm0, DWORD PTR [rcx+424]
  004d8	72 20		 jb	 SHORT $LN33@AnimationS

; 879  : 					{
; 880  : 						m_bAttack = true;

  004da	48 8b 85 50 02
	00 00		 mov	 rax, QWORD PTR this$[rbp]
  004e1	c6 80 50 01 00
	00 01		 mov	 BYTE PTR [rax+336], 1

; 881  : 						m_fAttackCoolTimer = 0.f;

  004e8	48 8b 85 50 02
	00 00		 mov	 rax, QWORD PTR this$[rbp]
  004ef	0f 57 c0	 xorps	 xmm0, xmm0
  004f2	f3 0f 11 80 a4
	01 00 00	 movss	 DWORD PTR [rax+420], xmm0
$LN33@AnimationS:
$LN18@AnimationS:
$LN16@AnimationS:

; 882  : 					}
; 883  : 				}
; 884  : 			}
; 885  : 
; 886  : 			if (m_bAttack)

  004fa	48 8b 85 50 02
	00 00		 mov	 rax, QWORD PTR this$[rbp]
  00501	0f b6 80 50 01
	00 00		 movzx	 eax, BYTE PTR [rax+336]
  00508	85 c0		 test	 eax, eax
  0050a	0f 84 11 01 00
	00		 je	 $LN34@AnimationS

; 887  : 			{
; 888  : 				Attack(TimeDelta);

  00510	f2 0f 10 8d 58
	02 00 00	 movsd	 xmm1, QWORD PTR TimeDelta$[rbp]
  00518	48 8b 8d 50 02
	00 00		 mov	 rcx, QWORD PTR this$[rbp]
  0051f	e8 00 00 00 00	 call	 ?Attack@CEnemy@Client@@AEAAXN@Z ; Client::CEnemy::Attack

; 889  : 
; 890  : 				if (!m_bAttackCollision || !m_bAttackOneCall)

  00524	48 8b 85 50 02
	00 00		 mov	 rax, QWORD PTR this$[rbp]
  0052b	0f b6 80 8d 01
	00 00		 movzx	 eax, BYTE PTR [rax+397]
  00532	85 c0		 test	 eax, eax
  00534	74 12		 je	 SHORT $LN36@AnimationS
  00536	48 8b 85 50 02
	00 00		 mov	 rax, QWORD PTR this$[rbp]
  0053d	0f b6 80 8c 01
	00 00		 movzx	 eax, BYTE PTR [rax+396]
  00544	85 c0		 test	 eax, eax
  00546	75 4d		 jne	 SHORT $LN35@AnimationS
$LN36@AnimationS:

; 891  : 				{
; 892  : 					m_bAttackOneCall = true;

  00548	48 8b 85 50 02
	00 00		 mov	 rax, QWORD PTR this$[rbp]
  0054f	c6 80 8c 01 00
	00 01		 mov	 BYTE PTR [rax+396], 1

; 893  : 					if (model->AnimationIsPreFinishEx())

  00556	48 8b 85 50 02
	00 00		 mov	 rax, QWORD PTR this$[rbp]
  0055d	48 8b 88 a0 00
	00 00		 mov	 rcx, QWORD PTR [rax+160]
  00564	ff 15 00 00 00
	00		 call	 QWORD PTR __imp_?AnimationIsPreFinishEx@CModel@Engine@@QEAA_NXZ
  0056a	0f b6 c0	 movzx	 eax, al
  0056d	85 c0		 test	 eax, eax
  0056f	74 24		 je	 SHORT $LN37@AnimationS

; 894  : 					{
; 895  : 						m_bAttackCollision = true;

  00571	48 8b 85 50 02
	00 00		 mov	 rax, QWORD PTR this$[rbp]
  00578	c6 80 8d 01 00
	00 01		 mov	 BYTE PTR [rax+397], 1

; 896  : 						m_pWeaponCollider->SetActive(true);

  0057f	b2 01		 mov	 dl, 1
  00581	48 8b 85 50 02
	00 00		 mov	 rax, QWORD PTR this$[rbp]
  00588	48 8b 88 c0 00
	00 00		 mov	 rcx, QWORD PTR [rax+192]
  0058f	ff 15 00 00 00
	00		 call	 QWORD PTR __imp_?SetActive@CCollider@Engine@@QEAAX_N@Z
$LN37@AnimationS:
$LN35@AnimationS:

; 897  : 					}
; 898  : 				}
; 899  : 
; 900  : 				if (model->AnimationIsPreFinish())

  00595	48 8b 85 50 02
	00 00		 mov	 rax, QWORD PTR this$[rbp]
  0059c	48 8b 88 a0 00
	00 00		 mov	 rcx, QWORD PTR [rax+160]
  005a3	ff 15 00 00 00
	00		 call	 QWORD PTR __imp_?AnimationIsPreFinish@CModel@Engine@@QEAA_NXZ
  005a9	0f b6 c0	 movzx	 eax, al
  005ac	85 c0		 test	 eax, eax
  005ae	74 24		 je	 SHORT $LN38@AnimationS

; 901  : 				{
; 902  : 					m_bAttackCollision = false;

  005b0	48 8b 85 50 02
	00 00		 mov	 rax, QWORD PTR this$[rbp]
  005b7	c6 80 8d 01 00
	00 00		 mov	 BYTE PTR [rax+397], 0

; 903  : 					m_pWeaponCollider->SetActive(false);

  005be	33 d2		 xor	 edx, edx
  005c0	48 8b 85 50 02
	00 00		 mov	 rax, QWORD PTR this$[rbp]
  005c7	48 8b 88 c0 00
	00 00		 mov	 rcx, QWORD PTR [rax+192]
  005ce	ff 15 00 00 00
	00		 call	 QWORD PTR __imp_?SetActive@CCollider@Engine@@QEAAX_N@Z
$LN38@AnimationS:

; 904  : 				}
; 905  : 
; 906  : 				if (model->AnimationIsFinishEx())

  005d4	48 8b 85 50 02
	00 00		 mov	 rax, QWORD PTR this$[rbp]
  005db	48 8b 88 a0 00
	00 00		 mov	 rcx, QWORD PTR [rax+160]
  005e2	ff 15 00 00 00
	00		 call	 QWORD PTR __imp_?AnimationIsFinishEx@CModel@Engine@@QEAA_NXZ
  005e8	0f b6 c0	 movzx	 eax, al
  005eb	85 c0		 test	 eax, eax
  005ed	74 32		 je	 SHORT $LN39@AnimationS

; 907  : 				{
; 908  : 					m_bAttackOneCall = false;

  005ef	48 8b 85 50 02
	00 00		 mov	 rax, QWORD PTR this$[rbp]
  005f6	c6 80 8c 01 00
	00 00		 mov	 BYTE PTR [rax+396], 0

; 909  : 					m_bAttackCollision = false;

  005fd	48 8b 85 50 02
	00 00		 mov	 rax, QWORD PTR this$[rbp]
  00604	c6 80 8d 01 00
	00 00		 mov	 BYTE PTR [rax+397], 0

; 910  : 					m_pWeaponCollider->SetActive(false);

  0060b	33 d2		 xor	 edx, edx
  0060d	48 8b 85 50 02
	00 00		 mov	 rax, QWORD PTR this$[rbp]
  00614	48 8b 88 c0 00
	00 00		 mov	 rcx, QWORD PTR [rax+192]
  0061b	ff 15 00 00 00
	00		 call	 QWORD PTR __imp_?SetActive@CCollider@Engine@@QEAAX_N@Z
$LN39@AnimationS:
$LN34@AnimationS:

; 911  : 				}
; 912  : 			}
; 913  : 
; 914  : 			if (model->AnimationIsFinishEx())

  00621	48 8b 85 50 02
	00 00		 mov	 rax, QWORD PTR this$[rbp]
  00628	48 8b 88 a0 00
	00 00		 mov	 rcx, QWORD PTR [rax+160]
  0062f	ff 15 00 00 00
	00		 call	 QWORD PTR __imp_?AnimationIsFinishEx@CModel@Engine@@QEAA_NXZ
  00635	0f b6 c0	 movzx	 eax, al
  00638	85 c0		 test	 eax, eax
  0063a	74 14		 je	 SHORT $LN40@AnimationS

; 915  : 				Idle(TimeDelta);

  0063c	f2 0f 10 8d 58
	02 00 00	 movsd	 xmm1, QWORD PTR TimeDelta$[rbp]
  00644	48 8b 8d 50 02
	00 00		 mov	 rcx, QWORD PTR this$[rbp]
  0064b	e8 00 00 00 00	 call	 ?Idle@CEnemy@Client@@AEAAXN@Z ; Client::CEnemy::Idle
$LN40@AnimationS:
$LN14@AnimationS:
$LN9@AnimationS:
$LN7@AnimationS:
$LN5@AnimationS:

; 916  : 		}
; 917  : 	}
; 918  :  
; 919  : 	if(!m_bAttackCollision)

  00650	48 8b 85 50 02
	00 00		 mov	 rax, QWORD PTR this$[rbp]
  00657	0f b6 80 8d 01
	00 00		 movzx	 eax, BYTE PTR [rax+397]
  0065e	85 c0		 test	 eax, eax
  00660	75 16		 jne	 SHORT $LN41@AnimationS

; 920  : 		m_pWeaponCollider->SetActive(false);

  00662	33 d2		 xor	 edx, edx
  00664	48 8b 85 50 02
	00 00		 mov	 rax, QWORD PTR this$[rbp]
  0066b	48 8b 88 c0 00
	00 00		 mov	 rcx, QWORD PTR [rax+192]
  00672	ff 15 00 00 00
	00		 call	 QWORD PTR __imp_?SetActive@CCollider@Engine@@QEAAX_N@Z
$LN41@AnimationS:

; 921  : 
; 922  : 	if (m_bNuckback)

  00678	48 8b 85 50 02
	00 00		 mov	 rax, QWORD PTR this$[rbp]
  0067f	0f b6 80 90 01
	00 00		 movzx	 eax, BYTE PTR [rax+400]
  00686	85 c0		 test	 eax, eax
  00688	74 14		 je	 SHORT $LN42@AnimationS

; 923  : 	{
; 924  : 		NuckBack(TimeDelta);

  0068a	f2 0f 10 8d 58
	02 00 00	 movsd	 xmm1, QWORD PTR TimeDelta$[rbp]
  00692	48 8b 8d 50 02
	00 00		 mov	 rcx, QWORD PTR this$[rbp]
  00699	e8 00 00 00 00	 call	 ?NuckBack@CEnemy@Client@@AEAAXN@Z ; Client::CEnemy::NuckBack
$LN42@AnimationS:

; 925  : 	}
; 926  : }

  0069e	48 8d 4d e0	 lea	 rcx, QWORD PTR [rbp-32]
  006a2	48 8d 15 00 00
	00 00		 lea	 rdx, OFFSET FLAT:?AnimationState@CEnemy@Client@@AEAAXN@Z$rtcFrameData
  006a9	e8 00 00 00 00	 call	 _RTC_CheckStackVars
  006ae	48 8b 8d 28 02
	00 00		 mov	 rcx, QWORD PTR __$ArrayPad$[rbp]
  006b5	48 33 cd	 xor	 rcx, rbp
  006b8	e8 00 00 00 00	 call	 __security_check_cookie
  006bd	48 8d a5 38 02
	00 00		 lea	 rsp, QWORD PTR [rbp+568]
  006c4	5f		 pop	 rdi
  006c5	5d		 pop	 rbp
  006c6	c3		 ret	 0
?AnimationState@CEnemy@Client@@AEAAXN@Z ENDP		; Client::CEnemy::AnimationState
_TEXT	ENDS
; Function compile flags: /Odtp /RTCsu /ZI
; File c:\github\framework\client\private\enemy.cpp
;	COMDAT ?Freeze@CEnemy@Client@@AEAANN@Z
_TEXT	SEGMENT
CurTimeDelta$1 = 16
$T2 = 256
$T3 = 304
$T4 = 352
this$ = 416
TimeDelta$ = 424
?Freeze@CEnemy@Client@@AEAANN@Z PROC			; Client::CEnemy::Freeze, COMDAT

; 751  : {

$LN5:
  00000	f2 0f 11 4c 24
	10		 movsd	 QWORD PTR [rsp+16], xmm1
  00006	48 89 4c 24 08	 mov	 QWORD PTR [rsp+8], rcx
  0000b	55		 push	 rbp
  0000c	57		 push	 rdi
  0000d	48 81 ec b8 01
	00 00		 sub	 rsp, 440		; 000001b8H
  00014	48 8d 6c 24 30	 lea	 rbp, QWORD PTR [rsp+48]
  00019	48 8b fc	 mov	 rdi, rsp
  0001c	b9 6e 00 00 00	 mov	 ecx, 110		; 0000006eH
  00021	b8 cc cc cc cc	 mov	 eax, -858993460		; ccccccccH
  00026	f3 ab		 rep stosd
  00028	48 8b 8c 24 d8
	01 00 00	 mov	 rcx, QWORD PTR [rsp+472]

; 752  : 	if (m_pAppManager->IsFreeze())

  00030	48 8b 85 a0 01
	00 00		 mov	 rax, QWORD PTR this$[rbp]
  00037	48 8b 88 d0 00
	00 00		 mov	 rcx, QWORD PTR [rax+208]
  0003e	e8 00 00 00 00	 call	 ?IsFreeze@CApplicationManager@Client@@QEBA_NXZ ; Client::CApplicationManager::IsFreeze
  00043	0f b6 c0	 movzx	 eax, al
  00046	85 c0		 test	 eax, eax
  00048	0f 84 ee 00 00
	00		 je	 $LN2@Freeze

; 753  : 	{
; 754  : 		m_bAttackCollision = false;

  0004e	48 8b 85 a0 01
	00 00		 mov	 rax, QWORD PTR this$[rbp]
  00055	c6 80 8d 01 00
	00 00		 mov	 BYTE PTR [rax+397], 0

; 755  : 		m_pWeaponCollider->SetActive(false);

  0005c	33 d2		 xor	 edx, edx
  0005e	48 8b 85 a0 01
	00 00		 mov	 rax, QWORD PTR this$[rbp]
  00065	48 8b 88 c0 00
	00 00		 mov	 rcx, QWORD PTR [rax+192]
  0006c	ff 15 00 00 00
	00		 call	 QWORD PTR __imp_?SetActive@CCollider@Engine@@QEAAX_N@Z

; 756  : 		_vector CurTimeDelta = XMVectorSet(m_fCurTimeScale, m_fCurTimeScale, m_fCurTimeScale, m_fCurTimeScale);

  00072	48 8b 85 a0 01
	00 00		 mov	 rax, QWORD PTR this$[rbp]
  00079	f3 0f 10 98 a0
	01 00 00	 movss	 xmm3, DWORD PTR [rax+416]
  00081	48 8b 85 a0 01
	00 00		 mov	 rax, QWORD PTR this$[rbp]
  00088	f3 0f 10 90 a0
	01 00 00	 movss	 xmm2, DWORD PTR [rax+416]
  00090	48 8b 85 a0 01
	00 00		 mov	 rax, QWORD PTR this$[rbp]
  00097	f3 0f 10 88 a0
	01 00 00	 movss	 xmm1, DWORD PTR [rax+416]
  0009f	48 8b 85 a0 01
	00 00		 mov	 rax, QWORD PTR this$[rbp]
  000a6	f3 0f 10 80 a0
	01 00 00	 movss	 xmm0, DWORD PTR [rax+416]
  000ae	e8 00 00 00 00	 call	 ?XMVectorSet@DirectX@@YQ?AT__m128@@MMMM@Z ; DirectX::XMVectorSet
  000b3	0f 29 85 00 01
	00 00		 movaps	 XMMWORD PTR $T2[rbp], xmm0
  000ba	0f 28 85 00 01
	00 00		 movaps	 xmm0, XMMWORD PTR $T2[rbp]
  000c1	0f 29 45 10	 movaps	 XMMWORD PTR CurTimeDelta$1[rbp], xmm0

; 757  : 		m_fCurTimeScale = XMVectorGetX(XMVectorLerp(CurTimeDelta, XMVectorSet(0.1f, 0.1f, 0.1f, 0.1f), TimeDelta * 0.8));

  000c5	f3 0f 10 1d 00
	00 00 00	 movss	 xmm3, DWORD PTR __real@3dcccccd
  000cd	f3 0f 10 15 00
	00 00 00	 movss	 xmm2, DWORD PTR __real@3dcccccd
  000d5	f3 0f 10 0d 00
	00 00 00	 movss	 xmm1, DWORD PTR __real@3dcccccd
  000dd	f3 0f 10 05 00
	00 00 00	 movss	 xmm0, DWORD PTR __real@3dcccccd
  000e5	e8 00 00 00 00	 call	 ?XMVectorSet@DirectX@@YQ?AT__m128@@MMMM@Z ; DirectX::XMVectorSet
  000ea	0f 29 85 60 01
	00 00		 movaps	 XMMWORD PTR $T4[rbp], xmm0
  000f1	f2 0f 10 85 a8
	01 00 00	 movsd	 xmm0, QWORD PTR TimeDelta$[rbp]
  000f9	f2 0f 59 05 00
	00 00 00	 mulsd	 xmm0, QWORD PTR __real@3fe999999999999a
  00101	f2 0f 5a c0	 cvtsd2ss xmm0, xmm0
  00105	0f 28 d0	 movaps	 xmm2, xmm0
  00108	0f 28 8d 60 01
	00 00		 movaps	 xmm1, XMMWORD PTR $T4[rbp]
  0010f	0f 28 45 10	 movaps	 xmm0, XMMWORD PTR CurTimeDelta$1[rbp]
  00113	e8 00 00 00 00	 call	 ?XMVectorLerp@DirectX@@YQ?AT__m128@@T2@0M@Z ; DirectX::XMVectorLerp
  00118	0f 29 85 30 01
	00 00		 movaps	 XMMWORD PTR $T3[rbp], xmm0
  0011f	0f 28 85 30 01
	00 00		 movaps	 xmm0, XMMWORD PTR $T3[rbp]
  00126	e8 00 00 00 00	 call	 ?XMVectorGetX@DirectX@@YQMT__m128@@@Z ; DirectX::XMVectorGetX
  0012b	48 8b 85 a0 01
	00 00		 mov	 rax, QWORD PTR this$[rbp]
  00132	f3 0f 11 80 a0
	01 00 00	 movss	 DWORD PTR [rax+416], xmm0

; 758  : 	}
; 759  : 	else

  0013a	eb 17		 jmp	 SHORT $LN3@Freeze
$LN2@Freeze:

; 760  : 		m_fCurTimeScale = 1.0;

  0013c	48 8b 85 a0 01
	00 00		 mov	 rax, QWORD PTR this$[rbp]
  00143	f3 0f 10 05 00
	00 00 00	 movss	 xmm0, DWORD PTR __real@3f800000
  0014b	f3 0f 11 80 a0
	01 00 00	 movss	 DWORD PTR [rax+416], xmm0
$LN3@Freeze:

; 761  : 
; 762  : 	return TimeDelta = TimeDelta * m_fCurTimeScale;

  00153	48 8b 85 a0 01
	00 00		 mov	 rax, QWORD PTR this$[rbp]
  0015a	f3 0f 5a 80 a0
	01 00 00	 cvtss2sd xmm0, DWORD PTR [rax+416]
  00162	f2 0f 10 8d a8
	01 00 00	 movsd	 xmm1, QWORD PTR TimeDelta$[rbp]
  0016a	f2 0f 59 c8	 mulsd	 xmm1, xmm0
  0016e	0f 28 c1	 movaps	 xmm0, xmm1
  00171	f2 0f 11 85 a8
	01 00 00	 movsd	 QWORD PTR TimeDelta$[rbp], xmm0
  00179	f2 0f 10 85 a8
	01 00 00	 movsd	 xmm0, QWORD PTR TimeDelta$[rbp]

; 763  : }

  00181	48 8d a5 88 01
	00 00		 lea	 rsp, QWORD PTR [rbp+392]
  00188	5f		 pop	 rdi
  00189	5d		 pop	 rbp
  0018a	c3		 ret	 0
?Freeze@CEnemy@Client@@AEAANN@Z ENDP			; Client::CEnemy::Freeze
_TEXT	ENDS
; Function compile flags: /Odtp /RTCsu /ZI
; File c:\github\framework\client\private\enemy.cpp
;	COMDAT ?Die@CEnemy@Client@@AEAAXN@Z
_TEXT	SEGMENT
pColl$1 = 8
this$ = 256
TimeDelta$ = 264
?Die@CEnemy@Client@@AEAAXN@Z PROC			; Client::CEnemy::Die, COMDAT

; 723  : {

$LN8:
  00000	f2 0f 11 4c 24
	10		 movsd	 QWORD PTR [rsp+16], xmm1
  00006	48 89 4c 24 08	 mov	 QWORD PTR [rsp+8], rcx
  0000b	55		 push	 rbp
  0000c	57		 push	 rdi
  0000d	48 81 ec 08 01
	00 00		 sub	 rsp, 264		; 00000108H
  00014	48 8d 6c 24 20	 lea	 rbp, QWORD PTR [rsp+32]
  00019	48 8b fc	 mov	 rdi, rsp
  0001c	b9 42 00 00 00	 mov	 ecx, 66			; 00000042H
  00021	b8 cc cc cc cc	 mov	 eax, -858993460		; ccccccccH
  00026	f3 ab		 rep stosd
  00028	48 8b 8c 24 28
	01 00 00	 mov	 rcx, QWORD PTR [rsp+296]

; 724  : 	if (!m_bDead)

  00030	48 8b 85 00 01
	00 00		 mov	 rax, QWORD PTR this$[rbp]
  00037	0f b6 80 81 01
	00 00		 movzx	 eax, BYTE PTR [rax+385]
  0003e	85 c0		 test	 eax, eax
  00040	75 6a		 jne	 SHORT $LN2@Die

; 725  : 	{
; 726  : 		static_cast<CCharacter*>(m_pPlayer)->DeleteTargetFromList(this);

  00042	48 8b 95 00 01
	00 00		 mov	 rdx, QWORD PTR this$[rbp]
  00049	48 8b 85 00 01
	00 00		 mov	 rax, QWORD PTR this$[rbp]
  00050	48 8b 88 38 01
	00 00		 mov	 rcx, QWORD PTR [rax+312]
  00057	e8 00 00 00 00	 call	 ?DeleteTargetFromList@CCharacter@Client@@QEAAXPEAVCGameObject@Engine@@@Z ; Client::CCharacter::DeleteTargetFromList

; 727  : 
; 728  : 		if (m_eType == TYPE::HUMANOID)

  0005c	48 8b 85 00 01
	00 00		 mov	 rax, QWORD PTR this$[rbp]
  00063	83 b8 d8 00 00
	00 00		 cmp	 DWORD PTR [rax+216], 0
  0006a	75 21		 jne	 SHORT $LN3@Die

; 729  : 			model->Setup_Animation((_uint)CLIP::DEATH, CAnimation::TYPE::ONE, true);

  0006c	41 b1 01	 mov	 r9b, 1
  0006f	45 33 c0	 xor	 r8d, r8d
  00072	ba 07 00 00 00	 mov	 edx, 7
  00077	48 8b 85 00 01
	00 00		 mov	 rax, QWORD PTR this$[rbp]
  0007e	48 8b 88 a0 00
	00 00		 mov	 rcx, QWORD PTR [rax+160]
  00085	ff 15 00 00 00
	00		 call	 QWORD PTR __imp_?Setup_Animation@CModel@Engine@@QEAAJIW4TYPE@CAnimation@2@_N@Z

; 730  : 		else

  0008b	eb 1f		 jmp	 SHORT $LN4@Die
$LN3@Die:

; 731  : 			model->Setup_Animation((_uint)CLIP_TWO::DEATH, CAnimation::TYPE::ONE, true);

  0008d	41 b1 01	 mov	 r9b, 1
  00090	45 33 c0	 xor	 r8d, r8d
  00093	ba 05 00 00 00	 mov	 edx, 5
  00098	48 8b 85 00 01
	00 00		 mov	 rax, QWORD PTR this$[rbp]
  0009f	48 8b 88 a0 00
	00 00		 mov	 rcx, QWORD PTR [rax+160]
  000a6	ff 15 00 00 00
	00		 call	 QWORD PTR __imp_?Setup_Animation@CModel@Engine@@QEAAJIW4TYPE@CAnimation@2@_N@Z
$LN4@Die:
$LN2@Die:

; 732  : 	}
; 733  : 
; 734  : 	if (m_bDeadWait && model->AnimationIsFinishEx())

  000ac	48 8b 85 00 01
	00 00		 mov	 rax, QWORD PTR this$[rbp]
  000b3	0f b6 80 82 01
	00 00		 movzx	 eax, BYTE PTR [rax+386]
  000ba	85 c0		 test	 eax, eax
  000bc	74 70		 je	 SHORT $LN5@Die
  000be	48 8b 85 00 01
	00 00		 mov	 rax, QWORD PTR this$[rbp]
  000c5	48 8b 88 a0 00
	00 00		 mov	 rcx, QWORD PTR [rax+160]
  000cc	ff 15 00 00 00
	00		 call	 QWORD PTR __imp_?AnimationIsFinishEx@CModel@Engine@@QEAA_NXZ
  000d2	0f b6 c0	 movzx	 eax, al
  000d5	85 c0		 test	 eax, eax
  000d7	74 55		 je	 SHORT $LN5@Die

; 735  : 	{
; 736  : 		CCollider* pColl = m_pPlayer->GetEnemyCheckCollider();

  000d9	48 8b 85 00 01
	00 00		 mov	 rax, QWORD PTR this$[rbp]
  000e0	48 8b 88 38 01
	00 00		 mov	 rcx, QWORD PTR [rax+312]
  000e7	e8 00 00 00 00	 call	 ?GetEnemyCheckCollider@CCharacter@Client@@QEBAPEAVCCollider@Engine@@XZ ; Client::CCharacter::GetEnemyCheckCollider
  000ec	48 89 45 08	 mov	 QWORD PTR pColl$1[rbp], rax

; 737  : 		pColl->EraseHitCollider(m_pOverlapCollider);

  000f0	48 8b 85 00 01
	00 00		 mov	 rax, QWORD PTR this$[rbp]
  000f7	48 8b 90 b8 00
	00 00		 mov	 rdx, QWORD PTR [rax+184]
  000fe	48 8b 4d 08	 mov	 rcx, QWORD PTR pColl$1[rbp]
  00102	ff 15 00 00 00
	00		 call	 QWORD PTR __imp_?EraseHitCollider@CCollider@Engine@@QEAAXPEAV12@@Z

; 738  : 		m_pOverlapCollider->EraseHitCollider(pColl);

  00108	48 8b 55 08	 mov	 rdx, QWORD PTR pColl$1[rbp]
  0010c	48 8b 85 00 01
	00 00		 mov	 rax, QWORD PTR this$[rbp]
  00113	48 8b 88 b8 00
	00 00		 mov	 rcx, QWORD PTR [rax+184]
  0011a	ff 15 00 00 00
	00		 call	 QWORD PTR __imp_?EraseHitCollider@CCollider@Engine@@QEAAXPEAV12@@Z

; 739  : 
; 740  : 		m_bDead = true;

  00120	48 8b 85 00 01
	00 00		 mov	 rax, QWORD PTR this$[rbp]
  00127	c6 80 81 01 00
	00 01		 mov	 BYTE PTR [rax+385], 1
$LN5@Die:

; 741  : 	}
; 742  : 
; 743  : 	m_fDeadWaitTimer += (_float)TimeDelta;

  0012e	f2 0f 5a 85 08
	01 00 00	 cvtsd2ss xmm0, QWORD PTR TimeDelta$[rbp]
  00136	48 8b 85 00 01
	00 00		 mov	 rax, QWORD PTR this$[rbp]
  0013d	f3 0f 10 88 84
	01 00 00	 movss	 xmm1, DWORD PTR [rax+388]
  00145	f3 0f 58 c8	 addss	 xmm1, xmm0
  00149	0f 28 c1	 movaps	 xmm0, xmm1
  0014c	48 8b 85 00 01
	00 00		 mov	 rax, QWORD PTR this$[rbp]
  00153	f3 0f 11 80 84
	01 00 00	 movss	 DWORD PTR [rax+388], xmm0

; 744  : 	if (m_fDeadWaitTimer >= m_fDeadWaitTimeOut)

  0015b	48 8b 85 00 01
	00 00		 mov	 rax, QWORD PTR this$[rbp]
  00162	48 8b 8d 00 01
	00 00		 mov	 rcx, QWORD PTR this$[rbp]
  00169	f3 0f 10 80 84
	01 00 00	 movss	 xmm0, DWORD PTR [rax+388]
  00171	0f 2f 81 88 01
	00 00		 comiss	 xmm0, DWORD PTR [rcx+392]
  00178	72 12		 jb	 SHORT $LN6@Die

; 745  : 	{
; 746  : 		SetState(STATE::DISABLE);

  0017a	ba 01 00 00 00	 mov	 edx, 1
  0017f	48 8b 8d 00 01
	00 00		 mov	 rcx, QWORD PTR this$[rbp]
  00186	ff 15 00 00 00
	00		 call	 QWORD PTR __imp_?SetState@CGameObject@Engine@@QEAAXW4STATE@12@@Z
$LN6@Die:

; 747  : 	}
; 748  : }

  0018c	48 8d a5 e8 00
	00 00		 lea	 rsp, QWORD PTR [rbp+232]
  00193	5f		 pop	 rdi
  00194	5d		 pop	 rbp
  00195	c3		 ret	 0
?Die@CEnemy@Client@@AEAAXN@Z ENDP			; Client::CEnemy::Die
_TEXT	ENDS
; Function compile flags: /Odtp /RTCsu /ZI
; File c:\github\framework\client\private\enemy.cpp
;	COMDAT ?DieCheck@CEnemy@Client@@AEAA_NXZ
_TEXT	SEGMENT
this$ = 224
?DieCheck@CEnemy@Client@@AEAA_NXZ PROC			; Client::CEnemy::DieCheck, COMDAT

; 712  : {

$LN4:
  00000	48 89 4c 24 08	 mov	 QWORD PTR [rsp+8], rcx
  00005	55		 push	 rbp
  00006	57		 push	 rdi
  00007	48 81 ec c8 00
	00 00		 sub	 rsp, 200		; 000000c8H
  0000e	48 8b ec	 mov	 rbp, rsp
  00011	48 8b fc	 mov	 rdi, rsp
  00014	b9 32 00 00 00	 mov	 ecx, 50			; 00000032H
  00019	b8 cc cc cc cc	 mov	 eax, -858993460		; ccccccccH
  0001e	f3 ab		 rep stosd
  00020	48 8b 8c 24 e8
	00 00 00	 mov	 rcx, QWORD PTR [rsp+232]

; 713  : 	if (m_State.fCurHp <= 0.f)

  00028	48 8b 85 e0 00
	00 00		 mov	 rax, QWORD PTR this$[rbp]
  0002f	0f 57 c0	 xorps	 xmm0, xmm0
  00032	0f 2f 80 2c 01
	00 00		 comiss	 xmm0, DWORD PTR [rax+300]
  00039	72 12		 jb	 SHORT $LN2@DieCheck

; 714  : 	{
; 715  : 		m_bDeadWait = true;

  0003b	48 8b 85 e0 00
	00 00		 mov	 rax, QWORD PTR this$[rbp]
  00042	c6 80 82 01 00
	00 01		 mov	 BYTE PTR [rax+386], 1

; 716  : 		return true;

  00049	b0 01		 mov	 al, 1
  0004b	eb 02		 jmp	 SHORT $LN1@DieCheck
$LN2@DieCheck:

; 717  : 	}
; 718  : 
; 719  : 	return false;

  0004d	32 c0		 xor	 al, al
$LN1@DieCheck:

; 720  : }

  0004f	48 8d a5 c8 00
	00 00		 lea	 rsp, QWORD PTR [rbp+200]
  00056	5f		 pop	 rdi
  00057	5d		 pop	 rbp
  00058	c3		 ret	 0
?DieCheck@CEnemy@Client@@AEAA_NXZ ENDP			; Client::CEnemy::DieCheck
_TEXT	ENDS
; Function compile flags: /Odtp /RTCsu /ZI
; File c:\github\framework\client\private\enemy.cpp
;	COMDAT ?Holding@CEnemy@Client@@AEAAXN@Z
_TEXT	SEGMENT
this$ = 224
TimeDleta$ = 232
?Holding@CEnemy@Client@@AEAAXN@Z PROC			; Client::CEnemy::Holding, COMDAT

; 707  : {

$LN3:
  00000	f2 0f 11 4c 24
	10		 movsd	 QWORD PTR [rsp+16], xmm1
  00006	48 89 4c 24 08	 mov	 QWORD PTR [rsp+8], rcx
  0000b	55		 push	 rbp
  0000c	57		 push	 rdi
  0000d	48 81 ec c8 00
	00 00		 sub	 rsp, 200		; 000000c8H
  00014	48 8b ec	 mov	 rbp, rsp
  00017	48 8b fc	 mov	 rdi, rsp
  0001a	b9 32 00 00 00	 mov	 ecx, 50			; 00000032H
  0001f	b8 cc cc cc cc	 mov	 eax, -858993460		; ccccccccH
  00024	f3 ab		 rep stosd
  00026	48 8b 8c 24 e8
	00 00 00	 mov	 rcx, QWORD PTR [rsp+232]

; 708  : 	
; 709  : }

  0002e	48 8d a5 c8 00
	00 00		 lea	 rsp, QWORD PTR [rbp+200]
  00035	5f		 pop	 rdi
  00036	5d		 pop	 rbp
  00037	c3		 ret	 0
?Holding@CEnemy@Client@@AEAAXN@Z ENDP			; Client::CEnemy::Holding
_TEXT	ENDS
; Function compile flags: /Odtp /RTCsu /ZI
; File c:\github\framework\client\private\enemy.cpp
;	COMDAT ?Airborne@CEnemy@Client@@AEAAXN@Z
_TEXT	SEGMENT
this$ = 224
TimeDelta$ = 232
?Airborne@CEnemy@Client@@AEAAXN@Z PROC			; Client::CEnemy::Airborne, COMDAT

; 642  : {

$LN23:
  00000	f2 0f 11 4c 24
	10		 movsd	 QWORD PTR [rsp+16], xmm1
  00006	48 89 4c 24 08	 mov	 QWORD PTR [rsp+8], rcx
  0000b	55		 push	 rbp
  0000c	57		 push	 rdi
  0000d	48 81 ec e8 00
	00 00		 sub	 rsp, 232		; 000000e8H
  00014	48 8d 6c 24 20	 lea	 rbp, QWORD PTR [rsp+32]
  00019	48 8b fc	 mov	 rdi, rsp
  0001c	b9 3a 00 00 00	 mov	 ecx, 58			; 0000003aH
  00021	b8 cc cc cc cc	 mov	 eax, -858993460		; ccccccccH
  00026	f3 ab		 rep stosd
  00028	48 8b 8c 24 08
	01 00 00	 mov	 rcx, QWORD PTR [rsp+264]

; 643  : 	m_bRotationFinish = false;

  00030	48 8b 85 e0 00
	00 00		 mov	 rax, QWORD PTR this$[rbp]
  00037	c6 80 49 01 00
	00 00		 mov	 BYTE PTR [rax+329], 0

; 644  : 
; 645  : 	if (m_bAir)

  0003e	48 8b 85 e0 00
	00 00		 mov	 rax, QWORD PTR this$[rbp]
  00045	0f b6 80 b5 01
	00 00		 movzx	 eax, BYTE PTR [rax+437]
  0004c	85 c0		 test	 eax, eax
  0004e	74 52		 je	 SHORT $LN2@Airborne

; 646  : 	{
; 647  : 		if(m_eType == TYPE::HUMANOID)

  00050	48 8b 85 e0 00
	00 00		 mov	 rax, QWORD PTR this$[rbp]
  00057	83 b8 d8 00 00
	00 00		 cmp	 DWORD PTR [rax+216], 0
  0005e	75 21		 jne	 SHORT $LN4@Airborne

; 648  : 			model->Setup_Animation((_uint)CLIP::HITDOWN, CAnimation::TYPE::ONE, false);

  00060	45 33 c9	 xor	 r9d, r9d
  00063	45 33 c0	 xor	 r8d, r8d
  00066	ba 0d 00 00 00	 mov	 edx, 13
  0006b	48 8b 85 e0 00
	00 00		 mov	 rax, QWORD PTR this$[rbp]
  00072	48 8b 88 a0 00
	00 00		 mov	 rcx, QWORD PTR [rax+160]
  00079	ff 15 00 00 00
	00		 call	 QWORD PTR __imp_?Setup_Animation@CModel@Engine@@QEAAJIW4TYPE@CAnimation@2@_N@Z

; 649  : 		else

  0007f	eb 1f		 jmp	 SHORT $LN5@Airborne
$LN4@Airborne:

; 650  : 			model->Setup_Animation((_uint)CLIP_TWO::HITDOWN, CAnimation::TYPE::ONE, false);

  00081	45 33 c9	 xor	 r9d, r9d
  00084	45 33 c0	 xor	 r8d, r8d
  00087	ba 0b 00 00 00	 mov	 edx, 11
  0008c	48 8b 85 e0 00
	00 00		 mov	 rax, QWORD PTR this$[rbp]
  00093	48 8b 88 a0 00
	00 00		 mov	 rcx, QWORD PTR [rax+160]
  0009a	ff 15 00 00 00
	00		 call	 QWORD PTR __imp_?Setup_Animation@CModel@Engine@@QEAAJIW4TYPE@CAnimation@2@_N@Z
$LN5@Airborne:

; 651  : 	}
; 652  : 	else

  000a0	eb 50		 jmp	 SHORT $LN3@Airborne
$LN2@Airborne:

; 653  : 	{
; 654  : 		if (m_eType == TYPE::HUMANOID)

  000a2	48 8b 85 e0 00
	00 00		 mov	 rax, QWORD PTR this$[rbp]
  000a9	83 b8 d8 00 00
	00 00		 cmp	 DWORD PTR [rax+216], 0
  000b0	75 21		 jne	 SHORT $LN6@Airborne

; 655  : 			model->Setup_Animation((_uint)CLIP::STANDUP, CAnimation::TYPE::ONE, false);

  000b2	45 33 c9	 xor	 r9d, r9d
  000b5	45 33 c0	 xor	 r8d, r8d
  000b8	ba 15 00 00 00	 mov	 edx, 21
  000bd	48 8b 85 e0 00
	00 00		 mov	 rax, QWORD PTR this$[rbp]
  000c4	48 8b 88 a0 00
	00 00		 mov	 rcx, QWORD PTR [rax+160]
  000cb	ff 15 00 00 00
	00		 call	 QWORD PTR __imp_?Setup_Animation@CModel@Engine@@QEAAJIW4TYPE@CAnimation@2@_N@Z

; 656  : 		else

  000d1	eb 1f		 jmp	 SHORT $LN7@Airborne
$LN6@Airborne:

; 657  : 			model->Setup_Animation((_uint)CLIP_TWO::STANDUP, CAnimation::TYPE::ONE, false);

  000d3	45 33 c9	 xor	 r9d, r9d
  000d6	45 33 c0	 xor	 r8d, r8d
  000d9	ba 10 00 00 00	 mov	 edx, 16
  000de	48 8b 85 e0 00
	00 00		 mov	 rax, QWORD PTR this$[rbp]
  000e5	48 8b 88 a0 00
	00 00		 mov	 rcx, QWORD PTR [rax+160]
  000ec	ff 15 00 00 00
	00		 call	 QWORD PTR __imp_?Setup_Animation@CModel@Engine@@QEAAJIW4TYPE@CAnimation@2@_N@Z
$LN7@Airborne:
$LN3@Airborne:

; 658  : 	}
; 659  : 
; 660  : 	if (m_eType == TYPE::HUMANOID)

  000f2	48 8b 85 e0 00
	00 00		 mov	 rax, QWORD PTR this$[rbp]
  000f9	83 b8 d8 00 00
	00 00		 cmp	 DWORD PTR [rax+216], 0
  00100	0f 85 a7 00 00
	00		 jne	 $LN8@Airborne

; 661  : 	{
; 662  : 		if (model->AnimationCompare((_uint)CLIP::HITDOWN))

  00106	ba 0d 00 00 00	 mov	 edx, 13
  0010b	48 8b 85 e0 00
	00 00		 mov	 rax, QWORD PTR this$[rbp]
  00112	48 8b 88 a0 00
	00 00		 mov	 rcx, QWORD PTR [rax+160]
  00119	ff 15 00 00 00
	00		 call	 QWORD PTR __imp_?AnimationCompare@CModel@Engine@@QEBA_NI@Z
  0011f	0f b6 c0	 movzx	 eax, al
  00122	85 c0		 test	 eax, eax
  00124	74 2b		 je	 SHORT $LN10@Airborne

; 663  : 		{
; 664  : 			if (model->AnimationIsFinishEx())

  00126	48 8b 85 e0 00
	00 00		 mov	 rax, QWORD PTR this$[rbp]
  0012d	48 8b 88 a0 00
	00 00		 mov	 rcx, QWORD PTR [rax+160]
  00134	ff 15 00 00 00
	00		 call	 QWORD PTR __imp_?AnimationIsFinishEx@CModel@Engine@@QEAA_NXZ
  0013a	0f b6 c0	 movzx	 eax, al
  0013d	85 c0		 test	 eax, eax
  0013f	74 0e		 je	 SHORT $LN12@Airborne

; 665  : 				m_bStandupStart = true;

  00141	48 8b 85 e0 00
	00 00		 mov	 rax, QWORD PTR this$[rbp]
  00148	c6 80 b6 01 00
	00 01		 mov	 BYTE PTR [rax+438], 1
$LN12@Airborne:

; 666  : 		}

  0014f	eb 57		 jmp	 SHORT $LN11@Airborne
$LN10@Airborne:

; 667  : 		else if (model->AnimationCompare((_uint)CLIP::STANDUP))

  00151	ba 15 00 00 00	 mov	 edx, 21
  00156	48 8b 85 e0 00
	00 00		 mov	 rax, QWORD PTR this$[rbp]
  0015d	48 8b 88 a0 00
	00 00		 mov	 rcx, QWORD PTR [rax+160]
  00164	ff 15 00 00 00
	00		 call	 QWORD PTR __imp_?AnimationCompare@CModel@Engine@@QEBA_NI@Z
  0016a	0f b6 c0	 movzx	 eax, al
  0016d	85 c0		 test	 eax, eax
  0016f	74 37		 je	 SHORT $LN13@Airborne

; 668  : 		{
; 669  : 			if (model->AnimationIsFinishEx())

  00171	48 8b 85 e0 00
	00 00		 mov	 rax, QWORD PTR this$[rbp]
  00178	48 8b 88 a0 00
	00 00		 mov	 rcx, QWORD PTR [rax+160]
  0017f	ff 15 00 00 00
	00		 call	 QWORD PTR __imp_?AnimationIsFinishEx@CModel@Engine@@QEAA_NXZ
  00185	0f b6 c0	 movzx	 eax, al
  00188	85 c0		 test	 eax, eax
  0018a	74 1c		 je	 SHORT $LN14@Airborne

; 670  : 			{
; 671  : 				m_bAir = false;

  0018c	48 8b 85 e0 00
	00 00		 mov	 rax, QWORD PTR this$[rbp]
  00193	c6 80 b5 01 00
	00 00		 mov	 BYTE PTR [rax+437], 0

; 672  : 				m_bAirHit = false;

  0019a	48 8b 85 e0 00
	00 00		 mov	 rax, QWORD PTR this$[rbp]
  001a1	c6 80 b4 01 00
	00 00		 mov	 BYTE PTR [rax+436], 0
$LN14@Airborne:
$LN13@Airborne:
$LN11@Airborne:

; 673  : 			}
; 674  : 		}
; 675  : 	}
; 676  : 	else

  001a8	e9 a2 00 00 00	 jmp	 $LN9@Airborne
$LN8@Airborne:

; 677  : 	{
; 678  : 		if (model->AnimationCompare((_uint)CLIP_TWO::HITDOWN))

  001ad	ba 0b 00 00 00	 mov	 edx, 11
  001b2	48 8b 85 e0 00
	00 00		 mov	 rax, QWORD PTR this$[rbp]
  001b9	48 8b 88 a0 00
	00 00		 mov	 rcx, QWORD PTR [rax+160]
  001c0	ff 15 00 00 00
	00		 call	 QWORD PTR __imp_?AnimationCompare@CModel@Engine@@QEBA_NI@Z
  001c6	0f b6 c0	 movzx	 eax, al
  001c9	85 c0		 test	 eax, eax
  001cb	74 2b		 je	 SHORT $LN15@Airborne

; 679  : 		{
; 680  : 			if (model->AnimationIsFinishEx())

  001cd	48 8b 85 e0 00
	00 00		 mov	 rax, QWORD PTR this$[rbp]
  001d4	48 8b 88 a0 00
	00 00		 mov	 rcx, QWORD PTR [rax+160]
  001db	ff 15 00 00 00
	00		 call	 QWORD PTR __imp_?AnimationIsFinishEx@CModel@Engine@@QEAA_NXZ
  001e1	0f b6 c0	 movzx	 eax, al
  001e4	85 c0		 test	 eax, eax
  001e6	74 0e		 je	 SHORT $LN17@Airborne

; 681  : 				m_bStandupStart = true;

  001e8	48 8b 85 e0 00
	00 00		 mov	 rax, QWORD PTR this$[rbp]
  001ef	c6 80 b6 01 00
	00 01		 mov	 BYTE PTR [rax+438], 1
$LN17@Airborne:

; 682  : 		}

  001f6	eb 57		 jmp	 SHORT $LN16@Airborne
$LN15@Airborne:

; 683  : 		else if (model->AnimationCompare((_uint)CLIP_TWO::STANDUP))

  001f8	ba 10 00 00 00	 mov	 edx, 16
  001fd	48 8b 85 e0 00
	00 00		 mov	 rax, QWORD PTR this$[rbp]
  00204	48 8b 88 a0 00
	00 00		 mov	 rcx, QWORD PTR [rax+160]
  0020b	ff 15 00 00 00
	00		 call	 QWORD PTR __imp_?AnimationCompare@CModel@Engine@@QEBA_NI@Z
  00211	0f b6 c0	 movzx	 eax, al
  00214	85 c0		 test	 eax, eax
  00216	74 37		 je	 SHORT $LN18@Airborne

; 684  : 		{
; 685  : 			if (model->AnimationIsFinishEx())

  00218	48 8b 85 e0 00
	00 00		 mov	 rax, QWORD PTR this$[rbp]
  0021f	48 8b 88 a0 00
	00 00		 mov	 rcx, QWORD PTR [rax+160]
  00226	ff 15 00 00 00
	00		 call	 QWORD PTR __imp_?AnimationIsFinishEx@CModel@Engine@@QEAA_NXZ
  0022c	0f b6 c0	 movzx	 eax, al
  0022f	85 c0		 test	 eax, eax
  00231	74 1c		 je	 SHORT $LN19@Airborne

; 686  : 			{
; 687  : 				m_bAir = false;

  00233	48 8b 85 e0 00
	00 00		 mov	 rax, QWORD PTR this$[rbp]
  0023a	c6 80 b5 01 00
	00 00		 mov	 BYTE PTR [rax+437], 0

; 688  : 				m_bAirHit = false;

  00241	48 8b 85 e0 00
	00 00		 mov	 rax, QWORD PTR this$[rbp]
  00248	c6 80 b4 01 00
	00 00		 mov	 BYTE PTR [rax+436], 0
$LN19@Airborne:
$LN18@Airborne:
$LN16@Airborne:
$LN9@Airborne:

; 689  : 			}
; 690  : 		}
; 691  : 	}
; 692  : 
; 693  : 	if (m_bStandupStart)

  0024f	48 8b 85 e0 00
	00 00		 mov	 rax, QWORD PTR this$[rbp]
  00256	0f b6 80 b6 01
	00 00		 movzx	 eax, BYTE PTR [rax+438]
  0025d	85 c0		 test	 eax, eax
  0025f	74 7a		 je	 SHORT $LN20@Airborne

; 694  : 	{
; 695  : 		m_fStandupTimer += (_float)TimeDelta;

  00261	f2 0f 5a 85 e8
	00 00 00	 cvtsd2ss xmm0, QWORD PTR TimeDelta$[rbp]
  00269	48 8b 85 e0 00
	00 00		 mov	 rax, QWORD PTR this$[rbp]
  00270	f3 0f 10 88 b8
	01 00 00	 movss	 xmm1, DWORD PTR [rax+440]
  00278	f3 0f 58 c8	 addss	 xmm1, xmm0
  0027c	0f 28 c1	 movaps	 xmm0, xmm1
  0027f	48 8b 85 e0 00
	00 00		 mov	 rax, QWORD PTR this$[rbp]
  00286	f3 0f 11 80 b8
	01 00 00	 movss	 DWORD PTR [rax+440], xmm0

; 696  : 		if (m_fStandupTimer >= m_fStandupTimeOut)

  0028e	48 8b 85 e0 00
	00 00		 mov	 rax, QWORD PTR this$[rbp]
  00295	48 8b 8d e0 00
	00 00		 mov	 rcx, QWORD PTR this$[rbp]
  0029c	f3 0f 10 80 b8
	01 00 00	 movss	 xmm0, DWORD PTR [rax+440]
  002a4	0f 2f 81 bc 01
	00 00		 comiss	 xmm0, DWORD PTR [rcx+444]
  002ab	72 2e		 jb	 SHORT $LN21@Airborne

; 697  : 		{
; 698  : 			m_bAir = false;

  002ad	48 8b 85 e0 00
	00 00		 mov	 rax, QWORD PTR this$[rbp]
  002b4	c6 80 b5 01 00
	00 00		 mov	 BYTE PTR [rax+437], 0

; 699  : 			m_bStandupStart = false;

  002bb	48 8b 85 e0 00
	00 00		 mov	 rax, QWORD PTR this$[rbp]
  002c2	c6 80 b6 01 00
	00 00		 mov	 BYTE PTR [rax+438], 0

; 700  : 			m_fStandupTimer = 0.0f;

  002c9	48 8b 85 e0 00
	00 00		 mov	 rax, QWORD PTR this$[rbp]
  002d0	0f 57 c0	 xorps	 xmm0, xmm0
  002d3	f3 0f 11 80 b8
	01 00 00	 movss	 DWORD PTR [rax+440], xmm0
$LN21@Airborne:
$LN20@Airborne:

; 701  : 		}
; 702  : 	}
; 703  : 
; 704  : }

  002db	48 8d a5 c8 00
	00 00		 lea	 rsp, QWORD PTR [rbp+200]
  002e2	5f		 pop	 rdi
  002e3	5d		 pop	 rbp
  002e4	c3		 ret	 0
?Airborne@CEnemy@Client@@AEAAXN@Z ENDP			; Client::CEnemy::Airborne
_TEXT	ENDS
; Function compile flags: /Odtp /RTCsu /ZI
; File c:\github\framework\client\private\enemy.cpp
;	COMDAT ?NuckBack@CEnemy@Client@@AEAAXN@Z
_TEXT	SEGMENT
vPlayerPos$ = 16
vCurrentPos$ = 64
vDir$ = 112
vPos$ = 160
$T5 = 400
$T6 = 448
$T7 = 496
$T8 = 544
$T9 = 592
$T10 = 640
__$ArrayPad$ = 664
this$ = 704
TimeDelta$ = 712
?NuckBack@CEnemy@Client@@AEAAXN@Z PROC			; Client::CEnemy::NuckBack, COMDAT

; 615  : {

$LN4:
  00000	f2 0f 11 4c 24
	10		 movsd	 QWORD PTR [rsp+16], xmm1
  00006	48 89 4c 24 08	 mov	 QWORD PTR [rsp+8], rcx
  0000b	55		 push	 rbp
  0000c	57		 push	 rdi
  0000d	48 81 ec c8 02
	00 00		 sub	 rsp, 712		; 000002c8H
  00014	48 8d 6c 24 20	 lea	 rbp, QWORD PTR [rsp+32]
  00019	48 8b fc	 mov	 rdi, rsp
  0001c	b9 b2 00 00 00	 mov	 ecx, 178		; 000000b2H
  00021	b8 cc cc cc cc	 mov	 eax, -858993460		; ccccccccH
  00026	f3 ab		 rep stosd
  00028	48 8b 8c 24 e8
	02 00 00	 mov	 rcx, QWORD PTR [rsp+744]
  00030	48 8b 05 00 00
	00 00		 mov	 rax, QWORD PTR __security_cookie
  00037	48 33 c5	 xor	 rax, rbp
  0003a	48 89 85 98 02
	00 00		 mov	 QWORD PTR __$ArrayPad$[rbp], rax

; 616  : 	m_fNuckBackTimer += (_float)TimeDelta;

  00041	f2 0f 5a 85 c8
	02 00 00	 cvtsd2ss xmm0, QWORD PTR TimeDelta$[rbp]
  00049	48 8b 85 c0 02
	00 00		 mov	 rax, QWORD PTR this$[rbp]
  00050	f3 0f 10 88 98
	01 00 00	 movss	 xmm1, DWORD PTR [rax+408]
  00058	f3 0f 58 c8	 addss	 xmm1, xmm0
  0005c	0f 28 c1	 movaps	 xmm0, xmm1
  0005f	48 8b 85 c0 02
	00 00		 mov	 rax, QWORD PTR this$[rbp]
  00066	f3 0f 11 80 98
	01 00 00	 movss	 DWORD PTR [rax+408], xmm0

; 617  : 	if (m_fNuckBackTimer >= m_fNuckBackTimeOut)

  0006e	48 8b 85 c0 02
	00 00		 mov	 rax, QWORD PTR this$[rbp]
  00075	48 8b 8d c0 02
	00 00		 mov	 rcx, QWORD PTR this$[rbp]
  0007c	f3 0f 10 80 98
	01 00 00	 movss	 xmm0, DWORD PTR [rax+408]
  00084	0f 2f 81 9c 01
	00 00		 comiss	 xmm0, DWORD PTR [rcx+412]
  0008b	72 45		 jb	 SHORT $LN2@NuckBack

; 618  : 	{
; 619  : 		m_fNuckbackPower = 0.4f;

  0008d	48 8b 85 c0 02
	00 00		 mov	 rax, QWORD PTR this$[rbp]
  00094	f3 0f 10 05 00
	00 00 00	 movss	 xmm0, DWORD PTR __real@3ecccccd
  0009c	f3 0f 11 80 94
	01 00 00	 movss	 DWORD PTR [rax+404], xmm0

; 620  : 		m_bNuckback = false;

  000a4	48 8b 85 c0 02
	00 00		 mov	 rax, QWORD PTR this$[rbp]
  000ab	c6 80 90 01 00
	00 00		 mov	 BYTE PTR [rax+400], 0

; 621  : 		m_bNuckBackFinish = true;

  000b2	48 8b 85 c0 02
	00 00		 mov	 rax, QWORD PTR this$[rbp]
  000b9	c6 80 91 01 00
	00 01		 mov	 BYTE PTR [rax+401], 1

; 622  : 		m_fNuckBackTimer = 0.0f;

  000c0	48 8b 85 c0 02
	00 00		 mov	 rax, QWORD PTR this$[rbp]
  000c7	0f 57 c0	 xorps	 xmm0, xmm0
  000ca	f3 0f 11 80 98
	01 00 00	 movss	 DWORD PTR [rax+408], xmm0
$LN2@NuckBack:

; 623  : 	}
; 624  : 
; 625  : 	_vector vPlayerPos = m_pPlayerTransform->Get_State(CTransform::STATE_POSITION);

  000d2	41 b8 03 00 00
	00		 mov	 r8d, 3
  000d8	48 8d 55 10	 lea	 rdx, QWORD PTR vPlayerPos$[rbp]
  000dc	48 8b 85 c0 02
	00 00		 mov	 rax, QWORD PTR this$[rbp]
  000e3	48 8b 88 40 01
	00 00		 mov	 rcx, QWORD PTR [rax+320]
  000ea	ff 15 00 00 00
	00		 call	 QWORD PTR __imp_?Get_State@CTransform@Engine@@QEAA?AT__m128@@W4STATE@12@@Z

; 626  : 	_vector vCurrentPos = transform->Get_State(CTransform::STATE_POSITION);

  000f0	41 b8 03 00 00
	00		 mov	 r8d, 3
  000f6	48 8d 55 40	 lea	 rdx, QWORD PTR vCurrentPos$[rbp]
  000fa	48 8b 85 c0 02
	00 00		 mov	 rax, QWORD PTR this$[rbp]
  00101	48 8b 88 98 00
	00 00		 mov	 rcx, QWORD PTR [rax+152]
  00108	ff 15 00 00 00
	00		 call	 QWORD PTR __imp_?Get_State@CTransform@Engine@@QEAA?AT__m128@@W4STATE@12@@Z

; 627  : 	//_vector vDir = m_pPlayerTransform->Get_State(CTransform::STATE_LOOK);
; 628  : 
; 629  : 	LookPlayer(TimeDelta);

  0010e	f2 0f 10 8d c8
	02 00 00	 movsd	 xmm1, QWORD PTR TimeDelta$[rbp]
  00116	48 8b 8d c0 02
	00 00		 mov	 rcx, QWORD PTR this$[rbp]
  0011d	e8 00 00 00 00	 call	 ?LookPlayer@CEnemy@Client@@AEAAXN@Z ; Client::CEnemy::LookPlayer

; 630  : 
; 631  : 	_vector vDir = vCurrentPos - vPlayerPos;

  00122	0f 28 4d 10	 movaps	 xmm1, XMMWORD PTR vPlayerPos$[rbp]
  00126	0f 28 45 40	 movaps	 xmm0, XMMWORD PTR vCurrentPos$[rbp]
  0012a	e8 00 00 00 00	 call	 ??GDirectX@@YQ?AT__m128@@T1@0@Z ; DirectX::operator-
  0012f	0f 29 85 90 01
	00 00		 movaps	 XMMWORD PTR $T5[rbp], xmm0
  00136	0f 28 85 90 01
	00 00		 movaps	 xmm0, XMMWORD PTR $T5[rbp]
  0013d	0f 29 45 70	 movaps	 XMMWORD PTR vDir$[rbp], xmm0

; 632  : 	vDir = XMVector3Normalize(vDir);

  00141	0f 28 45 70	 movaps	 xmm0, XMMWORD PTR vDir$[rbp]
  00145	e8 00 00 00 00	 call	 ?XMVector3Normalize@DirectX@@YQ?AT__m128@@T2@@Z ; DirectX::XMVector3Normalize
  0014a	0f 29 85 c0 01
	00 00		 movaps	 XMMWORD PTR $T6[rbp], xmm0
  00151	0f 28 85 c0 01
	00 00		 movaps	 xmm0, XMMWORD PTR $T6[rbp]
  00158	0f 29 45 70	 movaps	 XMMWORD PTR vDir$[rbp], xmm0

; 633  : 
; 634  : 	_vector vPos;
; 635  : 	vPos = vCurrentPos + (vDir) * m_fNuckbackPower;

  0015c	48 8b 85 c0 02
	00 00		 mov	 rax, QWORD PTR this$[rbp]
  00163	f3 0f 10 88 94
	01 00 00	 movss	 xmm1, DWORD PTR [rax+404]
  0016b	0f 28 45 70	 movaps	 xmm0, XMMWORD PTR vDir$[rbp]
  0016f	e8 00 00 00 00	 call	 ??DDirectX@@YQ?AT__m128@@T1@M@Z ; DirectX::operator*
  00174	0f 29 85 20 02
	00 00		 movaps	 XMMWORD PTR $T8[rbp], xmm0
  0017b	0f 28 8d 20 02
	00 00		 movaps	 xmm1, XMMWORD PTR $T8[rbp]
  00182	0f 28 45 40	 movaps	 xmm0, XMMWORD PTR vCurrentPos$[rbp]
  00186	e8 00 00 00 00	 call	 ??HDirectX@@YQ?AT__m128@@T1@0@Z ; DirectX::operator+
  0018b	0f 29 85 f0 01
	00 00		 movaps	 XMMWORD PTR $T7[rbp], xmm0
  00192	0f 28 85 f0 01
	00 00		 movaps	 xmm0, XMMWORD PTR $T7[rbp]
  00199	0f 29 85 a0 00
	00 00		 movaps	 XMMWORD PTR vPos$[rbp], xmm0

; 636  : 	vCurrentPos = XMVectorLerp(vCurrentPos, vPos, TimeDelta * 0.8);

  001a0	f2 0f 10 85 c8
	02 00 00	 movsd	 xmm0, QWORD PTR TimeDelta$[rbp]
  001a8	f2 0f 59 05 00
	00 00 00	 mulsd	 xmm0, QWORD PTR __real@3fe999999999999a
  001b0	f2 0f 5a c0	 cvtsd2ss xmm0, xmm0
  001b4	0f 28 d0	 movaps	 xmm2, xmm0
  001b7	0f 28 8d a0 00
	00 00		 movaps	 xmm1, XMMWORD PTR vPos$[rbp]
  001be	0f 28 45 40	 movaps	 xmm0, XMMWORD PTR vCurrentPos$[rbp]
  001c2	e8 00 00 00 00	 call	 ?XMVectorLerp@DirectX@@YQ?AT__m128@@T2@0M@Z ; DirectX::XMVectorLerp
  001c7	0f 29 85 50 02
	00 00		 movaps	 XMMWORD PTR $T9[rbp], xmm0
  001ce	0f 28 85 50 02
	00 00		 movaps	 xmm0, XMMWORD PTR $T9[rbp]
  001d5	0f 29 45 40	 movaps	 XMMWORD PTR vCurrentPos$[rbp], xmm0

; 637  : 	transform->Set_State(CTransform::STATE_POSITION, vCurrentPos);

  001d9	0f 28 45 40	 movaps	 xmm0, XMMWORD PTR vCurrentPos$[rbp]
  001dd	0f 29 85 80 02
	00 00		 movaps	 XMMWORD PTR $T10[rbp], xmm0
  001e4	4c 8d 85 80 02
	00 00		 lea	 r8, QWORD PTR $T10[rbp]
  001eb	ba 03 00 00 00	 mov	 edx, 3
  001f0	48 8b 85 c0 02
	00 00		 mov	 rax, QWORD PTR this$[rbp]
  001f7	48 8b 88 98 00
	00 00		 mov	 rcx, QWORD PTR [rax+152]
  001fe	ff 15 00 00 00
	00		 call	 QWORD PTR __imp_?Set_State@CTransform@Engine@@QEAAXW4STATE@12@T__m128@@@Z

; 638  : 
; 639  : }

  00204	48 8d 4d e0	 lea	 rcx, QWORD PTR [rbp-32]
  00208	48 8d 15 00 00
	00 00		 lea	 rdx, OFFSET FLAT:?NuckBack@CEnemy@Client@@AEAAXN@Z$rtcFrameData
  0020f	e8 00 00 00 00	 call	 _RTC_CheckStackVars
  00214	48 8b 8d 98 02
	00 00		 mov	 rcx, QWORD PTR __$ArrayPad$[rbp]
  0021b	48 33 cd	 xor	 rcx, rbp
  0021e	e8 00 00 00 00	 call	 __security_check_cookie
  00223	48 8d a5 a8 02
	00 00		 lea	 rsp, QWORD PTR [rbp+680]
  0022a	5f		 pop	 rdi
  0022b	5d		 pop	 rbp
  0022c	c3		 ret	 0
?NuckBack@CEnemy@Client@@AEAAXN@Z ENDP			; Client::CEnemy::NuckBack
_TEXT	ENDS
; Function compile flags: /Odtp /RTCsu /ZI
; File c:\github\framework\client\private\enemy.cpp
;	COMDAT ?Hit@CEnemy@Client@@AEAA_NN@Z
_TEXT	SEGMENT
iRandom$ = 4
this$ = 256
TimeDelta$ = 264
?Hit@CEnemy@Client@@AEAA_NN@Z PROC			; Client::CEnemy::Hit, COMDAT

; 528  : {

$LN16:
  00000	f2 0f 11 4c 24
	10		 movsd	 QWORD PTR [rsp+16], xmm1
  00006	48 89 4c 24 08	 mov	 QWORD PTR [rsp+8], rcx
  0000b	55		 push	 rbp
  0000c	57		 push	 rdi
  0000d	48 81 ec 08 01
	00 00		 sub	 rsp, 264		; 00000108H
  00014	48 8d 6c 24 20	 lea	 rbp, QWORD PTR [rsp+32]
  00019	48 8b fc	 mov	 rdi, rsp
  0001c	b9 42 00 00 00	 mov	 ecx, 66			; 00000042H
  00021	b8 cc cc cc cc	 mov	 eax, -858993460		; ccccccccH
  00026	f3 ab		 rep stosd
  00028	48 8b 8c 24 28
	01 00 00	 mov	 rcx, QWORD PTR [rsp+296]

; 529  : 	int iRandom = rand() % 2;

  00030	ff 15 00 00 00
	00		 call	 QWORD PTR __imp_rand
  00036	99		 cdq
  00037	83 e0 01	 and	 eax, 1
  0003a	33 c2		 xor	 eax, edx
  0003c	2b c2		 sub	 eax, edx
  0003e	89 45 04	 mov	 DWORD PTR iRandom$[rbp], eax

; 530  : 	
; 531  : 	m_bAttackCollision = false;

  00041	48 8b 85 00 01
	00 00		 mov	 rax, QWORD PTR this$[rbp]
  00048	c6 80 8d 01 00
	00 00		 mov	 BYTE PTR [rax+397], 0

; 532  : 
; 533  : 	m_bRotationFinish = false;

  0004f	48 8b 85 00 01
	00 00		 mov	 rax, QWORD PTR this$[rbp]
  00056	c6 80 49 01 00
	00 00		 mov	 BYTE PTR [rax+329], 0

; 534  : 
; 535  : 	if (m_State.fCurHp <= 0.f)

  0005d	48 8b 85 00 01
	00 00		 mov	 rax, QWORD PTR this$[rbp]
  00064	0f 57 c0	 xorps	 xmm0, xmm0
  00067	0f 2f 80 2c 01
	00 00		 comiss	 xmm0, DWORD PTR [rax+300]
  0006e	72 10		 jb	 SHORT $LN2@Hit

; 536  : 		m_bDeadWait = true;

  00070	48 8b 85 00 01
	00 00		 mov	 rax, QWORD PTR this$[rbp]
  00077	c6 80 82 01 00
	00 01		 mov	 BYTE PTR [rax+386], 1

; 537  : 	else

  0007e	eb 0e		 jmp	 SHORT $LN3@Hit
$LN2@Hit:

; 538  : 		m_bDeadWait = false;

  00080	48 8b 85 00 01
	00 00		 mov	 rax, QWORD PTR this$[rbp]
  00087	c6 80 82 01 00
	00 00		 mov	 BYTE PTR [rax+386], 0
$LN3@Hit:

; 539  : 
; 540  : 	if (m_bAirHit)

  0008e	48 8b 85 00 01
	00 00		 mov	 rax, QWORD PTR this$[rbp]
  00095	0f b6 80 b4 01
	00 00		 movzx	 eax, BYTE PTR [rax+436]
  0009c	85 c0		 test	 eax, eax
  0009e	74 43		 je	 SHORT $LN4@Hit

; 541  : 	{
; 542  : 		m_bHitStart = false;

  000a0	48 8b 85 00 01
	00 00		 mov	 rax, QWORD PTR this$[rbp]
  000a7	c6 80 8e 01 00
	00 00		 mov	 BYTE PTR [rax+398], 0

; 543  : 		m_bHit = false;

  000ae	48 8b 85 00 01
	00 00		 mov	 rax, QWORD PTR this$[rbp]
  000b5	c6 80 8f 01 00
	00 00		 mov	 BYTE PTR [rax+399], 0

; 544  : 		m_bNuckBackFinish = false;

  000bc	48 8b 85 00 01
	00 00		 mov	 rax, QWORD PTR this$[rbp]
  000c3	c6 80 91 01 00
	00 00		 mov	 BYTE PTR [rax+401], 0

; 545  : 		m_fNuckBackTimer = 0.0f;

  000ca	48 8b 85 00 01
	00 00		 mov	 rax, QWORD PTR this$[rbp]
  000d1	0f 57 c0	 xorps	 xmm0, xmm0
  000d4	f3 0f 11 80 98
	01 00 00	 movss	 DWORD PTR [rax+408], xmm0

; 546  : 		return false;

  000dc	32 c0		 xor	 al, al
  000de	e9 31 01 00 00	 jmp	 $LN1@Hit
$LN4@Hit:

; 547  : 	}
; 548  : 
; 549  : 	//if (m_pAppManager->IsFreeze())
; 550  : 	//	return false;
; 551  : 	if (m_eType == TYPE::HUMANOID)

  000e3	48 8b 85 00 01
	00 00		 mov	 rax, QWORD PTR this$[rbp]
  000ea	83 b8 d8 00 00
	00 00		 cmp	 DWORD PTR [rax+216], 0
  000f1	75 62		 jne	 SHORT $LN5@Hit

; 552  : 	{
; 553  : 		if(m_iRandomHitAnim == 0)

  000f3	48 8b 85 00 01
	00 00		 mov	 rax, QWORD PTR this$[rbp]
  000fa	83 b8 c4 01 00
	00 00		 cmp	 DWORD PTR [rax+452], 0
  00101	75 21		 jne	 SHORT $LN7@Hit

; 554  : 			model->Setup_Animation((_uint)CLIP::HIT1, CAnimation::TYPE::ONE, true);

  00103	41 b1 01	 mov	 r9b, 1
  00106	45 33 c0	 xor	 r8d, r8d
  00109	ba 09 00 00 00	 mov	 edx, 9
  0010e	48 8b 85 00 01
	00 00		 mov	 rax, QWORD PTR this$[rbp]
  00115	48 8b 88 a0 00
	00 00		 mov	 rcx, QWORD PTR [rax+160]
  0011c	ff 15 00 00 00
	00		 call	 QWORD PTR __imp_?Setup_Animation@CModel@Engine@@QEAAJIW4TYPE@CAnimation@2@_N@Z
  00122	eb 2f		 jmp	 SHORT $LN8@Hit
$LN7@Hit:

; 555  : 		else if(m_iRandomHitAnim == 1)

  00124	48 8b 85 00 01
	00 00		 mov	 rax, QWORD PTR this$[rbp]
  0012b	83 b8 c4 01 00
	00 01		 cmp	 DWORD PTR [rax+452], 1
  00132	75 1f		 jne	 SHORT $LN9@Hit

; 556  : 			model->Setup_Animation((_uint)CLIP::HIT2, CAnimation::TYPE::ONE, true);

  00134	41 b1 01	 mov	 r9b, 1
  00137	45 33 c0	 xor	 r8d, r8d
  0013a	ba 0a 00 00 00	 mov	 edx, 10
  0013f	48 8b 85 00 01
	00 00		 mov	 rax, QWORD PTR this$[rbp]
  00146	48 8b 88 a0 00
	00 00		 mov	 rcx, QWORD PTR [rax+160]
  0014d	ff 15 00 00 00
	00		 call	 QWORD PTR __imp_?Setup_Animation@CModel@Engine@@QEAAJIW4TYPE@CAnimation@2@_N@Z
$LN9@Hit:
$LN8@Hit:

; 557  : 	}
; 558  : 	else

  00153	eb 60		 jmp	 SHORT $LN6@Hit
$LN5@Hit:

; 559  : 	{
; 560  : 		if (m_iRandomHitAnim == 0)

  00155	48 8b 85 00 01
	00 00		 mov	 rax, QWORD PTR this$[rbp]
  0015c	83 b8 c4 01 00
	00 00		 cmp	 DWORD PTR [rax+452], 0
  00163	75 21		 jne	 SHORT $LN10@Hit

; 561  : 			model->Setup_Animation((_uint)CLIP_TWO::HIT1, CAnimation::TYPE::ONE, true);

  00165	41 b1 01	 mov	 r9b, 1
  00168	45 33 c0	 xor	 r8d, r8d
  0016b	ba 07 00 00 00	 mov	 edx, 7
  00170	48 8b 85 00 01
	00 00		 mov	 rax, QWORD PTR this$[rbp]
  00177	48 8b 88 a0 00
	00 00		 mov	 rcx, QWORD PTR [rax+160]
  0017e	ff 15 00 00 00
	00		 call	 QWORD PTR __imp_?Setup_Animation@CModel@Engine@@QEAAJIW4TYPE@CAnimation@2@_N@Z
  00184	eb 2f		 jmp	 SHORT $LN11@Hit
$LN10@Hit:

; 562  : 		else if (m_iRandomHitAnim == 1)

  00186	48 8b 85 00 01
	00 00		 mov	 rax, QWORD PTR this$[rbp]
  0018d	83 b8 c4 01 00
	00 01		 cmp	 DWORD PTR [rax+452], 1
  00194	75 1f		 jne	 SHORT $LN12@Hit

; 563  : 			model->Setup_Animation((_uint)CLIP_TWO::HIT2, CAnimation::TYPE::ONE, true);

  00196	41 b1 01	 mov	 r9b, 1
  00199	45 33 c0	 xor	 r8d, r8d
  0019c	ba 08 00 00 00	 mov	 edx, 8
  001a1	48 8b 85 00 01
	00 00		 mov	 rax, QWORD PTR this$[rbp]
  001a8	48 8b 88 a0 00
	00 00		 mov	 rcx, QWORD PTR [rax+160]
  001af	ff 15 00 00 00
	00		 call	 QWORD PTR __imp_?Setup_Animation@CModel@Engine@@QEAAJIW4TYPE@CAnimation@2@_N@Z
$LN12@Hit:
$LN11@Hit:
$LN6@Hit:

; 564  : 	}
; 565  : 
; 566  : 	if (model->AnimationIsFinishEx())

  001b5	48 8b 85 00 01
	00 00		 mov	 rax, QWORD PTR this$[rbp]
  001bc	48 8b 88 a0 00
	00 00		 mov	 rcx, QWORD PTR [rax+160]
  001c3	ff 15 00 00 00
	00		 call	 QWORD PTR __imp_?AnimationIsFinishEx@CModel@Engine@@QEAA_NXZ
  001c9	0f b6 c0	 movzx	 eax, al
  001cc	85 c0		 test	 eax, eax
  001ce	74 42		 je	 SHORT $LN13@Hit

; 567  : 	{
; 568  : 		m_bHitStart = false;

  001d0	48 8b 85 00 01
	00 00		 mov	 rax, QWORD PTR this$[rbp]
  001d7	c6 80 8e 01 00
	00 00		 mov	 BYTE PTR [rax+398], 0

; 569  : 		m_bHit = false;

  001de	48 8b 85 00 01
	00 00		 mov	 rax, QWORD PTR this$[rbp]
  001e5	c6 80 8f 01 00
	00 00		 mov	 BYTE PTR [rax+399], 0

; 570  : 		m_bNuckBackFinish = false;

  001ec	48 8b 85 00 01
	00 00		 mov	 rax, QWORD PTR this$[rbp]
  001f3	c6 80 91 01 00
	00 00		 mov	 BYTE PTR [rax+401], 0

; 571  : 		m_fNuckBackTimer = 0.0f;

  001fa	48 8b 85 00 01
	00 00		 mov	 rax, QWORD PTR this$[rbp]
  00201	0f 57 c0	 xorps	 xmm0, xmm0
  00204	f3 0f 11 80 98
	01 00 00	 movss	 DWORD PTR [rax+408], xmm0

; 572  : 		return true;

  0020c	b0 01		 mov	 al, 1
  0020e	eb 04		 jmp	 SHORT $LN1@Hit

; 573  : 	}
; 574  : 	else

  00210	eb 02		 jmp	 SHORT $LN14@Hit
$LN13@Hit:

; 575  : 		return false;

  00212	32 c0		 xor	 al, al
$LN14@Hit:
$LN1@Hit:

; 576  : }

  00214	48 8d a5 e8 00
	00 00		 lea	 rsp, QWORD PTR [rbp+232]
  0021b	5f		 pop	 rdi
  0021c	5d		 pop	 rbp
  0021d	c3		 ret	 0
?Hit@CEnemy@Client@@AEAA_NN@Z ENDP			; Client::CEnemy::Hit
_TEXT	ENDS
; Function compile flags: /Odtp /RTCsu /ZI
; File c:\github\framework\client\private\enemy.cpp
;	COMDAT ?Idle@CEnemy@Client@@AEAAXN@Z
_TEXT	SEGMENT
this$ = 224
TimeDelta$ = 232
?Idle@CEnemy@Client@@AEAAXN@Z PROC			; Client::CEnemy::Idle, COMDAT

; 515  : {

$LN5:
  00000	f2 0f 11 4c 24
	10		 movsd	 QWORD PTR [rsp+16], xmm1
  00006	48 89 4c 24 08	 mov	 QWORD PTR [rsp+8], rcx
  0000b	55		 push	 rbp
  0000c	57		 push	 rdi
  0000d	48 81 ec e8 00
	00 00		 sub	 rsp, 232		; 000000e8H
  00014	48 8d 6c 24 20	 lea	 rbp, QWORD PTR [rsp+32]
  00019	48 8b fc	 mov	 rdi, rsp
  0001c	b9 3a 00 00 00	 mov	 ecx, 58			; 0000003aH
  00021	b8 cc cc cc cc	 mov	 eax, -858993460		; ccccccccH
  00026	f3 ab		 rep stosd
  00028	48 8b 8c 24 08
	01 00 00	 mov	 rcx, QWORD PTR [rsp+264]

; 516  : 	m_bAttack = false;

  00030	48 8b 85 e0 00
	00 00		 mov	 rax, QWORD PTR this$[rbp]
  00037	c6 80 50 01 00
	00 00		 mov	 BYTE PTR [rax+336], 0

; 517  : 	m_bMovable = true;

  0003e	48 8b 85 e0 00
	00 00		 mov	 rax, QWORD PTR this$[rbp]
  00045	c6 80 80 01 00
	00 01		 mov	 BYTE PTR [rax+384], 1

; 518  : 	m_bRotationFinish = false;

  0004c	48 8b 85 e0 00
	00 00		 mov	 rax, QWORD PTR this$[rbp]
  00053	c6 80 49 01 00
	00 00		 mov	 BYTE PTR [rax+329], 0

; 519  : 	m_bAttackCollision = false;

  0005a	48 8b 85 e0 00
	00 00		 mov	 rax, QWORD PTR this$[rbp]
  00061	c6 80 8d 01 00
	00 00		 mov	 BYTE PTR [rax+397], 0

; 520  : 
; 521  : 	if (m_eType == TYPE::HUMANOID)

  00068	48 8b 85 e0 00
	00 00		 mov	 rax, QWORD PTR this$[rbp]
  0006f	83 b8 d8 00 00
	00 00		 cmp	 DWORD PTR [rax+216], 0
  00076	75 24		 jne	 SHORT $LN2@Idle

; 522  : 		model->Setup_Animation((_uint)CLIP::STAND, CAnimation::TYPE::LOOP, true);

  00078	41 b1 01	 mov	 r9b, 1
  0007b	41 b8 01 00 00
	00		 mov	 r8d, 1
  00081	ba 14 00 00 00	 mov	 edx, 20
  00086	48 8b 85 e0 00
	00 00		 mov	 rax, QWORD PTR this$[rbp]
  0008d	48 8b 88 a0 00
	00 00		 mov	 rcx, QWORD PTR [rax+160]
  00094	ff 15 00 00 00
	00		 call	 QWORD PTR __imp_?Setup_Animation@CModel@Engine@@QEAAJIW4TYPE@CAnimation@2@_N@Z

; 523  : 	else

  0009a	eb 22		 jmp	 SHORT $LN3@Idle
$LN2@Idle:

; 524  : 		model->Setup_Animation((_uint)CLIP_TWO::STAND2, CAnimation::TYPE::LOOP, true);

  0009c	41 b1 01	 mov	 r9b, 1
  0009f	41 b8 01 00 00
	00		 mov	 r8d, 1
  000a5	ba 0f 00 00 00	 mov	 edx, 15
  000aa	48 8b 85 e0 00
	00 00		 mov	 rax, QWORD PTR this$[rbp]
  000b1	48 8b 88 a0 00
	00 00		 mov	 rcx, QWORD PTR [rax+160]
  000b8	ff 15 00 00 00
	00		 call	 QWORD PTR __imp_?Setup_Animation@CModel@Engine@@QEAAJIW4TYPE@CAnimation@2@_N@Z
$LN3@Idle:

; 525  : }

  000be	48 8d a5 c8 00
	00 00		 lea	 rsp, QWORD PTR [rbp+200]
  000c5	5f		 pop	 rdi
  000c6	5d		 pop	 rbp
  000c7	c3		 ret	 0
?Idle@CEnemy@Client@@AEAAXN@Z ENDP			; Client::CEnemy::Idle
_TEXT	ENDS
; Function compile flags: /Odtp /RTCsu /ZI
; File c:\github\framework\client\private\enemy.cpp
;	COMDAT ?Attack@CEnemy@Client@@AEAAXN@Z
_TEXT	SEGMENT
this$ = 224
TimeDelta$ = 232
?Attack@CEnemy@Client@@AEAAXN@Z PROC			; Client::CEnemy::Attack, COMDAT

; 504  : {

$LN5:
  00000	f2 0f 11 4c 24
	10		 movsd	 QWORD PTR [rsp+16], xmm1
  00006	48 89 4c 24 08	 mov	 QWORD PTR [rsp+8], rcx
  0000b	55		 push	 rbp
  0000c	57		 push	 rdi
  0000d	48 81 ec e8 00
	00 00		 sub	 rsp, 232		; 000000e8H
  00014	48 8d 6c 24 20	 lea	 rbp, QWORD PTR [rsp+32]
  00019	48 8b fc	 mov	 rdi, rsp
  0001c	b9 3a 00 00 00	 mov	 ecx, 58			; 0000003aH
  00021	b8 cc cc cc cc	 mov	 eax, -858993460		; ccccccccH
  00026	f3 ab		 rep stosd
  00028	48 8b 8c 24 08
	01 00 00	 mov	 rcx, QWORD PTR [rsp+264]

; 505  : 	m_bMovable = false;

  00030	48 8b 85 e0 00
	00 00		 mov	 rax, QWORD PTR this$[rbp]
  00037	c6 80 80 01 00
	00 00		 mov	 BYTE PTR [rax+384], 0

; 506  : 
; 507  : 	if (m_eType == TYPE::HUMANOID)

  0003e	48 8b 85 e0 00
	00 00		 mov	 rax, QWORD PTR this$[rbp]
  00045	83 b8 d8 00 00
	00 00		 cmp	 DWORD PTR [rax+216], 0
  0004c	75 21		 jne	 SHORT $LN2@Attack

; 508  : 		model->Setup_Animation((_uint)CLIP::ATTACK4, CAnimation::TYPE::ONE, true);

  0004e	41 b1 01	 mov	 r9b, 1
  00051	45 33 c0	 xor	 r8d, r8d
  00054	ba 03 00 00 00	 mov	 edx, 3
  00059	48 8b 85 e0 00
	00 00		 mov	 rax, QWORD PTR this$[rbp]
  00060	48 8b 88 a0 00
	00 00		 mov	 rcx, QWORD PTR [rax+160]
  00067	ff 15 00 00 00
	00		 call	 QWORD PTR __imp_?Setup_Animation@CModel@Engine@@QEAAJIW4TYPE@CAnimation@2@_N@Z

; 509  : 	else

  0006d	eb 1c		 jmp	 SHORT $LN3@Attack
$LN2@Attack:

; 510  : 		model->Setup_Animation((_uint)CLIP_TWO::ATTACK1, CAnimation::TYPE::ONE, true);

  0006f	41 b1 01	 mov	 r9b, 1
  00072	45 33 c0	 xor	 r8d, r8d
  00075	33 d2		 xor	 edx, edx
  00077	48 8b 85 e0 00
	00 00		 mov	 rax, QWORD PTR this$[rbp]
  0007e	48 8b 88 a0 00
	00 00		 mov	 rcx, QWORD PTR [rax+160]
  00085	ff 15 00 00 00
	00		 call	 QWORD PTR __imp_?Setup_Animation@CModel@Engine@@QEAAJIW4TYPE@CAnimation@2@_N@Z
$LN3@Attack:

; 511  : 
; 512  : }

  0008b	48 8d a5 c8 00
	00 00		 lea	 rsp, QWORD PTR [rbp+200]
  00092	5f		 pop	 rdi
  00093	5d		 pop	 rbp
  00094	c3		 ret	 0
?Attack@CEnemy@Client@@AEAAXN@Z ENDP			; Client::CEnemy::Attack
_TEXT	ENDS
; Function compile flags: /Odtp /RTCsu /ZI
; File c:\github\framework\client\private\enemy.cpp
;	COMDAT ?Trace@CEnemy@Client@@AEAAXN@Z
_TEXT	SEGMENT
vPlayerPos$ = 16
$T4 = 256
__$ArrayPad$ = 280
this$ = 320
TimeDelta$ = 328
?Trace@CEnemy@Client@@AEAAXN@Z PROC			; Client::CEnemy::Trace, COMDAT

; 486  : {

$LN6:
  00000	f2 0f 11 4c 24
	10		 movsd	 QWORD PTR [rsp+16], xmm1
  00006	48 89 4c 24 08	 mov	 QWORD PTR [rsp+8], rcx
  0000b	55		 push	 rbp
  0000c	57		 push	 rdi
  0000d	48 81 ec 48 01
	00 00		 sub	 rsp, 328		; 00000148H
  00014	48 8d 6c 24 20	 lea	 rbp, QWORD PTR [rsp+32]
  00019	48 8b fc	 mov	 rdi, rsp
  0001c	b9 52 00 00 00	 mov	 ecx, 82			; 00000052H
  00021	b8 cc cc cc cc	 mov	 eax, -858993460		; ccccccccH
  00026	f3 ab		 rep stosd
  00028	48 8b 8c 24 68
	01 00 00	 mov	 rcx, QWORD PTR [rsp+360]
  00030	48 8b 05 00 00
	00 00		 mov	 rax, QWORD PTR __security_cookie
  00037	48 33 c5	 xor	 rax, rbp
  0003a	48 89 85 18 01
	00 00		 mov	 QWORD PTR __$ArrayPad$[rbp], rax

; 487  : 	if (!m_bMovable)

  00041	48 8b 85 40 01
	00 00		 mov	 rax, QWORD PTR this$[rbp]
  00048	0f b6 80 80 01
	00 00		 movzx	 eax, BYTE PTR [rax+384]
  0004f	85 c0		 test	 eax, eax
  00051	75 05		 jne	 SHORT $LN2@Trace

; 488  : 		return;

  00053	e9 df 00 00 00	 jmp	 $LN1@Trace
$LN2@Trace:

; 489  : 
; 490  : 	m_bAttack = false;

  00058	48 8b 85 40 01
	00 00		 mov	 rax, QWORD PTR this$[rbp]
  0005f	c6 80 50 01 00
	00 00		 mov	 BYTE PTR [rax+336], 0

; 491  : 	m_bAttackCollision = false;

  00066	48 8b 85 40 01
	00 00		 mov	 rax, QWORD PTR this$[rbp]
  0006d	c6 80 8d 01 00
	00 00		 mov	 BYTE PTR [rax+397], 0

; 492  : 	m_fAttackCoolTimer = 0.0f;

  00074	48 8b 85 40 01
	00 00		 mov	 rax, QWORD PTR this$[rbp]
  0007b	0f 57 c0	 xorps	 xmm0, xmm0
  0007e	f3 0f 11 80 a4
	01 00 00	 movss	 DWORD PTR [rax+420], xmm0

; 493  : 	
; 494  : 	_vector vPlayerPos = m_pPlayerTransform->Get_State(CTransform::STATE_POSITION);

  00086	41 b8 03 00 00
	00		 mov	 r8d, 3
  0008c	48 8d 55 10	 lea	 rdx, QWORD PTR vPlayerPos$[rbp]
  00090	48 8b 85 40 01
	00 00		 mov	 rax, QWORD PTR this$[rbp]
  00097	48 8b 88 40 01
	00 00		 mov	 rcx, QWORD PTR [rax+320]
  0009e	ff 15 00 00 00
	00		 call	 QWORD PTR __imp_?Get_State@CTransform@Engine@@QEAA?AT__m128@@W4STATE@12@@Z

; 495  : 	transform->Chase(vPlayerPos, TimeDelta, m_fAttackRange);

  000a4	0f 28 45 10	 movaps	 xmm0, XMMWORD PTR vPlayerPos$[rbp]
  000a8	0f 29 85 00 01
	00 00		 movaps	 XMMWORD PTR $T4[rbp], xmm0
  000af	48 8b 85 40 01
	00 00		 mov	 rax, QWORD PTR this$[rbp]
  000b6	f3 0f 10 98 4c
	01 00 00	 movss	 xmm3, DWORD PTR [rax+332]
  000be	f2 0f 10 95 48
	01 00 00	 movsd	 xmm2, QWORD PTR TimeDelta$[rbp]
  000c6	48 8d 95 00 01
	00 00		 lea	 rdx, QWORD PTR $T4[rbp]
  000cd	48 8b 85 40 01
	00 00		 mov	 rax, QWORD PTR this$[rbp]
  000d4	48 8b 88 98 00
	00 00		 mov	 rcx, QWORD PTR [rax+152]
  000db	ff 15 00 00 00
	00		 call	 QWORD PTR __imp_?Chase@CTransform@Engine@@QEAAXT__m128@@NM@Z

; 496  : 
; 497  : 	if (m_eType == TYPE::HUMANOID)

  000e1	48 8b 85 40 01
	00 00		 mov	 rax, QWORD PTR this$[rbp]
  000e8	83 b8 d8 00 00
	00 00		 cmp	 DWORD PTR [rax+216], 0
  000ef	75 24		 jne	 SHORT $LN3@Trace

; 498  : 		model->Setup_Animation((_uint)CLIP::RUN, CAnimation::TYPE::LOOP, true);

  000f1	41 b1 01	 mov	 r9b, 1
  000f4	41 b8 01 00 00
	00		 mov	 r8d, 1
  000fa	ba 10 00 00 00	 mov	 edx, 16
  000ff	48 8b 85 40 01
	00 00		 mov	 rax, QWORD PTR this$[rbp]
  00106	48 8b 88 a0 00
	00 00		 mov	 rcx, QWORD PTR [rax+160]
  0010d	ff 15 00 00 00
	00		 call	 QWORD PTR __imp_?Setup_Animation@CModel@Engine@@QEAAJIW4TYPE@CAnimation@2@_N@Z

; 499  : 	else

  00113	eb 22		 jmp	 SHORT $LN4@Trace
$LN3@Trace:

; 500  : 		model->Setup_Animation((_uint)CLIP_TWO::RUN, CAnimation::TYPE::LOOP, true);

  00115	41 b1 01	 mov	 r9b, 1
  00118	41 b8 01 00 00
	00		 mov	 r8d, 1
  0011e	ba 0e 00 00 00	 mov	 edx, 14
  00123	48 8b 85 40 01
	00 00		 mov	 rax, QWORD PTR this$[rbp]
  0012a	48 8b 88 a0 00
	00 00		 mov	 rcx, QWORD PTR [rax+160]
  00131	ff 15 00 00 00
	00		 call	 QWORD PTR __imp_?Setup_Animation@CModel@Engine@@QEAAJIW4TYPE@CAnimation@2@_N@Z
$LN4@Trace:
$LN1@Trace:

; 501  : }

  00137	48 8d 4d e0	 lea	 rcx, QWORD PTR [rbp-32]
  0013b	48 8d 15 00 00
	00 00		 lea	 rdx, OFFSET FLAT:?Trace@CEnemy@Client@@AEAAXN@Z$rtcFrameData
  00142	e8 00 00 00 00	 call	 _RTC_CheckStackVars
  00147	48 8b 8d 18 01
	00 00		 mov	 rcx, QWORD PTR __$ArrayPad$[rbp]
  0014e	48 33 cd	 xor	 rcx, rbp
  00151	e8 00 00 00 00	 call	 __security_check_cookie
  00156	48 8d a5 28 01
	00 00		 lea	 rsp, QWORD PTR [rbp+296]
  0015d	5f		 pop	 rdi
  0015e	5d		 pop	 rbp
  0015f	c3		 ret	 0
?Trace@CEnemy@Client@@AEAAXN@Z ENDP			; Client::CEnemy::Trace
_TEXT	ENDS
; Function compile flags: /Odtp /RTCsu /ZI
; File c:\github\framework\client\private\enemy.cpp
;	COMDAT ?LookPlayer@CEnemy@Client@@AEAAXN@Z
_TEXT	SEGMENT
vPlayerPos$ = 16
vPosition$ = 64
vDirection$ = 112
vCurrentLook$ = 160
vCurrentRight$ = 208
fRadianAngle$ = 244
vRight$ = 288
fAxisY$ = 324
$T5 = 944
$T6 = 992
$T7 = 1040
$T8 = 1088
$T9 = 1136
$T10 = 1184
$T11 = 1232
$T12 = 1280
$T13 = 1328
$T14 = 1376
$T15 = 1424
$T16 = 1472
$T17 = 1520
$T18 = 1568
$T19 = 1616
__$ArrayPad$ = 1640
this$ = 1680
TimeDelta$ = 1688
?LookPlayer@CEnemy@Client@@AEAAXN@Z PROC		; Client::CEnemy::LookPlayer, COMDAT

; 444  : {

$LN9:
  00000	f2 0f 11 4c 24
	10		 movsd	 QWORD PTR [rsp+16], xmm1
  00006	48 89 4c 24 08	 mov	 QWORD PTR [rsp+8], rcx
  0000b	55		 push	 rbp
  0000c	57		 push	 rdi
  0000d	48 81 ec 98 06
	00 00		 sub	 rsp, 1688		; 00000698H
  00014	48 8d 6c 24 20	 lea	 rbp, QWORD PTR [rsp+32]
  00019	48 8b fc	 mov	 rdi, rsp
  0001c	b9 a6 01 00 00	 mov	 ecx, 422		; 000001a6H
  00021	b8 cc cc cc cc	 mov	 eax, -858993460		; ccccccccH
  00026	f3 ab		 rep stosd
  00028	48 8b 8c 24 b8
	06 00 00	 mov	 rcx, QWORD PTR [rsp+1720]
  00030	48 8b 05 00 00
	00 00		 mov	 rax, QWORD PTR __security_cookie
  00037	48 33 c5	 xor	 rax, rbp
  0003a	48 89 85 68 06
	00 00		 mov	 QWORD PTR __$ArrayPad$[rbp], rax

; 445  : 	if (m_pAppManager->IsFreeze())

  00041	48 8b 85 90 06
	00 00		 mov	 rax, QWORD PTR this$[rbp]
  00048	48 8b 88 d0 00
	00 00		 mov	 rcx, QWORD PTR [rax+208]
  0004f	e8 00 00 00 00	 call	 ?IsFreeze@CApplicationManager@Client@@QEBA_NXZ ; Client::CApplicationManager::IsFreeze
  00054	0f b6 c0	 movzx	 eax, al
  00057	85 c0		 test	 eax, eax
  00059	74 05		 je	 SHORT $LN2@LookPlayer

; 446  : 		return;

  0005b	e9 00 03 00 00	 jmp	 $LN1@LookPlayer
$LN2@LookPlayer:

; 447  : 
; 448  : 	_vector vPlayerPos = m_pPlayerTransform->Get_State(CTransform::STATE_POSITION);

  00060	41 b8 03 00 00
	00		 mov	 r8d, 3
  00066	48 8d 55 10	 lea	 rdx, QWORD PTR vPlayerPos$[rbp]
  0006a	48 8b 85 90 06
	00 00		 mov	 rax, QWORD PTR this$[rbp]
  00071	48 8b 88 40 01
	00 00		 mov	 rcx, QWORD PTR [rax+320]
  00078	ff 15 00 00 00
	00		 call	 QWORD PTR __imp_?Get_State@CTransform@Engine@@QEAA?AT__m128@@W4STATE@12@@Z

; 449  : 	_vector vPosition = transform->Get_State(CTransform::STATE_POSITION);

  0007e	41 b8 03 00 00
	00		 mov	 r8d, 3
  00084	48 8d 55 40	 lea	 rdx, QWORD PTR vPosition$[rbp]
  00088	48 8b 85 90 06
	00 00		 mov	 rax, QWORD PTR this$[rbp]
  0008f	48 8b 88 98 00
	00 00		 mov	 rcx, QWORD PTR [rax+152]
  00096	ff 15 00 00 00
	00		 call	 QWORD PTR __imp_?Get_State@CTransform@Engine@@QEAA?AT__m128@@W4STATE@12@@Z

; 450  : 	_vector vDirection = XMVector3Normalize(vPlayerPos - vPosition);

  0009c	0f 28 4d 40	 movaps	 xmm1, XMMWORD PTR vPosition$[rbp]
  000a0	0f 28 45 10	 movaps	 xmm0, XMMWORD PTR vPlayerPos$[rbp]
  000a4	e8 00 00 00 00	 call	 ??GDirectX@@YQ?AT__m128@@T1@0@Z ; DirectX::operator-
  000a9	0f 29 85 e0 03
	00 00		 movaps	 XMMWORD PTR $T6[rbp], xmm0
  000b0	0f 28 85 e0 03
	00 00		 movaps	 xmm0, XMMWORD PTR $T6[rbp]
  000b7	e8 00 00 00 00	 call	 ?XMVector3Normalize@DirectX@@YQ?AT__m128@@T2@@Z ; DirectX::XMVector3Normalize
  000bc	0f 29 85 b0 03
	00 00		 movaps	 XMMWORD PTR $T5[rbp], xmm0
  000c3	0f 28 85 b0 03
	00 00		 movaps	 xmm0, XMMWORD PTR $T5[rbp]
  000ca	0f 29 45 70	 movaps	 XMMWORD PTR vDirection$[rbp], xmm0

; 451  : 
; 452  : 	_vector vCurrentLook = XMVector3Normalize(transform->Get_State(CTransform::STATE_LOOK));

  000ce	41 b8 02 00 00
	00		 mov	 r8d, 2
  000d4	48 8d 95 40 04
	00 00		 lea	 rdx, QWORD PTR $T8[rbp]
  000db	48 8b 85 90 06
	00 00		 mov	 rax, QWORD PTR this$[rbp]
  000e2	48 8b 88 98 00
	00 00		 mov	 rcx, QWORD PTR [rax+152]
  000e9	ff 15 00 00 00
	00		 call	 QWORD PTR __imp_?Get_State@CTransform@Engine@@QEAA?AT__m128@@W4STATE@12@@Z
  000ef	0f 10 00	 movups	 xmm0, XMMWORD PTR [rax]
  000f2	e8 00 00 00 00	 call	 ?XMVector3Normalize@DirectX@@YQ?AT__m128@@T2@@Z ; DirectX::XMVector3Normalize
  000f7	0f 29 85 10 04
	00 00		 movaps	 XMMWORD PTR $T7[rbp], xmm0
  000fe	0f 28 85 10 04
	00 00		 movaps	 xmm0, XMMWORD PTR $T7[rbp]
  00105	0f 29 85 a0 00
	00 00		 movaps	 XMMWORD PTR vCurrentLook$[rbp], xmm0

; 453  : 	_vector vCurrentRight = XMVector3Normalize(transform->Get_State(CTransform::STATE_RIGHT));

  0010c	45 33 c0	 xor	 r8d, r8d
  0010f	48 8d 95 a0 04
	00 00		 lea	 rdx, QWORD PTR $T10[rbp]
  00116	48 8b 85 90 06
	00 00		 mov	 rax, QWORD PTR this$[rbp]
  0011d	48 8b 88 98 00
	00 00		 mov	 rcx, QWORD PTR [rax+152]
  00124	ff 15 00 00 00
	00		 call	 QWORD PTR __imp_?Get_State@CTransform@Engine@@QEAA?AT__m128@@W4STATE@12@@Z
  0012a	0f 10 00	 movups	 xmm0, XMMWORD PTR [rax]
  0012d	e8 00 00 00 00	 call	 ?XMVector3Normalize@DirectX@@YQ?AT__m128@@T2@@Z ; DirectX::XMVector3Normalize
  00132	0f 29 85 70 04
	00 00		 movaps	 XMMWORD PTR $T9[rbp], xmm0
  00139	0f 28 85 70 04
	00 00		 movaps	 xmm0, XMMWORD PTR $T9[rbp]
  00140	0f 29 85 d0 00
	00 00		 movaps	 XMMWORD PTR vCurrentRight$[rbp], xmm0

; 454  : 	_float fRadianAngle = acos(XMVectorGetX(XMVector3Dot(vCurrentLook, vDirection)));

  00147	0f 28 4d 70	 movaps	 xmm1, XMMWORD PTR vDirection$[rbp]
  0014b	0f 28 85 a0 00
	00 00		 movaps	 xmm0, XMMWORD PTR vCurrentLook$[rbp]
  00152	e8 00 00 00 00	 call	 ?XMVector3Dot@DirectX@@YQ?AT__m128@@T2@0@Z ; DirectX::XMVector3Dot
  00157	0f 29 85 d0 04
	00 00		 movaps	 XMMWORD PTR $T11[rbp], xmm0
  0015e	0f 28 85 d0 04
	00 00		 movaps	 xmm0, XMMWORD PTR $T11[rbp]
  00165	e8 00 00 00 00	 call	 ?XMVectorGetX@DirectX@@YQMT__m128@@@Z ; DirectX::XMVectorGetX
  0016a	e8 00 00 00 00	 call	 ?acos@@YAMM@Z		; acos
  0016f	f3 0f 11 85 f4
	00 00 00	 movss	 DWORD PTR fRadianAngle$[rbp], xmm0

; 455  : 
; 456  : 	if (isnan(fRadianAngle))

  00177	f3 0f 10 85 f4
	00 00 00	 movss	 xmm0, DWORD PTR fRadianAngle$[rbp]
  0017f	e8 00 00 00 00	 call	 ??$isnan@M@@YA_NM@Z	; isnan<float>
  00184	0f b6 c0	 movzx	 eax, al
  00187	85 c0		 test	 eax, eax
  00189	74 27		 je	 SHORT $LN3@LookPlayer

; 457  : 	{
; 458  : 		m_bRotationFinish = false;

  0018b	48 8b 85 90 06
	00 00		 mov	 rax, QWORD PTR this$[rbp]
  00192	c6 80 49 01 00
	00 00		 mov	 BYTE PTR [rax+329], 0

; 459  : 		m_bMovable = false;

  00199	48 8b 85 90 06
	00 00		 mov	 rax, QWORD PTR this$[rbp]
  001a0	c6 80 80 01 00
	00 00		 mov	 BYTE PTR [rax+384], 0

; 460  : 		fRadianAngle = 0.0f;

  001a7	0f 57 c0	 xorps	 xmm0, xmm0
  001aa	f3 0f 11 85 f4
	00 00 00	 movss	 DWORD PTR fRadianAngle$[rbp], xmm0
$LN3@LookPlayer:

; 461  : 	}
; 462  : 
; 463  : 	if (fRadianAngle < 0.1)

  001b2	f3 0f 5a 85 f4
	00 00 00	 cvtss2sd xmm0, DWORD PTR fRadianAngle$[rbp]
  001ba	f2 0f 10 0d 00
	00 00 00	 movsd	 xmm1, QWORD PTR __real@3fb999999999999a
  001c2	66 0f 2f c8	 comisd	 xmm1, xmm0
  001c6	76 1e		 jbe	 SHORT $LN4@LookPlayer

; 464  : 	{
; 465  : 		m_bRotationFinish = true;

  001c8	48 8b 85 90 06
	00 00		 mov	 rax, QWORD PTR this$[rbp]
  001cf	c6 80 49 01 00
	00 01		 mov	 BYTE PTR [rax+329], 1

; 466  : 		m_bMovable = true;

  001d6	48 8b 85 90 06
	00 00		 mov	 rax, QWORD PTR this$[rbp]
  001dd	c6 80 80 01 00
	00 01		 mov	 BYTE PTR [rax+384], 1

; 467  : 	}
; 468  : 	else

  001e4	eb 1c		 jmp	 SHORT $LN5@LookPlayer
$LN4@LookPlayer:

; 469  : 	{
; 470  : 		m_bMovable = false;

  001e6	48 8b 85 90 06
	00 00		 mov	 rax, QWORD PTR this$[rbp]
  001ed	c6 80 80 01 00
	00 00		 mov	 BYTE PTR [rax+384], 0

; 471  : 		m_bRotationFinish = false;

  001f4	48 8b 85 90 06
	00 00		 mov	 rax, QWORD PTR this$[rbp]
  001fb	c6 80 49 01 00
	00 00		 mov	 BYTE PTR [rax+329], 0
$LN5@LookPlayer:

; 472  : 	}
; 473  : 
; 474  : 	_vector vRight= XMVector3Normalize(XMVector3Cross(VECTOR_UP, vDirection));

  00202	0f 57 db	 xorps	 xmm3, xmm3
  00205	0f 57 d2	 xorps	 xmm2, xmm2
  00208	f3 0f 10 0d 00
	00 00 00	 movss	 xmm1, DWORD PTR __real@3f800000
  00210	0f 57 c0	 xorps	 xmm0, xmm0
  00213	e8 00 00 00 00	 call	 ?XMVectorSet@DirectX@@YQ?AT__m128@@MMMM@Z ; DirectX::XMVectorSet
  00218	0f 29 85 60 05
	00 00		 movaps	 XMMWORD PTR $T14[rbp], xmm0
  0021f	0f 28 4d 70	 movaps	 xmm1, XMMWORD PTR vDirection$[rbp]
  00223	0f 28 85 60 05
	00 00		 movaps	 xmm0, XMMWORD PTR $T14[rbp]
  0022a	e8 00 00 00 00	 call	 ?XMVector3Cross@DirectX@@YQ?AT__m128@@T2@0@Z ; DirectX::XMVector3Cross
  0022f	0f 29 85 30 05
	00 00		 movaps	 XMMWORD PTR $T13[rbp], xmm0
  00236	0f 28 85 30 05
	00 00		 movaps	 xmm0, XMMWORD PTR $T13[rbp]
  0023d	e8 00 00 00 00	 call	 ?XMVector3Normalize@DirectX@@YQ?AT__m128@@T2@@Z ; DirectX::XMVector3Normalize
  00242	0f 29 85 00 05
	00 00		 movaps	 XMMWORD PTR $T12[rbp], xmm0
  00249	0f 28 85 00 05
	00 00		 movaps	 xmm0, XMMWORD PTR $T12[rbp]
  00250	0f 29 85 20 01
	00 00		 movaps	 XMMWORD PTR vRight$[rbp], xmm0

; 475  : 	_float fAxisY = XMVectorGetY(XMVector3Cross(vCurrentLook, vDirection));

  00257	0f 28 4d 70	 movaps	 xmm1, XMMWORD PTR vDirection$[rbp]
  0025b	0f 28 85 a0 00
	00 00		 movaps	 xmm0, XMMWORD PTR vCurrentLook$[rbp]
  00262	e8 00 00 00 00	 call	 ?XMVector3Cross@DirectX@@YQ?AT__m128@@T2@0@Z ; DirectX::XMVector3Cross
  00267	0f 29 85 90 05
	00 00		 movaps	 XMMWORD PTR $T15[rbp], xmm0
  0026e	0f 28 85 90 05
	00 00		 movaps	 xmm0, XMMWORD PTR $T15[rbp]
  00275	e8 00 00 00 00	 call	 ?XMVectorGetY@DirectX@@YQMT__m128@@@Z ; DirectX::XMVectorGetY
  0027a	f3 0f 11 85 44
	01 00 00	 movss	 DWORD PTR fAxisY$[rbp], xmm0

; 476  : 
; 477  : 
; 478  : 	if(fAxisY >= 0.f)

  00282	f3 0f 10 85 44
	01 00 00	 movss	 xmm0, DWORD PTR fAxisY$[rbp]
  0028a	0f 2f 05 00 00
	00 00		 comiss	 xmm0, DWORD PTR __real@00000000
  00291	72 62		 jb	 SHORT $LN6@LookPlayer

; 479  : 		transform->Rotate(VECTOR_UP, TimeDelta * fRadianAngle);

  00293	0f 57 db	 xorps	 xmm3, xmm3
  00296	0f 57 d2	 xorps	 xmm2, xmm2
  00299	f3 0f 10 0d 00
	00 00 00	 movss	 xmm1, DWORD PTR __real@3f800000
  002a1	0f 57 c0	 xorps	 xmm0, xmm0
  002a4	e8 00 00 00 00	 call	 ?XMVectorSet@DirectX@@YQ?AT__m128@@MMMM@Z ; DirectX::XMVectorSet
  002a9	0f 29 85 c0 05
	00 00		 movaps	 XMMWORD PTR $T16[rbp], xmm0
  002b0	f3 0f 5a 85 f4
	00 00 00	 cvtss2sd xmm0, DWORD PTR fRadianAngle$[rbp]
  002b8	f2 0f 10 8d 98
	06 00 00	 movsd	 xmm1, QWORD PTR TimeDelta$[rbp]
  002c0	f2 0f 59 c8	 mulsd	 xmm1, xmm0
  002c4	0f 28 c1	 movaps	 xmm0, xmm1
  002c7	0f 28 8d c0 05
	00 00		 movaps	 xmm1, XMMWORD PTR $T16[rbp]
  002ce	0f 29 8d 20 06
	00 00		 movaps	 XMMWORD PTR $T18[rbp], xmm1
  002d5	0f 28 d0	 movaps	 xmm2, xmm0
  002d8	48 8d 95 20 06
	00 00		 lea	 rdx, QWORD PTR $T18[rbp]
  002df	48 8b 85 90 06
	00 00		 mov	 rax, QWORD PTR this$[rbp]
  002e6	48 8b 88 98 00
	00 00		 mov	 rcx, QWORD PTR [rax+152]
  002ed	ff 15 00 00 00
	00		 call	 QWORD PTR __imp_?Rotate@CTransform@Engine@@QEAAXT__m128@@N@Z

; 480  : 	else

  002f3	eb 6b		 jmp	 SHORT $LN7@LookPlayer
$LN6@LookPlayer:

; 481  : 		transform->Rotate(VECTOR_UP, TimeDelta * -fRadianAngle);

  002f5	0f 57 db	 xorps	 xmm3, xmm3
  002f8	0f 57 d2	 xorps	 xmm2, xmm2
  002fb	f3 0f 10 0d 00
	00 00 00	 movss	 xmm1, DWORD PTR __real@3f800000
  00303	0f 57 c0	 xorps	 xmm0, xmm0
  00306	e8 00 00 00 00	 call	 ?XMVectorSet@DirectX@@YQ?AT__m128@@MMMM@Z ; DirectX::XMVectorSet
  0030b	0f 29 85 f0 05
	00 00		 movaps	 XMMWORD PTR $T17[rbp], xmm0
  00312	f3 0f 10 85 f4
	00 00 00	 movss	 xmm0, DWORD PTR fRadianAngle$[rbp]
  0031a	0f 57 05 00 00
	00 00		 xorps	 xmm0, DWORD PTR __xmm@80000000800000008000000080000000
  00321	f3 0f 5a c0	 cvtss2sd xmm0, xmm0
  00325	f2 0f 10 8d 98
	06 00 00	 movsd	 xmm1, QWORD PTR TimeDelta$[rbp]
  0032d	f2 0f 59 c8	 mulsd	 xmm1, xmm0
  00331	0f 28 c1	 movaps	 xmm0, xmm1
  00334	0f 28 8d f0 05
	00 00		 movaps	 xmm1, XMMWORD PTR $T17[rbp]
  0033b	0f 29 8d 50 06
	00 00		 movaps	 XMMWORD PTR $T19[rbp], xmm1
  00342	0f 28 d0	 movaps	 xmm2, xmm0
  00345	48 8d 95 50 06
	00 00		 lea	 rdx, QWORD PTR $T19[rbp]
  0034c	48 8b 85 90 06
	00 00		 mov	 rax, QWORD PTR this$[rbp]
  00353	48 8b 88 98 00
	00 00		 mov	 rcx, QWORD PTR [rax+152]
  0035a	ff 15 00 00 00
	00		 call	 QWORD PTR __imp_?Rotate@CTransform@Engine@@QEAAXT__m128@@N@Z
$LN7@LookPlayer:
$LN1@LookPlayer:

; 482  : 
; 483  : }

  00360	48 8d 4d e0	 lea	 rcx, QWORD PTR [rbp-32]
  00364	48 8d 15 00 00
	00 00		 lea	 rdx, OFFSET FLAT:?LookPlayer@CEnemy@Client@@AEAAXN@Z$rtcFrameData
  0036b	e8 00 00 00 00	 call	 _RTC_CheckStackVars
  00370	48 8b 8d 68 06
	00 00		 mov	 rcx, QWORD PTR __$ArrayPad$[rbp]
  00377	48 33 cd	 xor	 rcx, rbp
  0037a	e8 00 00 00 00	 call	 __security_check_cookie
  0037f	48 8d a5 78 06
	00 00		 lea	 rsp, QWORD PTR [rbp+1656]
  00386	5f		 pop	 rdi
  00387	5d		 pop	 rbp
  00388	c3		 ret	 0
?LookPlayer@CEnemy@Client@@AEAAXN@Z ENDP		; Client::CEnemy::LookPlayer
_TEXT	ENDS
; Function compile flags: /Odtp /RTCsu /ZI
; File c:\github\framework\client\private\enemy.cpp
;	COMDAT ?OverlapProcess@CEnemy@Client@@AEAAXN@Z
_TEXT	SEGMENT
vPos$ = 16
vEnemyLook$ = 64
vDir$ = 112
vAxisY$ = 148
fRadian$ = 180
$T1 = 800
$T2 = 848
$T3 = 896
$T4 = 944
$T5 = 992
$T6 = 1040
$T7 = 1088
$T8 = 1136
$T9 = 1184
$T10 = 1232
$T11 = 1280
$T12 = 1328
$T13 = 1376
$T14 = 1424
$T15 = 1472
$T16 = 1520
$T17 = 1568
$T18 = 1616
$T19 = 1664
this$ = 1728
TimeDelta$ = 1736
?OverlapProcess@CEnemy@Client@@AEAAXN@Z PROC		; Client::CEnemy::OverlapProcess, COMDAT

; 322  : {

$LN37:
  00000	f2 0f 11 4c 24
	10		 movsd	 QWORD PTR [rsp+16], xmm1
  00006	48 89 4c 24 08	 mov	 QWORD PTR [rsp+8], rcx
  0000b	55		 push	 rbp
  0000c	57		 push	 rdi
  0000d	48 81 ec c8 06
	00 00		 sub	 rsp, 1736		; 000006c8H
  00014	48 8d 6c 24 20	 lea	 rbp, QWORD PTR [rsp+32]
  00019	48 8b fc	 mov	 rdi, rsp
  0001c	b9 b2 01 00 00	 mov	 ecx, 434		; 000001b2H
  00021	b8 cc cc cc cc	 mov	 eax, -858993460		; ccccccccH
  00026	f3 ab		 rep stosd
  00028	48 8b 8c 24 e8
	06 00 00	 mov	 rcx, QWORD PTR [rsp+1768]

; 323  : 	if (m_OverlapAcc >= m_OverlappedWait)

  00030	48 8b 85 c0 06
	00 00		 mov	 rax, QWORD PTR this$[rbp]
  00037	48 8b 8d c0 06
	00 00		 mov	 rcx, QWORD PTR this$[rbp]
  0003e	f2 0f 10 80 70
	01 00 00	 movsd	 xmm0, QWORD PTR [rax+368]
  00046	66 0f 2f 81 78
	01 00 00	 comisd	 xmm0, QWORD PTR [rcx+376]
  0004e	72 4a		 jb	 SHORT $LN2@OverlapPro

; 324  : 	{
; 325  : 		m_bRotationFinish = false;

  00050	48 8b 85 c0 06
	00 00		 mov	 rax, QWORD PTR this$[rbp]
  00057	c6 80 49 01 00
	00 00		 mov	 BYTE PTR [rax+329], 0

; 326  : 		m_bOverlapped = false;

  0005e	48 8b 85 c0 06
	00 00		 mov	 rax, QWORD PTR this$[rbp]
  00065	c6 80 68 01 00
	00 00		 mov	 BYTE PTR [rax+360], 0

; 327  : 
; 328  : 		m_bTraceFinish = false;

  0006c	48 8b 85 c0 06
	00 00		 mov	 rax, QWORD PTR this$[rbp]
  00073	c6 80 48 01 00
	00 00		 mov	 BYTE PTR [rax+328], 0

; 329  : 		m_bAttackCollision = false;

  0007a	48 8b 85 c0 06
	00 00		 mov	 rax, QWORD PTR this$[rbp]
  00081	c6 80 8d 01 00
	00 00		 mov	 BYTE PTR [rax+397], 0

; 330  : 
; 331  : 		m_OverlapAcc = 0.0;

  00088	48 8b 85 c0 06
	00 00		 mov	 rax, QWORD PTR this$[rbp]
  0008f	0f 57 c0	 xorps	 xmm0, xmm0
  00092	f2 0f 11 80 70
	01 00 00	 movsd	 QWORD PTR [rax+368], xmm0
$LN2@OverlapPro:

; 332  : 	}
; 333  : 	
; 334  : 	//    ( Enemy -> Player)
; 335  : 	//_vector vPlayerDir = m_pPlayerTransform->Get_State(CTransform::STATE_POSITION) - transform->Get_State(CTransform::STATE_POSITION);
; 336  : 
; 337  : 	//    +  ()
; 338  : 	_vector vPos = transform->Get_State(CTransform::STATE_POSITION) + XMLoadFloat3(&m_vNagative) * (_float)TimeDelta;

  0009a	48 8b 85 c0 06
	00 00		 mov	 rax, QWORD PTR this$[rbp]
  000a1	48 05 5c 01 00
	00		 add	 rax, 348		; 0000015cH
  000a7	48 8b c8	 mov	 rcx, rax
  000aa	e8 00 00 00 00	 call	 ?XMLoadFloat3@DirectX@@YQ?AT__m128@@PEBUXMFLOAT3@1@@Z ; DirectX::XMLoadFloat3
  000af	0f 29 85 80 03
	00 00		 movaps	 XMMWORD PTR $T3[rbp], xmm0
  000b6	f2 0f 5a 85 c8
	06 00 00	 cvtsd2ss xmm0, QWORD PTR TimeDelta$[rbp]
  000be	0f 28 c8	 movaps	 xmm1, xmm0
  000c1	0f 28 85 80 03
	00 00		 movaps	 xmm0, XMMWORD PTR $T3[rbp]
  000c8	e8 00 00 00 00	 call	 ??DDirectX@@YQ?AT__m128@@T1@M@Z ; DirectX::operator*
  000cd	0f 29 85 50 03
	00 00		 movaps	 XMMWORD PTR $T2[rbp], xmm0
  000d4	41 b8 03 00 00
	00		 mov	 r8d, 3
  000da	48 8d 95 b0 03
	00 00		 lea	 rdx, QWORD PTR $T4[rbp]
  000e1	48 8b 85 c0 06
	00 00		 mov	 rax, QWORD PTR this$[rbp]
  000e8	48 8b 88 98 00
	00 00		 mov	 rcx, QWORD PTR [rax+152]
  000ef	ff 15 00 00 00
	00		 call	 QWORD PTR __imp_?Get_State@CTransform@Engine@@QEAA?AT__m128@@W4STATE@12@@Z
  000f5	0f 28 8d 50 03
	00 00		 movaps	 xmm1, XMMWORD PTR $T2[rbp]
  000fc	0f 10 00	 movups	 xmm0, XMMWORD PTR [rax]
  000ff	e8 00 00 00 00	 call	 ??HDirectX@@YQ?AT__m128@@T1@0@Z ; DirectX::operator+
  00104	0f 29 85 20 03
	00 00		 movaps	 XMMWORD PTR $T1[rbp], xmm0
  0010b	0f 28 85 20 03
	00 00		 movaps	 xmm0, XMMWORD PTR $T1[rbp]
  00112	0f 29 45 10	 movaps	 XMMWORD PTR vPos$[rbp], xmm0

; 339  : 	_vector vEnemyLook = XMVector3Normalize(transform->Get_State(CTransform::STATE_LOOK));

  00116	41 b8 02 00 00
	00		 mov	 r8d, 2
  0011c	48 8d 95 10 04
	00 00		 lea	 rdx, QWORD PTR $T6[rbp]
  00123	48 8b 85 c0 06
	00 00		 mov	 rax, QWORD PTR this$[rbp]
  0012a	48 8b 88 98 00
	00 00		 mov	 rcx, QWORD PTR [rax+152]
  00131	ff 15 00 00 00
	00		 call	 QWORD PTR __imp_?Get_State@CTransform@Engine@@QEAA?AT__m128@@W4STATE@12@@Z
  00137	0f 10 00	 movups	 xmm0, XMMWORD PTR [rax]
  0013a	e8 00 00 00 00	 call	 ?XMVector3Normalize@DirectX@@YQ?AT__m128@@T2@@Z ; DirectX::XMVector3Normalize
  0013f	0f 29 85 e0 03
	00 00		 movaps	 XMMWORD PTR $T5[rbp], xmm0
  00146	0f 28 85 e0 03
	00 00		 movaps	 xmm0, XMMWORD PTR $T5[rbp]
  0014d	0f 29 45 40	 movaps	 XMMWORD PTR vEnemyLook$[rbp], xmm0

; 340  : 	_vector vDir = XMVector3Normalize(vPos - transform->Get_State(CTransform::STATE_POSITION));

  00151	41 b8 03 00 00
	00		 mov	 r8d, 3
  00157	48 8d 95 a0 04
	00 00		 lea	 rdx, QWORD PTR $T9[rbp]
  0015e	48 8b 85 c0 06
	00 00		 mov	 rax, QWORD PTR this$[rbp]
  00165	48 8b 88 98 00
	00 00		 mov	 rcx, QWORD PTR [rax+152]
  0016c	ff 15 00 00 00
	00		 call	 QWORD PTR __imp_?Get_State@CTransform@Engine@@QEAA?AT__m128@@W4STATE@12@@Z
  00172	0f 10 08	 movups	 xmm1, XMMWORD PTR [rax]
  00175	0f 28 45 10	 movaps	 xmm0, XMMWORD PTR vPos$[rbp]
  00179	e8 00 00 00 00	 call	 ??GDirectX@@YQ?AT__m128@@T1@0@Z ; DirectX::operator-
  0017e	0f 29 85 70 04
	00 00		 movaps	 XMMWORD PTR $T8[rbp], xmm0
  00185	0f 28 85 70 04
	00 00		 movaps	 xmm0, XMMWORD PTR $T8[rbp]
  0018c	e8 00 00 00 00	 call	 ?XMVector3Normalize@DirectX@@YQ?AT__m128@@T2@@Z ; DirectX::XMVector3Normalize
  00191	0f 29 85 40 04
	00 00		 movaps	 XMMWORD PTR $T7[rbp], xmm0
  00198	0f 28 85 40 04
	00 00		 movaps	 xmm0, XMMWORD PTR $T7[rbp]
  0019f	0f 29 45 70	 movaps	 XMMWORD PTR vDir$[rbp], xmm0

; 341  : 
; 342  : 	//EnemyLook ,   
; 343  : 	_float vAxisY = XMVectorGetY(XMVector3Cross(vEnemyLook, vDir));

  001a3	0f 28 4d 70	 movaps	 xmm1, XMMWORD PTR vDir$[rbp]
  001a7	0f 28 45 40	 movaps	 xmm0, XMMWORD PTR vEnemyLook$[rbp]
  001ab	e8 00 00 00 00	 call	 ?XMVector3Cross@DirectX@@YQ?AT__m128@@T2@0@Z ; DirectX::XMVector3Cross
  001b0	0f 29 85 d0 04
	00 00		 movaps	 XMMWORD PTR $T10[rbp], xmm0
  001b7	0f 28 85 d0 04
	00 00		 movaps	 xmm0, XMMWORD PTR $T10[rbp]
  001be	e8 00 00 00 00	 call	 ?XMVectorGetY@DirectX@@YQMT__m128@@@Z ; DirectX::XMVectorGetY
  001c3	f3 0f 11 85 94
	00 00 00	 movss	 DWORD PTR vAxisY$[rbp], xmm0

; 344  : 	_float fRadian = XMVectorGetX(XMVector3Dot(vDir, vEnemyLook));

  001cb	0f 28 4d 40	 movaps	 xmm1, XMMWORD PTR vEnemyLook$[rbp]
  001cf	0f 28 45 70	 movaps	 xmm0, XMMWORD PTR vDir$[rbp]
  001d3	e8 00 00 00 00	 call	 ?XMVector3Dot@DirectX@@YQ?AT__m128@@T2@0@Z ; DirectX::XMVector3Dot
  001d8	0f 29 85 00 05
	00 00		 movaps	 XMMWORD PTR $T11[rbp], xmm0
  001df	0f 28 85 00 05
	00 00		 movaps	 xmm0, XMMWORD PTR $T11[rbp]
  001e6	e8 00 00 00 00	 call	 ?XMVectorGetX@DirectX@@YQMT__m128@@@Z ; DirectX::XMVectorGetX
  001eb	f3 0f 11 85 b4
	00 00 00	 movss	 DWORD PTR fRadian$[rbp], xmm0

; 345  : 	if (isnan(fRadian))

  001f3	f3 0f 10 85 b4
	00 00 00	 movss	 xmm0, DWORD PTR fRadian$[rbp]
  001fb	e8 00 00 00 00	 call	 ??$isnan@M@@YA_NM@Z	; isnan<float>
  00200	0f b6 c0	 movzx	 eax, al
  00203	85 c0		 test	 eax, eax
  00205	74 0b		 je	 SHORT $LN3@OverlapPro

; 346  : 		fRadian = 0.0f;

  00207	0f 57 c0	 xorps	 xmm0, xmm0
  0020a	f3 0f 11 85 b4
	00 00 00	 movss	 DWORD PTR fRadian$[rbp], xmm0
$LN3@OverlapPro:

; 347  : 
; 348  : 	//   Overlap
; 349  : 	if (model->AnimationCompare((_uint)CLIP::ATTACK1) ||
; 350  : 		model->AnimationCompare((_uint)CLIP::ATTACK2) ||

  00212	33 d2		 xor	 edx, edx
  00214	48 8b 85 c0 06
	00 00		 mov	 rax, QWORD PTR this$[rbp]
  0021b	48 8b 88 a0 00
	00 00		 mov	 rcx, QWORD PTR [rax+160]
  00222	ff 15 00 00 00
	00		 call	 QWORD PTR __imp_?AnimationCompare@CModel@Engine@@QEBA_NI@Z
  00228	0f b6 c0	 movzx	 eax, al
  0022b	85 c0		 test	 eax, eax
  0022d	75 44		 jne	 SHORT $LN6@OverlapPro
  0022f	ba 01 00 00 00	 mov	 edx, 1
  00234	48 8b 85 c0 06
	00 00		 mov	 rax, QWORD PTR this$[rbp]
  0023b	48 8b 88 a0 00
	00 00		 mov	 rcx, QWORD PTR [rax+160]
  00242	ff 15 00 00 00
	00		 call	 QWORD PTR __imp_?AnimationCompare@CModel@Engine@@QEBA_NI@Z
  00248	0f b6 c0	 movzx	 eax, al
  0024b	85 c0		 test	 eax, eax
  0024d	75 24		 jne	 SHORT $LN6@OverlapPro
  0024f	ba 02 00 00 00	 mov	 edx, 2
  00254	48 8b 85 c0 06
	00 00		 mov	 rax, QWORD PTR this$[rbp]
  0025b	48 8b 88 a0 00
	00 00		 mov	 rcx, QWORD PTR [rax+160]
  00262	ff 15 00 00 00
	00		 call	 QWORD PTR __imp_?AnimationCompare@CModel@Engine@@QEBA_NI@Z
  00268	0f b6 c0	 movzx	 eax, al
  0026b	85 c0		 test	 eax, eax
  0026d	0f 84 c1 02 00
	00		 je	 $LN4@OverlapPro
$LN6@OverlapPro:

; 351  : 		model->AnimationCompare((_uint)CLIP::ATTACK3))
; 352  : 	{
; 353  : 		m_OverlapAcc = 0.0;

  00273	48 8b 85 c0 06
	00 00		 mov	 rax, QWORD PTR this$[rbp]
  0027a	0f 57 c0	 xorps	 xmm0, xmm0
  0027d	f2 0f 11 80 70
	01 00 00	 movsd	 QWORD PTR [rax+368], xmm0

; 354  : 		if (model->AnimationIsFinish())

  00285	48 8b 85 c0 06
	00 00		 mov	 rax, QWORD PTR this$[rbp]
  0028c	48 8b 88 a0 00
	00 00		 mov	 rcx, QWORD PTR [rax+160]
  00293	ff 15 00 00 00
	00		 call	 QWORD PTR __imp_?AnimationIsFinish@CModel@Engine@@QEAA_NXZ
  00299	0f b6 c0	 movzx	 eax, al
  0029c	85 c0		 test	 eax, eax
  0029e	0f 84 8b 02 00
	00		 je	 $LN7@OverlapPro

; 355  : 		{
; 356  : 			if (fRadian > 0.8f)

  002a4	f3 0f 10 85 b4
	00 00 00	 movss	 xmm0, DWORD PTR fRadian$[rbp]
  002ac	0f 2f 05 00 00
	00 00		 comiss	 xmm0, DWORD PTR __real@3f4ccccd
  002b3	0f 86 94 00 00
	00		 jbe	 $LN8@OverlapPro

; 357  : 			{
; 358  : 				transform->Set_State(CTransform::STATE_POSITION, vPos);

  002b9	0f 28 45 10	 movaps	 xmm0, XMMWORD PTR vPos$[rbp]
  002bd	0f 29 85 30 05
	00 00		 movaps	 XMMWORD PTR $T12[rbp], xmm0
  002c4	4c 8d 85 30 05
	00 00		 lea	 r8, QWORD PTR $T12[rbp]
  002cb	ba 03 00 00 00	 mov	 edx, 3
  002d0	48 8b 85 c0 06
	00 00		 mov	 rax, QWORD PTR this$[rbp]
  002d7	48 8b 88 98 00
	00 00		 mov	 rcx, QWORD PTR [rax+152]
  002de	ff 15 00 00 00
	00		 call	 QWORD PTR __imp_?Set_State@CTransform@Engine@@QEAAXW4STATE@12@T__m128@@@Z

; 359  : 
; 360  : 				if(m_eType == TYPE::HUMANOID)

  002e4	48 8b 85 c0 06
	00 00		 mov	 rax, QWORD PTR this$[rbp]
  002eb	83 b8 d8 00 00
	00 00		 cmp	 DWORD PTR [rax+216], 0
  002f2	75 22		 jne	 SHORT $LN10@OverlapPro

; 361  : 					model->Setup_Animation((_uint)CLIP::RUN, CAnimation::TYPE::LOOP, true);

  002f4	41 b1 01	 mov	 r9b, 1
  002f7	41 b8 01 00 00
	00		 mov	 r8d, 1
  002fd	ba 10 00 00 00	 mov	 edx, 16
  00302	48 8b 85 c0 06
	00 00		 mov	 rax, QWORD PTR this$[rbp]
  00309	48 8b 88 a0 00
	00 00		 mov	 rcx, QWORD PTR [rax+160]
  00310	ff 15 00 00 00
	00		 call	 QWORD PTR __imp_?Setup_Animation@CModel@Engine@@QEAAJIW4TYPE@CAnimation@2@_N@Z
$LN10@OverlapPro:

; 362  : 				if (m_eType == TYPE::ANIMAL)

  00316	48 8b 85 c0 06
	00 00		 mov	 rax, QWORD PTR this$[rbp]
  0031d	83 b8 d8 00 00
	00 01		 cmp	 DWORD PTR [rax+216], 1
  00324	75 22		 jne	 SHORT $LN11@OverlapPro

; 363  : 					model->Setup_Animation((_uint)CLIP_TWO::RUN, CAnimation::TYPE::LOOP, true);

  00326	41 b1 01	 mov	 r9b, 1
  00329	41 b8 01 00 00
	00		 mov	 r8d, 1
  0032f	ba 0e 00 00 00	 mov	 edx, 14
  00334	48 8b 85 c0 06
	00 00		 mov	 rax, QWORD PTR this$[rbp]
  0033b	48 8b 88 a0 00
	00 00		 mov	 rcx, QWORD PTR [rax+160]
  00342	ff 15 00 00 00
	00		 call	 QWORD PTR __imp_?Setup_Animation@CModel@Engine@@QEAAJIW4TYPE@CAnimation@2@_N@Z
$LN11@OverlapPro:

; 364  : 			}

  00348	e9 e2 01 00 00	 jmp	 $LN9@OverlapPro
$LN8@OverlapPro:

; 365  : 			else if (fRadian < -0.8f)

  0034d	f3 0f 10 05 00
	00 00 00	 movss	 xmm0, DWORD PTR __real@bf4ccccd
  00355	0f 2f 85 b4 00
	00 00		 comiss	 xmm0, DWORD PTR fRadian$[rbp]
  0035c	0f 86 94 00 00
	00		 jbe	 $LN12@OverlapPro

; 366  : 			{
; 367  : 				transform->Set_State(CTransform::STATE_POSITION, vPos);

  00362	0f 28 45 10	 movaps	 xmm0, XMMWORD PTR vPos$[rbp]
  00366	0f 29 85 60 05
	00 00		 movaps	 XMMWORD PTR $T13[rbp], xmm0
  0036d	4c 8d 85 60 05
	00 00		 lea	 r8, QWORD PTR $T13[rbp]
  00374	ba 03 00 00 00	 mov	 edx, 3
  00379	48 8b 85 c0 06
	00 00		 mov	 rax, QWORD PTR this$[rbp]
  00380	48 8b 88 98 00
	00 00		 mov	 rcx, QWORD PTR [rax+152]
  00387	ff 15 00 00 00
	00		 call	 QWORD PTR __imp_?Set_State@CTransform@Engine@@QEAAXW4STATE@12@T__m128@@@Z

; 368  : 
; 369  : 				if (m_eType == TYPE::HUMANOID)

  0038d	48 8b 85 c0 06
	00 00		 mov	 rax, QWORD PTR this$[rbp]
  00394	83 b8 d8 00 00
	00 00		 cmp	 DWORD PTR [rax+216], 0
  0039b	75 22		 jne	 SHORT $LN14@OverlapPro

; 370  : 					model->Setup_Animation((_uint)CLIP::RUNB, CAnimation::TYPE::LOOP, true);

  0039d	41 b1 01	 mov	 r9b, 1
  003a0	41 b8 01 00 00
	00		 mov	 r8d, 1
  003a6	ba 11 00 00 00	 mov	 edx, 17
  003ab	48 8b 85 c0 06
	00 00		 mov	 rax, QWORD PTR this$[rbp]
  003b2	48 8b 88 a0 00
	00 00		 mov	 rcx, QWORD PTR [rax+160]
  003b9	ff 15 00 00 00
	00		 call	 QWORD PTR __imp_?Setup_Animation@CModel@Engine@@QEAAJIW4TYPE@CAnimation@2@_N@Z
$LN14@OverlapPro:

; 371  : 				if (m_eType == TYPE::ANIMAL)

  003bf	48 8b 85 c0 06
	00 00		 mov	 rax, QWORD PTR this$[rbp]
  003c6	83 b8 d8 00 00
	00 01		 cmp	 DWORD PTR [rax+216], 1
  003cd	75 22		 jne	 SHORT $LN15@OverlapPro

; 372  : 					model->Setup_Animation((_uint)CLIP_TWO::WALKB, CAnimation::TYPE::LOOP, true);

  003cf	41 b1 01	 mov	 r9b, 1
  003d2	41 b8 01 00 00
	00		 mov	 r8d, 1
  003d8	ba 14 00 00 00	 mov	 edx, 20
  003dd	48 8b 85 c0 06
	00 00		 mov	 rax, QWORD PTR this$[rbp]
  003e4	48 8b 88 a0 00
	00 00		 mov	 rcx, QWORD PTR [rax+160]
  003eb	ff 15 00 00 00
	00		 call	 QWORD PTR __imp_?Setup_Animation@CModel@Engine@@QEAAJIW4TYPE@CAnimation@2@_N@Z
$LN15@OverlapPro:

; 373  : 			}
; 374  : 			else

  003f1	e9 39 01 00 00	 jmp	 $LN13@OverlapPro
$LN12@OverlapPro:

; 375  : 			{
; 376  : 				if (vAxisY >= 0.0)

  003f6	f3 0f 5a 85 94
	00 00 00	 cvtss2sd xmm0, DWORD PTR vAxisY$[rbp]
  003fe	66 0f 2f 05 00
	00 00 00	 comisd	 xmm0, QWORD PTR __real@0000000000000000
  00406	0f 82 94 00 00
	00		 jb	 $LN16@OverlapPro

; 377  : 				{
; 378  : 					transform->Set_State(CTransform::STATE_POSITION, vPos);

  0040c	0f 28 45 10	 movaps	 xmm0, XMMWORD PTR vPos$[rbp]
  00410	0f 29 85 90 05
	00 00		 movaps	 XMMWORD PTR $T14[rbp], xmm0
  00417	4c 8d 85 90 05
	00 00		 lea	 r8, QWORD PTR $T14[rbp]
  0041e	ba 03 00 00 00	 mov	 edx, 3
  00423	48 8b 85 c0 06
	00 00		 mov	 rax, QWORD PTR this$[rbp]
  0042a	48 8b 88 98 00
	00 00		 mov	 rcx, QWORD PTR [rax+152]
  00431	ff 15 00 00 00
	00		 call	 QWORD PTR __imp_?Set_State@CTransform@Engine@@QEAAXW4STATE@12@T__m128@@@Z

; 379  : 
; 380  : 					if (m_eType == TYPE::HUMANOID)

  00437	48 8b 85 c0 06
	00 00		 mov	 rax, QWORD PTR this$[rbp]
  0043e	83 b8 d8 00 00
	00 00		 cmp	 DWORD PTR [rax+216], 0
  00445	75 22		 jne	 SHORT $LN18@OverlapPro

; 381  : 						model->Setup_Animation((_uint)CLIP::RUNR, CAnimation::TYPE::LOOP, true);

  00447	41 b1 01	 mov	 r9b, 1
  0044a	41 b8 01 00 00
	00		 mov	 r8d, 1
  00450	ba 13 00 00 00	 mov	 edx, 19
  00455	48 8b 85 c0 06
	00 00		 mov	 rax, QWORD PTR this$[rbp]
  0045c	48 8b 88 a0 00
	00 00		 mov	 rcx, QWORD PTR [rax+160]
  00463	ff 15 00 00 00
	00		 call	 QWORD PTR __imp_?Setup_Animation@CModel@Engine@@QEAAJIW4TYPE@CAnimation@2@_N@Z
$LN18@OverlapPro:

; 382  : 					if (m_eType == TYPE::ANIMAL)

  00469	48 8b 85 c0 06
	00 00		 mov	 rax, QWORD PTR this$[rbp]
  00470	83 b8 d8 00 00
	00 01		 cmp	 DWORD PTR [rax+216], 1
  00477	75 22		 jne	 SHORT $LN19@OverlapPro

; 383  : 						model->Setup_Animation((_uint)CLIP_TWO::WALKR, CAnimation::TYPE::LOOP, true);

  00479	41 b1 01	 mov	 r9b, 1
  0047c	41 b8 01 00 00
	00		 mov	 r8d, 1
  00482	ba 16 00 00 00	 mov	 edx, 22
  00487	48 8b 85 c0 06
	00 00		 mov	 rax, QWORD PTR this$[rbp]
  0048e	48 8b 88 a0 00
	00 00		 mov	 rcx, QWORD PTR [rax+160]
  00495	ff 15 00 00 00
	00		 call	 QWORD PTR __imp_?Setup_Animation@CModel@Engine@@QEAAJIW4TYPE@CAnimation@2@_N@Z
$LN19@OverlapPro:

; 384  : 				}
; 385  : 				else

  0049b	e9 8f 00 00 00	 jmp	 $LN17@OverlapPro
$LN16@OverlapPro:

; 386  : 				{
; 387  : 					transform->Set_State(CTransform::STATE_POSITION, vPos);

  004a0	0f 28 45 10	 movaps	 xmm0, XMMWORD PTR vPos$[rbp]
  004a4	0f 29 85 c0 05
	00 00		 movaps	 XMMWORD PTR $T15[rbp], xmm0
  004ab	4c 8d 85 c0 05
	00 00		 lea	 r8, QWORD PTR $T15[rbp]
  004b2	ba 03 00 00 00	 mov	 edx, 3
  004b7	48 8b 85 c0 06
	00 00		 mov	 rax, QWORD PTR this$[rbp]
  004be	48 8b 88 98 00
	00 00		 mov	 rcx, QWORD PTR [rax+152]
  004c5	ff 15 00 00 00
	00		 call	 QWORD PTR __imp_?Set_State@CTransform@Engine@@QEAAXW4STATE@12@T__m128@@@Z

; 388  : 
; 389  : 					if (m_eType == TYPE::HUMANOID)

  004cb	48 8b 85 c0 06
	00 00		 mov	 rax, QWORD PTR this$[rbp]
  004d2	83 b8 d8 00 00
	00 00		 cmp	 DWORD PTR [rax+216], 0
  004d9	75 22		 jne	 SHORT $LN20@OverlapPro

; 390  : 						model->Setup_Animation((_uint)CLIP::RUNL, CAnimation::TYPE::LOOP, true);

  004db	41 b1 01	 mov	 r9b, 1
  004de	41 b8 01 00 00
	00		 mov	 r8d, 1
  004e4	ba 12 00 00 00	 mov	 edx, 18
  004e9	48 8b 85 c0 06
	00 00		 mov	 rax, QWORD PTR this$[rbp]
  004f0	48 8b 88 a0 00
	00 00		 mov	 rcx, QWORD PTR [rax+160]
  004f7	ff 15 00 00 00
	00		 call	 QWORD PTR __imp_?Setup_Animation@CModel@Engine@@QEAAJIW4TYPE@CAnimation@2@_N@Z
$LN20@OverlapPro:

; 391  : 					if (m_eType == TYPE::ANIMAL)

  004fd	48 8b 85 c0 06
	00 00		 mov	 rax, QWORD PTR this$[rbp]
  00504	83 b8 d8 00 00
	00 01		 cmp	 DWORD PTR [rax+216], 1
  0050b	75 22		 jne	 SHORT $LN21@OverlapPro

; 392  : 						model->Setup_Animation((_uint)CLIP_TWO::WALKL, CAnimation::TYPE::LOOP, true);

  0050d	41 b1 01	 mov	 r9b, 1
  00510	41 b8 01 00 00
	00		 mov	 r8d, 1
  00516	ba 15 00 00 00	 mov	 edx, 21
  0051b	48 8b 85 c0 06
	00 00		 mov	 rax, QWORD PTR this$[rbp]
  00522	48 8b 88 a0 00
	00 00		 mov	 rcx, QWORD PTR [rax+160]
  00529	ff 15 00 00 00
	00		 call	 QWORD PTR __imp_?Setup_Animation@CModel@Engine@@QEAAJIW4TYPE@CAnimation@2@_N@Z
$LN21@OverlapPro:
$LN17@OverlapPro:
$LN13@OverlapPro:
$LN9@OverlapPro:
$LN7@OverlapPro:

; 393  : 				}
; 394  : 			}
; 395  : 		}
; 396  : 	}
; 397  : 	else

  0052f	e9 b1 02 00 00	 jmp	 $LN5@OverlapPro
$LN4@OverlapPro:

; 398  : 	{
; 399  : 		if (fRadian > 0.8f)

  00534	f3 0f 10 85 b4
	00 00 00	 movss	 xmm0, DWORD PTR fRadian$[rbp]
  0053c	0f 2f 05 00 00
	00 00		 comiss	 xmm0, DWORD PTR __real@3f4ccccd
  00543	0f 86 94 00 00
	00		 jbe	 $LN22@OverlapPro

; 400  : 		{
; 401  : 				transform->Set_State(CTransform::STATE_POSITION, vPos);

  00549	0f 28 45 10	 movaps	 xmm0, XMMWORD PTR vPos$[rbp]
  0054d	0f 29 85 f0 05
	00 00		 movaps	 XMMWORD PTR $T16[rbp], xmm0
  00554	4c 8d 85 f0 05
	00 00		 lea	 r8, QWORD PTR $T16[rbp]
  0055b	ba 03 00 00 00	 mov	 edx, 3
  00560	48 8b 85 c0 06
	00 00		 mov	 rax, QWORD PTR this$[rbp]
  00567	48 8b 88 98 00
	00 00		 mov	 rcx, QWORD PTR [rax+152]
  0056e	ff 15 00 00 00
	00		 call	 QWORD PTR __imp_?Set_State@CTransform@Engine@@QEAAXW4STATE@12@T__m128@@@Z

; 402  : 
; 403  : 				if (m_eType == TYPE::HUMANOID)

  00574	48 8b 85 c0 06
	00 00		 mov	 rax, QWORD PTR this$[rbp]
  0057b	83 b8 d8 00 00
	00 00		 cmp	 DWORD PTR [rax+216], 0
  00582	75 22		 jne	 SHORT $LN24@OverlapPro

; 404  : 					model->Setup_Animation((_uint)CLIP::RUN, CAnimation::TYPE::LOOP, true);

  00584	41 b1 01	 mov	 r9b, 1
  00587	41 b8 01 00 00
	00		 mov	 r8d, 1
  0058d	ba 10 00 00 00	 mov	 edx, 16
  00592	48 8b 85 c0 06
	00 00		 mov	 rax, QWORD PTR this$[rbp]
  00599	48 8b 88 a0 00
	00 00		 mov	 rcx, QWORD PTR [rax+160]
  005a0	ff 15 00 00 00
	00		 call	 QWORD PTR __imp_?Setup_Animation@CModel@Engine@@QEAAJIW4TYPE@CAnimation@2@_N@Z
$LN24@OverlapPro:

; 405  : 				if (m_eType == TYPE::ANIMAL)

  005a6	48 8b 85 c0 06
	00 00		 mov	 rax, QWORD PTR this$[rbp]
  005ad	83 b8 d8 00 00
	00 01		 cmp	 DWORD PTR [rax+216], 1
  005b4	75 22		 jne	 SHORT $LN25@OverlapPro

; 406  : 					model->Setup_Animation((_uint)CLIP_TWO::RUN, CAnimation::TYPE::LOOP, true);

  005b6	41 b1 01	 mov	 r9b, 1
  005b9	41 b8 01 00 00
	00		 mov	 r8d, 1
  005bf	ba 0e 00 00 00	 mov	 edx, 14
  005c4	48 8b 85 c0 06
	00 00		 mov	 rax, QWORD PTR this$[rbp]
  005cb	48 8b 88 a0 00
	00 00		 mov	 rcx, QWORD PTR [rax+160]
  005d2	ff 15 00 00 00
	00		 call	 QWORD PTR __imp_?Setup_Animation@CModel@Engine@@QEAAJIW4TYPE@CAnimation@2@_N@Z
$LN25@OverlapPro:

; 407  : 		}

  005d8	e9 e2 01 00 00	 jmp	 $LN23@OverlapPro
$LN22@OverlapPro:

; 408  : 		else if (fRadian < -0.8f)

  005dd	f3 0f 10 05 00
	00 00 00	 movss	 xmm0, DWORD PTR __real@bf4ccccd
  005e5	0f 2f 85 b4 00
	00 00		 comiss	 xmm0, DWORD PTR fRadian$[rbp]
  005ec	0f 86 94 00 00
	00		 jbe	 $LN26@OverlapPro

; 409  : 		{
; 410  : 			transform->Set_State(CTransform::STATE_POSITION, vPos);

  005f2	0f 28 45 10	 movaps	 xmm0, XMMWORD PTR vPos$[rbp]
  005f6	0f 29 85 20 06
	00 00		 movaps	 XMMWORD PTR $T17[rbp], xmm0
  005fd	4c 8d 85 20 06
	00 00		 lea	 r8, QWORD PTR $T17[rbp]
  00604	ba 03 00 00 00	 mov	 edx, 3
  00609	48 8b 85 c0 06
	00 00		 mov	 rax, QWORD PTR this$[rbp]
  00610	48 8b 88 98 00
	00 00		 mov	 rcx, QWORD PTR [rax+152]
  00617	ff 15 00 00 00
	00		 call	 QWORD PTR __imp_?Set_State@CTransform@Engine@@QEAAXW4STATE@12@T__m128@@@Z

; 411  : 
; 412  : 			if (m_eType == TYPE::HUMANOID)

  0061d	48 8b 85 c0 06
	00 00		 mov	 rax, QWORD PTR this$[rbp]
  00624	83 b8 d8 00 00
	00 00		 cmp	 DWORD PTR [rax+216], 0
  0062b	75 22		 jne	 SHORT $LN28@OverlapPro

; 413  : 				model->Setup_Animation((_uint)CLIP::RUNB, CAnimation::TYPE::LOOP, true);

  0062d	41 b1 01	 mov	 r9b, 1
  00630	41 b8 01 00 00
	00		 mov	 r8d, 1
  00636	ba 11 00 00 00	 mov	 edx, 17
  0063b	48 8b 85 c0 06
	00 00		 mov	 rax, QWORD PTR this$[rbp]
  00642	48 8b 88 a0 00
	00 00		 mov	 rcx, QWORD PTR [rax+160]
  00649	ff 15 00 00 00
	00		 call	 QWORD PTR __imp_?Setup_Animation@CModel@Engine@@QEAAJIW4TYPE@CAnimation@2@_N@Z
$LN28@OverlapPro:

; 414  : 			if (m_eType == TYPE::ANIMAL)

  0064f	48 8b 85 c0 06
	00 00		 mov	 rax, QWORD PTR this$[rbp]
  00656	83 b8 d8 00 00
	00 01		 cmp	 DWORD PTR [rax+216], 1
  0065d	75 22		 jne	 SHORT $LN29@OverlapPro

; 415  : 				model->Setup_Animation((_uint)CLIP_TWO::WALKB, CAnimation::TYPE::LOOP, true);

  0065f	41 b1 01	 mov	 r9b, 1
  00662	41 b8 01 00 00
	00		 mov	 r8d, 1
  00668	ba 14 00 00 00	 mov	 edx, 20
  0066d	48 8b 85 c0 06
	00 00		 mov	 rax, QWORD PTR this$[rbp]
  00674	48 8b 88 a0 00
	00 00		 mov	 rcx, QWORD PTR [rax+160]
  0067b	ff 15 00 00 00
	00		 call	 QWORD PTR __imp_?Setup_Animation@CModel@Engine@@QEAAJIW4TYPE@CAnimation@2@_N@Z
$LN29@OverlapPro:

; 416  : 		}
; 417  : 		else

  00681	e9 39 01 00 00	 jmp	 $LN27@OverlapPro
$LN26@OverlapPro:

; 418  : 		{
; 419  : 			if (vAxisY >= 0.0)

  00686	f3 0f 5a 85 94
	00 00 00	 cvtss2sd xmm0, DWORD PTR vAxisY$[rbp]
  0068e	66 0f 2f 05 00
	00 00 00	 comisd	 xmm0, QWORD PTR __real@0000000000000000
  00696	0f 82 94 00 00
	00		 jb	 $LN30@OverlapPro

; 420  : 			{
; 421  : 				transform->Set_State(CTransform::STATE_POSITION, vPos);

  0069c	0f 28 45 10	 movaps	 xmm0, XMMWORD PTR vPos$[rbp]
  006a0	0f 29 85 50 06
	00 00		 movaps	 XMMWORD PTR $T18[rbp], xmm0
  006a7	4c 8d 85 50 06
	00 00		 lea	 r8, QWORD PTR $T18[rbp]
  006ae	ba 03 00 00 00	 mov	 edx, 3
  006b3	48 8b 85 c0 06
	00 00		 mov	 rax, QWORD PTR this$[rbp]
  006ba	48 8b 88 98 00
	00 00		 mov	 rcx, QWORD PTR [rax+152]
  006c1	ff 15 00 00 00
	00		 call	 QWORD PTR __imp_?Set_State@CTransform@Engine@@QEAAXW4STATE@12@T__m128@@@Z

; 422  : 
; 423  : 				if (m_eType == TYPE::HUMANOID)

  006c7	48 8b 85 c0 06
	00 00		 mov	 rax, QWORD PTR this$[rbp]
  006ce	83 b8 d8 00 00
	00 00		 cmp	 DWORD PTR [rax+216], 0
  006d5	75 22		 jne	 SHORT $LN32@OverlapPro

; 424  : 					model->Setup_Animation((_uint)CLIP::RUNR, CAnimation::TYPE::LOOP, true);

  006d7	41 b1 01	 mov	 r9b, 1
  006da	41 b8 01 00 00
	00		 mov	 r8d, 1
  006e0	ba 13 00 00 00	 mov	 edx, 19
  006e5	48 8b 85 c0 06
	00 00		 mov	 rax, QWORD PTR this$[rbp]
  006ec	48 8b 88 a0 00
	00 00		 mov	 rcx, QWORD PTR [rax+160]
  006f3	ff 15 00 00 00
	00		 call	 QWORD PTR __imp_?Setup_Animation@CModel@Engine@@QEAAJIW4TYPE@CAnimation@2@_N@Z
$LN32@OverlapPro:

; 425  : 				if (m_eType == TYPE::ANIMAL)

  006f9	48 8b 85 c0 06
	00 00		 mov	 rax, QWORD PTR this$[rbp]
  00700	83 b8 d8 00 00
	00 01		 cmp	 DWORD PTR [rax+216], 1
  00707	75 22		 jne	 SHORT $LN33@OverlapPro

; 426  : 					model->Setup_Animation((_uint)CLIP_TWO::WALKR, CAnimation::TYPE::LOOP, true);

  00709	41 b1 01	 mov	 r9b, 1
  0070c	41 b8 01 00 00
	00		 mov	 r8d, 1
  00712	ba 16 00 00 00	 mov	 edx, 22
  00717	48 8b 85 c0 06
	00 00		 mov	 rax, QWORD PTR this$[rbp]
  0071e	48 8b 88 a0 00
	00 00		 mov	 rcx, QWORD PTR [rax+160]
  00725	ff 15 00 00 00
	00		 call	 QWORD PTR __imp_?Setup_Animation@CModel@Engine@@QEAAJIW4TYPE@CAnimation@2@_N@Z
$LN33@OverlapPro:

; 427  : 			}
; 428  : 			else

  0072b	e9 8f 00 00 00	 jmp	 $LN31@OverlapPro
$LN30@OverlapPro:

; 429  : 			{
; 430  : 				transform->Set_State(CTransform::STATE_POSITION, vPos);

  00730	0f 28 45 10	 movaps	 xmm0, XMMWORD PTR vPos$[rbp]
  00734	0f 29 85 80 06
	00 00		 movaps	 XMMWORD PTR $T19[rbp], xmm0
  0073b	4c 8d 85 80 06
	00 00		 lea	 r8, QWORD PTR $T19[rbp]
  00742	ba 03 00 00 00	 mov	 edx, 3
  00747	48 8b 85 c0 06
	00 00		 mov	 rax, QWORD PTR this$[rbp]
  0074e	48 8b 88 98 00
	00 00		 mov	 rcx, QWORD PTR [rax+152]
  00755	ff 15 00 00 00
	00		 call	 QWORD PTR __imp_?Set_State@CTransform@Engine@@QEAAXW4STATE@12@T__m128@@@Z

; 431  : 
; 432  : 				if (m_eType == TYPE::HUMANOID)

  0075b	48 8b 85 c0 06
	00 00		 mov	 rax, QWORD PTR this$[rbp]
  00762	83 b8 d8 00 00
	00 00		 cmp	 DWORD PTR [rax+216], 0
  00769	75 22		 jne	 SHORT $LN34@OverlapPro

; 433  : 					model->Setup_Animation((_uint)CLIP::RUNL, CAnimation::TYPE::LOOP, true);

  0076b	41 b1 01	 mov	 r9b, 1
  0076e	41 b8 01 00 00
	00		 mov	 r8d, 1
  00774	ba 12 00 00 00	 mov	 edx, 18
  00779	48 8b 85 c0 06
	00 00		 mov	 rax, QWORD PTR this$[rbp]
  00780	48 8b 88 a0 00
	00 00		 mov	 rcx, QWORD PTR [rax+160]
  00787	ff 15 00 00 00
	00		 call	 QWORD PTR __imp_?Setup_Animation@CModel@Engine@@QEAAJIW4TYPE@CAnimation@2@_N@Z
$LN34@OverlapPro:

; 434  : 				if (m_eType == TYPE::ANIMAL)

  0078d	48 8b 85 c0 06
	00 00		 mov	 rax, QWORD PTR this$[rbp]
  00794	83 b8 d8 00 00
	00 01		 cmp	 DWORD PTR [rax+216], 1
  0079b	75 22		 jne	 SHORT $LN35@OverlapPro

; 435  : 					model->Setup_Animation((_uint)CLIP_TWO::WALKL, CAnimation::TYPE::LOOP, true);

  0079d	41 b1 01	 mov	 r9b, 1
  007a0	41 b8 01 00 00
	00		 mov	 r8d, 1
  007a6	ba 15 00 00 00	 mov	 edx, 21
  007ab	48 8b 85 c0 06
	00 00		 mov	 rax, QWORD PTR this$[rbp]
  007b2	48 8b 88 a0 00
	00 00		 mov	 rcx, QWORD PTR [rax+160]
  007b9	ff 15 00 00 00
	00		 call	 QWORD PTR __imp_?Setup_Animation@CModel@Engine@@QEAAJIW4TYPE@CAnimation@2@_N@Z
$LN35@OverlapPro:
$LN31@OverlapPro:
$LN27@OverlapPro:
$LN23@OverlapPro:

; 436  : 			}
; 437  : 		}
; 438  : 
; 439  : 		m_OverlapAcc += TimeDelta;

  007bf	48 8b 85 c0 06
	00 00		 mov	 rax, QWORD PTR this$[rbp]
  007c6	f2 0f 10 80 70
	01 00 00	 movsd	 xmm0, QWORD PTR [rax+368]
  007ce	f2 0f 58 85 c8
	06 00 00	 addsd	 xmm0, QWORD PTR TimeDelta$[rbp]
  007d6	48 8b 85 c0 06
	00 00		 mov	 rax, QWORD PTR this$[rbp]
  007dd	f2 0f 11 80 70
	01 00 00	 movsd	 QWORD PTR [rax+368], xmm0
$LN5@OverlapPro:

; 440  : 	}
; 441  : }

  007e5	48 8d a5 a8 06
	00 00		 lea	 rsp, QWORD PTR [rbp+1704]
  007ec	5f		 pop	 rdi
  007ed	5d		 pop	 rbp
  007ee	c3		 ret	 0
?OverlapProcess@CEnemy@Client@@AEAAXN@Z ENDP		; Client::CEnemy::OverlapProcess
_TEXT	ENDS
; Function compile flags: /Odtp /RTCsu /ZI
; File c:\github\framework\client\private\enemy.cpp
;	COMDAT ?SetupShaderResources@CEnemy@Client@@AEAAJXZ
_TEXT	SEGMENT
pInstance$ = 8
LightDesc$ = 40
$T1 = 260
$T2 = 356
$T3 = 452
this$ = 528
?SetupShaderResources@CEnemy@Client@@AEAAJXZ PROC	; Client::CEnemy::SetupShaderResources, COMDAT

; 281  : {

$LN15:
  00000	48 89 4c 24 08	 mov	 QWORD PTR [rsp+8], rcx
  00005	55		 push	 rbp
  00006	57		 push	 rdi
  00007	48 81 ec 18 02
	00 00		 sub	 rsp, 536		; 00000218H
  0000e	48 8d 6c 24 20	 lea	 rbp, QWORD PTR [rsp+32]
  00013	48 8b fc	 mov	 rdi, rsp
  00016	b9 86 00 00 00	 mov	 ecx, 134		; 00000086H
  0001b	b8 cc cc cc cc	 mov	 eax, -858993460		; ccccccccH
  00020	f3 ab		 rep stosd
  00022	48 8b 8c 24 38
	02 00 00	 mov	 rcx, QWORD PTR [rsp+568]

; 282  : 	if (nullptr == shader)

  0002a	48 8b 85 10 02
	00 00		 mov	 rax, QWORD PTR this$[rbp]
  00031	48 83 b8 a8 00
	00 00 00	 cmp	 QWORD PTR [rax+168], 0
  00039	75 0a		 jne	 SHORT $LN2@SetupShade

; 283  : 		return E_FAIL;

  0003b	b8 05 40 00 80	 mov	 eax, -2147467259	; ffffffff80004005H
  00040	e9 69 02 00 00	 jmp	 $LN1@SetupShade
$LN2@SetupShade:

; 284  : 
; 285  : 	CGameInstance* pInstance = CGameInstance::GetInstance();

  00045	ff 15 00 00 00
	00		 call	 QWORD PTR __imp_?GetInstance@CGameInstance@Engine@@SAPEAV12@XZ
  0004b	48 89 45 08	 mov	 QWORD PTR pInstance$[rbp], rax

; 286  : 
; 287  : 	if (pInstance->Input_KeyState_Custom(DIK_PGUP) == KEY_STATE::TAP)

  0004f	ba c9 00 00 00	 mov	 edx, 201		; 000000c9H
  00054	48 8b 4d 08	 mov	 rcx, QWORD PTR pInstance$[rbp]
  00058	ff 15 00 00 00
	00		 call	 QWORD PTR __imp_?Input_KeyState_Custom@CGameInstance@Engine@@QEAA?AW4KEY_STATE@2@H@Z
  0005e	83 f8 01	 cmp	 eax, 1
  00061	75 1c		 jne	 SHORT $LN3@SetupShade

; 288  : 		animation++;

  00063	48 8b 85 10 02
	00 00		 mov	 rax, QWORD PTR this$[rbp]
  0006a	8b 80 28 01 00
	00		 mov	 eax, DWORD PTR [rax+296]
  00070	ff c0		 inc	 eax
  00072	48 8b 8d 10 02
	00 00		 mov	 rcx, QWORD PTR this$[rbp]
  00079	89 81 28 01 00
	00		 mov	 DWORD PTR [rcx+296], eax
$LN3@SetupShade:

; 289  : 
; 290  : 	if (pInstance->Input_KeyState_Custom(DIK_PGDN) == KEY_STATE::TAP)

  0007f	ba d1 00 00 00	 mov	 edx, 209		; 000000d1H
  00084	48 8b 4d 08	 mov	 rcx, QWORD PTR pInstance$[rbp]
  00088	ff 15 00 00 00
	00		 call	 QWORD PTR __imp_?Input_KeyState_Custom@CGameInstance@Engine@@QEAA?AW4KEY_STATE@2@H@Z
  0008e	83 f8 01	 cmp	 eax, 1
  00091	75 1c		 jne	 SHORT $LN4@SetupShade

; 291  : 		animation--;

  00093	48 8b 85 10 02
	00 00		 mov	 rax, QWORD PTR this$[rbp]
  0009a	8b 80 28 01 00
	00		 mov	 eax, DWORD PTR [rax+296]
  000a0	ff c8		 dec	 eax
  000a2	48 8b 8d 10 02
	00 00		 mov	 rcx, QWORD PTR this$[rbp]
  000a9	89 81 28 01 00
	00		 mov	 DWORD PTR [rcx+296], eax
$LN4@SetupShade:

; 292  : 
; 293  : 	if (FAILED(transform->Setup_ShaderResource(shader, "g_WorldMatrix")))

  000af	4c 8d 05 00 00
	00 00		 lea	 r8, OFFSET FLAT:??_C@_0O@PFNLPMLD@g_WorldMatrix?$AA@
  000b6	48 8b 85 10 02
	00 00		 mov	 rax, QWORD PTR this$[rbp]
  000bd	48 8b 90 a8 00
	00 00		 mov	 rdx, QWORD PTR [rax+168]
  000c4	48 8b 85 10 02
	00 00		 mov	 rax, QWORD PTR this$[rbp]
  000cb	48 8b 88 98 00
	00 00		 mov	 rcx, QWORD PTR [rax+152]
  000d2	ff 15 00 00 00
	00		 call	 QWORD PTR __imp_?Setup_ShaderResource@CTransform@Engine@@QEAAJPEAVCShader@2@PEBD@Z
  000d8	85 c0		 test	 eax, eax
  000da	7d 0a		 jge	 SHORT $LN5@SetupShade

; 294  : 		return E_FAIL;

  000dc	b8 05 40 00 80	 mov	 eax, -2147467259	; ffffffff80004005H
  000e1	e9 c8 01 00 00	 jmp	 $LN1@SetupShade
$LN5@SetupShade:

; 295  : 
; 296  : 	if (FAILED(shader->SetMatrix("g_ViewMatrix", &pInstance->Get_Transform_float4x4(CPipeLine::TS_VIEW))))

  000e6	45 33 c0	 xor	 r8d, r8d
  000e9	48 8d 95 04 01
	00 00		 lea	 rdx, QWORD PTR $T1[rbp]
  000f0	48 8b 4d 08	 mov	 rcx, QWORD PTR pInstance$[rbp]
  000f4	ff 15 00 00 00
	00		 call	 QWORD PTR __imp_?Get_Transform_float4x4@CGameInstance@Engine@@QEAA?AUXMFLOAT4X4@DirectX@@W4TRANSFORM_STATE@CPipeLine@2@@Z
  000fa	4c 8b c0	 mov	 r8, rax
  000fd	48 8d 15 00 00
	00 00		 lea	 rdx, OFFSET FLAT:??_C@_0N@ELIMCBLG@g_ViewMatrix?$AA@
  00104	48 8b 85 10 02
	00 00		 mov	 rax, QWORD PTR this$[rbp]
  0010b	48 8b 88 a8 00
	00 00		 mov	 rcx, QWORD PTR [rax+168]
  00112	ff 15 00 00 00
	00		 call	 QWORD PTR __imp_?SetMatrix@CShader@Engine@@QEAAJPEBDPEBUXMFLOAT4X4@DirectX@@@Z
  00118	85 c0		 test	 eax, eax
  0011a	7d 0a		 jge	 SHORT $LN6@SetupShade

; 297  : 		return E_FAIL;

  0011c	b8 05 40 00 80	 mov	 eax, -2147467259	; ffffffff80004005H
  00121	e9 88 01 00 00	 jmp	 $LN1@SetupShade
$LN6@SetupShade:

; 298  : 
; 299  : 	if (FAILED(shader->SetMatrix("g_ProjMatrix", &pInstance->Get_Transform_float4x4(CPipeLine::TS_PROJ))))

  00126	41 b8 01 00 00
	00		 mov	 r8d, 1
  0012c	48 8d 95 64 01
	00 00		 lea	 rdx, QWORD PTR $T2[rbp]
  00133	48 8b 4d 08	 mov	 rcx, QWORD PTR pInstance$[rbp]
  00137	ff 15 00 00 00
	00		 call	 QWORD PTR __imp_?Get_Transform_float4x4@CGameInstance@Engine@@QEAA?AUXMFLOAT4X4@DirectX@@W4TRANSFORM_STATE@CPipeLine@2@@Z
  0013d	4c 8b c0	 mov	 r8, rax
  00140	48 8d 15 00 00
	00 00		 lea	 rdx, OFFSET FLAT:??_C@_0N@OOHDPIO@g_ProjMatrix?$AA@
  00147	48 8b 85 10 02
	00 00		 mov	 rax, QWORD PTR this$[rbp]
  0014e	48 8b 88 a8 00
	00 00		 mov	 rcx, QWORD PTR [rax+168]
  00155	ff 15 00 00 00
	00		 call	 QWORD PTR __imp_?SetMatrix@CShader@Engine@@QEAAJPEBDPEBUXMFLOAT4X4@DirectX@@@Z
  0015b	85 c0		 test	 eax, eax
  0015d	7d 0a		 jge	 SHORT $LN7@SetupShade

; 300  : 		return E_FAIL;

  0015f	b8 05 40 00 80	 mov	 eax, -2147467259	; ffffffff80004005H
  00164	e9 45 01 00 00	 jmp	 $LN1@SetupShade
$LN7@SetupShade:

; 301  : 
; 302  : 	if (FAILED(shader->SetRawValue("g_vCamPosition", &pInstance->Get_CamPosition(), sizeof(_float3))))

  00169	48 8d 95 c4 01
	00 00		 lea	 rdx, QWORD PTR $T3[rbp]
  00170	48 8b 4d 08	 mov	 rcx, QWORD PTR pInstance$[rbp]
  00174	ff 15 00 00 00
	00		 call	 QWORD PTR __imp_?Get_CamPosition@CGameInstance@Engine@@QEAA?AUXMFLOAT4@DirectX@@XZ
  0017a	41 b9 0c 00 00
	00		 mov	 r9d, 12
  00180	4c 8b c0	 mov	 r8, rax
  00183	48 8d 15 00 00
	00 00		 lea	 rdx, OFFSET FLAT:??_C@_0P@BDEIJKBM@g_vCamPosition?$AA@
  0018a	48 8b 85 10 02
	00 00		 mov	 rax, QWORD PTR this$[rbp]
  00191	48 8b 88 a8 00
	00 00		 mov	 rcx, QWORD PTR [rax+168]
  00198	ff 15 00 00 00
	00		 call	 QWORD PTR __imp_?SetRawValue@CShader@Engine@@QEAAJPEBDPEBXI@Z
  0019e	85 c0		 test	 eax, eax
  001a0	7d 0a		 jge	 SHORT $LN8@SetupShade

; 303  : 		return E_FAIL;

  001a2	b8 05 40 00 80	 mov	 eax, -2147467259	; ffffffff80004005H
  001a7	e9 02 01 00 00	 jmp	 $LN1@SetupShade
$LN8@SetupShade:

; 304  : 
; 305  : 	const LIGHT_DESC* LightDesc = pInstance->GetLightDesc(0);

  001ac	33 d2		 xor	 edx, edx
  001ae	48 8b 4d 08	 mov	 rcx, QWORD PTR pInstance$[rbp]
  001b2	ff 15 00 00 00
	00		 call	 QWORD PTR __imp_?GetLightDesc@CGameInstance@Engine@@QEAAPEBUtagLight_Desc@2@I@Z
  001b8	48 89 45 28	 mov	 QWORD PTR LightDesc$[rbp], rax

; 306  : 	if (nullptr == LightDesc)

  001bc	48 83 7d 28 00	 cmp	 QWORD PTR LightDesc$[rbp], 0
  001c1	75 0a		 jne	 SHORT $LN9@SetupShade

; 307  : 		return E_FAIL;

  001c3	b8 05 40 00 80	 mov	 eax, -2147467259	; ffffffff80004005H
  001c8	e9 e1 00 00 00	 jmp	 $LN1@SetupShade
$LN9@SetupShade:

; 308  : 
; 309  : 	if (FAILED(shader->SetRawValue("g_vLightDir", &LightDesc->vDirection, sizeof(_float4))))

  001cd	48 8b 45 28	 mov	 rax, QWORD PTR LightDesc$[rbp]
  001d1	48 83 c0 04	 add	 rax, 4
  001d5	41 b9 10 00 00
	00		 mov	 r9d, 16
  001db	4c 8b c0	 mov	 r8, rax
  001de	48 8d 15 00 00
	00 00		 lea	 rdx, OFFSET FLAT:??_C@_0M@NHGOLGEL@g_vLightDir?$AA@
  001e5	48 8b 85 10 02
	00 00		 mov	 rax, QWORD PTR this$[rbp]
  001ec	48 8b 88 a8 00
	00 00		 mov	 rcx, QWORD PTR [rax+168]
  001f3	ff 15 00 00 00
	00		 call	 QWORD PTR __imp_?SetRawValue@CShader@Engine@@QEAAJPEBDPEBXI@Z
  001f9	85 c0		 test	 eax, eax
  001fb	7d 0a		 jge	 SHORT $LN10@SetupShade

; 310  : 		return E_FAIL;

  001fd	b8 05 40 00 80	 mov	 eax, -2147467259	; ffffffff80004005H
  00202	e9 a7 00 00 00	 jmp	 $LN1@SetupShade
$LN10@SetupShade:

; 311  : 	if (FAILED(shader->SetRawValue("g_vLightDiffuse", &LightDesc->vDiffuse, sizeof(_float4))))

  00207	48 8b 45 28	 mov	 rax, QWORD PTR LightDesc$[rbp]
  0020b	48 83 c0 28	 add	 rax, 40			; 00000028H
  0020f	41 b9 10 00 00
	00		 mov	 r9d, 16
  00215	4c 8b c0	 mov	 r8, rax
  00218	48 8d 15 00 00
	00 00		 lea	 rdx, OFFSET FLAT:??_C@_0BA@PCOGIHOF@g_vLightDiffuse?$AA@
  0021f	48 8b 85 10 02
	00 00		 mov	 rax, QWORD PTR this$[rbp]
  00226	48 8b 88 a8 00
	00 00		 mov	 rcx, QWORD PTR [rax+168]
  0022d	ff 15 00 00 00
	00		 call	 QWORD PTR __imp_?SetRawValue@CShader@Engine@@QEAAJPEBDPEBXI@Z
  00233	85 c0		 test	 eax, eax
  00235	7d 07		 jge	 SHORT $LN11@SetupShade

; 312  : 		return E_FAIL;

  00237	b8 05 40 00 80	 mov	 eax, -2147467259	; ffffffff80004005H
  0023c	eb 70		 jmp	 SHORT $LN1@SetupShade
$LN11@SetupShade:

; 313  : 	if (FAILED(shader->SetRawValue("g_vLightSpecular", &LightDesc->vSpecular, sizeof(_float4))))

  0023e	48 8b 45 28	 mov	 rax, QWORD PTR LightDesc$[rbp]
  00242	48 83 c0 48	 add	 rax, 72			; 00000048H
  00246	41 b9 10 00 00
	00		 mov	 r9d, 16
  0024c	4c 8b c0	 mov	 r8, rax
  0024f	48 8d 15 00 00
	00 00		 lea	 rdx, OFFSET FLAT:??_C@_0BB@IJIIKIH@g_vLightSpecular?$AA@
  00256	48 8b 85 10 02
	00 00		 mov	 rax, QWORD PTR this$[rbp]
  0025d	48 8b 88 a8 00
	00 00		 mov	 rcx, QWORD PTR [rax+168]
  00264	ff 15 00 00 00
	00		 call	 QWORD PTR __imp_?SetRawValue@CShader@Engine@@QEAAJPEBDPEBXI@Z
  0026a	85 c0		 test	 eax, eax
  0026c	7d 07		 jge	 SHORT $LN12@SetupShade

; 314  : 		return E_FAIL;

  0026e	b8 05 40 00 80	 mov	 eax, -2147467259	; ffffffff80004005H
  00273	eb 39		 jmp	 SHORT $LN1@SetupShade
$LN12@SetupShade:

; 315  : 	if (FAILED(shader->SetRawValue("g_vLightAmbient", &LightDesc->vAmbient, sizeof(_float4))))

  00275	48 8b 45 28	 mov	 rax, QWORD PTR LightDesc$[rbp]
  00279	48 83 c0 38	 add	 rax, 56			; 00000038H
  0027d	41 b9 10 00 00
	00		 mov	 r9d, 16
  00283	4c 8b c0	 mov	 r8, rax
  00286	48 8d 15 00 00
	00 00		 lea	 rdx, OFFSET FLAT:??_C@_0BA@EALGDMPJ@g_vLightAmbient?$AA@
  0028d	48 8b 85 10 02
	00 00		 mov	 rax, QWORD PTR this$[rbp]
  00294	48 8b 88 a8 00
	00 00		 mov	 rcx, QWORD PTR [rax+168]
  0029b	ff 15 00 00 00
	00		 call	 QWORD PTR __imp_?SetRawValue@CShader@Engine@@QEAAJPEBDPEBXI@Z
  002a1	85 c0		 test	 eax, eax
  002a3	7d 07		 jge	 SHORT $LN13@SetupShade

; 316  : 		return E_FAIL;

  002a5	b8 05 40 00 80	 mov	 eax, -2147467259	; ffffffff80004005H
  002aa	eb 02		 jmp	 SHORT $LN1@SetupShade
$LN13@SetupShade:

; 317  : 
; 318  : 	return S_OK;

  002ac	33 c0		 xor	 eax, eax
$LN1@SetupShade:

; 319  : }

  002ae	48 8d a5 f8 01
	00 00		 lea	 rsp, QWORD PTR [rbp+504]
  002b5	5f		 pop	 rdi
  002b6	5d		 pop	 rbp
  002b7	c3		 ret	 0
?SetupShaderResources@CEnemy@Client@@AEAAJXZ ENDP	; Client::CEnemy::SetupShaderResources
_TEXT	ENDS
; Function compile flags: /Odtp /RTCsu /ZI
; File c:\github\framework\client\private\enemy.cpp
;	COMDAT ?AddComponents@CEnemy@Client@@AEAAJXZ
_TEXT	SEGMENT
TransformDesc$ = 8
collDesc$ = 40
$T5 = 308
$T6 = 340
$T7 = 372
$T8 = 404
$T9 = 436
$T10 = 468
$T11 = 500
$T12 = 532
$T13 = 564
__$ArrayPad$ = 584
this$ = 624
?AddComponents@CEnemy@Client@@AEAAJXZ PROC		; Client::CEnemy::AddComponents, COMDAT

; 225  : {

$LN10:
  00000	48 89 4c 24 08	 mov	 QWORD PTR [rsp+8], rcx
  00005	55		 push	 rbp
  00006	57		 push	 rdi
  00007	48 81 ec 88 02
	00 00		 sub	 rsp, 648		; 00000288H
  0000e	48 8d 6c 24 30	 lea	 rbp, QWORD PTR [rsp+48]
  00013	48 8b fc	 mov	 rdi, rsp
  00016	b9 a2 00 00 00	 mov	 ecx, 162		; 000000a2H
  0001b	b8 cc cc cc cc	 mov	 eax, -858993460		; ccccccccH
  00020	f3 ab		 rep stosd
  00022	48 8b 8c 24 a8
	02 00 00	 mov	 rcx, QWORD PTR [rsp+680]
  0002a	48 8b 05 00 00
	00 00		 mov	 rax, QWORD PTR __security_cookie
  00031	48 33 c5	 xor	 rax, rbp
  00034	48 89 85 48 02
	00 00		 mov	 QWORD PTR __$ArrayPad$[rbp], rax

; 226  : 	if (FAILED(CGameObject::Add_Component(LEVEL_STATIC, TEXT("proto_com_renderer"), TEXT("com_renderer"), (CComponent**)&renderer)))

  0003b	48 8b 85 70 02
	00 00		 mov	 rax, QWORD PTR this$[rbp]
  00042	48 05 90 00 00
	00		 add	 rax, 144		; 00000090H
  00048	48 c7 44 24 28
	00 00 00 00	 mov	 QWORD PTR [rsp+40], 0
  00051	48 89 44 24 20	 mov	 QWORD PTR [rsp+32], rax
  00056	4c 8d 0d 00 00
	00 00		 lea	 r9, OFFSET FLAT:??_C@_1BK@GIOMOCNE@?$AAc?$AAo?$AAm?$AA_?$AAr?$AAe?$AAn?$AAd?$AAe?$AAr?$AAe?$AAr?$AA?$AA@
  0005d	4c 8d 05 00 00
	00 00		 lea	 r8, OFFSET FLAT:??_C@_1CG@COFFFCLL@?$AAp?$AAr?$AAo?$AAt?$AAo?$AA_?$AAc?$AAo?$AAm?$AA_?$AAr?$AAe?$AAn?$AAd?$AAe?$AAr?$AAe?$AAr?$AA?$AA@
  00064	33 d2		 xor	 edx, edx
  00066	48 8b 8d 70 02
	00 00		 mov	 rcx, QWORD PTR this$[rbp]
  0006d	ff 15 00 00 00
	00		 call	 QWORD PTR __imp_?Add_Component@CGameObject@Engine@@IEAAJIPEB_W0PEAPEAVCComponent@2@PEAX@Z
  00073	85 c0		 test	 eax, eax
  00075	7d 0a		 jge	 SHORT $LN2@AddCompone

; 227  : 		return E_FAIL;

  00077	b8 05 40 00 80	 mov	 eax, -2147467259	; ffffffff80004005H
  0007c	e9 dd 03 00 00	 jmp	 $LN1@AddCompone
$LN2@AddCompone:

; 228  : 
; 229  : 	CTransform::TRANSFORM_DESC TransformDesc;
; 230  : 	ZeroMemory(&TransformDesc, sizeof(CTransform::TRANSFORM_DESC));

  00081	41 b8 08 00 00
	00		 mov	 r8d, 8
  00087	33 d2		 xor	 edx, edx
  00089	48 8d 4d 08	 lea	 rcx, QWORD PTR TransformDesc$[rbp]
  0008d	e8 00 00 00 00	 call	 memset

; 231  : 
; 232  : 	TransformDesc.fMoveSpeed = 1.5f;

  00092	f3 0f 10 05 00
	00 00 00	 movss	 xmm0, DWORD PTR __real@3fc00000
  0009a	f3 0f 11 45 08	 movss	 DWORD PTR TransformDesc$[rbp], xmm0

; 233  : 	TransformDesc.fRotationSpeed = 5.f;

  0009f	f3 0f 10 05 00
	00 00 00	 movss	 xmm0, DWORD PTR __real@40a00000
  000a7	f3 0f 11 45 0c	 movss	 DWORD PTR TransformDesc$[rbp+4], xmm0

; 234  : 
; 235  : 	if (FAILED(CGameObject::Add_Component(LEVEL_STATIC, TEXT("proto_com_transform"), TEXT("com_transform"), (CComponent**)&transform, &TransformDesc)))

  000ac	48 8b 85 70 02
	00 00		 mov	 rax, QWORD PTR this$[rbp]
  000b3	48 05 98 00 00
	00		 add	 rax, 152		; 00000098H
  000b9	48 8d 4d 08	 lea	 rcx, QWORD PTR TransformDesc$[rbp]
  000bd	48 89 4c 24 28	 mov	 QWORD PTR [rsp+40], rcx
  000c2	48 89 44 24 20	 mov	 QWORD PTR [rsp+32], rax
  000c7	4c 8d 0d 00 00
	00 00		 lea	 r9, OFFSET FLAT:??_C@_1BM@CJMPMHDD@?$AAc?$AAo?$AAm?$AA_?$AAt?$AAr?$AAa?$AAn?$AAs?$AAf?$AAo?$AAr?$AAm?$AA?$AA@
  000ce	4c 8d 05 00 00
	00 00		 lea	 r8, OFFSET FLAT:??_C@_1CI@MLEFGO@?$AAp?$AAr?$AAo?$AAt?$AAo?$AA_?$AAc?$AAo?$AAm?$AA_?$AAt?$AAr?$AAa?$AAn?$AAs?$AAf?$AAo?$AAr?$AAm?$AA?$AA@
  000d5	33 d2		 xor	 edx, edx
  000d7	48 8b 8d 70 02
	00 00		 mov	 rcx, QWORD PTR this$[rbp]
  000de	ff 15 00 00 00
	00		 call	 QWORD PTR __imp_?Add_Component@CGameObject@Engine@@IEAAJIPEB_W0PEAPEAVCComponent@2@PEAX@Z
  000e4	85 c0		 test	 eax, eax
  000e6	7d 0a		 jge	 SHORT $LN3@AddCompone

; 236  : 		return E_FAIL;

  000e8	b8 05 40 00 80	 mov	 eax, -2147467259	; ffffffff80004005H
  000ed	e9 6c 03 00 00	 jmp	 $LN1@AddCompone
$LN3@AddCompone:

; 237  : 
; 238  : 	if (FAILED(CGameObject::Add_Component(LEVEL_GAMEPLAY, TEXT("proto_com_shader_vtxanimmodel"), TEXT("com_shader"), (CComponent**)&shader)))

  000f2	48 8b 85 70 02
	00 00		 mov	 rax, QWORD PTR this$[rbp]
  000f9	48 05 a8 00 00
	00		 add	 rax, 168		; 000000a8H
  000ff	48 c7 44 24 28
	00 00 00 00	 mov	 QWORD PTR [rsp+40], 0
  00108	48 89 44 24 20	 mov	 QWORD PTR [rsp+32], rax
  0010d	4c 8d 0d 00 00
	00 00		 lea	 r9, OFFSET FLAT:??_C@_1BG@GGOMMBBL@?$AAc?$AAo?$AAm?$AA_?$AAs?$AAh?$AAa?$AAd?$AAe?$AAr?$AA?$AA@
  00114	4c 8d 05 00 00
	00 00		 lea	 r8, OFFSET FLAT:??_C@_1DM@OGMOEMJ@?$AAp?$AAr?$AAo?$AAt?$AAo?$AA_?$AAc?$AAo?$AAm?$AA_?$AAs?$AAh?$AAa?$AAd?$AAe?$AAr?$AA_?$AAv?$AAt?$AAx?$AAa?$AAn?$AAi?$AAm?$AAm?$AAo?$AAd?$AAe?$AAl?$AA?$AA@
  0011b	ba 03 00 00 00	 mov	 edx, 3
  00120	48 8b 8d 70 02
	00 00		 mov	 rcx, QWORD PTR this$[rbp]
  00127	ff 15 00 00 00
	00		 call	 QWORD PTR __imp_?Add_Component@CGameObject@Engine@@IEAAJIPEB_W0PEAPEAVCComponent@2@PEAX@Z
  0012d	85 c0		 test	 eax, eax
  0012f	7d 0a		 jge	 SHORT $LN4@AddCompone

; 239  : 		return E_FAIL;

  00131	b8 05 40 00 80	 mov	 eax, -2147467259	; ffffffff80004005H
  00136	e9 23 03 00 00	 jmp	 $LN1@AddCompone
$LN4@AddCompone:

; 240  : 
; 241  : 	if (m_eType == TYPE::HUMANOID)

  0013b	48 8b 85 70 02
	00 00		 mov	 rax, QWORD PTR this$[rbp]
  00142	83 b8 d8 00 00
	00 00		 cmp	 DWORD PTR [rax+216], 0
  00149	75 4b		 jne	 SHORT $LN5@AddCompone

; 242  : 	{
; 243  : 		if (FAILED(CGameObject::Add_Component(LEVEL_GAMEPLAY, TEXT("proto_com_model_enemy01"), TEXT("com_model"), (CComponent**)&model)))

  0014b	48 8b 85 70 02
	00 00		 mov	 rax, QWORD PTR this$[rbp]
  00152	48 05 a0 00 00
	00		 add	 rax, 160		; 000000a0H
  00158	48 c7 44 24 28
	00 00 00 00	 mov	 QWORD PTR [rsp+40], 0
  00161	48 89 44 24 20	 mov	 QWORD PTR [rsp+32], rax
  00166	4c 8d 0d 00 00
	00 00		 lea	 r9, OFFSET FLAT:??_C@_1BE@MLNOEPCA@?$AAc?$AAo?$AAm?$AA_?$AAm?$AAo?$AAd?$AAe?$AAl?$AA?$AA@
  0016d	4c 8d 05 00 00
	00 00		 lea	 r8, OFFSET FLAT:??_C@_1DA@JHHOCPPA@?$AAp?$AAr?$AAo?$AAt?$AAo?$AA_?$AAc?$AAo?$AAm?$AA_?$AAm?$AAo?$AAd?$AAe?$AAl?$AA_?$AAe?$AAn?$AAe?$AAm?$AAy?$AA0?$AA1?$AA?$AA@
  00174	ba 03 00 00 00	 mov	 edx, 3
  00179	48 8b 8d 70 02
	00 00		 mov	 rcx, QWORD PTR this$[rbp]
  00180	ff 15 00 00 00
	00		 call	 QWORD PTR __imp_?Add_Component@CGameObject@Engine@@IEAAJIPEB_W0PEAPEAVCComponent@2@PEAX@Z
  00186	85 c0		 test	 eax, eax
  00188	7d 0a		 jge	 SHORT $LN7@AddCompone

; 244  : 			return E_FAIL;

  0018a	b8 05 40 00 80	 mov	 eax, -2147467259	; ffffffff80004005H
  0018f	e9 ca 02 00 00	 jmp	 $LN1@AddCompone
$LN7@AddCompone:

; 245  : 	}
; 246  : 	else

  00194	eb 49		 jmp	 SHORT $LN6@AddCompone
$LN5@AddCompone:

; 247  : 	{
; 248  : 		if (FAILED(CGameObject::Add_Component(LEVEL_GAMEPLAY, TEXT("proto_com_model_enemy02"), TEXT("com_model"), (CComponent**)&model)))

  00196	48 8b 85 70 02
	00 00		 mov	 rax, QWORD PTR this$[rbp]
  0019d	48 05 a0 00 00
	00		 add	 rax, 160		; 000000a0H
  001a3	48 c7 44 24 28
	00 00 00 00	 mov	 QWORD PTR [rsp+40], 0
  001ac	48 89 44 24 20	 mov	 QWORD PTR [rsp+32], rax
  001b1	4c 8d 0d 00 00
	00 00		 lea	 r9, OFFSET FLAT:??_C@_1BE@MLNOEPCA@?$AAc?$AAo?$AAm?$AA_?$AAm?$AAo?$AAd?$AAe?$AAl?$AA?$AA@
  001b8	4c 8d 05 00 00
	00 00		 lea	 r8, OFFSET FLAT:??_C@_1DA@IFMLIABO@?$AAp?$AAr?$AAo?$AAt?$AAo?$AA_?$AAc?$AAo?$AAm?$AA_?$AAm?$AAo?$AAd?$AAe?$AAl?$AA_?$AAe?$AAn?$AAe?$AAm?$AAy?$AA0?$AA2?$AA?$AA@
  001bf	ba 03 00 00 00	 mov	 edx, 3
  001c4	48 8b 8d 70 02
	00 00		 mov	 rcx, QWORD PTR this$[rbp]
  001cb	ff 15 00 00 00
	00		 call	 QWORD PTR __imp_?Add_Component@CGameObject@Engine@@IEAAJIPEB_W0PEAPEAVCComponent@2@PEAX@Z
  001d1	85 c0		 test	 eax, eax
  001d3	7d 0a		 jge	 SHORT $LN8@AddCompone

; 249  : 			return E_FAIL;

  001d5	b8 05 40 00 80	 mov	 eax, -2147467259	; ffffffff80004005H
  001da	e9 7f 02 00 00	 jmp	 $LN1@AddCompone
$LN8@AddCompone:
$LN6@AddCompone:

; 250  : 	}
; 251  : 
; 252  : 	CCollider::COLLIDER_DESC collDesc;

  001df	48 8d 4d 28	 lea	 rcx, QWORD PTR collDesc$[rbp]
  001e3	e8 00 00 00 00	 call	 ??0tagColliderDesc@CCollider@Engine@@QEAA@XZ

; 253  : 	collDesc.owner = this;

  001e8	48 8b 85 70 02
	00 00		 mov	 rax, QWORD PTR this$[rbp]
  001ef	48 89 45 28	 mov	 QWORD PTR collDesc$[rbp], rax

; 254  : 	collDesc.vCenter = _float3(0.f, 1.f, 0.f);

  001f3	0f 57 db	 xorps	 xmm3, xmm3
  001f6	f3 0f 10 15 00
	00 00 00	 movss	 xmm2, DWORD PTR __real@3f800000
  001fe	0f 57 c9	 xorps	 xmm1, xmm1
  00201	48 8d 8d 34 01
	00 00		 lea	 rcx, QWORD PTR $T5[rbp]
  00208	e8 00 00 00 00	 call	 ??0XMFLOAT3@DirectX@@QEAA@MMM@Z ; DirectX::XMFLOAT3::XMFLOAT3
  0020d	48 8b d0	 mov	 rdx, rax
  00210	48 8d 4d 30	 lea	 rcx, QWORD PTR collDesc$[rbp+8]
  00214	e8 00 00 00 00	 call	 ??4XMFLOAT3@DirectX@@QEAAAEAU01@AEBU01@@Z ; DirectX::XMFLOAT3::operator=

; 255  : 	collDesc.vExtents = _float3(1.f, 2.f, 1.f);

  00219	f3 0f 10 1d 00
	00 00 00	 movss	 xmm3, DWORD PTR __real@3f800000
  00221	f3 0f 10 15 00
	00 00 00	 movss	 xmm2, DWORD PTR __real@40000000
  00229	f3 0f 10 0d 00
	00 00 00	 movss	 xmm1, DWORD PTR __real@3f800000
  00231	48 8d 8d 54 01
	00 00		 lea	 rcx, QWORD PTR $T6[rbp]
  00238	e8 00 00 00 00	 call	 ??0XMFLOAT3@DirectX@@QEAA@MMM@Z ; DirectX::XMFLOAT3::XMFLOAT3
  0023d	48 8b d0	 mov	 rdx, rax
  00240	48 8d 4d 3c	 lea	 rcx, QWORD PTR collDesc$[rbp+20]
  00244	e8 00 00 00 00	 call	 ??4XMFLOAT3@DirectX@@QEAAAEAU01@AEBU01@@Z ; DirectX::XMFLOAT3::operator=

; 256  : 	collDesc.vRotation = _float3(0.f, 0.f, 0.f);

  00249	0f 57 db	 xorps	 xmm3, xmm3
  0024c	0f 57 d2	 xorps	 xmm2, xmm2
  0024f	0f 57 c9	 xorps	 xmm1, xmm1
  00252	48 8d 8d 74 01
	00 00		 lea	 rcx, QWORD PTR $T7[rbp]
  00259	e8 00 00 00 00	 call	 ??0XMFLOAT3@DirectX@@QEAA@MMM@Z ; DirectX::XMFLOAT3::XMFLOAT3
  0025e	48 8b d0	 mov	 rdx, rax
  00261	48 8d 4d 48	 lea	 rcx, QWORD PTR collDesc$[rbp+32]
  00265	e8 00 00 00 00	 call	 ??4XMFLOAT3@DirectX@@QEAAAEAU01@AEBU01@@Z ; DirectX::XMFLOAT3::operator=

; 257  : 
; 258  : 	(CGameObject::Add_Component(LEVEL_GAMEPLAY, TEXT("proto_com_obb_collider"), TEXT("com_collider"), (CComponent**)&collider, &collDesc));

  0026a	48 8b 85 70 02
	00 00		 mov	 rax, QWORD PTR this$[rbp]
  00271	48 05 b0 00 00
	00		 add	 rax, 176		; 000000b0H
  00277	48 8d 4d 28	 lea	 rcx, QWORD PTR collDesc$[rbp]
  0027b	48 89 4c 24 28	 mov	 QWORD PTR [rsp+40], rcx
  00280	48 89 44 24 20	 mov	 QWORD PTR [rsp+32], rax
  00285	4c 8d 0d 00 00
	00 00		 lea	 r9, OFFSET FLAT:??_C@_1BK@BKCENIHA@?$AAc?$AAo?$AAm?$AA_?$AAc?$AAo?$AAl?$AAl?$AAi?$AAd?$AAe?$AAr?$AA?$AA@
  0028c	4c 8d 05 00 00
	00 00		 lea	 r8, OFFSET FLAT:??_C@_1CO@HJBGOIAH@?$AAp?$AAr?$AAo?$AAt?$AAo?$AA_?$AAc?$AAo?$AAm?$AA_?$AAo?$AAb?$AAb?$AA_?$AAc?$AAo?$AAl?$AAl?$AAi?$AAd?$AAe?$AAr?$AA?$AA@
  00293	ba 03 00 00 00	 mov	 edx, 3
  00298	48 8b 8d 70 02
	00 00		 mov	 rcx, QWORD PTR this$[rbp]
  0029f	ff 15 00 00 00
	00		 call	 QWORD PTR __imp_?Add_Component@CGameObject@Engine@@IEAAJIPEB_W0PEAPEAVCComponent@2@PEAX@Z

; 259  : 
; 260  : 	ZeroMemory(&collDesc, sizeof collDesc);

  002a5	41 b8 30 00 00
	00		 mov	 r8d, 48			; 00000030H
  002ab	33 d2		 xor	 edx, edx
  002ad	48 8d 4d 28	 lea	 rcx, QWORD PTR collDesc$[rbp]
  002b1	e8 00 00 00 00	 call	 memset

; 261  : 	collDesc.owner = this;

  002b6	48 8b 85 70 02
	00 00		 mov	 rax, QWORD PTR this$[rbp]
  002bd	48 89 45 28	 mov	 QWORD PTR collDesc$[rbp], rax

; 262  : 	collDesc.vCenter = _float3(0.f, 1.3f, 0.f);

  002c1	0f 57 db	 xorps	 xmm3, xmm3
  002c4	f3 0f 10 15 00
	00 00 00	 movss	 xmm2, DWORD PTR __real@3fa66666
  002cc	0f 57 c9	 xorps	 xmm1, xmm1
  002cf	48 8d 8d 94 01
	00 00		 lea	 rcx, QWORD PTR $T8[rbp]
  002d6	e8 00 00 00 00	 call	 ??0XMFLOAT3@DirectX@@QEAA@MMM@Z ; DirectX::XMFLOAT3::XMFLOAT3
  002db	48 8b d0	 mov	 rdx, rax
  002de	48 8d 4d 30	 lea	 rcx, QWORD PTR collDesc$[rbp+8]
  002e2	e8 00 00 00 00	 call	 ??4XMFLOAT3@DirectX@@QEAAAEAU01@AEBU01@@Z ; DirectX::XMFLOAT3::operator=

; 263  : 	collDesc.vExtents = _float3(1.1f, 1.1f, 1.1f);

  002e7	f3 0f 10 1d 00
	00 00 00	 movss	 xmm3, DWORD PTR __real@3f8ccccd
  002ef	f3 0f 10 15 00
	00 00 00	 movss	 xmm2, DWORD PTR __real@3f8ccccd
  002f7	f3 0f 10 0d 00
	00 00 00	 movss	 xmm1, DWORD PTR __real@3f8ccccd
  002ff	48 8d 8d b4 01
	00 00		 lea	 rcx, QWORD PTR $T9[rbp]
  00306	e8 00 00 00 00	 call	 ??0XMFLOAT3@DirectX@@QEAA@MMM@Z ; DirectX::XMFLOAT3::XMFLOAT3
  0030b	48 8b d0	 mov	 rdx, rax
  0030e	48 8d 4d 3c	 lea	 rcx, QWORD PTR collDesc$[rbp+20]
  00312	e8 00 00 00 00	 call	 ??4XMFLOAT3@DirectX@@QEAAAEAU01@AEBU01@@Z ; DirectX::XMFLOAT3::operator=

; 264  : 	collDesc.vRotation = _float3(0.f, 0.f, 0.f);

  00317	0f 57 db	 xorps	 xmm3, xmm3
  0031a	0f 57 d2	 xorps	 xmm2, xmm2
  0031d	0f 57 c9	 xorps	 xmm1, xmm1
  00320	48 8d 8d d4 01
	00 00		 lea	 rcx, QWORD PTR $T10[rbp]
  00327	e8 00 00 00 00	 call	 ??0XMFLOAT3@DirectX@@QEAA@MMM@Z ; DirectX::XMFLOAT3::XMFLOAT3
  0032c	48 8b d0	 mov	 rdx, rax
  0032f	48 8d 4d 48	 lea	 rcx, QWORD PTR collDesc$[rbp+32]
  00333	e8 00 00 00 00	 call	 ??4XMFLOAT3@DirectX@@QEAAAEAU01@AEBU01@@Z ; DirectX::XMFLOAT3::operator=

; 265  : 
; 266  : 	(CGameObject::Add_Component(LEVEL_GAMEPLAY, TEXT("proto_com_sphere_collider"), TEXT("com_collder_enemy"), (CComponent**)&m_pOverlapCollider, &collDesc));

  00338	48 8b 85 70 02
	00 00		 mov	 rax, QWORD PTR this$[rbp]
  0033f	48 05 b8 00 00
	00		 add	 rax, 184		; 000000b8H
  00345	48 8d 4d 28	 lea	 rcx, QWORD PTR collDesc$[rbp]
  00349	48 89 4c 24 28	 mov	 QWORD PTR [rsp+40], rcx
  0034e	48 89 44 24 20	 mov	 QWORD PTR [rsp+32], rax
  00353	4c 8d 0d 00 00
	00 00		 lea	 r9, OFFSET FLAT:??_C@_1CE@JKMOMFCH@?$AAc?$AAo?$AAm?$AA_?$AAc?$AAo?$AAl?$AAl?$AAd?$AAe?$AAr?$AA_?$AAe?$AAn?$AAe?$AAm?$AAy?$AA?$AA@
  0035a	4c 8d 05 00 00
	00 00		 lea	 r8, OFFSET FLAT:??_C@_1DE@OCAJEKIC@?$AAp?$AAr?$AAo?$AAt?$AAo?$AA_?$AAc?$AAo?$AAm?$AA_?$AAs?$AAp?$AAh?$AAe?$AAr?$AAe?$AA_?$AAc?$AAo?$AAl?$AAl?$AAi?$AAd?$AAe?$AAr?$AA?$AA@
  00361	ba 03 00 00 00	 mov	 edx, 3
  00366	48 8b 8d 70 02
	00 00		 mov	 rcx, QWORD PTR this$[rbp]
  0036d	ff 15 00 00 00
	00		 call	 QWORD PTR __imp_?Add_Component@CGameObject@Engine@@IEAAJIPEB_W0PEAPEAVCComponent@2@PEAX@Z

; 267  : 
; 268  : 	ZeroMemory(&collDesc, sizeof collDesc);

  00373	41 b8 30 00 00
	00		 mov	 r8d, 48			; 00000030H
  00379	33 d2		 xor	 edx, edx
  0037b	48 8d 4d 28	 lea	 rcx, QWORD PTR collDesc$[rbp]
  0037f	e8 00 00 00 00	 call	 memset

; 269  : 	collDesc.owner = this;

  00384	48 8b 85 70 02
	00 00		 mov	 rax, QWORD PTR this$[rbp]
  0038b	48 89 45 28	 mov	 QWORD PTR collDesc$[rbp], rax

; 270  : 	collDesc.vExtents = _float3(1.7f, 1.7f, 1.7f);

  0038f	f3 0f 10 1d 00
	00 00 00	 movss	 xmm3, DWORD PTR __real@3fd9999a
  00397	f3 0f 10 15 00
	00 00 00	 movss	 xmm2, DWORD PTR __real@3fd9999a
  0039f	f3 0f 10 0d 00
	00 00 00	 movss	 xmm1, DWORD PTR __real@3fd9999a
  003a7	48 8d 8d f4 01
	00 00		 lea	 rcx, QWORD PTR $T11[rbp]
  003ae	e8 00 00 00 00	 call	 ??0XMFLOAT3@DirectX@@QEAA@MMM@Z ; DirectX::XMFLOAT3::XMFLOAT3
  003b3	48 8b d0	 mov	 rdx, rax
  003b6	48 8d 4d 3c	 lea	 rcx, QWORD PTR collDesc$[rbp+20]
  003ba	e8 00 00 00 00	 call	 ??4XMFLOAT3@DirectX@@QEAAAEAU01@AEBU01@@Z ; DirectX::XMFLOAT3::operator=

; 271  : 	collDesc.vCenter = _float3(0.f, 1.f, 1.7f);

  003bf	f3 0f 10 1d 00
	00 00 00	 movss	 xmm3, DWORD PTR __real@3fd9999a
  003c7	f3 0f 10 15 00
	00 00 00	 movss	 xmm2, DWORD PTR __real@3f800000
  003cf	0f 57 c9	 xorps	 xmm1, xmm1
  003d2	48 8d 8d 14 02
	00 00		 lea	 rcx, QWORD PTR $T12[rbp]
  003d9	e8 00 00 00 00	 call	 ??0XMFLOAT3@DirectX@@QEAA@MMM@Z ; DirectX::XMFLOAT3::XMFLOAT3
  003de	48 8b d0	 mov	 rdx, rax
  003e1	48 8d 4d 30	 lea	 rcx, QWORD PTR collDesc$[rbp+8]
  003e5	e8 00 00 00 00	 call	 ??4XMFLOAT3@DirectX@@QEAAAEAU01@AEBU01@@Z ; DirectX::XMFLOAT3::operator=

; 272  : 	collDesc.vRotation = _float3(0.f, 0.f, 0.f);

  003ea	0f 57 db	 xorps	 xmm3, xmm3
  003ed	0f 57 d2	 xorps	 xmm2, xmm2
  003f0	0f 57 c9	 xorps	 xmm1, xmm1
  003f3	48 8d 8d 34 02
	00 00		 lea	 rcx, QWORD PTR $T13[rbp]
  003fa	e8 00 00 00 00	 call	 ??0XMFLOAT3@DirectX@@QEAA@MMM@Z ; DirectX::XMFLOAT3::XMFLOAT3
  003ff	48 8b d0	 mov	 rdx, rax
  00402	48 8d 4d 48	 lea	 rcx, QWORD PTR collDesc$[rbp+32]
  00406	e8 00 00 00 00	 call	 ??4XMFLOAT3@DirectX@@QEAAAEAU01@AEBU01@@Z ; DirectX::XMFLOAT3::operator=

; 273  : 
; 274  : 	(CGameObject::Add_Component(LEVEL_GAMEPLAY, TEXT("proto_com_sphere_collider"), TEXT("com_collder_weapon"), (CComponent**)&m_pWeaponCollider, &collDesc));

  0040b	48 8b 85 70 02
	00 00		 mov	 rax, QWORD PTR this$[rbp]
  00412	48 05 c0 00 00
	00		 add	 rax, 192		; 000000c0H
  00418	48 8d 4d 28	 lea	 rcx, QWORD PTR collDesc$[rbp]
  0041c	48 89 4c 24 28	 mov	 QWORD PTR [rsp+40], rcx
  00421	48 89 44 24 20	 mov	 QWORD PTR [rsp+32], rax
  00426	4c 8d 0d 00 00
	00 00		 lea	 r9, OFFSET FLAT:??_C@_1CG@CHKGKHGN@?$AAc?$AAo?$AAm?$AA_?$AAc?$AAo?$AAl?$AAl?$AAd?$AAe?$AAr?$AA_?$AAw?$AAe?$AAa?$AAp?$AAo?$AAn?$AA?$AA@
  0042d	4c 8d 05 00 00
	00 00		 lea	 r8, OFFSET FLAT:??_C@_1DE@OCAJEKIC@?$AAp?$AAr?$AAo?$AAt?$AAo?$AA_?$AAc?$AAo?$AAm?$AA_?$AAs?$AAp?$AAh?$AAe?$AAr?$AAe?$AA_?$AAc?$AAo?$AAl?$AAl?$AAi?$AAd?$AAe?$AAr?$AA?$AA@
  00434	ba 03 00 00 00	 mov	 edx, 3
  00439	48 8b 8d 70 02
	00 00		 mov	 rcx, QWORD PTR this$[rbp]
  00440	ff 15 00 00 00
	00		 call	 QWORD PTR __imp_?Add_Component@CGameObject@Engine@@IEAAJIPEB_W0PEAPEAVCComponent@2@PEAX@Z

; 275  : 	m_pWeaponCollider->SetActive(false);

  00446	33 d2		 xor	 edx, edx
  00448	48 8b 85 70 02
	00 00		 mov	 rax, QWORD PTR this$[rbp]
  0044f	48 8b 88 c0 00
	00 00		 mov	 rcx, QWORD PTR [rax+192]
  00456	ff 15 00 00 00
	00		 call	 QWORD PTR __imp_?SetActive@CCollider@Engine@@QEAAX_N@Z

; 276  : 
; 277  : 	return S_OK;

  0045c	33 c0		 xor	 eax, eax
$LN1@AddCompone:

; 278  : }

  0045e	48 8b f8	 mov	 rdi, rax
  00461	48 8d 4d d0	 lea	 rcx, QWORD PTR [rbp-48]
  00465	48 8d 15 00 00
	00 00		 lea	 rdx, OFFSET FLAT:?AddComponents@CEnemy@Client@@AEAAJXZ$rtcFrameData
  0046c	e8 00 00 00 00	 call	 _RTC_CheckStackVars
  00471	48 8b c7	 mov	 rax, rdi
  00474	48 8b 8d 48 02
	00 00		 mov	 rcx, QWORD PTR __$ArrayPad$[rbp]
  0047b	48 33 cd	 xor	 rcx, rbp
  0047e	e8 00 00 00 00	 call	 __security_check_cookie
  00483	48 8d a5 58 02
	00 00		 lea	 rsp, QWORD PTR [rbp+600]
  0048a	5f		 pop	 rdi
  0048b	5d		 pop	 rbp
  0048c	c3		 ret	 0
?AddComponents@CEnemy@Client@@AEAAJXZ ENDP		; Client::CEnemy::AddComponents
_TEXT	ENDS
; Function compile flags: /Odtp /RTCsu /ZI
; File c:\github\framework\client\private\enemy.cpp
;	COMDAT ?RecvDamage@CEnemy@Client@@QEAAXM@Z
_TEXT	SEGMENT
pSkillSystem$ = 8
iRandom$ = 36
iRandom$1 = 68
this$ = 320
fDamage$ = 328
?RecvDamage@CEnemy@Client@@QEAAXM@Z PROC		; Client::CEnemy::RecvDamage, COMDAT

; 579  : {

$LN4:
  00000	f3 0f 11 4c 24
	10		 movss	 DWORD PTR [rsp+16], xmm1
  00006	48 89 4c 24 08	 mov	 QWORD PTR [rsp+8], rcx
  0000b	55		 push	 rbp
  0000c	57		 push	 rdi
  0000d	48 81 ec 48 01
	00 00		 sub	 rsp, 328		; 00000148H
  00014	48 8d 6c 24 20	 lea	 rbp, QWORD PTR [rsp+32]
  00019	48 8b fc	 mov	 rdi, rsp
  0001c	b9 52 00 00 00	 mov	 ecx, 82			; 00000052H
  00021	b8 cc cc cc cc	 mov	 eax, -858993460		; ccccccccH
  00026	f3 ab		 rep stosd
  00028	48 8b 8c 24 68
	01 00 00	 mov	 rcx, QWORD PTR [rsp+360]

; 580  : 	CSkillBallSystem* pSkillSystem = CSkillBallSystem::GetInstance();

  00030	e8 00 00 00 00	 call	 ?GetInstance@CSkillBallSystem@Client@@SAPEAV12@XZ ; Client::CSkillBallSystem::GetInstance
  00035	48 89 45 08	 mov	 QWORD PTR pSkillSystem$[rbp], rax

; 581  : 	CApplicationManager::GetInstance()->SetHitFreeze(true);

  00039	e8 00 00 00 00	 call	 ?GetInstance@CApplicationManager@Client@@SAPEAV12@XZ ; Client::CApplicationManager::GetInstance
  0003e	b2 01		 mov	 dl, 1
  00040	48 8b c8	 mov	 rcx, rax
  00043	e8 00 00 00 00	 call	 ?SetHitFreeze@CApplicationManager@Client@@QEAAX_N@Z ; Client::CApplicationManager::SetHitFreeze

; 582  : 
; 583  : 	int iRandom = rand() % 100;

  00048	ff 15 00 00 00
	00		 call	 QWORD PTR __imp_rand
  0004e	99		 cdq
  0004f	b9 64 00 00 00	 mov	 ecx, 100		; 00000064H
  00054	f7 f9		 idiv	 ecx
  00056	8b c2		 mov	 eax, edx
  00058	89 45 24	 mov	 DWORD PTR iRandom$[rbp], eax

; 584  : 	if (iRandom < 10)

  0005b	83 7d 24 0a	 cmp	 DWORD PTR iRandom$[rbp], 10
  0005f	7d 36		 jge	 SHORT $LN2@RecvDamage

; 585  : 	{
; 586  : 		int iRandom = rand() % 3;

  00061	ff 15 00 00 00
	00		 call	 QWORD PTR __imp_rand
  00067	99		 cdq
  00068	b9 03 00 00 00	 mov	 ecx, 3
  0006d	f7 f9		 idiv	 ecx
  0006f	8b c2		 mov	 eax, edx
  00071	89 45 44	 mov	 DWORD PTR iRandom$1[rbp], eax

; 587  : 		pSkillSystem->PushSkill(m_pDevice, m_pContext, (CSkillBase::TYPE)iRandom);

  00074	44 8b 4d 44	 mov	 r9d, DWORD PTR iRandom$1[rbp]
  00078	48 8b 85 40 01
	00 00		 mov	 rax, QWORD PTR this$[rbp]
  0007f	4c 8b 40 68	 mov	 r8, QWORD PTR [rax+104]
  00083	48 8b 85 40 01
	00 00		 mov	 rax, QWORD PTR this$[rbp]
  0008a	48 8b 50 60	 mov	 rdx, QWORD PTR [rax+96]
  0008e	48 8b 4d 08	 mov	 rcx, QWORD PTR pSkillSystem$[rbp]
  00092	e8 00 00 00 00	 call	 ?PushSkill@CSkillBallSystem@Client@@QEAAJPEAUID3D11Device@@PEAUID3D11DeviceContext@@W4TYPE@CSkillBase@2@@Z ; Client::CSkillBallSystem::PushSkill
$LN2@RecvDamage:

; 588  : 	}
; 589  : 
; 590  : 	m_pPlayer->AddCombo();

  00097	48 8b 85 40 01
	00 00		 mov	 rax, QWORD PTR this$[rbp]
  0009e	48 8b 88 38 01
	00 00		 mov	 rcx, QWORD PTR [rax+312]
  000a5	e8 00 00 00 00	 call	 ?AddCombo@CCharacter@Client@@QEAAXXZ ; Client::CCharacter::AddCombo

; 591  : 	m_pPlayer->ResetComboTime();

  000aa	48 8b 85 40 01
	00 00		 mov	 rax, QWORD PTR this$[rbp]
  000b1	48 8b 88 38 01
	00 00		 mov	 rcx, QWORD PTR [rax+312]
  000b8	e8 00 00 00 00	 call	 ?ResetComboTime@CCharacter@Client@@QEAAXXZ ; Client::CCharacter::ResetComboTime

; 592  : 
; 593  : 	m_State.fCurHp -= fDamage;

  000bd	48 8b 85 40 01
	00 00		 mov	 rax, QWORD PTR this$[rbp]
  000c4	f3 0f 10 80 2c
	01 00 00	 movss	 xmm0, DWORD PTR [rax+300]
  000cc	f3 0f 5c 85 48
	01 00 00	 subss	 xmm0, DWORD PTR fDamage$[rbp]
  000d4	48 8b 85 40 01
	00 00		 mov	 rax, QWORD PTR this$[rbp]
  000db	f3 0f 11 80 2c
	01 00 00	 movss	 DWORD PTR [rax+300], xmm0

; 594  : 
; 595  : 	DieCheck();

  000e3	48 8b 8d 40 01
	00 00		 mov	 rcx, QWORD PTR this$[rbp]
  000ea	e8 00 00 00 00	 call	 ?DieCheck@CEnemy@Client@@AEAA_NXZ ; Client::CEnemy::DieCheck

; 596  : }

  000ef	48 8d a5 28 01
	00 00		 lea	 rsp, QWORD PTR [rbp+296]
  000f6	5f		 pop	 rdi
  000f7	5d		 pop	 rbp
  000f8	c3		 ret	 0
?RecvDamage@CEnemy@Client@@QEAAXM@Z ENDP		; Client::CEnemy::RecvDamage
_TEXT	ENDS
; Function compile flags: /Odtp /RTCsu /ZI
; File c:\github\framework\client\private\enemy.cpp
;	COMDAT ?SetAirborne@CEnemy@Client@@QEAAXM@Z
_TEXT	SEGMENT
this$ = 224
fDamage$ = 232
?SetAirborne@CEnemy@Client@@QEAAXM@Z PROC		; Client::CEnemy::SetAirborne, COMDAT

; 606  : {

$LN3:
  00000	f3 0f 11 4c 24
	10		 movss	 DWORD PTR [rsp+16], xmm1
  00006	48 89 4c 24 08	 mov	 QWORD PTR [rsp+8], rcx
  0000b	55		 push	 rbp
  0000c	57		 push	 rdi
  0000d	48 81 ec e8 00
	00 00		 sub	 rsp, 232		; 000000e8H
  00014	48 8d 6c 24 20	 lea	 rbp, QWORD PTR [rsp+32]
  00019	48 8b fc	 mov	 rdi, rsp
  0001c	b9 3a 00 00 00	 mov	 ecx, 58			; 0000003aH
  00021	b8 cc cc cc cc	 mov	 eax, -858993460		; ccccccccH
  00026	f3 ab		 rep stosd
  00028	48 8b 8c 24 08
	01 00 00	 mov	 rcx, QWORD PTR [rsp+264]

; 607  : 	m_bAir = true;

  00030	48 8b 85 e0 00
	00 00		 mov	 rax, QWORD PTR this$[rbp]
  00037	c6 80 b5 01 00
	00 01		 mov	 BYTE PTR [rax+437], 1

; 608  : 	m_bAirHit = true;

  0003e	48 8b 85 e0 00
	00 00		 mov	 rax, QWORD PTR this$[rbp]
  00045	c6 80 b4 01 00
	00 01		 mov	 BYTE PTR [rax+436], 1

; 609  : 	m_bStandupStart = false;

  0004c	48 8b 85 e0 00
	00 00		 mov	 rax, QWORD PTR this$[rbp]
  00053	c6 80 b6 01 00
	00 00		 mov	 BYTE PTR [rax+438], 0

; 610  : 	m_fStandupTimer = 0.0f;

  0005a	48 8b 85 e0 00
	00 00		 mov	 rax, QWORD PTR this$[rbp]
  00061	0f 57 c0	 xorps	 xmm0, xmm0
  00064	f3 0f 11 80 b8
	01 00 00	 movss	 DWORD PTR [rax+440], xmm0

; 611  : 	RecvDamage(fDamage);

  0006c	f3 0f 10 8d e8
	00 00 00	 movss	 xmm1, DWORD PTR fDamage$[rbp]
  00074	48 8b 8d e0 00
	00 00		 mov	 rcx, QWORD PTR this$[rbp]
  0007b	e8 00 00 00 00	 call	 ?RecvDamage@CEnemy@Client@@QEAAXM@Z ; Client::CEnemy::RecvDamage

; 612  : }

  00080	48 8d a5 c8 00
	00 00		 lea	 rsp, QWORD PTR [rbp+200]
  00087	5f		 pop	 rdi
  00088	5d		 pop	 rbp
  00089	c3		 ret	 0
?SetAirborne@CEnemy@Client@@QEAAXM@Z ENDP		; Client::CEnemy::SetAirborne
_TEXT	ENDS
; Function compile flags: /Odtp /RTCsu /ZI
; File c:\github\framework\client\private\enemy.cpp
;	COMDAT ?SetNuckback@CEnemy@Client@@QEAAXM@Z
_TEXT	SEGMENT
this$ = 224
fPower$ = 232
?SetNuckback@CEnemy@Client@@QEAAXM@Z PROC		; Client::CEnemy::SetNuckback, COMDAT

; 599  : {

$LN3:
  00000	f3 0f 11 4c 24
	10		 movss	 DWORD PTR [rsp+16], xmm1
  00006	48 89 4c 24 08	 mov	 QWORD PTR [rsp+8], rcx
  0000b	55		 push	 rbp
  0000c	57		 push	 rdi
  0000d	48 81 ec c8 00
	00 00		 sub	 rsp, 200		; 000000c8H
  00014	48 8b ec	 mov	 rbp, rsp
  00017	48 8b fc	 mov	 rdi, rsp
  0001a	b9 32 00 00 00	 mov	 ecx, 50			; 00000032H
  0001f	b8 cc cc cc cc	 mov	 eax, -858993460		; ccccccccH
  00024	f3 ab		 rep stosd
  00026	48 8b 8c 24 e8
	00 00 00	 mov	 rcx, QWORD PTR [rsp+232]

; 600  : 	m_bNuckback = true;

  0002e	48 8b 85 e0 00
	00 00		 mov	 rax, QWORD PTR this$[rbp]
  00035	c6 80 90 01 00
	00 01		 mov	 BYTE PTR [rax+400], 1

; 601  : 	m_bNuckBackFinish = false;

  0003c	48 8b 85 e0 00
	00 00		 mov	 rax, QWORD PTR this$[rbp]
  00043	c6 80 91 01 00
	00 00		 mov	 BYTE PTR [rax+401], 0

; 602  : 	m_fNuckbackPower = fPower;

  0004a	48 8b 85 e0 00
	00 00		 mov	 rax, QWORD PTR this$[rbp]
  00051	f3 0f 10 85 e8
	00 00 00	 movss	 xmm0, DWORD PTR fPower$[rbp]
  00059	f3 0f 11 80 94
	01 00 00	 movss	 DWORD PTR [rax+404], xmm0

; 603  : }

  00061	48 8d a5 c8 00
	00 00		 lea	 rsp, QWORD PTR [rbp+200]
  00068	5f		 pop	 rdi
  00069	5d		 pop	 rbp
  0006a	c3		 ret	 0
?SetNuckback@CEnemy@Client@@QEAAXM@Z ENDP		; Client::CEnemy::SetNuckback
_TEXT	ENDS
; Function compile flags: /Odtp /RTCsu /ZI
; File c:\github\framework\client\public\enemy.h
;	COMDAT ?GetOverlapCollider@CEnemy@Client@@QEAAPEAVCCollider@Engine@@XZ
_TEXT	SEGMENT
this$ = 224
?GetOverlapCollider@CEnemy@Client@@QEAAPEAVCCollider@Engine@@XZ PROC ; Client::CEnemy::GetOverlapCollider, COMDAT

; 119  : 	class CCollider* GetOverlapCollider() { return m_pOverlapCollider; }

$LN3:
  00000	48 89 4c 24 08	 mov	 QWORD PTR [rsp+8], rcx
  00005	55		 push	 rbp
  00006	57		 push	 rdi
  00007	48 81 ec c8 00
	00 00		 sub	 rsp, 200		; 000000c8H
  0000e	48 8b ec	 mov	 rbp, rsp
  00011	48 8b fc	 mov	 rdi, rsp
  00014	b9 32 00 00 00	 mov	 ecx, 50			; 00000032H
  00019	b8 cc cc cc cc	 mov	 eax, -858993460		; ccccccccH
  0001e	f3 ab		 rep stosd
  00020	48 8b 8c 24 e8
	00 00 00	 mov	 rcx, QWORD PTR [rsp+232]
  00028	48 8b 85 e0 00
	00 00		 mov	 rax, QWORD PTR this$[rbp]
  0002f	48 8b 80 b8 00
	00 00		 mov	 rax, QWORD PTR [rax+184]
  00036	48 8d a5 c8 00
	00 00		 lea	 rsp, QWORD PTR [rbp+200]
  0003d	5f		 pop	 rdi
  0003e	5d		 pop	 rbp
  0003f	c3		 ret	 0
?GetOverlapCollider@CEnemy@Client@@QEAAPEAVCCollider@Engine@@XZ ENDP ; Client::CEnemy::GetOverlapCollider
_TEXT	ENDS
; Function compile flags: /Odtp /RTCsu /ZI
; File c:\github\framework\client\private\enemy.cpp
;	COMDAT ?GetRootBonePosition@CEnemy@Client@@QEAA?AT__m128@@XZ
_TEXT	SEGMENT
BoneMatrix$ = 16
$T4 = 304
$T5 = 400
__$ArrayPad$ = 472
this$ = 512
__$ReturnUdt$ = 520
?GetRootBonePosition@CEnemy@Client@@QEAA?AT__m128@@XZ PROC ; Client::CEnemy::GetRootBonePosition, COMDAT

; 766  : {

$LN3:
  00000	48 89 54 24 10	 mov	 QWORD PTR [rsp+16], rdx
  00005	48 89 4c 24 08	 mov	 QWORD PTR [rsp+8], rcx
  0000a	55		 push	 rbp
  0000b	56		 push	 rsi
  0000c	57		 push	 rdi
  0000d	48 81 ec 00 02
	00 00		 sub	 rsp, 512		; 00000200H
  00014	48 8d 6c 24 20	 lea	 rbp, QWORD PTR [rsp+32]
  00019	48 8b fc	 mov	 rdi, rsp
  0001c	b9 80 00 00 00	 mov	 ecx, 128		; 00000080H
  00021	b8 cc cc cc cc	 mov	 eax, -858993460		; ccccccccH
  00026	f3 ab		 rep stosd
  00028	48 8b 8c 24 28
	02 00 00	 mov	 rcx, QWORD PTR [rsp+552]
  00030	48 8b 05 00 00
	00 00		 mov	 rax, QWORD PTR __security_cookie
  00037	48 33 c5	 xor	 rax, rbp
  0003a	48 89 85 d8 01
	00 00		 mov	 QWORD PTR __$ArrayPad$[rbp], rax

; 767  : 	_matrix BoneMatrix = XMLoadFloat4x4(&m_RootBoneMatrix);

  00041	48 8b 85 00 02
	00 00		 mov	 rax, QWORD PTR this$[rbp]
  00048	48 05 dc 00 00
	00		 add	 rax, 220		; 000000dcH
  0004e	48 8b c8	 mov	 rcx, rax
  00051	e8 00 00 00 00	 call	 ?XMLoadFloat4x4@DirectX@@YQ?AUXMMATRIX@1@PEBUXMFLOAT4X4@1@@Z ; DirectX::XMLoadFloat4x4
  00056	0f 29 9d c0 01
	00 00		 movaps	 XMMWORD PTR $T5[rbp+48], xmm3
  0005d	0f 29 95 b0 01
	00 00		 movaps	 XMMWORD PTR $T5[rbp+32], xmm2
  00064	0f 29 8d a0 01
	00 00		 movaps	 XMMWORD PTR $T5[rbp+16], xmm1
  0006b	0f 29 85 90 01
	00 00		 movaps	 XMMWORD PTR $T5[rbp], xmm0
  00072	48 8d 85 30 01
	00 00		 lea	 rax, QWORD PTR $T4[rbp]
  00079	48 8d 8d 90 01
	00 00		 lea	 rcx, QWORD PTR $T5[rbp]
  00080	48 8b f8	 mov	 rdi, rax
  00083	48 8b f1	 mov	 rsi, rcx
  00086	b9 40 00 00 00	 mov	 ecx, 64			; 00000040H
  0008b	f3 a4		 rep movsb
  0008d	48 8d 45 10	 lea	 rax, QWORD PTR BoneMatrix$[rbp]
  00091	48 8d 8d 30 01
	00 00		 lea	 rcx, QWORD PTR $T4[rbp]
  00098	48 8b f8	 mov	 rdi, rax
  0009b	48 8b f1	 mov	 rsi, rcx
  0009e	b9 40 00 00 00	 mov	 ecx, 64			; 00000040H
  000a3	f3 a4		 rep movsb

; 768  : 	return BoneMatrix.r[3];

  000a5	b8 10 00 00 00	 mov	 eax, 16
  000aa	48 6b c0 03	 imul	 rax, rax, 3
  000ae	48 8b 8d 08 02
	00 00		 mov	 rcx, QWORD PTR __$ReturnUdt$[rbp]
  000b5	0f 10 44 05 10	 movups	 xmm0, XMMWORD PTR BoneMatrix$[rbp+rax]
  000ba	0f 11 01	 movups	 XMMWORD PTR [rcx], xmm0
  000bd	48 8b 85 08 02
	00 00		 mov	 rax, QWORD PTR __$ReturnUdt$[rbp]

; 769  : }

  000c4	48 8b f8	 mov	 rdi, rax
  000c7	48 8d 4d e0	 lea	 rcx, QWORD PTR [rbp-32]
  000cb	48 8d 15 00 00
	00 00		 lea	 rdx, OFFSET FLAT:?GetRootBonePosition@CEnemy@Client@@QEAA?AT__m128@@XZ$rtcFrameData
  000d2	e8 00 00 00 00	 call	 _RTC_CheckStackVars
  000d7	48 8b c7	 mov	 rax, rdi
  000da	48 8b 8d d8 01
	00 00		 mov	 rcx, QWORD PTR __$ArrayPad$[rbp]
  000e1	48 33 cd	 xor	 rcx, rbp
  000e4	e8 00 00 00 00	 call	 __security_check_cookie
  000e9	48 8d a5 e0 01
	00 00		 lea	 rsp, QWORD PTR [rbp+480]
  000f0	5f		 pop	 rdi
  000f1	5e		 pop	 rsi
  000f2	5d		 pop	 rbp
  000f3	c3		 ret	 0
?GetRootBonePosition@CEnemy@Client@@QEAA?AT__m128@@XZ ENDP ; Client::CEnemy::GetRootBonePosition
_TEXT	ENDS
; Function compile flags: /Odtp /RTCsu /ZI
; File c:\github\framework\client\private\enemy.cpp
;	COMDAT ?SetPosition@CEnemy@Client@@QEAAXUXMFLOAT3@DirectX@@@Z
_TEXT	SEGMENT
$T1 = 208
$T2 = 256
this$ = 320
vPosition$ = 328
?SetPosition@CEnemy@Client@@QEAAXUXMFLOAT3@DirectX@@@Z PROC ; Client::CEnemy::SetPosition, COMDAT

; 217  : {

$LN4:
  00000	48 89 54 24 10	 mov	 QWORD PTR [rsp+16], rdx
  00005	48 89 4c 24 08	 mov	 QWORD PTR [rsp+8], rcx
  0000a	55		 push	 rbp
  0000b	57		 push	 rdi
  0000c	48 81 ec 48 01
	00 00		 sub	 rsp, 328		; 00000148H
  00013	48 8d 6c 24 20	 lea	 rbp, QWORD PTR [rsp+32]
  00018	48 8b fc	 mov	 rdi, rsp
  0001b	b9 52 00 00 00	 mov	 ecx, 82			; 00000052H
  00020	b8 cc cc cc cc	 mov	 eax, -858993460		; ccccccccH
  00025	f3 ab		 rep stosd
  00027	48 8b 8c 24 68
	01 00 00	 mov	 rcx, QWORD PTR [rsp+360]

; 218  : 	if (transform == nullptr)

  0002f	48 8b 85 40 01
	00 00		 mov	 rax, QWORD PTR this$[rbp]
  00036	48 83 b8 98 00
	00 00 00	 cmp	 QWORD PTR [rax+152], 0
  0003e	75 02		 jne	 SHORT $LN2@SetPositio

; 219  : 		return;

  00040	eb 41		 jmp	 SHORT $LN1@SetPositio
$LN2@SetPositio:

; 220  : 
; 221  : 	transform->Set_State(CTransform::STATE_POSITION, XMLoadFloat3(&vPosition));

  00042	48 8b 8d 48 01
	00 00		 mov	 rcx, QWORD PTR vPosition$[rbp]
  00049	e8 00 00 00 00	 call	 ?XMLoadFloat3@DirectX@@YQ?AT__m128@@PEBUXMFLOAT3@1@@Z ; DirectX::XMLoadFloat3
  0004e	0f 29 85 d0 00
	00 00		 movaps	 XMMWORD PTR $T1[rbp], xmm0
  00055	0f 28 85 d0 00
	00 00		 movaps	 xmm0, XMMWORD PTR $T1[rbp]
  0005c	0f 29 85 00 01
	00 00		 movaps	 XMMWORD PTR $T2[rbp], xmm0
  00063	4c 8d 85 00 01
	00 00		 lea	 r8, QWORD PTR $T2[rbp]
  0006a	ba 03 00 00 00	 mov	 edx, 3
  0006f	48 8b 85 40 01
	00 00		 mov	 rax, QWORD PTR this$[rbp]
  00076	48 8b 88 98 00
	00 00		 mov	 rcx, QWORD PTR [rax+152]
  0007d	ff 15 00 00 00
	00		 call	 QWORD PTR __imp_?Set_State@CTransform@Engine@@QEAAXW4STATE@12@T__m128@@@Z
$LN1@SetPositio:

; 222  : }

  00083	48 8d a5 28 01
	00 00		 lea	 rsp, QWORD PTR [rbp+296]
  0008a	5f		 pop	 rdi
  0008b	5d		 pop	 rbp
  0008c	c3		 ret	 0
?SetPosition@CEnemy@Client@@QEAAXUXMFLOAT3@DirectX@@@Z ENDP ; Client::CEnemy::SetPosition
_TEXT	ENDS
; Function compile flags: /Odtp /RTCsu /ZI
; File c:\github\framework\client\private\enemy.cpp
;	COMDAT ?GetPosition@CEnemy@Client@@QEAA?AUXMFLOAT4@DirectX@@XZ
_TEXT	SEGMENT
vPos$ = 8
$T4 = 256
__$ArrayPad$ = 280
this$ = 320
__$ReturnUdt$ = 328
?GetPosition@CEnemy@Client@@QEAA?AUXMFLOAT4@DirectX@@XZ PROC ; Client::CEnemy::GetPosition, COMDAT

; 203  : {

$LN5:
  00000	48 89 54 24 10	 mov	 QWORD PTR [rsp+16], rdx
  00005	48 89 4c 24 08	 mov	 QWORD PTR [rsp+8], rcx
  0000a	55		 push	 rbp
  0000b	56		 push	 rsi
  0000c	57		 push	 rdi
  0000d	48 81 ec 40 01
	00 00		 sub	 rsp, 320		; 00000140H
  00014	48 8d 6c 24 20	 lea	 rbp, QWORD PTR [rsp+32]
  00019	48 8b fc	 mov	 rdi, rsp
  0001c	b9 50 00 00 00	 mov	 ecx, 80			; 00000050H
  00021	b8 cc cc cc cc	 mov	 eax, -858993460		; ccccccccH
  00026	f3 ab		 rep stosd
  00028	48 8b 8c 24 68
	01 00 00	 mov	 rcx, QWORD PTR [rsp+360]
  00030	48 8b 05 00 00
	00 00		 mov	 rax, QWORD PTR __security_cookie
  00037	48 33 c5	 xor	 rax, rbp
  0003a	48 89 85 18 01
	00 00		 mov	 QWORD PTR __$ArrayPad$[rbp], rax

; 204  :  	if (transform == nullptr)

  00041	48 8b 85 40 01
	00 00		 mov	 rax, QWORD PTR this$[rbp]
  00048	48 83 b8 98 00
	00 00 00	 cmp	 QWORD PTR [rax+152], 0
  00050	75 15		 jne	 SHORT $LN2@GetPositio

; 205  : 		return _float4();

  00052	48 8b 8d 48 01
	00 00		 mov	 rcx, QWORD PTR __$ReturnUdt$[rbp]
  00059	e8 00 00 00 00	 call	 ??0XMFLOAT4@DirectX@@QEAA@XZ ; DirectX::XMFLOAT4::XMFLOAT4
  0005e	48 8b 85 48 01
	00 00		 mov	 rax, QWORD PTR __$ReturnUdt$[rbp]
  00065	eb 7b		 jmp	 SHORT $LN1@GetPositio
$LN2@GetPositio:

; 206  : 
; 207  : 	if(IsDestroy())

  00067	48 8b 8d 40 01
	00 00		 mov	 rcx, QWORD PTR this$[rbp]
  0006e	ff 15 00 00 00
	00		 call	 QWORD PTR __imp_?IsDestroy@CGameObject@Engine@@QEAA_NXZ
  00074	0f b6 c0	 movzx	 eax, al
  00077	85 c0		 test	 eax, eax
  00079	74 15		 je	 SHORT $LN3@GetPositio

; 208  : 		return _float4();

  0007b	48 8b 8d 48 01
	00 00		 mov	 rcx, QWORD PTR __$ReturnUdt$[rbp]
  00082	e8 00 00 00 00	 call	 ??0XMFLOAT4@DirectX@@QEAA@XZ ; DirectX::XMFLOAT4::XMFLOAT4
  00087	48 8b 85 48 01
	00 00		 mov	 rax, QWORD PTR __$ReturnUdt$[rbp]
  0008e	eb 52		 jmp	 SHORT $LN1@GetPositio
$LN3@GetPositio:

; 209  : 
; 210  : 	_float4 vPos;

  00090	48 8d 4d 08	 lea	 rcx, QWORD PTR vPos$[rbp]
  00094	e8 00 00 00 00	 call	 ??0XMFLOAT4@DirectX@@QEAA@XZ ; DirectX::XMFLOAT4::XMFLOAT4

; 211  : 	XMStoreFloat4(&vPos, transform->Get_State(CTransform::STATE_POSITION));

  00099	41 b8 03 00 00
	00		 mov	 r8d, 3
  0009f	48 8d 95 00 01
	00 00		 lea	 rdx, QWORD PTR $T4[rbp]
  000a6	48 8b 85 40 01
	00 00		 mov	 rax, QWORD PTR this$[rbp]
  000ad	48 8b 88 98 00
	00 00		 mov	 rcx, QWORD PTR [rax+152]
  000b4	ff 15 00 00 00
	00		 call	 QWORD PTR __imp_?Get_State@CTransform@Engine@@QEAA?AT__m128@@W4STATE@12@@Z
  000ba	0f 10 08	 movups	 xmm1, XMMWORD PTR [rax]
  000bd	48 8d 4d 08	 lea	 rcx, QWORD PTR vPos$[rbp]
  000c1	e8 00 00 00 00	 call	 ?XMStoreFloat4@DirectX@@YQXPEAUXMFLOAT4@1@T__m128@@@Z ; DirectX::XMStoreFloat4

; 212  : 
; 213  : 	return vPos;

  000c6	48 8d 45 08	 lea	 rax, QWORD PTR vPos$[rbp]
  000ca	48 8b bd 48 01
	00 00		 mov	 rdi, QWORD PTR __$ReturnUdt$[rbp]
  000d1	48 8b f0	 mov	 rsi, rax
  000d4	b9 10 00 00 00	 mov	 ecx, 16
  000d9	f3 a4		 rep movsb
  000db	48 8b 85 48 01
	00 00		 mov	 rax, QWORD PTR __$ReturnUdt$[rbp]
$LN1@GetPositio:

; 214  : }

  000e2	48 8b f8	 mov	 rdi, rax
  000e5	48 8d 4d e0	 lea	 rcx, QWORD PTR [rbp-32]
  000e9	48 8d 15 00 00
	00 00		 lea	 rdx, OFFSET FLAT:?GetPosition@CEnemy@Client@@QEAA?AUXMFLOAT4@DirectX@@XZ$rtcFrameData
  000f0	e8 00 00 00 00	 call	 _RTC_CheckStackVars
  000f5	48 8b c7	 mov	 rax, rdi
  000f8	48 8b 8d 18 01
	00 00		 mov	 rcx, QWORD PTR __$ArrayPad$[rbp]
  000ff	48 33 cd	 xor	 rcx, rbp
  00102	e8 00 00 00 00	 call	 __security_check_cookie
  00107	48 8d a5 20 01
	00 00		 lea	 rsp, QWORD PTR [rbp+288]
  0010e	5f		 pop	 rdi
  0010f	5e		 pop	 rsi
  00110	5d		 pop	 rbp
  00111	c3		 ret	 0
?GetPosition@CEnemy@Client@@QEAA?AUXMFLOAT4@DirectX@@XZ ENDP ; Client::CEnemy::GetPosition
_TEXT	ENDS
; Function compile flags: /Odtp /RTCsu /ZI
; File c:\github\framework\client\public\enemy.h
;	COMDAT ?SetOverlap@CEnemy@Client@@QEAAX_NUXMFLOAT3@DirectX@@@Z
_TEXT	SEGMENT
this$ = 224
value$ = 232
vNagative$ = 240
?SetOverlap@CEnemy@Client@@QEAAX_NUXMFLOAT3@DirectX@@@Z PROC ; Client::CEnemy::SetOverlap, COMDAT

; 113  : 	void SetOverlap(_bool value, _float3 vNagative) { m_bOverlapped = value; m_vNagative = vNagative; }

$LN3:
  00000	4c 89 44 24 18	 mov	 QWORD PTR [rsp+24], r8
  00005	88 54 24 10	 mov	 BYTE PTR [rsp+16], dl
  00009	48 89 4c 24 08	 mov	 QWORD PTR [rsp+8], rcx
  0000e	55		 push	 rbp
  0000f	57		 push	 rdi
  00010	48 81 ec e8 00
	00 00		 sub	 rsp, 232		; 000000e8H
  00017	48 8d 6c 24 20	 lea	 rbp, QWORD PTR [rsp+32]
  0001c	48 8b fc	 mov	 rdi, rsp
  0001f	b9 3a 00 00 00	 mov	 ecx, 58			; 0000003aH
  00024	b8 cc cc cc cc	 mov	 eax, -858993460		; ccccccccH
  00029	f3 ab		 rep stosd
  0002b	48 8b 8c 24 08
	01 00 00	 mov	 rcx, QWORD PTR [rsp+264]
  00033	48 8b 85 e0 00
	00 00		 mov	 rax, QWORD PTR this$[rbp]
  0003a	0f b6 8d e8 00
	00 00		 movzx	 ecx, BYTE PTR value$[rbp]
  00041	88 88 68 01 00
	00		 mov	 BYTE PTR [rax+360], cl
  00047	48 8b 85 e0 00
	00 00		 mov	 rax, QWORD PTR this$[rbp]
  0004e	48 05 5c 01 00
	00		 add	 rax, 348		; 0000015cH
  00054	48 8b 95 f0 00
	00 00		 mov	 rdx, QWORD PTR vNagative$[rbp]
  0005b	48 8b c8	 mov	 rcx, rax
  0005e	e8 00 00 00 00	 call	 ??4XMFLOAT3@DirectX@@QEAAAEAU01@AEBU01@@Z ; DirectX::XMFLOAT3::operator=
  00063	48 8d a5 c8 00
	00 00		 lea	 rsp, QWORD PTR [rbp+200]
  0006a	5f		 pop	 rdi
  0006b	5d		 pop	 rbp
  0006c	c3		 ret	 0
?SetOverlap@CEnemy@Client@@QEAAX_NUXMFLOAT3@DirectX@@@Z ENDP ; Client::CEnemy::SetOverlap
_TEXT	ENDS
; Function compile flags: /Odtp /RTCsu /ZI
; File c:\github\framework\client\public\enemy.h
;	COMDAT ?IsOverlap@CEnemy@Client@@QEBA_NXZ
_TEXT	SEGMENT
this$ = 224
?IsOverlap@CEnemy@Client@@QEBA_NXZ PROC			; Client::CEnemy::IsOverlap, COMDAT

; 112  : 	_bool IsOverlap() const { return m_bOverlapped; }

$LN3:
  00000	48 89 4c 24 08	 mov	 QWORD PTR [rsp+8], rcx
  00005	55		 push	 rbp
  00006	57		 push	 rdi
  00007	48 81 ec c8 00
	00 00		 sub	 rsp, 200		; 000000c8H
  0000e	48 8b ec	 mov	 rbp, rsp
  00011	48 8b fc	 mov	 rdi, rsp
  00014	b9 32 00 00 00	 mov	 ecx, 50			; 00000032H
  00019	b8 cc cc cc cc	 mov	 eax, -858993460		; ccccccccH
  0001e	f3 ab		 rep stosd
  00020	48 8b 8c 24 e8
	00 00 00	 mov	 rcx, QWORD PTR [rsp+232]
  00028	48 8b 85 e0 00
	00 00		 mov	 rax, QWORD PTR this$[rbp]
  0002f	0f b6 80 68 01
	00 00		 movzx	 eax, BYTE PTR [rax+360]
  00036	48 8d a5 c8 00
	00 00		 lea	 rsp, QWORD PTR [rbp+200]
  0003d	5f		 pop	 rdi
  0003e	5d		 pop	 rbp
  0003f	c3		 ret	 0
?IsOverlap@CEnemy@Client@@QEBA_NXZ ENDP			; Client::CEnemy::IsOverlap
_TEXT	ENDS
; Function compile flags: /Odtp /RTCsu /ZI
; File c:\github\framework\client\private\enemy.cpp
;	COMDAT ?Reset@CEnemy@Client@@QEAAXXZ
_TEXT	SEGMENT
iRandomX$ = 4
iRandomZ$ = 36
$T1 = 260
$T2 = 304
this$ = 368
?Reset@CEnemy@Client@@QEAAXXZ PROC			; Client::CEnemy::Reset, COMDAT

; 173  : {

$LN3:
  00000	48 89 4c 24 08	 mov	 QWORD PTR [rsp+8], rcx
  00005	55		 push	 rbp
  00006	56		 push	 rsi
  00007	57		 push	 rdi
  00008	48 81 ec 70 01
	00 00		 sub	 rsp, 368		; 00000170H
  0000f	48 8d 6c 24 20	 lea	 rbp, QWORD PTR [rsp+32]
  00014	48 8b fc	 mov	 rdi, rsp
  00017	b9 5c 00 00 00	 mov	 ecx, 92			; 0000005cH
  0001c	b8 cc cc cc cc	 mov	 eax, -858993460		; ccccccccH
  00021	f3 ab		 rep stosd
  00023	48 8b 8c 24 98
	01 00 00	 mov	 rcx, QWORD PTR [rsp+408]

; 174  : 	m_eState = STATE::ACTIVE;

  0002b	48 8b 85 70 01
	00 00		 mov	 rax, QWORD PTR this$[rbp]
  00032	c7 40 74 00 00
	00 00		 mov	 DWORD PTR [rax+116], 0

; 175  : 
; 176  : 	m_bDead = false;

  00039	48 8b 85 70 01
	00 00		 mov	 rax, QWORD PTR this$[rbp]
  00040	c6 80 81 01 00
	00 00		 mov	 BYTE PTR [rax+385], 0

; 177  : 	m_bDeadWait = false;

  00047	48 8b 85 70 01
	00 00		 mov	 rax, QWORD PTR this$[rbp]
  0004e	c6 80 82 01 00
	00 00		 mov	 BYTE PTR [rax+386], 0

; 178  : 
; 179  : 	int iRandomX = rand() % 20 + 15;

  00055	ff 15 00 00 00
	00		 call	 QWORD PTR __imp_rand
  0005b	99		 cdq
  0005c	b9 14 00 00 00	 mov	 ecx, 20
  00061	f7 f9		 idiv	 ecx
  00063	8b c2		 mov	 eax, edx
  00065	83 c0 0f	 add	 eax, 15
  00068	89 45 04	 mov	 DWORD PTR iRandomX$[rbp], eax

; 180  : 	int iRandomZ = rand() % 25 + 35;

  0006b	ff 15 00 00 00
	00		 call	 QWORD PTR __imp_rand
  00071	99		 cdq
  00072	b9 19 00 00 00	 mov	 ecx, 25
  00077	f7 f9		 idiv	 ecx
  00079	8b c2		 mov	 eax, edx
  0007b	83 c0 23	 add	 eax, 35			; 00000023H
  0007e	89 45 24	 mov	 DWORD PTR iRandomZ$[rbp], eax

; 181  : 	SetPosition(_float3(iRandomX, 0.f, iRandomZ));

  00081	f3 0f 2a 45 24	 cvtsi2ss xmm0, DWORD PTR iRandomZ$[rbp]
  00086	f3 0f 2a 4d 04	 cvtsi2ss xmm1, DWORD PTR iRandomX$[rbp]
  0008b	0f 28 d8	 movaps	 xmm3, xmm0
  0008e	0f 57 d2	 xorps	 xmm2, xmm2
  00091	48 8d 8d 04 01
	00 00		 lea	 rcx, QWORD PTR $T1[rbp]
  00098	e8 00 00 00 00	 call	 ??0XMFLOAT3@DirectX@@QEAA@MMM@Z ; DirectX::XMFLOAT3::XMFLOAT3
  0009d	48 8d 8d 30 01
	00 00		 lea	 rcx, QWORD PTR $T2[rbp]
  000a4	48 8b f9	 mov	 rdi, rcx
  000a7	48 8b f0	 mov	 rsi, rax
  000aa	b9 0c 00 00 00	 mov	 ecx, 12
  000af	f3 a4		 rep movsb
  000b1	48 8d 95 30 01
	00 00		 lea	 rdx, QWORD PTR $T2[rbp]
  000b8	48 8b 8d 70 01
	00 00		 mov	 rcx, QWORD PTR this$[rbp]
  000bf	e8 00 00 00 00	 call	 ?SetPosition@CEnemy@Client@@QEAAXUXMFLOAT3@DirectX@@@Z ; Client::CEnemy::SetPosition

; 182  : 
; 183  : 	m_State.fCurHp = m_State.fMaxHp;

  000c4	48 8b 85 70 01
	00 00		 mov	 rax, QWORD PTR this$[rbp]
  000cb	48 8b 8d 70 01
	00 00		 mov	 rcx, QWORD PTR this$[rbp]
  000d2	f3 0f 10 81 30
	01 00 00	 movss	 xmm0, DWORD PTR [rcx+304]
  000da	f3 0f 11 80 2c
	01 00 00	 movss	 DWORD PTR [rax+300], xmm0

; 184  : 
; 185  : 	m_fNuckBackTimer = 0.0f;

  000e2	48 8b 85 70 01
	00 00		 mov	 rax, QWORD PTR this$[rbp]
  000e9	0f 57 c0	 xorps	 xmm0, xmm0
  000ec	f3 0f 11 80 98
	01 00 00	 movss	 DWORD PTR [rax+408], xmm0

; 186  : 	m_fDeadWaitTimer = 0.0f;

  000f4	48 8b 85 70 01
	00 00		 mov	 rax, QWORD PTR this$[rbp]
  000fb	0f 57 c0	 xorps	 xmm0, xmm0
  000fe	f3 0f 11 80 84
	01 00 00	 movss	 DWORD PTR [rax+388], xmm0

; 187  : 
; 188  : 	m_bTraceFinish = false;

  00106	48 8b 85 70 01
	00 00		 mov	 rax, QWORD PTR this$[rbp]
  0010d	c6 80 48 01 00
	00 00		 mov	 BYTE PTR [rax+328], 0

; 189  : 	m_bRotationFinish = false;

  00114	48 8b 85 70 01
	00 00		 mov	 rax, QWORD PTR this$[rbp]
  0011b	c6 80 49 01 00
	00 00		 mov	 BYTE PTR [rax+329], 0

; 190  : 	m_bAttack = false;

  00122	48 8b 85 70 01
	00 00		 mov	 rax, QWORD PTR this$[rbp]
  00129	c6 80 50 01 00
	00 00		 mov	 BYTE PTR [rax+336], 0

; 191  : 	m_bOverlapped = false;

  00130	48 8b 85 70 01
	00 00		 mov	 rax, QWORD PTR this$[rbp]
  00137	c6 80 68 01 00
	00 00		 mov	 BYTE PTR [rax+360], 0

; 192  : 	m_bMovable = false;

  0013e	48 8b 85 70 01
	00 00		 mov	 rax, QWORD PTR this$[rbp]
  00145	c6 80 80 01 00
	00 00		 mov	 BYTE PTR [rax+384], 0

; 193  : 	m_bHit = false;

  0014c	48 8b 85 70 01
	00 00		 mov	 rax, QWORD PTR this$[rbp]
  00153	c6 80 8f 01 00
	00 00		 mov	 BYTE PTR [rax+399], 0

; 194  : 	m_bNuckback = false;

  0015a	48 8b 85 70 01
	00 00		 mov	 rax, QWORD PTR this$[rbp]
  00161	c6 80 90 01 00
	00 00		 mov	 BYTE PTR [rax+400], 0

; 195  : 	m_bNuckBackFinish = false;

  00168	48 8b 85 70 01
	00 00		 mov	 rax, QWORD PTR this$[rbp]
  0016f	c6 80 91 01 00
	00 00		 mov	 BYTE PTR [rax+401], 0

; 196  : 	m_bAirHit = false;

  00176	48 8b 85 70 01
	00 00		 mov	 rax, QWORD PTR this$[rbp]
  0017d	c6 80 b4 01 00
	00 00		 mov	 BYTE PTR [rax+436], 0

; 197  : 	m_bAir = false;

  00184	48 8b 85 70 01
	00 00		 mov	 rax, QWORD PTR this$[rbp]
  0018b	c6 80 b5 01 00
	00 00		 mov	 BYTE PTR [rax+437], 0

; 198  : 	m_bStandupStart = false;

  00192	48 8b 85 70 01
	00 00		 mov	 rax, QWORD PTR this$[rbp]
  00199	c6 80 b6 01 00
	00 00		 mov	 BYTE PTR [rax+438], 0

; 199  : 	m_bHolding = false;

  001a0	48 8b 85 70 01
	00 00		 mov	 rax, QWORD PTR this$[rbp]
  001a7	c6 80 c0 01 00
	00 00		 mov	 BYTE PTR [rax+448], 0

; 200  : }

  001ae	48 8d a5 50 01
	00 00		 lea	 rsp, QWORD PTR [rbp+336]
  001b5	5f		 pop	 rdi
  001b6	5e		 pop	 rsi
  001b7	5d		 pop	 rbp
  001b8	c3		 ret	 0
?Reset@CEnemy@Client@@QEAAXXZ ENDP			; Client::CEnemy::Reset
_TEXT	ENDS
; Function compile flags: /Odtp /RTCsu /ZI
; File c:\github\framework\client\private\enemy.cpp
;	COMDAT ?GetWorldMatrix@CEnemy@Client@@QEAA?BUXMMATRIX@DirectX@@XZ
_TEXT	SEGMENT
$T1 = 208
$T2 = 292
$T3 = 400
this$ = 512
__$ReturnUdt$ = 520
?GetWorldMatrix@CEnemy@Client@@QEAA?BUXMMATRIX@DirectX@@XZ PROC ; Client::CEnemy::GetWorldMatrix, COMDAT

; 168  : {

$LN3:
  00000	48 89 54 24 10	 mov	 QWORD PTR [rsp+16], rdx
  00005	48 89 4c 24 08	 mov	 QWORD PTR [rsp+8], rcx
  0000a	55		 push	 rbp
  0000b	56		 push	 rsi
  0000c	57		 push	 rdi
  0000d	48 81 ec 00 02
	00 00		 sub	 rsp, 512		; 00000200H
  00014	48 8d 6c 24 20	 lea	 rbp, QWORD PTR [rsp+32]
  00019	48 8b fc	 mov	 rdi, rsp
  0001c	b9 80 00 00 00	 mov	 ecx, 128		; 00000080H
  00021	b8 cc cc cc cc	 mov	 eax, -858993460		; ccccccccH
  00026	f3 ab		 rep stosd
  00028	48 8b 8c 24 28
	02 00 00	 mov	 rcx, QWORD PTR [rsp+552]

; 169  : 	return XMLoadFloat4x4(&transform->Get_WorldMatrix());

  00030	48 8d 95 24 01
	00 00		 lea	 rdx, QWORD PTR $T2[rbp]
  00037	48 8b 85 00 02
	00 00		 mov	 rax, QWORD PTR this$[rbp]
  0003e	48 8b 88 98 00
	00 00		 mov	 rcx, QWORD PTR [rax+152]
  00045	ff 15 00 00 00
	00		 call	 QWORD PTR __imp_?Get_WorldMatrix@CTransform@Engine@@QEAA?AUXMFLOAT4X4@DirectX@@XZ
  0004b	48 8b c8	 mov	 rcx, rax
  0004e	e8 00 00 00 00	 call	 ?XMLoadFloat4x4@DirectX@@YQ?AUXMMATRIX@1@PEBUXMFLOAT4X4@1@@Z ; DirectX::XMLoadFloat4x4
  00053	0f 29 9d c0 01
	00 00		 movaps	 XMMWORD PTR $T3[rbp+48], xmm3
  0005a	0f 29 95 b0 01
	00 00		 movaps	 XMMWORD PTR $T3[rbp+32], xmm2
  00061	0f 29 8d a0 01
	00 00		 movaps	 XMMWORD PTR $T3[rbp+16], xmm1
  00068	0f 29 85 90 01
	00 00		 movaps	 XMMWORD PTR $T3[rbp], xmm0
  0006f	48 8d 85 d0 00
	00 00		 lea	 rax, QWORD PTR $T1[rbp]
  00076	48 8d 8d 90 01
	00 00		 lea	 rcx, QWORD PTR $T3[rbp]
  0007d	48 8b f8	 mov	 rdi, rax
  00080	48 8b f1	 mov	 rsi, rcx
  00083	b9 40 00 00 00	 mov	 ecx, 64			; 00000040H
  00088	f3 a4		 rep movsb
  0008a	48 8d 85 d0 00
	00 00		 lea	 rax, QWORD PTR $T1[rbp]
  00091	48 8b bd 08 02
	00 00		 mov	 rdi, QWORD PTR __$ReturnUdt$[rbp]
  00098	48 8b f0	 mov	 rsi, rax
  0009b	b9 40 00 00 00	 mov	 ecx, 64			; 00000040H
  000a0	f3 a4		 rep movsb
  000a2	48 8b 85 08 02
	00 00		 mov	 rax, QWORD PTR __$ReturnUdt$[rbp]

; 170  : }

  000a9	48 8d a5 e0 01
	00 00		 lea	 rsp, QWORD PTR [rbp+480]
  000b0	5f		 pop	 rdi
  000b1	5e		 pop	 rsi
  000b2	5d		 pop	 rbp
  000b3	c3		 ret	 0
?GetWorldMatrix@CEnemy@Client@@QEAA?BUXMMATRIX@DirectX@@XZ ENDP ; Client::CEnemy::GetWorldMatrix
_TEXT	ENDS
; Function compile flags: /Odtp /RTCsu /ZI
; File c:\github\framework\client\private\enemy.cpp
;	COMDAT ?RenderGUI@CEnemy@Client@@UEAAXXZ
_TEXT	SEGMENT
this$ = 224
?RenderGUI@CEnemy@Client@@UEAAXXZ PROC			; Client::CEnemy::RenderGUI, COMDAT

; 164  : {

$LN3:
  00000	48 89 4c 24 08	 mov	 QWORD PTR [rsp+8], rcx
  00005	55		 push	 rbp
  00006	57		 push	 rdi
  00007	48 81 ec c8 00
	00 00		 sub	 rsp, 200		; 000000c8H
  0000e	48 8b ec	 mov	 rbp, rsp
  00011	48 8b fc	 mov	 rdi, rsp
  00014	b9 32 00 00 00	 mov	 ecx, 50			; 00000032H
  00019	b8 cc cc cc cc	 mov	 eax, -858993460		; ccccccccH
  0001e	f3 ab		 rep stosd
  00020	48 8b 8c 24 e8
	00 00 00	 mov	 rcx, QWORD PTR [rsp+232]

; 165  : }

  00028	48 8d a5 c8 00
	00 00		 lea	 rsp, QWORD PTR [rbp+200]
  0002f	5f		 pop	 rdi
  00030	5d		 pop	 rbp
  00031	c3		 ret	 0
?RenderGUI@CEnemy@Client@@UEAAXXZ ENDP			; Client::CEnemy::RenderGUI
_TEXT	ENDS
; Function compile flags: /Odtp /RTCsu /ZI
; File c:\github\framework\client\private\enemy.cpp
;	COMDAT ?Render@CEnemy@Client@@UEAAJXZ
_TEXT	SEGMENT
MeshCount$ = 4
i$1 = 36
this$ = 288
?Render@CEnemy@Client@@UEAAJXZ PROC			; Client::CEnemy::Render, COMDAT

; 135  : {

$LN12:
  00000	48 89 4c 24 08	 mov	 QWORD PTR [rsp+8], rcx
  00005	55		 push	 rbp
  00006	57		 push	 rdi
  00007	48 81 ec 38 01
	00 00		 sub	 rsp, 312		; 00000138H
  0000e	48 8d 6c 24 30	 lea	 rbp, QWORD PTR [rsp+48]
  00013	48 8b fc	 mov	 rdi, rsp
  00016	b9 4e 00 00 00	 mov	 ecx, 78			; 0000004eH
  0001b	b8 cc cc cc cc	 mov	 eax, -858993460		; ccccccccH
  00020	f3 ab		 rep stosd
  00022	48 8b 8c 24 58
	01 00 00	 mov	 rcx, QWORD PTR [rsp+344]

; 136  : 	if (FAILED(__super::Render()))

  0002a	48 8b 8d 20 01
	00 00		 mov	 rcx, QWORD PTR this$[rbp]
  00031	ff 15 00 00 00
	00		 call	 QWORD PTR __imp_?Render@CGameObject@Engine@@UEAAJXZ
  00037	85 c0		 test	 eax, eax
  00039	7d 0a		 jge	 SHORT $LN5@Render

; 137  : 		return E_FAIL;

  0003b	b8 05 40 00 80	 mov	 eax, -2147467259	; ffffffff80004005H
  00040	e9 67 01 00 00	 jmp	 $LN1@Render
$LN5@Render:

; 138  : 
; 139  : 	if (FAILED(SetupShaderResources()))

  00045	48 8b 8d 20 01
	00 00		 mov	 rcx, QWORD PTR this$[rbp]
  0004c	e8 00 00 00 00	 call	 ?SetupShaderResources@CEnemy@Client@@AEAAJXZ ; Client::CEnemy::SetupShaderResources
  00051	85 c0		 test	 eax, eax
  00053	7d 0a		 jge	 SHORT $LN6@Render

; 140  : 		return E_FAIL;

  00055	b8 05 40 00 80	 mov	 eax, -2147467259	; ffffffff80004005H
  0005a	e9 4d 01 00 00	 jmp	 $LN1@Render
$LN6@Render:

; 141  : 
; 142  : 	_uint MeshCount = model->Get_MeshCount();

  0005f	48 8b 85 20 01
	00 00		 mov	 rax, QWORD PTR this$[rbp]
  00066	48 8b 88 a0 00
	00 00		 mov	 rcx, QWORD PTR [rax+160]
  0006d	ff 15 00 00 00
	00		 call	 QWORD PTR __imp_?Get_MeshCount@CModel@Engine@@QEAAIXZ
  00073	89 45 04	 mov	 DWORD PTR MeshCount$[rbp], eax

; 143  : 	for (_uint i = 0; i < MeshCount; ++i)

  00076	c7 45 24 00 00
	00 00		 mov	 DWORD PTR i$1[rbp], 0
  0007d	eb 08		 jmp	 SHORT $LN4@Render
$LN2@Render:
  0007f	8b 45 24	 mov	 eax, DWORD PTR i$1[rbp]
  00082	ff c0		 inc	 eax
  00084	89 45 24	 mov	 DWORD PTR i$1[rbp], eax
$LN4@Render:
  00087	8b 45 04	 mov	 eax, DWORD PTR MeshCount$[rbp]
  0008a	39 45 24	 cmp	 DWORD PTR i$1[rbp], eax
  0008d	0f 83 17 01 00
	00		 jae	 $LN3@Render

; 144  : 	{
; 145  : 		if (!strcmp("Cheek", model->GetMeshName(i)) || !strcmp("Cheek01", model->GetMeshName(i)))

  00093	8b 55 24	 mov	 edx, DWORD PTR i$1[rbp]
  00096	48 8b 85 20 01
	00 00		 mov	 rax, QWORD PTR this$[rbp]
  0009d	48 8b 88 a0 00
	00 00		 mov	 rcx, QWORD PTR [rax+160]
  000a4	ff 15 00 00 00
	00		 call	 QWORD PTR __imp_?GetMeshName@CModel@Engine@@QEAAPEBDI@Z
  000aa	48 8b d0	 mov	 rdx, rax
  000ad	48 8d 0d 00 00
	00 00		 lea	 rcx, OFFSET FLAT:??_C@_05KKFOKGIE@Cheek?$AA@
  000b4	e8 00 00 00 00	 call	 strcmp
  000b9	85 c0		 test	 eax, eax
  000bb	74 2a		 je	 SHORT $LN8@Render
  000bd	8b 55 24	 mov	 edx, DWORD PTR i$1[rbp]
  000c0	48 8b 85 20 01
	00 00		 mov	 rax, QWORD PTR this$[rbp]
  000c7	48 8b 88 a0 00
	00 00		 mov	 rcx, QWORD PTR [rax+160]
  000ce	ff 15 00 00 00
	00		 call	 QWORD PTR __imp_?GetMeshName@CModel@Engine@@QEAAPEBDI@Z
  000d4	48 8b d0	 mov	 rdx, rax
  000d7	48 8d 0d 00 00
	00 00		 lea	 rcx, OFFSET FLAT:??_C@_07ICGMBDOO@Cheek01?$AA@
  000de	e8 00 00 00 00	 call	 strcmp
  000e3	85 c0		 test	 eax, eax
  000e5	75 02		 jne	 SHORT $LN7@Render
$LN8@Render:

; 146  : 			continue;

  000e7	eb 96		 jmp	 SHORT $LN2@Render
$LN7@Render:

; 147  : 
; 148  : 		model->Setup_ShaderMaterialResource(shader, "g_DiffuseTexture", i, aiTextureType::aiTextureType_DIFFUSE);

  000e9	c7 44 24 20 01
	00 00 00	 mov	 DWORD PTR [rsp+32], 1
  000f1	44 8b 4d 24	 mov	 r9d, DWORD PTR i$1[rbp]
  000f5	4c 8d 05 00 00
	00 00		 lea	 r8, OFFSET FLAT:??_C@_0BB@FMIBAICL@g_DiffuseTexture?$AA@
  000fc	48 8b 85 20 01
	00 00		 mov	 rax, QWORD PTR this$[rbp]
  00103	48 8b 90 a8 00
	00 00		 mov	 rdx, QWORD PTR [rax+168]
  0010a	48 8b 85 20 01
	00 00		 mov	 rax, QWORD PTR this$[rbp]
  00111	48 8b 88 a0 00
	00 00		 mov	 rcx, QWORD PTR [rax+160]
  00118	ff 15 00 00 00
	00		 call	 QWORD PTR __imp_?Setup_ShaderMaterialResource@CModel@Engine@@QEAAJPEAVCShader@2@PEBDIW4aiTextureType@@@Z

; 149  : 
; 150  : 		model->Setup_BoneMatrices(shader, "g_BoneMatrix", i);

  0011e	44 8b 4d 24	 mov	 r9d, DWORD PTR i$1[rbp]
  00122	4c 8d 05 00 00
	00 00		 lea	 r8, OFFSET FLAT:??_C@_0N@OEHGEODD@g_BoneMatrix?$AA@
  00129	48 8b 85 20 01
	00 00		 mov	 rax, QWORD PTR this$[rbp]
  00130	48 8b 90 a8 00
	00 00		 mov	 rdx, QWORD PTR [rax+168]
  00137	48 8b 85 20 01
	00 00		 mov	 rax, QWORD PTR this$[rbp]
  0013e	48 8b 88 a0 00
	00 00		 mov	 rcx, QWORD PTR [rax+160]
  00145	ff 15 00 00 00
	00		 call	 QWORD PTR __imp_?Setup_BoneMatrices@CModel@Engine@@QEAAJPEAVCShader@2@PEBDI@Z

; 151  : 
; 152  : 		if(m_bAlpha)

  0014b	48 8b 85 20 01
	00 00		 mov	 rax, QWORD PTR this$[rbp]
  00152	0f b6 80 c8 01
	00 00		 movzx	 eax, BYTE PTR [rax+456]
  00159	85 c0		 test	 eax, eax
  0015b	74 1b		 je	 SHORT $LN9@Render

; 153  : 			shader->Begin(1);

  0015d	ba 01 00 00 00	 mov	 edx, 1
  00162	48 8b 85 20 01
	00 00		 mov	 rax, QWORD PTR this$[rbp]
  00169	48 8b 88 a8 00
	00 00		 mov	 rcx, QWORD PTR [rax+168]
  00170	ff 15 00 00 00
	00		 call	 QWORD PTR __imp_?Begin@CShader@Engine@@QEAAJI@Z

; 154  : 		else

  00176	eb 16		 jmp	 SHORT $LN10@Render
$LN9@Render:

; 155  : 			shader->Begin(0);

  00178	33 d2		 xor	 edx, edx
  0017a	48 8b 85 20 01
	00 00		 mov	 rax, QWORD PTR this$[rbp]
  00181	48 8b 88 a8 00
	00 00		 mov	 rcx, QWORD PTR [rax+168]
  00188	ff 15 00 00 00
	00		 call	 QWORD PTR __imp_?Begin@CShader@Engine@@QEAAJI@Z
$LN10@Render:

; 156  : 
; 157  : 		model->Render(i);

  0018e	8b 55 24	 mov	 edx, DWORD PTR i$1[rbp]
  00191	48 8b 85 20 01
	00 00		 mov	 rax, QWORD PTR this$[rbp]
  00198	48 8b 88 a0 00
	00 00		 mov	 rcx, QWORD PTR [rax+160]
  0019f	ff 15 00 00 00
	00		 call	 QWORD PTR __imp_?Render@CModel@Engine@@QEAAJI@Z

; 158  : 	}

  001a5	e9 d5 fe ff ff	 jmp	 $LN2@Render
$LN3@Render:

; 159  : 
; 160  : 	return S_OK;

  001aa	33 c0		 xor	 eax, eax
$LN1@Render:

; 161  : }

  001ac	48 8d a5 08 01
	00 00		 lea	 rsp, QWORD PTR [rbp+264]
  001b3	5f		 pop	 rdi
  001b4	5d		 pop	 rbp
  001b5	c3		 ret	 0
?Render@CEnemy@Client@@UEAAJXZ ENDP			; Client::CEnemy::Render
_TEXT	ENDS
; Function compile flags: /Odtp /RTCsu /ZI
; File c:\github\framework\client\private\enemy.cpp
;	COMDAT ?LateTick@CEnemy@Client@@UEAAXN@Z
_TEXT	SEGMENT
tranMatrix$ = 16
overlapMatrix$ = 112
$T5 = 1360
$T6 = 1456
$T7 = 1552
$T8 = 1648
$T9 = 1732
$T10 = 1840
$T11 = 1924
$T12 = 2032
$T13 = 2116
$T14 = 2224
$T15 = 2308
$T16 = 2416
$T17 = 2500
$T18 = 2608
$T19 = 2704
$T20 = 2788
$T21 = 2896
$T22 = 2992
$T23 = 3088
$T24 = 3184
$T25 = 3280
$T26 = 3376
$T27 = 3472
$T28 = 3568
$T29 = 3664
$T30 = 3760
$T31 = 3856
$T32 = 3952
$T33 = 4048
__$ArrayPad$ = 4120
this$ = 4160
TimeDelta$ = 4168
?LateTick@CEnemy@Client@@UEAAXN@Z PROC			; Client::CEnemy::LateTick, COMDAT

; 115  : {

$LN4:
  00000	f2 0f 11 4c 24
	10		 movsd	 QWORD PTR [rsp+16], xmm1
  00006	48 89 4c 24 08	 mov	 QWORD PTR [rsp+8], rcx
  0000b	55		 push	 rbp
  0000c	56		 push	 rsi
  0000d	57		 push	 rdi
  0000e	b8 50 10 00 00	 mov	 eax, 4176		; 00001050H
  00013	e8 00 00 00 00	 call	 __chkstk
  00018	48 2b e0	 sub	 rsp, rax
  0001b	48 8d 6c 24 30	 lea	 rbp, QWORD PTR [rsp+48]
  00020	48 8b fc	 mov	 rdi, rsp
  00023	b9 14 04 00 00	 mov	 ecx, 1044		; 00000414H
  00028	b8 cc cc cc cc	 mov	 eax, -858993460		; ccccccccH
  0002d	f3 ab		 rep stosd
  0002f	48 8b 8c 24 78
	10 00 00	 mov	 rcx, QWORD PTR [rsp+4216]
  00037	48 8b 05 00 00
	00 00		 mov	 rax, QWORD PTR __security_cookie
  0003e	48 33 c5	 xor	 rax, rbp
  00041	48 89 85 18 10
	00 00		 mov	 QWORD PTR __$ArrayPad$[rbp], rax

; 116  : 	TimeDelta = Freeze(TimeDelta);

  00048	f2 0f 10 8d 48
	10 00 00	 movsd	 xmm1, QWORD PTR TimeDelta$[rbp]
  00050	48 8b 8d 40 10
	00 00		 mov	 rcx, QWORD PTR this$[rbp]
  00057	e8 00 00 00 00	 call	 ?Freeze@CEnemy@Client@@AEAANN@Z ; Client::CEnemy::Freeze
  0005c	f2 0f 11 85 48
	10 00 00	 movsd	 QWORD PTR TimeDelta$[rbp], xmm0

; 117  : 
; 118  : 	__super::LateTick(TimeDelta);

  00064	f2 0f 10 8d 48
	10 00 00	 movsd	 xmm1, QWORD PTR TimeDelta$[rbp]
  0006c	48 8b 8d 40 10
	00 00		 mov	 rcx, QWORD PTR this$[rbp]
  00073	ff 15 00 00 00
	00		 call	 QWORD PTR __imp_?LateTick@CGameObject@Engine@@UEAAXN@Z

; 119  : 	
; 120  : 	model->Play_Animation(TimeDelta, transform, 0.2);

  00079	c6 44 24 20 01	 mov	 BYTE PTR [rsp+32], 1
  0007e	f2 0f 10 1d 00
	00 00 00	 movsd	 xmm3, QWORD PTR __real@3fc999999999999a
  00086	48 8b 85 40 10
	00 00		 mov	 rax, QWORD PTR this$[rbp]
  0008d	4c 8b 80 98 00
	00 00		 mov	 r8, QWORD PTR [rax+152]
  00094	f2 0f 10 8d 48
	10 00 00	 movsd	 xmm1, QWORD PTR TimeDelta$[rbp]
  0009c	48 8b 85 40 10
	00 00		 mov	 rax, QWORD PTR this$[rbp]
  000a3	48 8b 88 a0 00
	00 00		 mov	 rcx, QWORD PTR [rax+160]
  000aa	ff 15 00 00 00
	00		 call	 QWORD PTR __imp_?Play_Animation@CModel@Engine@@QEAAJNPEAVCTransform@2@N_N@Z

; 121  : 
; 122  : 	_matrix tranMatrix = XMLoadFloat4x4(&bone->GetOffSetMatrix()) * XMLoadFloat4x4(&bone->GetCombinedMatrix()) * XMLoadFloat4x4(&model->GetLocalMatrix()) * XMLoadFloat4x4(&transform->Get_WorldMatrix());

  000b0	48 8d 95 04 09
	00 00		 lea	 rdx, QWORD PTR $T15[rbp]
  000b7	48 8b 85 40 10
	00 00		 mov	 rax, QWORD PTR this$[rbp]
  000be	48 8b 88 98 00
	00 00		 mov	 rcx, QWORD PTR [rax+152]
  000c5	ff 15 00 00 00
	00		 call	 QWORD PTR __imp_?Get_WorldMatrix@CTransform@Engine@@QEAA?AUXMFLOAT4X4@DirectX@@XZ
  000cb	48 8b c8	 mov	 rcx, rax
  000ce	e8 00 00 00 00	 call	 ?XMLoadFloat4x4@DirectX@@YQ?AUXMMATRIX@1@PEBUXMFLOAT4X4@1@@Z ; DirectX::XMLoadFloat4x4
  000d3	0f 29 9d e0 0e
	00 00		 movaps	 XMMWORD PTR $T30[rbp+48], xmm3
  000da	0f 29 95 d0 0e
	00 00		 movaps	 XMMWORD PTR $T30[rbp+32], xmm2
  000e1	0f 29 8d c0 0e
	00 00		 movaps	 XMMWORD PTR $T30[rbp+16], xmm1
  000e8	0f 29 85 b0 0e
	00 00		 movaps	 XMMWORD PTR $T30[rbp], xmm0
  000ef	48 8d 85 b0 08
	00 00		 lea	 rax, QWORD PTR $T14[rbp]
  000f6	48 8d 8d b0 0e
	00 00		 lea	 rcx, QWORD PTR $T30[rbp]
  000fd	48 8b f8	 mov	 rdi, rax
  00100	48 8b f1	 mov	 rsi, rcx
  00103	b9 40 00 00 00	 mov	 ecx, 64			; 00000040H
  00108	f3 a4		 rep movsb
  0010a	48 8d 95 44 08
	00 00		 lea	 rdx, QWORD PTR $T13[rbp]
  00111	48 8b 85 40 10
	00 00		 mov	 rax, QWORD PTR this$[rbp]
  00118	48 8b 88 a0 00
	00 00		 mov	 rcx, QWORD PTR [rax+160]
  0011f	ff 15 00 00 00
	00		 call	 QWORD PTR __imp_?GetLocalMatrix@CModel@Engine@@QEBA?AUXMFLOAT4X4@DirectX@@XZ
  00125	48 8b c8	 mov	 rcx, rax
  00128	e8 00 00 00 00	 call	 ?XMLoadFloat4x4@DirectX@@YQ?AUXMMATRIX@1@PEBUXMFLOAT4X4@1@@Z ; DirectX::XMLoadFloat4x4
  0012d	0f 29 9d 20 0e
	00 00		 movaps	 XMMWORD PTR $T28[rbp+48], xmm3
  00134	0f 29 95 10 0e
	00 00		 movaps	 XMMWORD PTR $T28[rbp+32], xmm2
  0013b	0f 29 8d 00 0e
	00 00		 movaps	 XMMWORD PTR $T28[rbp+16], xmm1
  00142	0f 29 85 f0 0d
	00 00		 movaps	 XMMWORD PTR $T28[rbp], xmm0
  00149	48 8d 85 f0 07
	00 00		 lea	 rax, QWORD PTR $T12[rbp]
  00150	48 8d 8d f0 0d
	00 00		 lea	 rcx, QWORD PTR $T28[rbp]
  00157	48 8b f8	 mov	 rdi, rax
  0015a	48 8b f1	 mov	 rsi, rcx
  0015d	b9 40 00 00 00	 mov	 ecx, 64			; 00000040H
  00162	f3 a4		 rep movsb
  00164	48 8d 95 84 07
	00 00		 lea	 rdx, QWORD PTR $T11[rbp]
  0016b	48 8b 85 40 10
	00 00		 mov	 rax, QWORD PTR this$[rbp]
  00172	48 8b 88 20 01
	00 00		 mov	 rcx, QWORD PTR [rax+288]
  00179	e8 00 00 00 00	 call	 ?GetCombinedMatrix@CBone@Engine@@QEBA?AUXMFLOAT4X4@DirectX@@XZ ; Engine::CBone::GetCombinedMatrix
  0017e	48 8b c8	 mov	 rcx, rax
  00181	e8 00 00 00 00	 call	 ?XMLoadFloat4x4@DirectX@@YQ?AUXMMATRIX@1@PEBUXMFLOAT4X4@1@@Z ; DirectX::XMLoadFloat4x4
  00186	0f 29 9d 60 0d
	00 00		 movaps	 XMMWORD PTR $T26[rbp+48], xmm3
  0018d	0f 29 95 50 0d
	00 00		 movaps	 XMMWORD PTR $T26[rbp+32], xmm2
  00194	0f 29 8d 40 0d
	00 00		 movaps	 XMMWORD PTR $T26[rbp+16], xmm1
  0019b	0f 29 85 30 0d
	00 00		 movaps	 XMMWORD PTR $T26[rbp], xmm0
  001a2	48 8d 85 30 07
	00 00		 lea	 rax, QWORD PTR $T10[rbp]
  001a9	48 8d 8d 30 0d
	00 00		 lea	 rcx, QWORD PTR $T26[rbp]
  001b0	48 8b f8	 mov	 rdi, rax
  001b3	48 8b f1	 mov	 rsi, rcx
  001b6	b9 40 00 00 00	 mov	 ecx, 64			; 00000040H
  001bb	f3 a4		 rep movsb
  001bd	48 8d 95 c4 06
	00 00		 lea	 rdx, QWORD PTR $T9[rbp]
  001c4	48 8b 85 40 10
	00 00		 mov	 rax, QWORD PTR this$[rbp]
  001cb	48 8b 88 20 01
	00 00		 mov	 rcx, QWORD PTR [rax+288]
  001d2	e8 00 00 00 00	 call	 ?GetOffSetMatrix@CBone@Engine@@QEBA?AUXMFLOAT4X4@DirectX@@XZ ; Engine::CBone::GetOffSetMatrix
  001d7	48 8b c8	 mov	 rcx, rax
  001da	e8 00 00 00 00	 call	 ?XMLoadFloat4x4@DirectX@@YQ?AUXMMATRIX@1@PEBUXMFLOAT4X4@1@@Z ; DirectX::XMLoadFloat4x4
  001df	0f 29 9d a0 0c
	00 00		 movaps	 XMMWORD PTR $T24[rbp+48], xmm3
  001e6	0f 29 95 90 0c
	00 00		 movaps	 XMMWORD PTR $T24[rbp+32], xmm2
  001ed	0f 29 8d 80 0c
	00 00		 movaps	 XMMWORD PTR $T24[rbp+16], xmm1
  001f4	0f 29 85 70 0c
	00 00		 movaps	 XMMWORD PTR $T24[rbp], xmm0
  001fb	48 8d 85 70 06
	00 00		 lea	 rax, QWORD PTR $T8[rbp]
  00202	48 8d 8d 70 0c
	00 00		 lea	 rcx, QWORD PTR $T24[rbp]
  00209	48 8b f8	 mov	 rdi, rax
  0020c	48 8b f1	 mov	 rsi, rcx
  0020f	b9 40 00 00 00	 mov	 ecx, 64			; 00000040H
  00214	f3 a4		 rep movsb
  00216	0f 28 85 30 07
	00 00		 movaps	 xmm0, XMMWORD PTR $T10[rbp]
  0021d	0f 28 8d 40 07
	00 00		 movaps	 xmm1, XMMWORD PTR $T10[rbp+16]
  00224	0f 28 95 50 07
	00 00		 movaps	 xmm2, XMMWORD PTR $T10[rbp+32]
  0022b	0f 28 9d 60 07
	00 00		 movaps	 xmm3, XMMWORD PTR $T10[rbp+48]
  00232	48 8d 8d 70 06
	00 00		 lea	 rcx, QWORD PTR $T8[rbp]
  00239	e8 00 00 00 00	 call	 ??DXMMATRIX@DirectX@@QEBQ?AU01@U01@@Z ; DirectX::XMMATRIX::operator*
  0023e	0f 29 9d 00 0d
	00 00		 movaps	 XMMWORD PTR $T25[rbp+48], xmm3
  00245	0f 29 95 f0 0c
	00 00		 movaps	 XMMWORD PTR $T25[rbp+32], xmm2
  0024c	0f 29 8d e0 0c
	00 00		 movaps	 XMMWORD PTR $T25[rbp+16], xmm1
  00253	0f 29 85 d0 0c
	00 00		 movaps	 XMMWORD PTR $T25[rbp], xmm0
  0025a	48 8d 85 10 06
	00 00		 lea	 rax, QWORD PTR $T7[rbp]
  00261	48 8d 8d d0 0c
	00 00		 lea	 rcx, QWORD PTR $T25[rbp]
  00268	48 8b f8	 mov	 rdi, rax
  0026b	48 8b f1	 mov	 rsi, rcx
  0026e	b9 40 00 00 00	 mov	 ecx, 64			; 00000040H
  00273	f3 a4		 rep movsb
  00275	0f 28 85 f0 07
	00 00		 movaps	 xmm0, XMMWORD PTR $T12[rbp]
  0027c	0f 28 8d 00 08
	00 00		 movaps	 xmm1, XMMWORD PTR $T12[rbp+16]
  00283	0f 28 95 10 08
	00 00		 movaps	 xmm2, XMMWORD PTR $T12[rbp+32]
  0028a	0f 28 9d 20 08
	00 00		 movaps	 xmm3, XMMWORD PTR $T12[rbp+48]
  00291	48 8d 8d 10 06
	00 00		 lea	 rcx, QWORD PTR $T7[rbp]
  00298	e8 00 00 00 00	 call	 ??DXMMATRIX@DirectX@@QEBQ?AU01@U01@@Z ; DirectX::XMMATRIX::operator*
  0029d	0f 29 9d c0 0d
	00 00		 movaps	 XMMWORD PTR $T27[rbp+48], xmm3
  002a4	0f 29 95 b0 0d
	00 00		 movaps	 XMMWORD PTR $T27[rbp+32], xmm2
  002ab	0f 29 8d a0 0d
	00 00		 movaps	 XMMWORD PTR $T27[rbp+16], xmm1
  002b2	0f 29 85 90 0d
	00 00		 movaps	 XMMWORD PTR $T27[rbp], xmm0
  002b9	48 8d 85 b0 05
	00 00		 lea	 rax, QWORD PTR $T6[rbp]
  002c0	48 8d 8d 90 0d
	00 00		 lea	 rcx, QWORD PTR $T27[rbp]
  002c7	48 8b f8	 mov	 rdi, rax
  002ca	48 8b f1	 mov	 rsi, rcx
  002cd	b9 40 00 00 00	 mov	 ecx, 64			; 00000040H
  002d2	f3 a4		 rep movsb
  002d4	0f 28 85 b0 08
	00 00		 movaps	 xmm0, XMMWORD PTR $T14[rbp]
  002db	0f 28 8d c0 08
	00 00		 movaps	 xmm1, XMMWORD PTR $T14[rbp+16]
  002e2	0f 28 95 d0 08
	00 00		 movaps	 xmm2, XMMWORD PTR $T14[rbp+32]
  002e9	0f 28 9d e0 08
	00 00		 movaps	 xmm3, XMMWORD PTR $T14[rbp+48]
  002f0	48 8d 8d b0 05
	00 00		 lea	 rcx, QWORD PTR $T6[rbp]
  002f7	e8 00 00 00 00	 call	 ??DXMMATRIX@DirectX@@QEBQ?AU01@U01@@Z ; DirectX::XMMATRIX::operator*
  002fc	0f 29 9d 80 0e
	00 00		 movaps	 XMMWORD PTR $T29[rbp+48], xmm3
  00303	0f 29 95 70 0e
	00 00		 movaps	 XMMWORD PTR $T29[rbp+32], xmm2
  0030a	0f 29 8d 60 0e
	00 00		 movaps	 XMMWORD PTR $T29[rbp+16], xmm1
  00311	0f 29 85 50 0e
	00 00		 movaps	 XMMWORD PTR $T29[rbp], xmm0
  00318	48 8d 85 50 05
	00 00		 lea	 rax, QWORD PTR $T5[rbp]
  0031f	48 8d 8d 50 0e
	00 00		 lea	 rcx, QWORD PTR $T29[rbp]
  00326	48 8b f8	 mov	 rdi, rax
  00329	48 8b f1	 mov	 rsi, rcx
  0032c	b9 40 00 00 00	 mov	 ecx, 64			; 00000040H
  00331	f3 a4		 rep movsb
  00333	48 8d 45 10	 lea	 rax, QWORD PTR tranMatrix$[rbp]
  00337	48 8d 8d 50 05
	00 00		 lea	 rcx, QWORD PTR $T5[rbp]
  0033e	48 8b f8	 mov	 rdi, rax
  00341	48 8b f1	 mov	 rsi, rcx
  00344	b9 40 00 00 00	 mov	 ecx, 64			; 00000040H
  00349	f3 a4		 rep movsb

; 123  : 	
; 124  : 	_float4x4 overlapMatrix = transform->Get_WorldMatrix();

  0034b	48 8d 55 70	 lea	 rdx, QWORD PTR overlapMatrix$[rbp]
  0034f	48 8b 85 40 10
	00 00		 mov	 rax, QWORD PTR this$[rbp]
  00356	48 8b 88 98 00
	00 00		 mov	 rcx, QWORD PTR [rax+152]
  0035d	ff 15 00 00 00
	00		 call	 QWORD PTR __imp_?Get_WorldMatrix@CTransform@Engine@@QEAA?AUXMFLOAT4X4@DirectX@@XZ

; 125  : 	//collider->Update(XMLoadFloat4x4(&transform->Get_WorldMatrix()));
; 126  : 	collider->Update(XMLoadFloat4x4(&transform->Get_WorldMatrix()));

  00363	48 8d 95 c4 09
	00 00		 lea	 rdx, QWORD PTR $T17[rbp]
  0036a	48 8b 85 40 10
	00 00		 mov	 rax, QWORD PTR this$[rbp]
  00371	48 8b 88 98 00
	00 00		 mov	 rcx, QWORD PTR [rax+152]
  00378	ff 15 00 00 00
	00		 call	 QWORD PTR __imp_?Get_WorldMatrix@CTransform@Engine@@QEAA?AUXMFLOAT4X4@DirectX@@XZ
  0037e	48 8b c8	 mov	 rcx, rax
  00381	e8 00 00 00 00	 call	 ?XMLoadFloat4x4@DirectX@@YQ?AUXMMATRIX@1@PEBUXMFLOAT4X4@1@@Z ; DirectX::XMLoadFloat4x4
  00386	0f 29 9d 40 0f
	00 00		 movaps	 XMMWORD PTR $T31[rbp+48], xmm3
  0038d	0f 29 95 30 0f
	00 00		 movaps	 XMMWORD PTR $T31[rbp+32], xmm2
  00394	0f 29 8d 20 0f
	00 00		 movaps	 XMMWORD PTR $T31[rbp+16], xmm1
  0039b	0f 29 85 10 0f
	00 00		 movaps	 XMMWORD PTR $T31[rbp], xmm0
  003a2	48 8d 85 70 09
	00 00		 lea	 rax, QWORD PTR $T16[rbp]
  003a9	48 8d 8d 10 0f
	00 00		 lea	 rcx, QWORD PTR $T31[rbp]
  003b0	48 8b f8	 mov	 rdi, rax
  003b3	48 8b f1	 mov	 rsi, rcx
  003b6	b9 40 00 00 00	 mov	 ecx, 64			; 00000040H
  003bb	f3 a4		 rep movsb
  003bd	48 8d 85 50 0b
	00 00		 lea	 rax, QWORD PTR $T21[rbp]
  003c4	48 8d 8d 70 09
	00 00		 lea	 rcx, QWORD PTR $T16[rbp]
  003cb	48 8b f8	 mov	 rdi, rax
  003ce	48 8b f1	 mov	 rsi, rcx
  003d1	b9 40 00 00 00	 mov	 ecx, 64			; 00000040H
  003d6	f3 a4		 rep movsb
  003d8	48 8b 85 40 10
	00 00		 mov	 rax, QWORD PTR this$[rbp]
  003df	48 8b 80 b0 00
	00 00		 mov	 rax, QWORD PTR [rax+176]
  003e6	48 8b 8d 40 10
	00 00		 mov	 rcx, QWORD PTR this$[rbp]
  003ed	48 8b 89 b0 00
	00 00		 mov	 rcx, QWORD PTR [rcx+176]
  003f4	48 8b 00	 mov	 rax, QWORD PTR [rax]
  003f7	48 8d 95 50 0b
	00 00		 lea	 rdx, QWORD PTR $T21[rbp]
  003fe	ff 50 30	 call	 QWORD PTR [rax+48]

; 127  : 	m_pOverlapCollider->Update(XMLoadFloat4x4(&overlapMatrix));

  00401	48 8d 4d 70	 lea	 rcx, QWORD PTR overlapMatrix$[rbp]
  00405	e8 00 00 00 00	 call	 ?XMLoadFloat4x4@DirectX@@YQ?AUXMMATRIX@1@PEBUXMFLOAT4X4@1@@Z ; DirectX::XMLoadFloat4x4
  0040a	0f 29 9d a0 0f
	00 00		 movaps	 XMMWORD PTR $T32[rbp+48], xmm3
  00411	0f 29 95 90 0f
	00 00		 movaps	 XMMWORD PTR $T32[rbp+32], xmm2
  00418	0f 29 8d 80 0f
	00 00		 movaps	 XMMWORD PTR $T32[rbp+16], xmm1
  0041f	0f 29 85 70 0f
	00 00		 movaps	 XMMWORD PTR $T32[rbp], xmm0
  00426	48 8d 85 30 0a
	00 00		 lea	 rax, QWORD PTR $T18[rbp]
  0042d	48 8d 8d 70 0f
	00 00		 lea	 rcx, QWORD PTR $T32[rbp]
  00434	48 8b f8	 mov	 rdi, rax
  00437	48 8b f1	 mov	 rsi, rcx
  0043a	b9 40 00 00 00	 mov	 ecx, 64			; 00000040H
  0043f	f3 a4		 rep movsb
  00441	48 8d 85 b0 0b
	00 00		 lea	 rax, QWORD PTR $T22[rbp]
  00448	48 8d 8d 30 0a
	00 00		 lea	 rcx, QWORD PTR $T18[rbp]
  0044f	48 8b f8	 mov	 rdi, rax
  00452	48 8b f1	 mov	 rsi, rcx
  00455	b9 40 00 00 00	 mov	 ecx, 64			; 00000040H
  0045a	f3 a4		 rep movsb
  0045c	48 8b 85 40 10
	00 00		 mov	 rax, QWORD PTR this$[rbp]
  00463	48 8b 80 b8 00
	00 00		 mov	 rax, QWORD PTR [rax+184]
  0046a	48 8b 8d 40 10
	00 00		 mov	 rcx, QWORD PTR this$[rbp]
  00471	48 8b 89 b8 00
	00 00		 mov	 rcx, QWORD PTR [rcx+184]
  00478	48 8b 00	 mov	 rax, QWORD PTR [rax]
  0047b	48 8d 95 b0 0b
	00 00		 lea	 rdx, QWORD PTR $T22[rbp]
  00482	ff 50 30	 call	 QWORD PTR [rax+48]

; 128  : 	m_pWeaponCollider->Update(XMLoadFloat4x4(&transform->Get_WorldMatrix()));	

  00485	48 8d 95 e4 0a
	00 00		 lea	 rdx, QWORD PTR $T20[rbp]
  0048c	48 8b 85 40 10
	00 00		 mov	 rax, QWORD PTR this$[rbp]
  00493	48 8b 88 98 00
	00 00		 mov	 rcx, QWORD PTR [rax+152]
  0049a	ff 15 00 00 00
	00		 call	 QWORD PTR __imp_?Get_WorldMatrix@CTransform@Engine@@QEAA?AUXMFLOAT4X4@DirectX@@XZ
  004a0	48 8b c8	 mov	 rcx, rax
  004a3	e8 00 00 00 00	 call	 ?XMLoadFloat4x4@DirectX@@YQ?AUXMMATRIX@1@PEBUXMFLOAT4X4@1@@Z ; DirectX::XMLoadFloat4x4
  004a8	0f 29 9d 00 10
	00 00		 movaps	 XMMWORD PTR $T33[rbp+48], xmm3
  004af	0f 29 95 f0 0f
	00 00		 movaps	 XMMWORD PTR $T33[rbp+32], xmm2
  004b6	0f 29 8d e0 0f
	00 00		 movaps	 XMMWORD PTR $T33[rbp+16], xmm1
  004bd	0f 29 85 d0 0f
	00 00		 movaps	 XMMWORD PTR $T33[rbp], xmm0
  004c4	48 8d 85 90 0a
	00 00		 lea	 rax, QWORD PTR $T19[rbp]
  004cb	48 8d 8d d0 0f
	00 00		 lea	 rcx, QWORD PTR $T33[rbp]
  004d2	48 8b f8	 mov	 rdi, rax
  004d5	48 8b f1	 mov	 rsi, rcx
  004d8	b9 40 00 00 00	 mov	 ecx, 64			; 00000040H
  004dd	f3 a4		 rep movsb
  004df	48 8d 85 10 0c
	00 00		 lea	 rax, QWORD PTR $T23[rbp]
  004e6	48 8d 8d 90 0a
	00 00		 lea	 rcx, QWORD PTR $T19[rbp]
  004ed	48 8b f8	 mov	 rdi, rax
  004f0	48 8b f1	 mov	 rsi, rcx
  004f3	b9 40 00 00 00	 mov	 ecx, 64			; 00000040H
  004f8	f3 a4		 rep movsb
  004fa	48 8b 85 40 10
	00 00		 mov	 rax, QWORD PTR this$[rbp]
  00501	48 8b 80 c0 00
	00 00		 mov	 rax, QWORD PTR [rax+192]
  00508	48 8b 8d 40 10
	00 00		 mov	 rcx, QWORD PTR this$[rbp]
  0050f	48 8b 89 c0 00
	00 00		 mov	 rcx, QWORD PTR [rcx+192]
  00516	48 8b 00	 mov	 rax, QWORD PTR [rax]
  00519	48 8d 95 10 0c
	00 00		 lea	 rdx, QWORD PTR $T23[rbp]
  00520	ff 50 30	 call	 QWORD PTR [rax+48]

; 129  : 
; 130  : 	if (nullptr != renderer)

  00523	48 8b 85 40 10
	00 00		 mov	 rax, QWORD PTR this$[rbp]
  0052a	48 83 b8 90 00
	00 00 00	 cmp	 QWORD PTR [rax+144], 0
  00532	74 20		 je	 SHORT $LN2@LateTick

; 131  : 		renderer->Add_RenderGroup(CRenderer::RENDER_ALPHABLEND, this);

  00534	4c 8b 85 40 10
	00 00		 mov	 r8, QWORD PTR this$[rbp]
  0053b	ba 03 00 00 00	 mov	 edx, 3
  00540	48 8b 85 40 10
	00 00		 mov	 rax, QWORD PTR this$[rbp]
  00547	48 8b 88 90 00
	00 00		 mov	 rcx, QWORD PTR [rax+144]
  0054e	ff 15 00 00 00
	00		 call	 QWORD PTR __imp_?Add_RenderGroup@CRenderer@Engine@@QEAAJW4RENDER_GROUP@12@PEAVCGameObject@2@@Z
$LN2@LateTick:

; 132  : }

  00554	48 8d 4d d0	 lea	 rcx, QWORD PTR [rbp-48]
  00558	48 8d 15 00 00
	00 00		 lea	 rdx, OFFSET FLAT:?LateTick@CEnemy@Client@@UEAAXN@Z$rtcFrameData
  0055f	e8 00 00 00 00	 call	 _RTC_CheckStackVars
  00564	48 8b 8d 18 10
	00 00		 mov	 rcx, QWORD PTR __$ArrayPad$[rbp]
  0056b	48 33 cd	 xor	 rcx, rbp
  0056e	e8 00 00 00 00	 call	 __security_check_cookie
  00573	48 8d a5 20 10
	00 00		 lea	 rsp, QWORD PTR [rbp+4128]
  0057a	5f		 pop	 rdi
  0057b	5e		 pop	 rsi
  0057c	5d		 pop	 rbp
  0057d	c3		 ret	 0
?LateTick@CEnemy@Client@@UEAAXN@Z ENDP			; Client::CEnemy::LateTick
_TEXT	ENDS
; Function compile flags: /Odtp /RTCsu /ZI
; File c:\github\framework\client\private\enemy.cpp
;	COMDAT ?Tick@CEnemy@Client@@UEAAXN@Z
_TEXT	SEGMENT
pGameInstance$1 = 8
this$ = 256
TimeDelta$ = 264
?Tick@CEnemy@Client@@UEAAXN@Z PROC			; Client::CEnemy::Tick, COMDAT

; 84   : {

$LN7:
  00000	f2 0f 11 4c 24
	10		 movsd	 QWORD PTR [rsp+16], xmm1
  00006	48 89 4c 24 08	 mov	 QWORD PTR [rsp+8], rcx
  0000b	55		 push	 rbp
  0000c	57		 push	 rdi
  0000d	48 81 ec 08 01
	00 00		 sub	 rsp, 264		; 00000108H
  00014	48 8d 6c 24 20	 lea	 rbp, QWORD PTR [rsp+32]
  00019	48 8b fc	 mov	 rdi, rsp
  0001c	b9 42 00 00 00	 mov	 ecx, 66			; 00000042H
  00021	b8 cc cc cc cc	 mov	 eax, -858993460		; ccccccccH
  00026	f3 ab		 rep stosd
  00028	48 8b 8c 24 28
	01 00 00	 mov	 rcx, QWORD PTR [rsp+296]

; 85   : 	TimeDelta = Freeze(TimeDelta);

  00030	f2 0f 10 8d 08
	01 00 00	 movsd	 xmm1, QWORD PTR TimeDelta$[rbp]
  00038	48 8b 8d 00 01
	00 00		 mov	 rcx, QWORD PTR this$[rbp]
  0003f	e8 00 00 00 00	 call	 ?Freeze@CEnemy@Client@@AEAANN@Z ; Client::CEnemy::Freeze
  00044	f2 0f 11 85 08
	01 00 00	 movsd	 QWORD PTR TimeDelta$[rbp], xmm0

; 86   : 
; 87   : 	m_bAlpha = false;

  0004c	48 8b 85 00 01
	00 00		 mov	 rax, QWORD PTR this$[rbp]
  00053	c6 80 c8 01 00
	00 00		 mov	 BYTE PTR [rax+456], 0

; 88   : 
; 89   : 	__super::Tick(TimeDelta);

  0005a	f2 0f 10 8d 08
	01 00 00	 movsd	 xmm1, QWORD PTR TimeDelta$[rbp]
  00062	48 8b 8d 00 01
	00 00		 mov	 rcx, QWORD PTR this$[rbp]
  00069	ff 15 00 00 00
	00		 call	 QWORD PTR __imp_?Tick@CGameObject@Engine@@UEAAXN@Z

; 90   : 	
; 91   : 	if (m_bAttackCollision)

  0006f	48 8b 85 00 01
	00 00		 mov	 rax, QWORD PTR this$[rbp]
  00076	0f b6 80 8d 01
	00 00		 movzx	 eax, BYTE PTR [rax+397]
  0007d	85 c0		 test	 eax, eax
  0007f	0f 84 82 00 00
	00		 je	 $LN2@Tick

; 92   : 	{
; 93   : 		m_fAttackCollisionLocal += (_float)TimeDelta;

  00085	f2 0f 5a 85 08
	01 00 00	 cvtsd2ss xmm0, QWORD PTR TimeDelta$[rbp]
  0008d	48 8b 85 00 01
	00 00		 mov	 rax, QWORD PTR this$[rbp]
  00094	f3 0f 10 88 54
	01 00 00	 movss	 xmm1, DWORD PTR [rax+340]
  0009c	f3 0f 58 c8	 addss	 xmm1, xmm0
  000a0	0f 28 c1	 movaps	 xmm0, xmm1
  000a3	48 8b 85 00 01
	00 00		 mov	 rax, QWORD PTR this$[rbp]
  000aa	f3 0f 11 80 54
	01 00 00	 movss	 DWORD PTR [rax+340], xmm0

; 94   : 		if (m_fAttackCollisionLocal >= m_fAttackCollisionTimeOut)

  000b2	48 8b 85 00 01
	00 00		 mov	 rax, QWORD PTR this$[rbp]
  000b9	48 8b 8d 00 01
	00 00		 mov	 rcx, QWORD PTR this$[rbp]
  000c0	f3 0f 10 80 54
	01 00 00	 movss	 xmm0, DWORD PTR [rax+340]
  000c8	0f 2f 81 58 01
	00 00		 comiss	 xmm0, DWORD PTR [rcx+344]
  000cf	72 36		 jb	 SHORT $LN3@Tick

; 95   : 		{
; 96   : 			m_bAttackCollision = false;

  000d1	48 8b 85 00 01
	00 00		 mov	 rax, QWORD PTR this$[rbp]
  000d8	c6 80 8d 01 00
	00 00		 mov	 BYTE PTR [rax+397], 0

; 97   : 			m_pWeaponCollider->SetActive(false);

  000df	33 d2		 xor	 edx, edx
  000e1	48 8b 85 00 01
	00 00		 mov	 rax, QWORD PTR this$[rbp]
  000e8	48 8b 88 c0 00
	00 00		 mov	 rcx, QWORD PTR [rax+192]
  000ef	ff 15 00 00 00
	00		 call	 QWORD PTR __imp_?SetActive@CCollider@Engine@@QEAAX_N@Z

; 98   : 			m_fAttackCollisionLocal = 0.0f;

  000f5	48 8b 85 00 01
	00 00		 mov	 rax, QWORD PTR this$[rbp]
  000fc	0f 57 c0	 xorps	 xmm0, xmm0
  000ff	f3 0f 11 80 54
	01 00 00	 movss	 DWORD PTR [rax+340], xmm0
$LN3@Tick:
$LN2@Tick:

; 99   : 		}
; 100  : 	}
; 101  : 
; 102  : 	if(m_bDeadWait)

  00107	48 8b 85 00 01
	00 00		 mov	 rax, QWORD PTR this$[rbp]
  0010e	0f b6 80 82 01
	00 00		 movzx	 eax, BYTE PTR [rax+386]
  00115	85 c0		 test	 eax, eax
  00117	74 16		 je	 SHORT $LN4@Tick

; 103  : 		Die(TimeDelta);

  00119	f2 0f 10 8d 08
	01 00 00	 movsd	 xmm1, QWORD PTR TimeDelta$[rbp]
  00121	48 8b 8d 00 01
	00 00		 mov	 rcx, QWORD PTR this$[rbp]
  00128	e8 00 00 00 00	 call	 ?Die@CEnemy@Client@@AEAAXN@Z ; Client::CEnemy::Die

; 104  : 	else

  0012d	eb 6f		 jmp	 SHORT $LN5@Tick
$LN4@Tick:

; 105  : 	{
; 106  : 		AnimationState(TimeDelta);

  0012f	f2 0f 10 8d 08
	01 00 00	 movsd	 xmm1, QWORD PTR TimeDelta$[rbp]
  00137	48 8b 8d 00 01
	00 00		 mov	 rcx, QWORD PTR this$[rbp]
  0013e	e8 00 00 00 00	 call	 ?AnimationState@CEnemy@Client@@AEAAXN@Z ; Client::CEnemy::AnimationState

; 107  : 		CGameInstance* pGameInstance = CGameInstance::GetInstance();

  00143	ff 15 00 00 00
	00		 call	 QWORD PTR __imp_?GetInstance@CGameInstance@Engine@@SAPEAV12@XZ
  00149	48 89 45 08	 mov	 QWORD PTR pGameInstance$1[rbp], rax

; 108  : 		pGameInstance->AddCollider(collider);

  0014d	45 33 c0	 xor	 r8d, r8d
  00150	48 8b 85 00 01
	00 00		 mov	 rax, QWORD PTR this$[rbp]
  00157	48 8b 90 b0 00
	00 00		 mov	 rdx, QWORD PTR [rax+176]
  0015e	48 8b 4d 08	 mov	 rcx, QWORD PTR pGameInstance$1[rbp]
  00162	ff 15 00 00 00
	00		 call	 QWORD PTR __imp_?AddCollider@CGameInstance@Engine@@QEAAJPEAVCCollider@2@I@Z

; 109  : 		pGameInstance->AddCollider(m_pOverlapCollider);

  00168	45 33 c0	 xor	 r8d, r8d
  0016b	48 8b 85 00 01
	00 00		 mov	 rax, QWORD PTR this$[rbp]
  00172	48 8b 90 b8 00
	00 00		 mov	 rdx, QWORD PTR [rax+184]
  00179	48 8b 4d 08	 mov	 rcx, QWORD PTR pGameInstance$1[rbp]
  0017d	ff 15 00 00 00
	00		 call	 QWORD PTR __imp_?AddCollider@CGameInstance@Engine@@QEAAJPEAVCCollider@2@I@Z

; 110  : 		pGameInstance->AddCollider(m_pWeaponCollider);

  00183	45 33 c0	 xor	 r8d, r8d
  00186	48 8b 85 00 01
	00 00		 mov	 rax, QWORD PTR this$[rbp]
  0018d	48 8b 90 c0 00
	00 00		 mov	 rdx, QWORD PTR [rax+192]
  00194	48 8b 4d 08	 mov	 rcx, QWORD PTR pGameInstance$1[rbp]
  00198	ff 15 00 00 00
	00		 call	 QWORD PTR __imp_?AddCollider@CGameInstance@Engine@@QEAAJPEAVCCollider@2@I@Z
$LN5@Tick:

; 111  : 	}
; 112  : }

  0019e	48 8d a5 e8 00
	00 00		 lea	 rsp, QWORD PTR [rbp+232]
  001a5	5f		 pop	 rdi
  001a6	5d		 pop	 rbp
  001a7	c3		 ret	 0
?Tick@CEnemy@Client@@UEAAXN@Z ENDP			; Client::CEnemy::Tick
_TEXT	ENDS
; Function compile flags: /Odtp /RTCsu /ZI
; File c:\github\framework\client\private\enemy.cpp
;	COMDAT ?Initialize@CEnemy@Client@@UEAAJPEAX@Z
_TEXT	SEGMENT
iRandomX$ = 4
iRandomZ$ = 36
$T1 = 836
$T2 = 880
$T3 = 976
$T4 = 1072
$T5 = 1168
$T6 = 1252
$T7 = 1360
$T8 = 1444
$T9 = 1552
$T10 = 1636
$T11 = 1744
$T12 = 1828
$T13 = 1936
$T14 = 1984
$T15 = 2080
$T16 = 2176
$T17 = 2272
$T18 = 2368
$T19 = 2464
$T20 = 2560
tv187 = 2628
this$ = 2672
pArg$ = 2680
?Initialize@CEnemy@Client@@UEAAJPEAX@Z PROC		; Client::CEnemy::Initialize, COMDAT

; 45   : {

$LN9:
  00000	48 89 54 24 10	 mov	 QWORD PTR [rsp+16], rdx
  00005	48 89 4c 24 08	 mov	 QWORD PTR [rsp+8], rcx
  0000a	55		 push	 rbp
  0000b	56		 push	 rsi
  0000c	57		 push	 rdi
  0000d	48 81 ec 70 0a
	00 00		 sub	 rsp, 2672		; 00000a70H
  00014	48 8d 6c 24 20	 lea	 rbp, QWORD PTR [rsp+32]
  00019	48 8b fc	 mov	 rdi, rsp
  0001c	b9 9c 02 00 00	 mov	 ecx, 668		; 0000029cH
  00021	b8 cc cc cc cc	 mov	 eax, -858993460		; ccccccccH
  00026	f3 ab		 rep stosd
  00028	48 8b 8c 24 98
	0a 00 00	 mov	 rcx, QWORD PTR [rsp+2712]

; 46   : 	m_pAppManager = CApplicationManager::GetInstance();

  00030	e8 00 00 00 00	 call	 ?GetInstance@CApplicationManager@Client@@SAPEAV12@XZ ; Client::CApplicationManager::GetInstance
  00035	48 8b 8d 70 0a
	00 00		 mov	 rcx, QWORD PTR this$[rbp]
  0003c	48 89 81 d0 00
	00 00		 mov	 QWORD PTR [rcx+208], rax

; 47   : 
; 48   : 	if (FAILED(__super::Initialize(pArg)))

  00043	48 8b 95 78 0a
	00 00		 mov	 rdx, QWORD PTR pArg$[rbp]
  0004a	48 8b 8d 70 0a
	00 00		 mov	 rcx, QWORD PTR this$[rbp]
  00051	ff 15 00 00 00
	00		 call	 QWORD PTR __imp_?Initialize@CGameObject@Engine@@UEAAJPEAX@Z
  00057	85 c0		 test	 eax, eax
  00059	7d 0a		 jge	 SHORT $LN4@Initialize

; 49   : 		return E_FAIL;

  0005b	b8 05 40 00 80	 mov	 eax, -2147467259	; ffffffff80004005H
  00060	e9 68 04 00 00	 jmp	 $LN1@Initialize
$LN4@Initialize:

; 50   : 
; 51   : 	AddComponents();

  00065	48 8b 8d 70 0a
	00 00		 mov	 rcx, QWORD PTR this$[rbp]
  0006c	e8 00 00 00 00	 call	 ?AddComponents@CEnemy@Client@@AEAAJXZ ; Client::CEnemy::AddComponents

; 52   : 
; 53   : 	ZeroMemory(&m_State, sizeof(ENEMY_STATE));

  00071	48 8b 85 70 0a
	00 00		 mov	 rax, QWORD PTR this$[rbp]
  00078	48 05 2c 01 00
	00		 add	 rax, 300		; 0000012cH
  0007e	41 b8 08 00 00
	00		 mov	 r8d, 8
  00084	33 d2		 xor	 edx, edx
  00086	48 8b c8	 mov	 rcx, rax
  00089	e8 00 00 00 00	 call	 memset

; 54   : 	m_State.fMaxHp = 4000.f;

  0008e	48 8b 85 70 0a
	00 00		 mov	 rax, QWORD PTR this$[rbp]
  00095	f3 0f 10 05 00
	00 00 00	 movss	 xmm0, DWORD PTR __real@457a0000
  0009d	f3 0f 11 80 30
	01 00 00	 movss	 DWORD PTR [rax+304], xmm0

; 55   : 	m_State.fCurHp = 4000.f;

  000a5	48 8b 85 70 0a
	00 00		 mov	 rax, QWORD PTR this$[rbp]
  000ac	f3 0f 10 05 00
	00 00 00	 movss	 xmm0, DWORD PTR __real@457a0000
  000b4	f3 0f 11 80 2c
	01 00 00	 movss	 DWORD PTR [rax+300], xmm0

; 56   : 
; 57   : 	if (nullptr != pArg)

  000bc	48 83 bd 78 0a
	00 00 00	 cmp	 QWORD PTR pArg$[rbp], 0
  000c4	74 3e		 je	 SHORT $LN5@Initialize

; 58   : 	{
; 59   : 		m_pPlayer = (CCharacter*)pArg;

  000c6	48 8b 85 70 0a
	00 00		 mov	 rax, QWORD PTR this$[rbp]
  000cd	48 8b 8d 78 0a
	00 00		 mov	 rcx, QWORD PTR pArg$[rbp]
  000d4	48 89 88 38 01
	00 00		 mov	 QWORD PTR [rax+312], rcx

; 60   : 		m_pPlayerTransform = static_cast<CTransform*>(m_pPlayer->Find_Component(L"com_transform"));

  000db	48 8d 15 00 00
	00 00		 lea	 rdx, OFFSET FLAT:??_C@_1BM@CJMPMHDD@?$AAc?$AAo?$AAm?$AA_?$AAt?$AAr?$AAa?$AAn?$AAs?$AAf?$AAo?$AAr?$AAm?$AA?$AA@
  000e2	48 8b 85 70 0a
	00 00		 mov	 rax, QWORD PTR this$[rbp]
  000e9	48 8b 88 38 01
	00 00		 mov	 rcx, QWORD PTR [rax+312]
  000f0	ff 15 00 00 00
	00		 call	 QWORD PTR __imp_?Find_Component@CGameObject@Engine@@QEAAPEAVCComponent@2@PEB_W@Z
  000f6	48 8b 8d 70 0a
	00 00		 mov	 rcx, QWORD PTR this$[rbp]
  000fd	48 89 81 40 01
	00 00		 mov	 QWORD PTR [rcx+320], rax
$LN5@Initialize:

; 61   : 	}
; 62   : 
; 63   : 	int iRandomX = rand() % 20 + 15;

  00104	ff 15 00 00 00
	00		 call	 QWORD PTR __imp_rand
  0010a	99		 cdq
  0010b	b9 14 00 00 00	 mov	 ecx, 20
  00110	f7 f9		 idiv	 ecx
  00112	8b c2		 mov	 eax, edx
  00114	83 c0 0f	 add	 eax, 15
  00117	89 45 04	 mov	 DWORD PTR iRandomX$[rbp], eax

; 64   : 	int iRandomZ = rand() % 25 + 35;

  0011a	ff 15 00 00 00
	00		 call	 QWORD PTR __imp_rand
  00120	99		 cdq
  00121	b9 19 00 00 00	 mov	 ecx, 25
  00126	f7 f9		 idiv	 ecx
  00128	8b c2		 mov	 eax, edx
  0012a	83 c0 23	 add	 eax, 35			; 00000023H
  0012d	89 45 24	 mov	 DWORD PTR iRandomZ$[rbp], eax

; 65   :  	SetPosition(_float3(iRandomX , 0.f, iRandomZ));

  00130	f3 0f 2a 45 24	 cvtsi2ss xmm0, DWORD PTR iRandomZ$[rbp]
  00135	f3 0f 2a 4d 04	 cvtsi2ss xmm1, DWORD PTR iRandomX$[rbp]
  0013a	0f 28 d8	 movaps	 xmm3, xmm0
  0013d	0f 57 d2	 xorps	 xmm2, xmm2
  00140	48 8d 8d 44 03
	00 00		 lea	 rcx, QWORD PTR $T1[rbp]
  00147	e8 00 00 00 00	 call	 ??0XMFLOAT3@DirectX@@QEAA@MMM@Z ; DirectX::XMFLOAT3::XMFLOAT3
  0014c	48 8d 8d 90 07
	00 00		 lea	 rcx, QWORD PTR $T13[rbp]
  00153	48 8b f9	 mov	 rdi, rcx
  00156	48 8b f0	 mov	 rsi, rax
  00159	b9 0c 00 00 00	 mov	 ecx, 12
  0015e	f3 a4		 rep movsb
  00160	48 8d 95 90 07
	00 00		 lea	 rdx, QWORD PTR $T13[rbp]
  00167	48 8b 8d 70 0a
	00 00		 mov	 rcx, QWORD PTR this$[rbp]
  0016e	e8 00 00 00 00	 call	 ?SetPosition@CEnemy@Client@@QEAAXUXMFLOAT3@DirectX@@@Z ; Client::CEnemy::SetPosition

; 66   : 
; 67   : 	bone = model->GetBonePtr("Bip001Pelvis");

  00173	48 8d 15 00 00
	00 00		 lea	 rdx, OFFSET FLAT:??_C@_0N@EDEIEADG@Bip001Pelvis?$AA@
  0017a	48 8b 85 70 0a
	00 00		 mov	 rax, QWORD PTR this$[rbp]
  00181	48 8b 88 a0 00
	00 00		 mov	 rcx, QWORD PTR [rax+160]
  00188	ff 15 00 00 00
	00		 call	 QWORD PTR __imp_?GetBonePtr@CModel@Engine@@QEAAPEAVCBone@2@PEBD@Z
  0018e	48 8b 8d 70 0a
	00 00		 mov	 rcx, QWORD PTR this$[rbp]
  00195	48 89 81 20 01
	00 00		 mov	 QWORD PTR [rcx+288], rax

; 68   : 	XMStoreFloat4x4(&m_RootBoneMatrix, XMLoadFloat4x4(&bone->GetOffSetMatrix()) * XMLoadFloat4x4(&bone->GetCombinedMatrix()) * XMLoadFloat4x4(&model->GetLocalMatrix()) * XMLoadFloat4x4(&transform->Get_WorldMatrix()));

  0019c	48 8d 95 24 07
	00 00		 lea	 rdx, QWORD PTR $T12[rbp]
  001a3	48 8b 85 70 0a
	00 00		 mov	 rax, QWORD PTR this$[rbp]
  001aa	48 8b 88 98 00
	00 00		 mov	 rcx, QWORD PTR [rax+152]
  001b1	ff 15 00 00 00
	00		 call	 QWORD PTR __imp_?Get_WorldMatrix@CTransform@Engine@@QEAA?AUXMFLOAT4X4@DirectX@@XZ
  001b7	48 8b c8	 mov	 rcx, rax
  001ba	e8 00 00 00 00	 call	 ?XMLoadFloat4x4@DirectX@@YQ?AUXMMATRIX@1@PEBUXMFLOAT4X4@1@@Z ; DirectX::XMLoadFloat4x4
  001bf	0f 29 9d 30 0a
	00 00		 movaps	 XMMWORD PTR $T20[rbp+48], xmm3
  001c6	0f 29 95 20 0a
	00 00		 movaps	 XMMWORD PTR $T20[rbp+32], xmm2
  001cd	0f 29 8d 10 0a
	00 00		 movaps	 XMMWORD PTR $T20[rbp+16], xmm1
  001d4	0f 29 85 00 0a
	00 00		 movaps	 XMMWORD PTR $T20[rbp], xmm0
  001db	48 8d 85 d0 06
	00 00		 lea	 rax, QWORD PTR $T11[rbp]
  001e2	48 8d 8d 00 0a
	00 00		 lea	 rcx, QWORD PTR $T20[rbp]
  001e9	48 8b f8	 mov	 rdi, rax
  001ec	48 8b f1	 mov	 rsi, rcx
  001ef	b9 40 00 00 00	 mov	 ecx, 64			; 00000040H
  001f4	f3 a4		 rep movsb
  001f6	48 8d 95 64 06
	00 00		 lea	 rdx, QWORD PTR $T10[rbp]
  001fd	48 8b 85 70 0a
	00 00		 mov	 rax, QWORD PTR this$[rbp]
  00204	48 8b 88 a0 00
	00 00		 mov	 rcx, QWORD PTR [rax+160]
  0020b	ff 15 00 00 00
	00		 call	 QWORD PTR __imp_?GetLocalMatrix@CModel@Engine@@QEBA?AUXMFLOAT4X4@DirectX@@XZ
  00211	48 8b c8	 mov	 rcx, rax
  00214	e8 00 00 00 00	 call	 ?XMLoadFloat4x4@DirectX@@YQ?AUXMMATRIX@1@PEBUXMFLOAT4X4@1@@Z ; DirectX::XMLoadFloat4x4
  00219	0f 29 9d 70 09
	00 00		 movaps	 XMMWORD PTR $T18[rbp+48], xmm3
  00220	0f 29 95 60 09
	00 00		 movaps	 XMMWORD PTR $T18[rbp+32], xmm2
  00227	0f 29 8d 50 09
	00 00		 movaps	 XMMWORD PTR $T18[rbp+16], xmm1
  0022e	0f 29 85 40 09
	00 00		 movaps	 XMMWORD PTR $T18[rbp], xmm0
  00235	48 8d 85 10 06
	00 00		 lea	 rax, QWORD PTR $T9[rbp]
  0023c	48 8d 8d 40 09
	00 00		 lea	 rcx, QWORD PTR $T18[rbp]
  00243	48 8b f8	 mov	 rdi, rax
  00246	48 8b f1	 mov	 rsi, rcx
  00249	b9 40 00 00 00	 mov	 ecx, 64			; 00000040H
  0024e	f3 a4		 rep movsb
  00250	48 8d 95 a4 05
	00 00		 lea	 rdx, QWORD PTR $T8[rbp]
  00257	48 8b 85 70 0a
	00 00		 mov	 rax, QWORD PTR this$[rbp]
  0025e	48 8b 88 20 01
	00 00		 mov	 rcx, QWORD PTR [rax+288]
  00265	e8 00 00 00 00	 call	 ?GetCombinedMatrix@CBone@Engine@@QEBA?AUXMFLOAT4X4@DirectX@@XZ ; Engine::CBone::GetCombinedMatrix
  0026a	48 8b c8	 mov	 rcx, rax
  0026d	e8 00 00 00 00	 call	 ?XMLoadFloat4x4@DirectX@@YQ?AUXMMATRIX@1@PEBUXMFLOAT4X4@1@@Z ; DirectX::XMLoadFloat4x4
  00272	0f 29 9d b0 08
	00 00		 movaps	 XMMWORD PTR $T16[rbp+48], xmm3
  00279	0f 29 95 a0 08
	00 00		 movaps	 XMMWORD PTR $T16[rbp+32], xmm2
  00280	0f 29 8d 90 08
	00 00		 movaps	 XMMWORD PTR $T16[rbp+16], xmm1
  00287	0f 29 85 80 08
	00 00		 movaps	 XMMWORD PTR $T16[rbp], xmm0
  0028e	48 8d 85 50 05
	00 00		 lea	 rax, QWORD PTR $T7[rbp]
  00295	48 8d 8d 80 08
	00 00		 lea	 rcx, QWORD PTR $T16[rbp]
  0029c	48 8b f8	 mov	 rdi, rax
  0029f	48 8b f1	 mov	 rsi, rcx
  002a2	b9 40 00 00 00	 mov	 ecx, 64			; 00000040H
  002a7	f3 a4		 rep movsb
  002a9	48 8d 95 e4 04
	00 00		 lea	 rdx, QWORD PTR $T6[rbp]
  002b0	48 8b 85 70 0a
	00 00		 mov	 rax, QWORD PTR this$[rbp]
  002b7	48 8b 88 20 01
	00 00		 mov	 rcx, QWORD PTR [rax+288]
  002be	e8 00 00 00 00	 call	 ?GetOffSetMatrix@CBone@Engine@@QEBA?AUXMFLOAT4X4@DirectX@@XZ ; Engine::CBone::GetOffSetMatrix
  002c3	48 8b c8	 mov	 rcx, rax
  002c6	e8 00 00 00 00	 call	 ?XMLoadFloat4x4@DirectX@@YQ?AUXMMATRIX@1@PEBUXMFLOAT4X4@1@@Z ; DirectX::XMLoadFloat4x4
  002cb	0f 29 9d f0 07
	00 00		 movaps	 XMMWORD PTR $T14[rbp+48], xmm3
  002d2	0f 29 95 e0 07
	00 00		 movaps	 XMMWORD PTR $T14[rbp+32], xmm2
  002d9	0f 29 8d d0 07
	00 00		 movaps	 XMMWORD PTR $T14[rbp+16], xmm1
  002e0	0f 29 85 c0 07
	00 00		 movaps	 XMMWORD PTR $T14[rbp], xmm0
  002e7	48 8d 85 90 04
	00 00		 lea	 rax, QWORD PTR $T5[rbp]
  002ee	48 8d 8d c0 07
	00 00		 lea	 rcx, QWORD PTR $T14[rbp]
  002f5	48 8b f8	 mov	 rdi, rax
  002f8	48 8b f1	 mov	 rsi, rcx
  002fb	b9 40 00 00 00	 mov	 ecx, 64			; 00000040H
  00300	f3 a4		 rep movsb
  00302	0f 28 85 50 05
	00 00		 movaps	 xmm0, XMMWORD PTR $T7[rbp]
  00309	0f 28 8d 60 05
	00 00		 movaps	 xmm1, XMMWORD PTR $T7[rbp+16]
  00310	0f 28 95 70 05
	00 00		 movaps	 xmm2, XMMWORD PTR $T7[rbp+32]
  00317	0f 28 9d 80 05
	00 00		 movaps	 xmm3, XMMWORD PTR $T7[rbp+48]
  0031e	48 8d 8d 90 04
	00 00		 lea	 rcx, QWORD PTR $T5[rbp]
  00325	e8 00 00 00 00	 call	 ??DXMMATRIX@DirectX@@QEBQ?AU01@U01@@Z ; DirectX::XMMATRIX::operator*
  0032a	0f 29 9d 50 08
	00 00		 movaps	 XMMWORD PTR $T15[rbp+48], xmm3
  00331	0f 29 95 40 08
	00 00		 movaps	 XMMWORD PTR $T15[rbp+32], xmm2
  00338	0f 29 8d 30 08
	00 00		 movaps	 XMMWORD PTR $T15[rbp+16], xmm1
  0033f	0f 29 85 20 08
	00 00		 movaps	 XMMWORD PTR $T15[rbp], xmm0
  00346	48 8d 85 30 04
	00 00		 lea	 rax, QWORD PTR $T4[rbp]
  0034d	48 8d 8d 20 08
	00 00		 lea	 rcx, QWORD PTR $T15[rbp]
  00354	48 8b f8	 mov	 rdi, rax
  00357	48 8b f1	 mov	 rsi, rcx
  0035a	b9 40 00 00 00	 mov	 ecx, 64			; 00000040H
  0035f	f3 a4		 rep movsb
  00361	0f 28 85 10 06
	00 00		 movaps	 xmm0, XMMWORD PTR $T9[rbp]
  00368	0f 28 8d 20 06
	00 00		 movaps	 xmm1, XMMWORD PTR $T9[rbp+16]
  0036f	0f 28 95 30 06
	00 00		 movaps	 xmm2, XMMWORD PTR $T9[rbp+32]
  00376	0f 28 9d 40 06
	00 00		 movaps	 xmm3, XMMWORD PTR $T9[rbp+48]
  0037d	48 8d 8d 30 04
	00 00		 lea	 rcx, QWORD PTR $T4[rbp]
  00384	e8 00 00 00 00	 call	 ??DXMMATRIX@DirectX@@QEBQ?AU01@U01@@Z ; DirectX::XMMATRIX::operator*
  00389	0f 29 9d 10 09
	00 00		 movaps	 XMMWORD PTR $T17[rbp+48], xmm3
  00390	0f 29 95 00 09
	00 00		 movaps	 XMMWORD PTR $T17[rbp+32], xmm2
  00397	0f 29 8d f0 08
	00 00		 movaps	 XMMWORD PTR $T17[rbp+16], xmm1
  0039e	0f 29 85 e0 08
	00 00		 movaps	 XMMWORD PTR $T17[rbp], xmm0
  003a5	48 8d 85 d0 03
	00 00		 lea	 rax, QWORD PTR $T3[rbp]
  003ac	48 8d 8d e0 08
	00 00		 lea	 rcx, QWORD PTR $T17[rbp]
  003b3	48 8b f8	 mov	 rdi, rax
  003b6	48 8b f1	 mov	 rsi, rcx
  003b9	b9 40 00 00 00	 mov	 ecx, 64			; 00000040H
  003be	f3 a4		 rep movsb
  003c0	0f 28 85 d0 06
	00 00		 movaps	 xmm0, XMMWORD PTR $T11[rbp]
  003c7	0f 28 8d e0 06
	00 00		 movaps	 xmm1, XMMWORD PTR $T11[rbp+16]
  003ce	0f 28 95 f0 06
	00 00		 movaps	 xmm2, XMMWORD PTR $T11[rbp+32]
  003d5	0f 28 9d 00 07
	00 00		 movaps	 xmm3, XMMWORD PTR $T11[rbp+48]
  003dc	48 8d 8d d0 03
	00 00		 lea	 rcx, QWORD PTR $T3[rbp]
  003e3	e8 00 00 00 00	 call	 ??DXMMATRIX@DirectX@@QEBQ?AU01@U01@@Z ; DirectX::XMMATRIX::operator*
  003e8	0f 29 9d d0 09
	00 00		 movaps	 XMMWORD PTR $T19[rbp+48], xmm3
  003ef	0f 29 95 c0 09
	00 00		 movaps	 XMMWORD PTR $T19[rbp+32], xmm2
  003f6	0f 29 8d b0 09
	00 00		 movaps	 XMMWORD PTR $T19[rbp+16], xmm1
  003fd	0f 29 85 a0 09
	00 00		 movaps	 XMMWORD PTR $T19[rbp], xmm0
  00404	48 8d 85 70 03
	00 00		 lea	 rax, QWORD PTR $T2[rbp]
  0040b	48 8d 8d a0 09
	00 00		 lea	 rcx, QWORD PTR $T19[rbp]
  00412	48 8b f8	 mov	 rdi, rax
  00415	48 8b f1	 mov	 rsi, rcx
  00418	b9 40 00 00 00	 mov	 ecx, 64			; 00000040H
  0041d	f3 a4		 rep movsb
  0041f	48 8b 85 70 0a
	00 00		 mov	 rax, QWORD PTR this$[rbp]
  00426	48 05 dc 00 00
	00		 add	 rax, 220		; 000000dcH
  0042c	0f 28 85 70 03
	00 00		 movaps	 xmm0, XMMWORD PTR $T2[rbp]
  00433	0f 28 8d 80 03
	00 00		 movaps	 xmm1, XMMWORD PTR $T2[rbp+16]
  0043a	0f 28 95 90 03
	00 00		 movaps	 xmm2, XMMWORD PTR $T2[rbp+32]
  00441	0f 28 9d a0 03
	00 00		 movaps	 xmm3, XMMWORD PTR $T2[rbp+48]
  00448	48 8b c8	 mov	 rcx, rax
  0044b	e8 00 00 00 00	 call	 ?XMStoreFloat4x4@DirectX@@YQXPEAUXMFLOAT4X4@1@UXMMATRIX@1@@Z ; DirectX::XMStoreFloat4x4

; 69   : 
; 70   : 	switch (m_eType)

  00450	48 8b 85 70 0a
	00 00		 mov	 rax, QWORD PTR this$[rbp]
  00457	8b 80 d8 00 00
	00		 mov	 eax, DWORD PTR [rax+216]
  0045d	89 85 44 0a 00
	00		 mov	 DWORD PTR tv187[rbp], eax
  00463	83 bd 44 0a 00
	00 00		 cmp	 DWORD PTR tv187[rbp], 0
  0046a	74 0b		 je	 SHORT $LN6@Initialize
  0046c	83 bd 44 0a 00
	00 01		 cmp	 DWORD PTR tv187[rbp], 1
  00473	74 2d		 je	 SHORT $LN7@Initialize
  00475	eb 54		 jmp	 SHORT $LN2@Initialize
$LN6@Initialize:

; 71   : 	{
; 72   : 	case TYPE::HUMANOID:
; 73   : 		m_pWeaponBone = model->GetBonePtr("BulletCase");

  00477	48 8d 15 00 00
	00 00		 lea	 rdx, OFFSET FLAT:??_C@_0L@KMOGLACE@BulletCase?$AA@
  0047e	48 8b 85 70 0a
	00 00		 mov	 rax, QWORD PTR this$[rbp]
  00485	48 8b 88 a0 00
	00 00		 mov	 rcx, QWORD PTR [rax+160]
  0048c	ff 15 00 00 00
	00		 call	 QWORD PTR __imp_?GetBonePtr@CModel@Engine@@QEAAPEAVCBone@2@PEBD@Z
  00492	48 8b 8d 70 0a
	00 00		 mov	 rcx, QWORD PTR this$[rbp]
  00499	48 89 81 c8 00
	00 00		 mov	 QWORD PTR [rcx+200], rax

; 74   : 		break;

  004a0	eb 29		 jmp	 SHORT $LN2@Initialize
$LN7@Initialize:

; 75   : 	case TYPE::ANIMAL:
; 76   : 		m_pWeaponBone = model->GetBonePtr("Bip001");

  004a2	48 8d 15 00 00
	00 00		 lea	 rdx, OFFSET FLAT:??_C@_06HFDDOAAP@Bip001?$AA@
  004a9	48 8b 85 70 0a
	00 00		 mov	 rax, QWORD PTR this$[rbp]
  004b0	48 8b 88 a0 00
	00 00		 mov	 rcx, QWORD PTR [rax+160]
  004b7	ff 15 00 00 00
	00		 call	 QWORD PTR __imp_?GetBonePtr@CModel@Engine@@QEAAPEAVCBone@2@PEBD@Z
  004bd	48 8b 8d 70 0a
	00 00		 mov	 rcx, QWORD PTR this$[rbp]
  004c4	48 89 81 c8 00
	00 00		 mov	 QWORD PTR [rcx+200], rax
$LN2@Initialize:

; 77   : 		break;
; 78   : 	}
; 79   : 
; 80   : 	return S_OK;

  004cb	33 c0		 xor	 eax, eax
$LN1@Initialize:

; 81   : }

  004cd	48 8d a5 50 0a
	00 00		 lea	 rsp, QWORD PTR [rbp+2640]
  004d4	5f		 pop	 rdi
  004d5	5e		 pop	 rsi
  004d6	5d		 pop	 rbp
  004d7	c3		 ret	 0
?Initialize@CEnemy@Client@@UEAAJPEAX@Z ENDP		; Client::CEnemy::Initialize
_TEXT	ENDS
; Function compile flags: /Odtp /RTCsu /ZI
; File c:\github\framework\client\private\enemy.cpp
;	COMDAT ?Initialize_Prototype@CEnemy@Client@@UEAAJW4TYPE@12@@Z
_TEXT	SEGMENT
this$ = 224
eType$ = 232
?Initialize_Prototype@CEnemy@Client@@UEAAJW4TYPE@12@@Z PROC ; Client::CEnemy::Initialize_Prototype, COMDAT

; 31   : {

$LN4:
  00000	89 54 24 10	 mov	 DWORD PTR [rsp+16], edx
  00004	48 89 4c 24 08	 mov	 QWORD PTR [rsp+8], rcx
  00009	55		 push	 rbp
  0000a	57		 push	 rdi
  0000b	48 81 ec e8 00
	00 00		 sub	 rsp, 232		; 000000e8H
  00012	48 8d 6c 24 20	 lea	 rbp, QWORD PTR [rsp+32]
  00017	48 8b fc	 mov	 rdi, rsp
  0001a	b9 3a 00 00 00	 mov	 ecx, 58			; 0000003aH
  0001f	b8 cc cc cc cc	 mov	 eax, -858993460		; ccccccccH
  00024	f3 ab		 rep stosd
  00026	48 8b 8c 24 08
	01 00 00	 mov	 rcx, QWORD PTR [rsp+264]

; 32   : 	if (FAILED(__super::Initialize_Prototype()))

  0002e	48 8b 8d e0 00
	00 00		 mov	 rcx, QWORD PTR this$[rbp]
  00035	ff 15 00 00 00
	00		 call	 QWORD PTR __imp_?Initialize_Prototype@CGameObject@Engine@@UEAAJXZ
  0003b	85 c0		 test	 eax, eax
  0003d	7d 07		 jge	 SHORT $LN2@Initialize

; 33   : 		return E_FAIL;

  0003f	b8 05 40 00 80	 mov	 eax, -2147467259	; ffffffff80004005H
  00044	eb 60		 jmp	 SHORT $LN1@Initialize
$LN2@Initialize:

; 34   : 
; 35   : 	ZeroMemory(&m_State, sizeof(ENEMY_STATE));

  00046	48 8b 85 e0 00
	00 00		 mov	 rax, QWORD PTR this$[rbp]
  0004d	48 05 2c 01 00
	00		 add	 rax, 300		; 0000012cH
  00053	41 b8 08 00 00
	00		 mov	 r8d, 8
  00059	33 d2		 xor	 edx, edx
  0005b	48 8b c8	 mov	 rcx, rax
  0005e	e8 00 00 00 00	 call	 memset

; 36   : 	m_State.fMaxHp = 4000.f;

  00063	48 8b 85 e0 00
	00 00		 mov	 rax, QWORD PTR this$[rbp]
  0006a	f3 0f 10 05 00
	00 00 00	 movss	 xmm0, DWORD PTR __real@457a0000
  00072	f3 0f 11 80 30
	01 00 00	 movss	 DWORD PTR [rax+304], xmm0

; 37   : 	m_State.fCurHp = 4000.f;

  0007a	48 8b 85 e0 00
	00 00		 mov	 rax, QWORD PTR this$[rbp]
  00081	f3 0f 10 05 00
	00 00 00	 movss	 xmm0, DWORD PTR __real@457a0000
  00089	f3 0f 11 80 2c
	01 00 00	 movss	 DWORD PTR [rax+300], xmm0

; 38   : 
; 39   : 	m_eType = eType;

  00091	48 8b 85 e0 00
	00 00		 mov	 rax, QWORD PTR this$[rbp]
  00098	8b 8d e8 00 00
	00		 mov	 ecx, DWORD PTR eType$[rbp]
  0009e	89 88 d8 00 00
	00		 mov	 DWORD PTR [rax+216], ecx

; 40   : 
; 41   : 	return S_OK;

  000a4	33 c0		 xor	 eax, eax
$LN1@Initialize:

; 42   : }

  000a6	48 8d a5 c8 00
	00 00		 lea	 rsp, QWORD PTR [rbp+200]
  000ad	5f		 pop	 rdi
  000ae	5d		 pop	 rbp
  000af	c3		 ret	 0
?Initialize_Prototype@CEnemy@Client@@UEAAJW4TYPE@12@@Z ENDP ; Client::CEnemy::Initialize_Prototype
_TEXT	ENDS
; Function compile flags: /Odtp /RTCsu /ZI
; File c:\github\framework\client\private\enemy.cpp
;	COMDAT ??1CEnemy@Client@@UEAA@XZ
_TEXT	SEGMENT
this$ = 224
??1CEnemy@Client@@UEAA@XZ PROC				; Client::CEnemy::~CEnemy, COMDAT

; 16   : }

$LN3:
  00000	48 89 4c 24 08	 mov	 QWORD PTR [rsp+8], rcx
  00005	55		 push	 rbp
  00006	57		 push	 rdi
  00007	48 81 ec e8 00
	00 00		 sub	 rsp, 232		; 000000e8H
  0000e	48 8d 6c 24 20	 lea	 rbp, QWORD PTR [rsp+32]
  00013	48 8b fc	 mov	 rdi, rsp
  00016	b9 3a 00 00 00	 mov	 ecx, 58			; 0000003aH
  0001b	b8 cc cc cc cc	 mov	 eax, -858993460		; ccccccccH
  00020	f3 ab		 rep stosd
  00022	48 8b 8c 24 08
	01 00 00	 mov	 rcx, QWORD PTR [rsp+264]
  0002a	48 8b 8d e0 00
	00 00		 mov	 rcx, QWORD PTR this$[rbp]
  00031	ff 15 00 00 00
	00		 call	 QWORD PTR __imp_??1CGameObject@Engine@@MEAA@XZ
  00037	48 8d a5 c8 00
	00 00		 lea	 rsp, QWORD PTR [rbp+200]
  0003e	5f		 pop	 rdi
  0003f	5d		 pop	 rbp
  00040	c3		 ret	 0
??1CEnemy@Client@@UEAA@XZ ENDP				; Client::CEnemy::~CEnemy
_TEXT	ENDS
; Function compile flags: /Odtp /RTCsu /ZI
; File c:\github\framework\client\private\enemy.cpp
; File c:\github\framework\client\public\enemy.h
; File c:\github\framework\client\private\enemy.cpp
; File c:\github\framework\client\public\enemy.h
; File c:\github\framework\client\private\enemy.cpp
; File c:\github\framework\client\public\enemy.h
; File c:\github\framework\client\private\enemy.cpp
; File c:\github\framework\client\public\enemy.h
; File c:\github\framework\client\private\enemy.cpp
;	COMDAT ??0CEnemy@Client@@QEAA@AEBV01@@Z
_TEXT	SEGMENT
$T1 = 200
this$ = 256
rhs$ = 264
??0CEnemy@Client@@QEAA@AEBV01@@Z PROC			; Client::CEnemy::CEnemy, COMDAT

; 26   : {

$LN4:
  00000	48 89 54 24 10	 mov	 QWORD PTR [rsp+16], rdx
  00005	48 89 4c 24 08	 mov	 QWORD PTR [rsp+8], rcx
  0000a	55		 push	 rbp
  0000b	57		 push	 rdi
  0000c	48 81 ec 08 01
	00 00		 sub	 rsp, 264		; 00000108H
  00013	48 8d 6c 24 20	 lea	 rbp, QWORD PTR [rsp+32]
  00018	48 8b fc	 mov	 rdi, rsp
  0001b	b9 42 00 00 00	 mov	 ecx, 66			; 00000042H
  00020	b8 cc cc cc cc	 mov	 eax, -858993460		; ccccccccH
  00025	f3 ab		 rep stosd
  00027	48 8b 8c 24 28
	01 00 00	 mov	 rcx, QWORD PTR [rsp+296]
  0002f	48 c7 85 c8 00
	00 00 fe ff ff
	ff		 mov	 QWORD PTR $T1[rbp], -2

; 19   : 	: CGameObject(rhs)

  0003a	48 8b 95 08 01
	00 00		 mov	 rdx, QWORD PTR rhs$[rbp]
  00041	48 8b 8d 00 01
	00 00		 mov	 rcx, QWORD PTR this$[rbp]
  00048	ff 15 00 00 00
	00		 call	 QWORD PTR __imp_??0CGameObject@Engine@@IEAA@AEBV01@@Z
  0004e	90		 npad	 1

; 26   : {

  0004f	48 8b 85 00 01
	00 00		 mov	 rax, QWORD PTR this$[rbp]
  00056	48 83 c0 78	 add	 rax, 120		; 00000078H
  0005a	48 8b c8	 mov	 rcx, rax
  0005d	ff 15 00 00 00
	00		 call	 QWORD PTR __imp_??0IOnCollisionEnter@Engine@@QEAA@XZ
  00063	48 8b 85 00 01
	00 00		 mov	 rax, QWORD PTR this$[rbp]
  0006a	48 05 80 00 00
	00		 add	 rax, 128		; 00000080H
  00070	48 8b c8	 mov	 rcx, rax
  00073	ff 15 00 00 00
	00		 call	 QWORD PTR __imp_??0IOnCollisionStay@Engine@@QEAA@XZ
  00079	48 8b 85 00 01
	00 00		 mov	 rax, QWORD PTR this$[rbp]
  00080	48 05 88 00 00
	00		 add	 rax, 136		; 00000088H
  00086	48 8b c8	 mov	 rcx, rax
  00089	ff 15 00 00 00
	00		 call	 QWORD PTR __imp_??0IOnCollisionExit@Engine@@QEAA@XZ
  0008f	48 8b 85 00 01
	00 00		 mov	 rax, QWORD PTR this$[rbp]
  00096	48 8d 0d 00 00
	00 00		 lea	 rcx, OFFSET FLAT:??_7CEnemy@Client@@6BCGameObject@Engine@@@
  0009d	48 89 08	 mov	 QWORD PTR [rax], rcx
  000a0	48 8b 85 00 01
	00 00		 mov	 rax, QWORD PTR this$[rbp]
  000a7	48 8d 0d 00 00
	00 00		 lea	 rcx, OFFSET FLAT:??_7CEnemy@Client@@6BIOnCollisionEnter@Engine@@@
  000ae	48 89 48 78	 mov	 QWORD PTR [rax+120], rcx
  000b2	48 8b 85 00 01
	00 00		 mov	 rax, QWORD PTR this$[rbp]
  000b9	48 8d 0d 00 00
	00 00		 lea	 rcx, OFFSET FLAT:??_7CEnemy@Client@@6BIOnCollisionStay@Engine@@@
  000c0	48 89 88 80 00
	00 00		 mov	 QWORD PTR [rax+128], rcx
  000c7	48 8b 85 00 01
	00 00		 mov	 rax, QWORD PTR this$[rbp]
  000ce	48 8d 0d 00 00
	00 00		 lea	 rcx, OFFSET FLAT:??_7CEnemy@Client@@6BIOnCollisionExit@Engine@@@
  000d5	48 89 88 88 00
	00 00		 mov	 QWORD PTR [rax+136], rcx
; File c:\github\framework\client\public\enemy.h

; 164  : 	CRenderer* renderer = nullptr;

  000dc	48 8b 85 00 01
	00 00		 mov	 rax, QWORD PTR this$[rbp]
  000e3	48 c7 80 90 00
	00 00 00 00 00
	00		 mov	 QWORD PTR [rax+144], 0

; 165  : 	CTransform* transform = nullptr;

  000ee	48 8b 85 00 01
	00 00		 mov	 rax, QWORD PTR this$[rbp]
  000f5	48 c7 80 98 00
	00 00 00 00 00
	00		 mov	 QWORD PTR [rax+152], 0

; 166  : 	CModel* model = nullptr;

  00100	48 8b 85 00 01
	00 00		 mov	 rax, QWORD PTR this$[rbp]
  00107	48 c7 80 a0 00
	00 00 00 00 00
	00		 mov	 QWORD PTR [rax+160], 0

; 167  : 	CShader* shader = nullptr;

  00112	48 8b 85 00 01
	00 00		 mov	 rax, QWORD PTR this$[rbp]
  00119	48 c7 80 a8 00
	00 00 00 00 00
	00		 mov	 QWORD PTR [rax+168], 0

; 168  : 	CCollider* collider = nullptr;

  00124	48 8b 85 00 01
	00 00		 mov	 rax, QWORD PTR this$[rbp]
  0012b	48 c7 80 b0 00
	00 00 00 00 00
	00		 mov	 QWORD PTR [rax+176], 0

; 169  : 
; 170  : 	//  
; 171  : 	CCollider* m_pOverlapCollider = nullptr;

  00136	48 8b 85 00 01
	00 00		 mov	 rax, QWORD PTR this$[rbp]
  0013d	48 c7 80 b8 00
	00 00 00 00 00
	00		 mov	 QWORD PTR [rax+184], 0

; 172  : 
; 173  : 	CCollider* m_pWeaponCollider = nullptr;

  00148	48 8b 85 00 01
	00 00		 mov	 rax, QWORD PTR this$[rbp]
  0014f	48 c7 80 c0 00
	00 00 00 00 00
	00		 mov	 QWORD PTR [rax+192], 0

; 174  : 	CBone* m_pWeaponBone = nullptr;

  0015a	48 8b 85 00 01
	00 00		 mov	 rax, QWORD PTR this$[rbp]
  00161	48 c7 80 c8 00
	00 00 00 00 00
	00		 mov	 QWORD PTR [rax+200], 0

; 175  : 
; 176  : 	class CApplicationManager* m_pAppManager = nullptr;

  0016c	48 8b 85 00 01
	00 00		 mov	 rax, QWORD PTR this$[rbp]
  00173	48 c7 80 d0 00
	00 00 00 00 00
	00		 mov	 QWORD PTR [rax+208], 0
; File c:\github\framework\client\private\enemy.cpp

; 25   : 	, m_eType(rhs.m_eType)

  0017e	48 8b 85 00 01
	00 00		 mov	 rax, QWORD PTR this$[rbp]
  00185	48 8b 8d 08 01
	00 00		 mov	 rcx, QWORD PTR rhs$[rbp]
  0018c	8b 89 d8 00 00
	00		 mov	 ecx, DWORD PTR [rcx+216]
  00192	89 88 d8 00 00
	00		 mov	 DWORD PTR [rax+216], ecx

; 26   : {

  00198	48 8b 85 00 01
	00 00		 mov	 rax, QWORD PTR this$[rbp]
  0019f	48 05 dc 00 00
	00		 add	 rax, 220		; 000000dcH
  001a5	48 8b c8	 mov	 rcx, rax
  001a8	e8 00 00 00 00	 call	 ??0XMFLOAT4X4@DirectX@@QEAA@XZ ; DirectX::XMFLOAT4X4::XMFLOAT4X4
; File c:\github\framework\client\public\enemy.h

; 184  : 	class CBone* bone = nullptr;

  001ad	48 8b 85 00 01
	00 00		 mov	 rax, QWORD PTR this$[rbp]
  001b4	48 c7 80 20 01
	00 00 00 00 00
	00		 mov	 QWORD PTR [rax+288], 0

; 185  : 	_uint animation = 0;

  001bf	48 8b 85 00 01
	00 00		 mov	 rax, QWORD PTR this$[rbp]
  001c6	c7 80 28 01 00
	00 00 00 00 00	 mov	 DWORD PTR [rax+296], 0
; File c:\github\framework\client\private\enemy.cpp

; 20   : 	, m_State(rhs.m_State)

  001d0	48 8b 85 08 01
	00 00		 mov	 rax, QWORD PTR rhs$[rbp]
  001d7	48 8b 80 2c 01
	00 00		 mov	 rax, QWORD PTR [rax+300]
  001de	48 8b 8d 00 01
	00 00		 mov	 rcx, QWORD PTR this$[rbp]
  001e5	48 89 81 2c 01
	00 00		 mov	 QWORD PTR [rcx+300], rax
; File c:\github\framework\client\public\enemy.h

; 189  : 	CCharacter* m_pPlayer = nullptr;

  001ec	48 8b 85 00 01
	00 00		 mov	 rax, QWORD PTR this$[rbp]
  001f3	48 c7 80 38 01
	00 00 00 00 00
	00		 mov	 QWORD PTR [rax+312], 0

; 190  : 	CTransform* m_pPlayerTransform = nullptr;

  001fe	48 8b 85 00 01
	00 00		 mov	 rax, QWORD PTR this$[rbp]
  00205	48 c7 80 40 01
	00 00 00 00 00
	00		 mov	 QWORD PTR [rax+320], 0

; 191  : 
; 192  : 	_bool m_bTraceFinish = false;

  00210	48 8b 85 00 01
	00 00		 mov	 rax, QWORD PTR this$[rbp]
  00217	c6 80 48 01 00
	00 00		 mov	 BYTE PTR [rax+328], 0

; 193  : 	_bool m_bRotationFinish = false;

  0021e	48 8b 85 00 01
	00 00		 mov	 rax, QWORD PTR this$[rbp]
  00225	c6 80 49 01 00
	00 00		 mov	 BYTE PTR [rax+329], 0

; 194  : 
; 195  : 	const _float m_fAttackRange = 3.5f;

  0022c	48 8b 85 00 01
	00 00		 mov	 rax, QWORD PTR this$[rbp]
  00233	f3 0f 10 05 00
	00 00 00	 movss	 xmm0, DWORD PTR __real@40600000
  0023b	f3 0f 11 80 4c
	01 00 00	 movss	 DWORD PTR [rax+332], xmm0

; 196  : 
; 197  : 	//Attack
; 198  : 	_bool m_bAttack = false;

  00243	48 8b 85 00 01
	00 00		 mov	 rax, QWORD PTR this$[rbp]
  0024a	c6 80 50 01 00
	00 00		 mov	 BYTE PTR [rax+336], 0

; 199  : 	_float m_fAttackCollisionLocal = 0.0f;

  00251	48 8b 85 00 01
	00 00		 mov	 rax, QWORD PTR this$[rbp]
  00258	0f 57 c0	 xorps	 xmm0, xmm0
  0025b	f3 0f 11 80 54
	01 00 00	 movss	 DWORD PTR [rax+340], xmm0

; 200  : 	const _float m_fAttackCollisionTimeOut = 0.1f;

  00263	48 8b 85 00 01
	00 00		 mov	 rax, QWORD PTR this$[rbp]
  0026a	f3 0f 10 05 00
	00 00 00	 movss	 xmm0, DWORD PTR __real@3dcccccd
  00272	f3 0f 11 80 58
	01 00 00	 movss	 DWORD PTR [rax+344], xmm0

; 201  : 
; 202  : 	//Overlap
; 203  : 	_float3 m_vNagative = { 0.f, 0.f, 0.f };

  0027a	48 8b 85 00 01
	00 00		 mov	 rax, QWORD PTR this$[rbp]
  00281	48 05 5c 01 00
	00		 add	 rax, 348		; 0000015cH
  00287	0f 57 db	 xorps	 xmm3, xmm3
  0028a	0f 57 d2	 xorps	 xmm2, xmm2
  0028d	0f 57 c9	 xorps	 xmm1, xmm1
  00290	48 8b c8	 mov	 rcx, rax
  00293	e8 00 00 00 00	 call	 ??0XMFLOAT3@DirectX@@QEAA@MMM@Z ; DirectX::XMFLOAT3::XMFLOAT3
; File c:\github\framework\client\private\enemy.cpp

; 22   : 	, m_bOverlapped(rhs.m_bOverlapped)

  00298	48 8b 85 00 01
	00 00		 mov	 rax, QWORD PTR this$[rbp]
  0029f	48 8b 8d 08 01
	00 00		 mov	 rcx, QWORD PTR rhs$[rbp]
  002a6	0f b6 89 68 01
	00 00		 movzx	 ecx, BYTE PTR [rcx+360]
  002ad	88 88 68 01 00
	00		 mov	 BYTE PTR [rax+360], cl

; 23   : 	, m_OverlapAcc(rhs.m_OverlapAcc)

  002b3	48 8b 85 00 01
	00 00		 mov	 rax, QWORD PTR this$[rbp]
  002ba	48 8b 8d 08 01
	00 00		 mov	 rcx, QWORD PTR rhs$[rbp]
  002c1	f2 0f 10 81 70
	01 00 00	 movsd	 xmm0, QWORD PTR [rcx+368]
  002c9	f2 0f 11 80 70
	01 00 00	 movsd	 QWORD PTR [rax+368], xmm0

; 24   : 	, m_OverlappedWait(rhs.m_OverlappedWait)

  002d1	48 8b 85 00 01
	00 00		 mov	 rax, QWORD PTR this$[rbp]
  002d8	48 8b 8d 08 01
	00 00		 mov	 rcx, QWORD PTR rhs$[rbp]
  002df	f2 0f 10 81 78
	01 00 00	 movsd	 xmm0, QWORD PTR [rcx+376]
  002e7	f2 0f 11 80 78
	01 00 00	 movsd	 QWORD PTR [rax+376], xmm0

; 21   : 	, m_bMovable(rhs.m_bMovable)

  002ef	48 8b 85 00 01
	00 00		 mov	 rax, QWORD PTR this$[rbp]
  002f6	48 8b 8d 08 01
	00 00		 mov	 rcx, QWORD PTR rhs$[rbp]
  002fd	0f b6 89 80 01
	00 00		 movzx	 ecx, BYTE PTR [rcx+384]
  00304	88 88 80 01 00
	00		 mov	 BYTE PTR [rax+384], cl
; File c:\github\framework\client\public\enemy.h

; 211  : 	_bool m_bDead = false;

  0030a	48 8b 85 00 01
	00 00		 mov	 rax, QWORD PTR this$[rbp]
  00311	c6 80 81 01 00
	00 00		 mov	 BYTE PTR [rax+385], 0

; 212  : 	_bool m_bDeadWait = false;

  00318	48 8b 85 00 01
	00 00		 mov	 rax, QWORD PTR this$[rbp]
  0031f	c6 80 82 01 00
	00 00		 mov	 BYTE PTR [rax+386], 0

; 213  : 	_float m_fDeadWaitTimer = 0.0f;

  00326	48 8b 85 00 01
	00 00		 mov	 rax, QWORD PTR this$[rbp]
  0032d	0f 57 c0	 xorps	 xmm0, xmm0
  00330	f3 0f 11 80 84
	01 00 00	 movss	 DWORD PTR [rax+388], xmm0

; 214  : 	const _float m_fDeadWaitTimeOut = 2.f;

  00338	48 8b 85 00 01
	00 00		 mov	 rax, QWORD PTR this$[rbp]
  0033f	f3 0f 10 05 00
	00 00 00	 movss	 xmm0, DWORD PTR __real@40000000
  00347	f3 0f 11 80 88
	01 00 00	 movss	 DWORD PTR [rax+392], xmm0

; 215  : 
; 216  : 	//Hit
; 217  : 	_bool m_bAttackOneCall = false;

  0034f	48 8b 85 00 01
	00 00		 mov	 rax, QWORD PTR this$[rbp]
  00356	c6 80 8c 01 00
	00 00		 mov	 BYTE PTR [rax+396], 0

; 218  : 	_bool m_bAttackCollision = false;

  0035d	48 8b 85 00 01
	00 00		 mov	 rax, QWORD PTR this$[rbp]
  00364	c6 80 8d 01 00
	00 00		 mov	 BYTE PTR [rax+397], 0

; 219  : 	_bool m_bHitStart = false;

  0036b	48 8b 85 00 01
	00 00		 mov	 rax, QWORD PTR this$[rbp]
  00372	c6 80 8e 01 00
	00 00		 mov	 BYTE PTR [rax+398], 0

; 220  : 	_bool m_bHit = false; //  true

  00379	48 8b 85 00 01
	00 00		 mov	 rax, QWORD PTR this$[rbp]
  00380	c6 80 8f 01 00
	00 00		 mov	 BYTE PTR [rax+399], 0

; 221  : 
; 222  : 	_bool m_bNuckback = false;

  00387	48 8b 85 00 01
	00 00		 mov	 rax, QWORD PTR this$[rbp]
  0038e	c6 80 90 01 00
	00 00		 mov	 BYTE PTR [rax+400], 0

; 223  : 	_bool m_bNuckBackFinish = false;

  00395	48 8b 85 00 01
	00 00		 mov	 rax, QWORD PTR this$[rbp]
  0039c	c6 80 91 01 00
	00 00		 mov	 BYTE PTR [rax+401], 0

; 224  : 	_float m_fNuckbackPower = 4.0f;

  003a3	48 8b 85 00 01
	00 00		 mov	 rax, QWORD PTR this$[rbp]
  003aa	f3 0f 10 05 00
	00 00 00	 movss	 xmm0, DWORD PTR __real@40800000
  003b2	f3 0f 11 80 94
	01 00 00	 movss	 DWORD PTR [rax+404], xmm0

; 225  : 	_float m_fNuckBackTimer = 0.0f;

  003ba	48 8b 85 00 01
	00 00		 mov	 rax, QWORD PTR this$[rbp]
  003c1	0f 57 c0	 xorps	 xmm0, xmm0
  003c4	f3 0f 11 80 98
	01 00 00	 movss	 DWORD PTR [rax+408], xmm0

; 226  : 	const _float m_fNuckBackTimeOut = 0.15f;

  003cc	48 8b 85 00 01
	00 00		 mov	 rax, QWORD PTR this$[rbp]
  003d3	f3 0f 10 05 00
	00 00 00	 movss	 xmm0, DWORD PTR __real@3e19999a
  003db	f3 0f 11 80 9c
	01 00 00	 movss	 DWORD PTR [rax+412], xmm0

; 227  : 
; 228  : 	_float m_fCurTimeScale = 1.0;

  003e3	48 8b 85 00 01
	00 00		 mov	 rax, QWORD PTR this$[rbp]
  003ea	f3 0f 10 05 00
	00 00 00	 movss	 xmm0, DWORD PTR __real@3f800000
  003f2	f3 0f 11 80 a0
	01 00 00	 movss	 DWORD PTR [rax+416], xmm0

; 229  : 
; 230  : 	_float m_fAttackCoolTimer = 4.0f;

  003fa	48 8b 85 00 01
	00 00		 mov	 rax, QWORD PTR this$[rbp]
  00401	f3 0f 10 05 00
	00 00 00	 movss	 xmm0, DWORD PTR __real@40800000
  00409	f3 0f 11 80 a4
	01 00 00	 movss	 DWORD PTR [rax+420], xmm0

; 231  : 	const _float m_fAttackCoolTimeOut = 4.0f;

  00411	48 8b 85 00 01
	00 00		 mov	 rax, QWORD PTR this$[rbp]
  00418	f3 0f 10 05 00
	00 00 00	 movss	 xmm0, DWORD PTR __real@40800000
  00420	f3 0f 11 80 a8
	01 00 00	 movss	 DWORD PTR [rax+424], xmm0

; 232  : 
; 233  : 	_float m_fTraceLocal = 0.0f;

  00428	48 8b 85 00 01
	00 00		 mov	 rax, QWORD PTR this$[rbp]
  0042f	0f 57 c0	 xorps	 xmm0, xmm0
  00432	f3 0f 11 80 ac
	01 00 00	 movss	 DWORD PTR [rax+428], xmm0

; 234  : 	const _float m_fTraceTimeOut = 0.5f;

  0043a	48 8b 85 00 01
	00 00		 mov	 rax, QWORD PTR this$[rbp]
  00441	f3 0f 10 05 00
	00 00 00	 movss	 xmm0, DWORD PTR __real@3f000000
  00449	f3 0f 11 80 b0
	01 00 00	 movss	 DWORD PTR [rax+432], xmm0

; 235  : 
; 236  : 
; 237  : 	// 
; 238  : 	_bool m_bAirHit = false;

  00451	48 8b 85 00 01
	00 00		 mov	 rax, QWORD PTR this$[rbp]
  00458	c6 80 b4 01 00
	00 00		 mov	 BYTE PTR [rax+436], 0

; 239  : 	_bool m_bAir = false;

  0045f	48 8b 85 00 01
	00 00		 mov	 rax, QWORD PTR this$[rbp]
  00466	c6 80 b5 01 00
	00 00		 mov	 BYTE PTR [rax+437], 0

; 240  : 
; 241  : 	_bool m_bStandupStart = false;

  0046d	48 8b 85 00 01
	00 00		 mov	 rax, QWORD PTR this$[rbp]
  00474	c6 80 b6 01 00
	00 00		 mov	 BYTE PTR [rax+438], 0

; 242  : 	_float m_fStandupTimer = 0.0f;

  0047b	48 8b 85 00 01
	00 00		 mov	 rax, QWORD PTR this$[rbp]
  00482	0f 57 c0	 xorps	 xmm0, xmm0
  00485	f3 0f 11 80 b8
	01 00 00	 movss	 DWORD PTR [rax+440], xmm0

; 243  : 	const _float m_fStandupTimeOut = 2.0f;

  0048d	48 8b 85 00 01
	00 00		 mov	 rax, QWORD PTR this$[rbp]
  00494	f3 0f 10 05 00
	00 00 00	 movss	 xmm0, DWORD PTR __real@40000000
  0049c	f3 0f 11 80 bc
	01 00 00	 movss	 DWORD PTR [rax+444], xmm0

; 244  : 
; 245  : 	// 
; 246  : 	_bool m_bHolding = false;

  004a4	48 8b 85 00 01
	00 00		 mov	 rax, QWORD PTR this$[rbp]
  004ab	c6 80 c0 01 00
	00 00		 mov	 BYTE PTR [rax+448], 0

; 247  : 
; 248  : 	_int m_iRandomHitAnim = 0;

  004b2	48 8b 85 00 01
	00 00		 mov	 rax, QWORD PTR this$[rbp]
  004b9	c7 80 c4 01 00
	00 00 00 00 00	 mov	 DWORD PTR [rax+452], 0

; 249  : 
; 250  : 	_bool m_bAlpha = false;

  004c3	48 8b 85 00 01
	00 00		 mov	 rax, QWORD PTR this$[rbp]
  004ca	c6 80 c8 01 00
	00 00		 mov	 BYTE PTR [rax+456], 0
; File c:\github\framework\client\private\enemy.cpp

; 27   : 	s_iCount++;

  004d1	8b 05 00 00 00
	00		 mov	 eax, DWORD PTR ?s_iCount@CEnemy@Client@@0IA ; Client::CEnemy::s_iCount
  004d7	ff c0		 inc	 eax
  004d9	89 05 00 00 00
	00		 mov	 DWORD PTR ?s_iCount@CEnemy@Client@@0IA, eax ; Client::CEnemy::s_iCount

; 28   : }

  004df	48 8b 85 00 01
	00 00		 mov	 rax, QWORD PTR this$[rbp]
  004e6	48 8d a5 e8 00
	00 00		 lea	 rsp, QWORD PTR [rbp+232]
  004ed	5f		 pop	 rdi
  004ee	5d		 pop	 rbp
  004ef	c3		 ret	 0
??0CEnemy@Client@@QEAA@AEBV01@@Z ENDP			; Client::CEnemy::CEnemy
_TEXT	ENDS
;	COMDAT text$x
text$x	SEGMENT
$T1 = 200
this$ = 256
rhs$ = 264
?dtor$0@?0???0CEnemy@Client@@QEAA@AEBV01@@Z@4HA PROC	; `Client::CEnemy::CEnemy'::`1'::dtor$0
  00000	48 89 4c 24 08	 mov	 QWORD PTR [rsp+8], rcx
  00005	48 89 54 24 10	 mov	 QWORD PTR [rsp+16], rdx
  0000a	55		 push	 rbp
  0000b	57		 push	 rdi
  0000c	48 83 ec 28	 sub	 rsp, 40			; 00000028H
  00010	48 8d 6a 20	 lea	 rbp, QWORD PTR [rdx+32]
  00014	48 8b 8d 00 01
	00 00		 mov	 rcx, QWORD PTR this$[rbp]
  0001b	ff 15 00 00 00
	00		 call	 QWORD PTR __imp_??1CGameObject@Engine@@MEAA@XZ
  00021	48 83 c4 28	 add	 rsp, 40			; 00000028H
  00025	5f		 pop	 rdi
  00026	5d		 pop	 rbp
  00027	c3		 ret	 0
?dtor$0@?0???0CEnemy@Client@@QEAA@AEBV01@@Z@4HA ENDP	; `Client::CEnemy::CEnemy'::`1'::dtor$0
text$x	ENDS
; Function compile flags: /Odtp /RTCsu /ZI
;	COMDAT text$x
text$x	SEGMENT
$T1 = 200
this$ = 256
rhs$ = 264
?dtor$0@?0???0CEnemy@Client@@QEAA@AEBV01@@Z@4HA PROC	; `Client::CEnemy::CEnemy'::`1'::dtor$0
  00000	48 89 4c 24 08	 mov	 QWORD PTR [rsp+8], rcx
  00005	48 89 54 24 10	 mov	 QWORD PTR [rsp+16], rdx
  0000a	55		 push	 rbp
  0000b	57		 push	 rdi
  0000c	48 83 ec 28	 sub	 rsp, 40			; 00000028H
  00010	48 8d 6a 20	 lea	 rbp, QWORD PTR [rdx+32]
  00014	48 8b 8d 00 01
	00 00		 mov	 rcx, QWORD PTR this$[rbp]
  0001b	ff 15 00 00 00
	00		 call	 QWORD PTR __imp_??1CGameObject@Engine@@MEAA@XZ
  00021	48 83 c4 28	 add	 rsp, 40			; 00000028H
  00025	5f		 pop	 rdi
  00026	5d		 pop	 rbp
  00027	c3		 ret	 0
?dtor$0@?0???0CEnemy@Client@@QEAA@AEBV01@@Z@4HA ENDP	; `Client::CEnemy::CEnemy'::`1'::dtor$0
text$x	ENDS
; Function compile flags: /Odtp /RTCsu /ZI
; File c:\github\framework\client\private\enemy.cpp
; File c:\github\framework\client\public\enemy.h
; File c:\github\framework\client\private\enemy.cpp
; File c:\github\framework\client\public\enemy.h
; File c:\github\framework\client\private\enemy.cpp
;	COMDAT ??0CEnemy@Client@@QEAA@PEAUID3D11Device@@PEAUID3D11DeviceContext@@@Z
_TEXT	SEGMENT
$T1 = 200
this$ = 256
pDevice$ = 264
pContext$ = 272
??0CEnemy@Client@@QEAA@PEAUID3D11Device@@PEAUID3D11DeviceContext@@@Z PROC ; Client::CEnemy::CEnemy, COMDAT

; 15   : {

$LN4:
  00000	4c 89 44 24 18	 mov	 QWORD PTR [rsp+24], r8
  00005	48 89 54 24 10	 mov	 QWORD PTR [rsp+16], rdx
  0000a	48 89 4c 24 08	 mov	 QWORD PTR [rsp+8], rcx
  0000f	55		 push	 rbp
  00010	57		 push	 rdi
  00011	48 81 ec 08 01
	00 00		 sub	 rsp, 264		; 00000108H
  00018	48 8d 6c 24 20	 lea	 rbp, QWORD PTR [rsp+32]
  0001d	48 8b fc	 mov	 rdi, rsp
  00020	b9 42 00 00 00	 mov	 ecx, 66			; 00000042H
  00025	b8 cc cc cc cc	 mov	 eax, -858993460		; ccccccccH
  0002a	f3 ab		 rep stosd
  0002c	48 8b 8c 24 28
	01 00 00	 mov	 rcx, QWORD PTR [rsp+296]
  00034	48 c7 85 c8 00
	00 00 fe ff ff
	ff		 mov	 QWORD PTR $T1[rbp], -2

; 14   : 	: CGameObject(pDevice, pContext)

  0003f	4c 8b 85 10 01
	00 00		 mov	 r8, QWORD PTR pContext$[rbp]
  00046	48 8b 95 08 01
	00 00		 mov	 rdx, QWORD PTR pDevice$[rbp]
  0004d	48 8b 8d 00 01
	00 00		 mov	 rcx, QWORD PTR this$[rbp]
  00054	ff 15 00 00 00
	00		 call	 QWORD PTR __imp_??0CGameObject@Engine@@IEAA@PEAUID3D11Device@@PEAUID3D11DeviceContext@@@Z
  0005a	90		 npad	 1

; 15   : {

  0005b	48 8b 85 00 01
	00 00		 mov	 rax, QWORD PTR this$[rbp]
  00062	48 83 c0 78	 add	 rax, 120		; 00000078H
  00066	48 8b c8	 mov	 rcx, rax
  00069	ff 15 00 00 00
	00		 call	 QWORD PTR __imp_??0IOnCollisionEnter@Engine@@QEAA@XZ
  0006f	48 8b 85 00 01
	00 00		 mov	 rax, QWORD PTR this$[rbp]
  00076	48 05 80 00 00
	00		 add	 rax, 128		; 00000080H
  0007c	48 8b c8	 mov	 rcx, rax
  0007f	ff 15 00 00 00
	00		 call	 QWORD PTR __imp_??0IOnCollisionStay@Engine@@QEAA@XZ
  00085	48 8b 85 00 01
	00 00		 mov	 rax, QWORD PTR this$[rbp]
  0008c	48 05 88 00 00
	00		 add	 rax, 136		; 00000088H
  00092	48 8b c8	 mov	 rcx, rax
  00095	ff 15 00 00 00
	00		 call	 QWORD PTR __imp_??0IOnCollisionExit@Engine@@QEAA@XZ
  0009b	48 8b 85 00 01
	00 00		 mov	 rax, QWORD PTR this$[rbp]
  000a2	48 8d 0d 00 00
	00 00		 lea	 rcx, OFFSET FLAT:??_7CEnemy@Client@@6BCGameObject@Engine@@@
  000a9	48 89 08	 mov	 QWORD PTR [rax], rcx
  000ac	48 8b 85 00 01
	00 00		 mov	 rax, QWORD PTR this$[rbp]
  000b3	48 8d 0d 00 00
	00 00		 lea	 rcx, OFFSET FLAT:??_7CEnemy@Client@@6BIOnCollisionEnter@Engine@@@
  000ba	48 89 48 78	 mov	 QWORD PTR [rax+120], rcx
  000be	48 8b 85 00 01
	00 00		 mov	 rax, QWORD PTR this$[rbp]
  000c5	48 8d 0d 00 00
	00 00		 lea	 rcx, OFFSET FLAT:??_7CEnemy@Client@@6BIOnCollisionStay@Engine@@@
  000cc	48 89 88 80 00
	00 00		 mov	 QWORD PTR [rax+128], rcx
  000d3	48 8b 85 00 01
	00 00		 mov	 rax, QWORD PTR this$[rbp]
  000da	48 8d 0d 00 00
	00 00		 lea	 rcx, OFFSET FLAT:??_7CEnemy@Client@@6BIOnCollisionExit@Engine@@@
  000e1	48 89 88 88 00
	00 00		 mov	 QWORD PTR [rax+136], rcx
; File c:\github\framework\client\public\enemy.h

; 164  : 	CRenderer* renderer = nullptr;

  000e8	48 8b 85 00 01
	00 00		 mov	 rax, QWORD PTR this$[rbp]
  000ef	48 c7 80 90 00
	00 00 00 00 00
	00		 mov	 QWORD PTR [rax+144], 0

; 165  : 	CTransform* transform = nullptr;

  000fa	48 8b 85 00 01
	00 00		 mov	 rax, QWORD PTR this$[rbp]
  00101	48 c7 80 98 00
	00 00 00 00 00
	00		 mov	 QWORD PTR [rax+152], 0

; 166  : 	CModel* model = nullptr;

  0010c	48 8b 85 00 01
	00 00		 mov	 rax, QWORD PTR this$[rbp]
  00113	48 c7 80 a0 00
	00 00 00 00 00
	00		 mov	 QWORD PTR [rax+160], 0

; 167  : 	CShader* shader = nullptr;

  0011e	48 8b 85 00 01
	00 00		 mov	 rax, QWORD PTR this$[rbp]
  00125	48 c7 80 a8 00
	00 00 00 00 00
	00		 mov	 QWORD PTR [rax+168], 0

; 168  : 	CCollider* collider = nullptr;

  00130	48 8b 85 00 01
	00 00		 mov	 rax, QWORD PTR this$[rbp]
  00137	48 c7 80 b0 00
	00 00 00 00 00
	00		 mov	 QWORD PTR [rax+176], 0

; 169  : 
; 170  : 	//  
; 171  : 	CCollider* m_pOverlapCollider = nullptr;

  00142	48 8b 85 00 01
	00 00		 mov	 rax, QWORD PTR this$[rbp]
  00149	48 c7 80 b8 00
	00 00 00 00 00
	00		 mov	 QWORD PTR [rax+184], 0

; 172  : 
; 173  : 	CCollider* m_pWeaponCollider = nullptr;

  00154	48 8b 85 00 01
	00 00		 mov	 rax, QWORD PTR this$[rbp]
  0015b	48 c7 80 c0 00
	00 00 00 00 00
	00		 mov	 QWORD PTR [rax+192], 0

; 174  : 	CBone* m_pWeaponBone = nullptr;

  00166	48 8b 85 00 01
	00 00		 mov	 rax, QWORD PTR this$[rbp]
  0016d	48 c7 80 c8 00
	00 00 00 00 00
	00		 mov	 QWORD PTR [rax+200], 0

; 175  : 
; 176  : 	class CApplicationManager* m_pAppManager = nullptr;

  00178	48 8b 85 00 01
	00 00		 mov	 rax, QWORD PTR this$[rbp]
  0017f	48 c7 80 d0 00
	00 00 00 00 00
	00		 mov	 QWORD PTR [rax+208], 0

; 177  : private:
; 178  : 	static _uint s_iCount;
; 179  : 
; 180  : private:
; 181  : 	TYPE m_eType = TYPE::HUMANOID;

  0018a	48 8b 85 00 01
	00 00		 mov	 rax, QWORD PTR this$[rbp]
  00191	c7 80 d8 00 00
	00 00 00 00 00	 mov	 DWORD PTR [rax+216], 0
; File c:\github\framework\client\private\enemy.cpp

; 15   : {

  0019b	48 8b 85 00 01
	00 00		 mov	 rax, QWORD PTR this$[rbp]
  001a2	48 05 dc 00 00
	00		 add	 rax, 220		; 000000dcH
  001a8	48 8b c8	 mov	 rcx, rax
  001ab	e8 00 00 00 00	 call	 ??0XMFLOAT4X4@DirectX@@QEAA@XZ ; DirectX::XMFLOAT4X4::XMFLOAT4X4
; File c:\github\framework\client\public\enemy.h

; 184  : 	class CBone* bone = nullptr;

  001b0	48 8b 85 00 01
	00 00		 mov	 rax, QWORD PTR this$[rbp]
  001b7	48 c7 80 20 01
	00 00 00 00 00
	00		 mov	 QWORD PTR [rax+288], 0

; 185  : 	_uint animation = 0;

  001c2	48 8b 85 00 01
	00 00		 mov	 rax, QWORD PTR this$[rbp]
  001c9	c7 80 28 01 00
	00 00 00 00 00	 mov	 DWORD PTR [rax+296], 0

; 186  : 
; 187  : 	ENEMY_STATE m_State;
; 188  : 
; 189  : 	CCharacter* m_pPlayer = nullptr;

  001d3	48 8b 85 00 01
	00 00		 mov	 rax, QWORD PTR this$[rbp]
  001da	48 c7 80 38 01
	00 00 00 00 00
	00		 mov	 QWORD PTR [rax+312], 0

; 190  : 	CTransform* m_pPlayerTransform = nullptr;

  001e5	48 8b 85 00 01
	00 00		 mov	 rax, QWORD PTR this$[rbp]
  001ec	48 c7 80 40 01
	00 00 00 00 00
	00		 mov	 QWORD PTR [rax+320], 0

; 191  : 
; 192  : 	_bool m_bTraceFinish = false;

  001f7	48 8b 85 00 01
	00 00		 mov	 rax, QWORD PTR this$[rbp]
  001fe	c6 80 48 01 00
	00 00		 mov	 BYTE PTR [rax+328], 0

; 193  : 	_bool m_bRotationFinish = false;

  00205	48 8b 85 00 01
	00 00		 mov	 rax, QWORD PTR this$[rbp]
  0020c	c6 80 49 01 00
	00 00		 mov	 BYTE PTR [rax+329], 0

; 194  : 
; 195  : 	const _float m_fAttackRange = 3.5f;

  00213	48 8b 85 00 01
	00 00		 mov	 rax, QWORD PTR this$[rbp]
  0021a	f3 0f 10 05 00
	00 00 00	 movss	 xmm0, DWORD PTR __real@40600000
  00222	f3 0f 11 80 4c
	01 00 00	 movss	 DWORD PTR [rax+332], xmm0

; 196  : 
; 197  : 	//Attack
; 198  : 	_bool m_bAttack = false;

  0022a	48 8b 85 00 01
	00 00		 mov	 rax, QWORD PTR this$[rbp]
  00231	c6 80 50 01 00
	00 00		 mov	 BYTE PTR [rax+336], 0

; 199  : 	_float m_fAttackCollisionLocal = 0.0f;

  00238	48 8b 85 00 01
	00 00		 mov	 rax, QWORD PTR this$[rbp]
  0023f	0f 57 c0	 xorps	 xmm0, xmm0
  00242	f3 0f 11 80 54
	01 00 00	 movss	 DWORD PTR [rax+340], xmm0

; 200  : 	const _float m_fAttackCollisionTimeOut = 0.1f;

  0024a	48 8b 85 00 01
	00 00		 mov	 rax, QWORD PTR this$[rbp]
  00251	f3 0f 10 05 00
	00 00 00	 movss	 xmm0, DWORD PTR __real@3dcccccd
  00259	f3 0f 11 80 58
	01 00 00	 movss	 DWORD PTR [rax+344], xmm0

; 201  : 
; 202  : 	//Overlap
; 203  : 	_float3 m_vNagative = { 0.f, 0.f, 0.f };

  00261	48 8b 85 00 01
	00 00		 mov	 rax, QWORD PTR this$[rbp]
  00268	48 05 5c 01 00
	00		 add	 rax, 348		; 0000015cH
  0026e	0f 57 db	 xorps	 xmm3, xmm3
  00271	0f 57 d2	 xorps	 xmm2, xmm2
  00274	0f 57 c9	 xorps	 xmm1, xmm1
  00277	48 8b c8	 mov	 rcx, rax
  0027a	e8 00 00 00 00	 call	 ??0XMFLOAT3@DirectX@@QEAA@MMM@Z ; DirectX::XMFLOAT3::XMFLOAT3

; 204  : 	_bool m_bOverlapped = false;

  0027f	48 8b 85 00 01
	00 00		 mov	 rax, QWORD PTR this$[rbp]
  00286	c6 80 68 01 00
	00 00		 mov	 BYTE PTR [rax+360], 0

; 205  : 	_double m_OverlapAcc = 0.0;

  0028d	48 8b 85 00 01
	00 00		 mov	 rax, QWORD PTR this$[rbp]
  00294	0f 57 c0	 xorps	 xmm0, xmm0
  00297	f2 0f 11 80 70
	01 00 00	 movsd	 QWORD PTR [rax+368], xmm0

; 206  : 	const _double m_OverlappedWait = 1.f;

  0029f	48 8b 85 00 01
	00 00		 mov	 rax, QWORD PTR this$[rbp]
  002a6	f2 0f 10 05 00
	00 00 00	 movsd	 xmm0, QWORD PTR __real@3ff0000000000000
  002ae	f2 0f 11 80 78
	01 00 00	 movsd	 QWORD PTR [rax+376], xmm0

; 207  : 
; 208  : 	_bool m_bMovable = false;

  002b6	48 8b 85 00 01
	00 00		 mov	 rax, QWORD PTR this$[rbp]
  002bd	c6 80 80 01 00
	00 00		 mov	 BYTE PTR [rax+384], 0

; 209  : 
; 210  : 	//Die
; 211  : 	_bool m_bDead = false;

  002c4	48 8b 85 00 01
	00 00		 mov	 rax, QWORD PTR this$[rbp]
  002cb	c6 80 81 01 00
	00 00		 mov	 BYTE PTR [rax+385], 0

; 212  : 	_bool m_bDeadWait = false;

  002d2	48 8b 85 00 01
	00 00		 mov	 rax, QWORD PTR this$[rbp]
  002d9	c6 80 82 01 00
	00 00		 mov	 BYTE PTR [rax+386], 0

; 213  : 	_float m_fDeadWaitTimer = 0.0f;

  002e0	48 8b 85 00 01
	00 00		 mov	 rax, QWORD PTR this$[rbp]
  002e7	0f 57 c0	 xorps	 xmm0, xmm0
  002ea	f3 0f 11 80 84
	01 00 00	 movss	 DWORD PTR [rax+388], xmm0

; 214  : 	const _float m_fDeadWaitTimeOut = 2.f;

  002f2	48 8b 85 00 01
	00 00		 mov	 rax, QWORD PTR this$[rbp]
  002f9	f3 0f 10 05 00
	00 00 00	 movss	 xmm0, DWORD PTR __real@40000000
  00301	f3 0f 11 80 88
	01 00 00	 movss	 DWORD PTR [rax+392], xmm0

; 215  : 
; 216  : 	//Hit
; 217  : 	_bool m_bAttackOneCall = false;

  00309	48 8b 85 00 01
	00 00		 mov	 rax, QWORD PTR this$[rbp]
  00310	c6 80 8c 01 00
	00 00		 mov	 BYTE PTR [rax+396], 0

; 218  : 	_bool m_bAttackCollision = false;

  00317	48 8b 85 00 01
	00 00		 mov	 rax, QWORD PTR this$[rbp]
  0031e	c6 80 8d 01 00
	00 00		 mov	 BYTE PTR [rax+397], 0

; 219  : 	_bool m_bHitStart = false;

  00325	48 8b 85 00 01
	00 00		 mov	 rax, QWORD PTR this$[rbp]
  0032c	c6 80 8e 01 00
	00 00		 mov	 BYTE PTR [rax+398], 0

; 220  : 	_bool m_bHit = false; //  true

  00333	48 8b 85 00 01
	00 00		 mov	 rax, QWORD PTR this$[rbp]
  0033a	c6 80 8f 01 00
	00 00		 mov	 BYTE PTR [rax+399], 0

; 221  : 
; 222  : 	_bool m_bNuckback = false;

  00341	48 8b 85 00 01
	00 00		 mov	 rax, QWORD PTR this$[rbp]
  00348	c6 80 90 01 00
	00 00		 mov	 BYTE PTR [rax+400], 0

; 223  : 	_bool m_bNuckBackFinish = false;

  0034f	48 8b 85 00 01
	00 00		 mov	 rax, QWORD PTR this$[rbp]
  00356	c6 80 91 01 00
	00 00		 mov	 BYTE PTR [rax+401], 0

; 224  : 	_float m_fNuckbackPower = 4.0f;

  0035d	48 8b 85 00 01
	00 00		 mov	 rax, QWORD PTR this$[rbp]
  00364	f3 0f 10 05 00
	00 00 00	 movss	 xmm0, DWORD PTR __real@40800000
  0036c	f3 0f 11 80 94
	01 00 00	 movss	 DWORD PTR [rax+404], xmm0

; 225  : 	_float m_fNuckBackTimer = 0.0f;

  00374	48 8b 85 00 01
	00 00		 mov	 rax, QWORD PTR this$[rbp]
  0037b	0f 57 c0	 xorps	 xmm0, xmm0
  0037e	f3 0f 11 80 98
	01 00 00	 movss	 DWORD PTR [rax+408], xmm0

; 226  : 	const _float m_fNuckBackTimeOut = 0.15f;

  00386	48 8b 85 00 01
	00 00		 mov	 rax, QWORD PTR this$[rbp]
  0038d	f3 0f 10 05 00
	00 00 00	 movss	 xmm0, DWORD PTR __real@3e19999a
  00395	f3 0f 11 80 9c
	01 00 00	 movss	 DWORD PTR [rax+412], xmm0

; 227  : 
; 228  : 	_float m_fCurTimeScale = 1.0;

  0039d	48 8b 85 00 01
	00 00		 mov	 rax, QWORD PTR this$[rbp]
  003a4	f3 0f 10 05 00
	00 00 00	 movss	 xmm0, DWORD PTR __real@3f800000
  003ac	f3 0f 11 80 a0
	01 00 00	 movss	 DWORD PTR [rax+416], xmm0

; 229  : 
; 230  : 	_float m_fAttackCoolTimer = 4.0f;

  003b4	48 8b 85 00 01
	00 00		 mov	 rax, QWORD PTR this$[rbp]
  003bb	f3 0f 10 05 00
	00 00 00	 movss	 xmm0, DWORD PTR __real@40800000
  003c3	f3 0f 11 80 a4
	01 00 00	 movss	 DWORD PTR [rax+420], xmm0

; 231  : 	const _float m_fAttackCoolTimeOut = 4.0f;

  003cb	48 8b 85 00 01
	00 00		 mov	 rax, QWORD PTR this$[rbp]
  003d2	f3 0f 10 05 00
	00 00 00	 movss	 xmm0, DWORD PTR __real@40800000
  003da	f3 0f 11 80 a8
	01 00 00	 movss	 DWORD PTR [rax+424], xmm0

; 232  : 
; 233  : 	_float m_fTraceLocal = 0.0f;

  003e2	48 8b 85 00 01
	00 00		 mov	 rax, QWORD PTR this$[rbp]
  003e9	0f 57 c0	 xorps	 xmm0, xmm0
  003ec	f3 0f 11 80 ac
	01 00 00	 movss	 DWORD PTR [rax+428], xmm0

; 234  : 	const _float m_fTraceTimeOut = 0.5f;

  003f4	48 8b 85 00 01
	00 00		 mov	 rax, QWORD PTR this$[rbp]
  003fb	f3 0f 10 05 00
	00 00 00	 movss	 xmm0, DWORD PTR __real@3f000000
  00403	f3 0f 11 80 b0
	01 00 00	 movss	 DWORD PTR [rax+432], xmm0

; 235  : 
; 236  : 
; 237  : 	// 
; 238  : 	_bool m_bAirHit = false;

  0040b	48 8b 85 00 01
	00 00		 mov	 rax, QWORD PTR this$[rbp]
  00412	c6 80 b4 01 00
	00 00		 mov	 BYTE PTR [rax+436], 0

; 239  : 	_bool m_bAir = false;

  00419	48 8b 85 00 01
	00 00		 mov	 rax, QWORD PTR this$[rbp]
  00420	c6 80 b5 01 00
	00 00		 mov	 BYTE PTR [rax+437], 0

; 240  : 
; 241  : 	_bool m_bStandupStart = false;

  00427	48 8b 85 00 01
	00 00		 mov	 rax, QWORD PTR this$[rbp]
  0042e	c6 80 b6 01 00
	00 00		 mov	 BYTE PTR [rax+438], 0

; 242  : 	_float m_fStandupTimer = 0.0f;

  00435	48 8b 85 00 01
	00 00		 mov	 rax, QWORD PTR this$[rbp]
  0043c	0f 57 c0	 xorps	 xmm0, xmm0
  0043f	f3 0f 11 80 b8
	01 00 00	 movss	 DWORD PTR [rax+440], xmm0

; 243  : 	const _float m_fStandupTimeOut = 2.0f;

  00447	48 8b 85 00 01
	00 00		 mov	 rax, QWORD PTR this$[rbp]
  0044e	f3 0f 10 05 00
	00 00 00	 movss	 xmm0, DWORD PTR __real@40000000
  00456	f3 0f 11 80 bc
	01 00 00	 movss	 DWORD PTR [rax+444], xmm0

; 244  : 
; 245  : 	// 
; 246  : 	_bool m_bHolding = false;

  0045e	48 8b 85 00 01
	00 00		 mov	 rax, QWORD PTR this$[rbp]
  00465	c6 80 c0 01 00
	00 00		 mov	 BYTE PTR [rax+448], 0

; 247  : 
; 248  : 	_int m_iRandomHitAnim = 0;

  0046c	48 8b 85 00 01
	00 00		 mov	 rax, QWORD PTR this$[rbp]
  00473	c7 80 c4 01 00
	00 00 00 00 00	 mov	 DWORD PTR [rax+452], 0

; 249  : 
; 250  : 	_bool m_bAlpha = false;

  0047d	48 8b 85 00 01
	00 00		 mov	 rax, QWORD PTR this$[rbp]
  00484	c6 80 c8 01 00
	00 00		 mov	 BYTE PTR [rax+456], 0
; File c:\github\framework\client\private\enemy.cpp

; 16   : }

  0048b	48 8b 85 00 01
	00 00		 mov	 rax, QWORD PTR this$[rbp]
  00492	48 8d a5 e8 00
	00 00		 lea	 rsp, QWORD PTR [rbp+232]
  00499	5f		 pop	 rdi
  0049a	5d		 pop	 rbp
  0049b	c3		 ret	 0
??0CEnemy@Client@@QEAA@PEAUID3D11Device@@PEAUID3D11DeviceContext@@@Z ENDP ; Client::CEnemy::CEnemy
_TEXT	ENDS
;	COMDAT text$x
text$x	SEGMENT
$T1 = 200
this$ = 256
pDevice$ = 264
pContext$ = 272
?dtor$0@?0???0CEnemy@Client@@QEAA@PEAUID3D11Device@@PEAUID3D11DeviceContext@@@Z@4HA PROC ; `Client::CEnemy::CEnemy'::`1'::dtor$0
  00000	48 89 4c 24 08	 mov	 QWORD PTR [rsp+8], rcx
  00005	48 89 54 24 10	 mov	 QWORD PTR [rsp+16], rdx
  0000a	55		 push	 rbp
  0000b	57		 push	 rdi
  0000c	48 83 ec 28	 sub	 rsp, 40			; 00000028H
  00010	48 8d 6a 20	 lea	 rbp, QWORD PTR [rdx+32]
  00014	48 8b 8d 00 01
	00 00		 mov	 rcx, QWORD PTR this$[rbp]
  0001b	ff 15 00 00 00
	00		 call	 QWORD PTR __imp_??1CGameObject@Engine@@MEAA@XZ
  00021	48 83 c4 28	 add	 rsp, 40			; 00000028H
  00025	5f		 pop	 rdi
  00026	5d		 pop	 rbp
  00027	c3		 ret	 0
?dtor$0@?0???0CEnemy@Client@@QEAA@PEAUID3D11Device@@PEAUID3D11DeviceContext@@@Z@4HA ENDP ; `Client::CEnemy::CEnemy'::`1'::dtor$0
text$x	ENDS
; Function compile flags: /Odtp /RTCsu /ZI
;	COMDAT text$x
text$x	SEGMENT
$T1 = 200
this$ = 256
pDevice$ = 264
pContext$ = 272
?dtor$0@?0???0CEnemy@Client@@QEAA@PEAUID3D11Device@@PEAUID3D11DeviceContext@@@Z@4HA PROC ; `Client::CEnemy::CEnemy'::`1'::dtor$0
  00000	48 89 4c 24 08	 mov	 QWORD PTR [rsp+8], rcx
  00005	48 89 54 24 10	 mov	 QWORD PTR [rsp+16], rdx
  0000a	55		 push	 rbp
  0000b	57		 push	 rdi
  0000c	48 83 ec 28	 sub	 rsp, 40			; 00000028H
  00010	48 8d 6a 20	 lea	 rbp, QWORD PTR [rdx+32]
  00014	48 8b 8d 00 01
	00 00		 mov	 rcx, QWORD PTR this$[rbp]
  0001b	ff 15 00 00 00
	00		 call	 QWORD PTR __imp_??1CGameObject@Engine@@MEAA@XZ
  00021	48 83 c4 28	 add	 rsp, 40			; 00000028H
  00025	5f		 pop	 rdi
  00026	5d		 pop	 rbp
  00027	c3		 ret	 0
?dtor$0@?0???0CEnemy@Client@@QEAA@PEAUID3D11Device@@PEAUID3D11DeviceContext@@@Z@4HA ENDP ; `Client::CEnemy::CEnemy'::`1'::dtor$0
text$x	ENDS
; Function compile flags: /Odtp /RTCsu /ZI
;	COMDAT ??0tagColliderDesc@CCollider@Engine@@QEAA@XZ
_TEXT	SEGMENT
this$ = 224
??0tagColliderDesc@CCollider@Engine@@QEAA@XZ PROC	; Engine::CCollider::tagColliderDesc::tagColliderDesc, COMDAT
$LN3:
  00000	48 89 4c 24 08	 mov	 QWORD PTR [rsp+8], rcx
  00005	55		 push	 rbp
  00006	57		 push	 rdi
  00007	48 81 ec e8 00
	00 00		 sub	 rsp, 232		; 000000e8H
  0000e	48 8d 6c 24 20	 lea	 rbp, QWORD PTR [rsp+32]
  00013	48 8b fc	 mov	 rdi, rsp
  00016	b9 3a 00 00 00	 mov	 ecx, 58			; 0000003aH
  0001b	b8 cc cc cc cc	 mov	 eax, -858993460		; ccccccccH
  00020	f3 ab		 rep stosd
  00022	48 8b 8c 24 08
	01 00 00	 mov	 rcx, QWORD PTR [rsp+264]
  0002a	48 8b 85 e0 00
	00 00		 mov	 rax, QWORD PTR this$[rbp]
  00031	48 83 c0 08	 add	 rax, 8
  00035	48 8b c8	 mov	 rcx, rax
  00038	e8 00 00 00 00	 call	 ??0XMFLOAT3@DirectX@@QEAA@XZ ; DirectX::XMFLOAT3::XMFLOAT3
  0003d	48 8b 85 e0 00
	00 00		 mov	 rax, QWORD PTR this$[rbp]
  00044	48 83 c0 14	 add	 rax, 20
  00048	48 8b c8	 mov	 rcx, rax
  0004b	e8 00 00 00 00	 call	 ??0XMFLOAT3@DirectX@@QEAA@XZ ; DirectX::XMFLOAT3::XMFLOAT3
  00050	48 8b 85 e0 00
	00 00		 mov	 rax, QWORD PTR this$[rbp]
  00057	48 83 c0 20	 add	 rax, 32			; 00000020H
  0005b	48 8b c8	 mov	 rcx, rax
  0005e	e8 00 00 00 00	 call	 ??0XMFLOAT3@DirectX@@QEAA@XZ ; DirectX::XMFLOAT3::XMFLOAT3
  00063	48 8b 85 e0 00
	00 00		 mov	 rax, QWORD PTR this$[rbp]
  0006a	48 8d a5 c8 00
	00 00		 lea	 rsp, QWORD PTR [rbp+200]
  00071	5f		 pop	 rdi
  00072	5d		 pop	 rbp
  00073	c3		 ret	 0
??0tagColliderDesc@CCollider@Engine@@QEAA@XZ ENDP	; Engine::CCollider::tagColliderDesc::tagColliderDesc
_TEXT	ENDS
; Function compile flags: /Odtp /RTCsu /ZI
; File c:\program files (x86)\windows kits\8.1\include\um\directxmathmatrix.inl
;	COMDAT ?XMMatrixMultiply@DirectX@@YQ?AUXMMATRIX@1@U21@AEBU21@@Z
_TEXT	SEGMENT
M1$ = 16
mResult$ = 112
vW$ = 208
vX$ = 256
vY$ = 304
vZ$ = 352
$T5 = 1360
$T6 = 1408
$T7 = 1456
$T8 = 1504
$T9 = 1552
$T10 = 1600
$T11 = 1648
$T12 = 1696
$T13 = 1744
$T14 = 1792
$T15 = 1840
$T16 = 1888
$T17 = 1936
$T18 = 1984
$T19 = 2032
$T20 = 2080
$T21 = 2128
$T22 = 2176
$T23 = 2224
$T24 = 2272
$T25 = 2320
$T26 = 2368
$T27 = 2416
$T28 = 2464
$T29 = 2512
$T30 = 2560
$T31 = 2608
$T32 = 2656
$T33 = 2704
$T34 = 2752
$T35 = 2800
$T36 = 2848
$T37 = 2896
$T38 = 2944
$T39 = 2992
$T40 = 3040
$T41 = 3088
$T42 = 3136
$T43 = 3184
$T44 = 3232
$T45 = 3280
$T46 = 3328
$T47 = 3376
$T48 = 3424
__$ArrayPad$ = 3448
M2$ = 3496
?XMMatrixMultiply@DirectX@@YQ?AUXMMATRIX@1@U21@AEBU21@@Z PROC ; DirectX::XMMatrixMultiply, COMDAT

; 226  : {

$LN3:
  00000	48 89 54 24 10	 mov	 QWORD PTR [rsp+16], rdx
  00005	55		 push	 rbp
  00006	57		 push	 rdi
  00007	48 81 ec b8 0d
	00 00		 sub	 rsp, 3512		; 00000db8H
  0000e	48 8d 6c 24 30	 lea	 rbp, QWORD PTR [rsp+48]
  00013	48 8b fc	 mov	 rdi, rsp
  00016	b9 6e 03 00 00	 mov	 ecx, 878		; 0000036eH
  0001b	b8 cc cc cc cc	 mov	 eax, -858993460		; ccccccccH
  00020	f3 ab		 rep stosd
  00022	48 8b 05 00 00
	00 00		 mov	 rax, QWORD PTR __security_cookie
  00029	48 33 c5	 xor	 rax, rbp
  0002c	48 89 85 78 0d
	00 00		 mov	 QWORD PTR __$ArrayPad$[rbp], rax
  00033	48 8d 45 10	 lea	 rax, QWORD PTR M1$[rbp]
  00037	48 89 84 24 d0
	0d 00 00	 mov	 QWORD PTR [rsp+3536], rax
  0003f	0f 29 5d 40	 movaps	 XMMWORD PTR M1$[rbp+48], xmm3
  00043	0f 29 55 30	 movaps	 XMMWORD PTR M1$[rbp+32], xmm2
  00047	0f 29 4d 20	 movaps	 XMMWORD PTR M1$[rbp+16], xmm1
  0004b	0f 29 45 10	 movaps	 XMMWORD PTR M1$[rbp], xmm0

; 227  : #if defined(_XM_NO_INTRINSICS_)
; 228  :     XMMATRIX mResult;
; 229  :     // Cache the invariants in registers
; 230  :     float x = M1.m[0][0];
; 231  :     float y = M1.m[0][1];
; 232  :     float z = M1.m[0][2];
; 233  :     float w = M1.m[0][3];
; 234  :     // Perform the operation on the first row
; 235  :     mResult.m[0][0] = (M2.m[0][0]*x)+(M2.m[1][0]*y)+(M2.m[2][0]*z)+(M2.m[3][0]*w);
; 236  :     mResult.m[0][1] = (M2.m[0][1]*x)+(M2.m[1][1]*y)+(M2.m[2][1]*z)+(M2.m[3][1]*w);
; 237  :     mResult.m[0][2] = (M2.m[0][2]*x)+(M2.m[1][2]*y)+(M2.m[2][2]*z)+(M2.m[3][2]*w);
; 238  :     mResult.m[0][3] = (M2.m[0][3]*x)+(M2.m[1][3]*y)+(M2.m[2][3]*z)+(M2.m[3][3]*w);
; 239  :     // Repeat for all the other rows
; 240  :     x = M1.m[1][0];
; 241  :     y = M1.m[1][1];
; 242  :     z = M1.m[1][2];
; 243  :     w = M1.m[1][3];
; 244  :     mResult.m[1][0] = (M2.m[0][0]*x)+(M2.m[1][0]*y)+(M2.m[2][0]*z)+(M2.m[3][0]*w);
; 245  :     mResult.m[1][1] = (M2.m[0][1]*x)+(M2.m[1][1]*y)+(M2.m[2][1]*z)+(M2.m[3][1]*w);
; 246  :     mResult.m[1][2] = (M2.m[0][2]*x)+(M2.m[1][2]*y)+(M2.m[2][2]*z)+(M2.m[3][2]*w);
; 247  :     mResult.m[1][3] = (M2.m[0][3]*x)+(M2.m[1][3]*y)+(M2.m[2][3]*z)+(M2.m[3][3]*w);
; 248  :     x = M1.m[2][0];
; 249  :     y = M1.m[2][1];
; 250  :     z = M1.m[2][2];
; 251  :     w = M1.m[2][3];
; 252  :     mResult.m[2][0] = (M2.m[0][0]*x)+(M2.m[1][0]*y)+(M2.m[2][0]*z)+(M2.m[3][0]*w);
; 253  :     mResult.m[2][1] = (M2.m[0][1]*x)+(M2.m[1][1]*y)+(M2.m[2][1]*z)+(M2.m[3][1]*w);
; 254  :     mResult.m[2][2] = (M2.m[0][2]*x)+(M2.m[1][2]*y)+(M2.m[2][2]*z)+(M2.m[3][2]*w);
; 255  :     mResult.m[2][3] = (M2.m[0][3]*x)+(M2.m[1][3]*y)+(M2.m[2][3]*z)+(M2.m[3][3]*w);
; 256  :     x = M1.m[3][0];
; 257  :     y = M1.m[3][1];
; 258  :     z = M1.m[3][2];
; 259  :     w = M1.m[3][3];
; 260  :     mResult.m[3][0] = (M2.m[0][0]*x)+(M2.m[1][0]*y)+(M2.m[2][0]*z)+(M2.m[3][0]*w);
; 261  :     mResult.m[3][1] = (M2.m[0][1]*x)+(M2.m[1][1]*y)+(M2.m[2][1]*z)+(M2.m[3][1]*w);
; 262  :     mResult.m[3][2] = (M2.m[0][2]*x)+(M2.m[1][2]*y)+(M2.m[2][2]*z)+(M2.m[3][2]*w);
; 263  :     mResult.m[3][3] = (M2.m[0][3]*x)+(M2.m[1][3]*y)+(M2.m[2][3]*z)+(M2.m[3][3]*w);
; 264  :     return mResult;
; 265  : #elif defined(_XM_ARM_NEON_INTRINSICS_)
; 266  :     XMMATRIX mResult;
; 267  :     float32x2_t VL = vget_low_f32( M1.r[0] );
; 268  :     float32x2_t VH = vget_high_f32( M1.r[0] );
; 269  :     // Perform the operation on the first row
; 270  :     XMVECTOR vX = XM_VMULQ_LANE_F32(M2.r[0], VL, 0);
; 271  :     XMVECTOR vY = XM_VMULQ_LANE_F32(M2.r[1], VL, 1);
; 272  :     XMVECTOR vZ = XM_VMLAQ_LANE_F32(vX, M2.r[2], VH, 0);
; 273  :     XMVECTOR vW = XM_VMLAQ_LANE_F32(vY, M2.r[3], VH, 1);
; 274  :     mResult.r[0] = vaddq_f32( vZ, vW );
; 275  :     // Repeat for the other 3 rows
; 276  :     VL = vget_low_f32( M1.r[1] );
; 277  :     VH = vget_high_f32( M1.r[1] );
; 278  :     vX = XM_VMULQ_LANE_F32(M2.r[0], VL, 0);
; 279  :     vY = XM_VMULQ_LANE_F32(M2.r[1], VL, 1);
; 280  :     vZ = XM_VMLAQ_LANE_F32(vX, M2.r[2], VH, 0);
; 281  :     vW = XM_VMLAQ_LANE_F32(vY, M2.r[3], VH, 1);
; 282  :     mResult.r[1] = vaddq_f32( vZ, vW );
; 283  :     VL = vget_low_f32( M1.r[2] );
; 284  :     VH = vget_high_f32( M1.r[2] );
; 285  :     vX = XM_VMULQ_LANE_F32(M2.r[0], VL, 0);
; 286  :     vY = XM_VMULQ_LANE_F32(M2.r[1], VL, 1);
; 287  :     vZ = XM_VMLAQ_LANE_F32(vX, M2.r[2], VH, 0);
; 288  :     vW = XM_VMLAQ_LANE_F32(vY, M2.r[3], VH, 1);
; 289  :     mResult.r[2] = vaddq_f32( vZ, vW );
; 290  :     VL = vget_low_f32( M1.r[3] );
; 291  :     VH = vget_high_f32( M1.r[3] );
; 292  :     vX = XM_VMULQ_LANE_F32(M2.r[0], VL, 0);
; 293  :     vY = XM_VMULQ_LANE_F32(M2.r[1], VL, 1);
; 294  :     vZ = XM_VMLAQ_LANE_F32(vX, M2.r[2], VH, 0);
; 295  :     vW = XM_VMLAQ_LANE_F32(vY, M2.r[3], VH, 1);
; 296  :     mResult.r[3] = vaddq_f32( vZ, vW );
; 297  :     return mResult;
; 298  : #elif defined(_XM_SSE_INTRINSICS_)
; 299  :     XMMATRIX mResult;

  0004f	48 8d 4d 70	 lea	 rcx, QWORD PTR mResult$[rbp]
  00053	e8 00 00 00 00	 call	 ??0XMMATRIX@DirectX@@QEAA@XZ ; DirectX::XMMATRIX::XMMATRIX

; 300  :     // Use vW to hold the original row
; 301  :     XMVECTOR vW = M1.r[0];

  00058	b8 10 00 00 00	 mov	 eax, 16
  0005d	48 6b c0 00	 imul	 rax, rax, 0
  00061	0f 10 44 05 10	 movups	 xmm0, XMMWORD PTR M1$[rbp+rax]
  00066	0f 11 85 d0 00
	00 00		 movups	 XMMWORD PTR vW$[rbp], xmm0

; 302  :     // Splat the component X,Y,Z then W
; 303  :     XMVECTOR vX = XM_PERMUTE_PS(vW,_MM_SHUFFLE(0,0,0,0));

  0006d	0f 28 85 d0 00
	00 00		 movaps	 xmm0, XMMWORD PTR vW$[rbp]
  00074	0f c6 85 d0 00
	00 00 00	 shufps	 xmm0, XMMWORD PTR vW$[rbp], 0
  0007c	0f 29 85 50 05
	00 00		 movaps	 XMMWORD PTR $T5[rbp], xmm0
  00083	0f 28 85 50 05
	00 00		 movaps	 xmm0, XMMWORD PTR $T5[rbp]
  0008a	0f 29 85 00 01
	00 00		 movaps	 XMMWORD PTR vX$[rbp], xmm0

; 304  :     XMVECTOR vY = XM_PERMUTE_PS(vW,_MM_SHUFFLE(1,1,1,1));

  00091	0f 28 85 d0 00
	00 00		 movaps	 xmm0, XMMWORD PTR vW$[rbp]
  00098	0f c6 85 d0 00
	00 00 55	 shufps	 xmm0, XMMWORD PTR vW$[rbp], 85 ; 00000055H
  000a0	0f 29 85 80 05
	00 00		 movaps	 XMMWORD PTR $T6[rbp], xmm0
  000a7	0f 28 85 80 05
	00 00		 movaps	 xmm0, XMMWORD PTR $T6[rbp]
  000ae	0f 29 85 30 01
	00 00		 movaps	 XMMWORD PTR vY$[rbp], xmm0

; 305  :     XMVECTOR vZ = XM_PERMUTE_PS(vW,_MM_SHUFFLE(2,2,2,2));

  000b5	0f 28 85 d0 00
	00 00		 movaps	 xmm0, XMMWORD PTR vW$[rbp]
  000bc	0f c6 85 d0 00
	00 00 aa	 shufps	 xmm0, XMMWORD PTR vW$[rbp], 170 ; 000000aaH
  000c4	0f 29 85 b0 05
	00 00		 movaps	 XMMWORD PTR $T7[rbp], xmm0
  000cb	0f 28 85 b0 05
	00 00		 movaps	 xmm0, XMMWORD PTR $T7[rbp]
  000d2	0f 29 85 60 01
	00 00		 movaps	 XMMWORD PTR vZ$[rbp], xmm0

; 306  :     vW = XM_PERMUTE_PS(vW,_MM_SHUFFLE(3,3,3,3));

  000d9	0f 28 85 d0 00
	00 00		 movaps	 xmm0, XMMWORD PTR vW$[rbp]
  000e0	0f c6 85 d0 00
	00 00 ff	 shufps	 xmm0, XMMWORD PTR vW$[rbp], 255 ; 000000ffH
  000e8	0f 29 85 e0 05
	00 00		 movaps	 XMMWORD PTR $T8[rbp], xmm0
  000ef	0f 28 85 e0 05
	00 00		 movaps	 xmm0, XMMWORD PTR $T8[rbp]
  000f6	0f 29 85 d0 00
	00 00		 movaps	 XMMWORD PTR vW$[rbp], xmm0

; 307  :     // Perform the operation on the first row
; 308  :     vX = _mm_mul_ps(vX,M2.r[0]);

  000fd	b8 10 00 00 00	 mov	 eax, 16
  00102	48 6b c0 00	 imul	 rax, rax, 0
  00106	48 8b 8d a8 0d
	00 00		 mov	 rcx, QWORD PTR M2$[rbp]
  0010d	0f 28 85 00 01
	00 00		 movaps	 xmm0, XMMWORD PTR vX$[rbp]
  00114	0f 59 04 01	 mulps	 xmm0, XMMWORD PTR [rcx+rax]
  00118	0f 29 85 10 06
	00 00		 movaps	 XMMWORD PTR $T9[rbp], xmm0
  0011f	0f 28 85 10 06
	00 00		 movaps	 xmm0, XMMWORD PTR $T9[rbp]
  00126	0f 29 85 00 01
	00 00		 movaps	 XMMWORD PTR vX$[rbp], xmm0

; 309  :     vY = _mm_mul_ps(vY,M2.r[1]);

  0012d	b8 10 00 00 00	 mov	 eax, 16
  00132	48 6b c0 01	 imul	 rax, rax, 1
  00136	48 8b 8d a8 0d
	00 00		 mov	 rcx, QWORD PTR M2$[rbp]
  0013d	0f 28 85 30 01
	00 00		 movaps	 xmm0, XMMWORD PTR vY$[rbp]
  00144	0f 59 04 01	 mulps	 xmm0, XMMWORD PTR [rcx+rax]
  00148	0f 29 85 40 06
	00 00		 movaps	 XMMWORD PTR $T10[rbp], xmm0
  0014f	0f 28 85 40 06
	00 00		 movaps	 xmm0, XMMWORD PTR $T10[rbp]
  00156	0f 29 85 30 01
	00 00		 movaps	 XMMWORD PTR vY$[rbp], xmm0

; 310  :     vZ = _mm_mul_ps(vZ,M2.r[2]);

  0015d	b8 10 00 00 00	 mov	 eax, 16
  00162	48 6b c0 02	 imul	 rax, rax, 2
  00166	48 8b 8d a8 0d
	00 00		 mov	 rcx, QWORD PTR M2$[rbp]
  0016d	0f 28 85 60 01
	00 00		 movaps	 xmm0, XMMWORD PTR vZ$[rbp]
  00174	0f 59 04 01	 mulps	 xmm0, XMMWORD PTR [rcx+rax]
  00178	0f 29 85 70 06
	00 00		 movaps	 XMMWORD PTR $T11[rbp], xmm0
  0017f	0f 28 85 70 06
	00 00		 movaps	 xmm0, XMMWORD PTR $T11[rbp]
  00186	0f 29 85 60 01
	00 00		 movaps	 XMMWORD PTR vZ$[rbp], xmm0

; 311  :     vW = _mm_mul_ps(vW,M2.r[3]);

  0018d	b8 10 00 00 00	 mov	 eax, 16
  00192	48 6b c0 03	 imul	 rax, rax, 3
  00196	48 8b 8d a8 0d
	00 00		 mov	 rcx, QWORD PTR M2$[rbp]
  0019d	0f 28 85 d0 00
	00 00		 movaps	 xmm0, XMMWORD PTR vW$[rbp]
  001a4	0f 59 04 01	 mulps	 xmm0, XMMWORD PTR [rcx+rax]
  001a8	0f 29 85 a0 06
	00 00		 movaps	 XMMWORD PTR $T12[rbp], xmm0
  001af	0f 28 85 a0 06
	00 00		 movaps	 xmm0, XMMWORD PTR $T12[rbp]
  001b6	0f 29 85 d0 00
	00 00		 movaps	 XMMWORD PTR vW$[rbp], xmm0

; 312  :     // Perform a binary add to reduce cumulative errors
; 313  :     vX = _mm_add_ps(vX,vZ);

  001bd	0f 28 85 00 01
	00 00		 movaps	 xmm0, XMMWORD PTR vX$[rbp]
  001c4	0f 58 85 60 01
	00 00		 addps	 xmm0, XMMWORD PTR vZ$[rbp]
  001cb	0f 29 85 d0 06
	00 00		 movaps	 XMMWORD PTR $T13[rbp], xmm0
  001d2	0f 28 85 d0 06
	00 00		 movaps	 xmm0, XMMWORD PTR $T13[rbp]
  001d9	0f 29 85 00 01
	00 00		 movaps	 XMMWORD PTR vX$[rbp], xmm0

; 314  :     vY = _mm_add_ps(vY,vW);

  001e0	0f 28 85 30 01
	00 00		 movaps	 xmm0, XMMWORD PTR vY$[rbp]
  001e7	0f 58 85 d0 00
	00 00		 addps	 xmm0, XMMWORD PTR vW$[rbp]
  001ee	0f 29 85 00 07
	00 00		 movaps	 XMMWORD PTR $T14[rbp], xmm0
  001f5	0f 28 85 00 07
	00 00		 movaps	 xmm0, XMMWORD PTR $T14[rbp]
  001fc	0f 29 85 30 01
	00 00		 movaps	 XMMWORD PTR vY$[rbp], xmm0

; 315  :     vX = _mm_add_ps(vX,vY);

  00203	0f 28 85 00 01
	00 00		 movaps	 xmm0, XMMWORD PTR vX$[rbp]
  0020a	0f 58 85 30 01
	00 00		 addps	 xmm0, XMMWORD PTR vY$[rbp]
  00211	0f 29 85 30 07
	00 00		 movaps	 XMMWORD PTR $T15[rbp], xmm0
  00218	0f 28 85 30 07
	00 00		 movaps	 xmm0, XMMWORD PTR $T15[rbp]
  0021f	0f 29 85 00 01
	00 00		 movaps	 XMMWORD PTR vX$[rbp], xmm0

; 316  :     mResult.r[0] = vX;

  00226	b8 10 00 00 00	 mov	 eax, 16
  0022b	48 6b c0 00	 imul	 rax, rax, 0
  0022f	0f 28 85 00 01
	00 00		 movaps	 xmm0, XMMWORD PTR vX$[rbp]
  00236	0f 11 44 05 70	 movups	 XMMWORD PTR mResult$[rbp+rax], xmm0

; 317  :     // Repeat for the other 3 rows
; 318  :     vW = M1.r[1];

  0023b	b8 10 00 00 00	 mov	 eax, 16
  00240	48 6b c0 01	 imul	 rax, rax, 1
  00244	0f 10 44 05 10	 movups	 xmm0, XMMWORD PTR M1$[rbp+rax]
  00249	0f 11 85 d0 00
	00 00		 movups	 XMMWORD PTR vW$[rbp], xmm0

; 319  :     vX = XM_PERMUTE_PS(vW,_MM_SHUFFLE(0,0,0,0));

  00250	0f 28 85 d0 00
	00 00		 movaps	 xmm0, XMMWORD PTR vW$[rbp]
  00257	0f c6 85 d0 00
	00 00 00	 shufps	 xmm0, XMMWORD PTR vW$[rbp], 0
  0025f	0f 29 85 60 07
	00 00		 movaps	 XMMWORD PTR $T16[rbp], xmm0
  00266	0f 28 85 60 07
	00 00		 movaps	 xmm0, XMMWORD PTR $T16[rbp]
  0026d	0f 29 85 00 01
	00 00		 movaps	 XMMWORD PTR vX$[rbp], xmm0

; 320  :     vY = XM_PERMUTE_PS(vW,_MM_SHUFFLE(1,1,1,1));

  00274	0f 28 85 d0 00
	00 00		 movaps	 xmm0, XMMWORD PTR vW$[rbp]
  0027b	0f c6 85 d0 00
	00 00 55	 shufps	 xmm0, XMMWORD PTR vW$[rbp], 85 ; 00000055H
  00283	0f 29 85 90 07
	00 00		 movaps	 XMMWORD PTR $T17[rbp], xmm0
  0028a	0f 28 85 90 07
	00 00		 movaps	 xmm0, XMMWORD PTR $T17[rbp]
  00291	0f 29 85 30 01
	00 00		 movaps	 XMMWORD PTR vY$[rbp], xmm0

; 321  :     vZ = XM_PERMUTE_PS(vW,_MM_SHUFFLE(2,2,2,2));

  00298	0f 28 85 d0 00
	00 00		 movaps	 xmm0, XMMWORD PTR vW$[rbp]
  0029f	0f c6 85 d0 00
	00 00 aa	 shufps	 xmm0, XMMWORD PTR vW$[rbp], 170 ; 000000aaH
  002a7	0f 29 85 c0 07
	00 00		 movaps	 XMMWORD PTR $T18[rbp], xmm0
  002ae	0f 28 85 c0 07
	00 00		 movaps	 xmm0, XMMWORD PTR $T18[rbp]
  002b5	0f 29 85 60 01
	00 00		 movaps	 XMMWORD PTR vZ$[rbp], xmm0

; 322  :     vW = XM_PERMUTE_PS(vW,_MM_SHUFFLE(3,3,3,3));

  002bc	0f 28 85 d0 00
	00 00		 movaps	 xmm0, XMMWORD PTR vW$[rbp]
  002c3	0f c6 85 d0 00
	00 00 ff	 shufps	 xmm0, XMMWORD PTR vW$[rbp], 255 ; 000000ffH
  002cb	0f 29 85 f0 07
	00 00		 movaps	 XMMWORD PTR $T19[rbp], xmm0
  002d2	0f 28 85 f0 07
	00 00		 movaps	 xmm0, XMMWORD PTR $T19[rbp]
  002d9	0f 29 85 d0 00
	00 00		 movaps	 XMMWORD PTR vW$[rbp], xmm0

; 323  :     vX = _mm_mul_ps(vX,M2.r[0]);

  002e0	b8 10 00 00 00	 mov	 eax, 16
  002e5	48 6b c0 00	 imul	 rax, rax, 0
  002e9	48 8b 8d a8 0d
	00 00		 mov	 rcx, QWORD PTR M2$[rbp]
  002f0	0f 28 85 00 01
	00 00		 movaps	 xmm0, XMMWORD PTR vX$[rbp]
  002f7	0f 59 04 01	 mulps	 xmm0, XMMWORD PTR [rcx+rax]
  002fb	0f 29 85 20 08
	00 00		 movaps	 XMMWORD PTR $T20[rbp], xmm0
  00302	0f 28 85 20 08
	00 00		 movaps	 xmm0, XMMWORD PTR $T20[rbp]
  00309	0f 29 85 00 01
	00 00		 movaps	 XMMWORD PTR vX$[rbp], xmm0

; 324  :     vY = _mm_mul_ps(vY,M2.r[1]);

  00310	b8 10 00 00 00	 mov	 eax, 16
  00315	48 6b c0 01	 imul	 rax, rax, 1
  00319	48 8b 8d a8 0d
	00 00		 mov	 rcx, QWORD PTR M2$[rbp]
  00320	0f 28 85 30 01
	00 00		 movaps	 xmm0, XMMWORD PTR vY$[rbp]
  00327	0f 59 04 01	 mulps	 xmm0, XMMWORD PTR [rcx+rax]
  0032b	0f 29 85 50 08
	00 00		 movaps	 XMMWORD PTR $T21[rbp], xmm0
  00332	0f 28 85 50 08
	00 00		 movaps	 xmm0, XMMWORD PTR $T21[rbp]
  00339	0f 29 85 30 01
	00 00		 movaps	 XMMWORD PTR vY$[rbp], xmm0

; 325  :     vZ = _mm_mul_ps(vZ,M2.r[2]);

  00340	b8 10 00 00 00	 mov	 eax, 16
  00345	48 6b c0 02	 imul	 rax, rax, 2
  00349	48 8b 8d a8 0d
	00 00		 mov	 rcx, QWORD PTR M2$[rbp]
  00350	0f 28 85 60 01
	00 00		 movaps	 xmm0, XMMWORD PTR vZ$[rbp]
  00357	0f 59 04 01	 mulps	 xmm0, XMMWORD PTR [rcx+rax]
  0035b	0f 29 85 80 08
	00 00		 movaps	 XMMWORD PTR $T22[rbp], xmm0
  00362	0f 28 85 80 08
	00 00		 movaps	 xmm0, XMMWORD PTR $T22[rbp]
  00369	0f 29 85 60 01
	00 00		 movaps	 XMMWORD PTR vZ$[rbp], xmm0

; 326  :     vW = _mm_mul_ps(vW,M2.r[3]);

  00370	b8 10 00 00 00	 mov	 eax, 16
  00375	48 6b c0 03	 imul	 rax, rax, 3
  00379	48 8b 8d a8 0d
	00 00		 mov	 rcx, QWORD PTR M2$[rbp]
  00380	0f 28 85 d0 00
	00 00		 movaps	 xmm0, XMMWORD PTR vW$[rbp]
  00387	0f 59 04 01	 mulps	 xmm0, XMMWORD PTR [rcx+rax]
  0038b	0f 29 85 b0 08
	00 00		 movaps	 XMMWORD PTR $T23[rbp], xmm0
  00392	0f 28 85 b0 08
	00 00		 movaps	 xmm0, XMMWORD PTR $T23[rbp]
  00399	0f 29 85 d0 00
	00 00		 movaps	 XMMWORD PTR vW$[rbp], xmm0

; 327  :     vX = _mm_add_ps(vX,vZ);

  003a0	0f 28 85 00 01
	00 00		 movaps	 xmm0, XMMWORD PTR vX$[rbp]
  003a7	0f 58 85 60 01
	00 00		 addps	 xmm0, XMMWORD PTR vZ$[rbp]
  003ae	0f 29 85 e0 08
	00 00		 movaps	 XMMWORD PTR $T24[rbp], xmm0
  003b5	0f 28 85 e0 08
	00 00		 movaps	 xmm0, XMMWORD PTR $T24[rbp]
  003bc	0f 29 85 00 01
	00 00		 movaps	 XMMWORD PTR vX$[rbp], xmm0

; 328  :     vY = _mm_add_ps(vY,vW);

  003c3	0f 28 85 30 01
	00 00		 movaps	 xmm0, XMMWORD PTR vY$[rbp]
  003ca	0f 58 85 d0 00
	00 00		 addps	 xmm0, XMMWORD PTR vW$[rbp]
  003d1	0f 29 85 10 09
	00 00		 movaps	 XMMWORD PTR $T25[rbp], xmm0
  003d8	0f 28 85 10 09
	00 00		 movaps	 xmm0, XMMWORD PTR $T25[rbp]
  003df	0f 29 85 30 01
	00 00		 movaps	 XMMWORD PTR vY$[rbp], xmm0

; 329  :     vX = _mm_add_ps(vX,vY);

  003e6	0f 28 85 00 01
	00 00		 movaps	 xmm0, XMMWORD PTR vX$[rbp]
  003ed	0f 58 85 30 01
	00 00		 addps	 xmm0, XMMWORD PTR vY$[rbp]
  003f4	0f 29 85 40 09
	00 00		 movaps	 XMMWORD PTR $T26[rbp], xmm0
  003fb	0f 28 85 40 09
	00 00		 movaps	 xmm0, XMMWORD PTR $T26[rbp]
  00402	0f 29 85 00 01
	00 00		 movaps	 XMMWORD PTR vX$[rbp], xmm0

; 330  :     mResult.r[1] = vX;

  00409	b8 10 00 00 00	 mov	 eax, 16
  0040e	48 6b c0 01	 imul	 rax, rax, 1
  00412	0f 28 85 00 01
	00 00		 movaps	 xmm0, XMMWORD PTR vX$[rbp]
  00419	0f 11 44 05 70	 movups	 XMMWORD PTR mResult$[rbp+rax], xmm0

; 331  :     vW = M1.r[2];

  0041e	b8 10 00 00 00	 mov	 eax, 16
  00423	48 6b c0 02	 imul	 rax, rax, 2
  00427	0f 10 44 05 10	 movups	 xmm0, XMMWORD PTR M1$[rbp+rax]
  0042c	0f 11 85 d0 00
	00 00		 movups	 XMMWORD PTR vW$[rbp], xmm0

; 332  :     vX = XM_PERMUTE_PS(vW,_MM_SHUFFLE(0,0,0,0));

  00433	0f 28 85 d0 00
	00 00		 movaps	 xmm0, XMMWORD PTR vW$[rbp]
  0043a	0f c6 85 d0 00
	00 00 00	 shufps	 xmm0, XMMWORD PTR vW$[rbp], 0
  00442	0f 29 85 70 09
	00 00		 movaps	 XMMWORD PTR $T27[rbp], xmm0
  00449	0f 28 85 70 09
	00 00		 movaps	 xmm0, XMMWORD PTR $T27[rbp]
  00450	0f 29 85 00 01
	00 00		 movaps	 XMMWORD PTR vX$[rbp], xmm0

; 333  :     vY = XM_PERMUTE_PS(vW,_MM_SHUFFLE(1,1,1,1));

  00457	0f 28 85 d0 00
	00 00		 movaps	 xmm0, XMMWORD PTR vW$[rbp]
  0045e	0f c6 85 d0 00
	00 00 55	 shufps	 xmm0, XMMWORD PTR vW$[rbp], 85 ; 00000055H
  00466	0f 29 85 a0 09
	00 00		 movaps	 XMMWORD PTR $T28[rbp], xmm0
  0046d	0f 28 85 a0 09
	00 00		 movaps	 xmm0, XMMWORD PTR $T28[rbp]
  00474	0f 29 85 30 01
	00 00		 movaps	 XMMWORD PTR vY$[rbp], xmm0

; 334  :     vZ = XM_PERMUTE_PS(vW,_MM_SHUFFLE(2,2,2,2));

  0047b	0f 28 85 d0 00
	00 00		 movaps	 xmm0, XMMWORD PTR vW$[rbp]
  00482	0f c6 85 d0 00
	00 00 aa	 shufps	 xmm0, XMMWORD PTR vW$[rbp], 170 ; 000000aaH
  0048a	0f 29 85 d0 09
	00 00		 movaps	 XMMWORD PTR $T29[rbp], xmm0
  00491	0f 28 85 d0 09
	00 00		 movaps	 xmm0, XMMWORD PTR $T29[rbp]
  00498	0f 29 85 60 01
	00 00		 movaps	 XMMWORD PTR vZ$[rbp], xmm0

; 335  :     vW = XM_PERMUTE_PS(vW,_MM_SHUFFLE(3,3,3,3));

  0049f	0f 28 85 d0 00
	00 00		 movaps	 xmm0, XMMWORD PTR vW$[rbp]
  004a6	0f c6 85 d0 00
	00 00 ff	 shufps	 xmm0, XMMWORD PTR vW$[rbp], 255 ; 000000ffH
  004ae	0f 29 85 00 0a
	00 00		 movaps	 XMMWORD PTR $T30[rbp], xmm0
  004b5	0f 28 85 00 0a
	00 00		 movaps	 xmm0, XMMWORD PTR $T30[rbp]
  004bc	0f 29 85 d0 00
	00 00		 movaps	 XMMWORD PTR vW$[rbp], xmm0

; 336  :     vX = _mm_mul_ps(vX,M2.r[0]);

  004c3	b8 10 00 00 00	 mov	 eax, 16
  004c8	48 6b c0 00	 imul	 rax, rax, 0
  004cc	48 8b 8d a8 0d
	00 00		 mov	 rcx, QWORD PTR M2$[rbp]
  004d3	0f 28 85 00 01
	00 00		 movaps	 xmm0, XMMWORD PTR vX$[rbp]
  004da	0f 59 04 01	 mulps	 xmm0, XMMWORD PTR [rcx+rax]
  004de	0f 29 85 30 0a
	00 00		 movaps	 XMMWORD PTR $T31[rbp], xmm0
  004e5	0f 28 85 30 0a
	00 00		 movaps	 xmm0, XMMWORD PTR $T31[rbp]
  004ec	0f 29 85 00 01
	00 00		 movaps	 XMMWORD PTR vX$[rbp], xmm0

; 337  :     vY = _mm_mul_ps(vY,M2.r[1]);

  004f3	b8 10 00 00 00	 mov	 eax, 16
  004f8	48 6b c0 01	 imul	 rax, rax, 1
  004fc	48 8b 8d a8 0d
	00 00		 mov	 rcx, QWORD PTR M2$[rbp]
  00503	0f 28 85 30 01
	00 00		 movaps	 xmm0, XMMWORD PTR vY$[rbp]
  0050a	0f 59 04 01	 mulps	 xmm0, XMMWORD PTR [rcx+rax]
  0050e	0f 29 85 60 0a
	00 00		 movaps	 XMMWORD PTR $T32[rbp], xmm0
  00515	0f 28 85 60 0a
	00 00		 movaps	 xmm0, XMMWORD PTR $T32[rbp]
  0051c	0f 29 85 30 01
	00 00		 movaps	 XMMWORD PTR vY$[rbp], xmm0

; 338  :     vZ = _mm_mul_ps(vZ,M2.r[2]);

  00523	b8 10 00 00 00	 mov	 eax, 16
  00528	48 6b c0 02	 imul	 rax, rax, 2
  0052c	48 8b 8d a8 0d
	00 00		 mov	 rcx, QWORD PTR M2$[rbp]
  00533	0f 28 85 60 01
	00 00		 movaps	 xmm0, XMMWORD PTR vZ$[rbp]
  0053a	0f 59 04 01	 mulps	 xmm0, XMMWORD PTR [rcx+rax]
  0053e	0f 29 85 90 0a
	00 00		 movaps	 XMMWORD PTR $T33[rbp], xmm0
  00545	0f 28 85 90 0a
	00 00		 movaps	 xmm0, XMMWORD PTR $T33[rbp]
  0054c	0f 29 85 60 01
	00 00		 movaps	 XMMWORD PTR vZ$[rbp], xmm0

; 339  :     vW = _mm_mul_ps(vW,M2.r[3]);

  00553	b8 10 00 00 00	 mov	 eax, 16
  00558	48 6b c0 03	 imul	 rax, rax, 3
  0055c	48 8b 8d a8 0d
	00 00		 mov	 rcx, QWORD PTR M2$[rbp]
  00563	0f 28 85 d0 00
	00 00		 movaps	 xmm0, XMMWORD PTR vW$[rbp]
  0056a	0f 59 04 01	 mulps	 xmm0, XMMWORD PTR [rcx+rax]
  0056e	0f 29 85 c0 0a
	00 00		 movaps	 XMMWORD PTR $T34[rbp], xmm0
  00575	0f 28 85 c0 0a
	00 00		 movaps	 xmm0, XMMWORD PTR $T34[rbp]
  0057c	0f 29 85 d0 00
	00 00		 movaps	 XMMWORD PTR vW$[rbp], xmm0

; 340  :     vX = _mm_add_ps(vX,vZ);

  00583	0f 28 85 00 01
	00 00		 movaps	 xmm0, XMMWORD PTR vX$[rbp]
  0058a	0f 58 85 60 01
	00 00		 addps	 xmm0, XMMWORD PTR vZ$[rbp]
  00591	0f 29 85 f0 0a
	00 00		 movaps	 XMMWORD PTR $T35[rbp], xmm0
  00598	0f 28 85 f0 0a
	00 00		 movaps	 xmm0, XMMWORD PTR $T35[rbp]
  0059f	0f 29 85 00 01
	00 00		 movaps	 XMMWORD PTR vX$[rbp], xmm0

; 341  :     vY = _mm_add_ps(vY,vW);

  005a6	0f 28 85 30 01
	00 00		 movaps	 xmm0, XMMWORD PTR vY$[rbp]
  005ad	0f 58 85 d0 00
	00 00		 addps	 xmm0, XMMWORD PTR vW$[rbp]
  005b4	0f 29 85 20 0b
	00 00		 movaps	 XMMWORD PTR $T36[rbp], xmm0
  005bb	0f 28 85 20 0b
	00 00		 movaps	 xmm0, XMMWORD PTR $T36[rbp]
  005c2	0f 29 85 30 01
	00 00		 movaps	 XMMWORD PTR vY$[rbp], xmm0

; 342  :     vX = _mm_add_ps(vX,vY);

  005c9	0f 28 85 00 01
	00 00		 movaps	 xmm0, XMMWORD PTR vX$[rbp]
  005d0	0f 58 85 30 01
	00 00		 addps	 xmm0, XMMWORD PTR vY$[rbp]
  005d7	0f 29 85 50 0b
	00 00		 movaps	 XMMWORD PTR $T37[rbp], xmm0
  005de	0f 28 85 50 0b
	00 00		 movaps	 xmm0, XMMWORD PTR $T37[rbp]
  005e5	0f 29 85 00 01
	00 00		 movaps	 XMMWORD PTR vX$[rbp], xmm0

; 343  :     mResult.r[2] = vX;

  005ec	b8 10 00 00 00	 mov	 eax, 16
  005f1	48 6b c0 02	 imul	 rax, rax, 2
  005f5	0f 28 85 00 01
	00 00		 movaps	 xmm0, XMMWORD PTR vX$[rbp]
  005fc	0f 11 44 05 70	 movups	 XMMWORD PTR mResult$[rbp+rax], xmm0

; 344  :     vW = M1.r[3];

  00601	b8 10 00 00 00	 mov	 eax, 16
  00606	48 6b c0 03	 imul	 rax, rax, 3
  0060a	0f 10 44 05 10	 movups	 xmm0, XMMWORD PTR M1$[rbp+rax]
  0060f	0f 11 85 d0 00
	00 00		 movups	 XMMWORD PTR vW$[rbp], xmm0

; 345  :     vX = XM_PERMUTE_PS(vW,_MM_SHUFFLE(0,0,0,0));

  00616	0f 28 85 d0 00
	00 00		 movaps	 xmm0, XMMWORD PTR vW$[rbp]
  0061d	0f c6 85 d0 00
	00 00 00	 shufps	 xmm0, XMMWORD PTR vW$[rbp], 0
  00625	0f 29 85 80 0b
	00 00		 movaps	 XMMWORD PTR $T38[rbp], xmm0
  0062c	0f 28 85 80 0b
	00 00		 movaps	 xmm0, XMMWORD PTR $T38[rbp]
  00633	0f 29 85 00 01
	00 00		 movaps	 XMMWORD PTR vX$[rbp], xmm0

; 346  :     vY = XM_PERMUTE_PS(vW,_MM_SHUFFLE(1,1,1,1));

  0063a	0f 28 85 d0 00
	00 00		 movaps	 xmm0, XMMWORD PTR vW$[rbp]
  00641	0f c6 85 d0 00
	00 00 55	 shufps	 xmm0, XMMWORD PTR vW$[rbp], 85 ; 00000055H
  00649	0f 29 85 b0 0b
	00 00		 movaps	 XMMWORD PTR $T39[rbp], xmm0
  00650	0f 28 85 b0 0b
	00 00		 movaps	 xmm0, XMMWORD PTR $T39[rbp]
  00657	0f 29 85 30 01
	00 00		 movaps	 XMMWORD PTR vY$[rbp], xmm0

; 347  :     vZ = XM_PERMUTE_PS(vW,_MM_SHUFFLE(2,2,2,2));

  0065e	0f 28 85 d0 00
	00 00		 movaps	 xmm0, XMMWORD PTR vW$[rbp]
  00665	0f c6 85 d0 00
	00 00 aa	 shufps	 xmm0, XMMWORD PTR vW$[rbp], 170 ; 000000aaH
  0066d	0f 29 85 e0 0b
	00 00		 movaps	 XMMWORD PTR $T40[rbp], xmm0
  00674	0f 28 85 e0 0b
	00 00		 movaps	 xmm0, XMMWORD PTR $T40[rbp]
  0067b	0f 29 85 60 01
	00 00		 movaps	 XMMWORD PTR vZ$[rbp], xmm0

; 348  :     vW = XM_PERMUTE_PS(vW,_MM_SHUFFLE(3,3,3,3));

  00682	0f 28 85 d0 00
	00 00		 movaps	 xmm0, XMMWORD PTR vW$[rbp]
  00689	0f c6 85 d0 00
	00 00 ff	 shufps	 xmm0, XMMWORD PTR vW$[rbp], 255 ; 000000ffH
  00691	0f 29 85 10 0c
	00 00		 movaps	 XMMWORD PTR $T41[rbp], xmm0
  00698	0f 28 85 10 0c
	00 00		 movaps	 xmm0, XMMWORD PTR $T41[rbp]
  0069f	0f 29 85 d0 00
	00 00		 movaps	 XMMWORD PTR vW$[rbp], xmm0

; 349  :     vX = _mm_mul_ps(vX,M2.r[0]);

  006a6	b8 10 00 00 00	 mov	 eax, 16
  006ab	48 6b c0 00	 imul	 rax, rax, 0
  006af	48 8b 8d a8 0d
	00 00		 mov	 rcx, QWORD PTR M2$[rbp]
  006b6	0f 28 85 00 01
	00 00		 movaps	 xmm0, XMMWORD PTR vX$[rbp]
  006bd	0f 59 04 01	 mulps	 xmm0, XMMWORD PTR [rcx+rax]
  006c1	0f 29 85 40 0c
	00 00		 movaps	 XMMWORD PTR $T42[rbp], xmm0
  006c8	0f 28 85 40 0c
	00 00		 movaps	 xmm0, XMMWORD PTR $T42[rbp]
  006cf	0f 29 85 00 01
	00 00		 movaps	 XMMWORD PTR vX$[rbp], xmm0

; 350  :     vY = _mm_mul_ps(vY,M2.r[1]);

  006d6	b8 10 00 00 00	 mov	 eax, 16
  006db	48 6b c0 01	 imul	 rax, rax, 1
  006df	48 8b 8d a8 0d
	00 00		 mov	 rcx, QWORD PTR M2$[rbp]
  006e6	0f 28 85 30 01
	00 00		 movaps	 xmm0, XMMWORD PTR vY$[rbp]
  006ed	0f 59 04 01	 mulps	 xmm0, XMMWORD PTR [rcx+rax]
  006f1	0f 29 85 70 0c
	00 00		 movaps	 XMMWORD PTR $T43[rbp], xmm0
  006f8	0f 28 85 70 0c
	00 00		 movaps	 xmm0, XMMWORD PTR $T43[rbp]
  006ff	0f 29 85 30 01
	00 00		 movaps	 XMMWORD PTR vY$[rbp], xmm0

; 351  :     vZ = _mm_mul_ps(vZ,M2.r[2]);

  00706	b8 10 00 00 00	 mov	 eax, 16
  0070b	48 6b c0 02	 imul	 rax, rax, 2
  0070f	48 8b 8d a8 0d
	00 00		 mov	 rcx, QWORD PTR M2$[rbp]
  00716	0f 28 85 60 01
	00 00		 movaps	 xmm0, XMMWORD PTR vZ$[rbp]
  0071d	0f 59 04 01	 mulps	 xmm0, XMMWORD PTR [rcx+rax]
  00721	0f 29 85 a0 0c
	00 00		 movaps	 XMMWORD PTR $T44[rbp], xmm0
  00728	0f 28 85 a0 0c
	00 00		 movaps	 xmm0, XMMWORD PTR $T44[rbp]
  0072f	0f 29 85 60 01
	00 00		 movaps	 XMMWORD PTR vZ$[rbp], xmm0

; 352  :     vW = _mm_mul_ps(vW,M2.r[3]);

  00736	b8 10 00 00 00	 mov	 eax, 16
  0073b	48 6b c0 03	 imul	 rax, rax, 3
  0073f	48 8b 8d a8 0d
	00 00		 mov	 rcx, QWORD PTR M2$[rbp]
  00746	0f 28 85 d0 00
	00 00		 movaps	 xmm0, XMMWORD PTR vW$[rbp]
  0074d	0f 59 04 01	 mulps	 xmm0, XMMWORD PTR [rcx+rax]
  00751	0f 29 85 d0 0c
	00 00		 movaps	 XMMWORD PTR $T45[rbp], xmm0
  00758	0f 28 85 d0 0c
	00 00		 movaps	 xmm0, XMMWORD PTR $T45[rbp]
  0075f	0f 29 85 d0 00
	00 00		 movaps	 XMMWORD PTR vW$[rbp], xmm0

; 353  :     vX = _mm_add_ps(vX,vZ);

  00766	0f 28 85 00 01
	00 00		 movaps	 xmm0, XMMWORD PTR vX$[rbp]
  0076d	0f 58 85 60 01
	00 00		 addps	 xmm0, XMMWORD PTR vZ$[rbp]
  00774	0f 29 85 00 0d
	00 00		 movaps	 XMMWORD PTR $T46[rbp], xmm0
  0077b	0f 28 85 00 0d
	00 00		 movaps	 xmm0, XMMWORD PTR $T46[rbp]
  00782	0f 29 85 00 01
	00 00		 movaps	 XMMWORD PTR vX$[rbp], xmm0

; 354  :     vY = _mm_add_ps(vY,vW);

  00789	0f 28 85 30 01
	00 00		 movaps	 xmm0, XMMWORD PTR vY$[rbp]
  00790	0f 58 85 d0 00
	00 00		 addps	 xmm0, XMMWORD PTR vW$[rbp]
  00797	0f 29 85 30 0d
	00 00		 movaps	 XMMWORD PTR $T47[rbp], xmm0
  0079e	0f 28 85 30 0d
	00 00		 movaps	 xmm0, XMMWORD PTR $T47[rbp]
  007a5	0f 29 85 30 01
	00 00		 movaps	 XMMWORD PTR vY$[rbp], xmm0

; 355  :     vX = _mm_add_ps(vX,vY);

  007ac	0f 28 85 00 01
	00 00		 movaps	 xmm0, XMMWORD PTR vX$[rbp]
  007b3	0f 58 85 30 01
	00 00		 addps	 xmm0, XMMWORD PTR vY$[rbp]
  007ba	0f 29 85 60 0d
	00 00		 movaps	 XMMWORD PTR $T48[rbp], xmm0
  007c1	0f 28 85 60 0d
	00 00		 movaps	 xmm0, XMMWORD PTR $T48[rbp]
  007c8	0f 29 85 00 01
	00 00		 movaps	 XMMWORD PTR vX$[rbp], xmm0

; 356  :     mResult.r[3] = vX;

  007cf	b8 10 00 00 00	 mov	 eax, 16
  007d4	48 6b c0 03	 imul	 rax, rax, 3
  007d8	0f 28 85 00 01
	00 00		 movaps	 xmm0, XMMWORD PTR vX$[rbp]
  007df	0f 11 44 05 70	 movups	 XMMWORD PTR mResult$[rbp+rax], xmm0

; 357  :     return mResult;

  007e4	0f 28 9d a0 00
	00 00		 movaps	 xmm3, XMMWORD PTR mResult$[rbp+48]
  007eb	0f 28 95 90 00
	00 00		 movaps	 xmm2, XMMWORD PTR mResult$[rbp+32]
  007f2	0f 28 8d 80 00
	00 00		 movaps	 xmm1, XMMWORD PTR mResult$[rbp+16]
  007f9	0f 28 45 70	 movaps	 xmm0, XMMWORD PTR mResult$[rbp]

; 358  : #endif
; 359  : }

  007fd	f3 0f 7f 44 24
	20		 movdqu	 XMMWORD PTR [rsp+32], xmm0
  00803	48 8d 4d d0	 lea	 rcx, QWORD PTR [rbp-48]
  00807	48 8d 15 00 00
	00 00		 lea	 rdx, OFFSET FLAT:?XMMatrixMultiply@DirectX@@YQ?AUXMMATRIX@1@U21@AEBU21@@Z$rtcFrameData
  0080e	e8 00 00 00 00	 call	 _RTC_CheckStackVars
  00813	f3 0f 6f 44 24
	20		 movdqu	 xmm0, XMMWORD PTR [rsp+32]
  00819	48 8b 8d 78 0d
	00 00		 mov	 rcx, QWORD PTR __$ArrayPad$[rbp]
  00820	48 33 cd	 xor	 rcx, rbp
  00823	e8 00 00 00 00	 call	 __security_check_cookie
  00828	48 8d a5 88 0d
	00 00		 lea	 rsp, QWORD PTR [rbp+3464]
  0082f	5f		 pop	 rdi
  00830	5d		 pop	 rbp
  00831	c3		 ret	 0
?XMMatrixMultiply@DirectX@@YQ?AUXMMATRIX@1@U21@AEBU21@@Z ENDP ; DirectX::XMMatrixMultiply
_TEXT	ENDS
; Function compile flags: /Odtp /RTCsu /ZI
; File c:\program files (x86)\windows kits\8.1\include\um\directxmathvector.inl
;	COMDAT ?XMVector3Normalize@DirectX@@YQ?AT__m128@@T2@@Z
_TEXT	SEGMENT
V$ = 16
vLengthSq$ = 64
vTemp$ = 112
vResult$ = 160
vZeroMask$ = 208
vTemp1$ = 256
vTemp2$ = 304
$T1 = 928
$T2 = 976
$T3 = 1024
$T4 = 1072
$T5 = 1120
$T6 = 1168
$T7 = 1216
$T8 = 1264
$T9 = 1312
$T10 = 1360
$T11 = 1408
$T12 = 1456
$T13 = 1504
$T14 = 1552
$T15 = 1600
$T16 = 1648
$T17 = 1696
?XMVector3Normalize@DirectX@@YQ?AT__m128@@T2@@Z PROC	; DirectX::XMVector3Normalize, COMDAT

; 9238 : {

$LN3:
  00000	40 55		 push	 rbp
  00002	57		 push	 rdi
  00003	48 81 ec f8 06
	00 00		 sub	 rsp, 1784		; 000006f8H
  0000a	48 8d 6c 24 30	 lea	 rbp, QWORD PTR [rsp+48]
  0000f	48 8b fc	 mov	 rdi, rsp
  00012	b9 be 01 00 00	 mov	 ecx, 446		; 000001beH
  00017	b8 cc cc cc cc	 mov	 eax, -858993460		; ccccccccH
  0001c	f3 ab		 rep stosd
  0001e	48 8d 45 10	 lea	 rax, QWORD PTR V$[rbp]
  00022	48 89 84 24 10
	07 00 00	 mov	 QWORD PTR [rsp+1808], rax
  0002a	0f 29 45 10	 movaps	 XMMWORD PTR V$[rbp], xmm0

; 9239 : #if defined(_XM_NO_INTRINSICS_)
; 9240 :     float fLength;
; 9241 :     XMVECTOR vResult;
; 9242 : 
; 9243 :     vResult = XMVector3Length( V );
; 9244 :     fLength = vResult.vector4_f32[0];
; 9245 : 
; 9246 :     // Prevent divide by zero
; 9247 :     if (fLength > 0) {
; 9248 :         fLength = 1.0f/fLength;
; 9249 :     }
; 9250 :     
; 9251 :     vResult.vector4_f32[0] = V.vector4_f32[0]*fLength;
; 9252 :     vResult.vector4_f32[1] = V.vector4_f32[1]*fLength;
; 9253 :     vResult.vector4_f32[2] = V.vector4_f32[2]*fLength;
; 9254 :     vResult.vector4_f32[3] = V.vector4_f32[3]*fLength;
; 9255 :     return vResult;
; 9256 : 
; 9257 : #elif defined(_XM_ARM_NEON_INTRINSICS_)
; 9258 :     // Dot3
; 9259 :     float32x4_t vTemp = vmulq_f32( V, V );
; 9260 :     float32x2_t v1 = vget_low_f32( vTemp );
; 9261 :     float32x2_t v2 = vget_high_f32( vTemp );
; 9262 :     v1 = vpadd_f32( v1, v1 );
; 9263 :     v2 = vdup_lane_f32( v2, 0 );
; 9264 :     v1 = vadd_f32( v1, v2 );
; 9265 :     uint32x2_t VEqualsZero = vceq_f32( v1, vdup_n_f32(0) );
; 9266 :     uint32x2_t VEqualsInf = vceq_f32( v1, vget_low_f32(g_XMInfinity) );
; 9267 :     // Reciprocal sqrt (2 iterations of Newton-Raphson)
; 9268 :     float32x2_t S0 = vrsqrte_f32( v1 );
; 9269 :     float32x2_t P0 = vmul_f32( v1, S0 );
; 9270 :     float32x2_t R0 = vrsqrts_f32( P0, S0 );
; 9271 :     float32x2_t S1 = vmul_f32( S0, R0 );
; 9272 :     float32x2_t P1 = vmul_f32( v1, S1 );
; 9273 :     float32x2_t R1 = vrsqrts_f32( P1, S1 );
; 9274 :     v2 = vmul_f32( S1, R1 );
; 9275 :     // Normalize
; 9276 :     XMVECTOR vResult = vmulq_f32( V, vcombine_f32(v2,v2) );
; 9277 :     vResult = vbslq_f32( vcombine_f32(VEqualsZero,VEqualsZero), vdupq_n_f32(0), vResult );
; 9278 :     return vbslq_f32( vcombine_f32(VEqualsInf,VEqualsInf), g_XMQNaN, vResult );
; 9279 : #elif defined(_XM_SSE_INTRINSICS_)
; 9280 :     // Perform the dot product on x,y and z only
; 9281 :     XMVECTOR vLengthSq = _mm_mul_ps(V,V);

  0002e	0f 28 45 10	 movaps	 xmm0, XMMWORD PTR V$[rbp]
  00032	0f 59 45 10	 mulps	 xmm0, XMMWORD PTR V$[rbp]
  00036	0f 29 85 a0 03
	00 00		 movaps	 XMMWORD PTR $T1[rbp], xmm0
  0003d	0f 28 85 a0 03
	00 00		 movaps	 xmm0, XMMWORD PTR $T1[rbp]
  00044	0f 29 45 40	 movaps	 XMMWORD PTR vLengthSq$[rbp], xmm0

; 9282 :     XMVECTOR vTemp = XM_PERMUTE_PS(vLengthSq,_MM_SHUFFLE(2,1,2,1));

  00048	0f 28 45 40	 movaps	 xmm0, XMMWORD PTR vLengthSq$[rbp]
  0004c	0f c6 45 40 99	 shufps	 xmm0, XMMWORD PTR vLengthSq$[rbp], 153 ; 00000099H
  00051	0f 29 85 d0 03
	00 00		 movaps	 XMMWORD PTR $T2[rbp], xmm0
  00058	0f 28 85 d0 03
	00 00		 movaps	 xmm0, XMMWORD PTR $T2[rbp]
  0005f	0f 29 45 70	 movaps	 XMMWORD PTR vTemp$[rbp], xmm0

; 9283 :     vLengthSq = _mm_add_ss(vLengthSq,vTemp);

  00063	0f 28 45 40	 movaps	 xmm0, XMMWORD PTR vLengthSq$[rbp]
  00067	f3 0f 58 45 70	 addss	 xmm0, DWORD PTR vTemp$[rbp]
  0006c	0f 29 85 00 04
	00 00		 movaps	 XMMWORD PTR $T3[rbp], xmm0
  00073	0f 28 85 00 04
	00 00		 movaps	 xmm0, XMMWORD PTR $T3[rbp]
  0007a	0f 29 45 40	 movaps	 XMMWORD PTR vLengthSq$[rbp], xmm0

; 9284 :     vTemp = XM_PERMUTE_PS(vTemp,_MM_SHUFFLE(1,1,1,1));

  0007e	0f 28 45 70	 movaps	 xmm0, XMMWORD PTR vTemp$[rbp]
  00082	0f c6 45 70 55	 shufps	 xmm0, XMMWORD PTR vTemp$[rbp], 85 ; 00000055H
  00087	0f 29 85 30 04
	00 00		 movaps	 XMMWORD PTR $T4[rbp], xmm0
  0008e	0f 28 85 30 04
	00 00		 movaps	 xmm0, XMMWORD PTR $T4[rbp]
  00095	0f 29 45 70	 movaps	 XMMWORD PTR vTemp$[rbp], xmm0

; 9285 :     vLengthSq = _mm_add_ss(vLengthSq,vTemp);

  00099	0f 28 45 40	 movaps	 xmm0, XMMWORD PTR vLengthSq$[rbp]
  0009d	f3 0f 58 45 70	 addss	 xmm0, DWORD PTR vTemp$[rbp]
  000a2	0f 29 85 60 04
	00 00		 movaps	 XMMWORD PTR $T5[rbp], xmm0
  000a9	0f 28 85 60 04
	00 00		 movaps	 xmm0, XMMWORD PTR $T5[rbp]
  000b0	0f 29 45 40	 movaps	 XMMWORD PTR vLengthSq$[rbp], xmm0

; 9286 :     vLengthSq = XM_PERMUTE_PS(vLengthSq,_MM_SHUFFLE(0,0,0,0));

  000b4	0f 28 45 40	 movaps	 xmm0, XMMWORD PTR vLengthSq$[rbp]
  000b8	0f c6 45 40 00	 shufps	 xmm0, XMMWORD PTR vLengthSq$[rbp], 0
  000bd	0f 29 85 90 04
	00 00		 movaps	 XMMWORD PTR $T6[rbp], xmm0
  000c4	0f 28 85 90 04
	00 00		 movaps	 xmm0, XMMWORD PTR $T6[rbp]
  000cb	0f 29 45 40	 movaps	 XMMWORD PTR vLengthSq$[rbp], xmm0

; 9287 :     // Prepare for the division
; 9288 :     XMVECTOR vResult = _mm_sqrt_ps(vLengthSq);

  000cf	0f 51 45 40	 sqrtps	 xmm0, XMMWORD PTR vLengthSq$[rbp]
  000d3	0f 29 85 c0 04
	00 00		 movaps	 XMMWORD PTR $T7[rbp], xmm0
  000da	0f 28 85 c0 04
	00 00		 movaps	 xmm0, XMMWORD PTR $T7[rbp]
  000e1	0f 29 85 a0 00
	00 00		 movaps	 XMMWORD PTR vResult$[rbp], xmm0

; 9289 :     // Create zero with a single instruction
; 9290 :     XMVECTOR vZeroMask = _mm_setzero_ps();

  000e8	0f 57 c0	 xorps	 xmm0, xmm0
  000eb	0f 29 85 f0 04
	00 00		 movaps	 XMMWORD PTR $T8[rbp], xmm0
  000f2	0f 28 85 f0 04
	00 00		 movaps	 xmm0, XMMWORD PTR $T8[rbp]
  000f9	0f 29 85 d0 00
	00 00		 movaps	 XMMWORD PTR vZeroMask$[rbp], xmm0

; 9291 :     // Test for a divide by zero (Must be FP to detect -0.0)
; 9292 :     vZeroMask = _mm_cmpneq_ps(vZeroMask,vResult);

  00100	0f 28 85 d0 00
	00 00		 movaps	 xmm0, XMMWORD PTR vZeroMask$[rbp]
  00107	0f c2 85 a0 00
	00 00 04	 cmpneqps xmm0, XMMWORD PTR vResult$[rbp]
  0010f	0f 29 85 20 05
	00 00		 movaps	 XMMWORD PTR $T9[rbp], xmm0
  00116	0f 28 85 20 05
	00 00		 movaps	 xmm0, XMMWORD PTR $T9[rbp]
  0011d	0f 29 85 d0 00
	00 00		 movaps	 XMMWORD PTR vZeroMask$[rbp], xmm0

; 9293 :     // Failsafe on zero (Or epsilon) length planes
; 9294 :     // If the length is infinity, set the elements to zero
; 9295 :     vLengthSq = _mm_cmpneq_ps(vLengthSq,g_XMInfinity);

  00124	48 8d 95 80 05
	00 00		 lea	 rdx, QWORD PTR $T11[rbp]
  0012b	48 8d 0d 00 00
	00 00		 lea	 rcx, OFFSET FLAT:?g_XMInfinity@DirectX@@3UXMVECTORI32@1@B ; DirectX::g_XMInfinity
  00132	e8 00 00 00 00	 call	 ??BXMVECTORI32@DirectX@@QEBA?AT__m128@@XZ ; DirectX::XMVECTORI32::operator __m128
  00137	0f 28 45 40	 movaps	 xmm0, XMMWORD PTR vLengthSq$[rbp]
  0013b	0f c2 00 04	 cmpneqps xmm0, XMMWORD PTR [rax]
  0013f	0f 29 85 50 05
	00 00		 movaps	 XMMWORD PTR $T10[rbp], xmm0
  00146	0f 28 85 50 05
	00 00		 movaps	 xmm0, XMMWORD PTR $T10[rbp]
  0014d	0f 29 45 40	 movaps	 XMMWORD PTR vLengthSq$[rbp], xmm0

; 9296 :     // Divide to perform the normalization
; 9297 :     vResult = _mm_div_ps(V,vResult);

  00151	0f 28 45 10	 movaps	 xmm0, XMMWORD PTR V$[rbp]
  00155	0f 5e 85 a0 00
	00 00		 divps	 xmm0, XMMWORD PTR vResult$[rbp]
  0015c	0f 29 85 b0 05
	00 00		 movaps	 XMMWORD PTR $T12[rbp], xmm0
  00163	0f 28 85 b0 05
	00 00		 movaps	 xmm0, XMMWORD PTR $T12[rbp]
  0016a	0f 29 85 a0 00
	00 00		 movaps	 XMMWORD PTR vResult$[rbp], xmm0

; 9298 :     // Any that are infinity, set to zero
; 9299 :     vResult = _mm_and_ps(vResult,vZeroMask);

  00171	0f 28 85 a0 00
	00 00		 movaps	 xmm0, XMMWORD PTR vResult$[rbp]
  00178	0f 54 85 d0 00
	00 00		 andps	 xmm0, XMMWORD PTR vZeroMask$[rbp]
  0017f	0f 29 85 e0 05
	00 00		 movaps	 XMMWORD PTR $T13[rbp], xmm0
  00186	0f 28 85 e0 05
	00 00		 movaps	 xmm0, XMMWORD PTR $T13[rbp]
  0018d	0f 29 85 a0 00
	00 00		 movaps	 XMMWORD PTR vResult$[rbp], xmm0

; 9300 :     // Select qnan or result based on infinite length
; 9301 :     XMVECTOR vTemp1 = _mm_andnot_ps(vLengthSq,g_XMQNaN);

  00194	48 8d 95 40 06
	00 00		 lea	 rdx, QWORD PTR $T15[rbp]
  0019b	48 8d 0d 00 00
	00 00		 lea	 rcx, OFFSET FLAT:?g_XMQNaN@DirectX@@3UXMVECTORI32@1@B ; DirectX::g_XMQNaN
  001a2	e8 00 00 00 00	 call	 ??BXMVECTORI32@DirectX@@QEBA?AT__m128@@XZ ; DirectX::XMVECTORI32::operator __m128
  001a7	0f 28 45 40	 movaps	 xmm0, XMMWORD PTR vLengthSq$[rbp]
  001ab	0f 55 00	 andnps	 xmm0, XMMWORD PTR [rax]
  001ae	0f 29 85 10 06
	00 00		 movaps	 XMMWORD PTR $T14[rbp], xmm0
  001b5	0f 28 85 10 06
	00 00		 movaps	 xmm0, XMMWORD PTR $T14[rbp]
  001bc	0f 29 85 00 01
	00 00		 movaps	 XMMWORD PTR vTemp1$[rbp], xmm0

; 9302 :     XMVECTOR vTemp2 = _mm_and_ps(vResult,vLengthSq);

  001c3	0f 28 85 a0 00
	00 00		 movaps	 xmm0, XMMWORD PTR vResult$[rbp]
  001ca	0f 54 45 40	 andps	 xmm0, XMMWORD PTR vLengthSq$[rbp]
  001ce	0f 29 85 70 06
	00 00		 movaps	 XMMWORD PTR $T16[rbp], xmm0
  001d5	0f 28 85 70 06
	00 00		 movaps	 xmm0, XMMWORD PTR $T16[rbp]
  001dc	0f 29 85 30 01
	00 00		 movaps	 XMMWORD PTR vTemp2$[rbp], xmm0

; 9303 :     vResult = _mm_or_ps(vTemp1,vTemp2);

  001e3	0f 28 85 00 01
	00 00		 movaps	 xmm0, XMMWORD PTR vTemp1$[rbp]
  001ea	0f 56 85 30 01
	00 00		 orps	 xmm0, XMMWORD PTR vTemp2$[rbp]
  001f1	0f 29 85 a0 06
	00 00		 movaps	 XMMWORD PTR $T17[rbp], xmm0
  001f8	0f 28 85 a0 06
	00 00		 movaps	 xmm0, XMMWORD PTR $T17[rbp]
  001ff	0f 29 85 a0 00
	00 00		 movaps	 XMMWORD PTR vResult$[rbp], xmm0

; 9304 :     return vResult;

  00206	0f 28 85 a0 00
	00 00		 movaps	 xmm0, XMMWORD PTR vResult$[rbp]

; 9305 : #endif
; 9306 : }

  0020d	48 8d a5 c8 06
	00 00		 lea	 rsp, QWORD PTR [rbp+1736]
  00214	5f		 pop	 rdi
  00215	5d		 pop	 rbp
  00216	c3		 ret	 0
?XMVector3Normalize@DirectX@@YQ?AT__m128@@T2@@Z ENDP	; DirectX::XMVector3Normalize
_TEXT	ENDS
; Function compile flags: /Odtp /RTCsu /ZI
; File c:\program files (x86)\windows kits\8.1\include\um\directxmathvector.inl
;	COMDAT ?XMVector3Length@DirectX@@YQ?AT__m128@@T2@@Z
_TEXT	SEGMENT
V$ = 16
vLengthSq$ = 64
vTemp$ = 112
$T1 = 352
$T2 = 400
$T3 = 448
$T4 = 496
$T5 = 544
$T6 = 592
$T7 = 640
?XMVector3Length@DirectX@@YQ?AT__m128@@T2@@Z PROC	; DirectX::XMVector3Length, COMDAT

; 9133 : {

$LN3:
  00000	40 55		 push	 rbp
  00002	57		 push	 rdi
  00003	48 81 ec b8 02
	00 00		 sub	 rsp, 696		; 000002b8H
  0000a	48 8d 6c 24 10	 lea	 rbp, QWORD PTR [rsp+16]
  0000f	48 8b fc	 mov	 rdi, rsp
  00012	b9 ae 00 00 00	 mov	 ecx, 174		; 000000aeH
  00017	b8 cc cc cc cc	 mov	 eax, -858993460		; ccccccccH
  0001c	f3 ab		 rep stosd
  0001e	48 8d 45 10	 lea	 rax, QWORD PTR V$[rbp]
  00022	48 89 84 24 d0
	02 00 00	 mov	 QWORD PTR [rsp+720], rax
  0002a	0f 29 45 10	 movaps	 XMMWORD PTR V$[rbp], xmm0

; 9134 : #if defined(_XM_NO_INTRINSICS_)
; 9135 : 
; 9136 :     XMVECTOR Result;
; 9137 : 
; 9138 :     Result = XMVector3LengthSq(V);
; 9139 :     Result = XMVectorSqrt(Result);
; 9140 : 
; 9141 :     return Result;
; 9142 : 
; 9143 : #elif defined(_XM_ARM_NEON_INTRINSICS_)
; 9144 :     // Dot3
; 9145 :     float32x4_t vTemp = vmulq_f32( V, V );
; 9146 :     float32x2_t v1 = vget_low_f32( vTemp );
; 9147 :     float32x2_t v2 = vget_high_f32( vTemp );
; 9148 :     v1 = vpadd_f32( v1, v1 );
; 9149 :     v2 = vdup_lane_f32( v2, 0 );
; 9150 :     v1 = vadd_f32( v1, v2 );
; 9151 :     const float32x2_t zero = vdup_n_f32(0);
; 9152 :     uint32x2_t VEqualsZero = vceq_f32( v1, zero );
; 9153 :     // Sqrt
; 9154 :     float32x2_t S0 = vrsqrte_f32( v1 );
; 9155 :     float32x2_t P0 = vmul_f32( v1, S0 );
; 9156 :     float32x2_t R0 = vrsqrts_f32( P0, S0 );
; 9157 :     float32x2_t S1 = vmul_f32( S0, R0 );
; 9158 :     float32x2_t P1 = vmul_f32( v1, S1 );
; 9159 :     float32x2_t R1 = vrsqrts_f32( P1, S1 );
; 9160 :     float32x2_t Result = vmul_f32( S1, R1 );
; 9161 :     Result = vmul_f32( v1, Result );
; 9162 :     Result = vbsl_f32( VEqualsZero, zero, Result );
; 9163 :     return vcombine_f32( Result, Result );
; 9164 : #elif defined(_XM_SSE_INTRINSICS_)
; 9165 :     // Perform the dot product on x,y and z
; 9166 :     XMVECTOR vLengthSq = _mm_mul_ps(V,V);

  0002e	0f 28 45 10	 movaps	 xmm0, XMMWORD PTR V$[rbp]
  00032	0f 59 45 10	 mulps	 xmm0, XMMWORD PTR V$[rbp]
  00036	0f 29 85 60 01
	00 00		 movaps	 XMMWORD PTR $T1[rbp], xmm0
  0003d	0f 28 85 60 01
	00 00		 movaps	 xmm0, XMMWORD PTR $T1[rbp]
  00044	0f 29 45 40	 movaps	 XMMWORD PTR vLengthSq$[rbp], xmm0

; 9167 :     // vTemp has z and y
; 9168 :     XMVECTOR vTemp = XM_PERMUTE_PS(vLengthSq,_MM_SHUFFLE(1,2,1,2));

  00048	0f 28 45 40	 movaps	 xmm0, XMMWORD PTR vLengthSq$[rbp]
  0004c	0f c6 45 40 66	 shufps	 xmm0, XMMWORD PTR vLengthSq$[rbp], 102 ; 00000066H
  00051	0f 29 85 90 01
	00 00		 movaps	 XMMWORD PTR $T2[rbp], xmm0
  00058	0f 28 85 90 01
	00 00		 movaps	 xmm0, XMMWORD PTR $T2[rbp]
  0005f	0f 29 45 70	 movaps	 XMMWORD PTR vTemp$[rbp], xmm0

; 9169 :     // x+z, y
; 9170 :     vLengthSq = _mm_add_ss(vLengthSq,vTemp);

  00063	0f 28 45 40	 movaps	 xmm0, XMMWORD PTR vLengthSq$[rbp]
  00067	f3 0f 58 45 70	 addss	 xmm0, DWORD PTR vTemp$[rbp]
  0006c	0f 29 85 c0 01
	00 00		 movaps	 XMMWORD PTR $T3[rbp], xmm0
  00073	0f 28 85 c0 01
	00 00		 movaps	 xmm0, XMMWORD PTR $T3[rbp]
  0007a	0f 29 45 40	 movaps	 XMMWORD PTR vLengthSq$[rbp], xmm0

; 9171 :     // y,y,y,y
; 9172 :     vTemp = XM_PERMUTE_PS(vTemp,_MM_SHUFFLE(1,1,1,1));

  0007e	0f 28 45 70	 movaps	 xmm0, XMMWORD PTR vTemp$[rbp]
  00082	0f c6 45 70 55	 shufps	 xmm0, XMMWORD PTR vTemp$[rbp], 85 ; 00000055H
  00087	0f 29 85 f0 01
	00 00		 movaps	 XMMWORD PTR $T4[rbp], xmm0
  0008e	0f 28 85 f0 01
	00 00		 movaps	 xmm0, XMMWORD PTR $T4[rbp]
  00095	0f 29 45 70	 movaps	 XMMWORD PTR vTemp$[rbp], xmm0

; 9173 :     // x+z+y,??,??,??
; 9174 :     vLengthSq = _mm_add_ss(vLengthSq,vTemp);

  00099	0f 28 45 40	 movaps	 xmm0, XMMWORD PTR vLengthSq$[rbp]
  0009d	f3 0f 58 45 70	 addss	 xmm0, DWORD PTR vTemp$[rbp]
  000a2	0f 29 85 20 02
	00 00		 movaps	 XMMWORD PTR $T5[rbp], xmm0
  000a9	0f 28 85 20 02
	00 00		 movaps	 xmm0, XMMWORD PTR $T5[rbp]
  000b0	0f 29 45 40	 movaps	 XMMWORD PTR vLengthSq$[rbp], xmm0

; 9175 :     // Splat the length squared
; 9176 :     vLengthSq = XM_PERMUTE_PS(vLengthSq,_MM_SHUFFLE(0,0,0,0));

  000b4	0f 28 45 40	 movaps	 xmm0, XMMWORD PTR vLengthSq$[rbp]
  000b8	0f c6 45 40 00	 shufps	 xmm0, XMMWORD PTR vLengthSq$[rbp], 0
  000bd	0f 29 85 50 02
	00 00		 movaps	 XMMWORD PTR $T6[rbp], xmm0
  000c4	0f 28 85 50 02
	00 00		 movaps	 xmm0, XMMWORD PTR $T6[rbp]
  000cb	0f 29 45 40	 movaps	 XMMWORD PTR vLengthSq$[rbp], xmm0

; 9177 :     // Get the length
; 9178 :     vLengthSq = _mm_sqrt_ps(vLengthSq);

  000cf	0f 51 45 40	 sqrtps	 xmm0, XMMWORD PTR vLengthSq$[rbp]
  000d3	0f 29 85 80 02
	00 00		 movaps	 XMMWORD PTR $T7[rbp], xmm0
  000da	0f 28 85 80 02
	00 00		 movaps	 xmm0, XMMWORD PTR $T7[rbp]
  000e1	0f 29 45 40	 movaps	 XMMWORD PTR vLengthSq$[rbp], xmm0

; 9179 :     return vLengthSq;

  000e5	0f 28 45 40	 movaps	 xmm0, XMMWORD PTR vLengthSq$[rbp]

; 9180 : #endif
; 9181 : }

  000e9	48 8d a5 a8 02
	00 00		 lea	 rsp, QWORD PTR [rbp+680]
  000f0	5f		 pop	 rdi
  000f1	5d		 pop	 rbp
  000f2	c3		 ret	 0
?XMVector3Length@DirectX@@YQ?AT__m128@@T2@@Z ENDP	; DirectX::XMVector3Length
_TEXT	ENDS
; Function compile flags: /Odtp /RTCsu /ZI
; File c:\program files (x86)\windows kits\8.1\include\um\directxmathvector.inl
;	COMDAT ?XMVector3Cross@DirectX@@YQ?AT__m128@@T2@0@Z
_TEXT	SEGMENT
V1$ = 16
V2$ = 64
vTemp1$ = 112
vTemp2$ = 160
vResult$ = 208
$T1 = 640
$T2 = 688
$T3 = 736
$T4 = 784
$T5 = 832
$T6 = 880
$T7 = 928
$T8 = 976
$T9 = 1024
?XMVector3Cross@DirectX@@YQ?AT__m128@@T2@0@Z PROC	; DirectX::XMVector3Cross, COMDAT

; 8922 : {

$LN3:
  00000	40 55		 push	 rbp
  00002	57		 push	 rdi
  00003	48 81 ec 58 04
	00 00		 sub	 rsp, 1112		; 00000458H
  0000a	48 8d 6c 24 30	 lea	 rbp, QWORD PTR [rsp+48]
  0000f	48 8b fc	 mov	 rdi, rsp
  00012	b9 16 01 00 00	 mov	 ecx, 278		; 00000116H
  00017	b8 cc cc cc cc	 mov	 eax, -858993460		; ccccccccH
  0001c	f3 ab		 rep stosd
  0001e	48 8d 45 10	 lea	 rax, QWORD PTR V1$[rbp]
  00022	48 89 84 24 70
	04 00 00	 mov	 QWORD PTR [rsp+1136], rax
  0002a	48 8d 45 40	 lea	 rax, QWORD PTR V2$[rbp]
  0002e	48 89 84 24 78
	04 00 00	 mov	 QWORD PTR [rsp+1144], rax
  00036	0f 29 4d 40	 movaps	 XMMWORD PTR V2$[rbp], xmm1
  0003a	0f 29 45 10	 movaps	 XMMWORD PTR V1$[rbp], xmm0

; 8923 :     // [ V1.y*V2.z - V1.z*V2.y, V1.z*V2.x - V1.x*V2.z, V1.x*V2.y - V1.y*V2.x ]
; 8924 : 
; 8925 : #if defined(_XM_NO_INTRINSICS_)
; 8926 :     XMVECTOR vResult = {
; 8927 :         (V1.vector4_f32[1] * V2.vector4_f32[2]) - (V1.vector4_f32[2] * V2.vector4_f32[1]),
; 8928 :         (V1.vector4_f32[2] * V2.vector4_f32[0]) - (V1.vector4_f32[0] * V2.vector4_f32[2]),
; 8929 :         (V1.vector4_f32[0] * V2.vector4_f32[1]) - (V1.vector4_f32[1] * V2.vector4_f32[0]),
; 8930 :         0.0f
; 8931 :     };
; 8932 :     return vResult;
; 8933 : #elif defined(_XM_ARM_NEON_INTRINSICS_)
; 8934 :     float32x2_t v1xy = vget_low_f32(V1);
; 8935 :     float32x2_t v2xy = vget_low_f32(V2);
; 8936 : 
; 8937 :     float32x2_t v1yx = vrev64_f32( v1xy );
; 8938 :     float32x2_t v2yx = vrev64_f32( v2xy );
; 8939 : 
; 8940 :     float32x2_t v1zz = vdup_lane_f32( vget_high_f32(V1), 0 );
; 8941 :     float32x2_t v2zz = vdup_lane_f32( vget_high_f32(V2), 0 );
; 8942 : 
; 8943 :     XMVECTOR vResult = vmulq_f32( vcombine_f32(v1yx,v1xy), vcombine_f32(v2zz,v2yx) );
; 8944 :     vResult = vmlsq_f32( vResult, vcombine_f32(v1zz,v1yx), vcombine_f32(v2yx,v2xy) );
; 8945 :     vResult = veorq_u32( vResult, g_XMFlipY );
; 8946 :     return vandq_u32( vResult, g_XMMask3 );
; 8947 : #elif defined(_XM_SSE_INTRINSICS_)
; 8948 :     // y1,z1,x1,w1
; 8949 :     XMVECTOR vTemp1 = XM_PERMUTE_PS(V1,_MM_SHUFFLE(3,0,2,1));

  0003e	0f 28 45 10	 movaps	 xmm0, XMMWORD PTR V1$[rbp]
  00042	0f c6 45 10 c9	 shufps	 xmm0, XMMWORD PTR V1$[rbp], 201 ; 000000c9H
  00047	0f 29 85 80 02
	00 00		 movaps	 XMMWORD PTR $T1[rbp], xmm0
  0004e	0f 28 85 80 02
	00 00		 movaps	 xmm0, XMMWORD PTR $T1[rbp]
  00055	0f 29 45 70	 movaps	 XMMWORD PTR vTemp1$[rbp], xmm0

; 8950 :     // z2,x2,y2,w2
; 8951 :     XMVECTOR vTemp2 = XM_PERMUTE_PS(V2,_MM_SHUFFLE(3,1,0,2));

  00059	0f 28 45 40	 movaps	 xmm0, XMMWORD PTR V2$[rbp]
  0005d	0f c6 45 40 d2	 shufps	 xmm0, XMMWORD PTR V2$[rbp], 210 ; 000000d2H
  00062	0f 29 85 b0 02
	00 00		 movaps	 XMMWORD PTR $T2[rbp], xmm0
  00069	0f 28 85 b0 02
	00 00		 movaps	 xmm0, XMMWORD PTR $T2[rbp]
  00070	0f 29 85 a0 00
	00 00		 movaps	 XMMWORD PTR vTemp2$[rbp], xmm0

; 8952 :     // Perform the left operation
; 8953 :     XMVECTOR vResult = _mm_mul_ps(vTemp1,vTemp2);

  00077	0f 28 45 70	 movaps	 xmm0, XMMWORD PTR vTemp1$[rbp]
  0007b	0f 59 85 a0 00
	00 00		 mulps	 xmm0, XMMWORD PTR vTemp2$[rbp]
  00082	0f 29 85 e0 02
	00 00		 movaps	 XMMWORD PTR $T3[rbp], xmm0
  00089	0f 28 85 e0 02
	00 00		 movaps	 xmm0, XMMWORD PTR $T3[rbp]
  00090	0f 29 85 d0 00
	00 00		 movaps	 XMMWORD PTR vResult$[rbp], xmm0

; 8954 :     // z1,x1,y1,w1
; 8955 :     vTemp1 = XM_PERMUTE_PS(vTemp1,_MM_SHUFFLE(3,0,2,1));

  00097	0f 28 45 70	 movaps	 xmm0, XMMWORD PTR vTemp1$[rbp]
  0009b	0f c6 45 70 c9	 shufps	 xmm0, XMMWORD PTR vTemp1$[rbp], 201 ; 000000c9H
  000a0	0f 29 85 10 03
	00 00		 movaps	 XMMWORD PTR $T4[rbp], xmm0
  000a7	0f 28 85 10 03
	00 00		 movaps	 xmm0, XMMWORD PTR $T4[rbp]
  000ae	0f 29 45 70	 movaps	 XMMWORD PTR vTemp1$[rbp], xmm0

; 8956 :     // y2,z2,x2,w2
; 8957 :     vTemp2 = XM_PERMUTE_PS(vTemp2,_MM_SHUFFLE(3,1,0,2));

  000b2	0f 28 85 a0 00
	00 00		 movaps	 xmm0, XMMWORD PTR vTemp2$[rbp]
  000b9	0f c6 85 a0 00
	00 00 d2	 shufps	 xmm0, XMMWORD PTR vTemp2$[rbp], 210 ; 000000d2H
  000c1	0f 29 85 40 03
	00 00		 movaps	 XMMWORD PTR $T5[rbp], xmm0
  000c8	0f 28 85 40 03
	00 00		 movaps	 xmm0, XMMWORD PTR $T5[rbp]
  000cf	0f 29 85 a0 00
	00 00		 movaps	 XMMWORD PTR vTemp2$[rbp], xmm0

; 8958 :     // Perform the right operation
; 8959 :     vTemp1 = _mm_mul_ps(vTemp1,vTemp2);

  000d6	0f 28 45 70	 movaps	 xmm0, XMMWORD PTR vTemp1$[rbp]
  000da	0f 59 85 a0 00
	00 00		 mulps	 xmm0, XMMWORD PTR vTemp2$[rbp]
  000e1	0f 29 85 70 03
	00 00		 movaps	 XMMWORD PTR $T6[rbp], xmm0
  000e8	0f 28 85 70 03
	00 00		 movaps	 xmm0, XMMWORD PTR $T6[rbp]
  000ef	0f 29 45 70	 movaps	 XMMWORD PTR vTemp1$[rbp], xmm0

; 8960 :     // Subract the right from left, and return answer
; 8961 :     vResult = _mm_sub_ps(vResult,vTemp1);

  000f3	0f 28 85 d0 00
	00 00		 movaps	 xmm0, XMMWORD PTR vResult$[rbp]
  000fa	0f 5c 45 70	 subps	 xmm0, XMMWORD PTR vTemp1$[rbp]
  000fe	0f 29 85 a0 03
	00 00		 movaps	 XMMWORD PTR $T7[rbp], xmm0
  00105	0f 28 85 a0 03
	00 00		 movaps	 xmm0, XMMWORD PTR $T7[rbp]
  0010c	0f 29 85 d0 00
	00 00		 movaps	 XMMWORD PTR vResult$[rbp], xmm0

; 8962 :     // Set w to zero
; 8963 :     return _mm_and_ps(vResult,g_XMMask3);

  00113	48 8d 95 00 04
	00 00		 lea	 rdx, QWORD PTR $T9[rbp]
  0011a	48 8d 0d 00 00
	00 00		 lea	 rcx, OFFSET FLAT:?g_XMMask3@DirectX@@3UXMVECTORU32@1@B ; DirectX::g_XMMask3
  00121	e8 00 00 00 00	 call	 ??BXMVECTORU32@DirectX@@QEBA?AT__m128@@XZ ; DirectX::XMVECTORU32::operator __m128
  00126	0f 28 85 d0 00
	00 00		 movaps	 xmm0, XMMWORD PTR vResult$[rbp]
  0012d	0f 54 00	 andps	 xmm0, XMMWORD PTR [rax]
  00130	0f 29 85 d0 03
	00 00		 movaps	 XMMWORD PTR $T8[rbp], xmm0
  00137	0f 28 85 d0 03
	00 00		 movaps	 xmm0, XMMWORD PTR $T8[rbp]

; 8964 : #endif
; 8965 : }

  0013e	48 8d a5 28 04
	00 00		 lea	 rsp, QWORD PTR [rbp+1064]
  00145	5f		 pop	 rdi
  00146	5d		 pop	 rbp
  00147	c3		 ret	 0
?XMVector3Cross@DirectX@@YQ?AT__m128@@T2@0@Z ENDP	; DirectX::XMVector3Cross
_TEXT	ENDS
; Function compile flags: /Odtp /RTCsu /ZI
; File c:\program files (x86)\windows kits\8.1\include\um\directxmathvector.inl
;	COMDAT ?XMVector3Dot@DirectX@@YQ?AT__m128@@T2@0@Z
_TEXT	SEGMENT
V1$ = 16
V2$ = 64
vDot$ = 112
vTemp$ = 160
$T1 = 400
$T2 = 448
$T3 = 496
$T4 = 544
$T5 = 592
$T6 = 640
?XMVector3Dot@DirectX@@YQ?AT__m128@@T2@0@Z PROC		; DirectX::XMVector3Dot, COMDAT

; 8882 : {

$LN3:
  00000	40 55		 push	 rbp
  00002	57		 push	 rdi
  00003	48 81 ec b8 02
	00 00		 sub	 rsp, 696		; 000002b8H
  0000a	48 8d 6c 24 10	 lea	 rbp, QWORD PTR [rsp+16]
  0000f	48 8b fc	 mov	 rdi, rsp
  00012	b9 ae 00 00 00	 mov	 ecx, 174		; 000000aeH
  00017	b8 cc cc cc cc	 mov	 eax, -858993460		; ccccccccH
  0001c	f3 ab		 rep stosd
  0001e	48 8d 45 10	 lea	 rax, QWORD PTR V1$[rbp]
  00022	48 89 84 24 d0
	02 00 00	 mov	 QWORD PTR [rsp+720], rax
  0002a	48 8d 45 40	 lea	 rax, QWORD PTR V2$[rbp]
  0002e	48 89 84 24 d8
	02 00 00	 mov	 QWORD PTR [rsp+728], rax
  00036	0f 29 4d 40	 movaps	 XMMWORD PTR V2$[rbp], xmm1
  0003a	0f 29 45 10	 movaps	 XMMWORD PTR V1$[rbp], xmm0

; 8883 : #if defined(_XM_NO_INTRINSICS_)
; 8884 :     float fValue = V1.vector4_f32[0] * V2.vector4_f32[0] + V1.vector4_f32[1] * V2.vector4_f32[1] + V1.vector4_f32[2] * V2.vector4_f32[2];
; 8885 :     XMVECTOR vResult;
; 8886 :     vResult.vector4_f32[0] = 
; 8887 :     vResult.vector4_f32[1] = 
; 8888 :     vResult.vector4_f32[2] = 
; 8889 :     vResult.vector4_f32[3] = fValue;
; 8890 :     return vResult;
; 8891 : #elif defined(_XM_ARM_NEON_INTRINSICS_)
; 8892 :     float32x4_t vTemp = vmulq_f32( V1, V2 );
; 8893 :     float32x2_t v1 = vget_low_f32( vTemp );
; 8894 :     float32x2_t v2 = vget_high_f32( vTemp );
; 8895 :     v1 = vpadd_f32( v1, v1 );
; 8896 :     v2 = vdup_lane_f32( v2, 0 );
; 8897 :     v1 = vadd_f32( v1, v2 );
; 8898 :     return vcombine_f32( v1, v1 );
; 8899 : #elif defined(_XM_SSE_INTRINSICS_)
; 8900 :     // Perform the dot product
; 8901 :     XMVECTOR vDot = _mm_mul_ps(V1,V2);

  0003e	0f 28 45 10	 movaps	 xmm0, XMMWORD PTR V1$[rbp]
  00042	0f 59 45 40	 mulps	 xmm0, XMMWORD PTR V2$[rbp]
  00046	0f 29 85 90 01
	00 00		 movaps	 XMMWORD PTR $T1[rbp], xmm0
  0004d	0f 28 85 90 01
	00 00		 movaps	 xmm0, XMMWORD PTR $T1[rbp]
  00054	0f 29 45 70	 movaps	 XMMWORD PTR vDot$[rbp], xmm0

; 8902 :     // x=Dot.vector4_f32[1], y=Dot.vector4_f32[2]
; 8903 :     XMVECTOR vTemp = XM_PERMUTE_PS(vDot,_MM_SHUFFLE(2,1,2,1));

  00058	0f 28 45 70	 movaps	 xmm0, XMMWORD PTR vDot$[rbp]
  0005c	0f c6 45 70 99	 shufps	 xmm0, XMMWORD PTR vDot$[rbp], 153 ; 00000099H
  00061	0f 29 85 c0 01
	00 00		 movaps	 XMMWORD PTR $T2[rbp], xmm0
  00068	0f 28 85 c0 01
	00 00		 movaps	 xmm0, XMMWORD PTR $T2[rbp]
  0006f	0f 29 85 a0 00
	00 00		 movaps	 XMMWORD PTR vTemp$[rbp], xmm0

; 8904 :     // Result.vector4_f32[0] = x+y
; 8905 :     vDot = _mm_add_ss(vDot,vTemp);

  00076	0f 28 45 70	 movaps	 xmm0, XMMWORD PTR vDot$[rbp]
  0007a	f3 0f 58 85 a0
	00 00 00	 addss	 xmm0, DWORD PTR vTemp$[rbp]
  00082	0f 29 85 f0 01
	00 00		 movaps	 XMMWORD PTR $T3[rbp], xmm0
  00089	0f 28 85 f0 01
	00 00		 movaps	 xmm0, XMMWORD PTR $T3[rbp]
  00090	0f 29 45 70	 movaps	 XMMWORD PTR vDot$[rbp], xmm0

; 8906 :     // x=Dot.vector4_f32[2]
; 8907 :     vTemp = XM_PERMUTE_PS(vTemp,_MM_SHUFFLE(1,1,1,1));

  00094	0f 28 85 a0 00
	00 00		 movaps	 xmm0, XMMWORD PTR vTemp$[rbp]
  0009b	0f c6 85 a0 00
	00 00 55	 shufps	 xmm0, XMMWORD PTR vTemp$[rbp], 85 ; 00000055H
  000a3	0f 29 85 20 02
	00 00		 movaps	 XMMWORD PTR $T4[rbp], xmm0
  000aa	0f 28 85 20 02
	00 00		 movaps	 xmm0, XMMWORD PTR $T4[rbp]
  000b1	0f 29 85 a0 00
	00 00		 movaps	 XMMWORD PTR vTemp$[rbp], xmm0

; 8908 :     // Result.vector4_f32[0] = (x+y)+z
; 8909 :     vDot = _mm_add_ss(vDot,vTemp);

  000b8	0f 28 45 70	 movaps	 xmm0, XMMWORD PTR vDot$[rbp]
  000bc	f3 0f 58 85 a0
	00 00 00	 addss	 xmm0, DWORD PTR vTemp$[rbp]
  000c4	0f 29 85 50 02
	00 00		 movaps	 XMMWORD PTR $T5[rbp], xmm0
  000cb	0f 28 85 50 02
	00 00		 movaps	 xmm0, XMMWORD PTR $T5[rbp]
  000d2	0f 29 45 70	 movaps	 XMMWORD PTR vDot$[rbp], xmm0

; 8910 :     // Splat x
; 8911 :     return XM_PERMUTE_PS(vDot,_MM_SHUFFLE(0,0,0,0));

  000d6	0f 28 45 70	 movaps	 xmm0, XMMWORD PTR vDot$[rbp]
  000da	0f c6 45 70 00	 shufps	 xmm0, XMMWORD PTR vDot$[rbp], 0
  000df	0f 29 85 80 02
	00 00		 movaps	 XMMWORD PTR $T6[rbp], xmm0
  000e6	0f 28 85 80 02
	00 00		 movaps	 xmm0, XMMWORD PTR $T6[rbp]

; 8912 : #endif
; 8913 : }

  000ed	48 8d a5 a8 02
	00 00		 lea	 rsp, QWORD PTR [rbp+680]
  000f4	5f		 pop	 rdi
  000f5	5d		 pop	 rbp
  000f6	c3		 ret	 0
?XMVector3Dot@DirectX@@YQ?AT__m128@@T2@0@Z ENDP		; DirectX::XMVector3Dot
_TEXT	ENDS
; Function compile flags: /Odtp /RTCsu /ZI
; File c:\program files (x86)\windows kits\8.1\include\um\directxmathvector.inl
;	COMDAT ?XMVectorLerp@DirectX@@YQ?AT__m128@@T2@0M@Z
_TEXT	SEGMENT
V0$ = 16
V1$ = 64
L$ = 112
S$ = 160
Result$ = 208
$T1 = 448
$T2 = 496
$T3 = 544
$T4 = 592
t$ = 672
?XMVectorLerp@DirectX@@YQ?AT__m128@@T2@0M@Z PROC	; DirectX::XMVectorLerp, COMDAT

; 5669 : {

$LN3:
  00000	f3 0f 11 54 24
	18		 movss	 DWORD PTR [rsp+24], xmm2
  00006	55		 push	 rbp
  00007	57		 push	 rdi
  00008	48 81 ec 88 02
	00 00		 sub	 rsp, 648		; 00000288H
  0000f	48 8d 6c 24 10	 lea	 rbp, QWORD PTR [rsp+16]
  00014	48 8b fc	 mov	 rdi, rsp
  00017	b9 a2 00 00 00	 mov	 ecx, 162		; 000000a2H
  0001c	b8 cc cc cc cc	 mov	 eax, -858993460		; ccccccccH
  00021	f3 ab		 rep stosd
  00023	48 8d 45 10	 lea	 rax, QWORD PTR V0$[rbp]
  00027	48 89 84 24 a0
	02 00 00	 mov	 QWORD PTR [rsp+672], rax
  0002f	48 8d 45 40	 lea	 rax, QWORD PTR V1$[rbp]
  00033	48 89 84 24 a8
	02 00 00	 mov	 QWORD PTR [rsp+680], rax
  0003b	0f 29 4d 40	 movaps	 XMMWORD PTR V1$[rbp], xmm1
  0003f	0f 29 45 10	 movaps	 XMMWORD PTR V0$[rbp], xmm0

; 5670 :     // V0 + t * (V1 - V0)
; 5671 : 
; 5672 : #if defined(_XM_NO_INTRINSICS_)
; 5673 : 
; 5674 :     XMVECTOR Scale = XMVectorReplicate(t);
; 5675 :     XMVECTOR Length = XMVectorSubtract(V1, V0);
; 5676 :     return XMVectorMultiplyAdd(Length, Scale, V0);
; 5677 : 
; 5678 : #elif defined(_XM_ARM_NEON_INTRINSICS_)
; 5679 :     XMVECTOR L = vsubq_f32( V1, V0 );
; 5680 :     return XM_VMLAQ_N_F32( V0, L, t );
; 5681 : #elif defined(_XM_SSE_INTRINSICS_)
; 5682 :     XMVECTOR L = _mm_sub_ps( V1, V0 );

  00043	0f 28 45 40	 movaps	 xmm0, XMMWORD PTR V1$[rbp]
  00047	0f 5c 45 10	 subps	 xmm0, XMMWORD PTR V0$[rbp]
  0004b	0f 29 85 c0 01
	00 00		 movaps	 XMMWORD PTR $T1[rbp], xmm0
  00052	0f 28 85 c0 01
	00 00		 movaps	 xmm0, XMMWORD PTR $T1[rbp]
  00059	0f 29 45 70	 movaps	 XMMWORD PTR L$[rbp], xmm0

; 5683 :     XMVECTOR S = _mm_set_ps1( t );

  0005d	f3 0f 10 85 a0
	02 00 00	 movss	 xmm0, DWORD PTR t$[rbp]
  00065	0f c6 c0 00	 shufps	 xmm0, xmm0, 0
  00069	0f 29 85 f0 01
	00 00		 movaps	 XMMWORD PTR $T2[rbp], xmm0
  00070	0f 28 85 f0 01
	00 00		 movaps	 xmm0, XMMWORD PTR $T2[rbp]
  00077	0f 29 85 a0 00
	00 00		 movaps	 XMMWORD PTR S$[rbp], xmm0

; 5684 :     XMVECTOR Result = _mm_mul_ps( L, S );

  0007e	0f 28 45 70	 movaps	 xmm0, XMMWORD PTR L$[rbp]
  00082	0f 59 85 a0 00
	00 00		 mulps	 xmm0, XMMWORD PTR S$[rbp]
  00089	0f 29 85 20 02
	00 00		 movaps	 XMMWORD PTR $T3[rbp], xmm0
  00090	0f 28 85 20 02
	00 00		 movaps	 xmm0, XMMWORD PTR $T3[rbp]
  00097	0f 29 85 d0 00
	00 00		 movaps	 XMMWORD PTR Result$[rbp], xmm0

; 5685 :     return _mm_add_ps( Result, V0 );

  0009e	0f 28 85 d0 00
	00 00		 movaps	 xmm0, XMMWORD PTR Result$[rbp]
  000a5	0f 58 45 10	 addps	 xmm0, XMMWORD PTR V0$[rbp]
  000a9	0f 29 85 50 02
	00 00		 movaps	 XMMWORD PTR $T4[rbp], xmm0
  000b0	0f 28 85 50 02
	00 00		 movaps	 xmm0, XMMWORD PTR $T4[rbp]

; 5686 : #endif
; 5687 : }

  000b7	48 8d a5 78 02
	00 00		 lea	 rsp, QWORD PTR [rbp+632]
  000be	5f		 pop	 rdi
  000bf	5d		 pop	 rbp
  000c0	c3		 ret	 0
?XMVectorLerp@DirectX@@YQ?AT__m128@@T2@0M@Z ENDP	; DirectX::XMVectorLerp
_TEXT	ENDS
; Function compile flags: /Odtp /RTCsu /ZI
; File c:\program files (x86)\windows kits\8.1\include\um\directxmathvector.inl
;	COMDAT ?XMVectorScale@DirectX@@YQ?AT__m128@@T2@M@Z
_TEXT	SEGMENT
V$ = 16
vResult$ = 64
$T1 = 304
$T2 = 352
ScaleFactor$ = 424
?XMVectorScale@DirectX@@YQ?AT__m128@@T2@M@Z PROC	; DirectX::XMVectorScale, COMDAT

; 2965 : {

$LN3:
  00000	f3 0f 11 4c 24
	10		 movss	 DWORD PTR [rsp+16], xmm1
  00006	55		 push	 rbp
  00007	57		 push	 rdi
  00008	48 81 ec 98 01
	00 00		 sub	 rsp, 408		; 00000198H
  0000f	48 8d 6c 24 10	 lea	 rbp, QWORD PTR [rsp+16]
  00014	48 8b fc	 mov	 rdi, rsp
  00017	b9 66 00 00 00	 mov	 ecx, 102		; 00000066H
  0001c	b8 cc cc cc cc	 mov	 eax, -858993460		; ccccccccH
  00021	f3 ab		 rep stosd
  00023	48 8d 45 10	 lea	 rax, QWORD PTR V$[rbp]
  00027	48 89 84 24 b0
	01 00 00	 mov	 QWORD PTR [rsp+432], rax
  0002f	0f 29 45 10	 movaps	 XMMWORD PTR V$[rbp], xmm0

; 2966 : #if defined(_XM_NO_INTRINSICS_)
; 2967 :     XMVECTOR Result;
; 2968 :     Result.vector4_f32[0] = V.vector4_f32[0] * ScaleFactor;
; 2969 :     Result.vector4_f32[1] = V.vector4_f32[1] * ScaleFactor;
; 2970 :     Result.vector4_f32[2] = V.vector4_f32[2] * ScaleFactor;
; 2971 :     Result.vector4_f32[3] = V.vector4_f32[3] * ScaleFactor;
; 2972 :     return Result;
; 2973 : #elif defined(_XM_ARM_NEON_INTRINSICS_)
; 2974 :     return XM_VMULQ_N_F32( V, ScaleFactor );
; 2975 : #elif defined(_XM_SSE_INTRINSICS_)
; 2976 :    XMVECTOR vResult = _mm_set_ps1(ScaleFactor);

  00033	f3 0f 10 85 a8
	01 00 00	 movss	 xmm0, DWORD PTR ScaleFactor$[rbp]
  0003b	0f c6 c0 00	 shufps	 xmm0, xmm0, 0
  0003f	0f 29 85 30 01
	00 00		 movaps	 XMMWORD PTR $T1[rbp], xmm0
  00046	0f 28 85 30 01
	00 00		 movaps	 xmm0, XMMWORD PTR $T1[rbp]
  0004d	0f 29 45 40	 movaps	 XMMWORD PTR vResult$[rbp], xmm0

; 2977 :    return _mm_mul_ps(vResult,V);

  00051	0f 28 45 40	 movaps	 xmm0, XMMWORD PTR vResult$[rbp]
  00055	0f 59 45 10	 mulps	 xmm0, XMMWORD PTR V$[rbp]
  00059	0f 29 85 60 01
	00 00		 movaps	 XMMWORD PTR $T2[rbp], xmm0
  00060	0f 28 85 60 01
	00 00		 movaps	 xmm0, XMMWORD PTR $T2[rbp]

; 2978 : #endif
; 2979 : }

  00067	48 8d a5 88 01
	00 00		 lea	 rsp, QWORD PTR [rbp+392]
  0006e	5f		 pop	 rdi
  0006f	5d		 pop	 rbp
  00070	c3		 ret	 0
?XMVectorScale@DirectX@@YQ?AT__m128@@T2@M@Z ENDP	; DirectX::XMVectorScale
_TEXT	ENDS
; Function compile flags: /Odtp /RTCsu /ZI
; File c:\program files (x86)\windows kits\8.1\include\um\directxmathvector.inl
;	COMDAT ?XMVectorSubtract@DirectX@@YQ?AT__m128@@T2@0@Z
_TEXT	SEGMENT
V1$ = 16
V2$ = 64
$T1 = 304
?XMVectorSubtract@DirectX@@YQ?AT__m128@@T2@0@Z PROC	; DirectX::XMVectorSubtract, COMDAT

; 2784 : {

$LN3:
  00000	40 55		 push	 rbp
  00002	57		 push	 rdi
  00003	48 81 ec 68 01
	00 00		 sub	 rsp, 360		; 00000168H
  0000a	48 8d 6c 24 10	 lea	 rbp, QWORD PTR [rsp+16]
  0000f	48 8b fc	 mov	 rdi, rsp
  00012	b9 5a 00 00 00	 mov	 ecx, 90			; 0000005aH
  00017	b8 cc cc cc cc	 mov	 eax, -858993460		; ccccccccH
  0001c	f3 ab		 rep stosd
  0001e	48 8d 45 10	 lea	 rax, QWORD PTR V1$[rbp]
  00022	48 89 84 24 80
	01 00 00	 mov	 QWORD PTR [rsp+384], rax
  0002a	48 8d 45 40	 lea	 rax, QWORD PTR V2$[rbp]
  0002e	48 89 84 24 88
	01 00 00	 mov	 QWORD PTR [rsp+392], rax
  00036	0f 29 4d 40	 movaps	 XMMWORD PTR V2$[rbp], xmm1
  0003a	0f 29 45 10	 movaps	 XMMWORD PTR V1$[rbp], xmm0

; 2785 : #if defined(_XM_NO_INTRINSICS_)
; 2786 : 
; 2787 :     XMVECTOR Result;
; 2788 :     Result.vector4_f32[0] = V1.vector4_f32[0] - V2.vector4_f32[0];
; 2789 :     Result.vector4_f32[1] = V1.vector4_f32[1] - V2.vector4_f32[1];
; 2790 :     Result.vector4_f32[2] = V1.vector4_f32[2] - V2.vector4_f32[2];
; 2791 :     Result.vector4_f32[3] = V1.vector4_f32[3] - V2.vector4_f32[3];
; 2792 :     return Result;
; 2793 : 
; 2794 : #elif defined(_XM_ARM_NEON_INTRINSICS_)
; 2795 :     return vsubq_f32( V1, V2 );
; 2796 : #elif defined(_XM_SSE_INTRINSICS_)
; 2797 :     return _mm_sub_ps( V1, V2 );

  0003e	0f 28 45 10	 movaps	 xmm0, XMMWORD PTR V1$[rbp]
  00042	0f 5c 45 40	 subps	 xmm0, XMMWORD PTR V2$[rbp]
  00046	0f 29 85 30 01
	00 00		 movaps	 XMMWORD PTR $T1[rbp], xmm0
  0004d	0f 28 85 30 01
	00 00		 movaps	 xmm0, XMMWORD PTR $T1[rbp]

; 2798 : #endif
; 2799 : }

  00054	48 8d a5 58 01
	00 00		 lea	 rsp, QWORD PTR [rbp+344]
  0005b	5f		 pop	 rdi
  0005c	5d		 pop	 rbp
  0005d	c3		 ret	 0
?XMVectorSubtract@DirectX@@YQ?AT__m128@@T2@0@Z ENDP	; DirectX::XMVectorSubtract
_TEXT	ENDS
; Function compile flags: /Odtp /RTCsu /ZI
; File c:\program files (x86)\windows kits\8.1\include\um\directxmathvector.inl
;	COMDAT ?XMVectorAdd@DirectX@@YQ?AT__m128@@T2@0@Z
_TEXT	SEGMENT
V1$ = 16
V2$ = 64
$T1 = 304
?XMVectorAdd@DirectX@@YQ?AT__m128@@T2@0@Z PROC		; DirectX::XMVectorAdd, COMDAT

; 2701 : {

$LN3:
  00000	40 55		 push	 rbp
  00002	57		 push	 rdi
  00003	48 81 ec 68 01
	00 00		 sub	 rsp, 360		; 00000168H
  0000a	48 8d 6c 24 10	 lea	 rbp, QWORD PTR [rsp+16]
  0000f	48 8b fc	 mov	 rdi, rsp
  00012	b9 5a 00 00 00	 mov	 ecx, 90			; 0000005aH
  00017	b8 cc cc cc cc	 mov	 eax, -858993460		; ccccccccH
  0001c	f3 ab		 rep stosd
  0001e	48 8d 45 10	 lea	 rax, QWORD PTR V1$[rbp]
  00022	48 89 84 24 80
	01 00 00	 mov	 QWORD PTR [rsp+384], rax
  0002a	48 8d 45 40	 lea	 rax, QWORD PTR V2$[rbp]
  0002e	48 89 84 24 88
	01 00 00	 mov	 QWORD PTR [rsp+392], rax
  00036	0f 29 4d 40	 movaps	 XMMWORD PTR V2$[rbp], xmm1
  0003a	0f 29 45 10	 movaps	 XMMWORD PTR V1$[rbp], xmm0

; 2702 : #if defined(_XM_NO_INTRINSICS_)
; 2703 : 
; 2704 :     XMVECTOR Result;
; 2705 :     Result.vector4_f32[0] = V1.vector4_f32[0] + V2.vector4_f32[0];
; 2706 :     Result.vector4_f32[1] = V1.vector4_f32[1] + V2.vector4_f32[1];
; 2707 :     Result.vector4_f32[2] = V1.vector4_f32[2] + V2.vector4_f32[2];
; 2708 :     Result.vector4_f32[3] = V1.vector4_f32[3] + V2.vector4_f32[3];
; 2709 :     return Result;
; 2710 : 
; 2711 : #elif defined(_XM_ARM_NEON_INTRINSICS_)
; 2712 :     return vaddq_f32( V1, V2 );
; 2713 : #elif defined(_XM_SSE_INTRINSICS_)
; 2714 :     return _mm_add_ps( V1, V2 );

  0003e	0f 28 45 10	 movaps	 xmm0, XMMWORD PTR V1$[rbp]
  00042	0f 58 45 40	 addps	 xmm0, XMMWORD PTR V2$[rbp]
  00046	0f 29 85 30 01
	00 00		 movaps	 XMMWORD PTR $T1[rbp], xmm0
  0004d	0f 28 85 30 01
	00 00		 movaps	 xmm0, XMMWORD PTR $T1[rbp]

; 2715 : #endif
; 2716 : }

  00054	48 8d a5 58 01
	00 00		 lea	 rsp, QWORD PTR [rbp+344]
  0005b	5f		 pop	 rdi
  0005c	5d		 pop	 rbp
  0005d	c3		 ret	 0
?XMVectorAdd@DirectX@@YQ?AT__m128@@T2@0@Z ENDP		; DirectX::XMVectorAdd
_TEXT	ENDS
; Function compile flags: /Odtp /RTCsu /ZI
; File c:\program files (x86)\windows kits\8.1\include\um\directxmathvector.inl
;	COMDAT ?XMVectorNegate@DirectX@@YQ?AT__m128@@T2@@Z
_TEXT	SEGMENT
V$ = 16
Z$ = 64
$T1 = 304
$T2 = 352
?XMVectorNegate@DirectX@@YQ?AT__m128@@T2@@Z PROC	; DirectX::XMVectorNegate, COMDAT

; 2673 : {

$LN3:
  00000	40 55		 push	 rbp
  00002	57		 push	 rdi
  00003	48 81 ec 98 01
	00 00		 sub	 rsp, 408		; 00000198H
  0000a	48 8d 6c 24 10	 lea	 rbp, QWORD PTR [rsp+16]
  0000f	48 8b fc	 mov	 rdi, rsp
  00012	b9 66 00 00 00	 mov	 ecx, 102		; 00000066H
  00017	b8 cc cc cc cc	 mov	 eax, -858993460		; ccccccccH
  0001c	f3 ab		 rep stosd
  0001e	48 8d 45 10	 lea	 rax, QWORD PTR V$[rbp]
  00022	48 89 84 24 b0
	01 00 00	 mov	 QWORD PTR [rsp+432], rax
  0002a	0f 29 45 10	 movaps	 XMMWORD PTR V$[rbp], xmm0

; 2674 : #if defined(_XM_NO_INTRINSICS_)
; 2675 : 
; 2676 :     XMVECTOR Result;
; 2677 :     Result.vector4_f32[0] = -V.vector4_f32[0];
; 2678 :     Result.vector4_f32[1] = -V.vector4_f32[1];
; 2679 :     Result.vector4_f32[2] = -V.vector4_f32[2];
; 2680 :     Result.vector4_f32[3] = -V.vector4_f32[3];
; 2681 :     return Result;
; 2682 : 
; 2683 : #elif defined(_XM_ARM_NEON_INTRINSICS_)
; 2684 :     return vnegq_f32(V);
; 2685 : #elif defined(_XM_SSE_INTRINSICS_)
; 2686 :     XMVECTOR Z;
; 2687 : 
; 2688 :     Z = _mm_setzero_ps();

  0002e	0f 57 c0	 xorps	 xmm0, xmm0
  00031	0f 29 85 30 01
	00 00		 movaps	 XMMWORD PTR $T1[rbp], xmm0
  00038	0f 28 85 30 01
	00 00		 movaps	 xmm0, XMMWORD PTR $T1[rbp]
  0003f	0f 29 45 40	 movaps	 XMMWORD PTR Z$[rbp], xmm0

; 2689 : 
; 2690 :     return _mm_sub_ps( Z, V );

  00043	0f 28 45 40	 movaps	 xmm0, XMMWORD PTR Z$[rbp]
  00047	0f 5c 45 10	 subps	 xmm0, XMMWORD PTR V$[rbp]
  0004b	0f 29 85 60 01
	00 00		 movaps	 XMMWORD PTR $T2[rbp], xmm0
  00052	0f 28 85 60 01
	00 00		 movaps	 xmm0, XMMWORD PTR $T2[rbp]

; 2691 : #endif
; 2692 : }

  00059	48 8d a5 88 01
	00 00		 lea	 rsp, QWORD PTR [rbp+392]
  00060	5f		 pop	 rdi
  00061	5d		 pop	 rbp
  00062	c3		 ret	 0
?XMVectorNegate@DirectX@@YQ?AT__m128@@T2@@Z ENDP	; DirectX::XMVectorNegate
_TEXT	ENDS
; Function compile flags: /Odtp /RTCsu /ZI
; File c:\program files (x86)\windows kits\8.1\include\um\directxmathvector.inl
;	COMDAT ?XMVectorGetY@DirectX@@YQMT__m128@@@Z
_TEXT	SEGMENT
V$ = 16
vTemp$ = 64
$T1 = 304
tv70 = 324
?XMVectorGetY@DirectX@@YQMT__m128@@@Z PROC		; DirectX::XMVectorGetY, COMDAT

; 431  : {

$LN3:
  00000	40 55		 push	 rbp
  00002	57		 push	 rdi
  00003	48 81 ec 68 01
	00 00		 sub	 rsp, 360		; 00000168H
  0000a	48 8d 6c 24 10	 lea	 rbp, QWORD PTR [rsp+16]
  0000f	48 8b fc	 mov	 rdi, rsp
  00012	b9 5a 00 00 00	 mov	 ecx, 90			; 0000005aH
  00017	b8 cc cc cc cc	 mov	 eax, -858993460		; ccccccccH
  0001c	f3 ab		 rep stosd
  0001e	48 8d 45 10	 lea	 rax, QWORD PTR V$[rbp]
  00022	48 89 84 24 80
	01 00 00	 mov	 QWORD PTR [rsp+384], rax
  0002a	0f 29 45 10	 movaps	 XMMWORD PTR V$[rbp], xmm0

; 432  : #if defined(_XM_NO_INTRINSICS_)
; 433  :     return V.vector4_f32[1];
; 434  : #elif defined(_XM_ARM_NEON_INTRINSICS_)
; 435  :     return vgetq_lane_f32(V, 1);
; 436  : #elif defined(_XM_SSE_INTRINSICS_)
; 437  :     XMVECTOR vTemp = XM_PERMUTE_PS(V,_MM_SHUFFLE(1,1,1,1));

  0002e	0f 28 45 10	 movaps	 xmm0, XMMWORD PTR V$[rbp]
  00032	0f c6 45 10 55	 shufps	 xmm0, XMMWORD PTR V$[rbp], 85 ; 00000055H
  00037	0f 29 85 30 01
	00 00		 movaps	 XMMWORD PTR $T1[rbp], xmm0
  0003e	0f 28 85 30 01
	00 00		 movaps	 xmm0, XMMWORD PTR $T1[rbp]
  00045	0f 29 45 40	 movaps	 XMMWORD PTR vTemp$[rbp], xmm0

; 438  :     return _mm_cvtss_f32(vTemp);

  00049	0f 28 45 40	 movaps	 xmm0, XMMWORD PTR vTemp$[rbp]
  0004d	f3 0f 11 85 44
	01 00 00	 movss	 DWORD PTR tv70[rbp], xmm0
  00055	f3 0f 10 85 44
	01 00 00	 movss	 xmm0, DWORD PTR tv70[rbp]

; 439  : #endif
; 440  : }

  0005d	48 8d a5 58 01
	00 00		 lea	 rsp, QWORD PTR [rbp+344]
  00064	5f		 pop	 rdi
  00065	5d		 pop	 rbp
  00066	c3		 ret	 0
?XMVectorGetY@DirectX@@YQMT__m128@@@Z ENDP		; DirectX::XMVectorGetY
_TEXT	ENDS
; Function compile flags: /Odtp /RTCsu /ZI
; File c:\program files (x86)\windows kits\8.1\include\um\directxmathvector.inl
;	COMDAT ?XMVectorGetX@DirectX@@YQMT__m128@@@Z
_TEXT	SEGMENT
V$ = 16
tv66 = 228
?XMVectorGetX@DirectX@@YQMT__m128@@@Z PROC		; DirectX::XMVectorGetX, COMDAT

; 419  : {

$LN3:
  00000	40 55		 push	 rbp
  00002	57		 push	 rdi
  00003	48 81 ec 08 01
	00 00		 sub	 rsp, 264		; 00000108H
  0000a	48 8d 6c 24 10	 lea	 rbp, QWORD PTR [rsp+16]
  0000f	48 8b fc	 mov	 rdi, rsp
  00012	b9 42 00 00 00	 mov	 ecx, 66			; 00000042H
  00017	b8 cc cc cc cc	 mov	 eax, -858993460		; ccccccccH
  0001c	f3 ab		 rep stosd
  0001e	48 8d 45 10	 lea	 rax, QWORD PTR V$[rbp]
  00022	48 89 84 24 20
	01 00 00	 mov	 QWORD PTR [rsp+288], rax
  0002a	0f 29 45 10	 movaps	 XMMWORD PTR V$[rbp], xmm0

; 420  : #if defined(_XM_NO_INTRINSICS_)
; 421  :     return V.vector4_f32[0];
; 422  : #elif defined(_XM_ARM_NEON_INTRINSICS_)
; 423  :     return vgetq_lane_f32(V, 0);
; 424  : #elif defined(_XM_SSE_INTRINSICS_)
; 425  :     return _mm_cvtss_f32(V);

  0002e	0f 28 45 10	 movaps	 xmm0, XMMWORD PTR V$[rbp]
  00032	f3 0f 11 85 e4
	00 00 00	 movss	 DWORD PTR tv66[rbp], xmm0
  0003a	f3 0f 10 85 e4
	00 00 00	 movss	 xmm0, DWORD PTR tv66[rbp]

; 426  : #endif
; 427  : }

  00042	48 8d a5 f8 00
	00 00		 lea	 rsp, QWORD PTR [rbp+248]
  00049	5f		 pop	 rdi
  0004a	5d		 pop	 rbp
  0004b	c3		 ret	 0
?XMVectorGetX@DirectX@@YQMT__m128@@@Z ENDP		; DirectX::XMVectorGetX
_TEXT	ENDS
; Function compile flags: /Odtp /RTCsu /ZI
; File c:\program files (x86)\windows kits\8.1\include\um\directxmathvector.inl
;	COMDAT ?XMVectorSet@DirectX@@YQ?AT__m128@@MMMM@Z
_TEXT	SEGMENT
$T1 = 208
x$ = 272
y$ = 280
z$ = 288
w$ = 296
?XMVectorSet@DirectX@@YQ?AT__m128@@MMMM@Z PROC		; DirectX::XMVectorSet, COMDAT

; 71   : {

$LN3:
  00000	f3 0f 11 5c 24
	20		 movss	 DWORD PTR [rsp+32], xmm3
  00006	f3 0f 11 54 24
	18		 movss	 DWORD PTR [rsp+24], xmm2
  0000c	f3 0f 11 4c 24
	10		 movss	 DWORD PTR [rsp+16], xmm1
  00012	f3 0f 11 44 24
	08		 movss	 DWORD PTR [rsp+8], xmm0
  00018	55		 push	 rbp
  00019	57		 push	 rdi
  0001a	48 81 ec 08 01
	00 00		 sub	 rsp, 264		; 00000108H
  00021	48 8d 6c 24 10	 lea	 rbp, QWORD PTR [rsp+16]
  00026	48 8b fc	 mov	 rdi, rsp
  00029	b9 42 00 00 00	 mov	 ecx, 66			; 00000042H
  0002e	b8 cc cc cc cc	 mov	 eax, -858993460		; ccccccccH
  00033	f3 ab		 rep stosd

; 72   : #if defined(_XM_NO_INTRINSICS_)
; 73   :     XMVECTORF32 vResult = {x,y,z,w};
; 74   :     return vResult.v;
; 75   : #elif defined(_XM_ARM_NEON_INTRINSICS_)
; 76   :     float32x2_t V0 = vcreate_f32(((uint64_t)*(const uint32_t *)&x) | ((uint64_t)(*(const uint32_t *)&y) << 32));
; 77   :     float32x2_t V1 = vcreate_f32(((uint64_t)*(const uint32_t *)&z) | ((uint64_t)(*(const uint32_t *)&w) << 32));
; 78   :     return vcombine_f32(V0, V1);
; 79   : #elif defined(_XM_SSE_INTRINSICS_)
; 80   :     return _mm_set_ps( w, z, y, x );

  00035	f3 0f 10 85 28
	01 00 00	 movss	 xmm0, DWORD PTR w$[rbp]
  0003d	f3 0f 10 8d 20
	01 00 00	 movss	 xmm1, DWORD PTR z$[rbp]
  00045	f3 0f 10 95 18
	01 00 00	 movss	 xmm2, DWORD PTR y$[rbp]
  0004d	f3 0f 10 9d 10
	01 00 00	 movss	 xmm3, DWORD PTR x$[rbp]
  00055	0f 14 d9	 unpcklps xmm3, xmm1
  00058	0f 14 d0	 unpcklps xmm2, xmm0
  0005b	0f 28 c3	 movaps	 xmm0, xmm3
  0005e	0f 14 c2	 unpcklps xmm0, xmm2
  00061	0f 29 85 d0 00
	00 00		 movaps	 XMMWORD PTR $T1[rbp], xmm0
  00068	0f 28 85 d0 00
	00 00		 movaps	 xmm0, XMMWORD PTR $T1[rbp]

; 81   : #endif
; 82   : }

  0006f	48 8d a5 f8 00
	00 00		 lea	 rsp, QWORD PTR [rbp+248]
  00076	5f		 pop	 rdi
  00077	5d		 pop	 rbp
  00078	c3		 ret	 0
?XMVectorSet@DirectX@@YQ?AT__m128@@MMMM@Z ENDP		; DirectX::XMVectorSet
_TEXT	ENDS
; Function compile flags: /Odtp /RTCsu /ZI
; File c:\program files (x86)\windows kits\8.1\include\um\directxmathconvert.inl
;	COMDAT ?XMStoreFloat4x4@DirectX@@YQXPEAUXMFLOAT4X4@1@UXMMATRIX@1@@Z
_TEXT	SEGMENT
M$ = 16
pDestination$ = 320
?XMStoreFloat4x4@DirectX@@YQXPEAUXMFLOAT4X4@1@UXMMATRIX@1@@Z PROC ; DirectX::XMStoreFloat4x4, COMDAT

; 1818 : {

$LN4:
  00000	48 89 4c 24 08	 mov	 QWORD PTR [rsp+8], rcx
  00005	55		 push	 rbp
  00006	57		 push	 rdi
  00007	48 81 ec 48 01
	00 00		 sub	 rsp, 328		; 00000148H
  0000e	48 8d 6c 24 20	 lea	 rbp, QWORD PTR [rsp+32]
  00013	48 8b fc	 mov	 rdi, rsp
  00016	b9 52 00 00 00	 mov	 ecx, 82			; 00000052H
  0001b	b8 cc cc cc cc	 mov	 eax, -858993460		; ccccccccH
  00020	f3 ab		 rep stosd
  00022	48 8b 8c 24 68
	01 00 00	 mov	 rcx, QWORD PTR [rsp+360]
  0002a	48 8d 45 10	 lea	 rax, QWORD PTR M$[rbp]
  0002e	48 89 84 24 68
	01 00 00	 mov	 QWORD PTR [rsp+360], rax
  00036	0f 29 5d 40	 movaps	 XMMWORD PTR M$[rbp+48], xmm3
  0003a	0f 29 55 30	 movaps	 XMMWORD PTR M$[rbp+32], xmm2
  0003e	0f 29 4d 20	 movaps	 XMMWORD PTR M$[rbp+16], xmm1
  00042	0f 29 45 10	 movaps	 XMMWORD PTR M$[rbp], xmm0

; 1819 :     assert(pDestination);

  00046	48 83 bd 40 01
	00 00 00	 cmp	 QWORD PTR pDestination$[rbp], 0
  0004e	75 21		 jne	 SHORT $LN3@XMStoreFlo
  00050	8b 05 00 00 00
	00		 mov	 eax, DWORD PTR ?__LINE__Var@?0??XMStoreFloat4x4@DirectX@@YQXPEAUXMFLOAT4X4@2@UXMMATRIX@2@@Z@4JA
  00056	ff c0		 inc	 eax
  00058	44 8b c0	 mov	 r8d, eax
  0005b	48 8d 15 00 00
	00 00		 lea	 rdx, OFFSET FLAT:??_C@_1JE@DMOBBMDE@?$AAc?$AA?3?$AA?2?$AAp?$AAr?$AAo?$AAg?$AAr?$AAa?$AAm?$AA?5?$AAf?$AAi?$AAl?$AAe?$AAs?$AA?5?$AA?$CI?$AAx?$AA8?$AA6?$AA?$CJ?$AA?2?$AAw?$AAi?$AAn?$AAd?$AAo?$AAw?$AAs?$AA?5?$AAk@
  00062	48 8d 0d 00 00
	00 00		 lea	 rcx, OFFSET FLAT:??_C@_1BK@FHLBGAOP@?$AAp?$AAD?$AAe?$AAs?$AAt?$AAi?$AAn?$AAa?$AAt?$AAi?$AAo?$AAn?$AA?$AA@
  00069	ff 15 00 00 00
	00		 call	 QWORD PTR __imp__wassert
  0006f	33 c0		 xor	 eax, eax
$LN3@XMStoreFlo:

; 1820 : #if defined(_XM_NO_INTRINSICS_)
; 1821 : 
; 1822 :     pDestination->m[0][0] = M.r[0].vector4_f32[0];
; 1823 :     pDestination->m[0][1] = M.r[0].vector4_f32[1];
; 1824 :     pDestination->m[0][2] = M.r[0].vector4_f32[2];
; 1825 :     pDestination->m[0][3] = M.r[0].vector4_f32[3];
; 1826 : 
; 1827 :     pDestination->m[1][0] = M.r[1].vector4_f32[0];
; 1828 :     pDestination->m[1][1] = M.r[1].vector4_f32[1];
; 1829 :     pDestination->m[1][2] = M.r[1].vector4_f32[2];
; 1830 :     pDestination->m[1][3] = M.r[1].vector4_f32[3];
; 1831 : 
; 1832 :     pDestination->m[2][0] = M.r[2].vector4_f32[0];
; 1833 :     pDestination->m[2][1] = M.r[2].vector4_f32[1];
; 1834 :     pDestination->m[2][2] = M.r[2].vector4_f32[2];
; 1835 :     pDestination->m[2][3] = M.r[2].vector4_f32[3];
; 1836 : 
; 1837 :     pDestination->m[3][0] = M.r[3].vector4_f32[0];
; 1838 :     pDestination->m[3][1] = M.r[3].vector4_f32[1];
; 1839 :     pDestination->m[3][2] = M.r[3].vector4_f32[2];
; 1840 :     pDestination->m[3][3] = M.r[3].vector4_f32[3];
; 1841 : 
; 1842 : #elif defined(_XM_ARM_NEON_INTRINSICS_)
; 1843 :     vst1q_f32( reinterpret_cast<float*>(&pDestination->_11), M.r[0] );
; 1844 :     vst1q_f32( reinterpret_cast<float*>(&pDestination->_21), M.r[1] );
; 1845 :     vst1q_f32( reinterpret_cast<float*>(&pDestination->_31), M.r[2] );
; 1846 :     vst1q_f32( reinterpret_cast<float*>(&pDestination->_41), M.r[3] );
; 1847 : #elif defined(_XM_SSE_INTRINSICS_)
; 1848 :     _mm_storeu_ps( &pDestination->_11, M.r[0] );

  00071	b8 10 00 00 00	 mov	 eax, 16
  00076	48 6b c0 00	 imul	 rax, rax, 0
  0007a	48 8b 8d 40 01
	00 00		 mov	 rcx, QWORD PTR pDestination$[rbp]
  00081	0f 10 44 05 10	 movups	 xmm0, XMMWORD PTR M$[rbp+rax]
  00086	0f 11 01	 movups	 XMMWORD PTR [rcx], xmm0

; 1849 :     _mm_storeu_ps( &pDestination->_21, M.r[1] );

  00089	b8 10 00 00 00	 mov	 eax, 16
  0008e	48 6b c0 01	 imul	 rax, rax, 1
  00092	48 8b 8d 40 01
	00 00		 mov	 rcx, QWORD PTR pDestination$[rbp]
  00099	48 83 c1 10	 add	 rcx, 16
  0009d	0f 10 44 05 10	 movups	 xmm0, XMMWORD PTR M$[rbp+rax]
  000a2	0f 11 01	 movups	 XMMWORD PTR [rcx], xmm0

; 1850 :     _mm_storeu_ps( &pDestination->_31, M.r[2] );

  000a5	b8 10 00 00 00	 mov	 eax, 16
  000aa	48 6b c0 02	 imul	 rax, rax, 2
  000ae	48 8b 8d 40 01
	00 00		 mov	 rcx, QWORD PTR pDestination$[rbp]
  000b5	48 83 c1 20	 add	 rcx, 32			; 00000020H
  000b9	0f 10 44 05 10	 movups	 xmm0, XMMWORD PTR M$[rbp+rax]
  000be	0f 11 01	 movups	 XMMWORD PTR [rcx], xmm0

; 1851 :     _mm_storeu_ps( &pDestination->_41, M.r[3] );

  000c1	b8 10 00 00 00	 mov	 eax, 16
  000c6	48 6b c0 03	 imul	 rax, rax, 3
  000ca	48 8b 8d 40 01
	00 00		 mov	 rcx, QWORD PTR pDestination$[rbp]
  000d1	48 83 c1 30	 add	 rcx, 48			; 00000030H
  000d5	0f 10 44 05 10	 movups	 xmm0, XMMWORD PTR M$[rbp+rax]
  000da	0f 11 01	 movups	 XMMWORD PTR [rcx], xmm0

; 1852 : #endif
; 1853 : }

  000dd	48 8d 4d e0	 lea	 rcx, QWORD PTR [rbp-32]
  000e1	48 8d 15 00 00
	00 00		 lea	 rdx, OFFSET FLAT:?XMStoreFloat4x4@DirectX@@YQXPEAUXMFLOAT4X4@1@UXMMATRIX@1@@Z$rtcFrameData
  000e8	e8 00 00 00 00	 call	 _RTC_CheckStackVars
  000ed	48 8d a5 28 01
	00 00		 lea	 rsp, QWORD PTR [rbp+296]
  000f4	5f		 pop	 rdi
  000f5	5d		 pop	 rbp
  000f6	c3		 ret	 0
?XMStoreFloat4x4@DirectX@@YQXPEAUXMFLOAT4X4@1@UXMMATRIX@1@@Z ENDP ; DirectX::XMStoreFloat4x4
_TEXT	ENDS
; Function compile flags: /Odtp /RTCsu /ZI
; File c:\program files (x86)\windows kits\8.1\include\um\directxmathconvert.inl
;	COMDAT ?XMStoreFloat4@DirectX@@YQXPEAUXMFLOAT4@1@T__m128@@@Z
_TEXT	SEGMENT
V$ = 16
pDestination$ = 272
?XMStoreFloat4@DirectX@@YQXPEAUXMFLOAT4@1@T__m128@@@Z PROC ; DirectX::XMStoreFloat4, COMDAT

; 1538 : {

$LN4:
  00000	48 89 4c 24 08	 mov	 QWORD PTR [rsp+8], rcx
  00005	55		 push	 rbp
  00006	57		 push	 rdi
  00007	48 81 ec 18 01
	00 00		 sub	 rsp, 280		; 00000118H
  0000e	48 8d 6c 24 20	 lea	 rbp, QWORD PTR [rsp+32]
  00013	48 8b fc	 mov	 rdi, rsp
  00016	b9 46 00 00 00	 mov	 ecx, 70			; 00000046H
  0001b	b8 cc cc cc cc	 mov	 eax, -858993460		; ccccccccH
  00020	f3 ab		 rep stosd
  00022	48 8b 8c 24 38
	01 00 00	 mov	 rcx, QWORD PTR [rsp+312]
  0002a	48 8d 45 10	 lea	 rax, QWORD PTR V$[rbp]
  0002e	48 89 84 24 38
	01 00 00	 mov	 QWORD PTR [rsp+312], rax
  00036	0f 29 4d 10	 movaps	 XMMWORD PTR V$[rbp], xmm1

; 1539 :     assert(pDestination);

  0003a	48 83 bd 10 01
	00 00 00	 cmp	 QWORD PTR pDestination$[rbp], 0
  00042	75 21		 jne	 SHORT $LN3@XMStoreFlo
  00044	8b 05 00 00 00
	00		 mov	 eax, DWORD PTR ?__LINE__Var@?0??XMStoreFloat4@DirectX@@YQXPEAUXMFLOAT4@2@T__m128@@@Z@4JA
  0004a	ff c0		 inc	 eax
  0004c	44 8b c0	 mov	 r8d, eax
  0004f	48 8d 15 00 00
	00 00		 lea	 rdx, OFFSET FLAT:??_C@_1JE@DMOBBMDE@?$AAc?$AA?3?$AA?2?$AAp?$AAr?$AAo?$AAg?$AAr?$AAa?$AAm?$AA?5?$AAf?$AAi?$AAl?$AAe?$AAs?$AA?5?$AA?$CI?$AAx?$AA8?$AA6?$AA?$CJ?$AA?2?$AAw?$AAi?$AAn?$AAd?$AAo?$AAw?$AAs?$AA?5?$AAk@
  00056	48 8d 0d 00 00
	00 00		 lea	 rcx, OFFSET FLAT:??_C@_1BK@FHLBGAOP@?$AAp?$AAD?$AAe?$AAs?$AAt?$AAi?$AAn?$AAa?$AAt?$AAi?$AAo?$AAn?$AA?$AA@
  0005d	ff 15 00 00 00
	00		 call	 QWORD PTR __imp__wassert
  00063	33 c0		 xor	 eax, eax
$LN3@XMStoreFlo:

; 1540 : #if defined(_XM_NO_INTRINSICS_)
; 1541 :     pDestination->x = V.vector4_f32[0];
; 1542 :     pDestination->y = V.vector4_f32[1];
; 1543 :     pDestination->z = V.vector4_f32[2];
; 1544 :     pDestination->w = V.vector4_f32[3];
; 1545 : #elif defined(_XM_ARM_NEON_INTRINSICS_)
; 1546 :     vst1q_f32( reinterpret_cast<float*>(pDestination), V );
; 1547 : #elif defined(_XM_SSE_INTRINSICS_)
; 1548 :     _mm_storeu_ps( &pDestination->x, V );

  00065	48 8b 85 10 01
	00 00		 mov	 rax, QWORD PTR pDestination$[rbp]
  0006c	0f 28 45 10	 movaps	 xmm0, XMMWORD PTR V$[rbp]
  00070	0f 11 00	 movups	 XMMWORD PTR [rax], xmm0

; 1549 : #endif
; 1550 : }

  00073	48 8d a5 f8 00
	00 00		 lea	 rsp, QWORD PTR [rbp+248]
  0007a	5f		 pop	 rdi
  0007b	5d		 pop	 rbp
  0007c	c3		 ret	 0
?XMStoreFloat4@DirectX@@YQXPEAUXMFLOAT4@1@T__m128@@@Z ENDP ; DirectX::XMStoreFloat4
_TEXT	ENDS
; Function compile flags: /Odtp /RTCsu /ZI
; File c:\program files (x86)\windows kits\8.1\include\um\directxmathconvert.inl
;	COMDAT ?XMStoreFloat3@DirectX@@YQXPEAUXMFLOAT3@1@T__m128@@@Z
_TEXT	SEGMENT
V$ = 16
T1$ = 64
T2$ = 112
$T1 = 352
$T2 = 400
pDestination$ = 464
?XMStoreFloat3@DirectX@@YQXPEAUXMFLOAT3@1@T__m128@@@Z PROC ; DirectX::XMStoreFloat3, COMDAT

; 1363 : {

$LN4:
  00000	48 89 4c 24 08	 mov	 QWORD PTR [rsp+8], rcx
  00005	55		 push	 rbp
  00006	57		 push	 rdi
  00007	48 81 ec d8 01
	00 00		 sub	 rsp, 472		; 000001d8H
  0000e	48 8d 6c 24 20	 lea	 rbp, QWORD PTR [rsp+32]
  00013	48 8b fc	 mov	 rdi, rsp
  00016	b9 76 00 00 00	 mov	 ecx, 118		; 00000076H
  0001b	b8 cc cc cc cc	 mov	 eax, -858993460		; ccccccccH
  00020	f3 ab		 rep stosd
  00022	48 8b 8c 24 f8
	01 00 00	 mov	 rcx, QWORD PTR [rsp+504]
  0002a	48 8d 45 10	 lea	 rax, QWORD PTR V$[rbp]
  0002e	48 89 84 24 f8
	01 00 00	 mov	 QWORD PTR [rsp+504], rax
  00036	0f 29 4d 10	 movaps	 XMMWORD PTR V$[rbp], xmm1

; 1364 :     assert(pDestination);

  0003a	48 83 bd d0 01
	00 00 00	 cmp	 QWORD PTR pDestination$[rbp], 0
  00042	75 21		 jne	 SHORT $LN3@XMStoreFlo
  00044	8b 05 00 00 00
	00		 mov	 eax, DWORD PTR ?__LINE__Var@?0??XMStoreFloat3@DirectX@@YQXPEAUXMFLOAT3@2@T__m128@@@Z@4JA
  0004a	ff c0		 inc	 eax
  0004c	44 8b c0	 mov	 r8d, eax
  0004f	48 8d 15 00 00
	00 00		 lea	 rdx, OFFSET FLAT:??_C@_1JE@DMOBBMDE@?$AAc?$AA?3?$AA?2?$AAp?$AAr?$AAo?$AAg?$AAr?$AAa?$AAm?$AA?5?$AAf?$AAi?$AAl?$AAe?$AAs?$AA?5?$AA?$CI?$AAx?$AA8?$AA6?$AA?$CJ?$AA?2?$AAw?$AAi?$AAn?$AAd?$AAo?$AAw?$AAs?$AA?5?$AAk@
  00056	48 8d 0d 00 00
	00 00		 lea	 rcx, OFFSET FLAT:??_C@_1BK@FHLBGAOP@?$AAp?$AAD?$AAe?$AAs?$AAt?$AAi?$AAn?$AAa?$AAt?$AAi?$AAo?$AAn?$AA?$AA@
  0005d	ff 15 00 00 00
	00		 call	 QWORD PTR __imp__wassert
  00063	33 c0		 xor	 eax, eax
$LN3@XMStoreFlo:

; 1365 : #if defined(_XM_NO_INTRINSICS_)
; 1366 :     pDestination->x = V.vector4_f32[0];
; 1367 :     pDestination->y = V.vector4_f32[1];
; 1368 :     pDestination->z = V.vector4_f32[2];
; 1369 : #elif defined(_XM_ARM_NEON_INTRINSICS_)
; 1370 :     float32x2_t VL = vget_low_f32(V);
; 1371 :     vst1_f32( reinterpret_cast<float*>(pDestination), VL );
; 1372 :     vst1q_lane_f32( reinterpret_cast<float*>(pDestination)+2, V, 2 );
; 1373 : #elif defined(_XM_SSE_INTRINSICS_)
; 1374 :     XMVECTOR T1 = XM_PERMUTE_PS(V,_MM_SHUFFLE(1,1,1,1));

  00065	0f 28 45 10	 movaps	 xmm0, XMMWORD PTR V$[rbp]
  00069	0f c6 45 10 55	 shufps	 xmm0, XMMWORD PTR V$[rbp], 85 ; 00000055H
  0006e	0f 29 85 60 01
	00 00		 movaps	 XMMWORD PTR $T1[rbp], xmm0
  00075	0f 28 85 60 01
	00 00		 movaps	 xmm0, XMMWORD PTR $T1[rbp]
  0007c	0f 29 45 40	 movaps	 XMMWORD PTR T1$[rbp], xmm0

; 1375 :     XMVECTOR T2 = XM_PERMUTE_PS(V,_MM_SHUFFLE(2,2,2,2));

  00080	0f 28 45 10	 movaps	 xmm0, XMMWORD PTR V$[rbp]
  00084	0f c6 45 10 aa	 shufps	 xmm0, XMMWORD PTR V$[rbp], 170 ; 000000aaH
  00089	0f 29 85 90 01
	00 00		 movaps	 XMMWORD PTR $T2[rbp], xmm0
  00090	0f 28 85 90 01
	00 00		 movaps	 xmm0, XMMWORD PTR $T2[rbp]
  00097	0f 29 45 70	 movaps	 XMMWORD PTR T2$[rbp], xmm0

; 1376 :     _mm_store_ss( &pDestination->x, V );

  0009b	48 8b 85 d0 01
	00 00		 mov	 rax, QWORD PTR pDestination$[rbp]
  000a2	0f 28 45 10	 movaps	 xmm0, XMMWORD PTR V$[rbp]
  000a6	f3 0f 11 00	 movss	 DWORD PTR [rax], xmm0

; 1377 :     _mm_store_ss( &pDestination->y, T1 );

  000aa	48 8b 85 d0 01
	00 00		 mov	 rax, QWORD PTR pDestination$[rbp]
  000b1	48 83 c0 04	 add	 rax, 4
  000b5	0f 28 45 40	 movaps	 xmm0, XMMWORD PTR T1$[rbp]
  000b9	f3 0f 11 00	 movss	 DWORD PTR [rax], xmm0

; 1378 :     _mm_store_ss( &pDestination->z, T2 );

  000bd	48 8b 85 d0 01
	00 00		 mov	 rax, QWORD PTR pDestination$[rbp]
  000c4	48 83 c0 08	 add	 rax, 8
  000c8	0f 28 45 70	 movaps	 xmm0, XMMWORD PTR T2$[rbp]
  000cc	f3 0f 11 00	 movss	 DWORD PTR [rax], xmm0

; 1379 : #endif
; 1380 : }

  000d0	48 8d a5 b8 01
	00 00		 lea	 rsp, QWORD PTR [rbp+440]
  000d7	5f		 pop	 rdi
  000d8	5d		 pop	 rbp
  000d9	c3		 ret	 0
?XMStoreFloat3@DirectX@@YQXPEAUXMFLOAT3@1@T__m128@@@Z ENDP ; DirectX::XMStoreFloat3
_TEXT	ENDS
; Function compile flags: /Odtp /RTCsu /ZI
; File c:\program files (x86)\windows kits\8.1\include\um\directxmathconvert.inl
;	COMDAT ?XMLoadFloat4x4@DirectX@@YQ?AUXMMATRIX@1@PEBUXMFLOAT4X4@1@@Z
_TEXT	SEGMENT
M$ = 16
$T4 = 304
$T5 = 352
$T6 = 400
$T7 = 448
__$ArrayPad$ = 472
pSource$ = 512
?XMLoadFloat4x4@DirectX@@YQ?AUXMMATRIX@1@PEBUXMFLOAT4X4@1@@Z PROC ; DirectX::XMLoadFloat4x4, COMDAT

; 1013 : {

$LN4:
  00000	48 89 4c 24 08	 mov	 QWORD PTR [rsp+8], rcx
  00005	55		 push	 rbp
  00006	57		 push	 rdi
  00007	48 81 ec 18 02
	00 00		 sub	 rsp, 536		; 00000218H
  0000e	48 8d 6c 24 30	 lea	 rbp, QWORD PTR [rsp+48]
  00013	48 8b fc	 mov	 rdi, rsp
  00016	b9 86 00 00 00	 mov	 ecx, 134		; 00000086H
  0001b	b8 cc cc cc cc	 mov	 eax, -858993460		; ccccccccH
  00020	f3 ab		 rep stosd
  00022	48 8b 8c 24 38
	02 00 00	 mov	 rcx, QWORD PTR [rsp+568]
  0002a	48 8b 05 00 00
	00 00		 mov	 rax, QWORD PTR __security_cookie
  00031	48 33 c5	 xor	 rax, rbp
  00034	48 89 85 d8 01
	00 00		 mov	 QWORD PTR __$ArrayPad$[rbp], rax

; 1014 :     assert(pSource);

  0003b	48 83 bd 00 02
	00 00 00	 cmp	 QWORD PTR pSource$[rbp], 0
  00043	75 21		 jne	 SHORT $LN3@XMLoadFloa
  00045	8b 05 00 00 00
	00		 mov	 eax, DWORD PTR ?__LINE__Var@?0??XMLoadFloat4x4@DirectX@@YQ?AUXMMATRIX@2@PEBUXMFLOAT4X4@2@@Z@4JA
  0004b	ff c0		 inc	 eax
  0004d	44 8b c0	 mov	 r8d, eax
  00050	48 8d 15 00 00
	00 00		 lea	 rdx, OFFSET FLAT:??_C@_1JE@DMOBBMDE@?$AAc?$AA?3?$AA?2?$AAp?$AAr?$AAo?$AAg?$AAr?$AAa?$AAm?$AA?5?$AAf?$AAi?$AAl?$AAe?$AAs?$AA?5?$AA?$CI?$AAx?$AA8?$AA6?$AA?$CJ?$AA?2?$AAw?$AAi?$AAn?$AAd?$AAo?$AAw?$AAs?$AA?5?$AAk@
  00057	48 8d 0d 00 00
	00 00		 lea	 rcx, OFFSET FLAT:??_C@_1BA@LBADLIHI@?$AAp?$AAS?$AAo?$AAu?$AAr?$AAc?$AAe?$AA?$AA@
  0005e	ff 15 00 00 00
	00		 call	 QWORD PTR __imp__wassert
  00064	33 c0		 xor	 eax, eax
$LN3@XMLoadFloa:

; 1015 : #if defined(_XM_NO_INTRINSICS_)
; 1016 : 
; 1017 :     XMMATRIX M;
; 1018 :     M.r[0].vector4_f32[0] = pSource->m[0][0];
; 1019 :     M.r[0].vector4_f32[1] = pSource->m[0][1];
; 1020 :     M.r[0].vector4_f32[2] = pSource->m[0][2];
; 1021 :     M.r[0].vector4_f32[3] = pSource->m[0][3];
; 1022 : 
; 1023 :     M.r[1].vector4_f32[0] = pSource->m[1][0];
; 1024 :     M.r[1].vector4_f32[1] = pSource->m[1][1];
; 1025 :     M.r[1].vector4_f32[2] = pSource->m[1][2];
; 1026 :     M.r[1].vector4_f32[3] = pSource->m[1][3];
; 1027 : 
; 1028 :     M.r[2].vector4_f32[0] = pSource->m[2][0];
; 1029 :     M.r[2].vector4_f32[1] = pSource->m[2][1];
; 1030 :     M.r[2].vector4_f32[2] = pSource->m[2][2];
; 1031 :     M.r[2].vector4_f32[3] = pSource->m[2][3];
; 1032 : 
; 1033 :     M.r[3].vector4_f32[0] = pSource->m[3][0];
; 1034 :     M.r[3].vector4_f32[1] = pSource->m[3][1];
; 1035 :     M.r[3].vector4_f32[2] = pSource->m[3][2];
; 1036 :     M.r[3].vector4_f32[3] = pSource->m[3][3];
; 1037 :     return M;
; 1038 : 
; 1039 : #elif defined(_XM_ARM_NEON_INTRINSICS_)
; 1040 :     XMMATRIX M;
; 1041 :     M.r[0] = vld1q_f32( reinterpret_cast<const float*>(&pSource->_11) );
; 1042 :     M.r[1] = vld1q_f32( reinterpret_cast<const float*>(&pSource->_21) );
; 1043 :     M.r[2] = vld1q_f32( reinterpret_cast<const float*>(&pSource->_31) );
; 1044 :     M.r[3] = vld1q_f32( reinterpret_cast<const float*>(&pSource->_41) );
; 1045 :     return M;
; 1046 : #elif defined(_XM_SSE_INTRINSICS_)
; 1047 :     XMMATRIX M;

  00066	48 8d 4d 10	 lea	 rcx, QWORD PTR M$[rbp]
  0006a	e8 00 00 00 00	 call	 ??0XMMATRIX@DirectX@@QEAA@XZ ; DirectX::XMMATRIX::XMMATRIX

; 1048 :     M.r[0] = _mm_loadu_ps( &pSource->_11 );

  0006f	48 8b 85 00 02
	00 00		 mov	 rax, QWORD PTR pSource$[rbp]
  00076	0f 10 00	 movups	 xmm0, XMMWORD PTR [rax]
  00079	0f 29 85 30 01
	00 00		 movaps	 XMMWORD PTR $T4[rbp], xmm0
  00080	b8 10 00 00 00	 mov	 eax, 16
  00085	48 6b c0 00	 imul	 rax, rax, 0
  00089	0f 28 85 30 01
	00 00		 movaps	 xmm0, XMMWORD PTR $T4[rbp]
  00090	0f 11 44 05 10	 movups	 XMMWORD PTR M$[rbp+rax], xmm0

; 1049 :     M.r[1] = _mm_loadu_ps( &pSource->_21 );

  00095	48 8b 85 00 02
	00 00		 mov	 rax, QWORD PTR pSource$[rbp]
  0009c	48 83 c0 10	 add	 rax, 16
  000a0	0f 10 00	 movups	 xmm0, XMMWORD PTR [rax]
  000a3	0f 29 85 60 01
	00 00		 movaps	 XMMWORD PTR $T5[rbp], xmm0
  000aa	b8 10 00 00 00	 mov	 eax, 16
  000af	48 6b c0 01	 imul	 rax, rax, 1
  000b3	0f 28 85 60 01
	00 00		 movaps	 xmm0, XMMWORD PTR $T5[rbp]
  000ba	0f 11 44 05 10	 movups	 XMMWORD PTR M$[rbp+rax], xmm0

; 1050 :     M.r[2] = _mm_loadu_ps( &pSource->_31 );

  000bf	48 8b 85 00 02
	00 00		 mov	 rax, QWORD PTR pSource$[rbp]
  000c6	48 83 c0 20	 add	 rax, 32			; 00000020H
  000ca	0f 10 00	 movups	 xmm0, XMMWORD PTR [rax]
  000cd	0f 29 85 90 01
	00 00		 movaps	 XMMWORD PTR $T6[rbp], xmm0
  000d4	b8 10 00 00 00	 mov	 eax, 16
  000d9	48 6b c0 02	 imul	 rax, rax, 2
  000dd	0f 28 85 90 01
	00 00		 movaps	 xmm0, XMMWORD PTR $T6[rbp]
  000e4	0f 11 44 05 10	 movups	 XMMWORD PTR M$[rbp+rax], xmm0

; 1051 :     M.r[3] = _mm_loadu_ps( &pSource->_41 );

  000e9	48 8b 85 00 02
	00 00		 mov	 rax, QWORD PTR pSource$[rbp]
  000f0	48 83 c0 30	 add	 rax, 48			; 00000030H
  000f4	0f 10 00	 movups	 xmm0, XMMWORD PTR [rax]
  000f7	0f 29 85 c0 01
	00 00		 movaps	 XMMWORD PTR $T7[rbp], xmm0
  000fe	b8 10 00 00 00	 mov	 eax, 16
  00103	48 6b c0 03	 imul	 rax, rax, 3
  00107	0f 28 85 c0 01
	00 00		 movaps	 xmm0, XMMWORD PTR $T7[rbp]
  0010e	0f 11 44 05 10	 movups	 XMMWORD PTR M$[rbp+rax], xmm0

; 1052 :     return M;

  00113	0f 28 5d 40	 movaps	 xmm3, XMMWORD PTR M$[rbp+48]
  00117	0f 28 55 30	 movaps	 xmm2, XMMWORD PTR M$[rbp+32]
  0011b	0f 28 4d 20	 movaps	 xmm1, XMMWORD PTR M$[rbp+16]
  0011f	0f 28 45 10	 movaps	 xmm0, XMMWORD PTR M$[rbp]

; 1053 : #endif
; 1054 : }

  00123	f3 0f 7f 44 24
	20		 movdqu	 XMMWORD PTR [rsp+32], xmm0
  00129	48 8d 4d d0	 lea	 rcx, QWORD PTR [rbp-48]
  0012d	48 8d 15 00 00
	00 00		 lea	 rdx, OFFSET FLAT:?XMLoadFloat4x4@DirectX@@YQ?AUXMMATRIX@1@PEBUXMFLOAT4X4@1@@Z$rtcFrameData
  00134	e8 00 00 00 00	 call	 _RTC_CheckStackVars
  00139	f3 0f 6f 44 24
	20		 movdqu	 xmm0, XMMWORD PTR [rsp+32]
  0013f	48 8b 8d d8 01
	00 00		 mov	 rcx, QWORD PTR __$ArrayPad$[rbp]
  00146	48 33 cd	 xor	 rcx, rbp
  00149	e8 00 00 00 00	 call	 __security_check_cookie
  0014e	48 8d a5 e8 01
	00 00		 lea	 rsp, QWORD PTR [rbp+488]
  00155	5f		 pop	 rdi
  00156	5d		 pop	 rbp
  00157	c3		 ret	 0
?XMLoadFloat4x4@DirectX@@YQ?AUXMMATRIX@1@PEBUXMFLOAT4X4@1@@Z ENDP ; DirectX::XMLoadFloat4x4
_TEXT	ENDS
; Function compile flags: /Odtp /RTCsu /ZI
; File c:\program files (x86)\windows kits\8.1\include\um\directxmathconvert.inl
;	COMDAT ?XMLoadFloat4@DirectX@@YQ?AT__m128@@PEBUXMFLOAT4@1@@Z
_TEXT	SEGMENT
$T1 = 208
pSource$ = 272
?XMLoadFloat4@DirectX@@YQ?AT__m128@@PEBUXMFLOAT4@1@@Z PROC ; DirectX::XMLoadFloat4, COMDAT

; 680  : {

$LN4:
  00000	48 89 4c 24 08	 mov	 QWORD PTR [rsp+8], rcx
  00005	55		 push	 rbp
  00006	57		 push	 rdi
  00007	48 81 ec 28 01
	00 00		 sub	 rsp, 296		; 00000128H
  0000e	48 8d 6c 24 30	 lea	 rbp, QWORD PTR [rsp+48]
  00013	48 8b fc	 mov	 rdi, rsp
  00016	b9 4a 00 00 00	 mov	 ecx, 74			; 0000004aH
  0001b	b8 cc cc cc cc	 mov	 eax, -858993460		; ccccccccH
  00020	f3 ab		 rep stosd
  00022	48 8b 8c 24 48
	01 00 00	 mov	 rcx, QWORD PTR [rsp+328]

; 681  :     assert(pSource);

  0002a	48 83 bd 10 01
	00 00 00	 cmp	 QWORD PTR pSource$[rbp], 0
  00032	75 21		 jne	 SHORT $LN3@XMLoadFloa
  00034	8b 05 00 00 00
	00		 mov	 eax, DWORD PTR ?__LINE__Var@?0??XMLoadFloat4@DirectX@@YQ?AT__m128@@PEBUXMFLOAT4@2@@Z@4JA
  0003a	ff c0		 inc	 eax
  0003c	44 8b c0	 mov	 r8d, eax
  0003f	48 8d 15 00 00
	00 00		 lea	 rdx, OFFSET FLAT:??_C@_1JE@DMOBBMDE@?$AAc?$AA?3?$AA?2?$AAp?$AAr?$AAo?$AAg?$AAr?$AAa?$AAm?$AA?5?$AAf?$AAi?$AAl?$AAe?$AAs?$AA?5?$AA?$CI?$AAx?$AA8?$AA6?$AA?$CJ?$AA?2?$AAw?$AAi?$AAn?$AAd?$AAo?$AAw?$AAs?$AA?5?$AAk@
  00046	48 8d 0d 00 00
	00 00		 lea	 rcx, OFFSET FLAT:??_C@_1BA@LBADLIHI@?$AAp?$AAS?$AAo?$AAu?$AAr?$AAc?$AAe?$AA?$AA@
  0004d	ff 15 00 00 00
	00		 call	 QWORD PTR __imp__wassert
  00053	33 c0		 xor	 eax, eax
$LN3@XMLoadFloa:

; 682  : #if defined(_XM_NO_INTRINSICS_)
; 683  :     XMVECTOR V;
; 684  :     V.vector4_f32[0] = pSource->x;
; 685  :     V.vector4_f32[1] = pSource->y;
; 686  :     V.vector4_f32[2] = pSource->z;
; 687  :     V.vector4_f32[3] = pSource->w;
; 688  :     return V;
; 689  : #elif defined(_XM_ARM_NEON_INTRINSICS_)
; 690  :     return vld1q_f32( reinterpret_cast<const float*>(pSource) );
; 691  : #elif defined(_XM_SSE_INTRINSICS_)
; 692  :     return _mm_loadu_ps( &pSource->x );

  00055	48 8b 85 10 01
	00 00		 mov	 rax, QWORD PTR pSource$[rbp]
  0005c	0f 10 00	 movups	 xmm0, XMMWORD PTR [rax]
  0005f	0f 29 85 d0 00
	00 00		 movaps	 XMMWORD PTR $T1[rbp], xmm0
  00066	0f 28 85 d0 00
	00 00		 movaps	 xmm0, XMMWORD PTR $T1[rbp]

; 693  : #endif
; 694  : }

  0006d	48 8d a5 f8 00
	00 00		 lea	 rsp, QWORD PTR [rbp+248]
  00074	5f		 pop	 rdi
  00075	5d		 pop	 rbp
  00076	c3		 ret	 0
?XMLoadFloat4@DirectX@@YQ?AT__m128@@PEBUXMFLOAT4@1@@Z ENDP ; DirectX::XMLoadFloat4
_TEXT	ENDS
; Function compile flags: /Odtp /RTCsu /ZI
; File c:\program files (x86)\windows kits\8.1\include\um\directxmathconvert.inl
;	COMDAT ?XMLoadFloat3@DirectX@@YQ?AT__m128@@PEBUXMFLOAT3@1@@Z
_TEXT	SEGMENT
x$ = 16
y$ = 64
z$ = 112
xy$ = 160
$T1 = 400
$T2 = 448
$T3 = 496
$T4 = 544
$T5 = 592
pSource$ = 656
?XMLoadFloat3@DirectX@@YQ?AT__m128@@PEBUXMFLOAT3@1@@Z PROC ; DirectX::XMLoadFloat3, COMDAT

; 499  : {

$LN4:
  00000	48 89 4c 24 08	 mov	 QWORD PTR [rsp+8], rcx
  00005	55		 push	 rbp
  00006	57		 push	 rdi
  00007	48 81 ec a8 02
	00 00		 sub	 rsp, 680		; 000002a8H
  0000e	48 8d 6c 24 30	 lea	 rbp, QWORD PTR [rsp+48]
  00013	48 8b fc	 mov	 rdi, rsp
  00016	b9 aa 00 00 00	 mov	 ecx, 170		; 000000aaH
  0001b	b8 cc cc cc cc	 mov	 eax, -858993460		; ccccccccH
  00020	f3 ab		 rep stosd
  00022	48 8b 8c 24 c8
	02 00 00	 mov	 rcx, QWORD PTR [rsp+712]

; 500  :     assert(pSource);

  0002a	48 83 bd 90 02
	00 00 00	 cmp	 QWORD PTR pSource$[rbp], 0
  00032	75 21		 jne	 SHORT $LN3@XMLoadFloa
  00034	8b 05 00 00 00
	00		 mov	 eax, DWORD PTR ?__LINE__Var@?0??XMLoadFloat3@DirectX@@YQ?AT__m128@@PEBUXMFLOAT3@2@@Z@4JA
  0003a	ff c0		 inc	 eax
  0003c	44 8b c0	 mov	 r8d, eax
  0003f	48 8d 15 00 00
	00 00		 lea	 rdx, OFFSET FLAT:??_C@_1JE@DMOBBMDE@?$AAc?$AA?3?$AA?2?$AAp?$AAr?$AAo?$AAg?$AAr?$AAa?$AAm?$AA?5?$AAf?$AAi?$AAl?$AAe?$AAs?$AA?5?$AA?$CI?$AAx?$AA8?$AA6?$AA?$CJ?$AA?2?$AAw?$AAi?$AAn?$AAd?$AAo?$AAw?$AAs?$AA?5?$AAk@
  00046	48 8d 0d 00 00
	00 00		 lea	 rcx, OFFSET FLAT:??_C@_1BA@LBADLIHI@?$AAp?$AAS?$AAo?$AAu?$AAr?$AAc?$AAe?$AA?$AA@
  0004d	ff 15 00 00 00
	00		 call	 QWORD PTR __imp__wassert
  00053	33 c0		 xor	 eax, eax
$LN3@XMLoadFloa:

; 501  : #if defined(_XM_NO_INTRINSICS_)
; 502  :     XMVECTOR V;
; 503  :     V.vector4_f32[0] = pSource->x;
; 504  :     V.vector4_f32[1] = pSource->y;
; 505  :     V.vector4_f32[2] = pSource->z;
; 506  :     V.vector4_f32[3] = 0.f;
; 507  :     return V;
; 508  : #elif defined(_XM_ARM_NEON_INTRINSICS_)
; 509  :     float32x2_t x = vld1_f32( reinterpret_cast<const float*>(pSource) );
; 510  :     float32x2_t zero = vdup_n_f32(0);
; 511  :     float32x2_t y = vld1_lane_f32( reinterpret_cast<const float*>(pSource)+2, zero, 0 );
; 512  :     return vcombine_f32( x, y );
; 513  : #elif defined(_XM_SSE_INTRINSICS_)
; 514  :     __m128 x = _mm_load_ss( &pSource->x );

  00055	48 8b 85 90 02
	00 00		 mov	 rax, QWORD PTR pSource$[rbp]
  0005c	f3 0f 10 00	 movss	 xmm0, DWORD PTR [rax]
  00060	0f 57 c9	 xorps	 xmm1, xmm1
  00063	f3 0f 10 c8	 movss	 xmm1, xmm0
  00067	0f 28 c1	 movaps	 xmm0, xmm1
  0006a	0f 29 85 90 01
	00 00		 movaps	 XMMWORD PTR $T1[rbp], xmm0
  00071	0f 28 85 90 01
	00 00		 movaps	 xmm0, XMMWORD PTR $T1[rbp]
  00078	0f 29 45 10	 movaps	 XMMWORD PTR x$[rbp], xmm0

; 515  :     __m128 y = _mm_load_ss( &pSource->y );

  0007c	48 8b 85 90 02
	00 00		 mov	 rax, QWORD PTR pSource$[rbp]
  00083	48 83 c0 04	 add	 rax, 4
  00087	f3 0f 10 00	 movss	 xmm0, DWORD PTR [rax]
  0008b	0f 57 c9	 xorps	 xmm1, xmm1
  0008e	f3 0f 10 c8	 movss	 xmm1, xmm0
  00092	0f 28 c1	 movaps	 xmm0, xmm1
  00095	0f 29 85 c0 01
	00 00		 movaps	 XMMWORD PTR $T2[rbp], xmm0
  0009c	0f 28 85 c0 01
	00 00		 movaps	 xmm0, XMMWORD PTR $T2[rbp]
  000a3	0f 29 45 40	 movaps	 XMMWORD PTR y$[rbp], xmm0

; 516  :     __m128 z = _mm_load_ss( &pSource->z );

  000a7	48 8b 85 90 02
	00 00		 mov	 rax, QWORD PTR pSource$[rbp]
  000ae	48 83 c0 08	 add	 rax, 8
  000b2	f3 0f 10 00	 movss	 xmm0, DWORD PTR [rax]
  000b6	0f 57 c9	 xorps	 xmm1, xmm1
  000b9	f3 0f 10 c8	 movss	 xmm1, xmm0
  000bd	0f 28 c1	 movaps	 xmm0, xmm1
  000c0	0f 29 85 f0 01
	00 00		 movaps	 XMMWORD PTR $T3[rbp], xmm0
  000c7	0f 28 85 f0 01
	00 00		 movaps	 xmm0, XMMWORD PTR $T3[rbp]
  000ce	0f 29 45 70	 movaps	 XMMWORD PTR z$[rbp], xmm0

; 517  :     __m128 xy = _mm_unpacklo_ps( x, y );

  000d2	0f 28 45 10	 movaps	 xmm0, XMMWORD PTR x$[rbp]
  000d6	0f 14 45 40	 unpcklps xmm0, XMMWORD PTR y$[rbp]
  000da	0f 29 85 20 02
	00 00		 movaps	 XMMWORD PTR $T4[rbp], xmm0
  000e1	0f 28 85 20 02
	00 00		 movaps	 xmm0, XMMWORD PTR $T4[rbp]
  000e8	0f 29 85 a0 00
	00 00		 movaps	 XMMWORD PTR xy$[rbp], xmm0

; 518  :     return _mm_movelh_ps( xy, z );

  000ef	0f 28 85 a0 00
	00 00		 movaps	 xmm0, XMMWORD PTR xy$[rbp]
  000f6	0f 28 4d 70	 movaps	 xmm1, XMMWORD PTR z$[rbp]
  000fa	0f 16 c1	 movlhps xmm0, xmm1
  000fd	0f 29 85 50 02
	00 00		 movaps	 XMMWORD PTR $T5[rbp], xmm0
  00104	0f 28 85 50 02
	00 00		 movaps	 xmm0, XMMWORD PTR $T5[rbp]

; 519  : #endif
; 520  : }

  0010b	48 8d a5 78 02
	00 00		 lea	 rsp, QWORD PTR [rbp+632]
  00112	5f		 pop	 rdi
  00113	5d		 pop	 rbp
  00114	c3		 ret	 0
?XMLoadFloat3@DirectX@@YQ?AT__m128@@PEBUXMFLOAT3@1@@Z ENDP ; DirectX::XMLoadFloat3
_TEXT	ENDS
; Function compile flags: /Odtp /RTCsu /ZI
; File c:\program files (x86)\windows kits\8.1\include\um\directxmath.h
;	COMDAT ??0XMFLOAT4X4@DirectX@@QEAA@XZ
_TEXT	SEGMENT
this$ = 224
??0XMFLOAT4X4@DirectX@@QEAA@XZ PROC			; DirectX::XMFLOAT4X4::XMFLOAT4X4, COMDAT

; 698  :     XMFLOAT4X4() {}

$LN3:
  00000	48 89 4c 24 08	 mov	 QWORD PTR [rsp+8], rcx
  00005	55		 push	 rbp
  00006	57		 push	 rdi
  00007	48 81 ec c8 00
	00 00		 sub	 rsp, 200		; 000000c8H
  0000e	48 8b ec	 mov	 rbp, rsp
  00011	48 8b fc	 mov	 rdi, rsp
  00014	b9 32 00 00 00	 mov	 ecx, 50			; 00000032H
  00019	b8 cc cc cc cc	 mov	 eax, -858993460		; ccccccccH
  0001e	f3 ab		 rep stosd
  00020	48 8b 8c 24 e8
	00 00 00	 mov	 rcx, QWORD PTR [rsp+232]
  00028	48 8b 85 e0 00
	00 00		 mov	 rax, QWORD PTR this$[rbp]
  0002f	48 8d a5 c8 00
	00 00		 lea	 rsp, QWORD PTR [rbp+200]
  00036	5f		 pop	 rdi
  00037	5d		 pop	 rbp
  00038	c3		 ret	 0
??0XMFLOAT4X4@DirectX@@QEAA@XZ ENDP			; DirectX::XMFLOAT4X4::XMFLOAT4X4
_TEXT	ENDS
; Function compile flags: /Odtp /RTCsu /ZI
; File c:\program files (x86)\windows kits\8.1\include\um\directxmath.h
;	COMDAT ??0XMFLOAT4@DirectX@@QEAA@XZ
_TEXT	SEGMENT
this$ = 224
??0XMFLOAT4@DirectX@@QEAA@XZ PROC			; DirectX::XMFLOAT4::XMFLOAT4, COMDAT

; 560  :     XMFLOAT4() {}

$LN3:
  00000	48 89 4c 24 08	 mov	 QWORD PTR [rsp+8], rcx
  00005	55		 push	 rbp
  00006	57		 push	 rdi
  00007	48 81 ec c8 00
	00 00		 sub	 rsp, 200		; 000000c8H
  0000e	48 8b ec	 mov	 rbp, rsp
  00011	48 8b fc	 mov	 rdi, rsp
  00014	b9 32 00 00 00	 mov	 ecx, 50			; 00000032H
  00019	b8 cc cc cc cc	 mov	 eax, -858993460		; ccccccccH
  0001e	f3 ab		 rep stosd
  00020	48 8b 8c 24 e8
	00 00 00	 mov	 rcx, QWORD PTR [rsp+232]
  00028	48 8b 85 e0 00
	00 00		 mov	 rax, QWORD PTR this$[rbp]
  0002f	48 8d a5 c8 00
	00 00		 lea	 rsp, QWORD PTR [rbp+200]
  00036	5f		 pop	 rdi
  00037	5d		 pop	 rbp
  00038	c3		 ret	 0
??0XMFLOAT4@DirectX@@QEAA@XZ ENDP			; DirectX::XMFLOAT4::XMFLOAT4
_TEXT	ENDS
; Function compile flags: /Odtp /RTCsu /ZI
; File c:\program files (x86)\windows kits\8.1\include\um\directxmath.h
;	COMDAT ??4XMFLOAT3@DirectX@@QEAAAEAU01@AEBU01@@Z
_TEXT	SEGMENT
this$ = 224
Float3$ = 232
??4XMFLOAT3@DirectX@@QEAAAEAU01@AEBU01@@Z PROC		; DirectX::XMFLOAT3::operator=, COMDAT

; 509  :     XMFLOAT3& operator= (const XMFLOAT3& Float3) { x = Float3.x; y = Float3.y; z = Float3.z; return *this; }

$LN3:
  00000	48 89 54 24 10	 mov	 QWORD PTR [rsp+16], rdx
  00005	48 89 4c 24 08	 mov	 QWORD PTR [rsp+8], rcx
  0000a	55		 push	 rbp
  0000b	57		 push	 rdi
  0000c	48 81 ec c8 00
	00 00		 sub	 rsp, 200		; 000000c8H
  00013	48 8b ec	 mov	 rbp, rsp
  00016	48 8b fc	 mov	 rdi, rsp
  00019	b9 32 00 00 00	 mov	 ecx, 50			; 00000032H
  0001e	b8 cc cc cc cc	 mov	 eax, -858993460		; ccccccccH
  00023	f3 ab		 rep stosd
  00025	48 8b 8c 24 e8
	00 00 00	 mov	 rcx, QWORD PTR [rsp+232]
  0002d	48 8b 85 e0 00
	00 00		 mov	 rax, QWORD PTR this$[rbp]
  00034	48 8b 8d e8 00
	00 00		 mov	 rcx, QWORD PTR Float3$[rbp]
  0003b	f3 0f 10 01	 movss	 xmm0, DWORD PTR [rcx]
  0003f	f3 0f 11 00	 movss	 DWORD PTR [rax], xmm0
  00043	48 8b 85 e0 00
	00 00		 mov	 rax, QWORD PTR this$[rbp]
  0004a	48 8b 8d e8 00
	00 00		 mov	 rcx, QWORD PTR Float3$[rbp]
  00051	f3 0f 10 41 04	 movss	 xmm0, DWORD PTR [rcx+4]
  00056	f3 0f 11 40 04	 movss	 DWORD PTR [rax+4], xmm0
  0005b	48 8b 85 e0 00
	00 00		 mov	 rax, QWORD PTR this$[rbp]
  00062	48 8b 8d e8 00
	00 00		 mov	 rcx, QWORD PTR Float3$[rbp]
  00069	f3 0f 10 41 08	 movss	 xmm0, DWORD PTR [rcx+8]
  0006e	f3 0f 11 40 08	 movss	 DWORD PTR [rax+8], xmm0
  00073	48 8b 85 e0 00
	00 00		 mov	 rax, QWORD PTR this$[rbp]
  0007a	48 8d a5 c8 00
	00 00		 lea	 rsp, QWORD PTR [rbp+200]
  00081	5f		 pop	 rdi
  00082	5d		 pop	 rbp
  00083	c3		 ret	 0
??4XMFLOAT3@DirectX@@QEAAAEAU01@AEBU01@@Z ENDP		; DirectX::XMFLOAT3::operator=
_TEXT	ENDS
; Function compile flags: /Odtp /RTCsu /ZI
; File c:\program files (x86)\windows kits\8.1\include\um\directxmath.h
;	COMDAT ??0XMFLOAT3@DirectX@@QEAA@MMM@Z
_TEXT	SEGMENT
this$ = 224
_x$ = 232
_y$ = 240
_z$ = 248
??0XMFLOAT3@DirectX@@QEAA@MMM@Z PROC			; DirectX::XMFLOAT3::XMFLOAT3, COMDAT

; 506  :     XMFLOAT3(float _x, float _y, float _z) : x(_x), y(_y), z(_z) {}

$LN3:
  00000	f3 0f 11 5c 24
	20		 movss	 DWORD PTR [rsp+32], xmm3
  00006	f3 0f 11 54 24
	18		 movss	 DWORD PTR [rsp+24], xmm2
  0000c	f3 0f 11 4c 24
	10		 movss	 DWORD PTR [rsp+16], xmm1
  00012	48 89 4c 24 08	 mov	 QWORD PTR [rsp+8], rcx
  00017	55		 push	 rbp
  00018	57		 push	 rdi
  00019	48 81 ec c8 00
	00 00		 sub	 rsp, 200		; 000000c8H
  00020	48 8b ec	 mov	 rbp, rsp
  00023	48 8b fc	 mov	 rdi, rsp
  00026	b9 32 00 00 00	 mov	 ecx, 50			; 00000032H
  0002b	b8 cc cc cc cc	 mov	 eax, -858993460		; ccccccccH
  00030	f3 ab		 rep stosd
  00032	48 8b 8c 24 e8
	00 00 00	 mov	 rcx, QWORD PTR [rsp+232]
  0003a	48 8b 85 e0 00
	00 00		 mov	 rax, QWORD PTR this$[rbp]
  00041	f3 0f 10 85 e8
	00 00 00	 movss	 xmm0, DWORD PTR _x$[rbp]
  00049	f3 0f 11 00	 movss	 DWORD PTR [rax], xmm0
  0004d	48 8b 85 e0 00
	00 00		 mov	 rax, QWORD PTR this$[rbp]
  00054	f3 0f 10 85 f0
	00 00 00	 movss	 xmm0, DWORD PTR _y$[rbp]
  0005c	f3 0f 11 40 04	 movss	 DWORD PTR [rax+4], xmm0
  00061	48 8b 85 e0 00
	00 00		 mov	 rax, QWORD PTR this$[rbp]
  00068	f3 0f 10 85 f8
	00 00 00	 movss	 xmm0, DWORD PTR _z$[rbp]
  00070	f3 0f 11 40 08	 movss	 DWORD PTR [rax+8], xmm0
  00075	48 8b 85 e0 00
	00 00		 mov	 rax, QWORD PTR this$[rbp]
  0007c	48 8d a5 c8 00
	00 00		 lea	 rsp, QWORD PTR [rbp+200]
  00083	5f		 pop	 rdi
  00084	5d		 pop	 rbp
  00085	c3		 ret	 0
??0XMFLOAT3@DirectX@@QEAA@MMM@Z ENDP			; DirectX::XMFLOAT3::XMFLOAT3
_TEXT	ENDS
; Function compile flags: /Odtp /RTCsu /ZI
; File c:\program files (x86)\windows kits\8.1\include\um\directxmath.h
;	COMDAT ??0XMFLOAT3@DirectX@@QEAA@XZ
_TEXT	SEGMENT
this$ = 224
??0XMFLOAT3@DirectX@@QEAA@XZ PROC			; DirectX::XMFLOAT3::XMFLOAT3, COMDAT

; 505  :     XMFLOAT3() {}

$LN3:
  00000	48 89 4c 24 08	 mov	 QWORD PTR [rsp+8], rcx
  00005	55		 push	 rbp
  00006	57		 push	 rdi
  00007	48 81 ec c8 00
	00 00		 sub	 rsp, 200		; 000000c8H
  0000e	48 8b ec	 mov	 rbp, rsp
  00011	48 8b fc	 mov	 rdi, rsp
  00014	b9 32 00 00 00	 mov	 ecx, 50			; 00000032H
  00019	b8 cc cc cc cc	 mov	 eax, -858993460		; ccccccccH
  0001e	f3 ab		 rep stosd
  00020	48 8b 8c 24 e8
	00 00 00	 mov	 rcx, QWORD PTR [rsp+232]
  00028	48 8b 85 e0 00
	00 00		 mov	 rax, QWORD PTR this$[rbp]
  0002f	48 8d a5 c8 00
	00 00		 lea	 rsp, QWORD PTR [rbp+200]
  00036	5f		 pop	 rdi
  00037	5d		 pop	 rbp
  00038	c3		 ret	 0
??0XMFLOAT3@DirectX@@QEAA@XZ ENDP			; DirectX::XMFLOAT3::XMFLOAT3
_TEXT	ENDS
; Function compile flags: /Odtp /RTCsu /ZI
; File c:\program files (x86)\windows kits\8.1\include\um\directxmathmatrix.inl
;	COMDAT ??DXMMATRIX@DirectX@@QEBQ?AU01@U01@@Z
_TEXT	SEGMENT
M$ = 16
$T4 = 304
$T5 = 400
this$ = 512
??DXMMATRIX@DirectX@@QEBQ?AU01@U01@@Z PROC		; DirectX::XMMATRIX::operator*, COMDAT

; 3044 : {

$LN3:
  00000	48 89 4c 24 08	 mov	 QWORD PTR [rsp+8], rcx
  00005	55		 push	 rbp
  00006	56		 push	 rsi
  00007	57		 push	 rdi
  00008	48 81 ec 10 02
	00 00		 sub	 rsp, 528		; 00000210H
  0000f	48 8d 6c 24 30	 lea	 rbp, QWORD PTR [rsp+48]
  00014	48 8b fc	 mov	 rdi, rsp
  00017	b9 84 00 00 00	 mov	 ecx, 132		; 00000084H
  0001c	b8 cc cc cc cc	 mov	 eax, -858993460		; ccccccccH
  00021	f3 ab		 rep stosd
  00023	48 8b 8c 24 38
	02 00 00	 mov	 rcx, QWORD PTR [rsp+568]
  0002b	48 8d 45 10	 lea	 rax, QWORD PTR M$[rbp]
  0002f	48 89 84 24 38
	02 00 00	 mov	 QWORD PTR [rsp+568], rax
  00037	0f 29 5d 40	 movaps	 XMMWORD PTR M$[rbp+48], xmm3
  0003b	0f 29 55 30	 movaps	 XMMWORD PTR M$[rbp+32], xmm2
  0003f	0f 29 4d 20	 movaps	 XMMWORD PTR M$[rbp+16], xmm1
  00043	0f 29 45 10	 movaps	 XMMWORD PTR M$[rbp], xmm0

; 3045 :     return XMMatrixMultiply(*this, M);

  00047	48 8d 55 10	 lea	 rdx, QWORD PTR M$[rbp]
  0004b	48 8b 85 00 02
	00 00		 mov	 rax, QWORD PTR this$[rbp]
  00052	0f 10 00	 movups	 xmm0, XMMWORD PTR [rax]
  00055	0f 10 48 10	 movups	 xmm1, XMMWORD PTR [rax+16]
  00059	0f 10 50 20	 movups	 xmm2, XMMWORD PTR [rax+32]
  0005d	0f 10 58 30	 movups	 xmm3, XMMWORD PTR [rax+48]
  00061	e8 00 00 00 00	 call	 ?XMMatrixMultiply@DirectX@@YQ?AUXMMATRIX@1@U21@AEBU21@@Z ; DirectX::XMMatrixMultiply
  00066	0f 29 9d c0 01
	00 00		 movaps	 XMMWORD PTR $T5[rbp+48], xmm3
  0006d	0f 29 95 b0 01
	00 00		 movaps	 XMMWORD PTR $T5[rbp+32], xmm2
  00074	0f 29 8d a0 01
	00 00		 movaps	 XMMWORD PTR $T5[rbp+16], xmm1
  0007b	0f 29 85 90 01
	00 00		 movaps	 XMMWORD PTR $T5[rbp], xmm0
  00082	48 8d 85 30 01
	00 00		 lea	 rax, QWORD PTR $T4[rbp]
  00089	48 8d 8d 90 01
	00 00		 lea	 rcx, QWORD PTR $T5[rbp]
  00090	48 8b f8	 mov	 rdi, rax
  00093	48 8b f1	 mov	 rsi, rcx
  00096	b9 40 00 00 00	 mov	 ecx, 64			; 00000040H
  0009b	f3 a4		 rep movsb
  0009d	0f 28 9d 60 01
	00 00		 movaps	 xmm3, XMMWORD PTR $T4[rbp+48]
  000a4	0f 28 95 50 01
	00 00		 movaps	 xmm2, XMMWORD PTR $T4[rbp+32]
  000ab	0f 28 8d 40 01
	00 00		 movaps	 xmm1, XMMWORD PTR $T4[rbp+16]
  000b2	0f 28 85 30 01
	00 00		 movaps	 xmm0, XMMWORD PTR $T4[rbp]

; 3046 : }

  000b9	f3 0f 7f 44 24
	20		 movdqu	 XMMWORD PTR [rsp+32], xmm0
  000bf	48 8d 4d d0	 lea	 rcx, QWORD PTR [rbp-48]
  000c3	48 8d 15 00 00
	00 00		 lea	 rdx, OFFSET FLAT:??DXMMATRIX@DirectX@@QEBQ?AU01@U01@@Z$rtcFrameData
  000ca	e8 00 00 00 00	 call	 _RTC_CheckStackVars
  000cf	f3 0f 6f 44 24
	20		 movdqu	 xmm0, XMMWORD PTR [rsp+32]
  000d5	48 8d a5 e0 01
	00 00		 lea	 rsp, QWORD PTR [rbp+480]
  000dc	5f		 pop	 rdi
  000dd	5e		 pop	 rsi
  000de	5d		 pop	 rbp
  000df	c3		 ret	 0
??DXMMATRIX@DirectX@@QEBQ?AU01@U01@@Z ENDP		; DirectX::XMMATRIX::operator*
_TEXT	ENDS
; Function compile flags: /Odtp /RTCsu /ZI
; File c:\program files (x86)\windows kits\8.1\include\um\directxmath.h
;	COMDAT ??0XMMATRIX@DirectX@@QEAA@XZ
_TEXT	SEGMENT
this$ = 224
??0XMMATRIX@DirectX@@QEAA@XZ PROC			; DirectX::XMMATRIX::XMMATRIX, COMDAT

; 413  :     XMMATRIX() {}

$LN3:
  00000	48 89 4c 24 08	 mov	 QWORD PTR [rsp+8], rcx
  00005	55		 push	 rbp
  00006	57		 push	 rdi
  00007	48 81 ec c8 00
	00 00		 sub	 rsp, 200		; 000000c8H
  0000e	48 8b ec	 mov	 rbp, rsp
  00011	48 8b fc	 mov	 rdi, rsp
  00014	b9 32 00 00 00	 mov	 ecx, 50			; 00000032H
  00019	b8 cc cc cc cc	 mov	 eax, -858993460		; ccccccccH
  0001e	f3 ab		 rep stosd
  00020	48 8b 8c 24 e8
	00 00 00	 mov	 rcx, QWORD PTR [rsp+232]
  00028	48 8b 85 e0 00
	00 00		 mov	 rax, QWORD PTR this$[rbp]
  0002f	48 8d a5 c8 00
	00 00		 lea	 rsp, QWORD PTR [rbp+200]
  00036	5f		 pop	 rdi
  00037	5d		 pop	 rbp
  00038	c3		 ret	 0
??0XMMATRIX@DirectX@@QEAA@XZ ENDP			; DirectX::XMMATRIX::XMMATRIX
_TEXT	ENDS
; Function compile flags: /Odtp /RTCsu /ZI
; File c:\program files (x86)\windows kits\8.1\include\um\directxmathvector.inl
;	COMDAT ??DDirectX@@YQ?AT__m128@@T1@M@Z
_TEXT	SEGMENT
V$ = 16
$T1 = 256
S$ = 328
??DDirectX@@YQ?AT__m128@@T1@M@Z PROC			; DirectX::operator*, COMDAT

; 13994: {

$LN3:
  00000	f3 0f 11 4c 24
	10		 movss	 DWORD PTR [rsp+16], xmm1
  00006	55		 push	 rbp
  00007	57		 push	 rdi
  00008	48 81 ec 58 01
	00 00		 sub	 rsp, 344		; 00000158H
  0000f	48 8d 6c 24 30	 lea	 rbp, QWORD PTR [rsp+48]
  00014	48 8b fc	 mov	 rdi, rsp
  00017	b9 56 00 00 00	 mov	 ecx, 86			; 00000056H
  0001c	b8 cc cc cc cc	 mov	 eax, -858993460		; ccccccccH
  00021	f3 ab		 rep stosd
  00023	48 8d 45 10	 lea	 rax, QWORD PTR V$[rbp]
  00027	48 89 84 24 70
	01 00 00	 mov	 QWORD PTR [rsp+368], rax
  0002f	0f 29 45 10	 movaps	 XMMWORD PTR V$[rbp], xmm0

; 13995:     return XMVectorScale(V, S);

  00033	f3 0f 10 8d 48
	01 00 00	 movss	 xmm1, DWORD PTR S$[rbp]
  0003b	0f 28 45 10	 movaps	 xmm0, XMMWORD PTR V$[rbp]
  0003f	e8 00 00 00 00	 call	 ?XMVectorScale@DirectX@@YQ?AT__m128@@T2@M@Z ; DirectX::XMVectorScale
  00044	0f 29 85 00 01
	00 00		 movaps	 XMMWORD PTR $T1[rbp], xmm0
  0004b	0f 28 85 00 01
	00 00		 movaps	 xmm0, XMMWORD PTR $T1[rbp]

; 13996: }

  00052	48 8d a5 28 01
	00 00		 lea	 rsp, QWORD PTR [rbp+296]
  00059	5f		 pop	 rdi
  0005a	5d		 pop	 rbp
  0005b	c3		 ret	 0
??DDirectX@@YQ?AT__m128@@T1@M@Z ENDP			; DirectX::operator*
_TEXT	ENDS
; Function compile flags: /Odtp /RTCsu /ZI
; File c:\program files (x86)\windows kits\8.1\include\um\directxmathvector.inl
;	COMDAT ??GDirectX@@YQ?AT__m128@@T1@0@Z
_TEXT	SEGMENT
V1$ = 16
V2$ = 64
$T1 = 304
??GDirectX@@YQ?AT__m128@@T1@0@Z PROC			; DirectX::operator-, COMDAT

; 13961: {

$LN3:
  00000	40 55		 push	 rbp
  00002	57		 push	 rdi
  00003	48 81 ec 88 01
	00 00		 sub	 rsp, 392		; 00000188H
  0000a	48 8d 6c 24 30	 lea	 rbp, QWORD PTR [rsp+48]
  0000f	48 8b fc	 mov	 rdi, rsp
  00012	b9 62 00 00 00	 mov	 ecx, 98			; 00000062H
  00017	b8 cc cc cc cc	 mov	 eax, -858993460		; ccccccccH
  0001c	f3 ab		 rep stosd
  0001e	48 8d 45 10	 lea	 rax, QWORD PTR V1$[rbp]
  00022	48 89 84 24 a0
	01 00 00	 mov	 QWORD PTR [rsp+416], rax
  0002a	48 8d 45 40	 lea	 rax, QWORD PTR V2$[rbp]
  0002e	48 89 84 24 a8
	01 00 00	 mov	 QWORD PTR [rsp+424], rax
  00036	0f 29 4d 40	 movaps	 XMMWORD PTR V2$[rbp], xmm1
  0003a	0f 29 45 10	 movaps	 XMMWORD PTR V1$[rbp], xmm0

; 13962:     return XMVectorSubtract(V1, V2);

  0003e	0f 28 4d 40	 movaps	 xmm1, XMMWORD PTR V2$[rbp]
  00042	0f 28 45 10	 movaps	 xmm0, XMMWORD PTR V1$[rbp]
  00046	e8 00 00 00 00	 call	 ?XMVectorSubtract@DirectX@@YQ?AT__m128@@T2@0@Z ; DirectX::XMVectorSubtract
  0004b	0f 29 85 30 01
	00 00		 movaps	 XMMWORD PTR $T1[rbp], xmm0
  00052	0f 28 85 30 01
	00 00		 movaps	 xmm0, XMMWORD PTR $T1[rbp]

; 13963: }

  00059	48 8d a5 58 01
	00 00		 lea	 rsp, QWORD PTR [rbp+344]
  00060	5f		 pop	 rdi
  00061	5d		 pop	 rbp
  00062	c3		 ret	 0
??GDirectX@@YQ?AT__m128@@T1@0@Z ENDP			; DirectX::operator-
_TEXT	ENDS
; Function compile flags: /Odtp /RTCsu /ZI
; File c:\program files (x86)\windows kits\8.1\include\um\directxmathvector.inl
;	COMDAT ??HDirectX@@YQ?AT__m128@@T1@0@Z
_TEXT	SEGMENT
V1$ = 16
V2$ = 64
$T1 = 304
??HDirectX@@YQ?AT__m128@@T1@0@Z PROC			; DirectX::operator+, COMDAT

; 13950: {

$LN3:
  00000	40 55		 push	 rbp
  00002	57		 push	 rdi
  00003	48 81 ec 88 01
	00 00		 sub	 rsp, 392		; 00000188H
  0000a	48 8d 6c 24 30	 lea	 rbp, QWORD PTR [rsp+48]
  0000f	48 8b fc	 mov	 rdi, rsp
  00012	b9 62 00 00 00	 mov	 ecx, 98			; 00000062H
  00017	b8 cc cc cc cc	 mov	 eax, -858993460		; ccccccccH
  0001c	f3 ab		 rep stosd
  0001e	48 8d 45 10	 lea	 rax, QWORD PTR V1$[rbp]
  00022	48 89 84 24 a0
	01 00 00	 mov	 QWORD PTR [rsp+416], rax
  0002a	48 8d 45 40	 lea	 rax, QWORD PTR V2$[rbp]
  0002e	48 89 84 24 a8
	01 00 00	 mov	 QWORD PTR [rsp+424], rax
  00036	0f 29 4d 40	 movaps	 XMMWORD PTR V2$[rbp], xmm1
  0003a	0f 29 45 10	 movaps	 XMMWORD PTR V1$[rbp], xmm0

; 13951:     return XMVectorAdd(V1, V2);

  0003e	0f 28 4d 40	 movaps	 xmm1, XMMWORD PTR V2$[rbp]
  00042	0f 28 45 10	 movaps	 xmm0, XMMWORD PTR V1$[rbp]
  00046	e8 00 00 00 00	 call	 ?XMVectorAdd@DirectX@@YQ?AT__m128@@T2@0@Z ; DirectX::XMVectorAdd
  0004b	0f 29 85 30 01
	00 00		 movaps	 XMMWORD PTR $T1[rbp], xmm0
  00052	0f 28 85 30 01
	00 00		 movaps	 xmm0, XMMWORD PTR $T1[rbp]

; 13952: }

  00059	48 8d a5 58 01
	00 00		 lea	 rsp, QWORD PTR [rbp+344]
  00060	5f		 pop	 rdi
  00061	5d		 pop	 rbp
  00062	c3		 ret	 0
??HDirectX@@YQ?AT__m128@@T1@0@Z ENDP			; DirectX::operator+
_TEXT	ENDS
; Function compile flags: /Odtp /RTCsu /ZI
; File c:\program files (x86)\windows kits\8.1\include\um\directxmathvector.inl
;	COMDAT ??GDirectX@@YQ?AT__m128@@T1@@Z
_TEXT	SEGMENT
V$ = 16
$T1 = 256
??GDirectX@@YQ?AT__m128@@T1@@Z PROC			; DirectX::operator-, COMDAT

; 13866: {

$LN3:
  00000	40 55		 push	 rbp
  00002	57		 push	 rdi
  00003	48 81 ec 58 01
	00 00		 sub	 rsp, 344		; 00000158H
  0000a	48 8d 6c 24 30	 lea	 rbp, QWORD PTR [rsp+48]
  0000f	48 8b fc	 mov	 rdi, rsp
  00012	b9 56 00 00 00	 mov	 ecx, 86			; 00000056H
  00017	b8 cc cc cc cc	 mov	 eax, -858993460		; ccccccccH
  0001c	f3 ab		 rep stosd
  0001e	48 8d 45 10	 lea	 rax, QWORD PTR V$[rbp]
  00022	48 89 84 24 70
	01 00 00	 mov	 QWORD PTR [rsp+368], rax
  0002a	0f 29 45 10	 movaps	 XMMWORD PTR V$[rbp], xmm0

; 13867:     return XMVectorNegate(V);

  0002e	0f 28 45 10	 movaps	 xmm0, XMMWORD PTR V$[rbp]
  00032	e8 00 00 00 00	 call	 ?XMVectorNegate@DirectX@@YQ?AT__m128@@T2@@Z ; DirectX::XMVectorNegate
  00037	0f 29 85 00 01
	00 00		 movaps	 XMMWORD PTR $T1[rbp], xmm0
  0003e	0f 28 85 00 01
	00 00		 movaps	 xmm0, XMMWORD PTR $T1[rbp]

; 13868: }

  00045	48 8d a5 28 01
	00 00		 lea	 rsp, QWORD PTR [rbp+296]
  0004c	5f		 pop	 rdi
  0004d	5d		 pop	 rbp
  0004e	c3		 ret	 0
??GDirectX@@YQ?AT__m128@@T1@@Z ENDP			; DirectX::operator-
_TEXT	ENDS
; Function compile flags: /Odtp /RTCsu /ZI
; File c:\program files (x86)\windows kits\8.1\include\um\directxmath.h
;	COMDAT ??BXMVECTORU32@DirectX@@QEBA?AT__m128@@XZ
_TEXT	SEGMENT
this$ = 224
__$ReturnUdt$ = 232
??BXMVECTORU32@DirectX@@QEBA?AT__m128@@XZ PROC		; DirectX::XMVECTORU32::operator __m128, COMDAT

; 346  :     inline operator XMVECTOR() const { return v; }

$LN3:
  00000	48 89 54 24 10	 mov	 QWORD PTR [rsp+16], rdx
  00005	48 89 4c 24 08	 mov	 QWORD PTR [rsp+8], rcx
  0000a	55		 push	 rbp
  0000b	57		 push	 rdi
  0000c	48 81 ec c8 00
	00 00		 sub	 rsp, 200		; 000000c8H
  00013	48 8b ec	 mov	 rbp, rsp
  00016	48 8b fc	 mov	 rdi, rsp
  00019	b9 32 00 00 00	 mov	 ecx, 50			; 00000032H
  0001e	b8 cc cc cc cc	 mov	 eax, -858993460		; ccccccccH
  00023	f3 ab		 rep stosd
  00025	48 8b 8c 24 e8
	00 00 00	 mov	 rcx, QWORD PTR [rsp+232]
  0002d	48 8b 85 e8 00
	00 00		 mov	 rax, QWORD PTR __$ReturnUdt$[rbp]
  00034	48 8b 8d e0 00
	00 00		 mov	 rcx, QWORD PTR this$[rbp]
  0003b	0f 10 01	 movups	 xmm0, XMMWORD PTR [rcx]
  0003e	0f 11 00	 movups	 XMMWORD PTR [rax], xmm0
  00041	48 8b 85 e8 00
	00 00		 mov	 rax, QWORD PTR __$ReturnUdt$[rbp]
  00048	48 8d a5 c8 00
	00 00		 lea	 rsp, QWORD PTR [rbp+200]
  0004f	5f		 pop	 rdi
  00050	5d		 pop	 rbp
  00051	c3		 ret	 0
??BXMVECTORU32@DirectX@@QEBA?AT__m128@@XZ ENDP		; DirectX::XMVECTORU32::operator __m128
_TEXT	ENDS
; Function compile flags: /Odtp /RTCsu /ZI
; File c:\program files (x86)\windows kits\8.1\include\um\directxmath.h
;	COMDAT ??BXMVECTORI32@DirectX@@QEBA?AT__m128@@XZ
_TEXT	SEGMENT
this$ = 224
__$ReturnUdt$ = 232
??BXMVECTORI32@DirectX@@QEBA?AT__m128@@XZ PROC		; DirectX::XMVECTORI32::operator __m128, COMDAT

; 316  :     inline operator XMVECTOR() const { return v; }

$LN3:
  00000	48 89 54 24 10	 mov	 QWORD PTR [rsp+16], rdx
  00005	48 89 4c 24 08	 mov	 QWORD PTR [rsp+8], rcx
  0000a	55		 push	 rbp
  0000b	57		 push	 rdi
  0000c	48 81 ec c8 00
	00 00		 sub	 rsp, 200		; 000000c8H
  00013	48 8b ec	 mov	 rbp, rsp
  00016	48 8b fc	 mov	 rdi, rsp
  00019	b9 32 00 00 00	 mov	 ecx, 50			; 00000032H
  0001e	b8 cc cc cc cc	 mov	 eax, -858993460		; ccccccccH
  00023	f3 ab		 rep stosd
  00025	48 8b 8c 24 e8
	00 00 00	 mov	 rcx, QWORD PTR [rsp+232]
  0002d	48 8b 85 e8 00
	00 00		 mov	 rax, QWORD PTR __$ReturnUdt$[rbp]
  00034	48 8b 8d e0 00
	00 00		 mov	 rcx, QWORD PTR this$[rbp]
  0003b	0f 10 01	 movups	 xmm0, XMMWORD PTR [rcx]
  0003e	0f 11 00	 movups	 XMMWORD PTR [rax], xmm0
  00041	48 8b 85 e8 00
	00 00		 mov	 rax, QWORD PTR __$ReturnUdt$[rbp]
  00048	48 8d a5 c8 00
	00 00		 lea	 rsp, QWORD PTR [rbp+200]
  0004f	5f		 pop	 rdi
  00050	5d		 pop	 rbp
  00051	c3		 ret	 0
??BXMVECTORI32@DirectX@@QEBA?AT__m128@@XZ ENDP		; DirectX::XMVECTORI32::operator __m128
_TEXT	ENDS
; Function compile flags: /Odtp /RTCsu /ZI
; File c:\program files (x86)\microsoft visual studio 14.0\vc\include\cmath
;	COMDAT ?acos@@YAMM@Z
_TEXT	SEGMENT
_Xx$ = 224
?acos@@YAMM@Z PROC					; acos, COMDAT

; 36   : 	{

$LN3:
  00000	f3 0f 11 44 24
	08		 movss	 DWORD PTR [rsp+8], xmm0
  00006	55		 push	 rbp
  00007	57		 push	 rdi
  00008	48 81 ec f8 00
	00 00		 sub	 rsp, 248		; 000000f8H
  0000f	48 8d 6c 24 30	 lea	 rbp, QWORD PTR [rsp+48]
  00014	48 8b fc	 mov	 rdi, rsp
  00017	b9 3e 00 00 00	 mov	 ecx, 62			; 0000003eH
  0001c	b8 cc cc cc cc	 mov	 eax, -858993460		; ccccccccH
  00021	f3 ab		 rep stosd

; 37   : 	return (_CSTD acosf(_Xx));

  00023	f3 0f 10 85 e0
	00 00 00	 movss	 xmm0, DWORD PTR _Xx$[rbp]
  0002b	ff 15 00 00 00
	00		 call	 QWORD PTR __imp_acosf

; 38   : 	}

  00031	48 8d a5 c8 00
	00 00		 lea	 rsp, QWORD PTR [rbp+200]
  00038	5f		 pop	 rdi
  00039	5d		 pop	 rbp
  0003a	c3		 ret	 0
?acos@@YAMM@Z ENDP					; acos
_TEXT	ENDS
; Function compile flags: /Odtp /RTCsu /ZI
; File c:\program files (x86)\windows kits\10\include\10.0.10240.0\ucrt\math.h
;	COMDAT ?fpclassify@@YAHM@Z
_TEXT	SEGMENT
_X$ = 224
?fpclassify@@YAHM@Z PROC				; fpclassify, COMDAT

; 279  :     {

$LN3:
  00000	f3 0f 11 44 24
	08		 movss	 DWORD PTR [rsp+8], xmm0
  00006	55		 push	 rbp
  00007	57		 push	 rdi
  00008	48 81 ec e8 00
	00 00		 sub	 rsp, 232		; 000000e8H
  0000f	48 8d 6c 24 20	 lea	 rbp, QWORD PTR [rsp+32]
  00014	48 8b fc	 mov	 rdi, rsp
  00017	b9 3a 00 00 00	 mov	 ecx, 58			; 0000003aH
  0001c	b8 cc cc cc cc	 mov	 eax, -858993460		; ccccccccH
  00021	f3 ab		 rep stosd

; 280  :         return _fdtest(&_X);

  00023	48 8d 8d e0 00
	00 00		 lea	 rcx, QWORD PTR _X$[rbp]
  0002a	ff 15 00 00 00
	00		 call	 QWORD PTR __imp__fdtest
  00030	98		 cwde

; 281  :     }

  00031	48 8d a5 c8 00
	00 00		 lea	 rsp, QWORD PTR [rbp+200]
  00038	5f		 pop	 rdi
  00039	5d		 pop	 rbp
  0003a	c3		 ret	 0
?fpclassify@@YAHM@Z ENDP				; fpclassify
_TEXT	ENDS
; Function compile flags: /Odtp /RTCsu /ZI
; File c:\github\framework\client\private\enemy.cpp
;	COMDAT ?__empty_global_delete@@YAXPEAX_K@Z
_TEXT	SEGMENT
__formal$ = 224
__formal$ = 232
?__empty_global_delete@@YAXPEAX_K@Z PROC		; __empty_global_delete, COMDAT

$LN3:
  00000	48 89 54 24 10	 mov	 QWORD PTR [rsp+16], rdx
  00005	48 89 4c 24 08	 mov	 QWORD PTR [rsp+8], rcx
  0000a	55		 push	 rbp
  0000b	57		 push	 rdi
  0000c	48 81 ec c8 00
	00 00		 sub	 rsp, 200		; 000000c8H
  00013	48 8b ec	 mov	 rbp, rsp
  00016	48 8b fc	 mov	 rdi, rsp
  00019	b9 32 00 00 00	 mov	 ecx, 50			; 00000032H
  0001e	b8 cc cc cc cc	 mov	 eax, -858993460		; ccccccccH
  00023	f3 ab		 rep stosd
  00025	48 8b 8c 24 e8
	00 00 00	 mov	 rcx, QWORD PTR [rsp+232]
  0002d	48 8d a5 c8 00
	00 00		 lea	 rsp, QWORD PTR [rbp+200]
  00034	5f		 pop	 rdi
  00035	5d		 pop	 rbp
  00036	c3		 ret	 0
?__empty_global_delete@@YAXPEAX_K@Z ENDP		; __empty_global_delete
_TEXT	ENDS
; Function compile flags: /Odtp /RTCsu /ZI
; File c:\github\framework\client\private\enemy.cpp
;	COMDAT ?__empty_global_delete@@YAXPEAX@Z
_TEXT	SEGMENT
__formal$ = 224
?__empty_global_delete@@YAXPEAX@Z PROC			; __empty_global_delete, COMDAT

$LN3:
  00000	48 89 4c 24 08	 mov	 QWORD PTR [rsp+8], rcx
  00005	55		 push	 rbp
  00006	57		 push	 rdi
  00007	48 81 ec c8 00
	00 00		 sub	 rsp, 200		; 000000c8H
  0000e	48 8b ec	 mov	 rbp, rsp
  00011	48 8b fc	 mov	 rdi, rsp
  00014	b9 32 00 00 00	 mov	 ecx, 50			; 00000032H
  00019	b8 cc cc cc cc	 mov	 eax, -858993460		; ccccccccH
  0001e	f3 ab		 rep stosd
  00020	48 8b 8c 24 e8
	00 00 00	 mov	 rcx, QWORD PTR [rsp+232]
  00028	48 8d a5 c8 00
	00 00		 lea	 rsp, QWORD PTR [rbp+200]
  0002f	5f		 pop	 rdi
  00030	5d		 pop	 rbp
  00031	c3		 ret	 0
?__empty_global_delete@@YAXPEAX@Z ENDP			; __empty_global_delete
_TEXT	ENDS
; Function compile flags: /Odtp /RTCsu /ZI
;	COMDAT ??_H@YAXPEAX_K1P6APEAX0@Z@Z
_TEXT	SEGMENT
tv66 = 192
tv67 = 200
__t$ = 240
__s$ = 248
__n$ = 256
__f$ = 264
??_H@YAXPEAX_K1P6APEAX0@Z@Z PROC			; `vector constructor iterator', COMDAT
$LN7:
  00000	4c 89 4c 24 20	 mov	 QWORD PTR [rsp+32], r9
  00005	4c 89 44 24 18	 mov	 QWORD PTR [rsp+24], r8
  0000a	48 89 54 24 10	 mov	 QWORD PTR [rsp+16], rdx
  0000f	48 89 4c 24 08	 mov	 QWORD PTR [rsp+8], rcx
  00014	55		 push	 rbp
  00015	57		 push	 rdi
  00016	48 81 ec f8 00
	00 00		 sub	 rsp, 248		; 000000f8H
  0001d	48 8d 6c 24 20	 lea	 rbp, QWORD PTR [rsp+32]
  00022	48 8b fc	 mov	 rdi, rsp
  00025	b9 3e 00 00 00	 mov	 ecx, 62			; 0000003eH
  0002a	b8 cc cc cc cc	 mov	 eax, -858993460		; ccccccccH
  0002f	f3 ab		 rep stosd
  00031	48 8b 8c 24 18
	01 00 00	 mov	 rcx, QWORD PTR [rsp+280]
$LN2@vector:
  00039	48 8b 85 00 01
	00 00		 mov	 rax, QWORD PTR __n$[rbp]
  00040	48 89 85 c0 00
	00 00		 mov	 QWORD PTR tv66[rbp], rax
  00047	48 8b 85 00 01
	00 00		 mov	 rax, QWORD PTR __n$[rbp]
  0004e	48 ff c8	 dec	 rax
  00051	48 89 85 00 01
	00 00		 mov	 QWORD PTR __n$[rbp], rax
  00058	48 83 bd c0 00
	00 00 00	 cmp	 QWORD PTR tv66[rbp], 0
  00060	76 0c		 jbe	 SHORT $LN5@vector
  00062	c7 85 c8 00 00
	00 01 00 00 00	 mov	 DWORD PTR tv67[rbp], 1
  0006c	eb 0a		 jmp	 SHORT $LN6@vector
$LN5@vector:
  0006e	c7 85 c8 00 00
	00 00 00 00 00	 mov	 DWORD PTR tv67[rbp], 0
$LN6@vector:
  00078	83 bd c8 00 00
	00 00		 cmp	 DWORD PTR tv67[rbp], 0
  0007f	74 2a		 je	 SHORT $LN3@vector
  00081	48 8b 8d f0 00
	00 00		 mov	 rcx, QWORD PTR __t$[rbp]
  00088	ff 95 08 01 00
	00		 call	 QWORD PTR __f$[rbp]
  0008e	48 8b 85 f8 00
	00 00		 mov	 rax, QWORD PTR __s$[rbp]
  00095	48 8b 8d f0 00
	00 00		 mov	 rcx, QWORD PTR __t$[rbp]
  0009c	48 03 c8	 add	 rcx, rax
  0009f	48 8b c1	 mov	 rax, rcx
  000a2	48 89 85 f0 00
	00 00		 mov	 QWORD PTR __t$[rbp], rax
  000a9	eb 8e		 jmp	 SHORT $LN2@vector
$LN3@vector:
  000ab	48 8d a5 d8 00
	00 00		 lea	 rsp, QWORD PTR [rbp+216]
  000b2	5f		 pop	 rdi
  000b3	5d		 pop	 rbp
  000b4	c3		 ret	 0
??_H@YAXPEAX_K1P6APEAX0@Z@Z ENDP			; `vector constructor iterator'
_TEXT	ENDS
END
