; Listing generated by Microsoft (R) Optimizing Compiler Version 19.00.24245.0 

include listing.inc

INCLUDELIB MSVCRTD
INCLUDELIB OLDNAMES

PUBLIC	?AliceBlue@Colors@DirectX@@3UXMVECTORF32@2@B	; DirectX::Colors::AliceBlue
PUBLIC	?AntiqueWhite@Colors@DirectX@@3UXMVECTORF32@2@B	; DirectX::Colors::AntiqueWhite
PUBLIC	?Aqua@Colors@DirectX@@3UXMVECTORF32@2@B		; DirectX::Colors::Aqua
PUBLIC	?Aquamarine@Colors@DirectX@@3UXMVECTORF32@2@B	; DirectX::Colors::Aquamarine
PUBLIC	?Azure@Colors@DirectX@@3UXMVECTORF32@2@B	; DirectX::Colors::Azure
PUBLIC	?Beige@Colors@DirectX@@3UXMVECTORF32@2@B	; DirectX::Colors::Beige
PUBLIC	?Bisque@Colors@DirectX@@3UXMVECTORF32@2@B	; DirectX::Colors::Bisque
PUBLIC	?Black@Colors@DirectX@@3UXMVECTORF32@2@B	; DirectX::Colors::Black
PUBLIC	?BlanchedAlmond@Colors@DirectX@@3UXMVECTORF32@2@B ; DirectX::Colors::BlanchedAlmond
PUBLIC	?Blue@Colors@DirectX@@3UXMVECTORF32@2@B		; DirectX::Colors::Blue
PUBLIC	?BlueViolet@Colors@DirectX@@3UXMVECTORF32@2@B	; DirectX::Colors::BlueViolet
PUBLIC	?Brown@Colors@DirectX@@3UXMVECTORF32@2@B	; DirectX::Colors::Brown
PUBLIC	?BurlyWood@Colors@DirectX@@3UXMVECTORF32@2@B	; DirectX::Colors::BurlyWood
PUBLIC	?CadetBlue@Colors@DirectX@@3UXMVECTORF32@2@B	; DirectX::Colors::CadetBlue
PUBLIC	?Chartreuse@Colors@DirectX@@3UXMVECTORF32@2@B	; DirectX::Colors::Chartreuse
PUBLIC	?Chocolate@Colors@DirectX@@3UXMVECTORF32@2@B	; DirectX::Colors::Chocolate
PUBLIC	?Coral@Colors@DirectX@@3UXMVECTORF32@2@B	; DirectX::Colors::Coral
PUBLIC	?CornflowerBlue@Colors@DirectX@@3UXMVECTORF32@2@B ; DirectX::Colors::CornflowerBlue
PUBLIC	?Cornsilk@Colors@DirectX@@3UXMVECTORF32@2@B	; DirectX::Colors::Cornsilk
PUBLIC	?Crimson@Colors@DirectX@@3UXMVECTORF32@2@B	; DirectX::Colors::Crimson
PUBLIC	?Cyan@Colors@DirectX@@3UXMVECTORF32@2@B		; DirectX::Colors::Cyan
PUBLIC	?DarkBlue@Colors@DirectX@@3UXMVECTORF32@2@B	; DirectX::Colors::DarkBlue
PUBLIC	?DarkCyan@Colors@DirectX@@3UXMVECTORF32@2@B	; DirectX::Colors::DarkCyan
PUBLIC	?DarkGoldenrod@Colors@DirectX@@3UXMVECTORF32@2@B ; DirectX::Colors::DarkGoldenrod
PUBLIC	?DarkGray@Colors@DirectX@@3UXMVECTORF32@2@B	; DirectX::Colors::DarkGray
PUBLIC	?DarkGreen@Colors@DirectX@@3UXMVECTORF32@2@B	; DirectX::Colors::DarkGreen
PUBLIC	?DarkKhaki@Colors@DirectX@@3UXMVECTORF32@2@B	; DirectX::Colors::DarkKhaki
PUBLIC	?DarkMagenta@Colors@DirectX@@3UXMVECTORF32@2@B	; DirectX::Colors::DarkMagenta
PUBLIC	?DarkOliveGreen@Colors@DirectX@@3UXMVECTORF32@2@B ; DirectX::Colors::DarkOliveGreen
PUBLIC	?DarkOrange@Colors@DirectX@@3UXMVECTORF32@2@B	; DirectX::Colors::DarkOrange
PUBLIC	?DarkOrchid@Colors@DirectX@@3UXMVECTORF32@2@B	; DirectX::Colors::DarkOrchid
PUBLIC	?DarkRed@Colors@DirectX@@3UXMVECTORF32@2@B	; DirectX::Colors::DarkRed
PUBLIC	?DarkSalmon@Colors@DirectX@@3UXMVECTORF32@2@B	; DirectX::Colors::DarkSalmon
PUBLIC	?DarkSeaGreen@Colors@DirectX@@3UXMVECTORF32@2@B	; DirectX::Colors::DarkSeaGreen
PUBLIC	?DarkSlateBlue@Colors@DirectX@@3UXMVECTORF32@2@B ; DirectX::Colors::DarkSlateBlue
PUBLIC	?DarkSlateGray@Colors@DirectX@@3UXMVECTORF32@2@B ; DirectX::Colors::DarkSlateGray
PUBLIC	?DarkTurquoise@Colors@DirectX@@3UXMVECTORF32@2@B ; DirectX::Colors::DarkTurquoise
PUBLIC	?DarkViolet@Colors@DirectX@@3UXMVECTORF32@2@B	; DirectX::Colors::DarkViolet
PUBLIC	?DeepPink@Colors@DirectX@@3UXMVECTORF32@2@B	; DirectX::Colors::DeepPink
PUBLIC	?DeepSkyBlue@Colors@DirectX@@3UXMVECTORF32@2@B	; DirectX::Colors::DeepSkyBlue
PUBLIC	?DimGray@Colors@DirectX@@3UXMVECTORF32@2@B	; DirectX::Colors::DimGray
PUBLIC	?DodgerBlue@Colors@DirectX@@3UXMVECTORF32@2@B	; DirectX::Colors::DodgerBlue
PUBLIC	?Firebrick@Colors@DirectX@@3UXMVECTORF32@2@B	; DirectX::Colors::Firebrick
PUBLIC	?FloralWhite@Colors@DirectX@@3UXMVECTORF32@2@B	; DirectX::Colors::FloralWhite
PUBLIC	?ForestGreen@Colors@DirectX@@3UXMVECTORF32@2@B	; DirectX::Colors::ForestGreen
PUBLIC	?Fuchsia@Colors@DirectX@@3UXMVECTORF32@2@B	; DirectX::Colors::Fuchsia
PUBLIC	?Gainsboro@Colors@DirectX@@3UXMVECTORF32@2@B	; DirectX::Colors::Gainsboro
PUBLIC	?GhostWhite@Colors@DirectX@@3UXMVECTORF32@2@B	; DirectX::Colors::GhostWhite
PUBLIC	?Gold@Colors@DirectX@@3UXMVECTORF32@2@B		; DirectX::Colors::Gold
PUBLIC	?Goldenrod@Colors@DirectX@@3UXMVECTORF32@2@B	; DirectX::Colors::Goldenrod
PUBLIC	?Gray@Colors@DirectX@@3UXMVECTORF32@2@B		; DirectX::Colors::Gray
PUBLIC	?Green@Colors@DirectX@@3UXMVECTORF32@2@B	; DirectX::Colors::Green
PUBLIC	?GreenYellow@Colors@DirectX@@3UXMVECTORF32@2@B	; DirectX::Colors::GreenYellow
PUBLIC	?Honeydew@Colors@DirectX@@3UXMVECTORF32@2@B	; DirectX::Colors::Honeydew
PUBLIC	?HotPink@Colors@DirectX@@3UXMVECTORF32@2@B	; DirectX::Colors::HotPink
PUBLIC	?IndianRed@Colors@DirectX@@3UXMVECTORF32@2@B	; DirectX::Colors::IndianRed
PUBLIC	?Indigo@Colors@DirectX@@3UXMVECTORF32@2@B	; DirectX::Colors::Indigo
PUBLIC	?Ivory@Colors@DirectX@@3UXMVECTORF32@2@B	; DirectX::Colors::Ivory
PUBLIC	?Khaki@Colors@DirectX@@3UXMVECTORF32@2@B	; DirectX::Colors::Khaki
PUBLIC	?Lavender@Colors@DirectX@@3UXMVECTORF32@2@B	; DirectX::Colors::Lavender
PUBLIC	?LavenderBlush@Colors@DirectX@@3UXMVECTORF32@2@B ; DirectX::Colors::LavenderBlush
PUBLIC	?LawnGreen@Colors@DirectX@@3UXMVECTORF32@2@B	; DirectX::Colors::LawnGreen
PUBLIC	?LemonChiffon@Colors@DirectX@@3UXMVECTORF32@2@B	; DirectX::Colors::LemonChiffon
PUBLIC	?LightBlue@Colors@DirectX@@3UXMVECTORF32@2@B	; DirectX::Colors::LightBlue
PUBLIC	?LightCoral@Colors@DirectX@@3UXMVECTORF32@2@B	; DirectX::Colors::LightCoral
PUBLIC	?LightCyan@Colors@DirectX@@3UXMVECTORF32@2@B	; DirectX::Colors::LightCyan
PUBLIC	?LightGoldenrodYellow@Colors@DirectX@@3UXMVECTORF32@2@B ; DirectX::Colors::LightGoldenrodYellow
PUBLIC	?LightGreen@Colors@DirectX@@3UXMVECTORF32@2@B	; DirectX::Colors::LightGreen
PUBLIC	?LightGray@Colors@DirectX@@3UXMVECTORF32@2@B	; DirectX::Colors::LightGray
PUBLIC	?LightPink@Colors@DirectX@@3UXMVECTORF32@2@B	; DirectX::Colors::LightPink
PUBLIC	?LightSalmon@Colors@DirectX@@3UXMVECTORF32@2@B	; DirectX::Colors::LightSalmon
PUBLIC	?LightSeaGreen@Colors@DirectX@@3UXMVECTORF32@2@B ; DirectX::Colors::LightSeaGreen
PUBLIC	?LightSkyBlue@Colors@DirectX@@3UXMVECTORF32@2@B	; DirectX::Colors::LightSkyBlue
PUBLIC	?LightSlateGray@Colors@DirectX@@3UXMVECTORF32@2@B ; DirectX::Colors::LightSlateGray
PUBLIC	?LightSteelBlue@Colors@DirectX@@3UXMVECTORF32@2@B ; DirectX::Colors::LightSteelBlue
PUBLIC	?LightYellow@Colors@DirectX@@3UXMVECTORF32@2@B	; DirectX::Colors::LightYellow
PUBLIC	?Lime@Colors@DirectX@@3UXMVECTORF32@2@B		; DirectX::Colors::Lime
PUBLIC	?LimeGreen@Colors@DirectX@@3UXMVECTORF32@2@B	; DirectX::Colors::LimeGreen
PUBLIC	?Linen@Colors@DirectX@@3UXMVECTORF32@2@B	; DirectX::Colors::Linen
PUBLIC	?Magenta@Colors@DirectX@@3UXMVECTORF32@2@B	; DirectX::Colors::Magenta
PUBLIC	?Maroon@Colors@DirectX@@3UXMVECTORF32@2@B	; DirectX::Colors::Maroon
PUBLIC	?MediumAquamarine@Colors@DirectX@@3UXMVECTORF32@2@B ; DirectX::Colors::MediumAquamarine
PUBLIC	?MediumBlue@Colors@DirectX@@3UXMVECTORF32@2@B	; DirectX::Colors::MediumBlue
PUBLIC	?MediumOrchid@Colors@DirectX@@3UXMVECTORF32@2@B	; DirectX::Colors::MediumOrchid
PUBLIC	?MediumPurple@Colors@DirectX@@3UXMVECTORF32@2@B	; DirectX::Colors::MediumPurple
PUBLIC	?MediumSeaGreen@Colors@DirectX@@3UXMVECTORF32@2@B ; DirectX::Colors::MediumSeaGreen
PUBLIC	?MediumSlateBlue@Colors@DirectX@@3UXMVECTORF32@2@B ; DirectX::Colors::MediumSlateBlue
PUBLIC	?MediumSpringGreen@Colors@DirectX@@3UXMVECTORF32@2@B ; DirectX::Colors::MediumSpringGreen
PUBLIC	?MediumTurquoise@Colors@DirectX@@3UXMVECTORF32@2@B ; DirectX::Colors::MediumTurquoise
PUBLIC	?MediumVioletRed@Colors@DirectX@@3UXMVECTORF32@2@B ; DirectX::Colors::MediumVioletRed
PUBLIC	?MidnightBlue@Colors@DirectX@@3UXMVECTORF32@2@B	; DirectX::Colors::MidnightBlue
PUBLIC	?MintCream@Colors@DirectX@@3UXMVECTORF32@2@B	; DirectX::Colors::MintCream
PUBLIC	?MistyRose@Colors@DirectX@@3UXMVECTORF32@2@B	; DirectX::Colors::MistyRose
PUBLIC	?Moccasin@Colors@DirectX@@3UXMVECTORF32@2@B	; DirectX::Colors::Moccasin
PUBLIC	?NavajoWhite@Colors@DirectX@@3UXMVECTORF32@2@B	; DirectX::Colors::NavajoWhite
PUBLIC	?Navy@Colors@DirectX@@3UXMVECTORF32@2@B		; DirectX::Colors::Navy
PUBLIC	?OldLace@Colors@DirectX@@3UXMVECTORF32@2@B	; DirectX::Colors::OldLace
PUBLIC	?Olive@Colors@DirectX@@3UXMVECTORF32@2@B	; DirectX::Colors::Olive
PUBLIC	?OliveDrab@Colors@DirectX@@3UXMVECTORF32@2@B	; DirectX::Colors::OliveDrab
PUBLIC	?Orange@Colors@DirectX@@3UXMVECTORF32@2@B	; DirectX::Colors::Orange
PUBLIC	?OrangeRed@Colors@DirectX@@3UXMVECTORF32@2@B	; DirectX::Colors::OrangeRed
PUBLIC	?Orchid@Colors@DirectX@@3UXMVECTORF32@2@B	; DirectX::Colors::Orchid
PUBLIC	?PaleGoldenrod@Colors@DirectX@@3UXMVECTORF32@2@B ; DirectX::Colors::PaleGoldenrod
PUBLIC	?PaleGreen@Colors@DirectX@@3UXMVECTORF32@2@B	; DirectX::Colors::PaleGreen
PUBLIC	?PaleTurquoise@Colors@DirectX@@3UXMVECTORF32@2@B ; DirectX::Colors::PaleTurquoise
PUBLIC	?PaleVioletRed@Colors@DirectX@@3UXMVECTORF32@2@B ; DirectX::Colors::PaleVioletRed
PUBLIC	?PapayaWhip@Colors@DirectX@@3UXMVECTORF32@2@B	; DirectX::Colors::PapayaWhip
PUBLIC	?PeachPuff@Colors@DirectX@@3UXMVECTORF32@2@B	; DirectX::Colors::PeachPuff
PUBLIC	?Peru@Colors@DirectX@@3UXMVECTORF32@2@B		; DirectX::Colors::Peru
PUBLIC	?Pink@Colors@DirectX@@3UXMVECTORF32@2@B		; DirectX::Colors::Pink
PUBLIC	?Plum@Colors@DirectX@@3UXMVECTORF32@2@B		; DirectX::Colors::Plum
PUBLIC	?PowderBlue@Colors@DirectX@@3UXMVECTORF32@2@B	; DirectX::Colors::PowderBlue
PUBLIC	?Purple@Colors@DirectX@@3UXMVECTORF32@2@B	; DirectX::Colors::Purple
PUBLIC	?Red@Colors@DirectX@@3UXMVECTORF32@2@B		; DirectX::Colors::Red
PUBLIC	?RosyBrown@Colors@DirectX@@3UXMVECTORF32@2@B	; DirectX::Colors::RosyBrown
PUBLIC	?RoyalBlue@Colors@DirectX@@3UXMVECTORF32@2@B	; DirectX::Colors::RoyalBlue
PUBLIC	?SaddleBrown@Colors@DirectX@@3UXMVECTORF32@2@B	; DirectX::Colors::SaddleBrown
PUBLIC	?Salmon@Colors@DirectX@@3UXMVECTORF32@2@B	; DirectX::Colors::Salmon
PUBLIC	?SandyBrown@Colors@DirectX@@3UXMVECTORF32@2@B	; DirectX::Colors::SandyBrown
PUBLIC	?SeaGreen@Colors@DirectX@@3UXMVECTORF32@2@B	; DirectX::Colors::SeaGreen
PUBLIC	?SeaShell@Colors@DirectX@@3UXMVECTORF32@2@B	; DirectX::Colors::SeaShell
PUBLIC	?Sienna@Colors@DirectX@@3UXMVECTORF32@2@B	; DirectX::Colors::Sienna
PUBLIC	?g_BoxOffset@DirectX@@3QBUXMVECTORF32@1@B	; DirectX::g_BoxOffset
PUBLIC	?Silver@Colors@DirectX@@3UXMVECTORF32@2@B	; DirectX::Colors::Silver
PUBLIC	?g_RayEpsilon@DirectX@@3UXMVECTORF32@1@B	; DirectX::g_RayEpsilon
PUBLIC	?SkyBlue@Colors@DirectX@@3UXMVECTORF32@2@B	; DirectX::Colors::SkyBlue
PUBLIC	?g_RayNegEpsilon@DirectX@@3UXMVECTORF32@1@B	; DirectX::g_RayNegEpsilon
PUBLIC	?SlateBlue@Colors@DirectX@@3UXMVECTORF32@2@B	; DirectX::Colors::SlateBlue
PUBLIC	?g_FltMin@DirectX@@3UXMVECTORF32@1@B		; DirectX::g_FltMin
PUBLIC	?SlateGray@Colors@DirectX@@3UXMVECTORF32@2@B	; DirectX::Colors::SlateGray
PUBLIC	?g_FltMax@DirectX@@3UXMVECTORF32@1@B		; DirectX::g_FltMax
PUBLIC	?Snow@Colors@DirectX@@3UXMVECTORF32@2@B		; DirectX::Colors::Snow
PUBLIC	?SpringGreen@Colors@DirectX@@3UXMVECTORF32@2@B	; DirectX::Colors::SpringGreen
PUBLIC	?SteelBlue@Colors@DirectX@@3UXMVECTORF32@2@B	; DirectX::Colors::SteelBlue
PUBLIC	?Tan@Colors@DirectX@@3UXMVECTORF32@2@B		; DirectX::Colors::Tan
PUBLIC	?Teal@Colors@DirectX@@3UXMVECTORF32@2@B		; DirectX::Colors::Teal
PUBLIC	?Thistle@Colors@DirectX@@3UXMVECTORF32@2@B	; DirectX::Colors::Thistle
PUBLIC	?Tomato@Colors@DirectX@@3UXMVECTORF32@2@B	; DirectX::Colors::Tomato
PUBLIC	?Transparent@Colors@DirectX@@3UXMVECTORF32@2@B	; DirectX::Colors::Transparent
PUBLIC	?Turquoise@Colors@DirectX@@3UXMVECTORF32@2@B	; DirectX::Colors::Turquoise
PUBLIC	?Violet@Colors@DirectX@@3UXMVECTORF32@2@B	; DirectX::Colors::Violet
PUBLIC	?Wheat@Colors@DirectX@@3UXMVECTORF32@2@B	; DirectX::Colors::Wheat
PUBLIC	?White@Colors@DirectX@@3UXMVECTORF32@2@B	; DirectX::Colors::White
PUBLIC	?WhiteSmoke@Colors@DirectX@@3UXMVECTORF32@2@B	; DirectX::Colors::WhiteSmoke
PUBLIC	?Yellow@Colors@DirectX@@3UXMVECTORF32@2@B	; DirectX::Colors::Yellow
PUBLIC	?YellowGreen@Colors@DirectX@@3UXMVECTORF32@2@B	; DirectX::Colors::YellowGreen
PUBLIC	?g_UnitVectorEpsilon@Internal@DirectX@@3UXMVECTORF32@2@B ; DirectX::Internal::g_UnitVectorEpsilon
PUBLIC	?g_UnitQuaternionEpsilon@Internal@DirectX@@3UXMVECTORF32@2@B ; DirectX::Internal::g_UnitQuaternionEpsilon
PUBLIC	?g_UnitPlaneEpsilon@Internal@DirectX@@3UXMVECTORF32@2@B ; DirectX::Internal::g_UnitPlaneEpsilon
PUBLIC	?g_XMSinCoefficients0@DirectX@@3UXMVECTORF32@1@B ; DirectX::g_XMSinCoefficients0
PUBLIC	?g_XMSinCoefficients1@DirectX@@3UXMVECTORF32@1@B ; DirectX::g_XMSinCoefficients1
PUBLIC	?g_XMCosCoefficients0@DirectX@@3UXMVECTORF32@1@B ; DirectX::g_XMCosCoefficients0
PUBLIC	?g_XMCosCoefficients1@DirectX@@3UXMVECTORF32@1@B ; DirectX::g_XMCosCoefficients1
PUBLIC	?g_XMTanCoefficients0@DirectX@@3UXMVECTORF32@1@B ; DirectX::g_XMTanCoefficients0
PUBLIC	?g_XMTanCoefficients1@DirectX@@3UXMVECTORF32@1@B ; DirectX::g_XMTanCoefficients1
PUBLIC	?g_XMTanCoefficients2@DirectX@@3UXMVECTORF32@1@B ; DirectX::g_XMTanCoefficients2
PUBLIC	?g_XMArcCoefficients0@DirectX@@3UXMVECTORF32@1@B ; DirectX::g_XMArcCoefficients0
PUBLIC	?g_XMArcCoefficients1@DirectX@@3UXMVECTORF32@1@B ; DirectX::g_XMArcCoefficients1
PUBLIC	?g_XMATanCoefficients0@DirectX@@3UXMVECTORF32@1@B ; DirectX::g_XMATanCoefficients0
PUBLIC	?g_XMATanCoefficients1@DirectX@@3UXMVECTORF32@1@B ; DirectX::g_XMATanCoefficients1
PUBLIC	?g_XMATanEstCoefficients0@DirectX@@3UXMVECTORF32@1@B ; DirectX::g_XMATanEstCoefficients0
PUBLIC	?g_XMATanEstCoefficients1@DirectX@@3UXMVECTORF32@1@B ; DirectX::g_XMATanEstCoefficients1
PUBLIC	?g_XMTanEstCoefficients@DirectX@@3UXMVECTORF32@1@B ; DirectX::g_XMTanEstCoefficients
PUBLIC	?g_XMArcEstCoefficients@DirectX@@3UXMVECTORF32@1@B ; DirectX::g_XMArcEstCoefficients
PUBLIC	?g_XMPiConstants0@DirectX@@3UXMVECTORF32@1@B	; DirectX::g_XMPiConstants0
PUBLIC	?g_XMIdentityR0@DirectX@@3UXMVECTORF32@1@B	; DirectX::g_XMIdentityR0
PUBLIC	?g_XMIdentityR1@DirectX@@3UXMVECTORF32@1@B	; DirectX::g_XMIdentityR1
PUBLIC	?g_XMIdentityR2@DirectX@@3UXMVECTORF32@1@B	; DirectX::g_XMIdentityR2
PUBLIC	?g_XMIdentityR3@DirectX@@3UXMVECTORF32@1@B	; DirectX::g_XMIdentityR3
PUBLIC	?g_XMNegIdentityR0@DirectX@@3UXMVECTORF32@1@B	; DirectX::g_XMNegIdentityR0
PUBLIC	?g_XMNegIdentityR1@DirectX@@3UXMVECTORF32@1@B	; DirectX::g_XMNegIdentityR1
PUBLIC	?g_XMNegIdentityR2@DirectX@@3UXMVECTORF32@1@B	; DirectX::g_XMNegIdentityR2
PUBLIC	?g_XMNegIdentityR3@DirectX@@3UXMVECTORF32@1@B	; DirectX::g_XMNegIdentityR3
PUBLIC	?g_XMNegativeZero@DirectX@@3UXMVECTORU32@1@B	; DirectX::g_XMNegativeZero
PUBLIC	?g_XMNegate3@DirectX@@3UXMVECTORU32@1@B		; DirectX::g_XMNegate3
PUBLIC	?g_XMMask3@DirectX@@3UXMVECTORU32@1@B		; DirectX::g_XMMask3
PUBLIC	?g_XMMaskX@DirectX@@3UXMVECTORU32@1@B		; DirectX::g_XMMaskX
PUBLIC	?g_XMMaskY@DirectX@@3UXMVECTORU32@1@B		; DirectX::g_XMMaskY
PUBLIC	?g_XMMaskZ@DirectX@@3UXMVECTORU32@1@B		; DirectX::g_XMMaskZ
PUBLIC	?g_XMMaskW@DirectX@@3UXMVECTORU32@1@B		; DirectX::g_XMMaskW
PUBLIC	?g_XMOne@DirectX@@3UXMVECTORF32@1@B		; DirectX::g_XMOne
PUBLIC	?g_XMOne3@DirectX@@3UXMVECTORF32@1@B		; DirectX::g_XMOne3
PUBLIC	?g_XMZero@DirectX@@3UXMVECTORF32@1@B		; DirectX::g_XMZero
PUBLIC	?g_XMTwo@DirectX@@3UXMVECTORF32@1@B		; DirectX::g_XMTwo
PUBLIC	?g_XMFour@DirectX@@3UXMVECTORF32@1@B		; DirectX::g_XMFour
PUBLIC	?g_XMSix@DirectX@@3UXMVECTORF32@1@B		; DirectX::g_XMSix
PUBLIC	?g_XMNegativeOne@DirectX@@3UXMVECTORF32@1@B	; DirectX::g_XMNegativeOne
PUBLIC	?g_XMOneHalf@DirectX@@3UXMVECTORF32@1@B		; DirectX::g_XMOneHalf
PUBLIC	?g_XMNegativeOneHalf@DirectX@@3UXMVECTORF32@1@B	; DirectX::g_XMNegativeOneHalf
PUBLIC	?g_XMNegativeTwoPi@DirectX@@3UXMVECTORF32@1@B	; DirectX::g_XMNegativeTwoPi
PUBLIC	?g_XMNegativePi@DirectX@@3UXMVECTORF32@1@B	; DirectX::g_XMNegativePi
PUBLIC	?g_XMHalfPi@DirectX@@3UXMVECTORF32@1@B		; DirectX::g_XMHalfPi
PUBLIC	?g_XMPi@DirectX@@3UXMVECTORF32@1@B		; DirectX::g_XMPi
PUBLIC	?g_XMReciprocalPi@DirectX@@3UXMVECTORF32@1@B	; DirectX::g_XMReciprocalPi
PUBLIC	?g_XMTwoPi@DirectX@@3UXMVECTORF32@1@B		; DirectX::g_XMTwoPi
PUBLIC	?g_XMReciprocalTwoPi@DirectX@@3UXMVECTORF32@1@B	; DirectX::g_XMReciprocalTwoPi
PUBLIC	?g_XMEpsilon@DirectX@@3UXMVECTORF32@1@B		; DirectX::g_XMEpsilon
PUBLIC	?g_XMInfinity@DirectX@@3UXMVECTORI32@1@B	; DirectX::g_XMInfinity
PUBLIC	?g_XMQNaN@DirectX@@3UXMVECTORI32@1@B		; DirectX::g_XMQNaN
PUBLIC	?g_XMQNaNTest@DirectX@@3UXMVECTORI32@1@B	; DirectX::g_XMQNaNTest
PUBLIC	?g_XMAbsMask@DirectX@@3UXMVECTORI32@1@B		; DirectX::g_XMAbsMask
PUBLIC	?g_XMFltMin@DirectX@@3UXMVECTORI32@1@B		; DirectX::g_XMFltMin
PUBLIC	?g_XMFltMax@DirectX@@3UXMVECTORI32@1@B		; DirectX::g_XMFltMax
PUBLIC	?g_XMNegOneMask@DirectX@@3UXMVECTORU32@1@B	; DirectX::g_XMNegOneMask
PUBLIC	?g_XMMaskA8R8G8B8@DirectX@@3UXMVECTORU32@1@B	; DirectX::g_XMMaskA8R8G8B8
PUBLIC	?g_XMFlipA8R8G8B8@DirectX@@3UXMVECTORU32@1@B	; DirectX::g_XMFlipA8R8G8B8
PUBLIC	?g_XMFixAA8R8G8B8@DirectX@@3UXMVECTORF32@1@B	; DirectX::g_XMFixAA8R8G8B8
PUBLIC	?g_XMNormalizeA8R8G8B8@DirectX@@3UXMVECTORF32@1@B ; DirectX::g_XMNormalizeA8R8G8B8
PUBLIC	?g_XMMaskA2B10G10R10@DirectX@@3UXMVECTORU32@1@B	; DirectX::g_XMMaskA2B10G10R10
PUBLIC	?g_XMFlipA2B10G10R10@DirectX@@3UXMVECTORU32@1@B	; DirectX::g_XMFlipA2B10G10R10
PUBLIC	?g_XMFixAA2B10G10R10@DirectX@@3UXMVECTORF32@1@B	; DirectX::g_XMFixAA2B10G10R10
PUBLIC	?g_XMNormalizeA2B10G10R10@DirectX@@3UXMVECTORF32@1@B ; DirectX::g_XMNormalizeA2B10G10R10
PUBLIC	?g_XMMaskX16Y16@DirectX@@3UXMVECTORU32@1@B	; DirectX::g_XMMaskX16Y16
PUBLIC	?g_XMFlipX16Y16@DirectX@@3UXMVECTORI32@1@B	; DirectX::g_XMFlipX16Y16
PUBLIC	?g_XMFixX16Y16@DirectX@@3UXMVECTORF32@1@B	; DirectX::g_XMFixX16Y16
PUBLIC	?g_XMNormalizeX16Y16@DirectX@@3UXMVECTORF32@1@B	; DirectX::g_XMNormalizeX16Y16
PUBLIC	?g_XMMaskX16Y16Z16W16@DirectX@@3UXMVECTORU32@1@B ; DirectX::g_XMMaskX16Y16Z16W16
PUBLIC	?g_XMFlipX16Y16Z16W16@DirectX@@3UXMVECTORI32@1@B ; DirectX::g_XMFlipX16Y16Z16W16
PUBLIC	?g_XMFixX16Y16Z16W16@DirectX@@3UXMVECTORF32@1@B	; DirectX::g_XMFixX16Y16Z16W16
PUBLIC	?g_XMNormalizeX16Y16Z16W16@DirectX@@3UXMVECTORF32@1@B ; DirectX::g_XMNormalizeX16Y16Z16W16
PUBLIC	?g_XMNoFraction@DirectX@@3UXMVECTORF32@1@B	; DirectX::g_XMNoFraction
PUBLIC	?g_XMMaskByte@DirectX@@3UXMVECTORI32@1@B	; DirectX::g_XMMaskByte
PUBLIC	?g_XMNegateX@DirectX@@3UXMVECTORF32@1@B		; DirectX::g_XMNegateX
PUBLIC	?g_XMNegateY@DirectX@@3UXMVECTORF32@1@B		; DirectX::g_XMNegateY
PUBLIC	?g_XMNegateZ@DirectX@@3UXMVECTORF32@1@B		; DirectX::g_XMNegateZ
PUBLIC	?g_XMNegateW@DirectX@@3UXMVECTORF32@1@B		; DirectX::g_XMNegateW
PUBLIC	?g_XMSelect0101@DirectX@@3UXMVECTORU32@1@B	; DirectX::g_XMSelect0101
PUBLIC	?g_XMSelect1010@DirectX@@3UXMVECTORU32@1@B	; DirectX::g_XMSelect1010
PUBLIC	?g_XMOneHalfMinusEpsilon@DirectX@@3UXMVECTORI32@1@B ; DirectX::g_XMOneHalfMinusEpsilon
PUBLIC	?g_XMSelect1000@DirectX@@3UXMVECTORU32@1@B	; DirectX::g_XMSelect1000
PUBLIC	?g_XMSelect1100@DirectX@@3UXMVECTORU32@1@B	; DirectX::g_XMSelect1100
PUBLIC	?g_XMSelect1110@DirectX@@3UXMVECTORU32@1@B	; DirectX::g_XMSelect1110
PUBLIC	?g_XMSelect1011@DirectX@@3UXMVECTORU32@1@B	; DirectX::g_XMSelect1011
PUBLIC	?g_XMFixupY16@DirectX@@3UXMVECTORF32@1@B	; DirectX::g_XMFixupY16
PUBLIC	?g_XMFixupY16W16@DirectX@@3UXMVECTORF32@1@B	; DirectX::g_XMFixupY16W16
PUBLIC	?g_XMFlipY@DirectX@@3UXMVECTORU32@1@B		; DirectX::g_XMFlipY
PUBLIC	?g_XMFlipZ@DirectX@@3UXMVECTORU32@1@B		; DirectX::g_XMFlipZ
PUBLIC	?g_XMFlipW@DirectX@@3UXMVECTORU32@1@B		; DirectX::g_XMFlipW
PUBLIC	?g_XMFlipYZ@DirectX@@3UXMVECTORU32@1@B		; DirectX::g_XMFlipYZ
PUBLIC	?g_XMFlipZW@DirectX@@3UXMVECTORU32@1@B		; DirectX::g_XMFlipZW
PUBLIC	?g_XMFlipYW@DirectX@@3UXMVECTORU32@1@B		; DirectX::g_XMFlipYW
PUBLIC	?g_XMMaskDec4@DirectX@@3UXMVECTORI32@1@B	; DirectX::g_XMMaskDec4
PUBLIC	?g_XMXorDec4@DirectX@@3UXMVECTORI32@1@B		; DirectX::g_XMXorDec4
PUBLIC	?g_XMAddUDec4@DirectX@@3UXMVECTORF32@1@B	; DirectX::g_XMAddUDec4
PUBLIC	?g_XMAddDec4@DirectX@@3UXMVECTORF32@1@B		; DirectX::g_XMAddDec4
PUBLIC	?g_XMMulDec4@DirectX@@3UXMVECTORF32@1@B		; DirectX::g_XMMulDec4
PUBLIC	?g_XMMaskByte4@DirectX@@3UXMVECTORU32@1@B	; DirectX::g_XMMaskByte4
PUBLIC	?g_XMXorByte4@DirectX@@3UXMVECTORI32@1@B	; DirectX::g_XMXorByte4
PUBLIC	?g_XMAddByte4@DirectX@@3UXMVECTORF32@1@B	; DirectX::g_XMAddByte4
PUBLIC	?g_XMFixUnsigned@DirectX@@3UXMVECTORF32@1@B	; DirectX::g_XMFixUnsigned
PUBLIC	?g_XMMaxInt@DirectX@@3UXMVECTORF32@1@B		; DirectX::g_XMMaxInt
PUBLIC	?g_XMMaxUInt@DirectX@@3UXMVECTORF32@1@B		; DirectX::g_XMMaxUInt
PUBLIC	?g_XMUnsignedFix@DirectX@@3UXMVECTORF32@1@B	; DirectX::g_XMUnsignedFix
PUBLIC	?g_XMsrgbScale@DirectX@@3UXMVECTORF32@1@B	; DirectX::g_XMsrgbScale
PUBLIC	?g_XMsrgbA@DirectX@@3UXMVECTORF32@1@B		; DirectX::g_XMsrgbA
PUBLIC	?g_XMsrgbA1@DirectX@@3UXMVECTORF32@1@B		; DirectX::g_XMsrgbA1
PUBLIC	?g_XMExponentBias@DirectX@@3UXMVECTORI32@1@B	; DirectX::g_XMExponentBias
PUBLIC	?g_XMSubnormalExponent@DirectX@@3UXMVECTORI32@1@B ; DirectX::g_XMSubnormalExponent
PUBLIC	?g_XMNumTrailing@DirectX@@3UXMVECTORI32@1@B	; DirectX::g_XMNumTrailing
PUBLIC	?g_XMMinNormal@DirectX@@3UXMVECTORI32@1@B	; DirectX::g_XMMinNormal
PUBLIC	?g_XMNegInfinity@DirectX@@3UXMVECTORU32@1@B	; DirectX::g_XMNegInfinity
PUBLIC	?g_XMNegQNaN@DirectX@@3UXMVECTORU32@1@B		; DirectX::g_XMNegQNaN
PUBLIC	?g_XMBin128@DirectX@@3UXMVECTORI32@1@B		; DirectX::g_XMBin128
PUBLIC	?g_XMBinNeg150@DirectX@@3UXMVECTORU32@1@B	; DirectX::g_XMBinNeg150
PUBLIC	?g_XM253@DirectX@@3UXMVECTORI32@1@B		; DirectX::g_XM253
PUBLIC	?g_XMExpEst1@DirectX@@3UXMVECTORF32@1@B		; DirectX::g_XMExpEst1
PUBLIC	?g_XMExpEst2@DirectX@@3UXMVECTORF32@1@B		; DirectX::g_XMExpEst2
PUBLIC	?g_XMExpEst3@DirectX@@3UXMVECTORF32@1@B		; DirectX::g_XMExpEst3
PUBLIC	?g_XMExpEst4@DirectX@@3UXMVECTORF32@1@B		; DirectX::g_XMExpEst4
PUBLIC	?g_XMExpEst5@DirectX@@3UXMVECTORF32@1@B		; DirectX::g_XMExpEst5
PUBLIC	?g_XMExpEst6@DirectX@@3UXMVECTORF32@1@B		; DirectX::g_XMExpEst6
PUBLIC	?g_XMExpEst7@DirectX@@3UXMVECTORF32@1@B		; DirectX::g_XMExpEst7
PUBLIC	?g_XMLogEst0@DirectX@@3UXMVECTORF32@1@B		; DirectX::g_XMLogEst0
PUBLIC	?g_XMLogEst1@DirectX@@3UXMVECTORF32@1@B		; DirectX::g_XMLogEst1
PUBLIC	?g_XMLogEst2@DirectX@@3UXMVECTORF32@1@B		; DirectX::g_XMLogEst2
PUBLIC	?g_XMLogEst3@DirectX@@3UXMVECTORF32@1@B		; DirectX::g_XMLogEst3
PUBLIC	?g_XMLogEst4@DirectX@@3UXMVECTORF32@1@B		; DirectX::g_XMLogEst4
PUBLIC	?g_XMLogEst5@DirectX@@3UXMVECTORF32@1@B		; DirectX::g_XMLogEst5
PUBLIC	?g_XMLogEst6@DirectX@@3UXMVECTORF32@1@B		; DirectX::g_XMLogEst6
PUBLIC	?g_XMLogEst7@DirectX@@3UXMVECTORF32@1@B		; DirectX::g_XMLogEst7
PUBLIC	?g_XMLgE@DirectX@@3UXMVECTORF32@1@B		; DirectX::g_XMLgE
PUBLIC	?g_XMInvLgE@DirectX@@3UXMVECTORF32@1@B		; DirectX::g_XMInvLgE
;	COMDAT ?g_XMInvLgE@DirectX@@3UXMVECTORF32@1@B
CONST	SEGMENT
?g_XMInvLgE@DirectX@@3UXMVECTORF32@1@B DD 03f317218r ; 0.693147 ; DirectX::g_XMInvLgE
	DD	03f317218r			; 0.693147
	DD	03f317218r			; 0.693147
	DD	03f317218r			; 0.693147
CONST	ENDS
;	COMDAT ?g_XMLgE@DirectX@@3UXMVECTORF32@1@B
CONST	SEGMENT
?g_XMLgE@DirectX@@3UXMVECTORF32@1@B DD 03fb8aa3br ; 1.4427 ; DirectX::g_XMLgE
	DD	03fb8aa3br			; 1.4427
	DD	03fb8aa3br			; 1.4427
	DD	03fb8aa3br			; 1.4427
CONST	ENDS
;	COMDAT ?g_XMLogEst7@DirectX@@3UXMVECTORF32@1@B
CONST	SEGMENT
?g_XMLogEst7@DirectX@@3UXMVECTORF32@1@B DD 0bc2d4f59r ; -0.010578 ; DirectX::g_XMLogEst7
	DD	0bc2d4f59r			; -0.010578
	DD	0bc2d4f59r			; -0.010578
	DD	0bc2d4f59r			; -0.010578
CONST	ENDS
;	COMDAT ?g_XMLogEst6@DirectX@@3UXMVECTORF32@1@B
CONST	SEGMENT
?g_XMLogEst6@DirectX@@3UXMVECTORF32@1@B DD 03d6a1405r ; 0.057148 ; DirectX::g_XMLogEst6
	DD	03d6a1405r			; 0.057148
	DD	03d6a1405r			; 0.057148
	DD	03d6a1405r			; 0.057148
CONST	ENDS
;	COMDAT ?g_XMLogEst5@DirectX@@3UXMVECTORF32@1@B
CONST	SEGMENT
?g_XMLogEst5@DirectX@@3UXMVECTORF32@1@B DD 0be153261r ; -0.1457 ; DirectX::g_XMLogEst5
	DD	0be153261r			; -0.1457
	DD	0be153261r			; -0.1457
	DD	0be153261r			; -0.1457
CONST	ENDS
;	COMDAT ?g_XMLogEst4@DirectX@@3UXMVECTORF32@1@B
CONST	SEGMENT
?g_XMLogEst4@DirectX@@3UXMVECTORF32@1@B DD 03e7e8e61r ; 0.24859 ; DirectX::g_XMLogEst4
	DD	03e7e8e61r			; 0.24859
	DD	03e7e8e61r			; 0.24859
	DD	03e7e8e61r			; 0.24859
CONST	ENDS
;	COMDAT ?g_XMLogEst3@DirectX@@3UXMVECTORF32@1@B
CONST	SEGMENT
?g_XMLogEst3@DirectX@@3UXMVECTORF32@1@B DD 0beb359der ; -0.350295 ; DirectX::g_XMLogEst3
	DD	0beb359der			; -0.350295
	DD	0beb359der			; -0.350295
	DD	0beb359der			; -0.350295
CONST	ENDS
;	COMDAT ?g_XMLogEst2@DirectX@@3UXMVECTORF32@1@B
CONST	SEGMENT
?g_XMLogEst2@DirectX@@3UXMVECTORF32@1@B DD 03ef571d2r ; 0.479384 ; DirectX::g_XMLogEst2
	DD	03ef571d2r			; 0.479384
	DD	03ef571d2r			; 0.479384
	DD	03ef571d2r			; 0.479384
CONST	ENDS
;	COMDAT ?g_XMLogEst1@DirectX@@3UXMVECTORF32@1@B
CONST	SEGMENT
?g_XMLogEst1@DirectX@@3UXMVECTORF32@1@B DD 0bf38a351r ; -0.721242 ; DirectX::g_XMLogEst1
	DD	0bf38a351r			; -0.721242
	DD	0bf38a351r			; -0.721242
	DD	0bf38a351r			; -0.721242
CONST	ENDS
;	COMDAT ?g_XMLogEst0@DirectX@@3UXMVECTORF32@1@B
CONST	SEGMENT
?g_XMLogEst0@DirectX@@3UXMVECTORF32@1@B DD 03fb8aa2ar ; 1.44269 ; DirectX::g_XMLogEst0
	DD	03fb8aa2ar			; 1.44269
	DD	03fb8aa2ar			; 1.44269
	DD	03fb8aa2ar			; 1.44269
CONST	ENDS
;	COMDAT ?g_XMExpEst7@DirectX@@3UXMVECTORF32@1@B
CONST	SEGMENT
?g_XMExpEst7@DirectX@@3UXMVECTORF32@1@B DD 0b7364261r ; -1.08635e-05 ; DirectX::g_XMExpEst7
	DD	0b7364261r			; -1.08635e-05
	DD	0b7364261r			; -1.08635e-05
	DD	0b7364261r			; -1.08635e-05
CONST	ENDS
;	COMDAT ?g_XMExpEst6@DirectX@@3UXMVECTORF32@1@B
CONST	SEGMENT
?g_XMExpEst6@DirectX@@3UXMVECTORF32@1@B DD 0391aa7d7r ; 0.000147491 ; DirectX::g_XMExpEst6
	DD	0391aa7d7r			; 0.000147491
	DD	0391aa7d7r			; 0.000147491
	DD	0391aa7d7r			; 0.000147491
CONST	ENDS
;	COMDAT ?g_XMExpEst5@DirectX@@3UXMVECTORF32@1@B
CONST	SEGMENT
?g_XMExpEst5@DirectX@@3UXMVECTORF32@1@B DD 0baae1854r ; -0.00132824 ; DirectX::g_XMExpEst5
	DD	0baae1854r			; -0.00132824
	DD	0baae1854r			; -0.00132824
	DD	0baae1854r			; -0.00132824
CONST	ENDS
;	COMDAT ?g_XMExpEst4@DirectX@@3UXMVECTORF32@1@B
CONST	SEGMENT
?g_XMExpEst4@DirectX@@3UXMVECTORF32@1@B DD 03c1d8c54r ; 0.00961598 ; DirectX::g_XMExpEst4
	DD	03c1d8c54r			; 0.00961598
	DD	03c1d8c54r			; 0.00961598
	DD	03c1d8c54r			; 0.00961598
CONST	ENDS
;	COMDAT ?g_XMExpEst3@DirectX@@3UXMVECTORF32@1@B
CONST	SEGMENT
?g_XMExpEst3@DirectX@@3UXMVECTORF32@1@B DD 0bd6357car ; -0.0555036 ; DirectX::g_XMExpEst3
	DD	0bd6357car			; -0.0555036
	DD	0bd6357car			; -0.0555036
	DD	0bd6357car			; -0.0555036
CONST	ENDS
;	COMDAT ?g_XMExpEst2@DirectX@@3UXMVECTORF32@1@B
CONST	SEGMENT
?g_XMExpEst2@DirectX@@3UXMVECTORF32@1@B DD 03e75fdedr ; 0.240226 ; DirectX::g_XMExpEst2
	DD	03e75fdedr			; 0.240226
	DD	03e75fdedr			; 0.240226
	DD	03e75fdedr			; 0.240226
CONST	ENDS
;	COMDAT ?g_XMExpEst1@DirectX@@3UXMVECTORF32@1@B
CONST	SEGMENT
?g_XMExpEst1@DirectX@@3UXMVECTORF32@1@B DD 0bf317218r ; -0.693147 ; DirectX::g_XMExpEst1
	DD	0bf317218r			; -0.693147
	DD	0bf317218r			; -0.693147
	DD	0bf317218r			; -0.693147
CONST	ENDS
;	COMDAT ?g_XM253@DirectX@@3UXMVECTORI32@1@B
CONST	SEGMENT
?g_XM253@DirectX@@3UXMVECTORI32@1@B DD 0fdH		; DirectX::g_XM253
	DD	0fdH
	DD	0fdH
	DD	0fdH
CONST	ENDS
;	COMDAT ?g_XMBinNeg150@DirectX@@3UXMVECTORU32@1@B
CONST	SEGMENT
?g_XMBinNeg150@DirectX@@3UXMVECTORU32@1@B DD 0c3160000H	; DirectX::g_XMBinNeg150
	DD	0c3160000H
	DD	0c3160000H
	DD	0c3160000H
CONST	ENDS
;	COMDAT ?g_XMBin128@DirectX@@3UXMVECTORI32@1@B
CONST	SEGMENT
?g_XMBin128@DirectX@@3UXMVECTORI32@1@B DD 043000000H	; DirectX::g_XMBin128
	DD	043000000H
	DD	043000000H
	DD	043000000H
CONST	ENDS
;	COMDAT ?g_XMNegQNaN@DirectX@@3UXMVECTORU32@1@B
CONST	SEGMENT
?g_XMNegQNaN@DirectX@@3UXMVECTORU32@1@B DD 0ffc00000H	; DirectX::g_XMNegQNaN
	DD	0ffc00000H
	DD	0ffc00000H
	DD	0ffc00000H
CONST	ENDS
;	COMDAT ?g_XMNegInfinity@DirectX@@3UXMVECTORU32@1@B
CONST	SEGMENT
?g_XMNegInfinity@DirectX@@3UXMVECTORU32@1@B DD 0ff800000H ; DirectX::g_XMNegInfinity
	DD	0ff800000H
	DD	0ff800000H
	DD	0ff800000H
CONST	ENDS
;	COMDAT ?g_XMMinNormal@DirectX@@3UXMVECTORI32@1@B
CONST	SEGMENT
?g_XMMinNormal@DirectX@@3UXMVECTORI32@1@B DD 0800000H	; DirectX::g_XMMinNormal
	DD	0800000H
	DD	0800000H
	DD	0800000H
CONST	ENDS
;	COMDAT ?g_XMNumTrailing@DirectX@@3UXMVECTORI32@1@B
CONST	SEGMENT
?g_XMNumTrailing@DirectX@@3UXMVECTORI32@1@B DD 017H	; DirectX::g_XMNumTrailing
	DD	017H
	DD	017H
	DD	017H
CONST	ENDS
;	COMDAT ?g_XMSubnormalExponent@DirectX@@3UXMVECTORI32@1@B
CONST	SEGMENT
?g_XMSubnormalExponent@DirectX@@3UXMVECTORI32@1@B DD 0ffffff82H ; DirectX::g_XMSubnormalExponent
	DD	0ffffff82H
	DD	0ffffff82H
	DD	0ffffff82H
CONST	ENDS
;	COMDAT ?g_XMExponentBias@DirectX@@3UXMVECTORI32@1@B
CONST	SEGMENT
?g_XMExponentBias@DirectX@@3UXMVECTORI32@1@B DD 07fH	; DirectX::g_XMExponentBias
	DD	07fH
	DD	07fH
	DD	07fH
CONST	ENDS
;	COMDAT ?g_XMsrgbA1@DirectX@@3UXMVECTORF32@1@B
CONST	SEGMENT
?g_XMsrgbA1@DirectX@@3UXMVECTORF32@1@B DD 03f870a3dr ; 1.055 ; DirectX::g_XMsrgbA1
	DD	03f870a3dr			; 1.055
	DD	03f870a3dr			; 1.055
	DD	03f800000r			; 1
CONST	ENDS
;	COMDAT ?g_XMsrgbA@DirectX@@3UXMVECTORF32@1@B
CONST	SEGMENT
?g_XMsrgbA@DirectX@@3UXMVECTORF32@1@B DD 03d6147aer ; 0.055 ; DirectX::g_XMsrgbA
	DD	03d6147aer			; 0.055
	DD	03d6147aer			; 0.055
	DD	000000000r			; 0
CONST	ENDS
;	COMDAT ?g_XMsrgbScale@DirectX@@3UXMVECTORF32@1@B
CONST	SEGMENT
?g_XMsrgbScale@DirectX@@3UXMVECTORF32@1@B DD 0414eb852r ; 12.92 ; DirectX::g_XMsrgbScale
	DD	0414eb852r			; 12.92
	DD	0414eb852r			; 12.92
	DD	03f800000r			; 1
CONST	ENDS
;	COMDAT ?g_XMUnsignedFix@DirectX@@3UXMVECTORF32@1@B
CONST	SEGMENT
?g_XMUnsignedFix@DirectX@@3UXMVECTORF32@1@B DD 04f000000r ; 2.14748e+09 ; DirectX::g_XMUnsignedFix
	DD	04f000000r			; 2.14748e+09
	DD	04f000000r			; 2.14748e+09
	DD	04f000000r			; 2.14748e+09
CONST	ENDS
;	COMDAT ?g_XMMaxUInt@DirectX@@3UXMVECTORF32@1@B
CONST	SEGMENT
?g_XMMaxUInt@DirectX@@3UXMVECTORF32@1@B DD 04f7fffffr ; 4.29497e+09 ; DirectX::g_XMMaxUInt
	DD	04f7fffffr			; 4.29497e+09
	DD	04f7fffffr			; 4.29497e+09
	DD	04f7fffffr			; 4.29497e+09
CONST	ENDS
;	COMDAT ?g_XMMaxInt@DirectX@@3UXMVECTORF32@1@B
CONST	SEGMENT
?g_XMMaxInt@DirectX@@3UXMVECTORF32@1@B DD 04effffffr ; 2.14748e+09 ; DirectX::g_XMMaxInt
	DD	04effffffr			; 2.14748e+09
	DD	04effffffr			; 2.14748e+09
	DD	04effffffr			; 2.14748e+09
CONST	ENDS
;	COMDAT ?g_XMFixUnsigned@DirectX@@3UXMVECTORF32@1@B
CONST	SEGMENT
?g_XMFixUnsigned@DirectX@@3UXMVECTORF32@1@B DD 04f000000r ; 2.14748e+09 ; DirectX::g_XMFixUnsigned
	DD	04f000000r			; 2.14748e+09
	DD	04f000000r			; 2.14748e+09
	DD	04f000000r			; 2.14748e+09
CONST	ENDS
;	COMDAT ?g_XMAddByte4@DirectX@@3UXMVECTORF32@1@B
CONST	SEGMENT
?g_XMAddByte4@DirectX@@3UXMVECTORF32@1@B DD 0c3000000r ; -128 ; DirectX::g_XMAddByte4
	DD	0c7000000r			; -32768
	DD	0cb000000r			; -8.38861e+06
	DD	000000000r			; 0
CONST	ENDS
;	COMDAT ?g_XMXorByte4@DirectX@@3UXMVECTORI32@1@B
CONST	SEGMENT
?g_XMXorByte4@DirectX@@3UXMVECTORI32@1@B DD 080H	; DirectX::g_XMXorByte4
	DD	08000H
	DD	0800000H
	DD	00H
CONST	ENDS
;	COMDAT ?g_XMMaskByte4@DirectX@@3UXMVECTORU32@1@B
CONST	SEGMENT
?g_XMMaskByte4@DirectX@@3UXMVECTORU32@1@B DD 0ffH	; DirectX::g_XMMaskByte4
	DD	0ff00H
	DD	0ff0000H
	DD	0ff000000H
CONST	ENDS
;	COMDAT ?g_XMMulDec4@DirectX@@3UXMVECTORF32@1@B
CONST	SEGMENT
?g_XMMulDec4@DirectX@@3UXMVECTORF32@1@B DD 03f800000r ; 1 ; DirectX::g_XMMulDec4
	DD	03a800000r			; 0.000976563
	DD	035800000r			; 9.53674e-07
	DD	030800000r			; 9.31323e-10
CONST	ENDS
;	COMDAT ?g_XMAddDec4@DirectX@@3UXMVECTORF32@1@B
CONST	SEGMENT
?g_XMAddDec4@DirectX@@3UXMVECTORF32@1@B DD 0c4000000r ; -512 ; DirectX::g_XMAddDec4
	DD	0c9000000r			; -524288
	DD	0ce000000r			; -5.36871e+08
	DD	000000000r			; 0
CONST	ENDS
;	COMDAT ?g_XMAddUDec4@DirectX@@3UXMVECTORF32@1@B
CONST	SEGMENT
?g_XMAddUDec4@DirectX@@3UXMVECTORF32@1@B DD 000000000r ; 0 ; DirectX::g_XMAddUDec4
	DD	000000000r			; 0
	DD	000000000r			; 0
	DD	04f000000r			; 2.14748e+09
CONST	ENDS
;	COMDAT ?g_XMXorDec4@DirectX@@3UXMVECTORI32@1@B
CONST	SEGMENT
?g_XMXorDec4@DirectX@@3UXMVECTORI32@1@B DD 0200H	; DirectX::g_XMXorDec4
	DD	080000H
	DD	020000000H
	DD	00H
CONST	ENDS
;	COMDAT ?g_XMMaskDec4@DirectX@@3UXMVECTORI32@1@B
CONST	SEGMENT
?g_XMMaskDec4@DirectX@@3UXMVECTORI32@1@B DD 03ffH	; DirectX::g_XMMaskDec4
	DD	0ffc00H
	DD	03ff00000H
	DD	0c0000000H
CONST	ENDS
;	COMDAT ?g_XMFlipYW@DirectX@@3UXMVECTORU32@1@B
CONST	SEGMENT
?g_XMFlipYW@DirectX@@3UXMVECTORU32@1@B DD 00H		; DirectX::g_XMFlipYW
	DD	080000000H
	DD	00H
	DD	080000000H
CONST	ENDS
;	COMDAT ?g_XMFlipZW@DirectX@@3UXMVECTORU32@1@B
CONST	SEGMENT
?g_XMFlipZW@DirectX@@3UXMVECTORU32@1@B DD 00H		; DirectX::g_XMFlipZW
	DD	00H
	DD	080000000H
	DD	080000000H
CONST	ENDS
;	COMDAT ?g_XMFlipYZ@DirectX@@3UXMVECTORU32@1@B
CONST	SEGMENT
?g_XMFlipYZ@DirectX@@3UXMVECTORU32@1@B DD 00H		; DirectX::g_XMFlipYZ
	DD	080000000H
	DD	080000000H
	DD	00H
CONST	ENDS
;	COMDAT ?g_XMFlipW@DirectX@@3UXMVECTORU32@1@B
CONST	SEGMENT
?g_XMFlipW@DirectX@@3UXMVECTORU32@1@B DD 00H		; DirectX::g_XMFlipW
	DD	00H
	DD	00H
	DD	080000000H
CONST	ENDS
;	COMDAT ?g_XMFlipZ@DirectX@@3UXMVECTORU32@1@B
CONST	SEGMENT
?g_XMFlipZ@DirectX@@3UXMVECTORU32@1@B DD 00H		; DirectX::g_XMFlipZ
	DD	00H
	DD	080000000H
	DD	00H
CONST	ENDS
;	COMDAT ?g_XMFlipY@DirectX@@3UXMVECTORU32@1@B
CONST	SEGMENT
?g_XMFlipY@DirectX@@3UXMVECTORU32@1@B DD 00H		; DirectX::g_XMFlipY
	DD	080000000H
	DD	00H
	DD	00H
CONST	ENDS
;	COMDAT ?g_XMFixupY16W16@DirectX@@3UXMVECTORF32@1@B
CONST	SEGMENT
?g_XMFixupY16W16@DirectX@@3UXMVECTORF32@1@B DD 03f800000r ; 1 ; DirectX::g_XMFixupY16W16
	DD	03f800000r			; 1
	DD	037800000r			; 1.52588e-05
	DD	037800000r			; 1.52588e-05
CONST	ENDS
;	COMDAT ?g_XMFixupY16@DirectX@@3UXMVECTORF32@1@B
CONST	SEGMENT
?g_XMFixupY16@DirectX@@3UXMVECTORF32@1@B DD 03f800000r ; 1 ; DirectX::g_XMFixupY16
	DD	037800000r			; 1.52588e-05
	DD	000000000r			; 0
	DD	000000000r			; 0
CONST	ENDS
;	COMDAT ?g_XMSelect1011@DirectX@@3UXMVECTORU32@1@B
CONST	SEGMENT
?g_XMSelect1011@DirectX@@3UXMVECTORU32@1@B DD 0ffffffffH ; DirectX::g_XMSelect1011
	DD	00H
	DD	0ffffffffH
	DD	0ffffffffH
CONST	ENDS
;	COMDAT ?g_XMSelect1110@DirectX@@3UXMVECTORU32@1@B
CONST	SEGMENT
?g_XMSelect1110@DirectX@@3UXMVECTORU32@1@B DD 0ffffffffH ; DirectX::g_XMSelect1110
	DD	0ffffffffH
	DD	0ffffffffH
	DD	00H
CONST	ENDS
;	COMDAT ?g_XMSelect1100@DirectX@@3UXMVECTORU32@1@B
CONST	SEGMENT
?g_XMSelect1100@DirectX@@3UXMVECTORU32@1@B DD 0ffffffffH ; DirectX::g_XMSelect1100
	DD	0ffffffffH
	DD	00H
	DD	00H
CONST	ENDS
;	COMDAT ?g_XMSelect1000@DirectX@@3UXMVECTORU32@1@B
CONST	SEGMENT
?g_XMSelect1000@DirectX@@3UXMVECTORU32@1@B DD 0ffffffffH ; DirectX::g_XMSelect1000
	DD	00H
	DD	00H
	DD	00H
CONST	ENDS
;	COMDAT ?g_XMOneHalfMinusEpsilon@DirectX@@3UXMVECTORI32@1@B
CONST	SEGMENT
?g_XMOneHalfMinusEpsilon@DirectX@@3UXMVECTORI32@1@B DD 03efffffdH ; DirectX::g_XMOneHalfMinusEpsilon
	DD	03efffffdH
	DD	03efffffdH
	DD	03efffffdH
CONST	ENDS
;	COMDAT ?g_XMSelect1010@DirectX@@3UXMVECTORU32@1@B
CONST	SEGMENT
?g_XMSelect1010@DirectX@@3UXMVECTORU32@1@B DD 0ffffffffH ; DirectX::g_XMSelect1010
	DD	00H
	DD	0ffffffffH
	DD	00H
CONST	ENDS
;	COMDAT ?g_XMSelect0101@DirectX@@3UXMVECTORU32@1@B
CONST	SEGMENT
?g_XMSelect0101@DirectX@@3UXMVECTORU32@1@B DD 00H	; DirectX::g_XMSelect0101
	DD	0ffffffffH
	DD	00H
	DD	0ffffffffH
CONST	ENDS
;	COMDAT ?g_XMNegateW@DirectX@@3UXMVECTORF32@1@B
CONST	SEGMENT
?g_XMNegateW@DirectX@@3UXMVECTORF32@1@B DD 03f800000r ; 1 ; DirectX::g_XMNegateW
	DD	03f800000r			; 1
	DD	03f800000r			; 1
	DD	0bf800000r			; -1
CONST	ENDS
;	COMDAT ?g_XMNegateZ@DirectX@@3UXMVECTORF32@1@B
CONST	SEGMENT
?g_XMNegateZ@DirectX@@3UXMVECTORF32@1@B DD 03f800000r ; 1 ; DirectX::g_XMNegateZ
	DD	03f800000r			; 1
	DD	0bf800000r			; -1
	DD	03f800000r			; 1
CONST	ENDS
;	COMDAT ?g_XMNegateY@DirectX@@3UXMVECTORF32@1@B
CONST	SEGMENT
?g_XMNegateY@DirectX@@3UXMVECTORF32@1@B DD 03f800000r ; 1 ; DirectX::g_XMNegateY
	DD	0bf800000r			; -1
	DD	03f800000r			; 1
	DD	03f800000r			; 1
CONST	ENDS
;	COMDAT ?g_XMNegateX@DirectX@@3UXMVECTORF32@1@B
CONST	SEGMENT
?g_XMNegateX@DirectX@@3UXMVECTORF32@1@B DD 0bf800000r ; -1 ; DirectX::g_XMNegateX
	DD	03f800000r			; 1
	DD	03f800000r			; 1
	DD	03f800000r			; 1
CONST	ENDS
;	COMDAT ?g_XMMaskByte@DirectX@@3UXMVECTORI32@1@B
CONST	SEGMENT
?g_XMMaskByte@DirectX@@3UXMVECTORI32@1@B DD 0ffH	; DirectX::g_XMMaskByte
	DD	0ffH
	DD	0ffH
	DD	0ffH
CONST	ENDS
;	COMDAT ?g_XMNoFraction@DirectX@@3UXMVECTORF32@1@B
CONST	SEGMENT
?g_XMNoFraction@DirectX@@3UXMVECTORF32@1@B DD 04b000000r ; 8.38861e+06 ; DirectX::g_XMNoFraction
	DD	04b000000r			; 8.38861e+06
	DD	04b000000r			; 8.38861e+06
	DD	04b000000r			; 8.38861e+06
CONST	ENDS
;	COMDAT ?g_XMNormalizeX16Y16Z16W16@DirectX@@3UXMVECTORF32@1@B
CONST	SEGMENT
?g_XMNormalizeX16Y16Z16W16@DirectX@@3UXMVECTORF32@1@B DD 038000100r ; 3.05185e-05 ; DirectX::g_XMNormalizeX16Y16Z16W16
	DD	038000100r			; 3.05185e-05
	DD	030000100r			; 4.65675e-10
	DD	030000100r			; 4.65675e-10
CONST	ENDS
;	COMDAT ?g_XMFixX16Y16Z16W16@DirectX@@3UXMVECTORF32@1@B
CONST	SEGMENT
?g_XMFixX16Y16Z16W16@DirectX@@3UXMVECTORF32@1@B DD 0c7000000r ; -32768 ; DirectX::g_XMFixX16Y16Z16W16
	DD	0c7000000r			; -32768
	DD	000000000r			; 0
	DD	000000000r			; 0
CONST	ENDS
;	COMDAT ?g_XMFlipX16Y16Z16W16@DirectX@@3UXMVECTORI32@1@B
CONST	SEGMENT
?g_XMFlipX16Y16Z16W16@DirectX@@3UXMVECTORI32@1@B DD 08000H ; DirectX::g_XMFlipX16Y16Z16W16
	DD	08000H
	DD	00H
	DD	00H
CONST	ENDS
;	COMDAT ?g_XMMaskX16Y16Z16W16@DirectX@@3UXMVECTORU32@1@B
CONST	SEGMENT
?g_XMMaskX16Y16Z16W16@DirectX@@3UXMVECTORU32@1@B DD 0ffffH ; DirectX::g_XMMaskX16Y16Z16W16
	DD	0ffffH
	DD	0ffff0000H
	DD	0ffff0000H
CONST	ENDS
;	COMDAT ?g_XMNormalizeX16Y16@DirectX@@3UXMVECTORF32@1@B
CONST	SEGMENT
?g_XMNormalizeX16Y16@DirectX@@3UXMVECTORF32@1@B DD 038000100r ; 3.05185e-05 ; DirectX::g_XMNormalizeX16Y16
	DD	030000100r			; 4.65675e-10
	DD	000000000r			; 0
	DD	000000000r			; 0
CONST	ENDS
;	COMDAT ?g_XMFixX16Y16@DirectX@@3UXMVECTORF32@1@B
CONST	SEGMENT
?g_XMFixX16Y16@DirectX@@3UXMVECTORF32@1@B DD 0c7000000r ; -32768 ; DirectX::g_XMFixX16Y16
	DD	000000000r			; 0
	DD	000000000r			; 0
	DD	000000000r			; 0
CONST	ENDS
;	COMDAT ?g_XMFlipX16Y16@DirectX@@3UXMVECTORI32@1@B
CONST	SEGMENT
?g_XMFlipX16Y16@DirectX@@3UXMVECTORI32@1@B DD 08000H	; DirectX::g_XMFlipX16Y16
	DD	00H
	DD	00H
	DD	00H
CONST	ENDS
;	COMDAT ?g_XMMaskX16Y16@DirectX@@3UXMVECTORU32@1@B
CONST	SEGMENT
?g_XMMaskX16Y16@DirectX@@3UXMVECTORU32@1@B DD 0ffffH	; DirectX::g_XMMaskX16Y16
	DD	0ffff0000H
	DD	00H
	DD	00H
CONST	ENDS
;	COMDAT ?g_XMNormalizeA2B10G10R10@DirectX@@3UXMVECTORF32@1@B
CONST	SEGMENT
?g_XMNormalizeA2B10G10R10@DirectX@@3UXMVECTORF32@1@B DD 03b004020r ; 0.00195695 ; DirectX::g_XMNormalizeA2B10G10R10
	DD	036004020r			; 1.91108e-06
	DD	031004020r			; 1.86629e-09
	DD	02faaaaabr			; 3.10441e-10
CONST	ENDS
;	COMDAT ?g_XMFixAA2B10G10R10@DirectX@@3UXMVECTORF32@1@B
CONST	SEGMENT
?g_XMFixAA2B10G10R10@DirectX@@3UXMVECTORF32@1@B DD 0c4000000r ; -512 ; DirectX::g_XMFixAA2B10G10R10
	DD	0c9000000r			; -524288
	DD	0ce000000r			; -5.36871e+08
	DD	04f000000r			; 2.14748e+09
CONST	ENDS
;	COMDAT ?g_XMFlipA2B10G10R10@DirectX@@3UXMVECTORU32@1@B
CONST	SEGMENT
?g_XMFlipA2B10G10R10@DirectX@@3UXMVECTORU32@1@B DD 0200H ; DirectX::g_XMFlipA2B10G10R10
	DD	080000H
	DD	020000000H
	DD	080000000H
CONST	ENDS
;	COMDAT ?g_XMMaskA2B10G10R10@DirectX@@3UXMVECTORU32@1@B
CONST	SEGMENT
?g_XMMaskA2B10G10R10@DirectX@@3UXMVECTORU32@1@B DD 03ffH ; DirectX::g_XMMaskA2B10G10R10
	DD	0ffc00H
	DD	03ff00000H
	DD	0c0000000H
CONST	ENDS
;	COMDAT ?g_XMNormalizeA8R8G8B8@DirectX@@3UXMVECTORF32@1@B
CONST	SEGMENT
?g_XMNormalizeA8R8G8B8@DirectX@@3UXMVECTORF32@1@B DD 033808081r ; 5.98384e-08 ; DirectX::g_XMNormalizeA8R8G8B8
	DD	037808081r			; 1.53186e-05
	DD	03b808081r			; 0.00392157
	DD	02f808081r			; 2.33744e-10
CONST	ENDS
;	COMDAT ?g_XMFixAA8R8G8B8@DirectX@@3UXMVECTORF32@1@B
CONST	SEGMENT
?g_XMFixAA8R8G8B8@DirectX@@3UXMVECTORF32@1@B DD 000000000r ; 0 ; DirectX::g_XMFixAA8R8G8B8
	DD	000000000r			; 0
	DD	000000000r			; 0
	DD	04f000000r			; 2.14748e+09
CONST	ENDS
;	COMDAT ?g_XMFlipA8R8G8B8@DirectX@@3UXMVECTORU32@1@B
CONST	SEGMENT
?g_XMFlipA8R8G8B8@DirectX@@3UXMVECTORU32@1@B DD 00H	; DirectX::g_XMFlipA8R8G8B8
	DD	00H
	DD	00H
	DD	080000000H
CONST	ENDS
;	COMDAT ?g_XMMaskA8R8G8B8@DirectX@@3UXMVECTORU32@1@B
CONST	SEGMENT
?g_XMMaskA8R8G8B8@DirectX@@3UXMVECTORU32@1@B DD 0ff0000H ; DirectX::g_XMMaskA8R8G8B8
	DD	0ff00H
	DD	0ffH
	DD	0ff000000H
CONST	ENDS
;	COMDAT ?g_XMNegOneMask@DirectX@@3UXMVECTORU32@1@B
CONST	SEGMENT
?g_XMNegOneMask@DirectX@@3UXMVECTORU32@1@B DD 0ffffffffH ; DirectX::g_XMNegOneMask
	DD	0ffffffffH
	DD	0ffffffffH
	DD	0ffffffffH
CONST	ENDS
;	COMDAT ?g_XMFltMax@DirectX@@3UXMVECTORI32@1@B
CONST	SEGMENT
?g_XMFltMax@DirectX@@3UXMVECTORI32@1@B DD 07f7fffffH	; DirectX::g_XMFltMax
	DD	07f7fffffH
	DD	07f7fffffH
	DD	07f7fffffH
CONST	ENDS
;	COMDAT ?g_XMFltMin@DirectX@@3UXMVECTORI32@1@B
CONST	SEGMENT
?g_XMFltMin@DirectX@@3UXMVECTORI32@1@B DD 0800000H	; DirectX::g_XMFltMin
	DD	0800000H
	DD	0800000H
	DD	0800000H
CONST	ENDS
;	COMDAT ?g_XMAbsMask@DirectX@@3UXMVECTORI32@1@B
CONST	SEGMENT
?g_XMAbsMask@DirectX@@3UXMVECTORI32@1@B DD 07fffffffH	; DirectX::g_XMAbsMask
	DD	07fffffffH
	DD	07fffffffH
	DD	07fffffffH
CONST	ENDS
;	COMDAT ?g_XMQNaNTest@DirectX@@3UXMVECTORI32@1@B
CONST	SEGMENT
?g_XMQNaNTest@DirectX@@3UXMVECTORI32@1@B DD 07fffffH	; DirectX::g_XMQNaNTest
	DD	07fffffH
	DD	07fffffH
	DD	07fffffH
CONST	ENDS
;	COMDAT ?g_XMQNaN@DirectX@@3UXMVECTORI32@1@B
CONST	SEGMENT
?g_XMQNaN@DirectX@@3UXMVECTORI32@1@B DD 07fc00000H	; DirectX::g_XMQNaN
	DD	07fc00000H
	DD	07fc00000H
	DD	07fc00000H
CONST	ENDS
;	COMDAT ?g_XMInfinity@DirectX@@3UXMVECTORI32@1@B
CONST	SEGMENT
?g_XMInfinity@DirectX@@3UXMVECTORI32@1@B DD 07f800000H	; DirectX::g_XMInfinity
	DD	07f800000H
	DD	07f800000H
	DD	07f800000H
CONST	ENDS
;	COMDAT ?g_XMEpsilon@DirectX@@3UXMVECTORF32@1@B
CONST	SEGMENT
?g_XMEpsilon@DirectX@@3UXMVECTORF32@1@B DD 034000000r ; 1.19209e-07 ; DirectX::g_XMEpsilon
	DD	034000000r			; 1.19209e-07
	DD	034000000r			; 1.19209e-07
	DD	034000000r			; 1.19209e-07
CONST	ENDS
;	COMDAT ?g_XMReciprocalTwoPi@DirectX@@3UXMVECTORF32@1@B
CONST	SEGMENT
?g_XMReciprocalTwoPi@DirectX@@3UXMVECTORF32@1@B DD 03e22f983r ; 0.159155 ; DirectX::g_XMReciprocalTwoPi
	DD	03e22f983r			; 0.159155
	DD	03e22f983r			; 0.159155
	DD	03e22f983r			; 0.159155
CONST	ENDS
;	COMDAT ?g_XMTwoPi@DirectX@@3UXMVECTORF32@1@B
CONST	SEGMENT
?g_XMTwoPi@DirectX@@3UXMVECTORF32@1@B DD 040c90fdbr ; 6.28319 ; DirectX::g_XMTwoPi
	DD	040c90fdbr			; 6.28319
	DD	040c90fdbr			; 6.28319
	DD	040c90fdbr			; 6.28319
CONST	ENDS
;	COMDAT ?g_XMReciprocalPi@DirectX@@3UXMVECTORF32@1@B
CONST	SEGMENT
?g_XMReciprocalPi@DirectX@@3UXMVECTORF32@1@B DD 03ea2f983r ; 0.31831 ; DirectX::g_XMReciprocalPi
	DD	03ea2f983r			; 0.31831
	DD	03ea2f983r			; 0.31831
	DD	03ea2f983r			; 0.31831
CONST	ENDS
;	COMDAT ?g_XMPi@DirectX@@3UXMVECTORF32@1@B
CONST	SEGMENT
?g_XMPi@DirectX@@3UXMVECTORF32@1@B DD 040490fdbr ; 3.14159 ; DirectX::g_XMPi
	DD	040490fdbr			; 3.14159
	DD	040490fdbr			; 3.14159
	DD	040490fdbr			; 3.14159
CONST	ENDS
;	COMDAT ?g_XMHalfPi@DirectX@@3UXMVECTORF32@1@B
CONST	SEGMENT
?g_XMHalfPi@DirectX@@3UXMVECTORF32@1@B DD 03fc90fdbr ; 1.5708 ; DirectX::g_XMHalfPi
	DD	03fc90fdbr			; 1.5708
	DD	03fc90fdbr			; 1.5708
	DD	03fc90fdbr			; 1.5708
CONST	ENDS
;	COMDAT ?g_XMNegativePi@DirectX@@3UXMVECTORF32@1@B
CONST	SEGMENT
?g_XMNegativePi@DirectX@@3UXMVECTORF32@1@B DD 0c0490fdbr ; -3.14159 ; DirectX::g_XMNegativePi
	DD	0c0490fdbr			; -3.14159
	DD	0c0490fdbr			; -3.14159
	DD	0c0490fdbr			; -3.14159
CONST	ENDS
;	COMDAT ?g_XMNegativeTwoPi@DirectX@@3UXMVECTORF32@1@B
CONST	SEGMENT
?g_XMNegativeTwoPi@DirectX@@3UXMVECTORF32@1@B DD 0c0c90fdbr ; -6.28319 ; DirectX::g_XMNegativeTwoPi
	DD	0c0c90fdbr			; -6.28319
	DD	0c0c90fdbr			; -6.28319
	DD	0c0c90fdbr			; -6.28319
CONST	ENDS
;	COMDAT ?g_XMNegativeOneHalf@DirectX@@3UXMVECTORF32@1@B
CONST	SEGMENT
?g_XMNegativeOneHalf@DirectX@@3UXMVECTORF32@1@B DD 0bf000000r ; -0.5 ; DirectX::g_XMNegativeOneHalf
	DD	0bf000000r			; -0.5
	DD	0bf000000r			; -0.5
	DD	0bf000000r			; -0.5
CONST	ENDS
;	COMDAT ?g_XMOneHalf@DirectX@@3UXMVECTORF32@1@B
CONST	SEGMENT
?g_XMOneHalf@DirectX@@3UXMVECTORF32@1@B DD 03f000000r ; 0.5 ; DirectX::g_XMOneHalf
	DD	03f000000r			; 0.5
	DD	03f000000r			; 0.5
	DD	03f000000r			; 0.5
CONST	ENDS
;	COMDAT ?g_XMNegativeOne@DirectX@@3UXMVECTORF32@1@B
CONST	SEGMENT
?g_XMNegativeOne@DirectX@@3UXMVECTORF32@1@B DD 0bf800000r ; -1 ; DirectX::g_XMNegativeOne
	DD	0bf800000r			; -1
	DD	0bf800000r			; -1
	DD	0bf800000r			; -1
CONST	ENDS
;	COMDAT ?g_XMSix@DirectX@@3UXMVECTORF32@1@B
CONST	SEGMENT
?g_XMSix@DirectX@@3UXMVECTORF32@1@B DD 040c00000r ; 6	; DirectX::g_XMSix
	DD	040c00000r			; 6
	DD	040c00000r			; 6
	DD	040c00000r			; 6
CONST	ENDS
;	COMDAT ?g_XMFour@DirectX@@3UXMVECTORF32@1@B
CONST	SEGMENT
?g_XMFour@DirectX@@3UXMVECTORF32@1@B DD 040800000r ; 4	; DirectX::g_XMFour
	DD	040800000r			; 4
	DD	040800000r			; 4
	DD	040800000r			; 4
CONST	ENDS
;	COMDAT ?g_XMTwo@DirectX@@3UXMVECTORF32@1@B
CONST	SEGMENT
?g_XMTwo@DirectX@@3UXMVECTORF32@1@B DD 040000000r ; 2	; DirectX::g_XMTwo
	DD	040000000r			; 2
	DD	040000000r			; 2
	DD	040000000r			; 2
CONST	ENDS
;	COMDAT ?g_XMZero@DirectX@@3UXMVECTORF32@1@B
CONST	SEGMENT
?g_XMZero@DirectX@@3UXMVECTORF32@1@B DD 000000000r ; 0	; DirectX::g_XMZero
	DD	000000000r			; 0
	DD	000000000r			; 0
	DD	000000000r			; 0
CONST	ENDS
;	COMDAT ?g_XMOne3@DirectX@@3UXMVECTORF32@1@B
CONST	SEGMENT
?g_XMOne3@DirectX@@3UXMVECTORF32@1@B DD 03f800000r ; 1	; DirectX::g_XMOne3
	DD	03f800000r			; 1
	DD	03f800000r			; 1
	DD	000000000r			; 0
CONST	ENDS
;	COMDAT ?g_XMOne@DirectX@@3UXMVECTORF32@1@B
CONST	SEGMENT
?g_XMOne@DirectX@@3UXMVECTORF32@1@B DD 03f800000r ; 1	; DirectX::g_XMOne
	DD	03f800000r			; 1
	DD	03f800000r			; 1
	DD	03f800000r			; 1
CONST	ENDS
;	COMDAT ?g_XMMaskW@DirectX@@3UXMVECTORU32@1@B
CONST	SEGMENT
?g_XMMaskW@DirectX@@3UXMVECTORU32@1@B DD 00H		; DirectX::g_XMMaskW
	DD	00H
	DD	00H
	DD	0ffffffffH
CONST	ENDS
;	COMDAT ?g_XMMaskZ@DirectX@@3UXMVECTORU32@1@B
CONST	SEGMENT
?g_XMMaskZ@DirectX@@3UXMVECTORU32@1@B DD 00H		; DirectX::g_XMMaskZ
	DD	00H
	DD	0ffffffffH
	DD	00H
CONST	ENDS
;	COMDAT ?g_XMMaskY@DirectX@@3UXMVECTORU32@1@B
CONST	SEGMENT
?g_XMMaskY@DirectX@@3UXMVECTORU32@1@B DD 00H		; DirectX::g_XMMaskY
	DD	0ffffffffH
	DD	00H
	DD	00H
CONST	ENDS
;	COMDAT ?g_XMMaskX@DirectX@@3UXMVECTORU32@1@B
CONST	SEGMENT
?g_XMMaskX@DirectX@@3UXMVECTORU32@1@B DD 0ffffffffH	; DirectX::g_XMMaskX
	DD	00H
	DD	00H
	DD	00H
CONST	ENDS
;	COMDAT ?g_XMMask3@DirectX@@3UXMVECTORU32@1@B
CONST	SEGMENT
?g_XMMask3@DirectX@@3UXMVECTORU32@1@B DD 0ffffffffH	; DirectX::g_XMMask3
	DD	0ffffffffH
	DD	0ffffffffH
	DD	00H
CONST	ENDS
;	COMDAT ?g_XMNegate3@DirectX@@3UXMVECTORU32@1@B
CONST	SEGMENT
?g_XMNegate3@DirectX@@3UXMVECTORU32@1@B DD 080000000H	; DirectX::g_XMNegate3
	DD	080000000H
	DD	080000000H
	DD	00H
CONST	ENDS
;	COMDAT ?g_XMNegativeZero@DirectX@@3UXMVECTORU32@1@B
CONST	SEGMENT
?g_XMNegativeZero@DirectX@@3UXMVECTORU32@1@B DD 080000000H ; DirectX::g_XMNegativeZero
	DD	080000000H
	DD	080000000H
	DD	080000000H
CONST	ENDS
;	COMDAT ?g_XMNegIdentityR3@DirectX@@3UXMVECTORF32@1@B
CONST	SEGMENT
?g_XMNegIdentityR3@DirectX@@3UXMVECTORF32@1@B DD 000000000r ; 0 ; DirectX::g_XMNegIdentityR3
	DD	000000000r			; 0
	DD	000000000r			; 0
	DD	0bf800000r			; -1
CONST	ENDS
;	COMDAT ?g_XMNegIdentityR2@DirectX@@3UXMVECTORF32@1@B
CONST	SEGMENT
?g_XMNegIdentityR2@DirectX@@3UXMVECTORF32@1@B DD 000000000r ; 0 ; DirectX::g_XMNegIdentityR2
	DD	000000000r			; 0
	DD	0bf800000r			; -1
	DD	000000000r			; 0
CONST	ENDS
;	COMDAT ?g_XMNegIdentityR1@DirectX@@3UXMVECTORF32@1@B
CONST	SEGMENT
?g_XMNegIdentityR1@DirectX@@3UXMVECTORF32@1@B DD 000000000r ; 0 ; DirectX::g_XMNegIdentityR1
	DD	0bf800000r			; -1
	DD	000000000r			; 0
	DD	000000000r			; 0
CONST	ENDS
;	COMDAT ?g_XMNegIdentityR0@DirectX@@3UXMVECTORF32@1@B
CONST	SEGMENT
?g_XMNegIdentityR0@DirectX@@3UXMVECTORF32@1@B DD 0bf800000r ; -1 ; DirectX::g_XMNegIdentityR0
	DD	000000000r			; 0
	DD	000000000r			; 0
	DD	000000000r			; 0
CONST	ENDS
;	COMDAT ?g_XMIdentityR3@DirectX@@3UXMVECTORF32@1@B
CONST	SEGMENT
?g_XMIdentityR3@DirectX@@3UXMVECTORF32@1@B DD 000000000r ; 0 ; DirectX::g_XMIdentityR3
	DD	000000000r			; 0
	DD	000000000r			; 0
	DD	03f800000r			; 1
CONST	ENDS
;	COMDAT ?g_XMIdentityR2@DirectX@@3UXMVECTORF32@1@B
CONST	SEGMENT
?g_XMIdentityR2@DirectX@@3UXMVECTORF32@1@B DD 000000000r ; 0 ; DirectX::g_XMIdentityR2
	DD	000000000r			; 0
	DD	03f800000r			; 1
	DD	000000000r			; 0
CONST	ENDS
;	COMDAT ?g_XMIdentityR1@DirectX@@3UXMVECTORF32@1@B
CONST	SEGMENT
?g_XMIdentityR1@DirectX@@3UXMVECTORF32@1@B DD 000000000r ; 0 ; DirectX::g_XMIdentityR1
	DD	03f800000r			; 1
	DD	000000000r			; 0
	DD	000000000r			; 0
CONST	ENDS
;	COMDAT ?g_XMIdentityR0@DirectX@@3UXMVECTORF32@1@B
CONST	SEGMENT
?g_XMIdentityR0@DirectX@@3UXMVECTORF32@1@B DD 03f800000r ; 1 ; DirectX::g_XMIdentityR0
	DD	000000000r			; 0
	DD	000000000r			; 0
	DD	000000000r			; 0
CONST	ENDS
;	COMDAT ?g_XMPiConstants0@DirectX@@3UXMVECTORF32@1@B
CONST	SEGMENT
?g_XMPiConstants0@DirectX@@3UXMVECTORF32@1@B DD 040490fdbr ; 3.14159 ; DirectX::g_XMPiConstants0
	DD	040c90fdbr			; 6.28319
	DD	03ea2f983r			; 0.31831
	DD	03e22f983r			; 0.159155
CONST	ENDS
;	COMDAT ?g_XMArcEstCoefficients@DirectX@@3UXMVECTORF32@1@B
CONST	SEGMENT
?g_XMArcEstCoefficients@DirectX@@3UXMVECTORF32@1@B DD 03fc90da4r ; 1.57073 ; DirectX::g_XMArcEstCoefficients
	DD	0be593484r			; -0.212114
	DD	03d981627r			; 0.074261
	DD	0bc996e30r			; -0.0187293
CONST	ENDS
;	COMDAT ?g_XMTanEstCoefficients@DirectX@@3UXMVECTORF32@1@B
CONST	SEGMENT
?g_XMTanEstCoefficients@DirectX@@3UXMVECTORF32@1@B DD 0401ef9dbr ; 2.484 ; DirectX::g_XMTanEstCoefficients
	DD	0be482f23r			; -0.195492
	DD	0401de9e6r			; 2.4674
	DD	03ea2f983r			; 0.31831
CONST	ENDS
;	COMDAT ?g_XMATanEstCoefficients1@DirectX@@3UXMVECTORF32@1@B
CONST	SEGMENT
?g_XMATanEstCoefficients1@DirectX@@3UXMVECTORF32@1@B DD 0bea91d04r ; -0.330299 ; DirectX::g_XMATanEstCoefficients1
	DD	03e3876e2r			; 0.180141
	DD	0bdae5a36r			; -0.085133
	DD	03caaae5fr			; 0.0208351
CONST	ENDS
;	COMDAT ?g_XMATanEstCoefficients0@DirectX@@3UXMVECTORF32@1@B
CONST	SEGMENT
?g_XMATanEstCoefficients0@DirectX@@3UXMVECTORF32@1@B DD 03f7ff738r ; 0.999866 ; DirectX::g_XMATanEstCoefficients0
	DD	03f7ff738r			; 0.999866
	DD	03f7ff738r			; 0.999866
	DD	03f7ff738r			; 0.999866
CONST	ENDS
;	COMDAT ?g_XMATanCoefficients1@DirectX@@3UXMVECTORF32@1@B
CONST	SEGMENT
?g_XMATanCoefficients1@DirectX@@3UXMVECTORF32@1@B DD 0bd9a3174r ; -0.0752896 ; DirectX::g_XMATanCoefficients1
	DD	03d2fc1fer			; 0.0429096
	DD	0bc846e02r			; -0.0161657
	DD	03b3bd74ar			; 0.00286623
CONST	ENDS
;	COMDAT ?g_XMATanCoefficients0@DirectX@@3UXMVECTORF32@1@B
CONST	SEGMENT
?g_XMATanCoefficients0@DirectX@@3UXMVECTORF32@1@B DD 0beaaaa6cr ; -0.333331 ; DirectX::g_XMATanCoefficients0
	DD	03e4cbbe5r			; 0.199936
	DD	0be117fc7r			; -0.142089
	DD	03dda3d83r			; 0.106563
CONST	ENDS
;	COMDAT ?g_XMArcCoefficients1@DirectX@@3UXMVECTORF32@1@B
CONST	SEGMENT
?g_XMArcCoefficients1@DirectX@@3UXMVECTORF32@1@B DD 03cfd10f8r ; 0.0308919 ; DirectX::g_XMArcCoefficients1
	DD	0bc8bfc66r			; -0.0170881
	DD	03bda90c5r			; 0.00667009
	DD	0baa57a2cr			; -0.00126249
CONST	ENDS
;	COMDAT ?g_XMArcCoefficients0@DirectX@@3UXMVECTORF32@1@B
CONST	SEGMENT
?g_XMArcCoefficients0@DirectX@@3UXMVECTORF32@1@B DD 03fc90fdar ; 1.5708 ; DirectX::g_XMArcCoefficients0
	DD	0be5bbfcar			; -0.214599
	DD	03db63a9er			; 0.088979
	DD	0bd4d8392r			; -0.0501743
CONST	ENDS
;	COMDAT ?g_XMTanCoefficients2@DirectX@@3UXMVECTORF32@1@B
CONST	SEGMENT
?g_XMTanCoefficients2@DirectX@@3UXMVECTORF32@1@B DD 03a1aac12r ; 0.000590027 ; DirectX::g_XMTanCoefficients2
	DD	0397abeb9r			; 0.000239129
	DD	038cb3f0cr			; 9.69154e-05
	DD	03824bec9r			; 3.92783e-05
CONST	ENDS
;	COMDAT ?g_XMTanCoefficients1@DirectX@@3UXMVECTORF32@1@B
CONST	SEGMENT
?g_XMTanCoefficients1@DirectX@@3UXMVECTORF32@1@B DD 03cb327a4r ; 0.0218695 ; DirectX::g_XMTanCoefficients1
	DD	03c11371br			; 0.00886324
	DD	03b6b69e9r			; 0.00359213
	DD	03abed1b3r			; 0.00145583
CONST	ENDS
;	COMDAT ?g_XMTanCoefficients0@DirectX@@3UXMVECTORF32@1@B
CONST	SEGMENT
?g_XMTanCoefficients0@DirectX@@3UXMVECTORF32@1@B DD 03f800000r ; 1 ; DirectX::g_XMTanCoefficients0
	DD	03eaaaaabr			; 0.333333
	DD	03e088889r			; 0.133333
	DD	03d5d0dd1r			; 0.0539683
CONST	ENDS
;	COMDAT ?g_XMCosCoefficients1@DirectX@@3UXMVECTORF32@1@B
CONST	SEGMENT
?g_XMCosCoefficients1@DirectX@@3UXMVECTORF32@1@B DD 0b48bdd11r ; -2.60516e-07 ; DirectX::g_XMCosCoefficients1
	DD	0befff67er			; -0.499927
	DD	03d29f587r			; 0.0414939
	DD	0baa69fdbr			; -0.00127124
CONST	ENDS
;	COMDAT ?g_XMCosCoefficients0@DirectX@@3UXMVECTORF32@1@B
CONST	SEGMENT
?g_XMCosCoefficients0@DirectX@@3UXMVECTORF32@1@B DD 0bf000000r ; -0.5 ; DirectX::g_XMCosCoefficients0
	DD	03d2aaaa3r			; 0.0416666
	DD	0bab609aar			; -0.00138884
	DD	037cfb4c2r			; 2.47605e-05
CONST	ENDS
;	COMDAT ?g_XMSinCoefficients1@DirectX@@3UXMVECTORF32@1@B
CONST	SEGMENT
?g_XMSinCoefficients1@DirectX@@3UXMVECTORF32@1@B DD 0b2cd365br ; -2.38899e-08 ; DirectX::g_XMSinCoefficients1
	DD	0be2aa888r			; -0.166659
	DD	03c08373cr			; 0.00831395
	DD	0b9423ec8r			; -0.000185247
CONST	ENDS
;	COMDAT ?g_XMSinCoefficients0@DirectX@@3UXMVECTORF32@1@B
CONST	SEGMENT
?g_XMSinCoefficients0@DirectX@@3UXMVECTORF32@1@B DD 0be2aaaabr ; -0.166667 ; DirectX::g_XMSinCoefficients0
	DD	03c088886r			; 0.00833333
	DD	0b9500bf1r			; -0.000198409
	DD	03638b88er			; 2.75256e-06
CONST	ENDS
;	COMDAT ?g_UnitPlaneEpsilon@Internal@DirectX@@3UXMVECTORF32@2@B
CONST	SEGMENT
?g_UnitPlaneEpsilon@Internal@DirectX@@3UXMVECTORF32@2@B DD 038d1b717r ; 0.0001 ; DirectX::Internal::g_UnitPlaneEpsilon
	DD	038d1b717r			; 0.0001
	DD	038d1b717r			; 0.0001
	DD	038d1b717r			; 0.0001
CONST	ENDS
;	COMDAT ?g_UnitQuaternionEpsilon@Internal@DirectX@@3UXMVECTORF32@2@B
CONST	SEGMENT
?g_UnitQuaternionEpsilon@Internal@DirectX@@3UXMVECTORF32@2@B DD 038d1b717r ; 0.0001 ; DirectX::Internal::g_UnitQuaternionEpsilon
	DD	038d1b717r			; 0.0001
	DD	038d1b717r			; 0.0001
	DD	038d1b717r			; 0.0001
CONST	ENDS
;	COMDAT ?g_UnitVectorEpsilon@Internal@DirectX@@3UXMVECTORF32@2@B
CONST	SEGMENT
?g_UnitVectorEpsilon@Internal@DirectX@@3UXMVECTORF32@2@B DD 038d1b717r ; 0.0001 ; DirectX::Internal::g_UnitVectorEpsilon
	DD	038d1b717r			; 0.0001
	DD	038d1b717r			; 0.0001
	DD	038d1b717r			; 0.0001
CONST	ENDS
;	COMDAT ?YellowGreen@Colors@DirectX@@3UXMVECTORF32@2@B
CONST	SEGMENT
?YellowGreen@Colors@DirectX@@3UXMVECTORF32@2@B DD 03f1a9a9br ; 0.603922 ; DirectX::Colors::YellowGreen
	DD	03f4dcdcfr			; 0.803922
	DD	03e48c8car			; 0.196078
	DD	03f800000r			; 1
CONST	ENDS
;	COMDAT ?Yellow@Colors@DirectX@@3UXMVECTORF32@2@B
CONST	SEGMENT
?Yellow@Colors@DirectX@@3UXMVECTORF32@2@B DD 03f800000r ; 1 ; DirectX::Colors::Yellow
	DD	03f800000r			; 1
	DD	000000000r			; 0
	DD	03f800000r			; 1
CONST	ENDS
;	COMDAT ?WhiteSmoke@Colors@DirectX@@3UXMVECTORF32@2@B
CONST	SEGMENT
?WhiteSmoke@Colors@DirectX@@3UXMVECTORF32@2@B DD 03f75f5f7r ; 0.960784 ; DirectX::Colors::WhiteSmoke
	DD	03f75f5f7r			; 0.960784
	DD	03f75f5f7r			; 0.960784
	DD	03f800000r			; 1
CONST	ENDS
;	COMDAT ?White@Colors@DirectX@@3UXMVECTORF32@2@B
CONST	SEGMENT
?White@Colors@DirectX@@3UXMVECTORF32@2@B DD 03f800000r ; 1 ; DirectX::Colors::White
	DD	03f800000r			; 1
	DD	03f800000r			; 1
	DD	03f800000r			; 1
CONST	ENDS
;	COMDAT ?Wheat@Colors@DirectX@@3UXMVECTORF32@2@B
CONST	SEGMENT
?Wheat@Colors@DirectX@@3UXMVECTORF32@2@B DD 03f75f5f7r ; 0.960784 ; DirectX::Colors::Wheat
	DD	03f5edee0r			; 0.870588
	DD	03f33b3b4r			; 0.701961
	DD	03f800000r			; 1
CONST	ENDS
;	COMDAT ?Violet@Colors@DirectX@@3UXMVECTORF32@2@B
CONST	SEGMENT
?Violet@Colors@DirectX@@3UXMVECTORF32@2@B DD 03f6eeef0r ; 0.933333 ; DirectX::Colors::Violet
	DD	03f028283r			; 0.509804
	DD	03f6eeef0r			; 0.933333
	DD	03f800000r			; 1
CONST	ENDS
;	COMDAT ?Turquoise@Colors@DirectX@@3UXMVECTORF32@2@B
CONST	SEGMENT
?Turquoise@Colors@DirectX@@3UXMVECTORF32@2@B DD 03e808081r ; 0.25098 ; DirectX::Colors::Turquoise
	DD	03f60e0e2r			; 0.878431
	DD	03f50d0d2r			; 0.815686
	DD	03f800000r			; 1
CONST	ENDS
;	COMDAT ?Transparent@Colors@DirectX@@3UXMVECTORF32@2@B
CONST	SEGMENT
?Transparent@Colors@DirectX@@3UXMVECTORF32@2@B DD 000000000r ; 0 ; DirectX::Colors::Transparent
	DD	000000000r			; 0
	DD	000000000r			; 0
	DD	000000000r			; 0
CONST	ENDS
;	COMDAT ?Tomato@Colors@DirectX@@3UXMVECTORF32@2@B
CONST	SEGMENT
?Tomato@Colors@DirectX@@3UXMVECTORF32@2@B DD 03f800000r ; 1 ; DirectX::Colors::Tomato
	DD	03ec6c6c8r			; 0.388235
	DD	03e8e8e8fr			; 0.278431
	DD	03f800000r			; 1
CONST	ENDS
;	COMDAT ?Thistle@Colors@DirectX@@3UXMVECTORF32@2@B
CONST	SEGMENT
?Thistle@Colors@DirectX@@3UXMVECTORF32@2@B DD 03f58d8dar ; 0.847059 ; DirectX::Colors::Thistle
	DD	03f3fbfc0r			; 0.74902
	DD	03f58d8dar			; 0.847059
	DD	03f800000r			; 1
CONST	ENDS
;	COMDAT ?Teal@Colors@DirectX@@3UXMVECTORF32@2@B
CONST	SEGMENT
?Teal@Colors@DirectX@@3UXMVECTORF32@2@B DD 000000000r ; 0 ; DirectX::Colors::Teal
	DD	03f008081r			; 0.501961
	DD	03f008081r			; 0.501961
	DD	03f800000r			; 1
CONST	ENDS
;	COMDAT ?Tan@Colors@DirectX@@3UXMVECTORF32@2@B
CONST	SEGMENT
?Tan@Colors@DirectX@@3UXMVECTORF32@2@B DD 03f52d2d4r ; 0.823529 ; DirectX::Colors::Tan
	DD	03f34b4b5r			; 0.705882
	DD	03f0c8c8dr			; 0.54902
	DD	03f800000r			; 1
CONST	ENDS
;	COMDAT ?SteelBlue@Colors@DirectX@@3UXMVECTORF32@2@B
CONST	SEGMENT
?SteelBlue@Colors@DirectX@@3UXMVECTORF32@2@B DD 03e8c8c8dr ; 0.27451 ; DirectX::Colors::SteelBlue
	DD	03f028283r			; 0.509804
	DD	03f34b4b5r			; 0.705882
	DD	03f800000r			; 1
CONST	ENDS
;	COMDAT ?SpringGreen@Colors@DirectX@@3UXMVECTORF32@2@B
CONST	SEGMENT
?SpringGreen@Colors@DirectX@@3UXMVECTORF32@2@B DD 000000000r ; 0 ; DirectX::Colors::SpringGreen
	DD	03f800000r			; 1
	DD	03efeff00r			; 0.498039
	DD	03f800000r			; 1
CONST	ENDS
;	COMDAT ?Snow@Colors@DirectX@@3UXMVECTORF32@2@B
CONST	SEGMENT
?Snow@Colors@DirectX@@3UXMVECTORF32@2@B DD 03f800000r ; 1 ; DirectX::Colors::Snow
	DD	03f7afafcr			; 0.980392
	DD	03f7afafcr			; 0.980392
	DD	03f800000r			; 1
CONST	ENDS
;	COMDAT ?g_FltMax@DirectX@@3UXMVECTORF32@1@B
CONST	SEGMENT
?g_FltMax@DirectX@@3UXMVECTORF32@1@B DD 07f7fffffr ; 3.40282e+38 ; DirectX::g_FltMax
	DD	07f7fffffr			; 3.40282e+38
	DD	07f7fffffr			; 3.40282e+38
	DD	07f7fffffr			; 3.40282e+38
CONST	ENDS
;	COMDAT ?SlateGray@Colors@DirectX@@3UXMVECTORF32@2@B
CONST	SEGMENT
?SlateGray@Colors@DirectX@@3UXMVECTORF32@2@B DD 03ee0e0e2r ; 0.439216 ; DirectX::Colors::SlateGray
	DD	03f008081r			; 0.501961
	DD	03f109091r			; 0.564706
	DD	03f800000r			; 1
CONST	ENDS
;	COMDAT ?g_FltMin@DirectX@@3UXMVECTORF32@1@B
CONST	SEGMENT
?g_FltMin@DirectX@@3UXMVECTORF32@1@B DD 0ff7fffffr ; -3.40282e+38 ; DirectX::g_FltMin
	DD	0ff7fffffr			; -3.40282e+38
	DD	0ff7fffffr			; -3.40282e+38
	DD	0ff7fffffr			; -3.40282e+38
CONST	ENDS
;	COMDAT ?SlateBlue@Colors@DirectX@@3UXMVECTORF32@2@B
CONST	SEGMENT
?SlateBlue@Colors@DirectX@@3UXMVECTORF32@2@B DD 03ed4d4d6r ; 0.415686 ; DirectX::Colors::SlateBlue
	DD	03eb4b4b5r			; 0.352941
	DD	03f4dcdcfr			; 0.803922
	DD	03f800000r			; 1
CONST	ENDS
;	COMDAT ?g_RayNegEpsilon@DirectX@@3UXMVECTORF32@1@B
CONST	SEGMENT
?g_RayNegEpsilon@DirectX@@3UXMVECTORF32@1@B DD 09e3ce508r ; -1e-20 ; DirectX::g_RayNegEpsilon
	DD	09e3ce508r			; -1e-20
	DD	09e3ce508r			; -1e-20
	DD	09e3ce508r			; -1e-20
CONST	ENDS
;	COMDAT ?SkyBlue@Colors@DirectX@@3UXMVECTORF32@2@B
CONST	SEGMENT
?SkyBlue@Colors@DirectX@@3UXMVECTORF32@2@B DD 03f078788r ; 0.529412 ; DirectX::Colors::SkyBlue
	DD	03f4eced0r			; 0.807843
	DD	03f6bebedr			; 0.921569
	DD	03f800000r			; 1
CONST	ENDS
;	COMDAT ?g_RayEpsilon@DirectX@@3UXMVECTORF32@1@B
CONST	SEGMENT
?g_RayEpsilon@DirectX@@3UXMVECTORF32@1@B DD 01e3ce508r ; 1e-20 ; DirectX::g_RayEpsilon
	DD	01e3ce508r			; 1e-20
	DD	01e3ce508r			; 1e-20
	DD	01e3ce508r			; 1e-20
CONST	ENDS
;	COMDAT ?Silver@Colors@DirectX@@3UXMVECTORF32@2@B
CONST	SEGMENT
?Silver@Colors@DirectX@@3UXMVECTORF32@2@B DD 03f40c0c2r ; 0.752941 ; DirectX::Colors::Silver
	DD	03f40c0c2r			; 0.752941
	DD	03f40c0c2r			; 0.752941
	DD	03f800000r			; 1
CONST	ENDS
;	COMDAT ?g_BoxOffset@DirectX@@3QBUXMVECTORF32@1@B
CONST	SEGMENT
?g_BoxOffset@DirectX@@3QBUXMVECTORF32@1@B DD 0bf800000r ; -1 ; DirectX::g_BoxOffset
	DD	0bf800000r			; -1
	DD	03f800000r			; 1
	DD	000000000r			; 0
	DD	03f800000r			; 1
	DD	0bf800000r			; -1
	DD	03f800000r			; 1
	DD	000000000r			; 0
	DD	03f800000r			; 1
	DD	03f800000r			; 1
	DD	03f800000r			; 1
	DD	000000000r			; 0
	DD	0bf800000r			; -1
	DD	03f800000r			; 1
	DD	03f800000r			; 1
	DD	000000000r			; 0
	DD	0bf800000r			; -1
	DD	0bf800000r			; -1
	DD	0bf800000r			; -1
	DD	000000000r			; 0
	DD	03f800000r			; 1
	DD	0bf800000r			; -1
	DD	0bf800000r			; -1
	DD	000000000r			; 0
	DD	03f800000r			; 1
	DD	03f800000r			; 1
	DD	0bf800000r			; -1
	DD	000000000r			; 0
	DD	0bf800000r			; -1
	DD	03f800000r			; 1
	DD	0bf800000r			; -1
	DD	000000000r			; 0
CONST	ENDS
;	COMDAT ?Sienna@Colors@DirectX@@3UXMVECTORF32@2@B
CONST	SEGMENT
?Sienna@Colors@DirectX@@3UXMVECTORF32@2@B DD 03f20a0a1r ; 0.627451 ; DirectX::Colors::Sienna
	DD	03ea4a4a5r			; 0.321569
	DD	03e34b4b5r			; 0.176471
	DD	03f800000r			; 1
CONST	ENDS
;	COMDAT ?SeaShell@Colors@DirectX@@3UXMVECTORF32@2@B
CONST	SEGMENT
?SeaShell@Colors@DirectX@@3UXMVECTORF32@2@B DD 03f800000r ; 1 ; DirectX::Colors::SeaShell
	DD	03f75f5f7r			; 0.960784
	DD	03f6eeef0r			; 0.933333
	DD	03f800000r			; 1
CONST	ENDS
;	COMDAT ?SeaGreen@Colors@DirectX@@3UXMVECTORF32@2@B
CONST	SEGMENT
?SeaGreen@Colors@DirectX@@3UXMVECTORF32@2@B DD 03e38b8b9r ; 0.180392 ; DirectX::Colors::SeaGreen
	DD	03f0b8b8cr			; 0.545098
	DD	03eaeaeafr			; 0.341176
	DD	03f800000r			; 1
CONST	ENDS
;	COMDAT ?SandyBrown@Colors@DirectX@@3UXMVECTORF32@2@B
CONST	SEGMENT
?SandyBrown@Colors@DirectX@@3UXMVECTORF32@2@B DD 03f74f4f6r ; 0.956863 ; DirectX::Colors::SandyBrown
	DD	03f24a4a5r			; 0.643137
	DD	03ec0c0c2r			; 0.376471
	DD	03f800000r			; 1
CONST	ENDS
;	COMDAT ?Salmon@Colors@DirectX@@3UXMVECTORF32@2@B
CONST	SEGMENT
?Salmon@Colors@DirectX@@3UXMVECTORF32@2@B DD 03f7afafcr ; 0.980392 ; DirectX::Colors::Salmon
	DD	03f008081r			; 0.501961
	DD	03ee4e4e6r			; 0.447059
	DD	03f800000r			; 1
CONST	ENDS
;	COMDAT ?SaddleBrown@Colors@DirectX@@3UXMVECTORF32@2@B
CONST	SEGMENT
?SaddleBrown@Colors@DirectX@@3UXMVECTORF32@2@B DD 03f0b8b8cr ; 0.545098 ; DirectX::Colors::SaddleBrown
	DD	03e8a8a8br			; 0.270588
	DD	03d989899r			; 0.0745098
	DD	03f800000r			; 1
CONST	ENDS
;	COMDAT ?RoyalBlue@Colors@DirectX@@3UXMVECTORF32@2@B
CONST	SEGMENT
?RoyalBlue@Colors@DirectX@@3UXMVECTORF32@2@B DD 03e828283r ; 0.254902 ; DirectX::Colors::RoyalBlue
	DD	03ed2d2d4r			; 0.411765
	DD	03f61e1e3r			; 0.882353
	DD	03f800000r			; 1
CONST	ENDS
;	COMDAT ?RosyBrown@Colors@DirectX@@3UXMVECTORF32@2@B
CONST	SEGMENT
?RosyBrown@Colors@DirectX@@3UXMVECTORF32@2@B DD 03f3cbcbdr ; 0.737255 ; DirectX::Colors::RosyBrown
	DD	03f0f8f90r			; 0.560784
	DD	03f0f8f90r			; 0.560784
	DD	03f800000r			; 1
CONST	ENDS
;	COMDAT ?Red@Colors@DirectX@@3UXMVECTORF32@2@B
CONST	SEGMENT
?Red@Colors@DirectX@@3UXMVECTORF32@2@B DD 03f800000r ; 1 ; DirectX::Colors::Red
	DD	000000000r			; 0
	DD	000000000r			; 0
	DD	03f800000r			; 1
CONST	ENDS
;	COMDAT ?Purple@Colors@DirectX@@3UXMVECTORF32@2@B
CONST	SEGMENT
?Purple@Colors@DirectX@@3UXMVECTORF32@2@B DD 03f008081r ; 0.501961 ; DirectX::Colors::Purple
	DD	000000000r			; 0
	DD	03f008081r			; 0.501961
	DD	03f800000r			; 1
CONST	ENDS
;	COMDAT ?PowderBlue@Colors@DirectX@@3UXMVECTORF32@2@B
CONST	SEGMENT
?PowderBlue@Colors@DirectX@@3UXMVECTORF32@2@B DD 03f30b0b1r ; 0.690196 ; DirectX::Colors::PowderBlue
	DD	03f60e0e2r			; 0.878431
	DD	03f66e6e8r			; 0.901961
	DD	03f800000r			; 1
CONST	ENDS
;	COMDAT ?Plum@Colors@DirectX@@3UXMVECTORF32@2@B
CONST	SEGMENT
?Plum@Colors@DirectX@@3UXMVECTORF32@2@B DD 03f5ddddfr ; 0.866667 ; DirectX::Colors::Plum
	DD	03f20a0a1r			; 0.627451
	DD	03f5ddddfr			; 0.866667
	DD	03f800000r			; 1
CONST	ENDS
;	COMDAT ?Pink@Colors@DirectX@@3UXMVECTORF32@2@B
CONST	SEGMENT
?Pink@Colors@DirectX@@3UXMVECTORF32@2@B DD 03f800000r ; 1 ; DirectX::Colors::Pink
	DD	03f40c0c2r			; 0.752941
	DD	03f4bcbcdr			; 0.796079
	DD	03f800000r			; 1
CONST	ENDS
;	COMDAT ?Peru@Colors@DirectX@@3UXMVECTORF32@2@B
CONST	SEGMENT
?Peru@Colors@DirectX@@3UXMVECTORF32@2@B DD 03f4dcdcfr ; 0.803922 ; DirectX::Colors::Peru
	DD	03f058586r			; 0.521569
	DD	03e7cfcfer			; 0.247059
	DD	03f800000r			; 1
CONST	ENDS
;	COMDAT ?PeachPuff@Colors@DirectX@@3UXMVECTORF32@2@B
CONST	SEGMENT
?PeachPuff@Colors@DirectX@@3UXMVECTORF32@2@B DD 03f800000r ; 1 ; DirectX::Colors::PeachPuff
	DD	03f5adadcr			; 0.854902
	DD	03f39b9bar			; 0.72549
	DD	03f800000r			; 1
CONST	ENDS
;	COMDAT ?PapayaWhip@Colors@DirectX@@3UXMVECTORF32@2@B
CONST	SEGMENT
?PapayaWhip@Colors@DirectX@@3UXMVECTORF32@2@B DD 03f800000r ; 1 ; DirectX::Colors::PapayaWhip
	DD	03f6feff1r			; 0.937255
	DD	03f55d5d7r			; 0.835294
	DD	03f800000r			; 1
CONST	ENDS
;	COMDAT ?PaleVioletRed@Colors@DirectX@@3UXMVECTORF32@2@B
CONST	SEGMENT
?PaleVioletRed@Colors@DirectX@@3UXMVECTORF32@2@B DD 03f5bdbddr ; 0.858824 ; DirectX::Colors::PaleVioletRed
	DD	03ee0e0e2r			; 0.439216
	DD	03f139394r			; 0.576471
	DD	03f800000r			; 1
CONST	ENDS
;	COMDAT ?PaleTurquoise@Colors@DirectX@@3UXMVECTORF32@2@B
CONST	SEGMENT
?PaleTurquoise@Colors@DirectX@@3UXMVECTORF32@2@B DD 03f2fafb0r ; 0.686275 ; DirectX::Colors::PaleTurquoise
	DD	03f6eeef0r			; 0.933333
	DD	03f6eeef0r			; 0.933333
	DD	03f800000r			; 1
CONST	ENDS
;	COMDAT ?PaleGreen@Colors@DirectX@@3UXMVECTORF32@2@B
CONST	SEGMENT
?PaleGreen@Colors@DirectX@@3UXMVECTORF32@2@B DD 03f189899r ; 0.596078 ; DirectX::Colors::PaleGreen
	DD	03f7bfbfdr			; 0.984314
	DD	03f189899r			; 0.596078
	DD	03f800000r			; 1
CONST	ENDS
;	COMDAT ?PaleGoldenrod@Colors@DirectX@@3UXMVECTORF32@2@B
CONST	SEGMENT
?PaleGoldenrod@Colors@DirectX@@3UXMVECTORF32@2@B DD 03f6eeef0r ; 0.933333 ; DirectX::Colors::PaleGoldenrod
	DD	03f68e8ear			; 0.909804
	DD	03f2aaaabr			; 0.666667
	DD	03f800000r			; 1
CONST	ENDS
;	COMDAT ?Orchid@Colors@DirectX@@3UXMVECTORF32@2@B
CONST	SEGMENT
?Orchid@Colors@DirectX@@3UXMVECTORF32@2@B DD 03f5adadcr ; 0.854902 ; DirectX::Colors::Orchid
	DD	03ee0e0e2r			; 0.439216
	DD	03f56d6d8r			; 0.839216
	DD	03f800000r			; 1
CONST	ENDS
;	COMDAT ?OrangeRed@Colors@DirectX@@3UXMVECTORF32@2@B
CONST	SEGMENT
?OrangeRed@Colors@DirectX@@3UXMVECTORF32@2@B DD 03f800000r ; 1 ; DirectX::Colors::OrangeRed
	DD	03e8a8a8br			; 0.270588
	DD	000000000r			; 0
	DD	03f800000r			; 1
CONST	ENDS
;	COMDAT ?Orange@Colors@DirectX@@3UXMVECTORF32@2@B
CONST	SEGMENT
?Orange@Colors@DirectX@@3UXMVECTORF32@2@B DD 03f800000r ; 1 ; DirectX::Colors::Orange
	DD	03f25a5a6r			; 0.647059
	DD	000000000r			; 0
	DD	03f800000r			; 1
CONST	ENDS
;	COMDAT ?OliveDrab@Colors@DirectX@@3UXMVECTORF32@2@B
CONST	SEGMENT
?OliveDrab@Colors@DirectX@@3UXMVECTORF32@2@B DD 03ed6d6d8r ; 0.419608 ; DirectX::Colors::OliveDrab
	DD	03f0e8e8fr			; 0.556863
	DD	03e0c8c8dr			; 0.137255
	DD	03f800000r			; 1
CONST	ENDS
;	COMDAT ?Olive@Colors@DirectX@@3UXMVECTORF32@2@B
CONST	SEGMENT
?Olive@Colors@DirectX@@3UXMVECTORF32@2@B DD 03f008081r ; 0.501961 ; DirectX::Colors::Olive
	DD	03f008081r			; 0.501961
	DD	000000000r			; 0
	DD	03f800000r			; 1
CONST	ENDS
;	COMDAT ?OldLace@Colors@DirectX@@3UXMVECTORF32@2@B
CONST	SEGMENT
?OldLace@Colors@DirectX@@3UXMVECTORF32@2@B DD 03f7dfdffr ; 0.992157 ; DirectX::Colors::OldLace
	DD	03f75f5f7r			; 0.960784
	DD	03f66e6e8r			; 0.901961
	DD	03f800000r			; 1
CONST	ENDS
;	COMDAT ?Navy@Colors@DirectX@@3UXMVECTORF32@2@B
CONST	SEGMENT
?Navy@Colors@DirectX@@3UXMVECTORF32@2@B DD 000000000r ; 0 ; DirectX::Colors::Navy
	DD	000000000r			; 0
	DD	03f008081r			; 0.501961
	DD	03f800000r			; 1
CONST	ENDS
;	COMDAT ?NavajoWhite@Colors@DirectX@@3UXMVECTORF32@2@B
CONST	SEGMENT
?NavajoWhite@Colors@DirectX@@3UXMVECTORF32@2@B DD 03f800000r ; 1 ; DirectX::Colors::NavajoWhite
	DD	03f5edee0r			; 0.870588
	DD	03f2dadaer			; 0.678431
	DD	03f800000r			; 1
CONST	ENDS
;	COMDAT ?Moccasin@Colors@DirectX@@3UXMVECTORF32@2@B
CONST	SEGMENT
?Moccasin@Colors@DirectX@@3UXMVECTORF32@2@B DD 03f800000r ; 1 ; DirectX::Colors::Moccasin
	DD	03f64e4e6r			; 0.894118
	DD	03f35b5b6r			; 0.709804
	DD	03f800000r			; 1
CONST	ENDS
;	COMDAT ?MistyRose@Colors@DirectX@@3UXMVECTORF32@2@B
CONST	SEGMENT
?MistyRose@Colors@DirectX@@3UXMVECTORF32@2@B DD 03f800000r ; 1 ; DirectX::Colors::MistyRose
	DD	03f64e4e6r			; 0.894118
	DD	03f61e1e3r			; 0.882353
	DD	03f800000r			; 1
CONST	ENDS
;	COMDAT ?MintCream@Colors@DirectX@@3UXMVECTORF32@2@B
CONST	SEGMENT
?MintCream@Colors@DirectX@@3UXMVECTORF32@2@B DD 03f75f5f7r ; 0.960784 ; DirectX::Colors::MintCream
	DD	03f800000r			; 1
	DD	03f7afafcr			; 0.980392
	DD	03f800000r			; 1
CONST	ENDS
;	COMDAT ?MidnightBlue@Colors@DirectX@@3UXMVECTORF32@2@B
CONST	SEGMENT
?MidnightBlue@Colors@DirectX@@3UXMVECTORF32@2@B DD 03dc8c8car ; 0.0980392 ; DirectX::Colors::MidnightBlue
	DD	03dc8c8car			; 0.0980392
	DD	03ee0e0e2r			; 0.439216
	DD	03f800000r			; 1
CONST	ENDS
;	COMDAT ?MediumVioletRed@Colors@DirectX@@3UXMVECTORF32@2@B
CONST	SEGMENT
?MediumVioletRed@Colors@DirectX@@3UXMVECTORF32@2@B DD 03f47c7c9r ; 0.780392 ; DirectX::Colors::MediumVioletRed
	DD	03da8a8a9r			; 0.0823529
	DD	03f058586r			; 0.521569
	DD	03f800000r			; 1
CONST	ENDS
;	COMDAT ?MediumTurquoise@Colors@DirectX@@3UXMVECTORF32@2@B
CONST	SEGMENT
?MediumTurquoise@Colors@DirectX@@3UXMVECTORF32@2@B DD 03e909091r ; 0.282353 ; DirectX::Colors::MediumTurquoise
	DD	03f51d1d3r			; 0.819608
	DD	03f4ccccer			; 0.8
	DD	03f800000r			; 1
CONST	ENDS
;	COMDAT ?MediumSpringGreen@Colors@DirectX@@3UXMVECTORF32@2@B
CONST	SEGMENT
?MediumSpringGreen@Colors@DirectX@@3UXMVECTORF32@2@B DD 000000000r ; 0 ; DirectX::Colors::MediumSpringGreen
	DD	03f7afafcr			; 0.980392
	DD	03f1a9a9br			; 0.603922
	DD	03f800000r			; 1
CONST	ENDS
;	COMDAT ?MediumSlateBlue@Colors@DirectX@@3UXMVECTORF32@2@B
CONST	SEGMENT
?MediumSlateBlue@Colors@DirectX@@3UXMVECTORF32@2@B DD 03ef6f6f8r ; 0.482353 ; DirectX::Colors::MediumSlateBlue
	DD	03ed0d0d2r			; 0.407843
	DD	03f6eeef0r			; 0.933333
	DD	03f800000r			; 1
CONST	ENDS
;	COMDAT ?MediumSeaGreen@Colors@DirectX@@3UXMVECTORF32@2@B
CONST	SEGMENT
?MediumSeaGreen@Colors@DirectX@@3UXMVECTORF32@2@B DD 03e70f0f2r ; 0.235294 ; DirectX::Colors::MediumSeaGreen
	DD	03f33b3b4r			; 0.701961
	DD	03ee2e2e4r			; 0.443137
	DD	03f800000r			; 1
CONST	ENDS
;	COMDAT ?MediumPurple@Colors@DirectX@@3UXMVECTORF32@2@B
CONST	SEGMENT
?MediumPurple@Colors@DirectX@@3UXMVECTORF32@2@B DD 03f139394r ; 0.576471 ; DirectX::Colors::MediumPurple
	DD	03ee0e0e2r			; 0.439216
	DD	03f5bdbddr			; 0.858824
	DD	03f800000r			; 1
CONST	ENDS
;	COMDAT ?MediumOrchid@Colors@DirectX@@3UXMVECTORF32@2@B
CONST	SEGMENT
?MediumOrchid@Colors@DirectX@@3UXMVECTORF32@2@B DD 03f3ababbr ; 0.729412 ; DirectX::Colors::MediumOrchid
	DD	03eaaaaabr			; 0.333333
	DD	03f53d3d5r			; 0.827451
	DD	03f800000r			; 1
CONST	ENDS
;	COMDAT ?MediumBlue@Colors@DirectX@@3UXMVECTORF32@2@B
CONST	SEGMENT
?MediumBlue@Colors@DirectX@@3UXMVECTORF32@2@B DD 000000000r ; 0 ; DirectX::Colors::MediumBlue
	DD	000000000r			; 0
	DD	03f4dcdcfr			; 0.803922
	DD	03f800000r			; 1
CONST	ENDS
;	COMDAT ?MediumAquamarine@Colors@DirectX@@3UXMVECTORF32@2@B
CONST	SEGMENT
?MediumAquamarine@Colors@DirectX@@3UXMVECTORF32@2@B DD 03ecccccer ; 0.4 ; DirectX::Colors::MediumAquamarine
	DD	03f4dcdcfr			; 0.803922
	DD	03f2aaaabr			; 0.666667
	DD	03f800000r			; 1
CONST	ENDS
;	COMDAT ?Maroon@Colors@DirectX@@3UXMVECTORF32@2@B
CONST	SEGMENT
?Maroon@Colors@DirectX@@3UXMVECTORF32@2@B DD 03f008081r ; 0.501961 ; DirectX::Colors::Maroon
	DD	000000000r			; 0
	DD	000000000r			; 0
	DD	03f800000r			; 1
CONST	ENDS
;	COMDAT ?Magenta@Colors@DirectX@@3UXMVECTORF32@2@B
CONST	SEGMENT
?Magenta@Colors@DirectX@@3UXMVECTORF32@2@B DD 03f800000r ; 1 ; DirectX::Colors::Magenta
	DD	000000000r			; 0
	DD	03f800000r			; 1
	DD	03f800000r			; 1
CONST	ENDS
;	COMDAT ?Linen@Colors@DirectX@@3UXMVECTORF32@2@B
CONST	SEGMENT
?Linen@Colors@DirectX@@3UXMVECTORF32@2@B DD 03f7afafcr ; 0.980392 ; DirectX::Colors::Linen
	DD	03f70f0f2r			; 0.941177
	DD	03f66e6e8r			; 0.901961
	DD	03f800000r			; 1
CONST	ENDS
;	COMDAT ?LimeGreen@Colors@DirectX@@3UXMVECTORF32@2@B
CONST	SEGMENT
?LimeGreen@Colors@DirectX@@3UXMVECTORF32@2@B DD 03e48c8car ; 0.196078 ; DirectX::Colors::LimeGreen
	DD	03f4dcdcfr			; 0.803922
	DD	03e48c8car			; 0.196078
	DD	03f800000r			; 1
CONST	ENDS
;	COMDAT ?Lime@Colors@DirectX@@3UXMVECTORF32@2@B
CONST	SEGMENT
?Lime@Colors@DirectX@@3UXMVECTORF32@2@B DD 000000000r ; 0 ; DirectX::Colors::Lime
	DD	03f800000r			; 1
	DD	000000000r			; 0
	DD	03f800000r			; 1
CONST	ENDS
;	COMDAT ?LightYellow@Colors@DirectX@@3UXMVECTORF32@2@B
CONST	SEGMENT
?LightYellow@Colors@DirectX@@3UXMVECTORF32@2@B DD 03f800000r ; 1 ; DirectX::Colors::LightYellow
	DD	03f800000r			; 1
	DD	03f60e0e2r			; 0.878431
	DD	03f800000r			; 1
CONST	ENDS
;	COMDAT ?LightSteelBlue@Colors@DirectX@@3UXMVECTORF32@2@B
CONST	SEGMENT
?LightSteelBlue@Colors@DirectX@@3UXMVECTORF32@2@B DD 03f30b0b1r ; 0.690196 ; DirectX::Colors::LightSteelBlue
	DD	03f44c4c6r			; 0.768628
	DD	03f5edee0r			; 0.870588
	DD	03f800000r			; 1
CONST	ENDS
;	COMDAT ?LightSlateGray@Colors@DirectX@@3UXMVECTORF32@2@B
CONST	SEGMENT
?LightSlateGray@Colors@DirectX@@3UXMVECTORF32@2@B DD 03eeeeef0r ; 0.466667 ; DirectX::Colors::LightSlateGray
	DD	03f088889r			; 0.533333
	DD	03f19999ar			; 0.6
	DD	03f800000r			; 1
CONST	ENDS
;	COMDAT ?LightSkyBlue@Colors@DirectX@@3UXMVECTORF32@2@B
CONST	SEGMENT
?LightSkyBlue@Colors@DirectX@@3UXMVECTORF32@2@B DD 03f078788r ; 0.529412 ; DirectX::Colors::LightSkyBlue
	DD	03f4eced0r			; 0.807843
	DD	03f7afafcr			; 0.980392
	DD	03f800000r			; 1
CONST	ENDS
;	COMDAT ?LightSeaGreen@Colors@DirectX@@3UXMVECTORF32@2@B
CONST	SEGMENT
?LightSeaGreen@Colors@DirectX@@3UXMVECTORF32@2@B DD 03e008081r ; 0.12549 ; DirectX::Colors::LightSeaGreen
	DD	03f32b2b3r			; 0.698039
	DD	03f2aaaabr			; 0.666667
	DD	03f800000r			; 1
CONST	ENDS
;	COMDAT ?LightSalmon@Colors@DirectX@@3UXMVECTORF32@2@B
CONST	SEGMENT
?LightSalmon@Colors@DirectX@@3UXMVECTORF32@2@B DD 03f800000r ; 1 ; DirectX::Colors::LightSalmon
	DD	03f20a0a1r			; 0.627451
	DD	03ef4f4f6r			; 0.478431
	DD	03f800000r			; 1
CONST	ENDS
;	COMDAT ?LightPink@Colors@DirectX@@3UXMVECTORF32@2@B
CONST	SEGMENT
?LightPink@Colors@DirectX@@3UXMVECTORF32@2@B DD 03f800000r ; 1 ; DirectX::Colors::LightPink
	DD	03f36b6b7r			; 0.713726
	DD	03f41c1c3r			; 0.756863
	DD	03f800000r			; 1
CONST	ENDS
;	COMDAT ?LightGray@Colors@DirectX@@3UXMVECTORF32@2@B
CONST	SEGMENT
?LightGray@Colors@DirectX@@3UXMVECTORF32@2@B DD 03f53d3d5r ; 0.827451 ; DirectX::Colors::LightGray
	DD	03f53d3d5r			; 0.827451
	DD	03f53d3d5r			; 0.827451
	DD	03f800000r			; 1
CONST	ENDS
;	COMDAT ?LightGreen@Colors@DirectX@@3UXMVECTORF32@2@B
CONST	SEGMENT
?LightGreen@Colors@DirectX@@3UXMVECTORF32@2@B DD 03f109091r ; 0.564706 ; DirectX::Colors::LightGreen
	DD	03f6eeef0r			; 0.933333
	DD	03f109091r			; 0.564706
	DD	03f800000r			; 1
CONST	ENDS
;	COMDAT ?LightGoldenrodYellow@Colors@DirectX@@3UXMVECTORF32@2@B
CONST	SEGMENT
?LightGoldenrodYellow@Colors@DirectX@@3UXMVECTORF32@2@B DD 03f7afafcr ; 0.980392 ; DirectX::Colors::LightGoldenrodYellow
	DD	03f7afafcr			; 0.980392
	DD	03f52d2d4r			; 0.823529
	DD	03f800000r			; 1
CONST	ENDS
;	COMDAT ?LightCyan@Colors@DirectX@@3UXMVECTORF32@2@B
CONST	SEGMENT
?LightCyan@Colors@DirectX@@3UXMVECTORF32@2@B DD 03f60e0e2r ; 0.878431 ; DirectX::Colors::LightCyan
	DD	03f800000r			; 1
	DD	03f800000r			; 1
	DD	03f800000r			; 1
CONST	ENDS
;	COMDAT ?LightCoral@Colors@DirectX@@3UXMVECTORF32@2@B
CONST	SEGMENT
?LightCoral@Colors@DirectX@@3UXMVECTORF32@2@B DD 03f70f0f2r ; 0.941177 ; DirectX::Colors::LightCoral
	DD	03f008081r			; 0.501961
	DD	03f008081r			; 0.501961
	DD	03f800000r			; 1
CONST	ENDS
;	COMDAT ?LightBlue@Colors@DirectX@@3UXMVECTORF32@2@B
CONST	SEGMENT
?LightBlue@Colors@DirectX@@3UXMVECTORF32@2@B DD 03f2dadaer ; 0.678431 ; DirectX::Colors::LightBlue
	DD	03f58d8dar			; 0.847059
	DD	03f66e6e8r			; 0.901961
	DD	03f800000r			; 1
CONST	ENDS
;	COMDAT ?LemonChiffon@Colors@DirectX@@3UXMVECTORF32@2@B
CONST	SEGMENT
?LemonChiffon@Colors@DirectX@@3UXMVECTORF32@2@B DD 03f800000r ; 1 ; DirectX::Colors::LemonChiffon
	DD	03f7afafcr			; 0.980392
	DD	03f4dcdcfr			; 0.803922
	DD	03f800000r			; 1
CONST	ENDS
;	COMDAT ?LawnGreen@Colors@DirectX@@3UXMVECTORF32@2@B
CONST	SEGMENT
?LawnGreen@Colors@DirectX@@3UXMVECTORF32@2@B DD 03ef8f8far ; 0.486275 ; DirectX::Colors::LawnGreen
	DD	03f7cfcfer			; 0.988235
	DD	000000000r			; 0
	DD	03f800000r			; 1
CONST	ENDS
;	COMDAT ?LavenderBlush@Colors@DirectX@@3UXMVECTORF32@2@B
CONST	SEGMENT
?LavenderBlush@Colors@DirectX@@3UXMVECTORF32@2@B DD 03f800000r ; 1 ; DirectX::Colors::LavenderBlush
	DD	03f70f0f2r			; 0.941177
	DD	03f75f5f7r			; 0.960784
	DD	03f800000r			; 1
CONST	ENDS
;	COMDAT ?Lavender@Colors@DirectX@@3UXMVECTORF32@2@B
CONST	SEGMENT
?Lavender@Colors@DirectX@@3UXMVECTORF32@2@B DD 03f66e6e8r ; 0.901961 ; DirectX::Colors::Lavender
	DD	03f66e6e8r			; 0.901961
	DD	03f7afafcr			; 0.980392
	DD	03f800000r			; 1
CONST	ENDS
;	COMDAT ?Khaki@Colors@DirectX@@3UXMVECTORF32@2@B
CONST	SEGMENT
?Khaki@Colors@DirectX@@3UXMVECTORF32@2@B DD 03f70f0f2r ; 0.941177 ; DirectX::Colors::Khaki
	DD	03f66e6e8r			; 0.901961
	DD	03f0c8c8dr			; 0.54902
	DD	03f800000r			; 1
CONST	ENDS
;	COMDAT ?Ivory@Colors@DirectX@@3UXMVECTORF32@2@B
CONST	SEGMENT
?Ivory@Colors@DirectX@@3UXMVECTORF32@2@B DD 03f800000r ; 1 ; DirectX::Colors::Ivory
	DD	03f800000r			; 1
	DD	03f70f0f2r			; 0.941177
	DD	03f800000r			; 1
CONST	ENDS
;	COMDAT ?Indigo@Colors@DirectX@@3UXMVECTORF32@2@B
CONST	SEGMENT
?Indigo@Colors@DirectX@@3UXMVECTORF32@2@B DD 03e969697r ; 0.294118 ; DirectX::Colors::Indigo
	DD	000000000r			; 0
	DD	03f028283r			; 0.509804
	DD	03f800000r			; 1
CONST	ENDS
;	COMDAT ?IndianRed@Colors@DirectX@@3UXMVECTORF32@2@B
CONST	SEGMENT
?IndianRed@Colors@DirectX@@3UXMVECTORF32@2@B DD 03f4dcdcfr ; 0.803922 ; DirectX::Colors::IndianRed
	DD	03eb8b8b9r			; 0.360784
	DD	03eb8b8b9r			; 0.360784
	DD	03f800000r			; 1
CONST	ENDS
;	COMDAT ?HotPink@Colors@DirectX@@3UXMVECTORF32@2@B
CONST	SEGMENT
?HotPink@Colors@DirectX@@3UXMVECTORF32@2@B DD 03f800000r ; 1 ; DirectX::Colors::HotPink
	DD	03ed2d2d4r			; 0.411765
	DD	03f34b4b5r			; 0.705882
	DD	03f800000r			; 1
CONST	ENDS
;	COMDAT ?Honeydew@Colors@DirectX@@3UXMVECTORF32@2@B
CONST	SEGMENT
?Honeydew@Colors@DirectX@@3UXMVECTORF32@2@B DD 03f70f0f2r ; 0.941177 ; DirectX::Colors::Honeydew
	DD	03f800000r			; 1
	DD	03f70f0f2r			; 0.941177
	DD	03f800000r			; 1
CONST	ENDS
;	COMDAT ?GreenYellow@Colors@DirectX@@3UXMVECTORF32@2@B
CONST	SEGMENT
?GreenYellow@Colors@DirectX@@3UXMVECTORF32@2@B DD 03f2dadaer ; 0.678431 ; DirectX::Colors::GreenYellow
	DD	03f800000r			; 1
	DD	03e3cbcbdr			; 0.184314
	DD	03f800000r			; 1
CONST	ENDS
;	COMDAT ?Green@Colors@DirectX@@3UXMVECTORF32@2@B
CONST	SEGMENT
?Green@Colors@DirectX@@3UXMVECTORF32@2@B DD 000000000r ; 0 ; DirectX::Colors::Green
	DD	03f008081r			; 0.501961
	DD	000000000r			; 0
	DD	03f800000r			; 1
CONST	ENDS
;	COMDAT ?Gray@Colors@DirectX@@3UXMVECTORF32@2@B
CONST	SEGMENT
?Gray@Colors@DirectX@@3UXMVECTORF32@2@B DD 03f008081r ; 0.501961 ; DirectX::Colors::Gray
	DD	03f008081r			; 0.501961
	DD	03f008081r			; 0.501961
	DD	03f800000r			; 1
CONST	ENDS
;	COMDAT ?Goldenrod@Colors@DirectX@@3UXMVECTORF32@2@B
CONST	SEGMENT
?Goldenrod@Colors@DirectX@@3UXMVECTORF32@2@B DD 03f5adadcr ; 0.854902 ; DirectX::Colors::Goldenrod
	DD	03f25a5a6r			; 0.647059
	DD	03e008081r			; 0.12549
	DD	03f800000r			; 1
CONST	ENDS
;	COMDAT ?Gold@Colors@DirectX@@3UXMVECTORF32@2@B
CONST	SEGMENT
?Gold@Colors@DirectX@@3UXMVECTORF32@2@B DD 03f800000r ; 1 ; DirectX::Colors::Gold
	DD	03f57d7d9r			; 0.843137
	DD	000000000r			; 0
	DD	03f800000r			; 1
CONST	ENDS
;	COMDAT ?GhostWhite@Colors@DirectX@@3UXMVECTORF32@2@B
CONST	SEGMENT
?GhostWhite@Colors@DirectX@@3UXMVECTORF32@2@B DD 03f78f8far ; 0.972549 ; DirectX::Colors::GhostWhite
	DD	03f78f8far			; 0.972549
	DD	03f800000r			; 1
	DD	03f800000r			; 1
CONST	ENDS
;	COMDAT ?Gainsboro@Colors@DirectX@@3UXMVECTORF32@2@B
CONST	SEGMENT
?Gainsboro@Colors@DirectX@@3UXMVECTORF32@2@B DD 03f5cdcder ; 0.862745 ; DirectX::Colors::Gainsboro
	DD	03f5cdcder			; 0.862745
	DD	03f5cdcder			; 0.862745
	DD	03f800000r			; 1
CONST	ENDS
;	COMDAT ?Fuchsia@Colors@DirectX@@3UXMVECTORF32@2@B
CONST	SEGMENT
?Fuchsia@Colors@DirectX@@3UXMVECTORF32@2@B DD 03f800000r ; 1 ; DirectX::Colors::Fuchsia
	DD	000000000r			; 0
	DD	03f800000r			; 1
	DD	03f800000r			; 1
CONST	ENDS
;	COMDAT ?ForestGreen@Colors@DirectX@@3UXMVECTORF32@2@B
CONST	SEGMENT
?ForestGreen@Colors@DirectX@@3UXMVECTORF32@2@B DD 03e088889r ; 0.133333 ; DirectX::Colors::ForestGreen
	DD	03f0b8b8cr			; 0.545098
	DD	03e088889r			; 0.133333
	DD	03f800000r			; 1
CONST	ENDS
;	COMDAT ?FloralWhite@Colors@DirectX@@3UXMVECTORF32@2@B
CONST	SEGMENT
?FloralWhite@Colors@DirectX@@3UXMVECTORF32@2@B DD 03f800000r ; 1 ; DirectX::Colors::FloralWhite
	DD	03f7afafcr			; 0.980392
	DD	03f70f0f2r			; 0.941177
	DD	03f800000r			; 1
CONST	ENDS
;	COMDAT ?Firebrick@Colors@DirectX@@3UXMVECTORF32@2@B
CONST	SEGMENT
?Firebrick@Colors@DirectX@@3UXMVECTORF32@2@B DD 03f32b2b3r ; 0.698039 ; DirectX::Colors::Firebrick
	DD	03e088889r			; 0.133333
	DD	03e088889r			; 0.133333
	DD	03f800000r			; 1
CONST	ENDS
;	COMDAT ?DodgerBlue@Colors@DirectX@@3UXMVECTORF32@2@B
CONST	SEGMENT
?DodgerBlue@Colors@DirectX@@3UXMVECTORF32@2@B DD 03df0f0f2r ; 0.117647 ; DirectX::Colors::DodgerBlue
	DD	03f109091r			; 0.564706
	DD	03f800000r			; 1
	DD	03f800000r			; 1
CONST	ENDS
;	COMDAT ?DimGray@Colors@DirectX@@3UXMVECTORF32@2@B
CONST	SEGMENT
?DimGray@Colors@DirectX@@3UXMVECTORF32@2@B DD 03ed2d2d4r ; 0.411765 ; DirectX::Colors::DimGray
	DD	03ed2d2d4r			; 0.411765
	DD	03ed2d2d4r			; 0.411765
	DD	03f800000r			; 1
CONST	ENDS
;	COMDAT ?DeepSkyBlue@Colors@DirectX@@3UXMVECTORF32@2@B
CONST	SEGMENT
?DeepSkyBlue@Colors@DirectX@@3UXMVECTORF32@2@B DD 000000000r ; 0 ; DirectX::Colors::DeepSkyBlue
	DD	03f3fbfc0r			; 0.74902
	DD	03f800000r			; 1
	DD	03f800000r			; 1
CONST	ENDS
;	COMDAT ?DeepPink@Colors@DirectX@@3UXMVECTORF32@2@B
CONST	SEGMENT
?DeepPink@Colors@DirectX@@3UXMVECTORF32@2@B DD 03f800000r ; 1 ; DirectX::Colors::DeepPink
	DD	03da0a0a1r			; 0.0784314
	DD	03f139394r			; 0.576471
	DD	03f800000r			; 1
CONST	ENDS
;	COMDAT ?DarkViolet@Colors@DirectX@@3UXMVECTORF32@2@B
CONST	SEGMENT
?DarkViolet@Colors@DirectX@@3UXMVECTORF32@2@B DD 03f149495r ; 0.580392 ; DirectX::Colors::DarkViolet
	DD	000000000r			; 0
	DD	03f53d3d5r			; 0.827451
	DD	03f800000r			; 1
CONST	ENDS
;	COMDAT ?DarkTurquoise@Colors@DirectX@@3UXMVECTORF32@2@B
CONST	SEGMENT
?DarkTurquoise@Colors@DirectX@@3UXMVECTORF32@2@B DD 000000000r ; 0 ; DirectX::Colors::DarkTurquoise
	DD	03f4eced0r			; 0.807843
	DD	03f51d1d3r			; 0.819608
	DD	03f800000r			; 1
CONST	ENDS
;	COMDAT ?DarkSlateGray@Colors@DirectX@@3UXMVECTORF32@2@B
CONST	SEGMENT
?DarkSlateGray@Colors@DirectX@@3UXMVECTORF32@2@B DD 03e3cbcbdr ; 0.184314 ; DirectX::Colors::DarkSlateGray
	DD	03e9e9e9fr			; 0.309804
	DD	03e9e9e9fr			; 0.309804
	DD	03f800000r			; 1
CONST	ENDS
;	COMDAT ?DarkSlateBlue@Colors@DirectX@@3UXMVECTORF32@2@B
CONST	SEGMENT
?DarkSlateBlue@Colors@DirectX@@3UXMVECTORF32@2@B DD 03e909091r ; 0.282353 ; DirectX::Colors::DarkSlateBlue
	DD	03e74f4f6r			; 0.239216
	DD	03f0b8b8cr			; 0.545098
	DD	03f800000r			; 1
CONST	ENDS
;	COMDAT ?DarkSeaGreen@Colors@DirectX@@3UXMVECTORF32@2@B
CONST	SEGMENT
?DarkSeaGreen@Colors@DirectX@@3UXMVECTORF32@2@B DD 03f0f8f90r ; 0.560784 ; DirectX::Colors::DarkSeaGreen
	DD	03f3cbcbdr			; 0.737255
	DD	03f0b8b8cr			; 0.545098
	DD	03f800000r			; 1
CONST	ENDS
;	COMDAT ?DarkSalmon@Colors@DirectX@@3UXMVECTORF32@2@B
CONST	SEGMENT
?DarkSalmon@Colors@DirectX@@3UXMVECTORF32@2@B DD 03f69e9ebr ; 0.913726 ; DirectX::Colors::DarkSalmon
	DD	03f169697r			; 0.588235
	DD	03ef4f4f6r			; 0.478431
	DD	03f800000r			; 1
CONST	ENDS
;	COMDAT ?DarkRed@Colors@DirectX@@3UXMVECTORF32@2@B
CONST	SEGMENT
?DarkRed@Colors@DirectX@@3UXMVECTORF32@2@B DD 03f0b8b8cr ; 0.545098 ; DirectX::Colors::DarkRed
	DD	000000000r			; 0
	DD	000000000r			; 0
	DD	03f800000r			; 1
CONST	ENDS
;	COMDAT ?DarkOrchid@Colors@DirectX@@3UXMVECTORF32@2@B
CONST	SEGMENT
?DarkOrchid@Colors@DirectX@@3UXMVECTORF32@2@B DD 03f19999ar ; 0.6 ; DirectX::Colors::DarkOrchid
	DD	03e48c8car			; 0.196078
	DD	03f4ccccer			; 0.8
	DD	03f800000r			; 1
CONST	ENDS
;	COMDAT ?DarkOrange@Colors@DirectX@@3UXMVECTORF32@2@B
CONST	SEGMENT
?DarkOrange@Colors@DirectX@@3UXMVECTORF32@2@B DD 03f800000r ; 1 ; DirectX::Colors::DarkOrange
	DD	03f0c8c8dr			; 0.54902
	DD	000000000r			; 0
	DD	03f800000r			; 1
CONST	ENDS
;	COMDAT ?DarkOliveGreen@Colors@DirectX@@3UXMVECTORF32@2@B
CONST	SEGMENT
?DarkOliveGreen@Colors@DirectX@@3UXMVECTORF32@2@B DD 03eaaaaabr ; 0.333333 ; DirectX::Colors::DarkOliveGreen
	DD	03ed6d6d8r			; 0.419608
	DD	03e3cbcbdr			; 0.184314
	DD	03f800000r			; 1
CONST	ENDS
;	COMDAT ?DarkMagenta@Colors@DirectX@@3UXMVECTORF32@2@B
CONST	SEGMENT
?DarkMagenta@Colors@DirectX@@3UXMVECTORF32@2@B DD 03f0b8b8cr ; 0.545098 ; DirectX::Colors::DarkMagenta
	DD	000000000r			; 0
	DD	03f0b8b8cr			; 0.545098
	DD	03f800000r			; 1
CONST	ENDS
;	COMDAT ?DarkKhaki@Colors@DirectX@@3UXMVECTORF32@2@B
CONST	SEGMENT
?DarkKhaki@Colors@DirectX@@3UXMVECTORF32@2@B DD 03f3dbdber ; 0.741176 ; DirectX::Colors::DarkKhaki
	DD	03f37b7b8r			; 0.717647
	DD	03ed6d6d8r			; 0.419608
	DD	03f800000r			; 1
CONST	ENDS
;	COMDAT ?DarkGreen@Colors@DirectX@@3UXMVECTORF32@2@B
CONST	SEGMENT
?DarkGreen@Colors@DirectX@@3UXMVECTORF32@2@B DD 000000000r ; 0 ; DirectX::Colors::DarkGreen
	DD	03ec8c8car			; 0.392157
	DD	000000000r			; 0
	DD	03f800000r			; 1
CONST	ENDS
;	COMDAT ?DarkGray@Colors@DirectX@@3UXMVECTORF32@2@B
CONST	SEGMENT
?DarkGray@Colors@DirectX@@3UXMVECTORF32@2@B DD 03f29a9aar ; 0.662745 ; DirectX::Colors::DarkGray
	DD	03f29a9aar			; 0.662745
	DD	03f29a9aar			; 0.662745
	DD	03f800000r			; 1
CONST	ENDS
;	COMDAT ?DarkGoldenrod@Colors@DirectX@@3UXMVECTORF32@2@B
CONST	SEGMENT
?DarkGoldenrod@Colors@DirectX@@3UXMVECTORF32@2@B DD 03f38b8b9r ; 0.721569 ; DirectX::Colors::DarkGoldenrod
	DD	03f068687r			; 0.52549
	DD	03d30b0b1r			; 0.0431373
	DD	03f800000r			; 1
CONST	ENDS
;	COMDAT ?DarkCyan@Colors@DirectX@@3UXMVECTORF32@2@B
CONST	SEGMENT
?DarkCyan@Colors@DirectX@@3UXMVECTORF32@2@B DD 000000000r ; 0 ; DirectX::Colors::DarkCyan
	DD	03f0b8b8cr			; 0.545098
	DD	03f0b8b8cr			; 0.545098
	DD	03f800000r			; 1
CONST	ENDS
;	COMDAT ?DarkBlue@Colors@DirectX@@3UXMVECTORF32@2@B
CONST	SEGMENT
?DarkBlue@Colors@DirectX@@3UXMVECTORF32@2@B DD 000000000r ; 0 ; DirectX::Colors::DarkBlue
	DD	000000000r			; 0
	DD	03f0b8b8cr			; 0.545098
	DD	03f800000r			; 1
CONST	ENDS
;	COMDAT ?Cyan@Colors@DirectX@@3UXMVECTORF32@2@B
CONST	SEGMENT
?Cyan@Colors@DirectX@@3UXMVECTORF32@2@B DD 000000000r ; 0 ; DirectX::Colors::Cyan
	DD	03f800000r			; 1
	DD	03f800000r			; 1
	DD	03f800000r			; 1
CONST	ENDS
;	COMDAT ?Crimson@Colors@DirectX@@3UXMVECTORF32@2@B
CONST	SEGMENT
?Crimson@Colors@DirectX@@3UXMVECTORF32@2@B DD 03f5cdcder ; 0.862745 ; DirectX::Colors::Crimson
	DD	03da0a0a1r			; 0.0784314
	DD	03e70f0f2r			; 0.235294
	DD	03f800000r			; 1
CONST	ENDS
;	COMDAT ?Cornsilk@Colors@DirectX@@3UXMVECTORF32@2@B
CONST	SEGMENT
?Cornsilk@Colors@DirectX@@3UXMVECTORF32@2@B DD 03f800000r ; 1 ; DirectX::Colors::Cornsilk
	DD	03f78f8far			; 0.972549
	DD	03f5cdcder			; 0.862745
	DD	03f800000r			; 1
CONST	ENDS
;	COMDAT ?CornflowerBlue@Colors@DirectX@@3UXMVECTORF32@2@B
CONST	SEGMENT
?CornflowerBlue@Colors@DirectX@@3UXMVECTORF32@2@B DD 03ec8c8car ; 0.392157 ; DirectX::Colors::CornflowerBlue
	DD	03f159596r			; 0.584314
	DD	03f6dedefr			; 0.929412
	DD	03f800000r			; 1
CONST	ENDS
;	COMDAT ?Coral@Colors@DirectX@@3UXMVECTORF32@2@B
CONST	SEGMENT
?Coral@Colors@DirectX@@3UXMVECTORF32@2@B DD 03f800000r ; 1 ; DirectX::Colors::Coral
	DD	03efeff00r			; 0.498039
	DD	03ea0a0a1r			; 0.313726
	DD	03f800000r			; 1
CONST	ENDS
;	COMDAT ?Chocolate@Colors@DirectX@@3UXMVECTORF32@2@B
CONST	SEGMENT
?Chocolate@Colors@DirectX@@3UXMVECTORF32@2@B DD 03f52d2d4r ; 0.823529 ; DirectX::Colors::Chocolate
	DD	03ed2d2d4r			; 0.411765
	DD	03df0f0f2r			; 0.117647
	DD	03f800000r			; 1
CONST	ENDS
;	COMDAT ?Chartreuse@Colors@DirectX@@3UXMVECTORF32@2@B
CONST	SEGMENT
?Chartreuse@Colors@DirectX@@3UXMVECTORF32@2@B DD 03efeff00r ; 0.498039 ; DirectX::Colors::Chartreuse
	DD	03f800000r			; 1
	DD	000000000r			; 0
	DD	03f800000r			; 1
CONST	ENDS
;	COMDAT ?CadetBlue@Colors@DirectX@@3UXMVECTORF32@2@B
CONST	SEGMENT
?CadetBlue@Colors@DirectX@@3UXMVECTORF32@2@B DD 03ebebebfr ; 0.372549 ; DirectX::Colors::CadetBlue
	DD	03f1e9e9fr			; 0.619608
	DD	03f20a0a1r			; 0.627451
	DD	03f800000r			; 1
CONST	ENDS
;	COMDAT ?BurlyWood@Colors@DirectX@@3UXMVECTORF32@2@B
CONST	SEGMENT
?BurlyWood@Colors@DirectX@@3UXMVECTORF32@2@B DD 03f5edee0r ; 0.870588 ; DirectX::Colors::BurlyWood
	DD	03f38b8b9r			; 0.721569
	DD	03f078788r			; 0.529412
	DD	03f800000r			; 1
CONST	ENDS
;	COMDAT ?Brown@Colors@DirectX@@3UXMVECTORF32@2@B
CONST	SEGMENT
?Brown@Colors@DirectX@@3UXMVECTORF32@2@B DD 03f25a5a6r ; 0.647059 ; DirectX::Colors::Brown
	DD	03e28a8a9r			; 0.164706
	DD	03e28a8a9r			; 0.164706
	DD	03f800000r			; 1
CONST	ENDS
;	COMDAT ?BlueViolet@Colors@DirectX@@3UXMVECTORF32@2@B
CONST	SEGMENT
?BlueViolet@Colors@DirectX@@3UXMVECTORF32@2@B DD 03f0a8a8br ; 0.541176 ; DirectX::Colors::BlueViolet
	DD	03e2cacadr			; 0.168627
	DD	03f62e2e4r			; 0.886275
	DD	03f800000r			; 1
CONST	ENDS
;	COMDAT ?Blue@Colors@DirectX@@3UXMVECTORF32@2@B
CONST	SEGMENT
?Blue@Colors@DirectX@@3UXMVECTORF32@2@B DD 000000000r ; 0 ; DirectX::Colors::Blue
	DD	000000000r			; 0
	DD	03f800000r			; 1
	DD	03f800000r			; 1
CONST	ENDS
;	COMDAT ?BlanchedAlmond@Colors@DirectX@@3UXMVECTORF32@2@B
CONST	SEGMENT
?BlanchedAlmond@Colors@DirectX@@3UXMVECTORF32@2@B DD 03f800000r ; 1 ; DirectX::Colors::BlanchedAlmond
	DD	03f6bebedr			; 0.921569
	DD	03f4dcdcfr			; 0.803922
	DD	03f800000r			; 1
CONST	ENDS
;	COMDAT ?Black@Colors@DirectX@@3UXMVECTORF32@2@B
CONST	SEGMENT
?Black@Colors@DirectX@@3UXMVECTORF32@2@B DD 000000000r ; 0 ; DirectX::Colors::Black
	DD	000000000r			; 0
	DD	000000000r			; 0
	DD	03f800000r			; 1
CONST	ENDS
;	COMDAT ?Bisque@Colors@DirectX@@3UXMVECTORF32@2@B
CONST	SEGMENT
?Bisque@Colors@DirectX@@3UXMVECTORF32@2@B DD 03f800000r ; 1 ; DirectX::Colors::Bisque
	DD	03f64e4e6r			; 0.894118
	DD	03f44c4c6r			; 0.768628
	DD	03f800000r			; 1
CONST	ENDS
;	COMDAT ?Beige@Colors@DirectX@@3UXMVECTORF32@2@B
CONST	SEGMENT
?Beige@Colors@DirectX@@3UXMVECTORF32@2@B DD 03f75f5f7r ; 0.960784 ; DirectX::Colors::Beige
	DD	03f75f5f7r			; 0.960784
	DD	03f5cdcder			; 0.862745
	DD	03f800000r			; 1
CONST	ENDS
;	COMDAT ?Azure@Colors@DirectX@@3UXMVECTORF32@2@B
CONST	SEGMENT
?Azure@Colors@DirectX@@3UXMVECTORF32@2@B DD 03f70f0f2r ; 0.941177 ; DirectX::Colors::Azure
	DD	03f800000r			; 1
	DD	03f800000r			; 1
	DD	03f800000r			; 1
CONST	ENDS
;	COMDAT ?Aquamarine@Colors@DirectX@@3UXMVECTORF32@2@B
CONST	SEGMENT
?Aquamarine@Colors@DirectX@@3UXMVECTORF32@2@B DD 03efeff00r ; 0.498039 ; DirectX::Colors::Aquamarine
	DD	03f800000r			; 1
	DD	03f54d4d6r			; 0.831373
	DD	03f800000r			; 1
CONST	ENDS
;	COMDAT ?Aqua@Colors@DirectX@@3UXMVECTORF32@2@B
CONST	SEGMENT
?Aqua@Colors@DirectX@@3UXMVECTORF32@2@B DD 000000000r ; 0 ; DirectX::Colors::Aqua
	DD	03f800000r			; 1
	DD	03f800000r			; 1
	DD	03f800000r			; 1
CONST	ENDS
;	COMDAT ?AntiqueWhite@Colors@DirectX@@3UXMVECTORF32@2@B
CONST	SEGMENT
?AntiqueWhite@Colors@DirectX@@3UXMVECTORF32@2@B DD 03f7afafcr ; 0.980392 ; DirectX::Colors::AntiqueWhite
	DD	03f6bebedr			; 0.921569
	DD	03f57d7d9r			; 0.843137
	DD	03f800000r			; 1
CONST	ENDS
;	COMDAT ?AliceBlue@Colors@DirectX@@3UXMVECTORF32@2@B
CONST	SEGMENT
?AliceBlue@Colors@DirectX@@3UXMVECTORF32@2@B DD 03f70f0f2r ; 0.941177 ; DirectX::Colors::AliceBlue
	DD	03f78f8far			; 0.972549
	DD	03f800000r			; 1
	DD	03f800000r			; 1
CONST	ENDS
PUBLIC	??_H@YAXPEAX_K1P6APEAX0@Z@Z			; `vector constructor iterator'
PUBLIC	?__empty_global_delete@@YAXPEAX@Z		; __empty_global_delete
PUBLIC	?__empty_global_delete@@YAXPEAX_K@Z		; __empty_global_delete
PUBLIC	?XMConvertToRadians@DirectX@@YAMM@Z		; DirectX::XMConvertToRadians
PUBLIC	??0XMFLOAT3@DirectX@@QEAA@MMM@Z			; DirectX::XMFLOAT3::XMFLOAT3
PUBLIC	?XMVectorSetY@DirectX@@YQ?AT__m128@@T2@M@Z	; DirectX::XMVectorSetY
PUBLIC	??0CFootSmoke@Client@@QEAA@PEAUID3D11Device@@PEAUID3D11DeviceContext@@@Z ; Client::CFootSmoke::CFootSmoke
PUBLIC	??0CFootSmoke@Client@@QEAA@AEBV01@@Z		; Client::CFootSmoke::CFootSmoke
PUBLIC	??1CFootSmoke@Client@@UEAA@XZ			; Client::CFootSmoke::~CFootSmoke
PUBLIC	?Initialize_Prototype@CFootSmoke@Client@@UEAAJXZ ; Client::CFootSmoke::Initialize_Prototype
PUBLIC	?Initialize@CFootSmoke@Client@@UEAAJPEAX@Z	; Client::CFootSmoke::Initialize
PUBLIC	?Tick@CFootSmoke@Client@@UEAAXN@Z		; Client::CFootSmoke::Tick
PUBLIC	?LateTick@CFootSmoke@Client@@UEAAXN@Z		; Client::CFootSmoke::LateTick
PUBLIC	?Render@CFootSmoke@Client@@UEAAJXZ		; Client::CFootSmoke::Render
PUBLIC	?RenderGUI@CFootSmoke@Client@@UEAAXXZ		; Client::CFootSmoke::RenderGUI
PUBLIC	?StartEffect@CFootSmoke@Client@@QEAAXXZ		; Client::CFootSmoke::StartEffect
PUBLIC	?Add_Components@CFootSmoke@Client@@AEAAJXZ	; Client::CFootSmoke::Add_Components
PUBLIC	?Setup_ShaderResources@CFootSmoke@Client@@AEAAJXZ ; Client::CFootSmoke::Setup_ShaderResources
PUBLIC	?Create@CFootSmoke@Client@@SAPEAV12@PEAUID3D11Device@@PEAUID3D11DeviceContext@@@Z ; Client::CFootSmoke::Create
PUBLIC	?Clone@CFootSmoke@Client@@UEAAPEAVCGameObject@Engine@@PEAX@Z ; Client::CFootSmoke::Clone
PUBLIC	?Free@CFootSmoke@Client@@UEAAXXZ		; Client::CFootSmoke::Free
PUBLIC	??_GCFootSmoke@Client@@UEAAPEAXI@Z		; Client::CFootSmoke::`scalar deleting destructor'
PUBLIC	??$Safe_Release@PEAVCFootSmoke@Client@@@Engine@@YAKAEAPEAVCFootSmoke@Client@@@Z ; Engine::Safe_Release<Client::CFootSmoke * __ptr64>
PUBLIC	??$Safe_Release@PEAVCRenderer@Engine@@@Engine@@YAKAEAPEAVCRenderer@0@@Z ; Engine::Safe_Release<Engine::CRenderer * __ptr64>
PUBLIC	??$Safe_Release@PEAVCTransform@Engine@@@Engine@@YAKAEAPEAVCTransform@0@@Z ; Engine::Safe_Release<Engine::CTransform * __ptr64>
PUBLIC	??$Safe_Release@PEAVCModel@Engine@@@Engine@@YAKAEAPEAVCModel@0@@Z ; Engine::Safe_Release<Engine::CModel * __ptr64>
PUBLIC	??$Safe_Release@PEAVCShader@Engine@@@Engine@@YAKAEAPEAVCShader@0@@Z ; Engine::Safe_Release<Engine::CShader * __ptr64>
PUBLIC	??_7CFootSmoke@Client@@6B@			; Client::CFootSmoke::`vftable'
PUBLIC	??_C@_1BM@CJMPMHDD@?$AAc?$AAo?$AAm?$AA_?$AAt?$AAr?$AAa?$AAn?$AAs?$AAf?$AAo?$AAr?$AAm?$AA?$AA@ ; `string'
PUBLIC	??_C@_0BB@FMIBAICL@g_DiffuseTexture?$AA@	; `string'
PUBLIC	??_C@_0L@IHOCIKLF@g_fTimeAcc?$AA@		; `string'
PUBLIC	??_C@_1BK@GIOMOCNE@?$AAc?$AAo?$AAm?$AA_?$AAr?$AAe?$AAn?$AAd?$AAe?$AAr?$AAe?$AAr?$AA?$AA@ ; `string'
PUBLIC	??_C@_1CG@COFFFCLL@?$AAp?$AAr?$AAo?$AAt?$AAo?$AA_?$AAc?$AAo?$AAm?$AA_?$AAr?$AAe?$AAn?$AAd?$AAe?$AAr?$AAe?$AAr?$AA?$AA@ ; `string'
PUBLIC	??_C@_1CI@MLEFGO@?$AAp?$AAr?$AAo?$AAt?$AAo?$AA_?$AAc?$AAo?$AAm?$AA_?$AAt?$AAr?$AAa?$AAn?$AAs?$AAf?$AAo?$AAr?$AAm?$AA?$AA@ ; `string'
PUBLIC	??_C@_1BG@GGOMMBBL@?$AAc?$AAo?$AAm?$AA_?$AAs?$AAh?$AAa?$AAd?$AAe?$AAr?$AA?$AA@ ; `string'
PUBLIC	??_C@_1DE@OMAPGAIH@?$AAp?$AAr?$AAo?$AAt?$AAo?$AA_?$AAc?$AAo?$AAm?$AA_?$AAs?$AAh?$AAa?$AAd?$AAe?$AAr?$AA_?$AAv?$AAt?$AAx?$AAm?$AAo?$AAd?$AAe?$AAl?$AA?$AA@ ; `string'
PUBLIC	??_C@_1BE@MLNOEPCA@?$AAc?$AAo?$AAm?$AA_?$AAm?$AAo?$AAd?$AAe?$AAl?$AA?$AA@ ; `string'
PUBLIC	??_C@_1DE@JOLGDLAL@?$AAp?$AAr?$AAo?$AAt?$AAo?$AA_?$AAc?$AAo?$AAm?$AA_?$AAm?$AAo?$AAd?$AAe?$AAl?$AA_?$AAf?$AAo?$AAo?$AAt?$AAs?$AAm?$AAo?$AAk?$AAe?$AA?$AA@ ; `string'
PUBLIC	??_C@_1BI@IPGKEMA@?$AAc?$AAo?$AAm?$AA_?$AAd?$AAi?$AAf?$AAf?$AAu?$AAs?$AAe?$AA?$AA@ ; `string'
PUBLIC	??_C@_1EG@ELMCKEHA@?$AAp?$AAr?$AAo?$AAt?$AAo?$AA_?$AAc?$AAo?$AAm?$AA_?$AAt?$AAe?$AAx?$AAt?$AAu?$AAr?$AAe?$AA_?$AAf?$AAo?$AAo?$AAt?$AAs?$AAm?$AAo?$AAk?$AAe?$AAd?$AAi?$AAf?$AAf?$AAu@ ; `string'
PUBLIC	??_C@_0O@PFNLPMLD@g_WorldMatrix?$AA@		; `string'
PUBLIC	??_C@_0N@ELIMCBLG@g_ViewMatrix?$AA@		; `string'
PUBLIC	??_C@_0N@OOHDPIO@g_ProjMatrix?$AA@		; `string'
PUBLIC	??_C@_0P@BDEIJKBM@g_vCamPosition?$AA@		; `string'
PUBLIC	??_C@_0M@NHGOLGEL@g_vLightDir?$AA@		; `string'
PUBLIC	??_C@_0BA@PCOGIHOF@g_vLightDiffuse?$AA@		; `string'
PUBLIC	??_C@_0BB@IJIIKIH@g_vLightSpecular?$AA@		; `string'
PUBLIC	??_C@_0BA@EALGDMPJ@g_vLightAmbient?$AA@		; `string'
PUBLIC	?__LINE__Var@?0??Create@CFootSmoke@Client@@SAPEAV23@PEAUID3D11Device@@PEAUID3D11DeviceContext@@@Z@4JA ; `Client::CFootSmoke::Create'::`1'::__LINE__Var
PUBLIC	??_C@_0EH@HCIIJIEH@c?3?2users?2arcco?2documents?2github?2@ ; `string'
PUBLIC	??_C@_1BA@HHOMBECE@?$AAM?$AAe?$AAs?$AAs?$AAa?$AAg?$AAe?$AA?$AA@ ; `string'
PUBLIC	??_C@_1DM@NMKFPPBA@?$AAF?$AAa?$AAi?$AAl?$AAe?$AAd?$AA?5?$AAt?$AAo?$AA?5?$AAC?$AAr?$AAe?$AAa?$AAt?$AAe?$AA?5?$AA?3?$AA?5?$AAC?$AAF?$AAo?$AAo?$AAt?$AAS?$AAm?$AAo?$AAk?$AAe?$AA?$AA@ ; `string'
PUBLIC	?__LINE__Var@?0??Clone@CFootSmoke@Client@@UEAAPEAVCGameObject@Engine@@PEAX@Z@4JA ; `Client::CFootSmoke::Clone'::`1'::__LINE__Var
PUBLIC	??_C@_1DK@MEGNOHBA@?$AAF?$AAa?$AAi?$AAl?$AAe?$AAd?$AA?5?$AAt?$AAo?$AA?5?$AAC?$AAl?$AAo?$AAn?$AAe?$AA?5?$AA?3?$AA?5?$AAC?$AAF?$AAo?$AAo?$AAt?$AAS?$AAm?$AAo?$AAk?$AAe?$AA?$AA@ ; `string'
PUBLIC	??_R4CFootSmoke@Client@@6B@			; Client::CFootSmoke::`RTTI Complete Object Locator'
PUBLIC	??_R0?AVCFootSmoke@Client@@@8			; Client::CFootSmoke `RTTI Type Descriptor'
PUBLIC	??_R3CFootSmoke@Client@@8			; Client::CFootSmoke::`RTTI Class Hierarchy Descriptor'
PUBLIC	??_R2CFootSmoke@Client@@8			; Client::CFootSmoke::`RTTI Base Class Array'
PUBLIC	??_R1A@?0A@EA@CFootSmoke@Client@@8		; Client::CFootSmoke::`RTTI Base Class Descriptor at (0,-1,0,64)'
PUBLIC	??_R1A@?0A@EA@CGameObject@Engine@@8		; Engine::CGameObject::`RTTI Base Class Descriptor at (0,-1,0,64)'
PUBLIC	??_R0?AVCGameObject@Engine@@@8			; Engine::CGameObject `RTTI Type Descriptor'
PUBLIC	??_R3CGameObject@Engine@@8			; Engine::CGameObject::`RTTI Class Hierarchy Descriptor'
PUBLIC	??_R2CGameObject@Engine@@8			; Engine::CGameObject::`RTTI Base Class Array'
PUBLIC	??_R1A@?0A@EA@CBase@Engine@@8			; Engine::CBase::`RTTI Base Class Descriptor at (0,-1,0,64)'
PUBLIC	??_R0?AVCBase@Engine@@@8			; Engine::CBase `RTTI Type Descriptor'
PUBLIC	??_R3CBase@Engine@@8				; Engine::CBase::`RTTI Class Hierarchy Descriptor'
PUBLIC	??_R2CBase@Engine@@8				; Engine::CBase::`RTTI Base Class Array'
PUBLIC	__real@3c8efa35
PUBLIC	__real@3dcccccd
PUBLIC	__real@3f800000
PUBLIC	__real@3ff0000000000000
PUBLIC	__real@4000000000000000
PUBLIC	__real@40400000
PUBLIC	__real@41a00000
EXTRN	??3@YAXPEAX_K@Z:PROC				; operator delete
EXTRN	__imp_MessageBoxW:PROC
EXTRN	??2@YAPEAX_KHPEBDH@Z:PROC			; operator new
EXTRN	??3@YAXPEAXHPEBDH@Z:PROC			; operator delete
EXTRN	__imp_?Release@CBase@Engine@@QEAAKXZ:PROC
EXTRN	__imp_??0CGameObject@Engine@@IEAA@PEAUID3D11Device@@PEAUID3D11DeviceContext@@@Z:PROC
EXTRN	__imp_??0CGameObject@Engine@@IEAA@AEBV01@@Z:PROC
EXTRN	__imp_??1CGameObject@Engine@@MEAA@XZ:PROC
EXTRN	__imp_?Initialize_Prototype@CGameObject@Engine@@UEAAJXZ:PROC
EXTRN	__imp_?Initialize@CGameObject@Engine@@UEAAJPEAX@Z:PROC
EXTRN	__imp_?Tick@CGameObject@Engine@@UEAAXN@Z:PROC
EXTRN	__imp_?LateTick@CGameObject@Engine@@UEAAXN@Z:PROC
EXTRN	__imp_?Render@CGameObject@Engine@@UEAAJXZ:PROC
EXTRN	__imp_?Find_Component@CGameObject@Engine@@QEAAPEAVCComponent@2@PEB_W@Z:PROC
EXTRN	__imp_?Add_Component@CGameObject@Engine@@IEAAJIPEB_W0PEAPEAVCComponent@2@PEAX@Z:PROC
EXTRN	__imp_?Free@CGameObject@Engine@@UEAAXXZ:PROC
EXTRN	??_ECFootSmoke@Client@@UEAAPEAXI@Z:PROC		; Client::CFootSmoke::`vector deleting destructor'
EXTRN	__imp_?Render@CModel@Engine@@QEAAJI@Z:PROC
EXTRN	__imp_?Get_State@CTransform@Engine@@QEAA?AT__m128@@W4STATE@12@@Z:PROC
EXTRN	__imp_?Set_Scale@CTransform@Engine@@QEAAXUXMFLOAT3@DirectX@@@Z:PROC
EXTRN	__imp_?Set_State@CTransform@Engine@@QEAAXW4STATE@12@T__m128@@@Z:PROC
EXTRN	__imp_?Setup_ShaderResource@CTransform@Engine@@QEAAJPEAVCShader@2@PEBD@Z:PROC
EXTRN	__imp_?Add_RenderGroup@CRenderer@Engine@@QEAAJW4RENDER_GROUP@12@PEAVCGameObject@2@@Z:PROC
EXTRN	__imp_?Setup_ShaderResource@CTexture@Engine@@QEAAJPEAVCShader@2@PEBDI@Z:PROC
EXTRN	__imp_?Begin@CShader@Engine@@QEAAJI@Z:PROC
EXTRN	__imp_?SetMatrix@CShader@Engine@@QEAAJPEBDPEBUXMFLOAT4X4@DirectX@@@Z:PROC
EXTRN	__imp_?SetRawValue@CShader@Engine@@QEAAJPEBDPEBXI@Z:PROC
EXTRN	__imp_?GetInstance@CGameInstance@Engine@@SAPEAV12@XZ:PROC
EXTRN	__imp_?Get_Transform_float4x4@CGameInstance@Engine@@QEAA?AUXMFLOAT4X4@DirectX@@W4TRANSFORM_STATE@CPipeLine@2@@Z:PROC
EXTRN	__imp_?Get_CamPosition@CGameInstance@Engine@@QEAA?AUXMFLOAT4@DirectX@@XZ:PROC
EXTRN	__imp_?GetLightDesc@CGameInstance@Engine@@QEAAPEBUtagLight_Desc@2@I@Z:PROC
EXTRN	?GetLengthFromCamera@CGameObject@Engine@@UEAAMXZ:PROC ; Engine::CGameObject::GetLengthFromCamera
EXTRN	_RTC_CheckStackVars:PROC
EXTRN	_RTC_InitBase:PROC
EXTRN	_RTC_Shutdown:PROC
EXTRN	__GSHandlerCheck:PROC
EXTRN	__GSHandlerCheck_EH:PROC
EXTRN	__security_check_cookie:PROC
EXTRN	??_7type_info@@6B@:BYTE				; type_info::`vftable'
EXTRN	__security_cookie:QWORD
EXTRN	_fltused:DWORD
;	COMDAT pdata
pdata	SEGMENT
$pdata$??_H@YAXPEAX_K1P6APEAX0@Z@Z DD imagerel $LN7
	DD	imagerel $LN7+181
	DD	imagerel $unwind$??_H@YAXPEAX_K1P6APEAX0@Z@Z
pdata	ENDS
;	COMDAT pdata
pdata	SEGMENT
$pdata$?__empty_global_delete@@YAXPEAX@Z DD imagerel $LN3
	DD	imagerel $LN3+50
	DD	imagerel $unwind$?__empty_global_delete@@YAXPEAX@Z
pdata	ENDS
;	COMDAT pdata
pdata	SEGMENT
$pdata$?__empty_global_delete@@YAXPEAX_K@Z DD imagerel $LN3
	DD	imagerel $LN3+55
	DD	imagerel $unwind$?__empty_global_delete@@YAXPEAX_K@Z
pdata	ENDS
;	COMDAT pdata
pdata	SEGMENT
$pdata$?XMConvertToRadians@DirectX@@YAMM@Z DD imagerel $LN3
	DD	imagerel $LN3+61
	DD	imagerel $unwind$?XMConvertToRadians@DirectX@@YAMM@Z
pdata	ENDS
;	COMDAT pdata
pdata	SEGMENT
$pdata$??0XMFLOAT3@DirectX@@QEAA@MMM@Z DD imagerel $LN3
	DD	imagerel $LN3+134
	DD	imagerel $unwind$??0XMFLOAT3@DirectX@@QEAA@MMM@Z
pdata	ENDS
;	COMDAT pdata
pdata	SEGMENT
$pdata$?XMVectorSetY@DirectX@@YQ?AT__m128@@T2@M@Z DD imagerel $LN3
	DD	imagerel $LN3+185
	DD	imagerel $unwind$?XMVectorSetY@DirectX@@YQ?AT__m128@@T2@M@Z
pdata	ENDS
;	COMDAT pdata
pdata	SEGMENT
$pdata$??0CFootSmoke@Client@@QEAA@PEAUID3D11Device@@PEAUID3D11DeviceContext@@@Z DD imagerel $LN4
	DD	imagerel $LN4+331
	DD	imagerel $unwind$??0CFootSmoke@Client@@QEAA@PEAUID3D11Device@@PEAUID3D11DeviceContext@@@Z
pdata	ENDS
;	COMDAT pdata
pdata	SEGMENT
$pdata$??0CFootSmoke@Client@@QEAA@AEBV01@@Z DD imagerel $LN4
	DD	imagerel $LN4+319
	DD	imagerel $unwind$??0CFootSmoke@Client@@QEAA@AEBV01@@Z
pdata	ENDS
;	COMDAT pdata
pdata	SEGMENT
$pdata$??1CFootSmoke@Client@@UEAA@XZ DD imagerel $LN3
	DD	imagerel $LN3+65
	DD	imagerel $unwind$??1CFootSmoke@Client@@UEAA@XZ
pdata	ENDS
;	COMDAT pdata
pdata	SEGMENT
$pdata$?Initialize_Prototype@CFootSmoke@Client@@UEAAJXZ DD imagerel $LN4
	DD	imagerel $LN4+78
	DD	imagerel $unwind$?Initialize_Prototype@CFootSmoke@Client@@UEAAJXZ
pdata	ENDS
;	COMDAT pdata
pdata	SEGMENT
$pdata$?Initialize@CFootSmoke@Client@@UEAAJPEAX@Z DD imagerel $LN6
	DD	imagerel $LN6+290
	DD	imagerel $unwind$?Initialize@CFootSmoke@Client@@UEAAJPEAX@Z
pdata	ENDS
;	COMDAT pdata
pdata	SEGMENT
$pdata$?Tick@CFootSmoke@Client@@UEAAXN@Z DD imagerel $LN5
	DD	imagerel $LN5+471
	DD	imagerel $unwind$?Tick@CFootSmoke@Client@@UEAAXN@Z
pdata	ENDS
;	COMDAT pdata
pdata	SEGMENT
$pdata$?LateTick@CFootSmoke@Client@@UEAAXN@Z DD imagerel $LN4
	DD	imagerel $LN4+146
	DD	imagerel $unwind$?LateTick@CFootSmoke@Client@@UEAAXN@Z
pdata	ENDS
;	COMDAT pdata
pdata	SEGMENT
$pdata$?Render@CFootSmoke@Client@@UEAAJXZ DD imagerel $LN9
	DD	imagerel $LN9+332
	DD	imagerel $unwind$?Render@CFootSmoke@Client@@UEAAJXZ
pdata	ENDS
;	COMDAT pdata
pdata	SEGMENT
$pdata$?RenderGUI@CFootSmoke@Client@@UEAAXXZ DD imagerel $LN3
	DD	imagerel $LN3+50
	DD	imagerel $unwind$?RenderGUI@CFootSmoke@Client@@UEAAXXZ
pdata	ENDS
;	COMDAT pdata
pdata	SEGMENT
$pdata$?StartEffect@CFootSmoke@Client@@QEAAXXZ DD imagerel $LN3
	DD	imagerel $LN3+270
	DD	imagerel $unwind$?StartEffect@CFootSmoke@Client@@QEAAXXZ
pdata	ENDS
;	COMDAT pdata
pdata	SEGMENT
$pdata$?Add_Components@CFootSmoke@Client@@AEAAJXZ DD imagerel $LN8
	DD	imagerel $LN8+483
	DD	imagerel $unwind$?Add_Components@CFootSmoke@Client@@AEAAJXZ
pdata	ENDS
;	COMDAT pdata
pdata	SEGMENT
$pdata$?Setup_ShaderResources@CFootSmoke@Client@@AEAAJXZ DD imagerel $LN13
	DD	imagerel $LN13+600
	DD	imagerel $unwind$?Setup_ShaderResources@CFootSmoke@Client@@AEAAJXZ
pdata	ENDS
;	COMDAT pdata
pdata	SEGMENT
$pdata$?Create@CFootSmoke@Client@@SAPEAV12@PEAUID3D11Device@@PEAUID3D11DeviceContext@@@Z DD imagerel $LN7
	DD	imagerel $LN7+294
	DD	imagerel $unwind$?Create@CFootSmoke@Client@@SAPEAV12@PEAUID3D11Device@@PEAUID3D11DeviceContext@@@Z
pdata	ENDS
;	COMDAT pdata
pdata	SEGMENT
$pdata$?dtor$0@?0??Create@CFootSmoke@Client@@SAPEAV12@PEAUID3D11Device@@PEAUID3D11DeviceContext@@@Z@4HA DD imagerel ?dtor$0@?0??Create@CFootSmoke@Client@@SAPEAV12@PEAUID3D11Device@@PEAUID3D11DeviceContext@@@Z@4HA
	DD	imagerel ?dtor$0@?0??Create@CFootSmoke@Client@@SAPEAV12@PEAUID3D11Device@@PEAUID3D11DeviceContext@@@Z@4HA+61
	DD	imagerel $unwind$?dtor$0@?0??Create@CFootSmoke@Client@@SAPEAV12@PEAUID3D11Device@@PEAUID3D11DeviceContext@@@Z@4HA
pdata	ENDS
;	COMDAT pdata
pdata	SEGMENT
$pdata$?Clone@CFootSmoke@Client@@UEAAPEAVCGameObject@Engine@@PEAX@Z DD imagerel $LN7
	DD	imagerel $LN7+294
	DD	imagerel $unwind$?Clone@CFootSmoke@Client@@UEAAPEAVCGameObject@Engine@@PEAX@Z
pdata	ENDS
;	COMDAT pdata
pdata	SEGMENT
$pdata$?dtor$0@?0??Clone@CFootSmoke@Client@@UEAAPEAVCGameObject@Engine@@PEAX@Z@4HA DD imagerel ?dtor$0@?0??Clone@CFootSmoke@Client@@UEAAPEAVCGameObject@Engine@@PEAX@Z@4HA
	DD	imagerel ?dtor$0@?0??Clone@CFootSmoke@Client@@UEAAPEAVCGameObject@Engine@@PEAX@Z@4HA+61
	DD	imagerel $unwind$?dtor$0@?0??Clone@CFootSmoke@Client@@UEAAPEAVCGameObject@Engine@@PEAX@Z@4HA
pdata	ENDS
;	COMDAT pdata
pdata	SEGMENT
$pdata$?Free@CFootSmoke@Client@@UEAAXXZ DD imagerel $LN3
	DD	imagerel $LN3+149
	DD	imagerel $unwind$?Free@CFootSmoke@Client@@UEAAXXZ
pdata	ENDS
;	COMDAT pdata
pdata	SEGMENT
$pdata$??_GCFootSmoke@Client@@UEAAPEAXI@Z DD imagerel $LN4
	DD	imagerel $LN4+105
	DD	imagerel $unwind$??_GCFootSmoke@Client@@UEAAPEAXI@Z
pdata	ENDS
;	COMDAT pdata
pdata	SEGMENT
$pdata$??$Safe_Release@PEAVCFootSmoke@Client@@@Engine@@YAKAEAPEAVCFootSmoke@Client@@@Z DD imagerel $LN5
	DD	imagerel $LN5+114
	DD	imagerel $unwind$??$Safe_Release@PEAVCFootSmoke@Client@@@Engine@@YAKAEAPEAVCFootSmoke@Client@@@Z
pdata	ENDS
;	COMDAT pdata
pdata	SEGMENT
$pdata$??$Safe_Release@PEAVCRenderer@Engine@@@Engine@@YAKAEAPEAVCRenderer@0@@Z DD imagerel $LN5
	DD	imagerel $LN5+114
	DD	imagerel $unwind$??$Safe_Release@PEAVCRenderer@Engine@@@Engine@@YAKAEAPEAVCRenderer@0@@Z
pdata	ENDS
;	COMDAT pdata
pdata	SEGMENT
$pdata$??$Safe_Release@PEAVCTransform@Engine@@@Engine@@YAKAEAPEAVCTransform@0@@Z DD imagerel $LN5
	DD	imagerel $LN5+114
	DD	imagerel $unwind$??$Safe_Release@PEAVCTransform@Engine@@@Engine@@YAKAEAPEAVCTransform@0@@Z
pdata	ENDS
;	COMDAT pdata
pdata	SEGMENT
$pdata$??$Safe_Release@PEAVCModel@Engine@@@Engine@@YAKAEAPEAVCModel@0@@Z DD imagerel $LN5
	DD	imagerel $LN5+114
	DD	imagerel $unwind$??$Safe_Release@PEAVCModel@Engine@@@Engine@@YAKAEAPEAVCModel@0@@Z
pdata	ENDS
;	COMDAT pdata
pdata	SEGMENT
$pdata$??$Safe_Release@PEAVCShader@Engine@@@Engine@@YAKAEAPEAVCShader@0@@Z DD imagerel $LN5
	DD	imagerel $LN5+114
	DD	imagerel $unwind$??$Safe_Release@PEAVCShader@Engine@@@Engine@@YAKAEAPEAVCShader@0@@Z
pdata	ENDS
;	COMDAT __real@41a00000
CONST	SEGMENT
__real@41a00000 DD 041a00000r			; 20
CONST	ENDS
;	COMDAT __real@40400000
CONST	SEGMENT
__real@40400000 DD 040400000r			; 3
CONST	ENDS
;	COMDAT __real@4000000000000000
CONST	SEGMENT
__real@4000000000000000 DQ 04000000000000000r	; 2
CONST	ENDS
;	COMDAT __real@3ff0000000000000
CONST	SEGMENT
__real@3ff0000000000000 DQ 03ff0000000000000r	; 1
CONST	ENDS
;	COMDAT __real@3f800000
CONST	SEGMENT
__real@3f800000 DD 03f800000r			; 1
CONST	ENDS
;	COMDAT __real@3dcccccd
CONST	SEGMENT
__real@3dcccccd DD 03dcccccdr			; 0.1
CONST	ENDS
;	COMDAT __real@3c8efa35
CONST	SEGMENT
__real@3c8efa35 DD 03c8efa35r			; 0.0174533
CONST	ENDS
;	COMDAT rtc$TMZ
rtc$TMZ	SEGMENT
_RTC_Shutdown.rtc$TMZ DQ FLAT:_RTC_Shutdown
rtc$TMZ	ENDS
;	COMDAT rtc$IMZ
rtc$IMZ	SEGMENT
_RTC_InitBase.rtc$IMZ DQ FLAT:_RTC_InitBase
rtc$IMZ	ENDS
;	COMDAT ??_R2CBase@Engine@@8
rdata$r	SEGMENT
??_R2CBase@Engine@@8 DD imagerel ??_R1A@?0A@EA@CBase@Engine@@8 ; Engine::CBase::`RTTI Base Class Array'
	ORG $+3
rdata$r	ENDS
;	COMDAT ??_R3CBase@Engine@@8
rdata$r	SEGMENT
??_R3CBase@Engine@@8 DD 00H				; Engine::CBase::`RTTI Class Hierarchy Descriptor'
	DD	00H
	DD	01H
	DD	imagerel ??_R2CBase@Engine@@8
rdata$r	ENDS
;	COMDAT ??_R0?AVCBase@Engine@@@8
data$r	SEGMENT
??_R0?AVCBase@Engine@@@8 DQ FLAT:??_7type_info@@6B@	; Engine::CBase `RTTI Type Descriptor'
	DQ	0000000000000000H
	DB	'.?AVCBase@Engine@@', 00H
data$r	ENDS
;	COMDAT ??_R1A@?0A@EA@CBase@Engine@@8
rdata$r	SEGMENT
??_R1A@?0A@EA@CBase@Engine@@8 DD imagerel ??_R0?AVCBase@Engine@@@8 ; Engine::CBase::`RTTI Base Class Descriptor at (0,-1,0,64)'
	DD	00H
	DD	00H
	DD	0ffffffffH
	DD	00H
	DD	040H
	DD	imagerel ??_R3CBase@Engine@@8
rdata$r	ENDS
;	COMDAT ??_R2CGameObject@Engine@@8
rdata$r	SEGMENT
??_R2CGameObject@Engine@@8 DD imagerel ??_R1A@?0A@EA@CGameObject@Engine@@8 ; Engine::CGameObject::`RTTI Base Class Array'
	DD	imagerel ??_R1A@?0A@EA@CBase@Engine@@8
	ORG $+3
rdata$r	ENDS
;	COMDAT ??_R3CGameObject@Engine@@8
rdata$r	SEGMENT
??_R3CGameObject@Engine@@8 DD 00H			; Engine::CGameObject::`RTTI Class Hierarchy Descriptor'
	DD	00H
	DD	02H
	DD	imagerel ??_R2CGameObject@Engine@@8
rdata$r	ENDS
;	COMDAT ??_R0?AVCGameObject@Engine@@@8
data$r	SEGMENT
??_R0?AVCGameObject@Engine@@@8 DQ FLAT:??_7type_info@@6B@ ; Engine::CGameObject `RTTI Type Descriptor'
	DQ	0000000000000000H
	DB	'.?AVCGameObject@Engine@@', 00H
data$r	ENDS
;	COMDAT ??_R1A@?0A@EA@CGameObject@Engine@@8
rdata$r	SEGMENT
??_R1A@?0A@EA@CGameObject@Engine@@8 DD imagerel ??_R0?AVCGameObject@Engine@@@8 ; Engine::CGameObject::`RTTI Base Class Descriptor at (0,-1,0,64)'
	DD	01H
	DD	00H
	DD	0ffffffffH
	DD	00H
	DD	040H
	DD	imagerel ??_R3CGameObject@Engine@@8
rdata$r	ENDS
;	COMDAT ??_R1A@?0A@EA@CFootSmoke@Client@@8
rdata$r	SEGMENT
??_R1A@?0A@EA@CFootSmoke@Client@@8 DD imagerel ??_R0?AVCFootSmoke@Client@@@8 ; Client::CFootSmoke::`RTTI Base Class Descriptor at (0,-1,0,64)'
	DD	02H
	DD	00H
	DD	0ffffffffH
	DD	00H
	DD	040H
	DD	imagerel ??_R3CFootSmoke@Client@@8
rdata$r	ENDS
;	COMDAT ??_R2CFootSmoke@Client@@8
rdata$r	SEGMENT
??_R2CFootSmoke@Client@@8 DD imagerel ??_R1A@?0A@EA@CFootSmoke@Client@@8 ; Client::CFootSmoke::`RTTI Base Class Array'
	DD	imagerel ??_R1A@?0A@EA@CGameObject@Engine@@8
	DD	imagerel ??_R1A@?0A@EA@CBase@Engine@@8
	ORG $+3
rdata$r	ENDS
;	COMDAT ??_R3CFootSmoke@Client@@8
rdata$r	SEGMENT
??_R3CFootSmoke@Client@@8 DD 00H			; Client::CFootSmoke::`RTTI Class Hierarchy Descriptor'
	DD	00H
	DD	03H
	DD	imagerel ??_R2CFootSmoke@Client@@8
rdata$r	ENDS
;	COMDAT ??_R0?AVCFootSmoke@Client@@@8
data$r	SEGMENT
??_R0?AVCFootSmoke@Client@@@8 DQ FLAT:??_7type_info@@6B@ ; Client::CFootSmoke `RTTI Type Descriptor'
	DQ	0000000000000000H
	DB	'.?AVCFootSmoke@Client@@', 00H
data$r	ENDS
;	COMDAT ??_R4CFootSmoke@Client@@6B@
rdata$r	SEGMENT
??_R4CFootSmoke@Client@@6B@ DD 01H			; Client::CFootSmoke::`RTTI Complete Object Locator'
	DD	00H
	DD	00H
	DD	imagerel ??_R0?AVCFootSmoke@Client@@@8
	DD	imagerel ??_R3CFootSmoke@Client@@8
	DD	imagerel ??_R4CFootSmoke@Client@@6B@
rdata$r	ENDS
;	COMDAT ??_C@_1DK@MEGNOHBA@?$AAF?$AAa?$AAi?$AAl?$AAe?$AAd?$AA?5?$AAt?$AAo?$AA?5?$AAC?$AAl?$AAo?$AAn?$AAe?$AA?5?$AA?3?$AA?5?$AAC?$AAF?$AAo?$AAo?$AAt?$AAS?$AAm?$AAo?$AAk?$AAe?$AA?$AA@
CONST	SEGMENT
??_C@_1DK@MEGNOHBA@?$AAF?$AAa?$AAi?$AAl?$AAe?$AAd?$AA?5?$AAt?$AAo?$AA?5?$AAC?$AAl?$AAo?$AAn?$AAe?$AA?5?$AA?3?$AA?5?$AAC?$AAF?$AAo?$AAo?$AAt?$AAS?$AAm?$AAo?$AAk?$AAe?$AA?$AA@ DB 'F'
	DB	00H, 'a', 00H, 'i', 00H, 'l', 00H, 'e', 00H, 'd', 00H, ' ', 00H
	DB	't', 00H, 'o', 00H, ' ', 00H, 'C', 00H, 'l', 00H, 'o', 00H, 'n'
	DB	00H, 'e', 00H, ' ', 00H, ':', 00H, ' ', 00H, 'C', 00H, 'F', 00H
	DB	'o', 00H, 'o', 00H, 't', 00H, 'S', 00H, 'm', 00H, 'o', 00H, 'k'
	DB	00H, 'e', 00H, 00H, 00H			; `string'
CONST	ENDS
;	COMDAT ?__LINE__Var@?0??Clone@CFootSmoke@Client@@UEAAPEAVCGameObject@Engine@@PEAX@Z@4JA
_DATA	SEGMENT
?__LINE__Var@?0??Clone@CFootSmoke@Client@@UEAAPEAVCGameObject@Engine@@PEAX@Z@4JA DD 0bbH ; `Client::CFootSmoke::Clone'::`1'::__LINE__Var
_DATA	ENDS
;	COMDAT ??_C@_1DM@NMKFPPBA@?$AAF?$AAa?$AAi?$AAl?$AAe?$AAd?$AA?5?$AAt?$AAo?$AA?5?$AAC?$AAr?$AAe?$AAa?$AAt?$AAe?$AA?5?$AA?3?$AA?5?$AAC?$AAF?$AAo?$AAo?$AAt?$AAS?$AAm?$AAo?$AAk?$AAe?$AA?$AA@
CONST	SEGMENT
??_C@_1DM@NMKFPPBA@?$AAF?$AAa?$AAi?$AAl?$AAe?$AAd?$AA?5?$AAt?$AAo?$AA?5?$AAC?$AAr?$AAe?$AAa?$AAt?$AAe?$AA?5?$AA?3?$AA?5?$AAC?$AAF?$AAo?$AAo?$AAt?$AAS?$AAm?$AAo?$AAk?$AAe?$AA?$AA@ DB 'F'
	DB	00H, 'a', 00H, 'i', 00H, 'l', 00H, 'e', 00H, 'd', 00H, ' ', 00H
	DB	't', 00H, 'o', 00H, ' ', 00H, 'C', 00H, 'r', 00H, 'e', 00H, 'a'
	DB	00H, 't', 00H, 'e', 00H, ' ', 00H, ':', 00H, ' ', 00H, 'C', 00H
	DB	'F', 00H, 'o', 00H, 'o', 00H, 't', 00H, 'S', 00H, 'm', 00H, 'o'
	DB	00H, 'k', 00H, 'e', 00H, 00H, 00H		; `string'
CONST	ENDS
;	COMDAT ??_C@_1BA@HHOMBECE@?$AAM?$AAe?$AAs?$AAs?$AAa?$AAg?$AAe?$AA?$AA@
CONST	SEGMENT
??_C@_1BA@HHOMBECE@?$AAM?$AAe?$AAs?$AAs?$AAa?$AAg?$AAe?$AA?$AA@ DB 'M', 00H
	DB	'e', 00H, 's', 00H, 's', 00H, 'a', 00H, 'g', 00H, 'e', 00H, 00H
	DB	00H						; `string'
CONST	ENDS
;	COMDAT ??_C@_0EH@HCIIJIEH@c?3?2users?2arcco?2documents?2github?2@
CONST	SEGMENT
??_C@_0EH@HCIIJIEH@c?3?2users?2arcco?2documents?2github?2@ DB 'c:\users\a'
	DB	'rcco\documents\github\framework\client\private\footsmoke.cpp', 00H ; `string'
CONST	ENDS
;	COMDAT ?__LINE__Var@?0??Create@CFootSmoke@Client@@SAPEAV23@PEAUID3D11Device@@PEAUID3D11DeviceContext@@@Z@4JA
_DATA	SEGMENT
?__LINE__Var@?0??Create@CFootSmoke@Client@@SAPEAV23@PEAUID3D11Device@@PEAUID3D11DeviceContext@@@Z@4JA DD 0afH ; `Client::CFootSmoke::Create'::`1'::__LINE__Var
_DATA	ENDS
;	COMDAT ??_C@_0BA@EALGDMPJ@g_vLightAmbient?$AA@
CONST	SEGMENT
??_C@_0BA@EALGDMPJ@g_vLightAmbient?$AA@ DB 'g_vLightAmbient', 00H ; `string'
CONST	ENDS
;	COMDAT ??_C@_0BB@IJIIKIH@g_vLightSpecular?$AA@
CONST	SEGMENT
??_C@_0BB@IJIIKIH@g_vLightSpecular?$AA@ DB 'g_vLightSpecular', 00H ; `string'
CONST	ENDS
;	COMDAT ??_C@_0BA@PCOGIHOF@g_vLightDiffuse?$AA@
CONST	SEGMENT
??_C@_0BA@PCOGIHOF@g_vLightDiffuse?$AA@ DB 'g_vLightDiffuse', 00H ; `string'
CONST	ENDS
;	COMDAT ??_C@_0M@NHGOLGEL@g_vLightDir?$AA@
CONST	SEGMENT
??_C@_0M@NHGOLGEL@g_vLightDir?$AA@ DB 'g_vLightDir', 00H ; `string'
CONST	ENDS
;	COMDAT ??_C@_0P@BDEIJKBM@g_vCamPosition?$AA@
CONST	SEGMENT
??_C@_0P@BDEIJKBM@g_vCamPosition?$AA@ DB 'g_vCamPosition', 00H ; `string'
CONST	ENDS
;	COMDAT ??_C@_0N@OOHDPIO@g_ProjMatrix?$AA@
CONST	SEGMENT
??_C@_0N@OOHDPIO@g_ProjMatrix?$AA@ DB 'g_ProjMatrix', 00H ; `string'
CONST	ENDS
;	COMDAT ??_C@_0N@ELIMCBLG@g_ViewMatrix?$AA@
CONST	SEGMENT
??_C@_0N@ELIMCBLG@g_ViewMatrix?$AA@ DB 'g_ViewMatrix', 00H ; `string'
CONST	ENDS
;	COMDAT ??_C@_0O@PFNLPMLD@g_WorldMatrix?$AA@
CONST	SEGMENT
??_C@_0O@PFNLPMLD@g_WorldMatrix?$AA@ DB 'g_WorldMatrix', 00H ; `string'
CONST	ENDS
;	COMDAT ??_C@_1EG@ELMCKEHA@?$AAp?$AAr?$AAo?$AAt?$AAo?$AA_?$AAc?$AAo?$AAm?$AA_?$AAt?$AAe?$AAx?$AAt?$AAu?$AAr?$AAe?$AA_?$AAf?$AAo?$AAo?$AAt?$AAs?$AAm?$AAo?$AAk?$AAe?$AAd?$AAi?$AAf?$AAf?$AAu@
CONST	SEGMENT
??_C@_1EG@ELMCKEHA@?$AAp?$AAr?$AAo?$AAt?$AAo?$AA_?$AAc?$AAo?$AAm?$AA_?$AAt?$AAe?$AAx?$AAt?$AAu?$AAr?$AAe?$AA_?$AAf?$AAo?$AAo?$AAt?$AAs?$AAm?$AAo?$AAk?$AAe?$AAd?$AAi?$AAf?$AAf?$AAu@ DB 'p'
	DB	00H, 'r', 00H, 'o', 00H, 't', 00H, 'o', 00H, '_', 00H, 'c', 00H
	DB	'o', 00H, 'm', 00H, '_', 00H, 't', 00H, 'e', 00H, 'x', 00H, 't'
	DB	00H, 'u', 00H, 'r', 00H, 'e', 00H, '_', 00H, 'f', 00H, 'o', 00H
	DB	'o', 00H, 't', 00H, 's', 00H, 'm', 00H, 'o', 00H, 'k', 00H, 'e'
	DB	00H, 'd', 00H, 'i', 00H, 'f', 00H, 'f', 00H, 'u', 00H, 's', 00H
	DB	'e', 00H, 00H, 00H				; `string'
CONST	ENDS
;	COMDAT ??_C@_1BI@IPGKEMA@?$AAc?$AAo?$AAm?$AA_?$AAd?$AAi?$AAf?$AAf?$AAu?$AAs?$AAe?$AA?$AA@
CONST	SEGMENT
??_C@_1BI@IPGKEMA@?$AAc?$AAo?$AAm?$AA_?$AAd?$AAi?$AAf?$AAf?$AAu?$AAs?$AAe?$AA?$AA@ DB 'c'
	DB	00H, 'o', 00H, 'm', 00H, '_', 00H, 'd', 00H, 'i', 00H, 'f', 00H
	DB	'f', 00H, 'u', 00H, 's', 00H, 'e', 00H, 00H, 00H ; `string'
CONST	ENDS
;	COMDAT ??_C@_1DE@JOLGDLAL@?$AAp?$AAr?$AAo?$AAt?$AAo?$AA_?$AAc?$AAo?$AAm?$AA_?$AAm?$AAo?$AAd?$AAe?$AAl?$AA_?$AAf?$AAo?$AAo?$AAt?$AAs?$AAm?$AAo?$AAk?$AAe?$AA?$AA@
CONST	SEGMENT
??_C@_1DE@JOLGDLAL@?$AAp?$AAr?$AAo?$AAt?$AAo?$AA_?$AAc?$AAo?$AAm?$AA_?$AAm?$AAo?$AAd?$AAe?$AAl?$AA_?$AAf?$AAo?$AAo?$AAt?$AAs?$AAm?$AAo?$AAk?$AAe?$AA?$AA@ DB 'p'
	DB	00H, 'r', 00H, 'o', 00H, 't', 00H, 'o', 00H, '_', 00H, 'c', 00H
	DB	'o', 00H, 'm', 00H, '_', 00H, 'm', 00H, 'o', 00H, 'd', 00H, 'e'
	DB	00H, 'l', 00H, '_', 00H, 'f', 00H, 'o', 00H, 'o', 00H, 't', 00H
	DB	's', 00H, 'm', 00H, 'o', 00H, 'k', 00H, 'e', 00H, 00H, 00H ; `string'
CONST	ENDS
;	COMDAT ??_C@_1BE@MLNOEPCA@?$AAc?$AAo?$AAm?$AA_?$AAm?$AAo?$AAd?$AAe?$AAl?$AA?$AA@
CONST	SEGMENT
??_C@_1BE@MLNOEPCA@?$AAc?$AAo?$AAm?$AA_?$AAm?$AAo?$AAd?$AAe?$AAl?$AA?$AA@ DB 'c'
	DB	00H, 'o', 00H, 'm', 00H, '_', 00H, 'm', 00H, 'o', 00H, 'd', 00H
	DB	'e', 00H, 'l', 00H, 00H, 00H			; `string'
CONST	ENDS
;	COMDAT ??_C@_1DE@OMAPGAIH@?$AAp?$AAr?$AAo?$AAt?$AAo?$AA_?$AAc?$AAo?$AAm?$AA_?$AAs?$AAh?$AAa?$AAd?$AAe?$AAr?$AA_?$AAv?$AAt?$AAx?$AAm?$AAo?$AAd?$AAe?$AAl?$AA?$AA@
CONST	SEGMENT
??_C@_1DE@OMAPGAIH@?$AAp?$AAr?$AAo?$AAt?$AAo?$AA_?$AAc?$AAo?$AAm?$AA_?$AAs?$AAh?$AAa?$AAd?$AAe?$AAr?$AA_?$AAv?$AAt?$AAx?$AAm?$AAo?$AAd?$AAe?$AAl?$AA?$AA@ DB 'p'
	DB	00H, 'r', 00H, 'o', 00H, 't', 00H, 'o', 00H, '_', 00H, 'c', 00H
	DB	'o', 00H, 'm', 00H, '_', 00H, 's', 00H, 'h', 00H, 'a', 00H, 'd'
	DB	00H, 'e', 00H, 'r', 00H, '_', 00H, 'v', 00H, 't', 00H, 'x', 00H
	DB	'm', 00H, 'o', 00H, 'd', 00H, 'e', 00H, 'l', 00H, 00H, 00H ; `string'
CONST	ENDS
;	COMDAT ??_C@_1BG@GGOMMBBL@?$AAc?$AAo?$AAm?$AA_?$AAs?$AAh?$AAa?$AAd?$AAe?$AAr?$AA?$AA@
CONST	SEGMENT
??_C@_1BG@GGOMMBBL@?$AAc?$AAo?$AAm?$AA_?$AAs?$AAh?$AAa?$AAd?$AAe?$AAr?$AA?$AA@ DB 'c'
	DB	00H, 'o', 00H, 'm', 00H, '_', 00H, 's', 00H, 'h', 00H, 'a', 00H
	DB	'd', 00H, 'e', 00H, 'r', 00H, 00H, 00H	; `string'
CONST	ENDS
;	COMDAT ??_C@_1CI@MLEFGO@?$AAp?$AAr?$AAo?$AAt?$AAo?$AA_?$AAc?$AAo?$AAm?$AA_?$AAt?$AAr?$AAa?$AAn?$AAs?$AAf?$AAo?$AAr?$AAm?$AA?$AA@
CONST	SEGMENT
??_C@_1CI@MLEFGO@?$AAp?$AAr?$AAo?$AAt?$AAo?$AA_?$AAc?$AAo?$AAm?$AA_?$AAt?$AAr?$AAa?$AAn?$AAs?$AAf?$AAo?$AAr?$AAm?$AA?$AA@ DB 'p'
	DB	00H, 'r', 00H, 'o', 00H, 't', 00H, 'o', 00H, '_', 00H, 'c', 00H
	DB	'o', 00H, 'm', 00H, '_', 00H, 't', 00H, 'r', 00H, 'a', 00H, 'n'
	DB	00H, 's', 00H, 'f', 00H, 'o', 00H, 'r', 00H, 'm', 00H, 00H, 00H ; `string'
CONST	ENDS
;	COMDAT ??_C@_1CG@COFFFCLL@?$AAp?$AAr?$AAo?$AAt?$AAo?$AA_?$AAc?$AAo?$AAm?$AA_?$AAr?$AAe?$AAn?$AAd?$AAe?$AAr?$AAe?$AAr?$AA?$AA@
CONST	SEGMENT
??_C@_1CG@COFFFCLL@?$AAp?$AAr?$AAo?$AAt?$AAo?$AA_?$AAc?$AAo?$AAm?$AA_?$AAr?$AAe?$AAn?$AAd?$AAe?$AAr?$AAe?$AAr?$AA?$AA@ DB 'p'
	DB	00H, 'r', 00H, 'o', 00H, 't', 00H, 'o', 00H, '_', 00H, 'c', 00H
	DB	'o', 00H, 'm', 00H, '_', 00H, 'r', 00H, 'e', 00H, 'n', 00H, 'd'
	DB	00H, 'e', 00H, 'r', 00H, 'e', 00H, 'r', 00H, 00H, 00H ; `string'
CONST	ENDS
;	COMDAT ??_C@_1BK@GIOMOCNE@?$AAc?$AAo?$AAm?$AA_?$AAr?$AAe?$AAn?$AAd?$AAe?$AAr?$AAe?$AAr?$AA?$AA@
CONST	SEGMENT
??_C@_1BK@GIOMOCNE@?$AAc?$AAo?$AAm?$AA_?$AAr?$AAe?$AAn?$AAd?$AAe?$AAr?$AAe?$AAr?$AA?$AA@ DB 'c'
	DB	00H, 'o', 00H, 'm', 00H, '_', 00H, 'r', 00H, 'e', 00H, 'n', 00H
	DB	'd', 00H, 'e', 00H, 'r', 00H, 'e', 00H, 'r', 00H, 00H, 00H ; `string'
CONST	ENDS
;	COMDAT ??_C@_0L@IHOCIKLF@g_fTimeAcc?$AA@
CONST	SEGMENT
??_C@_0L@IHOCIKLF@g_fTimeAcc?$AA@ DB 'g_fTimeAcc', 00H	; `string'
CONST	ENDS
;	COMDAT ??_C@_0BB@FMIBAICL@g_DiffuseTexture?$AA@
CONST	SEGMENT
??_C@_0BB@FMIBAICL@g_DiffuseTexture?$AA@ DB 'g_DiffuseTexture', 00H ; `string'
CONST	ENDS
;	COMDAT ??_C@_1BM@CJMPMHDD@?$AAc?$AAo?$AAm?$AA_?$AAt?$AAr?$AAa?$AAn?$AAs?$AAf?$AAo?$AAr?$AAm?$AA?$AA@
CONST	SEGMENT
??_C@_1BM@CJMPMHDD@?$AAc?$AAo?$AAm?$AA_?$AAt?$AAr?$AAa?$AAn?$AAs?$AAf?$AAo?$AAr?$AAm?$AA?$AA@ DB 'c'
	DB	00H, 'o', 00H, 'm', 00H, '_', 00H, 't', 00H, 'r', 00H, 'a', 00H
	DB	'n', 00H, 's', 00H, 'f', 00H, 'o', 00H, 'r', 00H, 'm', 00H, 00H
	DB	00H						; `string'
CONST	ENDS
;	COMDAT ??_7CFootSmoke@Client@@6B@
CONST	SEGMENT
??_7CFootSmoke@Client@@6B@ DQ FLAT:??_R4CFootSmoke@Client@@6B@ ; Client::CFootSmoke::`vftable'
	DQ	FLAT:??_ECFootSmoke@Client@@UEAAPEAXI@Z
	DQ	FLAT:?Free@CFootSmoke@Client@@UEAAXXZ
	DQ	FLAT:?Initialize_Prototype@CFootSmoke@Client@@UEAAJXZ
	DQ	FLAT:?Initialize@CFootSmoke@Client@@UEAAJPEAX@Z
	DQ	FLAT:?Tick@CFootSmoke@Client@@UEAAXN@Z
	DQ	FLAT:?LateTick@CFootSmoke@Client@@UEAAXN@Z
	DQ	FLAT:?Render@CFootSmoke@Client@@UEAAJXZ
	DQ	FLAT:?RenderGUI@CFootSmoke@Client@@UEAAXXZ
	DQ	FLAT:?GetLengthFromCamera@CGameObject@Engine@@UEAAMXZ
	DQ	FLAT:?Clone@CFootSmoke@Client@@UEAAPEAVCGameObject@Engine@@PEAX@Z
CONST	ENDS
;	COMDAT xdata
xdata	SEGMENT
$unwind$??$Safe_Release@PEAVCShader@Engine@@@Engine@@YAKAEAPEAVCShader@0@@Z DD 025052a01H
	DD	010e2313H
	DD	070070021H
	DD	05006H
xdata	ENDS
;	COMDAT xdata
xdata	SEGMENT
$unwind$??$Safe_Release@PEAVCModel@Engine@@@Engine@@YAKAEAPEAVCModel@0@@Z DD 025052a01H
	DD	010e2313H
	DD	070070021H
	DD	05006H
xdata	ENDS
;	COMDAT xdata
xdata	SEGMENT
$unwind$??$Safe_Release@PEAVCTransform@Engine@@@Engine@@YAKAEAPEAVCTransform@0@@Z DD 025052a01H
	DD	010e2313H
	DD	070070021H
	DD	05006H
xdata	ENDS
;	COMDAT xdata
xdata	SEGMENT
$unwind$??$Safe_Release@PEAVCRenderer@Engine@@@Engine@@YAKAEAPEAVCRenderer@0@@Z DD 025052a01H
	DD	010e2313H
	DD	070070021H
	DD	05006H
xdata	ENDS
;	COMDAT xdata
xdata	SEGMENT
$unwind$??$Safe_Release@PEAVCFootSmoke@Client@@@Engine@@YAKAEAPEAVCFootSmoke@Client@@@Z DD 025052a01H
	DD	010e2313H
	DD	070070021H
	DD	05006H
xdata	ENDS
;	COMDAT xdata
xdata	SEGMENT
$unwind$??_GCFootSmoke@Client@@UEAAPEAXI@Z DD 025052e01H
	DD	01122317H
	DD	0700b001dH
	DD	0500aH
xdata	ENDS
;	COMDAT xdata
xdata	SEGMENT
$unwind$?Free@CFootSmoke@Client@@UEAAXXZ DD 025052a01H
	DD	010e2313H
	DD	07007001dH
	DD	05006H
xdata	ENDS
;	COMDAT xdata
xdata	SEGMENT
$unwind$?dtor$0@?0??Clone@CFootSmoke@Client@@UEAAPEAVCGameObject@Engine@@PEAX@Z@4HA DD 031001H
	DD	0700c4210H
	DD	0500bH
xdata	ENDS
;	COMDAT xdata
xdata	SEGMENT
$ip2state$?Clone@CFootSmoke@Client@@UEAAPEAVCGameObject@Engine@@PEAX@Z DD imagerel ?Clone@CFootSmoke@Client@@UEAAPEAVCGameObject@Engine@@PEAX@Z
	DD	0ffffffffH
	DD	imagerel ?Clone@CFootSmoke@Client@@UEAAPEAVCGameObject@Engine@@PEAX@Z+115
	DD	00H
	DD	imagerel ?Clone@CFootSmoke@Client@@UEAAPEAVCGameObject@Engine@@PEAX@Z+178
	DD	0ffffffffH
xdata	ENDS
;	COMDAT xdata
xdata	SEGMENT
$stateUnwindMap$?Clone@CFootSmoke@Client@@UEAAPEAVCGameObject@Engine@@PEAX@Z DD 0ffffffffH
	DD	imagerel ?dtor$0@?0??Clone@CFootSmoke@Client@@UEAAPEAVCGameObject@Engine@@PEAX@Z@4HA
xdata	ENDS
;	COMDAT xdata
xdata	SEGMENT
$unwind$?Clone@CFootSmoke@Client@@UEAAPEAVCGameObject@Engine@@PEAX@Z DD 025054b19H
	DD	01132318H
	DD	0700c002fH
	DD	0500bH
	DD	imagerel __GSHandlerCheck_EH
	DD	imagerel $cppxdata$?Clone@CFootSmoke@Client@@UEAAPEAVCGameObject@Engine@@PEAX@Z
	DD	0162H
xdata	ENDS
;	COMDAT CONST
CONST	SEGMENT
?Clone@CFootSmoke@Client@@UEAAPEAVCGameObject@Engine@@PEAX@Z$rtcName$0 DB 070H ; Client::CFootSmoke::Clone
	DB	049H
	DB	06eH
	DB	073H
	DB	074H
	DB	061H
	DB	06eH
	DB	063H
	DB	065H
	DB	00H
	ORG $+6
?Clone@CFootSmoke@Client@@UEAAPEAVCGameObject@Engine@@PEAX@Z$rtcVarDesc DD 028H ; Client::CFootSmoke::Clone
	DD	08H
	DQ	FLAT:?Clone@CFootSmoke@Client@@UEAAPEAVCGameObject@Engine@@PEAX@Z$rtcName$0
	ORG $+48
?Clone@CFootSmoke@Client@@UEAAPEAVCGameObject@Engine@@PEAX@Z$rtcFrameData DD 01H ; Client::CFootSmoke::Clone
	DD	00H
	DQ	FLAT:?Clone@CFootSmoke@Client@@UEAAPEAVCGameObject@Engine@@PEAX@Z$rtcVarDesc
$cppxdata$?Clone@CFootSmoke@Client@@UEAAPEAVCGameObject@Engine@@PEAX@Z DD 019930522H
	DD	01H
	DD	imagerel $stateUnwindMap$?Clone@CFootSmoke@Client@@UEAAPEAVCGameObject@Engine@@PEAX@Z
	DD	00H
	DD	00H
	DD	03H
	DD	imagerel $ip2state$?Clone@CFootSmoke@Client@@UEAAPEAVCGameObject@Engine@@PEAX@Z
	DD	0148H
	DD	00H
	DD	01H
CONST	ENDS
;	COMDAT xdata
xdata	SEGMENT
$unwind$?dtor$0@?0??Create@CFootSmoke@Client@@SAPEAV12@PEAUID3D11Device@@PEAUID3D11DeviceContext@@@Z@4HA DD 031001H
	DD	0700c4210H
	DD	0500bH
xdata	ENDS
;	COMDAT xdata
xdata	SEGMENT
$ip2state$?Create@CFootSmoke@Client@@SAPEAV12@PEAUID3D11Device@@PEAUID3D11DeviceContext@@@Z DD imagerel ?Create@CFootSmoke@Client@@SAPEAV12@PEAUID3D11Device@@PEAUID3D11DeviceContext@@@Z
	DD	0ffffffffH
	DD	imagerel ?Create@CFootSmoke@Client@@SAPEAV12@PEAUID3D11Device@@PEAUID3D11DeviceContext@@@Z+115
	DD	00H
	DD	imagerel ?Create@CFootSmoke@Client@@SAPEAV12@PEAUID3D11Device@@PEAUID3D11DeviceContext@@@Z+185
	DD	0ffffffffH
xdata	ENDS
;	COMDAT xdata
xdata	SEGMENT
$stateUnwindMap$?Create@CFootSmoke@Client@@SAPEAV12@PEAUID3D11Device@@PEAUID3D11DeviceContext@@@Z DD 0ffffffffH
	DD	imagerel ?dtor$0@?0??Create@CFootSmoke@Client@@SAPEAV12@PEAUID3D11Device@@PEAUID3D11DeviceContext@@@Z@4HA
xdata	ENDS
;	COMDAT xdata
xdata	SEGMENT
$unwind$?Create@CFootSmoke@Client@@SAPEAV12@PEAUID3D11Device@@PEAUID3D11DeviceContext@@@Z DD 025054b19H
	DD	01132318H
	DD	0700c002fH
	DD	0500bH
	DD	imagerel __GSHandlerCheck_EH
	DD	imagerel $cppxdata$?Create@CFootSmoke@Client@@SAPEAV12@PEAUID3D11Device@@PEAUID3D11DeviceContext@@@Z
	DD	0162H
xdata	ENDS
;	COMDAT CONST
CONST	SEGMENT
?Create@CFootSmoke@Client@@SAPEAV12@PEAUID3D11Device@@PEAUID3D11DeviceContext@@@Z$rtcName$0 DB 070H ; Client::CFootSmoke::Create
	DB	049H
	DB	06eH
	DB	073H
	DB	074H
	DB	061H
	DB	06eH
	DB	063H
	DB	065H
	DB	00H
	ORG $+6
?Create@CFootSmoke@Client@@SAPEAV12@PEAUID3D11Device@@PEAUID3D11DeviceContext@@@Z$rtcVarDesc DD 028H ; Client::CFootSmoke::Create
	DD	08H
	DQ	FLAT:?Create@CFootSmoke@Client@@SAPEAV12@PEAUID3D11Device@@PEAUID3D11DeviceContext@@@Z$rtcName$0
	ORG $+48
?Create@CFootSmoke@Client@@SAPEAV12@PEAUID3D11Device@@PEAUID3D11DeviceContext@@@Z$rtcFrameData DD 01H ; Client::CFootSmoke::Create
	DD	00H
	DQ	FLAT:?Create@CFootSmoke@Client@@SAPEAV12@PEAUID3D11Device@@PEAUID3D11DeviceContext@@@Z$rtcVarDesc
$cppxdata$?Create@CFootSmoke@Client@@SAPEAV12@PEAUID3D11Device@@PEAUID3D11DeviceContext@@@Z DD 019930522H
	DD	01H
	DD	imagerel $stateUnwindMap$?Create@CFootSmoke@Client@@SAPEAV12@PEAUID3D11Device@@PEAUID3D11DeviceContext@@@Z
	DD	00H
	DD	00H
	DD	03H
	DD	imagerel $ip2state$?Create@CFootSmoke@Client@@SAPEAV12@PEAUID3D11Device@@PEAUID3D11DeviceContext@@@Z
	DD	0148H
	DD	00H
	DD	01H
CONST	ENDS
;	COMDAT xdata
xdata	SEGMENT
$unwind$?Setup_ShaderResources@CFootSmoke@Client@@AEAAJXZ DD 025052a01H
	DD	010e2313H
	DD	070070043H
	DD	05006H
xdata	ENDS
;	COMDAT xdata
xdata	SEGMENT
$unwind$?Add_Components@CFootSmoke@Client@@AEAAJXZ DD 035053b19H
	DD	010e3313H
	DD	070070023H
	DD	05006H
	DD	imagerel __GSHandlerCheck
	DD	0108H
xdata	ENDS
;	COMDAT CONST
CONST	SEGMENT
?Add_Components@CFootSmoke@Client@@AEAAJXZ$rtcName$0 DB 064H ; Client::CFootSmoke::Add_Components
	DB	065H
	DB	073H
	DB	063H
	DB	00H
	ORG $+11
?Add_Components@CFootSmoke@Client@@AEAAJXZ$rtcVarDesc DD 038H ; Client::CFootSmoke::Add_Components
	DD	08H
	DQ	FLAT:?Add_Components@CFootSmoke@Client@@AEAAJXZ$rtcName$0
	ORG $+48
?Add_Components@CFootSmoke@Client@@AEAAJXZ$rtcFrameData DD 01H ; Client::CFootSmoke::Add_Components
	DD	00H
	DQ	FLAT:?Add_Components@CFootSmoke@Client@@AEAAJXZ$rtcVarDesc
CONST	ENDS
;	COMDAT xdata
xdata	SEGMENT
$unwind$?StartEffect@CFootSmoke@Client@@QEAAXXZ DD 025053b19H
	DD	010e2313H
	DD	07007002fH
	DD	05006H
	DD	imagerel __GSHandlerCheck
	DD	0168H
xdata	ENDS
;	COMDAT CONST
CONST	SEGMENT
?StartEffect@CFootSmoke@Client@@QEAAXXZ$rtcName$0 DB 076H ; Client::CFootSmoke::StartEffect
	DB	04fH
	DB	077H
	DB	06eH
	DB	065H
	DB	072H
	DB	050H
	DB	06fH
	DB	073H
	DB	00H
	ORG $+6
?StartEffect@CFootSmoke@Client@@QEAAXXZ$rtcVarDesc DD 030H ; Client::CFootSmoke::StartEffect
	DD	010H
	DQ	FLAT:?StartEffect@CFootSmoke@Client@@QEAAXXZ$rtcName$0
	ORG $+48
?StartEffect@CFootSmoke@Client@@QEAAXXZ$rtcFrameData DD 01H ; Client::CFootSmoke::StartEffect
	DD	00H
	DQ	FLAT:?StartEffect@CFootSmoke@Client@@QEAAXXZ$rtcVarDesc
CONST	ENDS
;	COMDAT xdata
xdata	SEGMENT
$unwind$?RenderGUI@CFootSmoke@Client@@UEAAXXZ DD 05052801H
	DD	010e0311H
	DD	070070019H
	DD	05006H
xdata	ENDS
;	COMDAT xdata
xdata	SEGMENT
$unwind$?Render@CFootSmoke@Client@@UEAAJXZ DD 025052a01H
	DD	010e2313H
	DD	07007001fH
	DD	05006H
xdata	ENDS
;	COMDAT xdata
xdata	SEGMENT
$unwind$?LateTick@CFootSmoke@Client@@UEAAXN@Z DD 025053001H
	DD	01142319H
	DD	0700d001dH
	DD	0500cH
xdata	ENDS
;	COMDAT xdata
xdata	SEGMENT
$unwind$?Tick@CFootSmoke@Client@@UEAAXN@Z DD 025063101H
	DD	0115231aH
	DD	0700e0030H
	DD	0500c600dH
xdata	ENDS
;	COMDAT xdata
xdata	SEGMENT
$unwind$?Initialize@CFootSmoke@Client@@UEAAJPEAX@Z DD 025063001H
	DD	01142319H
	DD	0700d0026H
	DD	0500b600cH
xdata	ENDS
;	COMDAT xdata
xdata	SEGMENT
$unwind$?Initialize_Prototype@CFootSmoke@Client@@UEAAJXZ DD 025052a01H
	DD	010e2313H
	DD	07007001dH
	DD	05006H
xdata	ENDS
;	COMDAT xdata
xdata	SEGMENT
$unwind$??1CFootSmoke@Client@@UEAA@XZ DD 025052a01H
	DD	010e2313H
	DD	07007001dH
	DD	05006H
xdata	ENDS
;	COMDAT xdata
xdata	SEGMENT
$unwind$??0CFootSmoke@Client@@QEAA@AEBV01@@Z DD 025052f01H
	DD	01132318H
	DD	0700c001dH
	DD	0500bH
xdata	ENDS
;	COMDAT xdata
xdata	SEGMENT
$unwind$??0CFootSmoke@Client@@QEAA@PEAUID3D11Device@@PEAUID3D11DeviceContext@@@Z DD 025053401H
	DD	0118231dH
	DD	07011001dH
	DD	05010H
xdata	ENDS
;	COMDAT xdata
xdata	SEGMENT
$unwind$?XMVectorSetY@DirectX@@YQ?AT__m128@@T2@M@Z DD 015052f01H
	DD	010f1314H
	DD	070080045H
	DD	05007H
xdata	ENDS
;	COMDAT xdata
xdata	SEGMENT
$unwind$??0XMFLOAT3@DirectX@@QEAA@MMM@Z DD 05053a01H
	DD	01200323H
	DD	070190019H
	DD	05018H
xdata	ENDS
;	COMDAT xdata
xdata	SEGMENT
$unwind$?XMConvertToRadians@DirectX@@YAMM@Z DD 015052301H
	DD	010f1314H
	DD	07008001bH
	DD	05007H
xdata	ENDS
;	COMDAT xdata
xdata	SEGMENT
$unwind$?__empty_global_delete@@YAXPEAX_K@Z DD 05052d01H
	DD	01130316H
	DD	0700c0019H
	DD	0500bH
xdata	ENDS
;	COMDAT xdata
xdata	SEGMENT
$unwind$?__empty_global_delete@@YAXPEAX@Z DD 05052801H
	DD	010e0311H
	DD	070070019H
	DD	05006H
xdata	ENDS
;	COMDAT xdata
xdata	SEGMENT
$unwind$??_H@YAXPEAX_K1P6APEAX0@Z@Z DD 025053901H
	DD	011d2322H
	DD	07016001fH
	DD	05015H
xdata	ENDS
; Function compile flags: /Odtp /RTCsu /ZI
; File c:\users\arcco\documents\github\framework\reference\headers\engine_template.h
;	COMDAT ??$Safe_Release@PEAVCShader@Engine@@@Engine@@YAKAEAPEAVCShader@0@@Z
_TEXT	SEGMENT
dwRefCnt$ = 4
classType$ = 256
??$Safe_Release@PEAVCShader@Engine@@@Engine@@YAKAEAPEAVCShader@0@@Z PROC ; Engine::Safe_Release<Engine::CShader * __ptr64>, COMDAT

; 18   : 	{

$LN5:
  00000	48 89 4c 24 08	 mov	 QWORD PTR [rsp+8], rcx
  00005	55		 push	 rbp
  00006	57		 push	 rdi
  00007	48 81 ec 08 01
	00 00		 sub	 rsp, 264		; 00000108H
  0000e	48 8d 6c 24 20	 lea	 rbp, QWORD PTR [rsp+32]
  00013	48 8b fc	 mov	 rdi, rsp
  00016	b9 42 00 00 00	 mov	 ecx, 66			; 00000042H
  0001b	b8 cc cc cc cc	 mov	 eax, -858993460		; ccccccccH
  00020	f3 ab		 rep stosd
  00022	48 8b 8c 24 28
	01 00 00	 mov	 rcx, QWORD PTR [rsp+296]

; 19   : 		unsigned long dwRefCnt = 0;

  0002a	c7 45 04 00 00
	00 00		 mov	 DWORD PTR dwRefCnt$[rbp], 0

; 20   : 
; 21   : 		if (nullptr != classType)

  00031	48 8b 85 00 01
	00 00		 mov	 rax, QWORD PTR classType$[rbp]
  00038	48 83 38 00	 cmp	 QWORD PTR [rax], 0
  0003c	74 27		 je	 SHORT $LN2@Safe_Relea

; 22   : 		{
; 23   : 			dwRefCnt = classType->Release();

  0003e	48 8b 85 00 01
	00 00		 mov	 rax, QWORD PTR classType$[rbp]
  00045	48 8b 08	 mov	 rcx, QWORD PTR [rax]
  00048	ff 15 00 00 00
	00		 call	 QWORD PTR __imp_?Release@CBase@Engine@@QEAAKXZ
  0004e	89 45 04	 mov	 DWORD PTR dwRefCnt$[rbp], eax

; 24   : 
; 25   : 			if (0 == dwRefCnt)

  00051	83 7d 04 00	 cmp	 DWORD PTR dwRefCnt$[rbp], 0
  00055	75 0e		 jne	 SHORT $LN3@Safe_Relea

; 26   : 			{
; 27   : 				classType = nullptr;

  00057	48 8b 85 00 01
	00 00		 mov	 rax, QWORD PTR classType$[rbp]
  0005e	48 c7 00 00 00
	00 00		 mov	 QWORD PTR [rax], 0
$LN3@Safe_Relea:
$LN2@Safe_Relea:

; 28   : 			}
; 29   : 		}
; 30   : 
; 31   : 		return dwRefCnt;

  00065	8b 45 04	 mov	 eax, DWORD PTR dwRefCnt$[rbp]

; 32   : 	}

  00068	48 8d a5 e8 00
	00 00		 lea	 rsp, QWORD PTR [rbp+232]
  0006f	5f		 pop	 rdi
  00070	5d		 pop	 rbp
  00071	c3		 ret	 0
??$Safe_Release@PEAVCShader@Engine@@@Engine@@YAKAEAPEAVCShader@0@@Z ENDP ; Engine::Safe_Release<Engine::CShader * __ptr64>
_TEXT	ENDS
; Function compile flags: /Odtp /RTCsu /ZI
; File c:\users\arcco\documents\github\framework\reference\headers\engine_template.h
;	COMDAT ??$Safe_Release@PEAVCModel@Engine@@@Engine@@YAKAEAPEAVCModel@0@@Z
_TEXT	SEGMENT
dwRefCnt$ = 4
classType$ = 256
??$Safe_Release@PEAVCModel@Engine@@@Engine@@YAKAEAPEAVCModel@0@@Z PROC ; Engine::Safe_Release<Engine::CModel * __ptr64>, COMDAT

; 18   : 	{

$LN5:
  00000	48 89 4c 24 08	 mov	 QWORD PTR [rsp+8], rcx
  00005	55		 push	 rbp
  00006	57		 push	 rdi
  00007	48 81 ec 08 01
	00 00		 sub	 rsp, 264		; 00000108H
  0000e	48 8d 6c 24 20	 lea	 rbp, QWORD PTR [rsp+32]
  00013	48 8b fc	 mov	 rdi, rsp
  00016	b9 42 00 00 00	 mov	 ecx, 66			; 00000042H
  0001b	b8 cc cc cc cc	 mov	 eax, -858993460		; ccccccccH
  00020	f3 ab		 rep stosd
  00022	48 8b 8c 24 28
	01 00 00	 mov	 rcx, QWORD PTR [rsp+296]

; 19   : 		unsigned long dwRefCnt = 0;

  0002a	c7 45 04 00 00
	00 00		 mov	 DWORD PTR dwRefCnt$[rbp], 0

; 20   : 
; 21   : 		if (nullptr != classType)

  00031	48 8b 85 00 01
	00 00		 mov	 rax, QWORD PTR classType$[rbp]
  00038	48 83 38 00	 cmp	 QWORD PTR [rax], 0
  0003c	74 27		 je	 SHORT $LN2@Safe_Relea

; 22   : 		{
; 23   : 			dwRefCnt = classType->Release();

  0003e	48 8b 85 00 01
	00 00		 mov	 rax, QWORD PTR classType$[rbp]
  00045	48 8b 08	 mov	 rcx, QWORD PTR [rax]
  00048	ff 15 00 00 00
	00		 call	 QWORD PTR __imp_?Release@CBase@Engine@@QEAAKXZ
  0004e	89 45 04	 mov	 DWORD PTR dwRefCnt$[rbp], eax

; 24   : 
; 25   : 			if (0 == dwRefCnt)

  00051	83 7d 04 00	 cmp	 DWORD PTR dwRefCnt$[rbp], 0
  00055	75 0e		 jne	 SHORT $LN3@Safe_Relea

; 26   : 			{
; 27   : 				classType = nullptr;

  00057	48 8b 85 00 01
	00 00		 mov	 rax, QWORD PTR classType$[rbp]
  0005e	48 c7 00 00 00
	00 00		 mov	 QWORD PTR [rax], 0
$LN3@Safe_Relea:
$LN2@Safe_Relea:

; 28   : 			}
; 29   : 		}
; 30   : 
; 31   : 		return dwRefCnt;

  00065	8b 45 04	 mov	 eax, DWORD PTR dwRefCnt$[rbp]

; 32   : 	}

  00068	48 8d a5 e8 00
	00 00		 lea	 rsp, QWORD PTR [rbp+232]
  0006f	5f		 pop	 rdi
  00070	5d		 pop	 rbp
  00071	c3		 ret	 0
??$Safe_Release@PEAVCModel@Engine@@@Engine@@YAKAEAPEAVCModel@0@@Z ENDP ; Engine::Safe_Release<Engine::CModel * __ptr64>
_TEXT	ENDS
; Function compile flags: /Odtp /RTCsu /ZI
; File c:\users\arcco\documents\github\framework\reference\headers\engine_template.h
;	COMDAT ??$Safe_Release@PEAVCTransform@Engine@@@Engine@@YAKAEAPEAVCTransform@0@@Z
_TEXT	SEGMENT
dwRefCnt$ = 4
classType$ = 256
??$Safe_Release@PEAVCTransform@Engine@@@Engine@@YAKAEAPEAVCTransform@0@@Z PROC ; Engine::Safe_Release<Engine::CTransform * __ptr64>, COMDAT

; 18   : 	{

$LN5:
  00000	48 89 4c 24 08	 mov	 QWORD PTR [rsp+8], rcx
  00005	55		 push	 rbp
  00006	57		 push	 rdi
  00007	48 81 ec 08 01
	00 00		 sub	 rsp, 264		; 00000108H
  0000e	48 8d 6c 24 20	 lea	 rbp, QWORD PTR [rsp+32]
  00013	48 8b fc	 mov	 rdi, rsp
  00016	b9 42 00 00 00	 mov	 ecx, 66			; 00000042H
  0001b	b8 cc cc cc cc	 mov	 eax, -858993460		; ccccccccH
  00020	f3 ab		 rep stosd
  00022	48 8b 8c 24 28
	01 00 00	 mov	 rcx, QWORD PTR [rsp+296]

; 19   : 		unsigned long dwRefCnt = 0;

  0002a	c7 45 04 00 00
	00 00		 mov	 DWORD PTR dwRefCnt$[rbp], 0

; 20   : 
; 21   : 		if (nullptr != classType)

  00031	48 8b 85 00 01
	00 00		 mov	 rax, QWORD PTR classType$[rbp]
  00038	48 83 38 00	 cmp	 QWORD PTR [rax], 0
  0003c	74 27		 je	 SHORT $LN2@Safe_Relea

; 22   : 		{
; 23   : 			dwRefCnt = classType->Release();

  0003e	48 8b 85 00 01
	00 00		 mov	 rax, QWORD PTR classType$[rbp]
  00045	48 8b 08	 mov	 rcx, QWORD PTR [rax]
  00048	ff 15 00 00 00
	00		 call	 QWORD PTR __imp_?Release@CBase@Engine@@QEAAKXZ
  0004e	89 45 04	 mov	 DWORD PTR dwRefCnt$[rbp], eax

; 24   : 
; 25   : 			if (0 == dwRefCnt)

  00051	83 7d 04 00	 cmp	 DWORD PTR dwRefCnt$[rbp], 0
  00055	75 0e		 jne	 SHORT $LN3@Safe_Relea

; 26   : 			{
; 27   : 				classType = nullptr;

  00057	48 8b 85 00 01
	00 00		 mov	 rax, QWORD PTR classType$[rbp]
  0005e	48 c7 00 00 00
	00 00		 mov	 QWORD PTR [rax], 0
$LN3@Safe_Relea:
$LN2@Safe_Relea:

; 28   : 			}
; 29   : 		}
; 30   : 
; 31   : 		return dwRefCnt;

  00065	8b 45 04	 mov	 eax, DWORD PTR dwRefCnt$[rbp]

; 32   : 	}

  00068	48 8d a5 e8 00
	00 00		 lea	 rsp, QWORD PTR [rbp+232]
  0006f	5f		 pop	 rdi
  00070	5d		 pop	 rbp
  00071	c3		 ret	 0
??$Safe_Release@PEAVCTransform@Engine@@@Engine@@YAKAEAPEAVCTransform@0@@Z ENDP ; Engine::Safe_Release<Engine::CTransform * __ptr64>
_TEXT	ENDS
; Function compile flags: /Odtp /RTCsu /ZI
; File c:\users\arcco\documents\github\framework\reference\headers\engine_template.h
;	COMDAT ??$Safe_Release@PEAVCRenderer@Engine@@@Engine@@YAKAEAPEAVCRenderer@0@@Z
_TEXT	SEGMENT
dwRefCnt$ = 4
classType$ = 256
??$Safe_Release@PEAVCRenderer@Engine@@@Engine@@YAKAEAPEAVCRenderer@0@@Z PROC ; Engine::Safe_Release<Engine::CRenderer * __ptr64>, COMDAT

; 18   : 	{

$LN5:
  00000	48 89 4c 24 08	 mov	 QWORD PTR [rsp+8], rcx
  00005	55		 push	 rbp
  00006	57		 push	 rdi
  00007	48 81 ec 08 01
	00 00		 sub	 rsp, 264		; 00000108H
  0000e	48 8d 6c 24 20	 lea	 rbp, QWORD PTR [rsp+32]
  00013	48 8b fc	 mov	 rdi, rsp
  00016	b9 42 00 00 00	 mov	 ecx, 66			; 00000042H
  0001b	b8 cc cc cc cc	 mov	 eax, -858993460		; ccccccccH
  00020	f3 ab		 rep stosd
  00022	48 8b 8c 24 28
	01 00 00	 mov	 rcx, QWORD PTR [rsp+296]

; 19   : 		unsigned long dwRefCnt = 0;

  0002a	c7 45 04 00 00
	00 00		 mov	 DWORD PTR dwRefCnt$[rbp], 0

; 20   : 
; 21   : 		if (nullptr != classType)

  00031	48 8b 85 00 01
	00 00		 mov	 rax, QWORD PTR classType$[rbp]
  00038	48 83 38 00	 cmp	 QWORD PTR [rax], 0
  0003c	74 27		 je	 SHORT $LN2@Safe_Relea

; 22   : 		{
; 23   : 			dwRefCnt = classType->Release();

  0003e	48 8b 85 00 01
	00 00		 mov	 rax, QWORD PTR classType$[rbp]
  00045	48 8b 08	 mov	 rcx, QWORD PTR [rax]
  00048	ff 15 00 00 00
	00		 call	 QWORD PTR __imp_?Release@CBase@Engine@@QEAAKXZ
  0004e	89 45 04	 mov	 DWORD PTR dwRefCnt$[rbp], eax

; 24   : 
; 25   : 			if (0 == dwRefCnt)

  00051	83 7d 04 00	 cmp	 DWORD PTR dwRefCnt$[rbp], 0
  00055	75 0e		 jne	 SHORT $LN3@Safe_Relea

; 26   : 			{
; 27   : 				classType = nullptr;

  00057	48 8b 85 00 01
	00 00		 mov	 rax, QWORD PTR classType$[rbp]
  0005e	48 c7 00 00 00
	00 00		 mov	 QWORD PTR [rax], 0
$LN3@Safe_Relea:
$LN2@Safe_Relea:

; 28   : 			}
; 29   : 		}
; 30   : 
; 31   : 		return dwRefCnt;

  00065	8b 45 04	 mov	 eax, DWORD PTR dwRefCnt$[rbp]

; 32   : 	}

  00068	48 8d a5 e8 00
	00 00		 lea	 rsp, QWORD PTR [rbp+232]
  0006f	5f		 pop	 rdi
  00070	5d		 pop	 rbp
  00071	c3		 ret	 0
??$Safe_Release@PEAVCRenderer@Engine@@@Engine@@YAKAEAPEAVCRenderer@0@@Z ENDP ; Engine::Safe_Release<Engine::CRenderer * __ptr64>
_TEXT	ENDS
; Function compile flags: /Odtp /RTCsu /ZI
; File c:\users\arcco\documents\github\framework\reference\headers\engine_template.h
;	COMDAT ??$Safe_Release@PEAVCFootSmoke@Client@@@Engine@@YAKAEAPEAVCFootSmoke@Client@@@Z
_TEXT	SEGMENT
dwRefCnt$ = 4
classType$ = 256
??$Safe_Release@PEAVCFootSmoke@Client@@@Engine@@YAKAEAPEAVCFootSmoke@Client@@@Z PROC ; Engine::Safe_Release<Client::CFootSmoke * __ptr64>, COMDAT

; 18   : 	{

$LN5:
  00000	48 89 4c 24 08	 mov	 QWORD PTR [rsp+8], rcx
  00005	55		 push	 rbp
  00006	57		 push	 rdi
  00007	48 81 ec 08 01
	00 00		 sub	 rsp, 264		; 00000108H
  0000e	48 8d 6c 24 20	 lea	 rbp, QWORD PTR [rsp+32]
  00013	48 8b fc	 mov	 rdi, rsp
  00016	b9 42 00 00 00	 mov	 ecx, 66			; 00000042H
  0001b	b8 cc cc cc cc	 mov	 eax, -858993460		; ccccccccH
  00020	f3 ab		 rep stosd
  00022	48 8b 8c 24 28
	01 00 00	 mov	 rcx, QWORD PTR [rsp+296]

; 19   : 		unsigned long dwRefCnt = 0;

  0002a	c7 45 04 00 00
	00 00		 mov	 DWORD PTR dwRefCnt$[rbp], 0

; 20   : 
; 21   : 		if (nullptr != classType)

  00031	48 8b 85 00 01
	00 00		 mov	 rax, QWORD PTR classType$[rbp]
  00038	48 83 38 00	 cmp	 QWORD PTR [rax], 0
  0003c	74 27		 je	 SHORT $LN2@Safe_Relea

; 22   : 		{
; 23   : 			dwRefCnt = classType->Release();

  0003e	48 8b 85 00 01
	00 00		 mov	 rax, QWORD PTR classType$[rbp]
  00045	48 8b 08	 mov	 rcx, QWORD PTR [rax]
  00048	ff 15 00 00 00
	00		 call	 QWORD PTR __imp_?Release@CBase@Engine@@QEAAKXZ
  0004e	89 45 04	 mov	 DWORD PTR dwRefCnt$[rbp], eax

; 24   : 
; 25   : 			if (0 == dwRefCnt)

  00051	83 7d 04 00	 cmp	 DWORD PTR dwRefCnt$[rbp], 0
  00055	75 0e		 jne	 SHORT $LN3@Safe_Relea

; 26   : 			{
; 27   : 				classType = nullptr;

  00057	48 8b 85 00 01
	00 00		 mov	 rax, QWORD PTR classType$[rbp]
  0005e	48 c7 00 00 00
	00 00		 mov	 QWORD PTR [rax], 0
$LN3@Safe_Relea:
$LN2@Safe_Relea:

; 28   : 			}
; 29   : 		}
; 30   : 
; 31   : 		return dwRefCnt;

  00065	8b 45 04	 mov	 eax, DWORD PTR dwRefCnt$[rbp]

; 32   : 	}

  00068	48 8d a5 e8 00
	00 00		 lea	 rsp, QWORD PTR [rbp+232]
  0006f	5f		 pop	 rdi
  00070	5d		 pop	 rbp
  00071	c3		 ret	 0
??$Safe_Release@PEAVCFootSmoke@Client@@@Engine@@YAKAEAPEAVCFootSmoke@Client@@@Z ENDP ; Engine::Safe_Release<Client::CFootSmoke * __ptr64>
_TEXT	ENDS
; Function compile flags: /Odtp /RTCsu /ZI
;	COMDAT ??_GCFootSmoke@Client@@UEAAPEAXI@Z
_TEXT	SEGMENT
this$ = 224
__flags$ = 232
??_GCFootSmoke@Client@@UEAAPEAXI@Z PROC			; Client::CFootSmoke::`scalar deleting destructor', COMDAT
$LN4:
  00000	89 54 24 10	 mov	 DWORD PTR [rsp+16], edx
  00004	48 89 4c 24 08	 mov	 QWORD PTR [rsp+8], rcx
  00009	55		 push	 rbp
  0000a	57		 push	 rdi
  0000b	48 81 ec e8 00
	00 00		 sub	 rsp, 232		; 000000e8H
  00012	48 8d 6c 24 20	 lea	 rbp, QWORD PTR [rsp+32]
  00017	48 8b fc	 mov	 rdi, rsp
  0001a	b9 3a 00 00 00	 mov	 ecx, 58			; 0000003aH
  0001f	b8 cc cc cc cc	 mov	 eax, -858993460		; ccccccccH
  00024	f3 ab		 rep stosd
  00026	48 8b 8c 24 08
	01 00 00	 mov	 rcx, QWORD PTR [rsp+264]
  0002e	48 8b 8d e0 00
	00 00		 mov	 rcx, QWORD PTR this$[rbp]
  00035	e8 00 00 00 00	 call	 ??1CFootSmoke@Client@@UEAA@XZ ; Client::CFootSmoke::~CFootSmoke
  0003a	8b 85 e8 00 00
	00		 mov	 eax, DWORD PTR __flags$[rbp]
  00040	83 e0 01	 and	 eax, 1
  00043	85 c0		 test	 eax, eax
  00045	74 11		 je	 SHORT $LN2@scalar
  00047	ba c8 00 00 00	 mov	 edx, 200		; 000000c8H
  0004c	48 8b 8d e0 00
	00 00		 mov	 rcx, QWORD PTR this$[rbp]
  00053	e8 00 00 00 00	 call	 ??3@YAXPEAX_K@Z		; operator delete
$LN2@scalar:
  00058	48 8b 85 e0 00
	00 00		 mov	 rax, QWORD PTR this$[rbp]
  0005f	48 8d a5 c8 00
	00 00		 lea	 rsp, QWORD PTR [rbp+200]
  00066	5f		 pop	 rdi
  00067	5d		 pop	 rbp
  00068	c3		 ret	 0
??_GCFootSmoke@Client@@UEAAPEAXI@Z ENDP			; Client::CFootSmoke::`scalar deleting destructor'
_TEXT	ENDS
; Function compile flags: /Odtp /RTCsu /ZI
; File c:\users\arcco\documents\github\framework\client\private\footsmoke.cpp
;	COMDAT ?Free@CFootSmoke@Client@@UEAAXXZ
_TEXT	SEGMENT
this$ = 224
?Free@CFootSmoke@Client@@UEAAXXZ PROC			; Client::CFootSmoke::Free, COMDAT

; 199  : {

$LN3:
  00000	48 89 4c 24 08	 mov	 QWORD PTR [rsp+8], rcx
  00005	55		 push	 rbp
  00006	57		 push	 rdi
  00007	48 81 ec e8 00
	00 00		 sub	 rsp, 232		; 000000e8H
  0000e	48 8d 6c 24 20	 lea	 rbp, QWORD PTR [rsp+32]
  00013	48 8b fc	 mov	 rdi, rsp
  00016	b9 3a 00 00 00	 mov	 ecx, 58			; 0000003aH
  0001b	b8 cc cc cc cc	 mov	 eax, -858993460		; ccccccccH
  00020	f3 ab		 rep stosd
  00022	48 8b 8c 24 08
	01 00 00	 mov	 rcx, QWORD PTR [rsp+264]

; 200  : 	__super::Free();

  0002a	48 8b 8d e0 00
	00 00		 mov	 rcx, QWORD PTR this$[rbp]
  00031	ff 15 00 00 00
	00		 call	 QWORD PTR __imp_?Free@CGameObject@Engine@@UEAAXXZ

; 201  : 
; 202  : 	Safe_Release(m_pRenderer);

  00037	48 8b 85 e0 00
	00 00		 mov	 rax, QWORD PTR this$[rbp]
  0003e	48 05 88 00 00
	00		 add	 rax, 136		; 00000088H
  00044	48 8b c8	 mov	 rcx, rax
  00047	e8 00 00 00 00	 call	 ??$Safe_Release@PEAVCRenderer@Engine@@@Engine@@YAKAEAPEAVCRenderer@0@@Z ; Engine::Safe_Release<Engine::CRenderer * __ptr64>

; 203  : 	Safe_Release(m_pTransform);

  0004c	48 8b 85 e0 00
	00 00		 mov	 rax, QWORD PTR this$[rbp]
  00053	48 05 80 00 00
	00		 add	 rax, 128		; 00000080H
  00059	48 8b c8	 mov	 rcx, rax
  0005c	e8 00 00 00 00	 call	 ??$Safe_Release@PEAVCTransform@Engine@@@Engine@@YAKAEAPEAVCTransform@0@@Z ; Engine::Safe_Release<Engine::CTransform * __ptr64>

; 204  : 	Safe_Release(m_pModel);

  00061	48 8b 85 e0 00
	00 00		 mov	 rax, QWORD PTR this$[rbp]
  00068	48 05 98 00 00
	00		 add	 rax, 152		; 00000098H
  0006e	48 8b c8	 mov	 rcx, rax
  00071	e8 00 00 00 00	 call	 ??$Safe_Release@PEAVCModel@Engine@@@Engine@@YAKAEAPEAVCModel@0@@Z ; Engine::Safe_Release<Engine::CModel * __ptr64>

; 205  : 	Safe_Release(m_pShader);

  00076	48 8b 85 e0 00
	00 00		 mov	 rax, QWORD PTR this$[rbp]
  0007d	48 05 90 00 00
	00		 add	 rax, 144		; 00000090H
  00083	48 8b c8	 mov	 rcx, rax
  00086	e8 00 00 00 00	 call	 ??$Safe_Release@PEAVCShader@Engine@@@Engine@@YAKAEAPEAVCShader@0@@Z ; Engine::Safe_Release<Engine::CShader * __ptr64>

; 206  : }

  0008b	48 8d a5 c8 00
	00 00		 lea	 rsp, QWORD PTR [rbp+200]
  00092	5f		 pop	 rdi
  00093	5d		 pop	 rbp
  00094	c3		 ret	 0
?Free@CFootSmoke@Client@@UEAAXXZ ENDP			; Client::CFootSmoke::Free
_TEXT	ENDS
; Function compile flags: /Odtp /RTCsu /ZI
; File c:\users\arcco\documents\github\framework\client\private\footsmoke.cpp
;	COMDAT ?Clone@CFootSmoke@Client@@UEAAPEAVCGameObject@Engine@@PEAX@Z
_TEXT	SEGMENT
pInstance$ = 8
$T4 = 232
$T5 = 264
$T6 = 296
tv83 = 312
__$ArrayPad$ = 320
this$ = 368
pArg$ = 376
?Clone@CFootSmoke@Client@@UEAAPEAVCGameObject@Engine@@PEAX@Z PROC ; Client::CFootSmoke::Clone, COMDAT

; 187  : {

$LN7:
  00000	48 89 54 24 10	 mov	 QWORD PTR [rsp+16], rdx
  00005	48 89 4c 24 08	 mov	 QWORD PTR [rsp+8], rcx
  0000a	55		 push	 rbp
  0000b	57		 push	 rdi
  0000c	48 81 ec 78 01
	00 00		 sub	 rsp, 376		; 00000178H
  00013	48 8d 6c 24 20	 lea	 rbp, QWORD PTR [rsp+32]
  00018	48 8b fc	 mov	 rdi, rsp
  0001b	b9 5e 00 00 00	 mov	 ecx, 94			; 0000005eH
  00020	b8 cc cc cc cc	 mov	 eax, -858993460		; ccccccccH
  00025	f3 ab		 rep stosd
  00027	48 8b 8c 24 98
	01 00 00	 mov	 rcx, QWORD PTR [rsp+408]
  0002f	48 c7 85 28 01
	00 00 fe ff ff
	ff		 mov	 QWORD PTR $T6[rbp], -2
  0003a	48 8b 05 00 00
	00 00		 mov	 rax, QWORD PTR __security_cookie
  00041	48 33 c5	 xor	 rax, rbp
  00044	48 89 85 40 01
	00 00		 mov	 QWORD PTR __$ArrayPad$[rbp], rax

; 188  : 	CFootSmoke* pInstance = new CFootSmoke(*this);

  0004b	8b 05 00 00 00
	00		 mov	 eax, DWORD PTR ?__LINE__Var@?0??Clone@CFootSmoke@Client@@UEAAPEAVCGameObject@Engine@@PEAX@Z@4JA
  00051	ff c0		 inc	 eax
  00053	44 8b c8	 mov	 r9d, eax
  00056	4c 8d 05 00 00
	00 00		 lea	 r8, OFFSET FLAT:??_C@_0EH@HCIIJIEH@c?3?2users?2arcco?2documents?2github?2@
  0005d	ba 01 00 00 00	 mov	 edx, 1
  00062	b9 c8 00 00 00	 mov	 ecx, 200		; 000000c8H
  00067	e8 00 00 00 00	 call	 ??2@YAPEAX_KHPEBDH@Z	; operator new
  0006c	48 89 85 08 01
	00 00		 mov	 QWORD PTR $T5[rbp], rax
  00073	48 83 bd 08 01
	00 00 00	 cmp	 QWORD PTR $T5[rbp], 0
  0007b	74 1c		 je	 SHORT $LN4@Clone
  0007d	48 8b 95 70 01
	00 00		 mov	 rdx, QWORD PTR this$[rbp]
  00084	48 8b 8d 08 01
	00 00		 mov	 rcx, QWORD PTR $T5[rbp]
  0008b	e8 00 00 00 00	 call	 ??0CFootSmoke@Client@@QEAA@AEBV01@@Z ; Client::CFootSmoke::CFootSmoke
  00090	48 89 85 38 01
	00 00		 mov	 QWORD PTR tv83[rbp], rax
  00097	eb 0b		 jmp	 SHORT $LN5@Clone
$LN4@Clone:
  00099	48 c7 85 38 01
	00 00 00 00 00
	00		 mov	 QWORD PTR tv83[rbp], 0
$LN5@Clone:
  000a4	48 8b 85 38 01
	00 00		 mov	 rax, QWORD PTR tv83[rbp]
  000ab	48 89 85 e8 00
	00 00		 mov	 QWORD PTR $T4[rbp], rax
  000b2	48 8b 85 e8 00
	00 00		 mov	 rax, QWORD PTR $T4[rbp]
  000b9	48 89 45 08	 mov	 QWORD PTR pInstance$[rbp], rax

; 189  : 	if (FAILED(pInstance->Initialize(pArg)))

  000bd	48 8b 95 78 01
	00 00		 mov	 rdx, QWORD PTR pArg$[rbp]
  000c4	48 8b 4d 08	 mov	 rcx, QWORD PTR pInstance$[rbp]
  000c8	e8 00 00 00 00	 call	 ?Initialize@CFootSmoke@Client@@UEAAJPEAX@Z ; Client::CFootSmoke::Initialize
  000cd	85 c0		 test	 eax, eax
  000cf	7d 22		 jge	 SHORT $LN2@Clone

; 190  : 	{
; 191  : 		MSG_BOX("Failed to Clone : CFootSmoke");

  000d1	45 33 c9	 xor	 r9d, r9d
  000d4	4c 8d 05 00 00
	00 00		 lea	 r8, OFFSET FLAT:??_C@_1BA@HHOMBECE@?$AAM?$AAe?$AAs?$AAs?$AAa?$AAg?$AAe?$AA?$AA@
  000db	48 8d 15 00 00
	00 00		 lea	 rdx, OFFSET FLAT:??_C@_1DK@MEGNOHBA@?$AAF?$AAa?$AAi?$AAl?$AAe?$AAd?$AA?5?$AAt?$AAo?$AA?5?$AAC?$AAl?$AAo?$AAn?$AAe?$AA?5?$AA?3?$AA?5?$AAC?$AAF?$AAo?$AAo?$AAt?$AAS?$AAm?$AAo?$AAk?$AAe?$AA?$AA@
  000e2	33 c9		 xor	 ecx, ecx
  000e4	ff 15 00 00 00
	00		 call	 QWORD PTR __imp_MessageBoxW

; 192  : 		Safe_Release(pInstance);

  000ea	48 8d 4d 08	 lea	 rcx, QWORD PTR pInstance$[rbp]
  000ee	e8 00 00 00 00	 call	 ??$Safe_Release@PEAVCFootSmoke@Client@@@Engine@@YAKAEAPEAVCFootSmoke@Client@@@Z ; Engine::Safe_Release<Client::CFootSmoke * __ptr64>
$LN2@Clone:

; 193  : 	}
; 194  : 
; 195  : 	return pInstance;

  000f3	48 8b 45 08	 mov	 rax, QWORD PTR pInstance$[rbp]

; 196  : }

  000f7	48 8b f8	 mov	 rdi, rax
  000fa	48 8d 4d e0	 lea	 rcx, QWORD PTR [rbp-32]
  000fe	48 8d 15 00 00
	00 00		 lea	 rdx, OFFSET FLAT:?Clone@CFootSmoke@Client@@UEAAPEAVCGameObject@Engine@@PEAX@Z$rtcFrameData
  00105	e8 00 00 00 00	 call	 _RTC_CheckStackVars
  0010a	48 8b c7	 mov	 rax, rdi
  0010d	48 8b 8d 40 01
	00 00		 mov	 rcx, QWORD PTR __$ArrayPad$[rbp]
  00114	48 33 cd	 xor	 rcx, rbp
  00117	e8 00 00 00 00	 call	 __security_check_cookie
  0011c	48 8d a5 58 01
	00 00		 lea	 rsp, QWORD PTR [rbp+344]
  00123	5f		 pop	 rdi
  00124	5d		 pop	 rbp
  00125	c3		 ret	 0
?Clone@CFootSmoke@Client@@UEAAPEAVCGameObject@Engine@@PEAX@Z ENDP ; Client::CFootSmoke::Clone
_TEXT	ENDS
;	COMDAT text$x
text$x	SEGMENT
pInstance$ = 8
$T4 = 232
$T5 = 264
$T6 = 296
tv83 = 312
__$ArrayPad$ = 320
this$ = 368
pArg$ = 376
?dtor$0@?0??Clone@CFootSmoke@Client@@UEAAPEAVCGameObject@Engine@@PEAX@Z@4HA PROC ; `Client::CFootSmoke::Clone'::`1'::dtor$0
  00000	48 89 4c 24 08	 mov	 QWORD PTR [rsp+8], rcx
  00005	48 89 54 24 10	 mov	 QWORD PTR [rsp+16], rdx
  0000a	55		 push	 rbp
  0000b	57		 push	 rdi
  0000c	48 83 ec 28	 sub	 rsp, 40			; 00000028H
  00010	48 8d 6a 20	 lea	 rbp, QWORD PTR [rdx+32]
  00014	44 8b 0d 00 00
	00 00		 mov	 r9d, DWORD PTR ?__LINE__Var@?0??Clone@CFootSmoke@Client@@UEAAPEAVCGameObject@Engine@@PEAX@Z@4JA
  0001b	41 ff c1	 inc	 r9d
  0001e	4c 8d 05 00 00
	00 00		 lea	 r8, OFFSET FLAT:??_C@_0EH@HCIIJIEH@c?3?2users?2arcco?2documents?2github?2@
  00025	ba 01 00 00 00	 mov	 edx, 1
  0002a	48 8b 8d 08 01
	00 00		 mov	 rcx, QWORD PTR $T5[rbp]
  00031	e8 00 00 00 00	 call	 ??3@YAXPEAXHPEBDH@Z	; operator delete
  00036	48 83 c4 28	 add	 rsp, 40			; 00000028H
  0003a	5f		 pop	 rdi
  0003b	5d		 pop	 rbp
  0003c	c3		 ret	 0
?dtor$0@?0??Clone@CFootSmoke@Client@@UEAAPEAVCGameObject@Engine@@PEAX@Z@4HA ENDP ; `Client::CFootSmoke::Clone'::`1'::dtor$0
text$x	ENDS
; Function compile flags: /Odtp /RTCsu /ZI
;	COMDAT text$x
text$x	SEGMENT
pInstance$ = 8
$T4 = 232
$T5 = 264
$T6 = 296
tv83 = 312
__$ArrayPad$ = 320
this$ = 368
pArg$ = 376
?dtor$0@?0??Clone@CFootSmoke@Client@@UEAAPEAVCGameObject@Engine@@PEAX@Z@4HA PROC ; `Client::CFootSmoke::Clone'::`1'::dtor$0
  00000	48 89 4c 24 08	 mov	 QWORD PTR [rsp+8], rcx
  00005	48 89 54 24 10	 mov	 QWORD PTR [rsp+16], rdx
  0000a	55		 push	 rbp
  0000b	57		 push	 rdi
  0000c	48 83 ec 28	 sub	 rsp, 40			; 00000028H
  00010	48 8d 6a 20	 lea	 rbp, QWORD PTR [rdx+32]
  00014	44 8b 0d 00 00
	00 00		 mov	 r9d, DWORD PTR ?__LINE__Var@?0??Clone@CFootSmoke@Client@@UEAAPEAVCGameObject@Engine@@PEAX@Z@4JA
  0001b	41 ff c1	 inc	 r9d
  0001e	4c 8d 05 00 00
	00 00		 lea	 r8, OFFSET FLAT:??_C@_0EH@HCIIJIEH@c?3?2users?2arcco?2documents?2github?2@
  00025	ba 01 00 00 00	 mov	 edx, 1
  0002a	48 8b 8d 08 01
	00 00		 mov	 rcx, QWORD PTR $T5[rbp]
  00031	e8 00 00 00 00	 call	 ??3@YAXPEAXHPEBDH@Z	; operator delete
  00036	48 83 c4 28	 add	 rsp, 40			; 00000028H
  0003a	5f		 pop	 rdi
  0003b	5d		 pop	 rbp
  0003c	c3		 ret	 0
?dtor$0@?0??Clone@CFootSmoke@Client@@UEAAPEAVCGameObject@Engine@@PEAX@Z@4HA ENDP ; `Client::CFootSmoke::Clone'::`1'::dtor$0
text$x	ENDS
; Function compile flags: /Odtp /RTCsu /ZI
; File c:\users\arcco\documents\github\framework\client\private\footsmoke.cpp
;	COMDAT ?Create@CFootSmoke@Client@@SAPEAV12@PEAUID3D11Device@@PEAUID3D11DeviceContext@@@Z
_TEXT	SEGMENT
pInstance$ = 8
$T4 = 232
$T5 = 264
$T6 = 296
tv84 = 312
__$ArrayPad$ = 320
pDevice$ = 368
pContext$ = 376
?Create@CFootSmoke@Client@@SAPEAV12@PEAUID3D11Device@@PEAUID3D11DeviceContext@@@Z PROC ; Client::CFootSmoke::Create, COMDAT

; 175  : {

$LN7:
  00000	48 89 54 24 10	 mov	 QWORD PTR [rsp+16], rdx
  00005	48 89 4c 24 08	 mov	 QWORD PTR [rsp+8], rcx
  0000a	55		 push	 rbp
  0000b	57		 push	 rdi
  0000c	48 81 ec 78 01
	00 00		 sub	 rsp, 376		; 00000178H
  00013	48 8d 6c 24 20	 lea	 rbp, QWORD PTR [rsp+32]
  00018	48 8b fc	 mov	 rdi, rsp
  0001b	b9 5e 00 00 00	 mov	 ecx, 94			; 0000005eH
  00020	b8 cc cc cc cc	 mov	 eax, -858993460		; ccccccccH
  00025	f3 ab		 rep stosd
  00027	48 8b 8c 24 98
	01 00 00	 mov	 rcx, QWORD PTR [rsp+408]
  0002f	48 c7 85 28 01
	00 00 fe ff ff
	ff		 mov	 QWORD PTR $T6[rbp], -2
  0003a	48 8b 05 00 00
	00 00		 mov	 rax, QWORD PTR __security_cookie
  00041	48 33 c5	 xor	 rax, rbp
  00044	48 89 85 40 01
	00 00		 mov	 QWORD PTR __$ArrayPad$[rbp], rax

; 176  : 	CFootSmoke* pInstance = new CFootSmoke(pDevice, pContext);

  0004b	8b 05 00 00 00
	00		 mov	 eax, DWORD PTR ?__LINE__Var@?0??Create@CFootSmoke@Client@@SAPEAV23@PEAUID3D11Device@@PEAUID3D11DeviceContext@@@Z@4JA
  00051	ff c0		 inc	 eax
  00053	44 8b c8	 mov	 r9d, eax
  00056	4c 8d 05 00 00
	00 00		 lea	 r8, OFFSET FLAT:??_C@_0EH@HCIIJIEH@c?3?2users?2arcco?2documents?2github?2@
  0005d	ba 01 00 00 00	 mov	 edx, 1
  00062	b9 c8 00 00 00	 mov	 ecx, 200		; 000000c8H
  00067	e8 00 00 00 00	 call	 ??2@YAPEAX_KHPEBDH@Z	; operator new
  0006c	48 89 85 08 01
	00 00		 mov	 QWORD PTR $T5[rbp], rax
  00073	48 83 bd 08 01
	00 00 00	 cmp	 QWORD PTR $T5[rbp], 0
  0007b	74 23		 je	 SHORT $LN4@Create
  0007d	4c 8b 85 78 01
	00 00		 mov	 r8, QWORD PTR pContext$[rbp]
  00084	48 8b 95 70 01
	00 00		 mov	 rdx, QWORD PTR pDevice$[rbp]
  0008b	48 8b 8d 08 01
	00 00		 mov	 rcx, QWORD PTR $T5[rbp]
  00092	e8 00 00 00 00	 call	 ??0CFootSmoke@Client@@QEAA@PEAUID3D11Device@@PEAUID3D11DeviceContext@@@Z ; Client::CFootSmoke::CFootSmoke
  00097	48 89 85 38 01
	00 00		 mov	 QWORD PTR tv84[rbp], rax
  0009e	eb 0b		 jmp	 SHORT $LN5@Create
$LN4@Create:
  000a0	48 c7 85 38 01
	00 00 00 00 00
	00		 mov	 QWORD PTR tv84[rbp], 0
$LN5@Create:
  000ab	48 8b 85 38 01
	00 00		 mov	 rax, QWORD PTR tv84[rbp]
  000b2	48 89 85 e8 00
	00 00		 mov	 QWORD PTR $T4[rbp], rax
  000b9	48 8b 85 e8 00
	00 00		 mov	 rax, QWORD PTR $T4[rbp]
  000c0	48 89 45 08	 mov	 QWORD PTR pInstance$[rbp], rax

; 177  : 	if (FAILED(pInstance->Initialize_Prototype()))

  000c4	48 8b 4d 08	 mov	 rcx, QWORD PTR pInstance$[rbp]
  000c8	e8 00 00 00 00	 call	 ?Initialize_Prototype@CFootSmoke@Client@@UEAAJXZ ; Client::CFootSmoke::Initialize_Prototype
  000cd	85 c0		 test	 eax, eax
  000cf	7d 22		 jge	 SHORT $LN2@Create

; 178  : 	{
; 179  : 		MSG_BOX("Failed to Create : CFootSmoke");

  000d1	45 33 c9	 xor	 r9d, r9d
  000d4	4c 8d 05 00 00
	00 00		 lea	 r8, OFFSET FLAT:??_C@_1BA@HHOMBECE@?$AAM?$AAe?$AAs?$AAs?$AAa?$AAg?$AAe?$AA?$AA@
  000db	48 8d 15 00 00
	00 00		 lea	 rdx, OFFSET FLAT:??_C@_1DM@NMKFPPBA@?$AAF?$AAa?$AAi?$AAl?$AAe?$AAd?$AA?5?$AAt?$AAo?$AA?5?$AAC?$AAr?$AAe?$AAa?$AAt?$AAe?$AA?5?$AA?3?$AA?5?$AAC?$AAF?$AAo?$AAo?$AAt?$AAS?$AAm?$AAo?$AAk?$AAe?$AA?$AA@
  000e2	33 c9		 xor	 ecx, ecx
  000e4	ff 15 00 00 00
	00		 call	 QWORD PTR __imp_MessageBoxW

; 180  : 		Safe_Release(pInstance);

  000ea	48 8d 4d 08	 lea	 rcx, QWORD PTR pInstance$[rbp]
  000ee	e8 00 00 00 00	 call	 ??$Safe_Release@PEAVCFootSmoke@Client@@@Engine@@YAKAEAPEAVCFootSmoke@Client@@@Z ; Engine::Safe_Release<Client::CFootSmoke * __ptr64>
$LN2@Create:

; 181  : 	}
; 182  : 
; 183  : 	return pInstance;

  000f3	48 8b 45 08	 mov	 rax, QWORD PTR pInstance$[rbp]

; 184  : }

  000f7	48 8b f8	 mov	 rdi, rax
  000fa	48 8d 4d e0	 lea	 rcx, QWORD PTR [rbp-32]
  000fe	48 8d 15 00 00
	00 00		 lea	 rdx, OFFSET FLAT:?Create@CFootSmoke@Client@@SAPEAV12@PEAUID3D11Device@@PEAUID3D11DeviceContext@@@Z$rtcFrameData
  00105	e8 00 00 00 00	 call	 _RTC_CheckStackVars
  0010a	48 8b c7	 mov	 rax, rdi
  0010d	48 8b 8d 40 01
	00 00		 mov	 rcx, QWORD PTR __$ArrayPad$[rbp]
  00114	48 33 cd	 xor	 rcx, rbp
  00117	e8 00 00 00 00	 call	 __security_check_cookie
  0011c	48 8d a5 58 01
	00 00		 lea	 rsp, QWORD PTR [rbp+344]
  00123	5f		 pop	 rdi
  00124	5d		 pop	 rbp
  00125	c3		 ret	 0
?Create@CFootSmoke@Client@@SAPEAV12@PEAUID3D11Device@@PEAUID3D11DeviceContext@@@Z ENDP ; Client::CFootSmoke::Create
_TEXT	ENDS
;	COMDAT text$x
text$x	SEGMENT
pInstance$ = 8
$T4 = 232
$T5 = 264
$T6 = 296
tv84 = 312
__$ArrayPad$ = 320
pDevice$ = 368
pContext$ = 376
?dtor$0@?0??Create@CFootSmoke@Client@@SAPEAV12@PEAUID3D11Device@@PEAUID3D11DeviceContext@@@Z@4HA PROC ; `Client::CFootSmoke::Create'::`1'::dtor$0
  00000	48 89 4c 24 08	 mov	 QWORD PTR [rsp+8], rcx
  00005	48 89 54 24 10	 mov	 QWORD PTR [rsp+16], rdx
  0000a	55		 push	 rbp
  0000b	57		 push	 rdi
  0000c	48 83 ec 28	 sub	 rsp, 40			; 00000028H
  00010	48 8d 6a 20	 lea	 rbp, QWORD PTR [rdx+32]
  00014	44 8b 0d 00 00
	00 00		 mov	 r9d, DWORD PTR ?__LINE__Var@?0??Create@CFootSmoke@Client@@SAPEAV23@PEAUID3D11Device@@PEAUID3D11DeviceContext@@@Z@4JA
  0001b	41 ff c1	 inc	 r9d
  0001e	4c 8d 05 00 00
	00 00		 lea	 r8, OFFSET FLAT:??_C@_0EH@HCIIJIEH@c?3?2users?2arcco?2documents?2github?2@
  00025	ba 01 00 00 00	 mov	 edx, 1
  0002a	48 8b 8d 08 01
	00 00		 mov	 rcx, QWORD PTR $T5[rbp]
  00031	e8 00 00 00 00	 call	 ??3@YAXPEAXHPEBDH@Z	; operator delete
  00036	48 83 c4 28	 add	 rsp, 40			; 00000028H
  0003a	5f		 pop	 rdi
  0003b	5d		 pop	 rbp
  0003c	c3		 ret	 0
?dtor$0@?0??Create@CFootSmoke@Client@@SAPEAV12@PEAUID3D11Device@@PEAUID3D11DeviceContext@@@Z@4HA ENDP ; `Client::CFootSmoke::Create'::`1'::dtor$0
text$x	ENDS
; Function compile flags: /Odtp /RTCsu /ZI
;	COMDAT text$x
text$x	SEGMENT
pInstance$ = 8
$T4 = 232
$T5 = 264
$T6 = 296
tv84 = 312
__$ArrayPad$ = 320
pDevice$ = 368
pContext$ = 376
?dtor$0@?0??Create@CFootSmoke@Client@@SAPEAV12@PEAUID3D11Device@@PEAUID3D11DeviceContext@@@Z@4HA PROC ; `Client::CFootSmoke::Create'::`1'::dtor$0
  00000	48 89 4c 24 08	 mov	 QWORD PTR [rsp+8], rcx
  00005	48 89 54 24 10	 mov	 QWORD PTR [rsp+16], rdx
  0000a	55		 push	 rbp
  0000b	57		 push	 rdi
  0000c	48 83 ec 28	 sub	 rsp, 40			; 00000028H
  00010	48 8d 6a 20	 lea	 rbp, QWORD PTR [rdx+32]
  00014	44 8b 0d 00 00
	00 00		 mov	 r9d, DWORD PTR ?__LINE__Var@?0??Create@CFootSmoke@Client@@SAPEAV23@PEAUID3D11Device@@PEAUID3D11DeviceContext@@@Z@4JA
  0001b	41 ff c1	 inc	 r9d
  0001e	4c 8d 05 00 00
	00 00		 lea	 r8, OFFSET FLAT:??_C@_0EH@HCIIJIEH@c?3?2users?2arcco?2documents?2github?2@
  00025	ba 01 00 00 00	 mov	 edx, 1
  0002a	48 8b 8d 08 01
	00 00		 mov	 rcx, QWORD PTR $T5[rbp]
  00031	e8 00 00 00 00	 call	 ??3@YAXPEAXHPEBDH@Z	; operator delete
  00036	48 83 c4 28	 add	 rsp, 40			; 00000028H
  0003a	5f		 pop	 rdi
  0003b	5d		 pop	 rbp
  0003c	c3		 ret	 0
?dtor$0@?0??Create@CFootSmoke@Client@@SAPEAV12@PEAUID3D11Device@@PEAUID3D11DeviceContext@@@Z@4HA ENDP ; `Client::CFootSmoke::Create'::`1'::dtor$0
text$x	ENDS
; Function compile flags: /Odtp /RTCsu /ZI
; File c:\users\arcco\documents\github\framework\client\private\footsmoke.cpp
;	COMDAT ?Setup_ShaderResources@CFootSmoke@Client@@AEAAJXZ
_TEXT	SEGMENT
pInstance$ = 8
LightDesc$ = 40
$T1 = 260
$T2 = 356
$T3 = 452
this$ = 528
?Setup_ShaderResources@CFootSmoke@Client@@AEAAJXZ PROC	; Client::CFootSmoke::Setup_ShaderResources, COMDAT

; 140  : {

$LN13:
  00000	48 89 4c 24 08	 mov	 QWORD PTR [rsp+8], rcx
  00005	55		 push	 rbp
  00006	57		 push	 rdi
  00007	48 81 ec 18 02
	00 00		 sub	 rsp, 536		; 00000218H
  0000e	48 8d 6c 24 20	 lea	 rbp, QWORD PTR [rsp+32]
  00013	48 8b fc	 mov	 rdi, rsp
  00016	b9 86 00 00 00	 mov	 ecx, 134		; 00000086H
  0001b	b8 cc cc cc cc	 mov	 eax, -858993460		; ccccccccH
  00020	f3 ab		 rep stosd
  00022	48 8b 8c 24 38
	02 00 00	 mov	 rcx, QWORD PTR [rsp+568]

; 141  : 	if (nullptr == m_pShader)

  0002a	48 8b 85 10 02
	00 00		 mov	 rax, QWORD PTR this$[rbp]
  00031	48 83 b8 90 00
	00 00 00	 cmp	 QWORD PTR [rax+144], 0
  00039	75 0a		 jne	 SHORT $LN2@Setup_Shad

; 142  : 		return E_FAIL;

  0003b	b8 05 40 00 80	 mov	 eax, -2147467259	; ffffffff80004005H
  00040	e9 09 02 00 00	 jmp	 $LN1@Setup_Shad
$LN2@Setup_Shad:

; 143  : 
; 144  : 	CGameInstance* pInstance = CGameInstance::GetInstance();

  00045	ff 15 00 00 00
	00		 call	 QWORD PTR __imp_?GetInstance@CGameInstance@Engine@@SAPEAV12@XZ
  0004b	48 89 45 08	 mov	 QWORD PTR pInstance$[rbp], rax

; 145  : 
; 146  : 	if (FAILED(m_pTransform->Setup_ShaderResource(m_pShader, "g_WorldMatrix")))

  0004f	4c 8d 05 00 00
	00 00		 lea	 r8, OFFSET FLAT:??_C@_0O@PFNLPMLD@g_WorldMatrix?$AA@
  00056	48 8b 85 10 02
	00 00		 mov	 rax, QWORD PTR this$[rbp]
  0005d	48 8b 90 90 00
	00 00		 mov	 rdx, QWORD PTR [rax+144]
  00064	48 8b 85 10 02
	00 00		 mov	 rax, QWORD PTR this$[rbp]
  0006b	48 8b 88 80 00
	00 00		 mov	 rcx, QWORD PTR [rax+128]
  00072	ff 15 00 00 00
	00		 call	 QWORD PTR __imp_?Setup_ShaderResource@CTransform@Engine@@QEAAJPEAVCShader@2@PEBD@Z
  00078	85 c0		 test	 eax, eax
  0007a	7d 0a		 jge	 SHORT $LN3@Setup_Shad

; 147  : 		return E_FAIL;

  0007c	b8 05 40 00 80	 mov	 eax, -2147467259	; ffffffff80004005H
  00081	e9 c8 01 00 00	 jmp	 $LN1@Setup_Shad
$LN3@Setup_Shad:

; 148  : 
; 149  : 	if (FAILED(m_pShader->SetMatrix("g_ViewMatrix", &pInstance->Get_Transform_float4x4(CPipeLine::TS_VIEW))))

  00086	45 33 c0	 xor	 r8d, r8d
  00089	48 8d 95 04 01
	00 00		 lea	 rdx, QWORD PTR $T1[rbp]
  00090	48 8b 4d 08	 mov	 rcx, QWORD PTR pInstance$[rbp]
  00094	ff 15 00 00 00
	00		 call	 QWORD PTR __imp_?Get_Transform_float4x4@CGameInstance@Engine@@QEAA?AUXMFLOAT4X4@DirectX@@W4TRANSFORM_STATE@CPipeLine@2@@Z
  0009a	4c 8b c0	 mov	 r8, rax
  0009d	48 8d 15 00 00
	00 00		 lea	 rdx, OFFSET FLAT:??_C@_0N@ELIMCBLG@g_ViewMatrix?$AA@
  000a4	48 8b 85 10 02
	00 00		 mov	 rax, QWORD PTR this$[rbp]
  000ab	48 8b 88 90 00
	00 00		 mov	 rcx, QWORD PTR [rax+144]
  000b2	ff 15 00 00 00
	00		 call	 QWORD PTR __imp_?SetMatrix@CShader@Engine@@QEAAJPEBDPEBUXMFLOAT4X4@DirectX@@@Z
  000b8	85 c0		 test	 eax, eax
  000ba	7d 0a		 jge	 SHORT $LN4@Setup_Shad

; 150  : 		return E_FAIL;

  000bc	b8 05 40 00 80	 mov	 eax, -2147467259	; ffffffff80004005H
  000c1	e9 88 01 00 00	 jmp	 $LN1@Setup_Shad
$LN4@Setup_Shad:

; 151  : 
; 152  : 	if (FAILED(m_pShader->SetMatrix("g_ProjMatrix", &pInstance->Get_Transform_float4x4(CPipeLine::TS_PROJ))))

  000c6	41 b8 01 00 00
	00		 mov	 r8d, 1
  000cc	48 8d 95 64 01
	00 00		 lea	 rdx, QWORD PTR $T2[rbp]
  000d3	48 8b 4d 08	 mov	 rcx, QWORD PTR pInstance$[rbp]
  000d7	ff 15 00 00 00
	00		 call	 QWORD PTR __imp_?Get_Transform_float4x4@CGameInstance@Engine@@QEAA?AUXMFLOAT4X4@DirectX@@W4TRANSFORM_STATE@CPipeLine@2@@Z
  000dd	4c 8b c0	 mov	 r8, rax
  000e0	48 8d 15 00 00
	00 00		 lea	 rdx, OFFSET FLAT:??_C@_0N@OOHDPIO@g_ProjMatrix?$AA@
  000e7	48 8b 85 10 02
	00 00		 mov	 rax, QWORD PTR this$[rbp]
  000ee	48 8b 88 90 00
	00 00		 mov	 rcx, QWORD PTR [rax+144]
  000f5	ff 15 00 00 00
	00		 call	 QWORD PTR __imp_?SetMatrix@CShader@Engine@@QEAAJPEBDPEBUXMFLOAT4X4@DirectX@@@Z
  000fb	85 c0		 test	 eax, eax
  000fd	7d 0a		 jge	 SHORT $LN5@Setup_Shad

; 153  : 		return E_FAIL;

  000ff	b8 05 40 00 80	 mov	 eax, -2147467259	; ffffffff80004005H
  00104	e9 45 01 00 00	 jmp	 $LN1@Setup_Shad
$LN5@Setup_Shad:

; 154  : 
; 155  : 	if (FAILED(m_pShader->SetRawValue("g_vCamPosition", &pInstance->Get_CamPosition(), sizeof(_float3))))

  00109	48 8d 95 c4 01
	00 00		 lea	 rdx, QWORD PTR $T3[rbp]
  00110	48 8b 4d 08	 mov	 rcx, QWORD PTR pInstance$[rbp]
  00114	ff 15 00 00 00
	00		 call	 QWORD PTR __imp_?Get_CamPosition@CGameInstance@Engine@@QEAA?AUXMFLOAT4@DirectX@@XZ
  0011a	41 b9 0c 00 00
	00		 mov	 r9d, 12
  00120	4c 8b c0	 mov	 r8, rax
  00123	48 8d 15 00 00
	00 00		 lea	 rdx, OFFSET FLAT:??_C@_0P@BDEIJKBM@g_vCamPosition?$AA@
  0012a	48 8b 85 10 02
	00 00		 mov	 rax, QWORD PTR this$[rbp]
  00131	48 8b 88 90 00
	00 00		 mov	 rcx, QWORD PTR [rax+144]
  00138	ff 15 00 00 00
	00		 call	 QWORD PTR __imp_?SetRawValue@CShader@Engine@@QEAAJPEBDPEBXI@Z
  0013e	85 c0		 test	 eax, eax
  00140	7d 0a		 jge	 SHORT $LN6@Setup_Shad

; 156  : 		return E_FAIL;

  00142	b8 05 40 00 80	 mov	 eax, -2147467259	; ffffffff80004005H
  00147	e9 02 01 00 00	 jmp	 $LN1@Setup_Shad
$LN6@Setup_Shad:

; 157  : 
; 158  : 	const LIGHT_DESC* LightDesc = pInstance->GetLightDesc(0);

  0014c	33 d2		 xor	 edx, edx
  0014e	48 8b 4d 08	 mov	 rcx, QWORD PTR pInstance$[rbp]
  00152	ff 15 00 00 00
	00		 call	 QWORD PTR __imp_?GetLightDesc@CGameInstance@Engine@@QEAAPEBUtagLight_Desc@2@I@Z
  00158	48 89 45 28	 mov	 QWORD PTR LightDesc$[rbp], rax

; 159  : 	if (nullptr == LightDesc)

  0015c	48 83 7d 28 00	 cmp	 QWORD PTR LightDesc$[rbp], 0
  00161	75 0a		 jne	 SHORT $LN7@Setup_Shad

; 160  : 		return E_FAIL;

  00163	b8 05 40 00 80	 mov	 eax, -2147467259	; ffffffff80004005H
  00168	e9 e1 00 00 00	 jmp	 $LN1@Setup_Shad
$LN7@Setup_Shad:

; 161  : 
; 162  : 	if (FAILED(m_pShader->SetRawValue("g_vLightDir", &LightDesc->vDirection, sizeof(_float4))))

  0016d	48 8b 45 28	 mov	 rax, QWORD PTR LightDesc$[rbp]
  00171	48 83 c0 04	 add	 rax, 4
  00175	41 b9 10 00 00
	00		 mov	 r9d, 16
  0017b	4c 8b c0	 mov	 r8, rax
  0017e	48 8d 15 00 00
	00 00		 lea	 rdx, OFFSET FLAT:??_C@_0M@NHGOLGEL@g_vLightDir?$AA@
  00185	48 8b 85 10 02
	00 00		 mov	 rax, QWORD PTR this$[rbp]
  0018c	48 8b 88 90 00
	00 00		 mov	 rcx, QWORD PTR [rax+144]
  00193	ff 15 00 00 00
	00		 call	 QWORD PTR __imp_?SetRawValue@CShader@Engine@@QEAAJPEBDPEBXI@Z
  00199	85 c0		 test	 eax, eax
  0019b	7d 0a		 jge	 SHORT $LN8@Setup_Shad

; 163  : 		return E_FAIL;

  0019d	b8 05 40 00 80	 mov	 eax, -2147467259	; ffffffff80004005H
  001a2	e9 a7 00 00 00	 jmp	 $LN1@Setup_Shad
$LN8@Setup_Shad:

; 164  : 	if (FAILED(m_pShader->SetRawValue("g_vLightDiffuse", &LightDesc->vDiffuse, sizeof(_float4))))

  001a7	48 8b 45 28	 mov	 rax, QWORD PTR LightDesc$[rbp]
  001ab	48 83 c0 28	 add	 rax, 40			; 00000028H
  001af	41 b9 10 00 00
	00		 mov	 r9d, 16
  001b5	4c 8b c0	 mov	 r8, rax
  001b8	48 8d 15 00 00
	00 00		 lea	 rdx, OFFSET FLAT:??_C@_0BA@PCOGIHOF@g_vLightDiffuse?$AA@
  001bf	48 8b 85 10 02
	00 00		 mov	 rax, QWORD PTR this$[rbp]
  001c6	48 8b 88 90 00
	00 00		 mov	 rcx, QWORD PTR [rax+144]
  001cd	ff 15 00 00 00
	00		 call	 QWORD PTR __imp_?SetRawValue@CShader@Engine@@QEAAJPEBDPEBXI@Z
  001d3	85 c0		 test	 eax, eax
  001d5	7d 07		 jge	 SHORT $LN9@Setup_Shad

; 165  : 		return E_FAIL;

  001d7	b8 05 40 00 80	 mov	 eax, -2147467259	; ffffffff80004005H
  001dc	eb 70		 jmp	 SHORT $LN1@Setup_Shad
$LN9@Setup_Shad:

; 166  : 	if (FAILED(m_pShader->SetRawValue("g_vLightSpecular", &LightDesc->vSpecular, sizeof(_float4))))

  001de	48 8b 45 28	 mov	 rax, QWORD PTR LightDesc$[rbp]
  001e2	48 83 c0 48	 add	 rax, 72			; 00000048H
  001e6	41 b9 10 00 00
	00		 mov	 r9d, 16
  001ec	4c 8b c0	 mov	 r8, rax
  001ef	48 8d 15 00 00
	00 00		 lea	 rdx, OFFSET FLAT:??_C@_0BB@IJIIKIH@g_vLightSpecular?$AA@
  001f6	48 8b 85 10 02
	00 00		 mov	 rax, QWORD PTR this$[rbp]
  001fd	48 8b 88 90 00
	00 00		 mov	 rcx, QWORD PTR [rax+144]
  00204	ff 15 00 00 00
	00		 call	 QWORD PTR __imp_?SetRawValue@CShader@Engine@@QEAAJPEBDPEBXI@Z
  0020a	85 c0		 test	 eax, eax
  0020c	7d 07		 jge	 SHORT $LN10@Setup_Shad

; 167  : 		return E_FAIL;

  0020e	b8 05 40 00 80	 mov	 eax, -2147467259	; ffffffff80004005H
  00213	eb 39		 jmp	 SHORT $LN1@Setup_Shad
$LN10@Setup_Shad:

; 168  : 	if (FAILED(m_pShader->SetRawValue("g_vLightAmbient", &LightDesc->vAmbient, sizeof(_float4))))

  00215	48 8b 45 28	 mov	 rax, QWORD PTR LightDesc$[rbp]
  00219	48 83 c0 38	 add	 rax, 56			; 00000038H
  0021d	41 b9 10 00 00
	00		 mov	 r9d, 16
  00223	4c 8b c0	 mov	 r8, rax
  00226	48 8d 15 00 00
	00 00		 lea	 rdx, OFFSET FLAT:??_C@_0BA@EALGDMPJ@g_vLightAmbient?$AA@
  0022d	48 8b 85 10 02
	00 00		 mov	 rax, QWORD PTR this$[rbp]
  00234	48 8b 88 90 00
	00 00		 mov	 rcx, QWORD PTR [rax+144]
  0023b	ff 15 00 00 00
	00		 call	 QWORD PTR __imp_?SetRawValue@CShader@Engine@@QEAAJPEBDPEBXI@Z
  00241	85 c0		 test	 eax, eax
  00243	7d 07		 jge	 SHORT $LN11@Setup_Shad

; 169  : 		return E_FAIL;

  00245	b8 05 40 00 80	 mov	 eax, -2147467259	; ffffffff80004005H
  0024a	eb 02		 jmp	 SHORT $LN1@Setup_Shad
$LN11@Setup_Shad:

; 170  : 
; 171  : 	return S_OK;

  0024c	33 c0		 xor	 eax, eax
$LN1@Setup_Shad:

; 172  : }

  0024e	48 8d a5 f8 01
	00 00		 lea	 rsp, QWORD PTR [rbp+504]
  00255	5f		 pop	 rdi
  00256	5d		 pop	 rbp
  00257	c3		 ret	 0
?Setup_ShaderResources@CFootSmoke@Client@@AEAAJXZ ENDP	; Client::CFootSmoke::Setup_ShaderResources
_TEXT	ENDS
; Function compile flags: /Odtp /RTCsu /ZI
; File c:\users\arcco\documents\github\framework\client\private\footsmoke.cpp
;	COMDAT ?Add_Components@CFootSmoke@Client@@AEAAJXZ
_TEXT	SEGMENT
desc$ = 8
__$ArrayPad$ = 216
this$ = 256
?Add_Components@CFootSmoke@Client@@AEAAJXZ PROC		; Client::CFootSmoke::Add_Components, COMDAT

; 116  : {

$LN8:
  00000	48 89 4c 24 08	 mov	 QWORD PTR [rsp+8], rcx
  00005	55		 push	 rbp
  00006	57		 push	 rdi
  00007	48 81 ec 18 01
	00 00		 sub	 rsp, 280		; 00000118H
  0000e	48 8d 6c 24 30	 lea	 rbp, QWORD PTR [rsp+48]
  00013	48 8b fc	 mov	 rdi, rsp
  00016	b9 46 00 00 00	 mov	 ecx, 70			; 00000046H
  0001b	b8 cc cc cc cc	 mov	 eax, -858993460		; ccccccccH
  00020	f3 ab		 rep stosd
  00022	48 8b 8c 24 38
	01 00 00	 mov	 rcx, QWORD PTR [rsp+312]
  0002a	48 8b 05 00 00
	00 00		 mov	 rax, QWORD PTR __security_cookie
  00031	48 33 c5	 xor	 rax, rbp
  00034	48 89 85 d8 00
	00 00		 mov	 QWORD PTR __$ArrayPad$[rbp], rax

; 117  : 	if (FAILED(CGameObject::Add_Component(LEVEL_STATIC, TEXT("proto_com_renderer"), TEXT("com_renderer"), (CComponent**)&m_pRenderer)))

  0003b	48 8b 85 00 01
	00 00		 mov	 rax, QWORD PTR this$[rbp]
  00042	48 05 88 00 00
	00		 add	 rax, 136		; 00000088H
  00048	48 c7 44 24 28
	00 00 00 00	 mov	 QWORD PTR [rsp+40], 0
  00051	48 89 44 24 20	 mov	 QWORD PTR [rsp+32], rax
  00056	4c 8d 0d 00 00
	00 00		 lea	 r9, OFFSET FLAT:??_C@_1BK@GIOMOCNE@?$AAc?$AAo?$AAm?$AA_?$AAr?$AAe?$AAn?$AAd?$AAe?$AAr?$AAe?$AAr?$AA?$AA@
  0005d	4c 8d 05 00 00
	00 00		 lea	 r8, OFFSET FLAT:??_C@_1CG@COFFFCLL@?$AAp?$AAr?$AAo?$AAt?$AAo?$AA_?$AAc?$AAo?$AAm?$AA_?$AAr?$AAe?$AAn?$AAd?$AAe?$AAr?$AAe?$AAr?$AA?$AA@
  00064	33 d2		 xor	 edx, edx
  00066	48 8b 8d 00 01
	00 00		 mov	 rcx, QWORD PTR this$[rbp]
  0006d	ff 15 00 00 00
	00		 call	 QWORD PTR __imp_?Add_Component@CGameObject@Engine@@IEAAJIPEB_W0PEAPEAVCComponent@2@PEAX@Z
  00073	85 c0		 test	 eax, eax
  00075	7d 0a		 jge	 SHORT $LN2@Add_Compon

; 118  : 		return E_FAIL;

  00077	b8 05 40 00 80	 mov	 eax, -2147467259	; ffffffff80004005H
  0007c	e9 33 01 00 00	 jmp	 $LN1@Add_Compon
$LN2@Add_Compon:

; 119  : 
; 120  : 	CTransform::TRANSFORM_DESC desc;
; 121  : 	desc.fMoveSpeed = 0.1f;

  00081	f3 0f 10 05 00
	00 00 00	 movss	 xmm0, DWORD PTR __real@3dcccccd
  00089	f3 0f 11 45 08	 movss	 DWORD PTR desc$[rbp], xmm0

; 122  : 	desc.fRotationSpeed = XMConvertToRadians(20.f);

  0008e	f3 0f 10 05 00
	00 00 00	 movss	 xmm0, DWORD PTR __real@41a00000
  00096	e8 00 00 00 00	 call	 ?XMConvertToRadians@DirectX@@YAMM@Z ; DirectX::XMConvertToRadians
  0009b	f3 0f 11 45 0c	 movss	 DWORD PTR desc$[rbp+4], xmm0

; 123  : 
; 124  : 	if (FAILED(CGameObject::Add_Component(LEVEL_STATIC, TEXT("proto_com_transform"), TEXT("com_transform"), (CComponent**)&m_pTransform, &desc)))

  000a0	48 8b 85 00 01
	00 00		 mov	 rax, QWORD PTR this$[rbp]
  000a7	48 05 80 00 00
	00		 add	 rax, 128		; 00000080H
  000ad	48 8d 4d 08	 lea	 rcx, QWORD PTR desc$[rbp]
  000b1	48 89 4c 24 28	 mov	 QWORD PTR [rsp+40], rcx
  000b6	48 89 44 24 20	 mov	 QWORD PTR [rsp+32], rax
  000bb	4c 8d 0d 00 00
	00 00		 lea	 r9, OFFSET FLAT:??_C@_1BM@CJMPMHDD@?$AAc?$AAo?$AAm?$AA_?$AAt?$AAr?$AAa?$AAn?$AAs?$AAf?$AAo?$AAr?$AAm?$AA?$AA@
  000c2	4c 8d 05 00 00
	00 00		 lea	 r8, OFFSET FLAT:??_C@_1CI@MLEFGO@?$AAp?$AAr?$AAo?$AAt?$AAo?$AA_?$AAc?$AAo?$AAm?$AA_?$AAt?$AAr?$AAa?$AAn?$AAs?$AAf?$AAo?$AAr?$AAm?$AA?$AA@
  000c9	33 d2		 xor	 edx, edx
  000cb	48 8b 8d 00 01
	00 00		 mov	 rcx, QWORD PTR this$[rbp]
  000d2	ff 15 00 00 00
	00		 call	 QWORD PTR __imp_?Add_Component@CGameObject@Engine@@IEAAJIPEB_W0PEAPEAVCComponent@2@PEAX@Z
  000d8	85 c0		 test	 eax, eax
  000da	7d 0a		 jge	 SHORT $LN3@Add_Compon

; 125  : 		return E_FAIL;

  000dc	b8 05 40 00 80	 mov	 eax, -2147467259	; ffffffff80004005H
  000e1	e9 ce 00 00 00	 jmp	 $LN1@Add_Compon
$LN3@Add_Compon:

; 126  : 
; 127  : 	if (FAILED(CGameObject::Add_Component(LEVEL_STATIC, TEXT("proto_com_shader_vtxmodel"), TEXT("com_shader"), (CComponent**)&m_pShader)))

  000e6	48 8b 85 00 01
	00 00		 mov	 rax, QWORD PTR this$[rbp]
  000ed	48 05 90 00 00
	00		 add	 rax, 144		; 00000090H
  000f3	48 c7 44 24 28
	00 00 00 00	 mov	 QWORD PTR [rsp+40], 0
  000fc	48 89 44 24 20	 mov	 QWORD PTR [rsp+32], rax
  00101	4c 8d 0d 00 00
	00 00		 lea	 r9, OFFSET FLAT:??_C@_1BG@GGOMMBBL@?$AAc?$AAo?$AAm?$AA_?$AAs?$AAh?$AAa?$AAd?$AAe?$AAr?$AA?$AA@
  00108	4c 8d 05 00 00
	00 00		 lea	 r8, OFFSET FLAT:??_C@_1DE@OMAPGAIH@?$AAp?$AAr?$AAo?$AAt?$AAo?$AA_?$AAc?$AAo?$AAm?$AA_?$AAs?$AAh?$AAa?$AAd?$AAe?$AAr?$AA_?$AAv?$AAt?$AAx?$AAm?$AAo?$AAd?$AAe?$AAl?$AA?$AA@
  0010f	33 d2		 xor	 edx, edx
  00111	48 8b 8d 00 01
	00 00		 mov	 rcx, QWORD PTR this$[rbp]
  00118	ff 15 00 00 00
	00		 call	 QWORD PTR __imp_?Add_Component@CGameObject@Engine@@IEAAJIPEB_W0PEAPEAVCComponent@2@PEAX@Z
  0011e	85 c0		 test	 eax, eax
  00120	7d 0a		 jge	 SHORT $LN4@Add_Compon

; 128  : 		return E_FAIL;

  00122	b8 05 40 00 80	 mov	 eax, -2147467259	; ffffffff80004005H
  00127	e9 88 00 00 00	 jmp	 $LN1@Add_Compon
$LN4@Add_Compon:

; 129  : 
; 130  : 	if (FAILED(CGameObject::Add_Component(LEVEL_STATIC, TEXT("proto_com_model_footsmoke"), TEXT("com_model"), (CComponent**)&m_pModel)))

  0012c	48 8b 85 00 01
	00 00		 mov	 rax, QWORD PTR this$[rbp]
  00133	48 05 98 00 00
	00		 add	 rax, 152		; 00000098H
  00139	48 c7 44 24 28
	00 00 00 00	 mov	 QWORD PTR [rsp+40], 0
  00142	48 89 44 24 20	 mov	 QWORD PTR [rsp+32], rax
  00147	4c 8d 0d 00 00
	00 00		 lea	 r9, OFFSET FLAT:??_C@_1BE@MLNOEPCA@?$AAc?$AAo?$AAm?$AA_?$AAm?$AAo?$AAd?$AAe?$AAl?$AA?$AA@
  0014e	4c 8d 05 00 00
	00 00		 lea	 r8, OFFSET FLAT:??_C@_1DE@JOLGDLAL@?$AAp?$AAr?$AAo?$AAt?$AAo?$AA_?$AAc?$AAo?$AAm?$AA_?$AAm?$AAo?$AAd?$AAe?$AAl?$AA_?$AAf?$AAo?$AAo?$AAt?$AAs?$AAm?$AAo?$AAk?$AAe?$AA?$AA@
  00155	33 d2		 xor	 edx, edx
  00157	48 8b 8d 00 01
	00 00		 mov	 rcx, QWORD PTR this$[rbp]
  0015e	ff 15 00 00 00
	00		 call	 QWORD PTR __imp_?Add_Component@CGameObject@Engine@@IEAAJIPEB_W0PEAPEAVCComponent@2@PEAX@Z
  00164	85 c0		 test	 eax, eax
  00166	7d 07		 jge	 SHORT $LN5@Add_Compon

; 131  : 		return E_FAIL;

  00168	b8 05 40 00 80	 mov	 eax, -2147467259	; ffffffff80004005H
  0016d	eb 45		 jmp	 SHORT $LN1@Add_Compon
$LN5@Add_Compon:

; 132  : 
; 133  : 	if (FAILED(CGameObject::Add_Component(LEVEL_STATIC, TEXT("proto_com_texture_footsmokediffuse"), TEXT("com_diffuse"), (CComponent**)&m_pDiffuseTexture)))

  0016f	48 8b 85 00 01
	00 00		 mov	 rax, QWORD PTR this$[rbp]
  00176	48 05 a0 00 00
	00		 add	 rax, 160		; 000000a0H
  0017c	48 c7 44 24 28
	00 00 00 00	 mov	 QWORD PTR [rsp+40], 0
  00185	48 89 44 24 20	 mov	 QWORD PTR [rsp+32], rax
  0018a	4c 8d 0d 00 00
	00 00		 lea	 r9, OFFSET FLAT:??_C@_1BI@IPGKEMA@?$AAc?$AAo?$AAm?$AA_?$AAd?$AAi?$AAf?$AAf?$AAu?$AAs?$AAe?$AA?$AA@
  00191	4c 8d 05 00 00
	00 00		 lea	 r8, OFFSET FLAT:??_C@_1EG@ELMCKEHA@?$AAp?$AAr?$AAo?$AAt?$AAo?$AA_?$AAc?$AAo?$AAm?$AA_?$AAt?$AAe?$AAx?$AAt?$AAu?$AAr?$AAe?$AA_?$AAf?$AAo?$AAo?$AAt?$AAs?$AAm?$AAo?$AAk?$AAe?$AAd?$AAi?$AAf?$AAf?$AAu@
  00198	33 d2		 xor	 edx, edx
  0019a	48 8b 8d 00 01
	00 00		 mov	 rcx, QWORD PTR this$[rbp]
  001a1	ff 15 00 00 00
	00		 call	 QWORD PTR __imp_?Add_Component@CGameObject@Engine@@IEAAJIPEB_W0PEAPEAVCComponent@2@PEAX@Z
  001a7	85 c0		 test	 eax, eax
  001a9	7d 07		 jge	 SHORT $LN6@Add_Compon

; 134  : 		return E_FAIL;

  001ab	b8 05 40 00 80	 mov	 eax, -2147467259	; ffffffff80004005H
  001b0	eb 02		 jmp	 SHORT $LN1@Add_Compon
$LN6@Add_Compon:

; 135  : 
; 136  : 	return S_OK;

  001b2	33 c0		 xor	 eax, eax
$LN1@Add_Compon:

; 137  : }

  001b4	48 8b f8	 mov	 rdi, rax
  001b7	48 8d 4d d0	 lea	 rcx, QWORD PTR [rbp-48]
  001bb	48 8d 15 00 00
	00 00		 lea	 rdx, OFFSET FLAT:?Add_Components@CFootSmoke@Client@@AEAAJXZ$rtcFrameData
  001c2	e8 00 00 00 00	 call	 _RTC_CheckStackVars
  001c7	48 8b c7	 mov	 rax, rdi
  001ca	48 8b 8d d8 00
	00 00		 mov	 rcx, QWORD PTR __$ArrayPad$[rbp]
  001d1	48 33 cd	 xor	 rcx, rbp
  001d4	e8 00 00 00 00	 call	 __security_check_cookie
  001d9	48 8d a5 e8 00
	00 00		 lea	 rsp, QWORD PTR [rbp+232]
  001e0	5f		 pop	 rdi
  001e1	5d		 pop	 rbp
  001e2	c3		 ret	 0
?Add_Components@CFootSmoke@Client@@AEAAJXZ ENDP		; Client::CFootSmoke::Add_Components
_TEXT	ENDS
; Function compile flags: /Odtp /RTCsu /ZI
; File c:\users\arcco\documents\github\framework\client\private\footsmoke.cpp
;	COMDAT ?StartEffect@CFootSmoke@Client@@QEAAXXZ
_TEXT	SEGMENT
vOwnerPos$ = 16
$T4 = 256
$T5 = 304
__$ArrayPad$ = 328
this$ = 368
?StartEffect@CFootSmoke@Client@@QEAAXXZ PROC		; Client::CFootSmoke::StartEffect, COMDAT

; 105  : {

$LN3:
  00000	48 89 4c 24 08	 mov	 QWORD PTR [rsp+8], rcx
  00005	55		 push	 rbp
  00006	57		 push	 rdi
  00007	48 81 ec 78 01
	00 00		 sub	 rsp, 376		; 00000178H
  0000e	48 8d 6c 24 20	 lea	 rbp, QWORD PTR [rsp+32]
  00013	48 8b fc	 mov	 rdi, rsp
  00016	b9 5e 00 00 00	 mov	 ecx, 94			; 0000005eH
  0001b	b8 cc cc cc cc	 mov	 eax, -858993460		; ccccccccH
  00020	f3 ab		 rep stosd
  00022	48 8b 8c 24 98
	01 00 00	 mov	 rcx, QWORD PTR [rsp+408]
  0002a	48 8b 05 00 00
	00 00		 mov	 rax, QWORD PTR __security_cookie
  00031	48 33 c5	 xor	 rax, rbp
  00034	48 89 85 48 01
	00 00		 mov	 QWORD PTR __$ArrayPad$[rbp], rax

; 106  : 	_vector vOwnerPos = m_pOwnerTransform->Get_State(CTransform::STATE_POSITION);

  0003b	41 b8 03 00 00
	00		 mov	 r8d, 3
  00041	48 8d 55 10	 lea	 rdx, QWORD PTR vOwnerPos$[rbp]
  00045	48 8b 85 70 01
	00 00		 mov	 rax, QWORD PTR this$[rbp]
  0004c	48 8b 88 b0 00
	00 00		 mov	 rcx, QWORD PTR [rax+176]
  00053	ff 15 00 00 00
	00		 call	 QWORD PTR __imp_?Get_State@CTransform@Engine@@QEAA?AT__m128@@W4STATE@12@@Z

; 107  : 	vOwnerPos = XMVectorSetY(vOwnerPos, 0.1f);

  00059	f3 0f 10 0d 00
	00 00 00	 movss	 xmm1, DWORD PTR __real@3dcccccd
  00061	0f 28 45 10	 movaps	 xmm0, XMMWORD PTR vOwnerPos$[rbp]
  00065	e8 00 00 00 00	 call	 ?XMVectorSetY@DirectX@@YQ?AT__m128@@T2@M@Z ; DirectX::XMVectorSetY
  0006a	0f 29 85 00 01
	00 00		 movaps	 XMMWORD PTR $T4[rbp], xmm0
  00071	0f 28 85 00 01
	00 00		 movaps	 xmm0, XMMWORD PTR $T4[rbp]
  00078	0f 29 45 10	 movaps	 XMMWORD PTR vOwnerPos$[rbp], xmm0

; 108  : 	m_pTransform->Set_State(CTransform::STATE_POSITION, vOwnerPos);

  0007c	0f 28 45 10	 movaps	 xmm0, XMMWORD PTR vOwnerPos$[rbp]
  00080	0f 29 85 30 01
	00 00		 movaps	 XMMWORD PTR $T5[rbp], xmm0
  00087	4c 8d 85 30 01
	00 00		 lea	 r8, QWORD PTR $T5[rbp]
  0008e	ba 03 00 00 00	 mov	 edx, 3
  00093	48 8b 85 70 01
	00 00		 mov	 rax, QWORD PTR this$[rbp]
  0009a	48 8b 88 80 00
	00 00		 mov	 rcx, QWORD PTR [rax+128]
  000a1	ff 15 00 00 00
	00		 call	 QWORD PTR __imp_?Set_State@CTransform@Engine@@QEAAXW4STATE@12@T__m128@@@Z

; 109  : 
; 110  : 	m_bActive = true;

  000a7	48 8b 85 70 01
	00 00		 mov	 rax, QWORD PTR this$[rbp]
  000ae	c6 80 b8 00 00
	00 01		 mov	 BYTE PTR [rax+184], 1

; 111  : 	m_fTimeAcc = 0.f;

  000b5	48 8b 85 70 01
	00 00		 mov	 rax, QWORD PTR this$[rbp]
  000bc	0f 57 c0	 xorps	 xmm0, xmm0
  000bf	f3 0f 11 80 bc
	00 00 00	 movss	 DWORD PTR [rax+188], xmm0

; 112  : 	m_vCurScale = m_vSaveScale;

  000c7	48 8b 85 70 01
	00 00		 mov	 rax, QWORD PTR this$[rbp]
  000ce	48 8b 8d 70 01
	00 00		 mov	 rcx, QWORD PTR this$[rbp]
  000d5	f3 0f 10 81 c4
	00 00 00	 movss	 xmm0, DWORD PTR [rcx+196]
  000dd	f3 0f 11 80 c0
	00 00 00	 movss	 DWORD PTR [rax+192], xmm0

; 113  : }

  000e5	48 8d 4d e0	 lea	 rcx, QWORD PTR [rbp-32]
  000e9	48 8d 15 00 00
	00 00		 lea	 rdx, OFFSET FLAT:?StartEffect@CFootSmoke@Client@@QEAAXXZ$rtcFrameData
  000f0	e8 00 00 00 00	 call	 _RTC_CheckStackVars
  000f5	48 8b 8d 48 01
	00 00		 mov	 rcx, QWORD PTR __$ArrayPad$[rbp]
  000fc	48 33 cd	 xor	 rcx, rbp
  000ff	e8 00 00 00 00	 call	 __security_check_cookie
  00104	48 8d a5 58 01
	00 00		 lea	 rsp, QWORD PTR [rbp+344]
  0010b	5f		 pop	 rdi
  0010c	5d		 pop	 rbp
  0010d	c3		 ret	 0
?StartEffect@CFootSmoke@Client@@QEAAXXZ ENDP		; Client::CFootSmoke::StartEffect
_TEXT	ENDS
; Function compile flags: /Odtp /RTCsu /ZI
; File c:\users\arcco\documents\github\framework\client\private\footsmoke.cpp
;	COMDAT ?RenderGUI@CFootSmoke@Client@@UEAAXXZ
_TEXT	SEGMENT
this$ = 224
?RenderGUI@CFootSmoke@Client@@UEAAXXZ PROC		; Client::CFootSmoke::RenderGUI, COMDAT

; 101  : {

$LN3:
  00000	48 89 4c 24 08	 mov	 QWORD PTR [rsp+8], rcx
  00005	55		 push	 rbp
  00006	57		 push	 rdi
  00007	48 81 ec c8 00
	00 00		 sub	 rsp, 200		; 000000c8H
  0000e	48 8b ec	 mov	 rbp, rsp
  00011	48 8b fc	 mov	 rdi, rsp
  00014	b9 32 00 00 00	 mov	 ecx, 50			; 00000032H
  00019	b8 cc cc cc cc	 mov	 eax, -858993460		; ccccccccH
  0001e	f3 ab		 rep stosd
  00020	48 8b 8c 24 e8
	00 00 00	 mov	 rcx, QWORD PTR [rsp+232]

; 102  : }

  00028	48 8d a5 c8 00
	00 00		 lea	 rsp, QWORD PTR [rbp+200]
  0002f	5f		 pop	 rdi
  00030	5d		 pop	 rbp
  00031	c3		 ret	 0
?RenderGUI@CFootSmoke@Client@@UEAAXXZ ENDP		; Client::CFootSmoke::RenderGUI
_TEXT	ENDS
; Function compile flags: /Odtp /RTCsu /ZI
; File c:\users\arcco\documents\github\framework\client\private\footsmoke.cpp
;	COMDAT ?Render@CFootSmoke@Client@@UEAAJXZ
_TEXT	SEGMENT
tv87 = 192
this$ = 240
?Render@CFootSmoke@Client@@UEAAJXZ PROC			; Client::CFootSmoke::Render, COMDAT

; 74   : {

$LN9:
  00000	48 89 4c 24 08	 mov	 QWORD PTR [rsp+8], rcx
  00005	55		 push	 rbp
  00006	57		 push	 rdi
  00007	48 81 ec f8 00
	00 00		 sub	 rsp, 248		; 000000f8H
  0000e	48 8d 6c 24 20	 lea	 rbp, QWORD PTR [rsp+32]
  00013	48 8b fc	 mov	 rdi, rsp
  00016	b9 3e 00 00 00	 mov	 ecx, 62			; 0000003eH
  0001b	b8 cc cc cc cc	 mov	 eax, -858993460		; ccccccccH
  00020	f3 ab		 rep stosd
  00022	48 8b 8c 24 18
	01 00 00	 mov	 rcx, QWORD PTR [rsp+280]

; 75   : 	if (FAILED(__super::Render()))

  0002a	48 8b 8d f0 00
	00 00		 mov	 rcx, QWORD PTR this$[rbp]
  00031	ff 15 00 00 00
	00		 call	 QWORD PTR __imp_?Render@CGameObject@Engine@@UEAAJXZ
  00037	85 c0		 test	 eax, eax
  00039	7d 0a		 jge	 SHORT $LN4@Render

; 76   : 		return E_FAIL;

  0003b	b8 05 40 00 80	 mov	 eax, -2147467259	; ffffffff80004005H
  00040	e9 fd 00 00 00	 jmp	 $LN1@Render
$LN4@Render:

; 77   : 
; 78   : 	if (FAILED(Setup_ShaderResources()))

  00045	48 8b 8d f0 00
	00 00		 mov	 rcx, QWORD PTR this$[rbp]
  0004c	e8 00 00 00 00	 call	 ?Setup_ShaderResources@CFootSmoke@Client@@AEAAJXZ ; Client::CFootSmoke::Setup_ShaderResources
  00051	85 c0		 test	 eax, eax
  00053	7d 0a		 jge	 SHORT $LN5@Render

; 79   : 		return E_FAIL;

  00055	b8 05 40 00 80	 mov	 eax, -2147467259	; ffffffff80004005H
  0005a	e9 e3 00 00 00	 jmp	 $LN1@Render
$LN5@Render:

; 80   : 
; 81   : 	m_pDiffuseTexture->Setup_ShaderResource(m_pShader, "g_DiffuseTexture");

  0005f	45 33 c9	 xor	 r9d, r9d
  00062	4c 8d 05 00 00
	00 00		 lea	 r8, OFFSET FLAT:??_C@_0BB@FMIBAICL@g_DiffuseTexture?$AA@
  00069	48 8b 85 f0 00
	00 00		 mov	 rax, QWORD PTR this$[rbp]
  00070	48 8b 90 90 00
	00 00		 mov	 rdx, QWORD PTR [rax+144]
  00077	48 8b 85 f0 00
	00 00		 mov	 rax, QWORD PTR this$[rbp]
  0007e	48 8b 88 a0 00
	00 00		 mov	 rcx, QWORD PTR [rax+160]
  00085	ff 15 00 00 00
	00		 call	 QWORD PTR __imp_?Setup_ShaderResource@CTexture@Engine@@QEAAJPEAVCShader@2@PEBDI@Z

; 82   : 	m_pShader->SetRawValue("g_fTimeAcc", &m_fTimeAcc, sizeof(_float));

  0008b	48 8b 85 f0 00
	00 00		 mov	 rax, QWORD PTR this$[rbp]
  00092	48 05 bc 00 00
	00		 add	 rax, 188		; 000000bcH
  00098	41 b9 04 00 00
	00		 mov	 r9d, 4
  0009e	4c 8b c0	 mov	 r8, rax
  000a1	48 8d 15 00 00
	00 00		 lea	 rdx, OFFSET FLAT:??_C@_0L@IHOCIKLF@g_fTimeAcc?$AA@
  000a8	48 8b 85 f0 00
	00 00		 mov	 rax, QWORD PTR this$[rbp]
  000af	48 8b 88 90 00
	00 00		 mov	 rcx, QWORD PTR [rax+144]
  000b6	ff 15 00 00 00
	00		 call	 QWORD PTR __imp_?SetRawValue@CShader@Engine@@QEAAJPEBDPEBXI@Z

; 83   : 
; 84   : 	switch (m_eFootType)

  000bc	48 8b 85 f0 00
	00 00		 mov	 rax, QWORD PTR this$[rbp]
  000c3	8b 40 78	 mov	 eax, DWORD PTR [rax+120]
  000c6	89 85 c0 00 00
	00		 mov	 DWORD PTR tv87[rbp], eax
  000cc	83 bd c0 00 00
	00 00		 cmp	 DWORD PTR tv87[rbp], 0
  000d3	74 0b		 je	 SHORT $LN6@Render
  000d5	83 bd c0 00 00
	00 01		 cmp	 DWORD PTR tv87[rbp], 1
  000dc	74 33		 je	 SHORT $LN7@Render
  000de	eb 60		 jmp	 SHORT $LN2@Render
$LN6@Render:

; 85   : 	{
; 86   : 	case FOOT::PLAYER:
; 87   : 		m_pShader->Begin(16);

  000e0	ba 10 00 00 00	 mov	 edx, 16
  000e5	48 8b 85 f0 00
	00 00		 mov	 rax, QWORD PTR this$[rbp]
  000ec	48 8b 88 90 00
	00 00		 mov	 rcx, QWORD PTR [rax+144]
  000f3	ff 15 00 00 00
	00		 call	 QWORD PTR __imp_?Begin@CShader@Engine@@QEAAJI@Z

; 88   : 		m_pModel->Render(0);

  000f9	33 d2		 xor	 edx, edx
  000fb	48 8b 85 f0 00
	00 00		 mov	 rax, QWORD PTR this$[rbp]
  00102	48 8b 88 98 00
	00 00		 mov	 rcx, QWORD PTR [rax+152]
  00109	ff 15 00 00 00
	00		 call	 QWORD PTR __imp_?Render@CModel@Engine@@QEAAJI@Z

; 89   : 		break;

  0010f	eb 2f		 jmp	 SHORT $LN2@Render
$LN7@Render:

; 90   : 	case FOOT::ENEMY:
; 91   : 		m_pShader->Begin(17);

  00111	ba 11 00 00 00	 mov	 edx, 17
  00116	48 8b 85 f0 00
	00 00		 mov	 rax, QWORD PTR this$[rbp]
  0011d	48 8b 88 90 00
	00 00		 mov	 rcx, QWORD PTR [rax+144]
  00124	ff 15 00 00 00
	00		 call	 QWORD PTR __imp_?Begin@CShader@Engine@@QEAAJI@Z

; 92   : 		m_pModel->Render(0);

  0012a	33 d2		 xor	 edx, edx
  0012c	48 8b 85 f0 00
	00 00		 mov	 rax, QWORD PTR this$[rbp]
  00133	48 8b 88 98 00
	00 00		 mov	 rcx, QWORD PTR [rax+152]
  0013a	ff 15 00 00 00
	00		 call	 QWORD PTR __imp_?Render@CModel@Engine@@QEAAJI@Z
$LN2@Render:

; 93   : 	break;
; 94   : 	}
; 95   : 
; 96   : 
; 97   : 	return S_OK;

  00140	33 c0		 xor	 eax, eax
$LN1@Render:

; 98   : }

  00142	48 8d a5 d8 00
	00 00		 lea	 rsp, QWORD PTR [rbp+216]
  00149	5f		 pop	 rdi
  0014a	5d		 pop	 rbp
  0014b	c3		 ret	 0
?Render@CFootSmoke@Client@@UEAAJXZ ENDP			; Client::CFootSmoke::Render
_TEXT	ENDS
; Function compile flags: /Odtp /RTCsu /ZI
; File c:\users\arcco\documents\github\framework\client\private\footsmoke.cpp
;	COMDAT ?LateTick@CFootSmoke@Client@@UEAAXN@Z
_TEXT	SEGMENT
this$ = 224
TimeDelta$ = 232
?LateTick@CFootSmoke@Client@@UEAAXN@Z PROC		; Client::CFootSmoke::LateTick, COMDAT

; 66   : {

$LN4:
  00000	f2 0f 11 4c 24
	10		 movsd	 QWORD PTR [rsp+16], xmm1
  00006	48 89 4c 24 08	 mov	 QWORD PTR [rsp+8], rcx
  0000b	55		 push	 rbp
  0000c	57		 push	 rdi
  0000d	48 81 ec e8 00
	00 00		 sub	 rsp, 232		; 000000e8H
  00014	48 8d 6c 24 20	 lea	 rbp, QWORD PTR [rsp+32]
  00019	48 8b fc	 mov	 rdi, rsp
  0001c	b9 3a 00 00 00	 mov	 ecx, 58			; 0000003aH
  00021	b8 cc cc cc cc	 mov	 eax, -858993460		; ccccccccH
  00026	f3 ab		 rep stosd
  00028	48 8b 8c 24 08
	01 00 00	 mov	 rcx, QWORD PTR [rsp+264]

; 67   : 	__super::LateTick(TimeDelta);

  00030	f2 0f 10 8d e8
	00 00 00	 movsd	 xmm1, QWORD PTR TimeDelta$[rbp]
  00038	48 8b 8d e0 00
	00 00		 mov	 rcx, QWORD PTR this$[rbp]
  0003f	ff 15 00 00 00
	00		 call	 QWORD PTR __imp_?LateTick@CGameObject@Engine@@UEAAXN@Z

; 68   : 
; 69   : 	if (nullptr != m_pRenderer && m_bActive)

  00045	48 8b 85 e0 00
	00 00		 mov	 rax, QWORD PTR this$[rbp]
  0004c	48 83 b8 88 00
	00 00 00	 cmp	 QWORD PTR [rax+136], 0
  00054	74 32		 je	 SHORT $LN2@LateTick
  00056	48 8b 85 e0 00
	00 00		 mov	 rax, QWORD PTR this$[rbp]
  0005d	0f b6 80 b8 00
	00 00		 movzx	 eax, BYTE PTR [rax+184]
  00064	85 c0		 test	 eax, eax
  00066	74 20		 je	 SHORT $LN2@LateTick

; 70   : 		m_pRenderer->Add_RenderGroup(CRenderer::RENDER_ALPHABLEND, this);

  00068	4c 8b 85 e0 00
	00 00		 mov	 r8, QWORD PTR this$[rbp]
  0006f	ba 03 00 00 00	 mov	 edx, 3
  00074	48 8b 85 e0 00
	00 00		 mov	 rax, QWORD PTR this$[rbp]
  0007b	48 8b 88 88 00
	00 00		 mov	 rcx, QWORD PTR [rax+136]
  00082	ff 15 00 00 00
	00		 call	 QWORD PTR __imp_?Add_RenderGroup@CRenderer@Engine@@QEAAJW4RENDER_GROUP@12@PEAVCGameObject@2@@Z
$LN2@LateTick:

; 71   : }

  00088	48 8d a5 c8 00
	00 00		 lea	 rsp, QWORD PTR [rbp+200]
  0008f	5f		 pop	 rdi
  00090	5d		 pop	 rbp
  00091	c3		 ret	 0
?LateTick@CFootSmoke@Client@@UEAAXN@Z ENDP		; Client::CFootSmoke::LateTick
_TEXT	ENDS
; Function compile flags: /Odtp /RTCsu /ZI
; File c:\users\arcco\documents\github\framework\client\private\footsmoke.cpp
;	COMDAT ?Tick@CFootSmoke@Client@@UEAAXN@Z
_TEXT	SEGMENT
$T1 = 196
$T2 = 228
$T3 = 272
$T4 = 320
this$ = 384
TimeDelta$ = 392
?Tick@CFootSmoke@Client@@UEAAXN@Z PROC			; Client::CFootSmoke::Tick, COMDAT

; 46   : {

$LN5:
  00000	f2 0f 11 4c 24
	10		 movsd	 QWORD PTR [rsp+16], xmm1
  00006	48 89 4c 24 08	 mov	 QWORD PTR [rsp+8], rcx
  0000b	55		 push	 rbp
  0000c	56		 push	 rsi
  0000d	57		 push	 rdi
  0000e	48 81 ec 80 01
	00 00		 sub	 rsp, 384		; 00000180H
  00015	48 8d 6c 24 20	 lea	 rbp, QWORD PTR [rsp+32]
  0001a	48 8b fc	 mov	 rdi, rsp
  0001d	b9 60 00 00 00	 mov	 ecx, 96			; 00000060H
  00022	b8 cc cc cc cc	 mov	 eax, -858993460		; ccccccccH
  00027	f3 ab		 rep stosd
  00029	48 8b 8c 24 a8
	01 00 00	 mov	 rcx, QWORD PTR [rsp+424]

; 47   : 	__super::Tick(TimeDelta);

  00031	f2 0f 10 8d 88
	01 00 00	 movsd	 xmm1, QWORD PTR TimeDelta$[rbp]
  00039	48 8b 8d 80 01
	00 00		 mov	 rcx, QWORD PTR this$[rbp]
  00040	ff 15 00 00 00
	00		 call	 QWORD PTR __imp_?Tick@CGameObject@Engine@@UEAAXN@Z

; 48   : 
; 49   : 	if (m_bActive)

  00046	48 8b 85 80 01
	00 00		 mov	 rax, QWORD PTR this$[rbp]
  0004d	0f b6 80 b8 00
	00 00		 movzx	 eax, BYTE PTR [rax+184]
  00054	85 c0		 test	 eax, eax
  00056	0f 84 70 01 00
	00		 je	 $LN2@Tick

; 50   : 	{
; 51   : 		m_vCurScale += TimeDelta * 2.f;

  0005c	f2 0f 10 85 88
	01 00 00	 movsd	 xmm0, QWORD PTR TimeDelta$[rbp]
  00064	f2 0f 59 05 00
	00 00 00	 mulsd	 xmm0, QWORD PTR __real@4000000000000000
  0006c	48 8b 85 80 01
	00 00		 mov	 rax, QWORD PTR this$[rbp]
  00073	f3 0f 5a 88 c0
	00 00 00	 cvtss2sd xmm1, DWORD PTR [rax+192]
  0007b	f2 0f 58 c8	 addsd	 xmm1, xmm0
  0007f	0f 28 c1	 movaps	 xmm0, xmm1
  00082	f2 0f 5a c0	 cvtsd2ss xmm0, xmm0
  00086	48 8b 85 80 01
	00 00		 mov	 rax, QWORD PTR this$[rbp]
  0008d	f3 0f 11 80 c0
	00 00 00	 movss	 DWORD PTR [rax+192], xmm0

; 52   : 		m_pTransform->Set_Scale(_float3(m_vCurScale, 1.f, m_vCurScale));

  00095	48 8b 85 80 01
	00 00		 mov	 rax, QWORD PTR this$[rbp]
  0009c	f3 0f 10 98 c0
	00 00 00	 movss	 xmm3, DWORD PTR [rax+192]
  000a4	f3 0f 10 15 00
	00 00 00	 movss	 xmm2, DWORD PTR __real@3f800000
  000ac	48 8b 85 80 01
	00 00		 mov	 rax, QWORD PTR this$[rbp]
  000b3	f3 0f 10 88 c0
	00 00 00	 movss	 xmm1, DWORD PTR [rax+192]
  000bb	48 8d 8d c4 00
	00 00		 lea	 rcx, QWORD PTR $T1[rbp]
  000c2	e8 00 00 00 00	 call	 ??0XMFLOAT3@DirectX@@QEAA@MMM@Z ; DirectX::XMFLOAT3::XMFLOAT3
  000c7	48 8d 8d 10 01
	00 00		 lea	 rcx, QWORD PTR $T3[rbp]
  000ce	48 8b f9	 mov	 rdi, rcx
  000d1	48 8b f0	 mov	 rsi, rax
  000d4	b9 0c 00 00 00	 mov	 ecx, 12
  000d9	f3 a4		 rep movsb
  000db	48 8d 95 10 01
	00 00		 lea	 rdx, QWORD PTR $T3[rbp]
  000e2	48 8b 85 80 01
	00 00		 mov	 rax, QWORD PTR this$[rbp]
  000e9	48 8b 88 80 00
	00 00		 mov	 rcx, QWORD PTR [rax+128]
  000f0	ff 15 00 00 00
	00		 call	 QWORD PTR __imp_?Set_Scale@CTransform@Engine@@QEAAXUXMFLOAT3@DirectX@@@Z

; 53   : 
; 54   : 		m_fTimeAcc += TimeDelta * 1.f;

  000f6	f2 0f 10 85 88
	01 00 00	 movsd	 xmm0, QWORD PTR TimeDelta$[rbp]
  000fe	f2 0f 59 05 00
	00 00 00	 mulsd	 xmm0, QWORD PTR __real@3ff0000000000000
  00106	48 8b 85 80 01
	00 00		 mov	 rax, QWORD PTR this$[rbp]
  0010d	f3 0f 5a 88 bc
	00 00 00	 cvtss2sd xmm1, DWORD PTR [rax+188]
  00115	f2 0f 58 c8	 addsd	 xmm1, xmm0
  00119	0f 28 c1	 movaps	 xmm0, xmm1
  0011c	f2 0f 5a c0	 cvtsd2ss xmm0, xmm0
  00120	48 8b 85 80 01
	00 00		 mov	 rax, QWORD PTR this$[rbp]
  00127	f3 0f 11 80 bc
	00 00 00	 movss	 DWORD PTR [rax+188], xmm0

; 55   : 		if (m_fTimeAcc >= 1.f)

  0012f	48 8b 85 80 01
	00 00		 mov	 rax, QWORD PTR this$[rbp]
  00136	f3 0f 10 80 bc
	00 00 00	 movss	 xmm0, DWORD PTR [rax+188]
  0013e	0f 2f 05 00 00
	00 00		 comiss	 xmm0, DWORD PTR __real@3f800000
  00145	0f 82 81 00 00
	00		 jb	 $LN3@Tick

; 56   : 		{
; 57   : 			m_fTimeAcc = 0.f;

  0014b	48 8b 85 80 01
	00 00		 mov	 rax, QWORD PTR this$[rbp]
  00152	0f 57 c0	 xorps	 xmm0, xmm0
  00155	f3 0f 11 80 bc
	00 00 00	 movss	 DWORD PTR [rax+188], xmm0

; 58   : 			m_bActive = false;

  0015d	48 8b 85 80 01
	00 00		 mov	 rax, QWORD PTR this$[rbp]
  00164	c6 80 b8 00 00
	00 00		 mov	 BYTE PTR [rax+184], 0

; 59   : 			m_pTransform->Set_Scale(_float3(m_vSaveScale, 1.f, m_vSaveScale));

  0016b	48 8b 85 80 01
	00 00		 mov	 rax, QWORD PTR this$[rbp]
  00172	f3 0f 10 98 c4
	00 00 00	 movss	 xmm3, DWORD PTR [rax+196]
  0017a	f3 0f 10 15 00
	00 00 00	 movss	 xmm2, DWORD PTR __real@3f800000
  00182	48 8b 85 80 01
	00 00		 mov	 rax, QWORD PTR this$[rbp]
  00189	f3 0f 10 88 c4
	00 00 00	 movss	 xmm1, DWORD PTR [rax+196]
  00191	48 8d 8d e4 00
	00 00		 lea	 rcx, QWORD PTR $T2[rbp]
  00198	e8 00 00 00 00	 call	 ??0XMFLOAT3@DirectX@@QEAA@MMM@Z ; DirectX::XMFLOAT3::XMFLOAT3
  0019d	48 8d 8d 40 01
	00 00		 lea	 rcx, QWORD PTR $T4[rbp]
  001a4	48 8b f9	 mov	 rdi, rcx
  001a7	48 8b f0	 mov	 rsi, rax
  001aa	b9 0c 00 00 00	 mov	 ecx, 12
  001af	f3 a4		 rep movsb
  001b1	48 8d 95 40 01
	00 00		 lea	 rdx, QWORD PTR $T4[rbp]
  001b8	48 8b 85 80 01
	00 00		 mov	 rax, QWORD PTR this$[rbp]
  001bf	48 8b 88 80 00
	00 00		 mov	 rcx, QWORD PTR [rax+128]
  001c6	ff 15 00 00 00
	00		 call	 QWORD PTR __imp_?Set_Scale@CTransform@Engine@@QEAAXUXMFLOAT3@DirectX@@@Z
$LN3@Tick:
$LN2@Tick:

; 60   : 		}
; 61   : 	}
; 62   : 
; 63   : }

  001cc	48 8d a5 60 01
	00 00		 lea	 rsp, QWORD PTR [rbp+352]
  001d3	5f		 pop	 rdi
  001d4	5e		 pop	 rsi
  001d5	5d		 pop	 rbp
  001d6	c3		 ret	 0
?Tick@CFootSmoke@Client@@UEAAXN@Z ENDP			; Client::CFootSmoke::Tick
_TEXT	ENDS
; Function compile flags: /Odtp /RTCsu /ZI
; File c:\users\arcco\documents\github\framework\client\private\footsmoke.cpp
;	COMDAT ?Initialize@CFootSmoke@Client@@UEAAJPEAX@Z
_TEXT	SEGMENT
$T1 = 196
$T2 = 240
this$ = 304
pArg$ = 312
?Initialize@CFootSmoke@Client@@UEAAJPEAX@Z PROC		; Client::CFootSmoke::Initialize, COMDAT

; 27   : {

$LN6:
  00000	48 89 54 24 10	 mov	 QWORD PTR [rsp+16], rdx
  00005	48 89 4c 24 08	 mov	 QWORD PTR [rsp+8], rcx
  0000a	55		 push	 rbp
  0000b	56		 push	 rsi
  0000c	57		 push	 rdi
  0000d	48 81 ec 30 01
	00 00		 sub	 rsp, 304		; 00000130H
  00014	48 8d 6c 24 20	 lea	 rbp, QWORD PTR [rsp+32]
  00019	48 8b fc	 mov	 rdi, rsp
  0001c	b9 4c 00 00 00	 mov	 ecx, 76			; 0000004cH
  00021	b8 cc cc cc cc	 mov	 eax, -858993460		; ccccccccH
  00026	f3 ab		 rep stosd
  00028	48 8b 8c 24 58
	01 00 00	 mov	 rcx, QWORD PTR [rsp+344]

; 28   : 	if (FAILED(__super::Initialize(pArg)))

  00030	48 8b 95 38 01
	00 00		 mov	 rdx, QWORD PTR pArg$[rbp]
  00037	48 8b 8d 30 01
	00 00		 mov	 rcx, QWORD PTR this$[rbp]
  0003e	ff 15 00 00 00
	00		 call	 QWORD PTR __imp_?Initialize@CGameObject@Engine@@UEAAJPEAX@Z
  00044	85 c0		 test	 eax, eax
  00046	7d 0a		 jge	 SHORT $LN2@Initialize

; 29   : 		return E_FAIL;

  00048	b8 05 40 00 80	 mov	 eax, -2147467259	; ffffffff80004005H
  0004d	e9 c5 00 00 00	 jmp	 $LN1@Initialize
$LN2@Initialize:

; 30   : 
; 31   : 	if (FAILED(Add_Components()))

  00052	48 8b 8d 30 01
	00 00		 mov	 rcx, QWORD PTR this$[rbp]
  00059	e8 00 00 00 00	 call	 ?Add_Components@CFootSmoke@Client@@AEAAJXZ ; Client::CFootSmoke::Add_Components
  0005e	85 c0		 test	 eax, eax
  00060	7d 0a		 jge	 SHORT $LN3@Initialize

; 32   : 		return E_FAIL;

  00062	b8 05 40 00 80	 mov	 eax, -2147467259	; ffffffff80004005H
  00067	e9 ab 00 00 00	 jmp	 $LN1@Initialize
$LN3@Initialize:

; 33   : 
; 34   : 	if (pArg)

  0006c	48 83 bd 38 01
	00 00 00	 cmp	 QWORD PTR pArg$[rbp], 0
  00074	74 3e		 je	 SHORT $LN4@Initialize

; 35   : 	{
; 36   : 		m_pOwner = static_cast<CGameObject*>(pArg);

  00076	48 8b 85 30 01
	00 00		 mov	 rax, QWORD PTR this$[rbp]
  0007d	48 8b 8d 38 01
	00 00		 mov	 rcx, QWORD PTR pArg$[rbp]
  00084	48 89 88 a8 00
	00 00		 mov	 QWORD PTR [rax+168], rcx

; 37   : 		m_pOwnerTransform = static_cast<CTransform*>(m_pOwner->Find_Component(L"com_transform"));

  0008b	48 8d 15 00 00
	00 00		 lea	 rdx, OFFSET FLAT:??_C@_1BM@CJMPMHDD@?$AAc?$AAo?$AAm?$AA_?$AAt?$AAr?$AAa?$AAn?$AAs?$AAf?$AAo?$AAr?$AAm?$AA?$AA@
  00092	48 8b 85 30 01
	00 00		 mov	 rax, QWORD PTR this$[rbp]
  00099	48 8b 88 a8 00
	00 00		 mov	 rcx, QWORD PTR [rax+168]
  000a0	ff 15 00 00 00
	00		 call	 QWORD PTR __imp_?Find_Component@CGameObject@Engine@@QEAAPEAVCComponent@2@PEB_W@Z
  000a6	48 8b 8d 30 01
	00 00		 mov	 rcx, QWORD PTR this$[rbp]
  000ad	48 89 81 b0 00
	00 00		 mov	 QWORD PTR [rcx+176], rax
$LN4@Initialize:

; 38   : 	}
; 39   : 
; 40   : 	m_pTransform->Set_Scale(_float3(m_vSaveScale, 1.f, m_vSaveScale));

  000b4	48 8b 85 30 01
	00 00		 mov	 rax, QWORD PTR this$[rbp]
  000bb	f3 0f 10 98 c4
	00 00 00	 movss	 xmm3, DWORD PTR [rax+196]
  000c3	f3 0f 10 15 00
	00 00 00	 movss	 xmm2, DWORD PTR __real@3f800000
  000cb	48 8b 85 30 01
	00 00		 mov	 rax, QWORD PTR this$[rbp]
  000d2	f3 0f 10 88 c4
	00 00 00	 movss	 xmm1, DWORD PTR [rax+196]
  000da	48 8d 8d c4 00
	00 00		 lea	 rcx, QWORD PTR $T1[rbp]
  000e1	e8 00 00 00 00	 call	 ??0XMFLOAT3@DirectX@@QEAA@MMM@Z ; DirectX::XMFLOAT3::XMFLOAT3
  000e6	48 8d 8d f0 00
	00 00		 lea	 rcx, QWORD PTR $T2[rbp]
  000ed	48 8b f9	 mov	 rdi, rcx
  000f0	48 8b f0	 mov	 rsi, rax
  000f3	b9 0c 00 00 00	 mov	 ecx, 12
  000f8	f3 a4		 rep movsb
  000fa	48 8d 95 f0 00
	00 00		 lea	 rdx, QWORD PTR $T2[rbp]
  00101	48 8b 85 30 01
	00 00		 mov	 rax, QWORD PTR this$[rbp]
  00108	48 8b 88 80 00
	00 00		 mov	 rcx, QWORD PTR [rax+128]
  0010f	ff 15 00 00 00
	00		 call	 QWORD PTR __imp_?Set_Scale@CTransform@Engine@@QEAAXUXMFLOAT3@DirectX@@@Z

; 41   : 
; 42   : 	return S_OK;

  00115	33 c0		 xor	 eax, eax
$LN1@Initialize:

; 43   : }

  00117	48 8d a5 10 01
	00 00		 lea	 rsp, QWORD PTR [rbp+272]
  0011e	5f		 pop	 rdi
  0011f	5e		 pop	 rsi
  00120	5d		 pop	 rbp
  00121	c3		 ret	 0
?Initialize@CFootSmoke@Client@@UEAAJPEAX@Z ENDP		; Client::CFootSmoke::Initialize
_TEXT	ENDS
; Function compile flags: /Odtp /RTCsu /ZI
; File c:\users\arcco\documents\github\framework\client\private\footsmoke.cpp
;	COMDAT ?Initialize_Prototype@CFootSmoke@Client@@UEAAJXZ
_TEXT	SEGMENT
this$ = 224
?Initialize_Prototype@CFootSmoke@Client@@UEAAJXZ PROC	; Client::CFootSmoke::Initialize_Prototype, COMDAT

; 19   : {

$LN4:
  00000	48 89 4c 24 08	 mov	 QWORD PTR [rsp+8], rcx
  00005	55		 push	 rbp
  00006	57		 push	 rdi
  00007	48 81 ec e8 00
	00 00		 sub	 rsp, 232		; 000000e8H
  0000e	48 8d 6c 24 20	 lea	 rbp, QWORD PTR [rsp+32]
  00013	48 8b fc	 mov	 rdi, rsp
  00016	b9 3a 00 00 00	 mov	 ecx, 58			; 0000003aH
  0001b	b8 cc cc cc cc	 mov	 eax, -858993460		; ccccccccH
  00020	f3 ab		 rep stosd
  00022	48 8b 8c 24 08
	01 00 00	 mov	 rcx, QWORD PTR [rsp+264]

; 20   : 	if (FAILED(__super::Initialize_Prototype()))

  0002a	48 8b 8d e0 00
	00 00		 mov	 rcx, QWORD PTR this$[rbp]
  00031	ff 15 00 00 00
	00		 call	 QWORD PTR __imp_?Initialize_Prototype@CGameObject@Engine@@UEAAJXZ
  00037	85 c0		 test	 eax, eax
  00039	7d 07		 jge	 SHORT $LN2@Initialize

; 21   : 		return E_FAIL;

  0003b	b8 05 40 00 80	 mov	 eax, -2147467259	; ffffffff80004005H
  00040	eb 02		 jmp	 SHORT $LN1@Initialize
$LN2@Initialize:

; 22   : 
; 23   : 	return S_OK;

  00042	33 c0		 xor	 eax, eax
$LN1@Initialize:

; 24   : }

  00044	48 8d a5 c8 00
	00 00		 lea	 rsp, QWORD PTR [rbp+200]
  0004b	5f		 pop	 rdi
  0004c	5d		 pop	 rbp
  0004d	c3		 ret	 0
?Initialize_Prototype@CFootSmoke@Client@@UEAAJXZ ENDP	; Client::CFootSmoke::Initialize_Prototype
_TEXT	ENDS
; Function compile flags: /Odtp /RTCsu /ZI
; File c:\users\arcco\documents\github\framework\client\private\footsmoke.cpp
;	COMDAT ??1CFootSmoke@Client@@UEAA@XZ
_TEXT	SEGMENT
this$ = 224
??1CFootSmoke@Client@@UEAA@XZ PROC			; Client::CFootSmoke::~CFootSmoke, COMDAT

; 11   : }

$LN3:
  00000	48 89 4c 24 08	 mov	 QWORD PTR [rsp+8], rcx
  00005	55		 push	 rbp
  00006	57		 push	 rdi
  00007	48 81 ec e8 00
	00 00		 sub	 rsp, 232		; 000000e8H
  0000e	48 8d 6c 24 20	 lea	 rbp, QWORD PTR [rsp+32]
  00013	48 8b fc	 mov	 rdi, rsp
  00016	b9 3a 00 00 00	 mov	 ecx, 58			; 0000003aH
  0001b	b8 cc cc cc cc	 mov	 eax, -858993460		; ccccccccH
  00020	f3 ab		 rep stosd
  00022	48 8b 8c 24 08
	01 00 00	 mov	 rcx, QWORD PTR [rsp+264]
  0002a	48 8b 8d e0 00
	00 00		 mov	 rcx, QWORD PTR this$[rbp]
  00031	ff 15 00 00 00
	00		 call	 QWORD PTR __imp_??1CGameObject@Engine@@MEAA@XZ
  00037	48 8d a5 c8 00
	00 00		 lea	 rsp, QWORD PTR [rbp+200]
  0003e	5f		 pop	 rdi
  0003f	5d		 pop	 rbp
  00040	c3		 ret	 0
??1CFootSmoke@Client@@UEAA@XZ ENDP			; Client::CFootSmoke::~CFootSmoke
_TEXT	ENDS
; Function compile flags: /Odtp /RTCsu /ZI
; File c:\users\arcco\documents\github\framework\client\private\footsmoke.cpp
; File c:\users\arcco\documents\github\framework\client\public\footsmoke.h
; File c:\users\arcco\documents\github\framework\client\private\footsmoke.cpp
;	COMDAT ??0CFootSmoke@Client@@QEAA@AEBV01@@Z
_TEXT	SEGMENT
this$ = 224
rhs$ = 232
??0CFootSmoke@Client@@QEAA@AEBV01@@Z PROC		; Client::CFootSmoke::CFootSmoke, COMDAT

; 15   : {

$LN4:
  00000	48 89 54 24 10	 mov	 QWORD PTR [rsp+16], rdx
  00005	48 89 4c 24 08	 mov	 QWORD PTR [rsp+8], rcx
  0000a	55		 push	 rbp
  0000b	57		 push	 rdi
  0000c	48 81 ec e8 00
	00 00		 sub	 rsp, 232		; 000000e8H
  00013	48 8d 6c 24 20	 lea	 rbp, QWORD PTR [rsp+32]
  00018	48 8b fc	 mov	 rdi, rsp
  0001b	b9 3a 00 00 00	 mov	 ecx, 58			; 0000003aH
  00020	b8 cc cc cc cc	 mov	 eax, -858993460		; ccccccccH
  00025	f3 ab		 rep stosd
  00027	48 8b 8c 24 08
	01 00 00	 mov	 rcx, QWORD PTR [rsp+264]

; 14   : 	: CGameObject(rhs)

  0002f	48 8b 95 e8 00
	00 00		 mov	 rdx, QWORD PTR rhs$[rbp]
  00036	48 8b 8d e0 00
	00 00		 mov	 rcx, QWORD PTR this$[rbp]
  0003d	ff 15 00 00 00
	00		 call	 QWORD PTR __imp_??0CGameObject@Engine@@IEAA@AEBV01@@Z

; 15   : {

  00043	48 8b 85 e0 00
	00 00		 mov	 rax, QWORD PTR this$[rbp]
  0004a	48 8d 0d 00 00
	00 00		 lea	 rcx, OFFSET FLAT:??_7CFootSmoke@Client@@6B@
  00051	48 89 08	 mov	 QWORD PTR [rax], rcx
; File c:\users\arcco\documents\github\framework\client\public\footsmoke.h

; 47   : 	FOOT m_eFootType = FOOT::PLAYER;

  00054	48 8b 85 e0 00
	00 00		 mov	 rax, QWORD PTR this$[rbp]
  0005b	c7 40 78 00 00
	00 00		 mov	 DWORD PTR [rax+120], 0

; 48   : 
; 49   : 	CTransform* m_pTransform = nullptr;

  00062	48 8b 85 e0 00
	00 00		 mov	 rax, QWORD PTR this$[rbp]
  00069	48 c7 80 80 00
	00 00 00 00 00
	00		 mov	 QWORD PTR [rax+128], 0

; 50   : 	CRenderer* m_pRenderer = nullptr;

  00074	48 8b 85 e0 00
	00 00		 mov	 rax, QWORD PTR this$[rbp]
  0007b	48 c7 80 88 00
	00 00 00 00 00
	00		 mov	 QWORD PTR [rax+136], 0

; 51   : 	CShader* m_pShader = nullptr;

  00086	48 8b 85 e0 00
	00 00		 mov	 rax, QWORD PTR this$[rbp]
  0008d	48 c7 80 90 00
	00 00 00 00 00
	00		 mov	 QWORD PTR [rax+144], 0

; 52   : 
; 53   : 	CModel* m_pModel = nullptr;

  00098	48 8b 85 e0 00
	00 00		 mov	 rax, QWORD PTR this$[rbp]
  0009f	48 c7 80 98 00
	00 00 00 00 00
	00		 mov	 QWORD PTR [rax+152], 0

; 54   : 	CTexture* m_pDiffuseTexture = nullptr;

  000aa	48 8b 85 e0 00
	00 00		 mov	 rax, QWORD PTR this$[rbp]
  000b1	48 c7 80 a0 00
	00 00 00 00 00
	00		 mov	 QWORD PTR [rax+160], 0

; 55   : 
; 56   : 	CGameObject* m_pOwner = nullptr;

  000bc	48 8b 85 e0 00
	00 00		 mov	 rax, QWORD PTR this$[rbp]
  000c3	48 c7 80 a8 00
	00 00 00 00 00
	00		 mov	 QWORD PTR [rax+168], 0

; 57   : 	CTransform* m_pOwnerTransform = nullptr;

  000ce	48 8b 85 e0 00
	00 00		 mov	 rax, QWORD PTR this$[rbp]
  000d5	48 c7 80 b0 00
	00 00 00 00 00
	00		 mov	 QWORD PTR [rax+176], 0

; 58   : 
; 59   : 	_bool m_bActive = false;

  000e0	48 8b 85 e0 00
	00 00		 mov	 rax, QWORD PTR this$[rbp]
  000e7	c6 80 b8 00 00
	00 00		 mov	 BYTE PTR [rax+184], 0

; 60   : 	_float m_fTimeAcc = 0.f;

  000ee	48 8b 85 e0 00
	00 00		 mov	 rax, QWORD PTR this$[rbp]
  000f5	0f 57 c0	 xorps	 xmm0, xmm0
  000f8	f3 0f 11 80 bc
	00 00 00	 movss	 DWORD PTR [rax+188], xmm0

; 61   : 	_float m_vCurScale = 3.f;

  00100	48 8b 85 e0 00
	00 00		 mov	 rax, QWORD PTR this$[rbp]
  00107	f3 0f 10 05 00
	00 00 00	 movss	 xmm0, DWORD PTR __real@40400000
  0010f	f3 0f 11 80 c0
	00 00 00	 movss	 DWORD PTR [rax+192], xmm0

; 62   : 	_float m_vSaveScale = 3.f;

  00117	48 8b 85 e0 00
	00 00		 mov	 rax, QWORD PTR this$[rbp]
  0011e	f3 0f 10 05 00
	00 00 00	 movss	 xmm0, DWORD PTR __real@40400000
  00126	f3 0f 11 80 c4
	00 00 00	 movss	 DWORD PTR [rax+196], xmm0
; File c:\users\arcco\documents\github\framework\client\private\footsmoke.cpp

; 16   : }

  0012e	48 8b 85 e0 00
	00 00		 mov	 rax, QWORD PTR this$[rbp]
  00135	48 8d a5 c8 00
	00 00		 lea	 rsp, QWORD PTR [rbp+200]
  0013c	5f		 pop	 rdi
  0013d	5d		 pop	 rbp
  0013e	c3		 ret	 0
??0CFootSmoke@Client@@QEAA@AEBV01@@Z ENDP		; Client::CFootSmoke::CFootSmoke
_TEXT	ENDS
; Function compile flags: /Odtp /RTCsu /ZI
; File c:\users\arcco\documents\github\framework\client\private\footsmoke.cpp
; File c:\users\arcco\documents\github\framework\client\public\footsmoke.h
; File c:\users\arcco\documents\github\framework\client\private\footsmoke.cpp
;	COMDAT ??0CFootSmoke@Client@@QEAA@PEAUID3D11Device@@PEAUID3D11DeviceContext@@@Z
_TEXT	SEGMENT
this$ = 224
pDevice$ = 232
pContext$ = 240
??0CFootSmoke@Client@@QEAA@PEAUID3D11Device@@PEAUID3D11DeviceContext@@@Z PROC ; Client::CFootSmoke::CFootSmoke, COMDAT

; 10   : {

$LN4:
  00000	4c 89 44 24 18	 mov	 QWORD PTR [rsp+24], r8
  00005	48 89 54 24 10	 mov	 QWORD PTR [rsp+16], rdx
  0000a	48 89 4c 24 08	 mov	 QWORD PTR [rsp+8], rcx
  0000f	55		 push	 rbp
  00010	57		 push	 rdi
  00011	48 81 ec e8 00
	00 00		 sub	 rsp, 232		; 000000e8H
  00018	48 8d 6c 24 20	 lea	 rbp, QWORD PTR [rsp+32]
  0001d	48 8b fc	 mov	 rdi, rsp
  00020	b9 3a 00 00 00	 mov	 ecx, 58			; 0000003aH
  00025	b8 cc cc cc cc	 mov	 eax, -858993460		; ccccccccH
  0002a	f3 ab		 rep stosd
  0002c	48 8b 8c 24 08
	01 00 00	 mov	 rcx, QWORD PTR [rsp+264]

; 9    : 	: CGameObject(pDevice, pContext)

  00034	4c 8b 85 f0 00
	00 00		 mov	 r8, QWORD PTR pContext$[rbp]
  0003b	48 8b 95 e8 00
	00 00		 mov	 rdx, QWORD PTR pDevice$[rbp]
  00042	48 8b 8d e0 00
	00 00		 mov	 rcx, QWORD PTR this$[rbp]
  00049	ff 15 00 00 00
	00		 call	 QWORD PTR __imp_??0CGameObject@Engine@@IEAA@PEAUID3D11Device@@PEAUID3D11DeviceContext@@@Z

; 10   : {

  0004f	48 8b 85 e0 00
	00 00		 mov	 rax, QWORD PTR this$[rbp]
  00056	48 8d 0d 00 00
	00 00		 lea	 rcx, OFFSET FLAT:??_7CFootSmoke@Client@@6B@
  0005d	48 89 08	 mov	 QWORD PTR [rax], rcx
; File c:\users\arcco\documents\github\framework\client\public\footsmoke.h

; 47   : 	FOOT m_eFootType = FOOT::PLAYER;

  00060	48 8b 85 e0 00
	00 00		 mov	 rax, QWORD PTR this$[rbp]
  00067	c7 40 78 00 00
	00 00		 mov	 DWORD PTR [rax+120], 0

; 48   : 
; 49   : 	CTransform* m_pTransform = nullptr;

  0006e	48 8b 85 e0 00
	00 00		 mov	 rax, QWORD PTR this$[rbp]
  00075	48 c7 80 80 00
	00 00 00 00 00
	00		 mov	 QWORD PTR [rax+128], 0

; 50   : 	CRenderer* m_pRenderer = nullptr;

  00080	48 8b 85 e0 00
	00 00		 mov	 rax, QWORD PTR this$[rbp]
  00087	48 c7 80 88 00
	00 00 00 00 00
	00		 mov	 QWORD PTR [rax+136], 0

; 51   : 	CShader* m_pShader = nullptr;

  00092	48 8b 85 e0 00
	00 00		 mov	 rax, QWORD PTR this$[rbp]
  00099	48 c7 80 90 00
	00 00 00 00 00
	00		 mov	 QWORD PTR [rax+144], 0

; 52   : 
; 53   : 	CModel* m_pModel = nullptr;

  000a4	48 8b 85 e0 00
	00 00		 mov	 rax, QWORD PTR this$[rbp]
  000ab	48 c7 80 98 00
	00 00 00 00 00
	00		 mov	 QWORD PTR [rax+152], 0

; 54   : 	CTexture* m_pDiffuseTexture = nullptr;

  000b6	48 8b 85 e0 00
	00 00		 mov	 rax, QWORD PTR this$[rbp]
  000bd	48 c7 80 a0 00
	00 00 00 00 00
	00		 mov	 QWORD PTR [rax+160], 0

; 55   : 
; 56   : 	CGameObject* m_pOwner = nullptr;

  000c8	48 8b 85 e0 00
	00 00		 mov	 rax, QWORD PTR this$[rbp]
  000cf	48 c7 80 a8 00
	00 00 00 00 00
	00		 mov	 QWORD PTR [rax+168], 0

; 57   : 	CTransform* m_pOwnerTransform = nullptr;

  000da	48 8b 85 e0 00
	00 00		 mov	 rax, QWORD PTR this$[rbp]
  000e1	48 c7 80 b0 00
	00 00 00 00 00
	00		 mov	 QWORD PTR [rax+176], 0

; 58   : 
; 59   : 	_bool m_bActive = false;

  000ec	48 8b 85 e0 00
	00 00		 mov	 rax, QWORD PTR this$[rbp]
  000f3	c6 80 b8 00 00
	00 00		 mov	 BYTE PTR [rax+184], 0

; 60   : 	_float m_fTimeAcc = 0.f;

  000fa	48 8b 85 e0 00
	00 00		 mov	 rax, QWORD PTR this$[rbp]
  00101	0f 57 c0	 xorps	 xmm0, xmm0
  00104	f3 0f 11 80 bc
	00 00 00	 movss	 DWORD PTR [rax+188], xmm0

; 61   : 	_float m_vCurScale = 3.f;

  0010c	48 8b 85 e0 00
	00 00		 mov	 rax, QWORD PTR this$[rbp]
  00113	f3 0f 10 05 00
	00 00 00	 movss	 xmm0, DWORD PTR __real@40400000
  0011b	f3 0f 11 80 c0
	00 00 00	 movss	 DWORD PTR [rax+192], xmm0

; 62   : 	_float m_vSaveScale = 3.f;

  00123	48 8b 85 e0 00
	00 00		 mov	 rax, QWORD PTR this$[rbp]
  0012a	f3 0f 10 05 00
	00 00 00	 movss	 xmm0, DWORD PTR __real@40400000
  00132	f3 0f 11 80 c4
	00 00 00	 movss	 DWORD PTR [rax+196], xmm0
; File c:\users\arcco\documents\github\framework\client\private\footsmoke.cpp

; 11   : }

  0013a	48 8b 85 e0 00
	00 00		 mov	 rax, QWORD PTR this$[rbp]
  00141	48 8d a5 c8 00
	00 00		 lea	 rsp, QWORD PTR [rbp+200]
  00148	5f		 pop	 rdi
  00149	5d		 pop	 rbp
  0014a	c3		 ret	 0
??0CFootSmoke@Client@@QEAA@PEAUID3D11Device@@PEAUID3D11DeviceContext@@@Z ENDP ; Client::CFootSmoke::CFootSmoke
_TEXT	ENDS
; Function compile flags: /Odtp /RTCsu /ZI
; File c:\program files (x86)\windows kits\8.1\include\um\directxmathvector.inl
;	COMDAT ?XMVectorSetY@DirectX@@YQ?AT__m128@@T2@M@Z
_TEXT	SEGMENT
V$ = 16
vResult$ = 64
vTemp$ = 112
$T1 = 352
$T2 = 400
$T3 = 448
$T4 = 496
y$ = 568
?XMVectorSetY@DirectX@@YQ?AT__m128@@T2@M@Z PROC		; DirectX::XMVectorSetY, COMDAT

; 742  : {

$LN3:
  00000	f3 0f 11 4c 24
	10		 movss	 DWORD PTR [rsp+16], xmm1
  00006	55		 push	 rbp
  00007	57		 push	 rdi
  00008	48 81 ec 28 02
	00 00		 sub	 rsp, 552		; 00000228H
  0000f	48 8d 6c 24 10	 lea	 rbp, QWORD PTR [rsp+16]
  00014	48 8b fc	 mov	 rdi, rsp
  00017	b9 8a 00 00 00	 mov	 ecx, 138		; 0000008aH
  0001c	b8 cc cc cc cc	 mov	 eax, -858993460		; ccccccccH
  00021	f3 ab		 rep stosd
  00023	48 8d 45 10	 lea	 rax, QWORD PTR V$[rbp]
  00027	48 89 84 24 40
	02 00 00	 mov	 QWORD PTR [rsp+576], rax
  0002f	0f 29 45 10	 movaps	 XMMWORD PTR V$[rbp], xmm0

; 743  : #if defined(_XM_NO_INTRINSICS_)
; 744  :     XMVECTOR U;
; 745  :     U.vector4_f32[0] = V.vector4_f32[0];
; 746  :     U.vector4_f32[1] = y;
; 747  :     U.vector4_f32[2] = V.vector4_f32[2];
; 748  :     U.vector4_f32[3] = V.vector4_f32[3];
; 749  :     return U;
; 750  : #elif defined(_XM_ARM_NEON_INTRINSICS_)
; 751  :     return vsetq_lane_f32(y,V,1);
; 752  : #elif defined(_XM_SSE_INTRINSICS_)
; 753  :     // Swap y and x
; 754  :     XMVECTOR vResult = XM_PERMUTE_PS(V,_MM_SHUFFLE(3,2,0,1));

  00033	0f 28 45 10	 movaps	 xmm0, XMMWORD PTR V$[rbp]
  00037	0f c6 45 10 e1	 shufps	 xmm0, XMMWORD PTR V$[rbp], 225 ; 000000e1H
  0003c	0f 29 85 60 01
	00 00		 movaps	 XMMWORD PTR $T1[rbp], xmm0
  00043	0f 28 85 60 01
	00 00		 movaps	 xmm0, XMMWORD PTR $T1[rbp]
  0004a	0f 29 45 40	 movaps	 XMMWORD PTR vResult$[rbp], xmm0

; 755  :     // Convert input to vector
; 756  :     XMVECTOR vTemp = _mm_set_ss(y);

  0004e	f3 0f 10 85 38
	02 00 00	 movss	 xmm0, DWORD PTR y$[rbp]
  00056	0f 57 c9	 xorps	 xmm1, xmm1
  00059	f3 0f 10 c8	 movss	 xmm1, xmm0
  0005d	0f 28 c1	 movaps	 xmm0, xmm1
  00060	0f 29 85 90 01
	00 00		 movaps	 XMMWORD PTR $T2[rbp], xmm0
  00067	0f 28 85 90 01
	00 00		 movaps	 xmm0, XMMWORD PTR $T2[rbp]
  0006e	0f 29 45 70	 movaps	 XMMWORD PTR vTemp$[rbp], xmm0

; 757  :     // Replace the x component
; 758  :     vResult = _mm_move_ss(vResult,vTemp);

  00072	0f 28 45 40	 movaps	 xmm0, XMMWORD PTR vResult$[rbp]
  00076	0f 28 4d 70	 movaps	 xmm1, XMMWORD PTR vTemp$[rbp]
  0007a	f3 0f 10 c1	 movss	 xmm0, xmm1
  0007e	0f 29 85 c0 01
	00 00		 movaps	 XMMWORD PTR $T3[rbp], xmm0
  00085	0f 28 85 c0 01
	00 00		 movaps	 xmm0, XMMWORD PTR $T3[rbp]
  0008c	0f 29 45 40	 movaps	 XMMWORD PTR vResult$[rbp], xmm0

; 759  :     // Swap y and x again
; 760  :     vResult = XM_PERMUTE_PS(vResult,_MM_SHUFFLE(3,2,0,1));

  00090	0f 28 45 40	 movaps	 xmm0, XMMWORD PTR vResult$[rbp]
  00094	0f c6 45 40 e1	 shufps	 xmm0, XMMWORD PTR vResult$[rbp], 225 ; 000000e1H
  00099	0f 29 85 f0 01
	00 00		 movaps	 XMMWORD PTR $T4[rbp], xmm0
  000a0	0f 28 85 f0 01
	00 00		 movaps	 xmm0, XMMWORD PTR $T4[rbp]
  000a7	0f 29 45 40	 movaps	 XMMWORD PTR vResult$[rbp], xmm0

; 761  :     return vResult;

  000ab	0f 28 45 40	 movaps	 xmm0, XMMWORD PTR vResult$[rbp]

; 762  : #endif
; 763  : }

  000af	48 8d a5 18 02
	00 00		 lea	 rsp, QWORD PTR [rbp+536]
  000b6	5f		 pop	 rdi
  000b7	5d		 pop	 rbp
  000b8	c3		 ret	 0
?XMVectorSetY@DirectX@@YQ?AT__m128@@T2@M@Z ENDP		; DirectX::XMVectorSetY
_TEXT	ENDS
; Function compile flags: /Odtp /RTCsu /ZI
; File c:\program files (x86)\windows kits\8.1\include\um\directxmath.h
;	COMDAT ??0XMFLOAT3@DirectX@@QEAA@MMM@Z
_TEXT	SEGMENT
this$ = 224
_x$ = 232
_y$ = 240
_z$ = 248
??0XMFLOAT3@DirectX@@QEAA@MMM@Z PROC			; DirectX::XMFLOAT3::XMFLOAT3, COMDAT

; 506  :     XMFLOAT3(float _x, float _y, float _z) : x(_x), y(_y), z(_z) {}

$LN3:
  00000	f3 0f 11 5c 24
	20		 movss	 DWORD PTR [rsp+32], xmm3
  00006	f3 0f 11 54 24
	18		 movss	 DWORD PTR [rsp+24], xmm2
  0000c	f3 0f 11 4c 24
	10		 movss	 DWORD PTR [rsp+16], xmm1
  00012	48 89 4c 24 08	 mov	 QWORD PTR [rsp+8], rcx
  00017	55		 push	 rbp
  00018	57		 push	 rdi
  00019	48 81 ec c8 00
	00 00		 sub	 rsp, 200		; 000000c8H
  00020	48 8b ec	 mov	 rbp, rsp
  00023	48 8b fc	 mov	 rdi, rsp
  00026	b9 32 00 00 00	 mov	 ecx, 50			; 00000032H
  0002b	b8 cc cc cc cc	 mov	 eax, -858993460		; ccccccccH
  00030	f3 ab		 rep stosd
  00032	48 8b 8c 24 e8
	00 00 00	 mov	 rcx, QWORD PTR [rsp+232]
  0003a	48 8b 85 e0 00
	00 00		 mov	 rax, QWORD PTR this$[rbp]
  00041	f3 0f 10 85 e8
	00 00 00	 movss	 xmm0, DWORD PTR _x$[rbp]
  00049	f3 0f 11 00	 movss	 DWORD PTR [rax], xmm0
  0004d	48 8b 85 e0 00
	00 00		 mov	 rax, QWORD PTR this$[rbp]
  00054	f3 0f 10 85 f0
	00 00 00	 movss	 xmm0, DWORD PTR _y$[rbp]
  0005c	f3 0f 11 40 04	 movss	 DWORD PTR [rax+4], xmm0
  00061	48 8b 85 e0 00
	00 00		 mov	 rax, QWORD PTR this$[rbp]
  00068	f3 0f 10 85 f8
	00 00 00	 movss	 xmm0, DWORD PTR _z$[rbp]
  00070	f3 0f 11 40 08	 movss	 DWORD PTR [rax+8], xmm0
  00075	48 8b 85 e0 00
	00 00		 mov	 rax, QWORD PTR this$[rbp]
  0007c	48 8d a5 c8 00
	00 00		 lea	 rsp, QWORD PTR [rbp+200]
  00083	5f		 pop	 rdi
  00084	5d		 pop	 rbp
  00085	c3		 ret	 0
??0XMFLOAT3@DirectX@@QEAA@MMM@Z ENDP			; DirectX::XMFLOAT3::XMFLOAT3
_TEXT	ENDS
; Function compile flags: /Odtp /RTCsu /ZI
; File c:\program files (x86)\windows kits\8.1\include\um\directxmath.h
;	COMDAT ?XMConvertToRadians@DirectX@@YAMM@Z
_TEXT	SEGMENT
fDegrees$ = 224
?XMConvertToRadians@DirectX@@YAMM@Z PROC		; DirectX::XMConvertToRadians, COMDAT

; 208  : inline float XMConvertToRadians(float fDegrees) { return fDegrees * (XM_PI / 180.0f); }

$LN3:
  00000	f3 0f 11 44 24
	08		 movss	 DWORD PTR [rsp+8], xmm0
  00006	55		 push	 rbp
  00007	57		 push	 rdi
  00008	48 81 ec d8 00
	00 00		 sub	 rsp, 216		; 000000d8H
  0000f	48 8d 6c 24 10	 lea	 rbp, QWORD PTR [rsp+16]
  00014	48 8b fc	 mov	 rdi, rsp
  00017	b9 36 00 00 00	 mov	 ecx, 54			; 00000036H
  0001c	b8 cc cc cc cc	 mov	 eax, -858993460		; ccccccccH
  00021	f3 ab		 rep stosd
  00023	f3 0f 10 85 e0
	00 00 00	 movss	 xmm0, DWORD PTR fDegrees$[rbp]
  0002b	f3 0f 59 05 00
	00 00 00	 mulss	 xmm0, DWORD PTR __real@3c8efa35
  00033	48 8d a5 c8 00
	00 00		 lea	 rsp, QWORD PTR [rbp+200]
  0003a	5f		 pop	 rdi
  0003b	5d		 pop	 rbp
  0003c	c3		 ret	 0
?XMConvertToRadians@DirectX@@YAMM@Z ENDP		; DirectX::XMConvertToRadians
_TEXT	ENDS
; Function compile flags: /Odtp /RTCsu /ZI
; File c:\users\arcco\documents\github\framework\client\private\footsmoke.cpp
;	COMDAT ?__empty_global_delete@@YAXPEAX_K@Z
_TEXT	SEGMENT
__formal$ = 224
__formal$ = 232
?__empty_global_delete@@YAXPEAX_K@Z PROC		; __empty_global_delete, COMDAT

$LN3:
  00000	48 89 54 24 10	 mov	 QWORD PTR [rsp+16], rdx
  00005	48 89 4c 24 08	 mov	 QWORD PTR [rsp+8], rcx
  0000a	55		 push	 rbp
  0000b	57		 push	 rdi
  0000c	48 81 ec c8 00
	00 00		 sub	 rsp, 200		; 000000c8H
  00013	48 8b ec	 mov	 rbp, rsp
  00016	48 8b fc	 mov	 rdi, rsp
  00019	b9 32 00 00 00	 mov	 ecx, 50			; 00000032H
  0001e	b8 cc cc cc cc	 mov	 eax, -858993460		; ccccccccH
  00023	f3 ab		 rep stosd
  00025	48 8b 8c 24 e8
	00 00 00	 mov	 rcx, QWORD PTR [rsp+232]
  0002d	48 8d a5 c8 00
	00 00		 lea	 rsp, QWORD PTR [rbp+200]
  00034	5f		 pop	 rdi
  00035	5d		 pop	 rbp
  00036	c3		 ret	 0
?__empty_global_delete@@YAXPEAX_K@Z ENDP		; __empty_global_delete
_TEXT	ENDS
; Function compile flags: /Odtp /RTCsu /ZI
; File c:\users\arcco\documents\github\framework\client\private\footsmoke.cpp
;	COMDAT ?__empty_global_delete@@YAXPEAX@Z
_TEXT	SEGMENT
__formal$ = 224
?__empty_global_delete@@YAXPEAX@Z PROC			; __empty_global_delete, COMDAT

$LN3:
  00000	48 89 4c 24 08	 mov	 QWORD PTR [rsp+8], rcx
  00005	55		 push	 rbp
  00006	57		 push	 rdi
  00007	48 81 ec c8 00
	00 00		 sub	 rsp, 200		; 000000c8H
  0000e	48 8b ec	 mov	 rbp, rsp
  00011	48 8b fc	 mov	 rdi, rsp
  00014	b9 32 00 00 00	 mov	 ecx, 50			; 00000032H
  00019	b8 cc cc cc cc	 mov	 eax, -858993460		; ccccccccH
  0001e	f3 ab		 rep stosd
  00020	48 8b 8c 24 e8
	00 00 00	 mov	 rcx, QWORD PTR [rsp+232]
  00028	48 8d a5 c8 00
	00 00		 lea	 rsp, QWORD PTR [rbp+200]
  0002f	5f		 pop	 rdi
  00030	5d		 pop	 rbp
  00031	c3		 ret	 0
?__empty_global_delete@@YAXPEAX@Z ENDP			; __empty_global_delete
_TEXT	ENDS
; Function compile flags: /Odtp /RTCsu /ZI
;	COMDAT ??_H@YAXPEAX_K1P6APEAX0@Z@Z
_TEXT	SEGMENT
tv66 = 192
tv67 = 200
__t$ = 240
__s$ = 248
__n$ = 256
__f$ = 264
??_H@YAXPEAX_K1P6APEAX0@Z@Z PROC			; `vector constructor iterator', COMDAT
$LN7:
  00000	4c 89 4c 24 20	 mov	 QWORD PTR [rsp+32], r9
  00005	4c 89 44 24 18	 mov	 QWORD PTR [rsp+24], r8
  0000a	48 89 54 24 10	 mov	 QWORD PTR [rsp+16], rdx
  0000f	48 89 4c 24 08	 mov	 QWORD PTR [rsp+8], rcx
  00014	55		 push	 rbp
  00015	57		 push	 rdi
  00016	48 81 ec f8 00
	00 00		 sub	 rsp, 248		; 000000f8H
  0001d	48 8d 6c 24 20	 lea	 rbp, QWORD PTR [rsp+32]
  00022	48 8b fc	 mov	 rdi, rsp
  00025	b9 3e 00 00 00	 mov	 ecx, 62			; 0000003eH
  0002a	b8 cc cc cc cc	 mov	 eax, -858993460		; ccccccccH
  0002f	f3 ab		 rep stosd
  00031	48 8b 8c 24 18
	01 00 00	 mov	 rcx, QWORD PTR [rsp+280]
$LN2@vector:
  00039	48 8b 85 00 01
	00 00		 mov	 rax, QWORD PTR __n$[rbp]
  00040	48 89 85 c0 00
	00 00		 mov	 QWORD PTR tv66[rbp], rax
  00047	48 8b 85 00 01
	00 00		 mov	 rax, QWORD PTR __n$[rbp]
  0004e	48 ff c8	 dec	 rax
  00051	48 89 85 00 01
	00 00		 mov	 QWORD PTR __n$[rbp], rax
  00058	48 83 bd c0 00
	00 00 00	 cmp	 QWORD PTR tv66[rbp], 0
  00060	76 0c		 jbe	 SHORT $LN5@vector
  00062	c7 85 c8 00 00
	00 01 00 00 00	 mov	 DWORD PTR tv67[rbp], 1
  0006c	eb 0a		 jmp	 SHORT $LN6@vector
$LN5@vector:
  0006e	c7 85 c8 00 00
	00 00 00 00 00	 mov	 DWORD PTR tv67[rbp], 0
$LN6@vector:
  00078	83 bd c8 00 00
	00 00		 cmp	 DWORD PTR tv67[rbp], 0
  0007f	74 2a		 je	 SHORT $LN3@vector
  00081	48 8b 8d f0 00
	00 00		 mov	 rcx, QWORD PTR __t$[rbp]
  00088	ff 95 08 01 00
	00		 call	 QWORD PTR __f$[rbp]
  0008e	48 8b 85 f8 00
	00 00		 mov	 rax, QWORD PTR __s$[rbp]
  00095	48 8b 8d f0 00
	00 00		 mov	 rcx, QWORD PTR __t$[rbp]
  0009c	48 03 c8	 add	 rcx, rax
  0009f	48 8b c1	 mov	 rax, rcx
  000a2	48 89 85 f0 00
	00 00		 mov	 QWORD PTR __t$[rbp], rax
  000a9	eb 8e		 jmp	 SHORT $LN2@vector
$LN3@vector:
  000ab	48 8d a5 d8 00
	00 00		 lea	 rsp, QWORD PTR [rbp+216]
  000b2	5f		 pop	 rdi
  000b3	5d		 pop	 rbp
  000b4	c3		 ret	 0
??_H@YAXPEAX_K1P6APEAX0@Z@Z ENDP			; `vector constructor iterator'
_TEXT	ENDS
END
