; Listing generated by Microsoft (R) Optimizing Compiler Version 19.00.24245.0 

include listing.inc

INCLUDELIB MSVCRTD
INCLUDELIB OLDNAMES

PUBLIC	??_H@YAXPEAX_K1P6APEAX0@Z@Z			; `vector constructor iterator'
PUBLIC	??0ImVec2@@QEAA@XZ				; ImVec2::ImVec2
PUBLIC	??0ImVec2@@QEAA@MM@Z				; ImVec2::ImVec2
PUBLIC	??0ImVec4@@QEAA@MMMM@Z				; ImVec4::ImVec4
PUBLIC	?BeginTable@ImGui@@YA_NPEBDHHAEBUImVec2@@M@Z	; ImGui::BeginTable
PUBLIC	?EndTable@ImGui@@YAXXZ				; ImGui::EndTable
PUBLIC	?TableNextRow@ImGui@@YAXHM@Z			; ImGui::TableNextRow
PUBLIC	?TableNextColumn@ImGui@@YA_NXZ			; ImGui::TableNextColumn
PUBLIC	?TableSetColumnIndex@ImGui@@YA_NH@Z		; ImGui::TableSetColumnIndex
PUBLIC	?TableSetupColumn@ImGui@@YAXPEBDHMI@Z		; ImGui::TableSetupColumn
PUBLIC	?TableSetupScrollFreeze@ImGui@@YAXHH@Z		; ImGui::TableSetupScrollFreeze
PUBLIC	?TableHeadersRow@ImGui@@YAXXZ			; ImGui::TableHeadersRow
PUBLIC	?TableHeader@ImGui@@YAXPEBD@Z			; ImGui::TableHeader
PUBLIC	?TableGetSortSpecs@ImGui@@YAPEAUImGuiTableSortSpecs@@XZ ; ImGui::TableGetSortSpecs
PUBLIC	?TableGetColumnCount@ImGui@@YAHXZ		; ImGui::TableGetColumnCount
PUBLIC	?TableGetColumnIndex@ImGui@@YAHXZ		; ImGui::TableGetColumnIndex
PUBLIC	?TableGetRowIndex@ImGui@@YAHXZ			; ImGui::TableGetRowIndex
PUBLIC	?TableGetColumnName@ImGui@@YAPEBDH@Z		; ImGui::TableGetColumnName
PUBLIC	?TableGetColumnFlags@ImGui@@YAHH@Z		; ImGui::TableGetColumnFlags
PUBLIC	?TableSetColumnEnabled@ImGui@@YAXH_N@Z		; ImGui::TableSetColumnEnabled
PUBLIC	?TableSetBgColor@ImGui@@YAXHIH@Z		; ImGui::TableSetBgColor
PUBLIC	?Columns@ImGui@@YAXHPEBD_N@Z			; ImGui::Columns
PUBLIC	?NextColumn@ImGui@@YAXXZ			; ImGui::NextColumn
PUBLIC	?GetColumnIndex@ImGui@@YAHXZ			; ImGui::GetColumnIndex
PUBLIC	?GetColumnWidth@ImGui@@YAMH@Z			; ImGui::GetColumnWidth
PUBLIC	?SetColumnWidth@ImGui@@YAXHM@Z			; ImGui::SetColumnWidth
PUBLIC	?GetColumnOffset@ImGui@@YAMH@Z			; ImGui::GetColumnOffset
PUBLIC	?SetColumnOffset@ImGui@@YAXHM@Z			; ImGui::SetColumnOffset
PUBLIC	?GetColumnsCount@ImGui@@YAHXZ			; ImGui::GetColumnsCount
PUBLIC	??2@YAPEAX_KUImNewWrapper@@PEAX@Z		; operator new
PUBLIC	??3@YAXPEAXUImNewWrapper@@0@Z			; operator delete
PUBLIC	??0ImGuiTableColumnSortSpecs@@QEAA@XZ		; ImGuiTableColumnSortSpecs::ImGuiTableColumnSortSpecs
PUBLIC	??0ImGuiTableSortSpecs@@QEAA@XZ			; ImGuiTableSortSpecs::ImGuiTableSortSpecs
PUBLIC	??0?$ImVector@D@@QEAA@XZ			; ImVector<char>::ImVector<char>
PUBLIC	??1?$ImVector@D@@QEAA@XZ			; ImVector<char>::~ImVector<char>
PUBLIC	?clear@?$ImVector@D@@QEAAXXZ			; ImVector<char>::clear
PUBLIC	??A?$ImVector@D@@QEBAAEBDH@Z			; ImVector<char>::operator[]
PUBLIC	?swap@?$ImVector@D@@QEAAXAEAU1@@Z		; ImVector<char>::swap
PUBLIC	?_grow_capacity@?$ImVector@D@@QEBAHH@Z		; ImVector<char>::_grow_capacity
PUBLIC	?resize@?$ImVector@D@@QEAAXH@Z			; ImVector<char>::resize
PUBLIC	?reserve@?$ImVector@D@@QEAAXH@Z			; ImVector<char>::reserve
PUBLIC	??0ImGuiTextBuffer@@QEAA@XZ			; ImGuiTextBuffer::ImGuiTextBuffer
PUBLIC	?size@ImGuiTextBuffer@@QEBAHXZ			; ImGuiTextBuffer::size
PUBLIC	?clear@ImGuiTextBuffer@@QEAAXXZ			; ImGuiTextBuffer::clear
PUBLIC	?reserve@ImGuiTextBuffer@@QEAAXH@Z		; ImGuiTextBuffer::reserve
PUBLIC	??1ImGuiTextBuffer@@QEAA@XZ			; ImGuiTextBuffer::~ImGuiTextBuffer
PUBLIC	??A?$ImVector@UImGuiStoragePair@ImGuiStorage@@@@QEAAAEAUImGuiStoragePair@ImGuiStorage@@H@Z ; ImVector<ImGuiStorage::ImGuiStoragePair>::operator[]
PUBLIC	??A?$ImVector@UImDrawCmd@@@@QEAAAEAUImDrawCmd@@H@Z ; ImVector<ImDrawCmd>::operator[]
PUBLIC	?back@?$ImVector@UImDrawCmd@@@@QEAAAEAUImDrawCmd@@XZ ; ImVector<ImDrawCmd>::back
PUBLIC	?pop_back@?$ImVector@UImDrawCmd@@@@QEAAXXZ	; ImVector<ImDrawCmd>::pop_back
PUBLIC	??0?$ImVector@UImDrawChannel@@@@QEAA@XZ		; ImVector<ImDrawChannel>::ImVector<ImDrawChannel>
PUBLIC	??1?$ImVector@UImDrawChannel@@@@QEAA@XZ		; ImVector<ImDrawChannel>::~ImVector<ImDrawChannel>
PUBLIC	??A?$ImVector@UImDrawChannel@@@@QEAAAEAUImDrawChannel@@H@Z ; ImVector<ImDrawChannel>::operator[]
PUBLIC	?_grow_capacity@?$ImVector@UImDrawChannel@@@@QEBAHH@Z ; ImVector<ImDrawChannel>::_grow_capacity
PUBLIC	?resize@?$ImVector@UImDrawChannel@@@@QEAAXH@Z	; ImVector<ImDrawChannel>::resize
PUBLIC	?reserve@?$ImVector@UImDrawChannel@@@@QEAAXH@Z	; ImVector<ImDrawChannel>::reserve
PUBLIC	??0ImDrawListSplitter@@QEAA@XZ			; ImDrawListSplitter::ImDrawListSplitter
PUBLIC	??1ImDrawListSplitter@@QEAA@XZ			; ImDrawListSplitter::~ImDrawListSplitter
PUBLIC	?Clear@ImDrawListSplitter@@QEAAXXZ		; ImDrawListSplitter::Clear
PUBLIC	?back@?$ImVector@UImVec4@@@@QEAAAEAUImVec4@@XZ	; ImVector<ImVec4>::back
PUBLIC	?back@?$ImVector@I@@QEAAAEAIXZ			; ImVector<unsigned int>::back
PUBLIC	??A?$ImVector@M@@QEAAAEAMH@Z			; ImVector<float>::operator[]
PUBLIC	?_grow_capacity@?$ImVector@M@@QEBAHH@Z		; ImVector<float>::_grow_capacity
PUBLIC	?resize@?$ImVector@M@@QEAAXHAEBM@Z		; ImVector<float>::resize
PUBLIC	?reserve@?$ImVector@M@@QEAAXH@Z			; ImVector<float>::reserve
PUBLIC	__local_stdio_scanf_options
PUBLIC	??$__vcrt_va_start_verify_argument_type@QEBD@@YAXXZ ; __vcrt_va_start_verify_argument_type<char const * __ptr64 const>
PUBLIC	_vsscanf_l
PUBLIC	sscanf
PUBLIC	??0ImVec1@@QEAA@XZ				; ImVec1::ImVec1
PUBLIC	??0ImRect@@QEAA@XZ				; ImRect::ImRect
PUBLIC	??0ImRect@@QEAA@AEBUImVec2@@0@Z			; ImRect::ImRect
PUBLIC	??0ImRect@@QEAA@AEBUImVec4@@@Z			; ImRect::ImRect
PUBLIC	??0ImRect@@QEAA@MMMM@Z				; ImRect::ImRect
PUBLIC	?GetSize@ImRect@@QEBA?AUImVec2@@XZ		; ImRect::GetSize
PUBLIC	?GetWidth@ImRect@@QEBAMXZ			; ImRect::GetWidth
PUBLIC	?GetHeight@ImRect@@QEBAMXZ			; ImRect::GetHeight
PUBLIC	?Contains@ImRect@@QEBA_NAEBU1@@Z		; ImRect::Contains
PUBLIC	?Overlaps@ImRect@@QEBA_NAEBU1@@Z		; ImRect::Overlaps
PUBLIC	?Add@ImRect@@QEAAXAEBU1@@Z			; ImRect::Add
PUBLIC	?ClipWith@ImRect@@QEAAXAEBU1@@Z			; ImRect::ClipWith
PUBLIC	?ClipWithFull@ImRect@@QEAAXAEBU1@@Z		; ImRect::ClipWithFull
PUBLIC	?ToVec4@ImRect@@QEBA?AUImVec4@@XZ		; ImRect::ToVec4
PUBLIC	?ImBitArrayGetStorageSizeInBytes@@YA_KH@Z	; ImBitArrayGetStorageSizeInBytes
PUBLIC	?ImBitArrayClearAllBits@@YAXPEAIH@Z		; ImBitArrayClearAllBits
PUBLIC	?ImBitArrayClearBit@@YAXPEAIH@Z			; ImBitArrayClearBit
PUBLIC	?ImBitArraySetBit@@YAXPEAIH@Z			; ImBitArraySetBit
PUBLIC	?ImBitArraySetBitRange@@YAXPEAIHH@Z		; ImBitArraySetBitRange
PUBLIC	??0ImGuiOldColumnData@@QEAA@XZ			; ImGuiOldColumnData::ImGuiOldColumnData
PUBLIC	??0?$ImVector@UImGuiOldColumnData@@@@QEAA@XZ	; ImVector<ImGuiOldColumnData>::ImVector<ImGuiOldColumnData>
PUBLIC	??1?$ImVector@UImGuiOldColumnData@@@@QEAA@XZ	; ImVector<ImGuiOldColumnData>::~ImVector<ImGuiOldColumnData>
PUBLIC	??A?$ImVector@UImGuiOldColumnData@@@@QEAAAEAUImGuiOldColumnData@@H@Z ; ImVector<ImGuiOldColumnData>::operator[]
PUBLIC	?_grow_capacity@?$ImVector@UImGuiOldColumnData@@@@QEBAHH@Z ; ImVector<ImGuiOldColumnData>::_grow_capacity
PUBLIC	?resize@?$ImVector@UImGuiOldColumnData@@@@QEAAXH@Z ; ImVector<ImGuiOldColumnData>::resize
PUBLIC	?reserve@?$ImVector@UImGuiOldColumnData@@@@QEAAXH@Z ; ImVector<ImGuiOldColumnData>::reserve
PUBLIC	?push_back@?$ImVector@UImGuiOldColumnData@@@@QEAAXAEBUImGuiOldColumnData@@@Z ; ImVector<ImGuiOldColumnData>::push_back
PUBLIC	??0ImGuiOldColumns@@QEAA@XZ			; ImGuiOldColumns::ImGuiOldColumns
PUBLIC	??1ImGuiOldColumns@@QEAA@XZ			; ImGuiOldColumns::~ImGuiOldColumns
PUBLIC	??0ImGuiSettingsHandler@@QEAA@XZ		; ImGuiSettingsHandler::ImGuiSettingsHandler
PUBLIC	??A?$ImVector@UImGuiTableTempData@@@@QEAAAEAUImGuiTableTempData@@H@Z ; ImVector<ImGuiTableTempData>::operator[]
PUBLIC	?_grow_capacity@?$ImVector@UImGuiTableTempData@@@@QEBAHH@Z ; ImVector<ImGuiTableTempData>::_grow_capacity
PUBLIC	?resize@?$ImVector@UImGuiTableTempData@@@@QEAAXHAEBUImGuiTableTempData@@@Z ; ImVector<ImGuiTableTempData>::resize
PUBLIC	?reserve@?$ImVector@UImGuiTableTempData@@@@QEAAXH@Z ; ImVector<ImGuiTableTempData>::reserve
PUBLIC	??A?$ImVector@UImGuiTable@@@@QEAAAEAUImGuiTable@@H@Z ; ImVector<ImGuiTable>::operator[]
PUBLIC	?_grow_capacity@?$ImVector@UImGuiTable@@@@QEBAHH@Z ; ImVector<ImGuiTable>::_grow_capacity
PUBLIC	?resize@?$ImVector@UImGuiTable@@@@QEAAXH@Z	; ImVector<ImGuiTable>::resize
PUBLIC	?reserve@?$ImVector@UImGuiTable@@@@QEAAXH@Z	; ImVector<ImGuiTable>::reserve
PUBLIC	?GetByKey@?$ImPool@UImGuiTable@@@@QEAAPEAUImGuiTable@@I@Z ; ImPool<ImGuiTable>::GetByKey
PUBLIC	?GetByIndex@?$ImPool@UImGuiTable@@@@QEAAPEAUImGuiTable@@H@Z ; ImPool<ImGuiTable>::GetByIndex
PUBLIC	?GetIndex@?$ImPool@UImGuiTable@@@@QEBAHPEBUImGuiTable@@@Z ; ImPool<ImGuiTable>::GetIndex
PUBLIC	?GetOrAddByKey@?$ImPool@UImGuiTable@@@@QEAAPEAUImGuiTable@@I@Z ; ImPool<ImGuiTable>::GetOrAddByKey
PUBLIC	?Add@?$ImPool@UImGuiTable@@@@QEAAPEAUImGuiTable@@XZ ; ImPool<ImGuiTable>::Add
PUBLIC	?Remove@?$ImPool@UImGuiTable@@@@QEAAXIPEBUImGuiTable@@@Z ; ImPool<ImGuiTable>::Remove
PUBLIC	?Remove@?$ImPool@UImGuiTable@@@@QEAAXIH@Z	; ImPool<ImGuiTable>::Remove
PUBLIC	?GetMapSize@?$ImPool@UImGuiTable@@@@QEBAHXZ	; ImPool<ImGuiTable>::GetMapSize
PUBLIC	?TryGetMapData@?$ImPool@UImGuiTable@@@@QEAAPEAUImGuiTable@@H@Z ; ImPool<ImGuiTable>::TryGetMapData
PUBLIC	?clear@?$ImChunkStream@UImGuiTableSettings@@@@QEAAXXZ ; ImChunkStream<ImGuiTableSettings>::clear
PUBLIC	?alloc_chunk@?$ImChunkStream@UImGuiTableSettings@@@@QEAAPEAUImGuiTableSettings@@_K@Z ; ImChunkStream<ImGuiTableSettings>::alloc_chunk
PUBLIC	?begin@?$ImChunkStream@UImGuiTableSettings@@@@QEAAPEAUImGuiTableSettings@@XZ ; ImChunkStream<ImGuiTableSettings>::begin
PUBLIC	?next_chunk@?$ImChunkStream@UImGuiTableSettings@@@@QEAAPEAUImGuiTableSettings@@PEAU2@@Z ; ImChunkStream<ImGuiTableSettings>::next_chunk
PUBLIC	?chunk_size@?$ImChunkStream@UImGuiTableSettings@@@@QEAAHPEBUImGuiTableSettings@@@Z ; ImChunkStream<ImGuiTableSettings>::chunk_size
PUBLIC	?end@?$ImChunkStream@UImGuiTableSettings@@@@QEAAPEAUImGuiTableSettings@@XZ ; ImChunkStream<ImGuiTableSettings>::end
PUBLIC	?offset_from_ptr@?$ImChunkStream@UImGuiTableSettings@@@@QEAAHPEBUImGuiTableSettings@@@Z ; ImChunkStream<ImGuiTableSettings>::offset_from_ptr
PUBLIC	?ptr_from_offset@?$ImChunkStream@UImGuiTableSettings@@@@QEAAPEAUImGuiTableSettings@@H@Z ; ImChunkStream<ImGuiTableSettings>::ptr_from_offset
PUBLIC	?swap@?$ImChunkStream@UImGuiTableSettings@@@@QEAAXAEAU1@@Z ; ImChunkStream<ImGuiTableSettings>::swap
PUBLIC	??0?$ImChunkStream@UImGuiTableSettings@@@@QEAA@XZ ; ImChunkStream<ImGuiTableSettings>::ImChunkStream<ImGuiTableSettings>
PUBLIC	??1?$ImChunkStream@UImGuiTableSettings@@@@QEAA@XZ ; ImChunkStream<ImGuiTableSettings>::~ImChunkStream<ImGuiTableSettings>
PUBLIC	??A?$ImVector@UImGuiOldColumns@@@@QEAAAEAUImGuiOldColumns@@H@Z ; ImVector<ImGuiOldColumns>::operator[]
PUBLIC	?back@?$ImVector@UImGuiOldColumns@@@@QEAAAEAUImGuiOldColumns@@XZ ; ImVector<ImGuiOldColumns>::back
PUBLIC	?_grow_capacity@?$ImVector@UImGuiOldColumns@@@@QEBAHH@Z ; ImVector<ImGuiOldColumns>::_grow_capacity
PUBLIC	?reserve@?$ImVector@UImGuiOldColumns@@@@QEAAXH@Z ; ImVector<ImGuiOldColumns>::reserve
PUBLIC	?push_back@?$ImVector@UImGuiOldColumns@@@@QEAAXAEBUImGuiOldColumns@@@Z ; ImVector<ImGuiOldColumns>::push_back
PUBLIC	?Rect@ImGuiWindow@@QEBA?AUImRect@@XZ		; ImGuiWindow::Rect
PUBLIC	??0ImGuiTableColumn@@QEAA@XZ			; ImGuiTableColumn::ImGuiTableColumn
PUBLIC	??0ImGuiTableInstanceData@@QEAA@XZ		; ImGuiTableInstanceData::ImGuiTableInstanceData
PUBLIC	??0?$ImSpan@UImGuiTableColumn@@@@QEAA@XZ	; ImSpan<ImGuiTableColumn>::ImSpan<ImGuiTableColumn>
PUBLIC	?set@?$ImSpan@UImGuiTableColumn@@@@QEAAXPEAUImGuiTableColumn@@0@Z ; ImSpan<ImGuiTableColumn>::set
PUBLIC	?size@?$ImSpan@UImGuiTableColumn@@@@QEBAHXZ	; ImSpan<ImGuiTableColumn>::size
PUBLIC	??A?$ImSpan@UImGuiTableColumn@@@@QEAAAEAUImGuiTableColumn@@H@Z ; ImSpan<ImGuiTableColumn>::operator[]
PUBLIC	??A?$ImSpan@UImGuiTableColumn@@@@QEBAAEBUImGuiTableColumn@@H@Z ; ImSpan<ImGuiTableColumn>::operator[]
PUBLIC	?index_from_ptr@?$ImSpan@UImGuiTableColumn@@@@QEBAHPEBUImGuiTableColumn@@@Z ; ImSpan<ImGuiTableColumn>::index_from_ptr
PUBLIC	??0?$ImSpan@F@@QEAA@XZ				; ImSpan<short>::ImSpan<short>
PUBLIC	?set@?$ImSpan@F@@QEAAXPEAF0@Z			; ImSpan<short>::set
PUBLIC	??A?$ImSpan@F@@QEAAAEAFH@Z			; ImSpan<short>::operator[]
PUBLIC	??0?$ImSpan@UImGuiTableCellData@@@@QEAA@XZ	; ImSpan<ImGuiTableCellData>::ImSpan<ImGuiTableCellData>
PUBLIC	?set@?$ImSpan@UImGuiTableCellData@@@@QEAAXPEAUImGuiTableCellData@@0@Z ; ImSpan<ImGuiTableCellData>::set
PUBLIC	??A?$ImSpan@UImGuiTableCellData@@@@QEAAAEAUImGuiTableCellData@@H@Z ; ImSpan<ImGuiTableCellData>::operator[]
PUBLIC	??0?$ImVector@UImGuiTableInstanceData@@@@QEAA@XZ ; ImVector<ImGuiTableInstanceData>::ImVector<ImGuiTableInstanceData>
PUBLIC	??1?$ImVector@UImGuiTableInstanceData@@@@QEAA@XZ ; ImVector<ImGuiTableInstanceData>::~ImVector<ImGuiTableInstanceData>
PUBLIC	??A?$ImVector@UImGuiTableInstanceData@@@@QEAAAEAUImGuiTableInstanceData@@H@Z ; ImVector<ImGuiTableInstanceData>::operator[]
PUBLIC	?_grow_capacity@?$ImVector@UImGuiTableInstanceData@@@@QEBAHH@Z ; ImVector<ImGuiTableInstanceData>::_grow_capacity
PUBLIC	?reserve@?$ImVector@UImGuiTableInstanceData@@@@QEAAXH@Z ; ImVector<ImGuiTableInstanceData>::reserve
PUBLIC	?push_back@?$ImVector@UImGuiTableInstanceData@@@@QEAAXAEBUImGuiTableInstanceData@@@Z ; ImVector<ImGuiTableInstanceData>::push_back
PUBLIC	??0?$ImVector@UImGuiTableColumnSortSpecs@@@@QEAA@XZ ; ImVector<ImGuiTableColumnSortSpecs>::ImVector<ImGuiTableColumnSortSpecs>
PUBLIC	??1?$ImVector@UImGuiTableColumnSortSpecs@@@@QEAA@XZ ; ImVector<ImGuiTableColumnSortSpecs>::~ImVector<ImGuiTableColumnSortSpecs>
PUBLIC	?clear@?$ImVector@UImGuiTableColumnSortSpecs@@@@QEAAXXZ ; ImVector<ImGuiTableColumnSortSpecs>::clear
PUBLIC	?_grow_capacity@?$ImVector@UImGuiTableColumnSortSpecs@@@@QEBAHH@Z ; ImVector<ImGuiTableColumnSortSpecs>::_grow_capacity
PUBLIC	?resize@?$ImVector@UImGuiTableColumnSortSpecs@@@@QEAAXH@Z ; ImVector<ImGuiTableColumnSortSpecs>::resize
PUBLIC	?reserve@?$ImVector@UImGuiTableColumnSortSpecs@@@@QEAAXH@Z ; ImVector<ImGuiTableColumnSortSpecs>::reserve
PUBLIC	??0ImGuiTable@@QEAA@XZ				; ImGuiTable::ImGuiTable
PUBLIC	??1ImGuiTable@@QEAA@XZ				; ImGuiTable::~ImGuiTable
PUBLIC	??_GImGuiTable@@QEAAPEAXI@Z			; ImGuiTable::`scalar deleting destructor'
PUBLIC	??0ImGuiTableTempData@@QEAA@XZ			; ImGuiTableTempData::ImGuiTableTempData
PUBLIC	??1ImGuiTableTempData@@QEAA@XZ			; ImGuiTableTempData::~ImGuiTableTempData
PUBLIC	??0ImGuiTableColumnSettings@@QEAA@XZ		; ImGuiTableColumnSettings::ImGuiTableColumnSettings
PUBLIC	??0ImGuiTableSettings@@QEAA@XZ			; ImGuiTableSettings::ImGuiTableSettings
PUBLIC	?GetColumnSettings@ImGuiTableSettings@@QEAAPEAUImGuiTableColumnSettings@@XZ ; ImGuiTableSettings::GetColumnSettings
PUBLIC	?GetCurrentWindowRead@ImGui@@YAPEAUImGuiWindow@@XZ ; ImGui::GetCurrentWindowRead
PUBLIC	?GetCurrentWindow@ImGui@@YAPEAUImGuiWindow@@XZ	; ImGui::GetCurrentWindow
PUBLIC	?LocalizeGetMsg@ImGui@@YAPEBDW4ImGuiLocKey@@@Z	; ImGui::LocalizeGetMsg
PUBLIC	?ItemSize@ImGui@@YAXAEBUImRect@@M@Z		; ImGui::ItemSize
PUBLIC	?SetWindowClipRectBeforeSetChannel@ImGui@@YAXPEAUImGuiWindow@@AEBUImRect@@@Z ; ImGui::SetWindowClipRectBeforeSetChannel
PUBLIC	?BeginColumns@ImGui@@YAXPEBDHH@Z		; ImGui::BeginColumns
PUBLIC	?EndColumns@ImGui@@YAXXZ			; ImGui::EndColumns
PUBLIC	?PushColumnClipRect@ImGui@@YAXH@Z		; ImGui::PushColumnClipRect
PUBLIC	?PushColumnsBackground@ImGui@@YAXXZ		; ImGui::PushColumnsBackground
PUBLIC	?PopColumnsBackground@ImGui@@YAXXZ		; ImGui::PopColumnsBackground
PUBLIC	?GetColumnsID@ImGui@@YAIPEBDH@Z			; ImGui::GetColumnsID
PUBLIC	?FindOrCreateColumns@ImGui@@YAPEAUImGuiOldColumns@@PEAUImGuiWindow@@I@Z ; ImGui::FindOrCreateColumns
PUBLIC	?GetColumnOffsetFromNorm@ImGui@@YAMPEBUImGuiOldColumns@@M@Z ; ImGui::GetColumnOffsetFromNorm
PUBLIC	?GetColumnNormFromOffset@ImGui@@YAMPEBUImGuiOldColumns@@M@Z ; ImGui::GetColumnNormFromOffset
PUBLIC	?TableOpenContextMenu@ImGui@@YAXH@Z		; ImGui::TableOpenContextMenu
PUBLIC	?TableSetColumnWidth@ImGui@@YAXHM@Z		; ImGui::TableSetColumnWidth
PUBLIC	?TableSetColumnSortDirection@ImGui@@YAXHH_N@Z	; ImGui::TableSetColumnSortDirection
PUBLIC	?TableGetHoveredColumn@ImGui@@YAHXZ		; ImGui::TableGetHoveredColumn
PUBLIC	?TableGetHeaderRowHeight@ImGui@@YAMXZ		; ImGui::TableGetHeaderRowHeight
PUBLIC	?TablePushBackgroundChannel@ImGui@@YAXXZ	; ImGui::TablePushBackgroundChannel
PUBLIC	?TablePopBackgroundChannel@ImGui@@YAXXZ		; ImGui::TablePopBackgroundChannel
PUBLIC	?TableFindByID@ImGui@@YAPEAUImGuiTable@@I@Z	; ImGui::TableFindByID
PUBLIC	?BeginTableEx@ImGui@@YA_NPEBDIHHAEBUImVec2@@M@Z	; ImGui::BeginTableEx
PUBLIC	?TableBeginInitMemory@ImGui@@YAXPEAUImGuiTable@@H@Z ; ImGui::TableBeginInitMemory
PUBLIC	?TableBeginApplyRequests@ImGui@@YAXPEAUImGuiTable@@@Z ; ImGui::TableBeginApplyRequests
PUBLIC	?TableSetupDrawChannels@ImGui@@YAXPEAUImGuiTable@@@Z ; ImGui::TableSetupDrawChannels
PUBLIC	?TableUpdateLayout@ImGui@@YAXPEAUImGuiTable@@@Z	; ImGui::TableUpdateLayout
PUBLIC	?TableUpdateBorders@ImGui@@YAXPEAUImGuiTable@@@Z ; ImGui::TableUpdateBorders
PUBLIC	?TableUpdateColumnsWeightFromWidth@ImGui@@YAXPEAUImGuiTable@@@Z ; ImGui::TableUpdateColumnsWeightFromWidth
PUBLIC	?TableDrawBorders@ImGui@@YAXPEAUImGuiTable@@@Z	; ImGui::TableDrawBorders
PUBLIC	?TableDrawContextMenu@ImGui@@YAXPEAUImGuiTable@@@Z ; ImGui::TableDrawContextMenu
PUBLIC	?TableBeginContextMenuPopup@ImGui@@YA_NPEAUImGuiTable@@@Z ; ImGui::TableBeginContextMenuPopup
PUBLIC	?TableMergeDrawChannels@ImGui@@YAXPEAUImGuiTable@@@Z ; ImGui::TableMergeDrawChannels
PUBLIC	?TableGetInstanceData@ImGui@@YAPEAUImGuiTableInstanceData@@PEAUImGuiTable@@H@Z ; ImGui::TableGetInstanceData
PUBLIC	?TableSortSpecsSanitize@ImGui@@YAXPEAUImGuiTable@@@Z ; ImGui::TableSortSpecsSanitize
PUBLIC	?TableSortSpecsBuild@ImGui@@YAXPEAUImGuiTable@@@Z ; ImGui::TableSortSpecsBuild
PUBLIC	?TableGetColumnNextSortDirection@ImGui@@YAHPEAUImGuiTableColumn@@@Z ; ImGui::TableGetColumnNextSortDirection
PUBLIC	?TableFixColumnSortDirection@ImGui@@YAXPEAUImGuiTable@@PEAUImGuiTableColumn@@@Z ; ImGui::TableFixColumnSortDirection
PUBLIC	?TableGetColumnWidthAuto@ImGui@@YAMPEAUImGuiTable@@PEAUImGuiTableColumn@@@Z ; ImGui::TableGetColumnWidthAuto
PUBLIC	?TableBeginRow@ImGui@@YAXPEAUImGuiTable@@@Z	; ImGui::TableBeginRow
PUBLIC	?TableEndRow@ImGui@@YAXPEAUImGuiTable@@@Z	; ImGui::TableEndRow
PUBLIC	?TableBeginCell@ImGui@@YAXPEAUImGuiTable@@H@Z	; ImGui::TableBeginCell
PUBLIC	?TableEndCell@ImGui@@YAXPEAUImGuiTable@@@Z	; ImGui::TableEndCell
PUBLIC	?TableGetCellBgRect@ImGui@@YA?AUImRect@@PEBUImGuiTable@@H@Z ; ImGui::TableGetCellBgRect
PUBLIC	?TableGetColumnName@ImGui@@YAPEBDPEBUImGuiTable@@H@Z ; ImGui::TableGetColumnName
PUBLIC	?TableGetColumnResizeID@ImGui@@YAIPEBUImGuiTable@@HH@Z ; ImGui::TableGetColumnResizeID
PUBLIC	?TableGetMaxColumnWidth@ImGui@@YAMPEBUImGuiTable@@H@Z ; ImGui::TableGetMaxColumnWidth
PUBLIC	?TableSetColumnWidthAutoSingle@ImGui@@YAXPEAUImGuiTable@@H@Z ; ImGui::TableSetColumnWidthAutoSingle
PUBLIC	?TableSetColumnWidthAutoAll@ImGui@@YAXPEAUImGuiTable@@@Z ; ImGui::TableSetColumnWidthAutoAll
PUBLIC	?TableRemove@ImGui@@YAXPEAUImGuiTable@@@Z	; ImGui::TableRemove
PUBLIC	?TableGcCompactTransientBuffers@ImGui@@YAXPEAUImGuiTable@@@Z ; ImGui::TableGcCompactTransientBuffers
PUBLIC	?TableGcCompactTransientBuffers@ImGui@@YAXPEAUImGuiTableTempData@@@Z ; ImGui::TableGcCompactTransientBuffers
PUBLIC	?TableGcCompactSettings@ImGui@@YAXXZ		; ImGui::TableGcCompactSettings
PUBLIC	?TableLoadSettings@ImGui@@YAXPEAUImGuiTable@@@Z	; ImGui::TableLoadSettings
PUBLIC	?TableSaveSettings@ImGui@@YAXPEAUImGuiTable@@@Z	; ImGui::TableSaveSettings
PUBLIC	?TableResetSettings@ImGui@@YAXPEAUImGuiTable@@@Z ; ImGui::TableResetSettings
PUBLIC	?TableGetBoundSettings@ImGui@@YAPEAUImGuiTableSettings@@PEAUImGuiTable@@@Z ; ImGui::TableGetBoundSettings
PUBLIC	?TableSettingsAddSettingsHandler@ImGui@@YAXXZ	; ImGui::TableSettingsAddSettingsHandler
PUBLIC	?TableSettingsCreate@ImGui@@YAPEAUImGuiTableSettings@@IH@Z ; ImGui::TableSettingsCreate
PUBLIC	?TableSettingsFindByID@ImGui@@YAPEAUImGuiTableSettings@@I@Z ; ImGui::TableSettingsFindByID
PUBLIC	?DebugNodeTable@ImGui@@YAXPEAUImGuiTable@@@Z	; ImGui::DebugNodeTable
PUBLIC	?DebugNodeTableSettings@ImGui@@YAXPEAUImGuiTableSettings@@@Z ; ImGui::DebugNodeTableSettings
PUBLIC	?TableFixFlags@@YAHHPEAUImGuiWindow@@@Z		; TableFixFlags
PUBLIC	??0?$ImSpanAllocator@$05@@QEAA@XZ		; ImSpanAllocator<6>::ImSpanAllocator<6>
PUBLIC	?Reserve@?$ImSpanAllocator@$05@@QEAAXH_KH@Z	; ImSpanAllocator<6>::Reserve
PUBLIC	?GetArenaSizeInBytes@?$ImSpanAllocator@$05@@QEAAHXZ ; ImSpanAllocator<6>::GetArenaSizeInBytes
PUBLIC	?SetArenaBasePtr@?$ImSpanAllocator@$05@@QEAAXPEAX@Z ; ImSpanAllocator<6>::SetArenaBasePtr
PUBLIC	?GetSpanPtrBegin@?$ImSpanAllocator@$05@@QEAAPEAXH@Z ; ImSpanAllocator<6>::GetSpanPtrBegin
PUBLIC	?GetSpanPtrEnd@?$ImSpanAllocator@$05@@QEAAPEAXH@Z ; ImSpanAllocator<6>::GetSpanPtrEnd
PUBLIC	??$GetSpan@UImGuiTableColumn@@@?$ImSpanAllocator@$05@@QEAAXHPEAU?$ImSpan@UImGuiTableColumn@@@@@Z ; ImSpanAllocator<6>::GetSpan<ImGuiTableColumn>
PUBLIC	??$GetSpan@F@?$ImSpanAllocator@$05@@QEAAXHPEAU?$ImSpan@F@@@Z ; ImSpanAllocator<6>::GetSpan<short>
PUBLIC	??$GetSpan@UImGuiTableCellData@@@?$ImSpanAllocator@$05@@QEAAXHPEAU?$ImSpan@UImGuiTableCellData@@@@@Z ; ImSpanAllocator<6>::GetSpan<ImGuiTableCellData>
PUBLIC	??_C@_1EO@MGODAGF@?$AAc?$AA?3?$AA?2?$AAg?$AAi?$AAt?$AAh?$AAu?$AAb?$AA?2?$AAf?$AAr?$AAa?$AAm?$AAe?$AAw?$AAo?$AAr?$AAk?$AA?2?$AAt?$AAo?$AAo?$AAl?$AA?2?$AAi?$AAm?$AAg?$AAu?$AAi?$AA?2?$AAi@ ; `string'
PUBLIC	?_OptionsStorage@?1??__local_stdio_scanf_options@@9@4_KA ; `__local_stdio_scanf_options'::`2'::_OptionsStorage
PUBLIC	??_C@_1GA@FAIKKLKG@?$AAc?$AA?3?$AA?2?$AAg?$AAi?$AAt?$AAh?$AAu?$AAb?$AA?2?$AAf?$AAr?$AAa?$AAm?$AAe?$AAw?$AAo?$AAr?$AAk?$AA?2?$AAt?$AAo?$AAo?$AAl?$AA?2?$AAi?$AAm?$AAg?$AAu?$AAi?$AA?2?$AAi@ ; `string'
PUBLIC	??_C@_0P@HEMCFMMD@?$CKMissing?5Text?$CK?$AA@	; `string'
PUBLIC	??_C@_13COJANIEC@?$AA0?$AA?$AA@			; `string'
PUBLIC	?__LINE__Var@?0??BeginTableEx@ImGui@@YA_NPEBDIHHAEBUImVec2@@M@Z@4JA ; `ImGui::BeginTableEx'::`1'::__LINE__Var
PUBLIC	??_C@_1GA@OPMIMIN@?$AAc?$AA?3?$AA?2?$AAg?$AAi?$AAt?$AAh?$AAu?$AAb?$AA?2?$AAf?$AAr?$AAa?$AAm?$AAe?$AAw?$AAo?$AAr?$AAk?$AA?2?$AAt?$AAo?$AAo?$AAl?$AA?2?$AAi?$AAm?$AAg?$AAu?$AAi?$AA?2?$AAi@ ; `string'
PUBLIC	??_C@_1FC@LLGOGPDA@?$AAc?$AAo?$AAl?$AAu?$AAm?$AAn?$AAs?$AA_?$AAc?$AAo?$AAu?$AAn?$AAt?$AA?5?$AA?$DO?$AA?5?$AA0?$AA?5?$AA?$CG?$AA?$CG?$AA?5?$AAc?$AAo?$AAl?$AAu?$AAm?$AAn?$AAs?$AA_?$AAc?$AAo?$AAu@ ; `string'
PUBLIC	??_C@_1CI@NLGBMAGB@?$AAi?$AAn?$AAn?$AAe?$AAr?$AA_?$AAw?$AAi?$AAd?$AAt?$AAh?$AA?5?$AA?$DO?$AA?$DN?$AA?5?$AA0?$AA?4?$AA0?$AAf?$AA?$AA@ ; `string'
PUBLIC	??_C@_0EN@HCDJLOKE@BeginTable?$CI?$CJ?3?5Cannot?5change?5colu@ ; `string'
PUBLIC	??_C@_1OO@LHJMPKOL@?$AAt?$AAa?$AAb?$AAl?$AAe?$AA?9?$AA?$DO?$AAC?$AAo?$AAl?$AAu?$AAm?$AAn?$AAs?$AAC?$AAo?$AAu?$AAn?$AAt?$AA?5?$AA?$DN?$AA?$DN?$AA?5?$AAc?$AAo?$AAl?$AAu?$AAm?$AAn?$AAs?$AA_?$AAc@ ; `string'
PUBLIC	??_C@_1BBG@HLLCHCOP@?$AAt?$AAa?$AAb?$AAl?$AAe?$AA?9?$AA?$DO?$AAI?$AAn?$AAn?$AAe?$AAr?$AAW?$AAi?$AAn?$AAd?$AAo?$AAw?$AA?9?$AA?$DO?$AAW?$AAi?$AAn?$AAd?$AAo?$AAw?$AAP?$AAa?$AAd?$AAd?$AAi?$AAn@ ; `string'
PUBLIC	?__LINE__Var@?0??TableBeginApplyRequests@ImGui@@YAXPEAUImGuiTable@@@Z@4JA ; `ImGui::TableBeginApplyRequests'::`1'::__LINE__Var
PUBLIC	??_C@_1EO@CLPKFPLH@?$AAr?$AAe?$AAo?$AAr?$AAd?$AAe?$AAr?$AA_?$AAd?$AAi?$AAr?$AA?5?$AA?$DN?$AA?$DN?$AA?5?$AA?9?$AA1?$AA?5?$AA?$HM?$AA?$HM?$AA?5?$AAr?$AAe?$AAo?$AAr?$AAd?$AAe?$AAr?$AA_?$AAd?$AAi?$AAr@ ; `string'
PUBLIC	??_C@_1FG@FFJIEHAF@?$AAt?$AAa?$AAb?$AAl?$AAe?$AA?9?$AA?$DO?$AAF?$AAl?$AAa?$AAg?$AAs?$AA?5?$AA?$CG?$AA?5?$AAI?$AAm?$AAG?$AAu?$AAi?$AAT?$AAa?$AAb?$AAl?$AAe?$AAF?$AAl?$AAa?$AAg?$AAs?$AA_?$AAR@ ; `string'
PUBLIC	??_C@_1GI@FDBBNGED@?$AAd?$AAs?$AAt?$AA_?$AAc?$AAo?$AAl?$AAu?$AAm?$AAn?$AA?9?$AA?$DO?$AAD?$AAi?$AAs?$AAp?$AAl?$AAa?$AAy?$AAO?$AAr?$AAd?$AAe?$AAr?$AA?5?$AA?$DN?$AA?$DN?$AA?5?$AAd?$AAs?$AAt?$AA_@ ; `string'
PUBLIC	?__LINE__Var@?0??TableSetupColumnFlags@@YAXPEAUImGuiTable@@PEAUImGuiTableColumn@@H@Z@4JA ; `TableSetupColumnFlags'::`1'::__LINE__Var
PUBLIC	??_C@_1HC@EONHDNHI@?$AAI?$AAm?$AAI?$AAs?$AAP?$AAo?$AAw?$AAe?$AAr?$AAO?$AAf?$AAT?$AAw?$AAo?$AA?$CI?$AAf?$AAl?$AAa?$AAg?$AAs?$AA?5?$AA?$CG?$AA?5?$AAI?$AAm?$AAG?$AAu?$AAi?$AAT?$AAa?$AAb?$AAl@ ; `string'
PUBLIC	?__LINE__Var@?0??TableUpdateLayout@ImGui@@YAXPEAUImGuiTable@@@Z@4JA ; `ImGui::TableUpdateLayout'::`1'::__LINE__Var
PUBLIC	??_C@_1DO@DEAGPPGG@?$AAt?$AAa?$AAb?$AAl?$AAe?$AA?9?$AA?$DO?$AAI?$AAs?$AAL?$AAa?$AAy?$AAo?$AAu?$AAt?$AAL?$AAo?$AAc?$AAk?$AAe?$AAd?$AA?5?$AA?$DN?$AA?$DN?$AA?5?$AAf?$AAa?$AAl?$AAs?$AAe?$AA?$AA@ ; `string'
PUBLIC	??_C@_1GM@PGNFGMB@?$AAc?$AAo?$AAl?$AAu?$AAm?$AAn?$AA?9?$AA?$DO?$AAI?$AAn?$AAd?$AAe?$AAx?$AAW?$AAi?$AAt?$AAh?$AAi?$AAn?$AAE?$AAn?$AAa?$AAb?$AAl?$AAe?$AAd?$AAS?$AAe?$AAt?$AA?5?$AA?$DM?$AA?$DN@ ; `string'
PUBLIC	??_C@_1JA@JKJMNFJF@?$AAt?$AAa?$AAb?$AAl?$AAe?$AA?9?$AA?$DO?$AAL?$AAe?$AAf?$AAt?$AAM?$AAo?$AAs?$AAt?$AAE?$AAn?$AAa?$AAb?$AAl?$AAe?$AAd?$AAC?$AAo?$AAl?$AAu?$AAm?$AAn?$AA?5?$AA?$DO?$AA?$DN?$AA?5@ ; `string'
PUBLIC	??_C@_1BI@PMBHHKFI@?$AA?$CB?$AAi?$AAs?$AA_?$AAv?$AAi?$AAs?$AAi?$AAb?$AAl?$AAe?$AA?$AA@ ; `string'
PUBLIC	?__LINE__Var@?0??TableUpdateBorders@ImGui@@YAXPEAUImGuiTable@@@Z@4JA ; `ImGui::TableUpdateBorders'::`1'::__LINE__Var
PUBLIC	??_C@_1FC@BMHMHKON@?$AAt?$AAa?$AAb?$AAl?$AAe?$AA?9?$AA?$DO?$AAF?$AAl?$AAa?$AAg?$AAs?$AA?5?$AA?$CG?$AA?5?$AAI?$AAm?$AAG?$AAu?$AAi?$AAT?$AAa?$AAb?$AAl?$AAe?$AAF?$AAl?$AAa?$AAg?$AAs?$AA_?$AAR@ ; `string'
PUBLIC	?__LINE__Var@?0??EndTable@ImGui@@YAXXZ@4JA	; `ImGui::EndTable'::`1'::__LINE__Var
PUBLIC	??_C@_0DD@JFFDACDB@Only?5call?5EndTable?$CI?$CJ?5if?5BeginTab@ ; `string'
PUBLIC	??_C@_1IG@CGOKCKPM@?$AAt?$AAa?$AAb?$AAl?$AAe?$AA?5?$AA?$CB?$AA?$DN?$AA?5?$AA0?$AA?5?$AA?$CG?$AA?$CG?$AA?5?$AA?$CC?$AAO?$AAn?$AAl?$AAy?$AA?5?$AAc?$AAa?$AAl?$AAl?$AA?5?$AAE?$AAn?$AAd?$AAT?$AAa?$AAb?$AAl@ ; `string'
PUBLIC	??_C@_1EA@FGAGBNK@?$AAi?$AAn?$AAn?$AAe?$AAr?$AA_?$AAw?$AAi?$AAn?$AAd?$AAo?$AAw?$AA?5?$AA?$DN?$AA?$DN?$AA?5?$AAg?$AA?4?$AAC?$AAu?$AAr?$AAr?$AAe?$AAn?$AAt?$AAW?$AAi?$AAn?$AAd?$AAo?$AAw?$AA?$AA@ ; `string'
PUBLIC	??_C@_1JG@DEMMNCCK@?$AAo?$AAu?$AAt?$AAe?$AAr?$AA_?$AAw?$AAi?$AAn?$AAd?$AAo?$AAw?$AA?5?$AA?$DN?$AA?$DN?$AA?5?$AAi?$AAn?$AAn?$AAe?$AAr?$AA_?$AAw?$AAi?$AAn?$AAd?$AAo?$AAw?$AA?5?$AA?$HM?$AA?$HM?$AA?5@ ; `string'
PUBLIC	??_C@_1GA@MJADNMBJ@?$AAt?$AAa?$AAb?$AAl?$AAe?$AA?9?$AA?$DO?$AAR?$AAo?$AAw?$AAP?$AAo?$AAs?$AAY?$AA2?$AA?5?$AA?$DN?$AA?$DN?$AA?5?$AAi?$AAn?$AAn?$AAe?$AAr?$AA_?$AAw?$AAi?$AAn?$AAd?$AAo?$AAw?$AA?9@ ; `string'
PUBLIC	??_C@_0BK@MHDEDKFO@Mismatching?5PushID?1PopID?$CB?$AA@ ; `string'
PUBLIC	??_C@_1MI@BOIHHKDM@?$AA?$CI?$AAi?$AAn?$AAn?$AAe?$AAr?$AA_?$AAw?$AAi?$AAn?$AAd?$AAo?$AAw?$AA?9?$AA?$DO?$AAI?$AAD?$AAS?$AAt?$AAa?$AAc?$AAk?$AA?4?$AAb?$AAa?$AAc?$AAk?$AA?$CI?$AA?$CJ?$AA?5?$AA?$DN?$AA?$DN@ ; `string'
PUBLIC	??_C@_0BH@GAFFHFPC@Too?5many?5PopItemWidth?$CB?$AA@ ; `string'
PUBLIC	??_C@_1NM@BLFPKGHB@?$AA?$CI?$AAo?$AAu?$AAt?$AAe?$AAr?$AA_?$AAw?$AAi?$AAn?$AAd?$AAo?$AAw?$AA?9?$AA?$DO?$AAD?$AAC?$AA?4?$AAI?$AAt?$AAe?$AAm?$AAW?$AAi?$AAd?$AAt?$AAh?$AAS?$AAt?$AAa?$AAc?$AAk@ ; `string'
PUBLIC	??_C@_1FM@ICPCKIED@?$AA?$CI?$AAt?$AAa?$AAb?$AAl?$AAe?$AA?9?$AA?$DO?$AAF?$AAl?$AAa?$AAg?$AAs?$AA?5?$AA?$CG?$AA?5?$AAI?$AAm?$AAG?$AAu?$AAi?$AAT?$AAa?$AAb?$AAl?$AAe?$AAF?$AAl?$AAa?$AAg?$AAs?$AA_@ ; `string'
PUBLIC	??_C@_1HG@JFMKDCJB@?$AAg?$AA?4?$AAC?$AAu?$AAr?$AAr?$AAe?$AAn?$AAt?$AAW?$AAi?$AAn?$AAd?$AAo?$AAw?$AA?5?$AA?$DN?$AA?$DN?$AA?5?$AAo?$AAu?$AAt?$AAe?$AAr?$AA_?$AAw?$AAi?$AAn?$AAd?$AAo?$AAw?$AA?5@ ; `string'
PUBLIC	??_C@_1DI@IPEFINGP@?$AAg?$AA?4?$AAT?$AAa?$AAb?$AAl?$AAe?$AAs?$AAT?$AAe?$AAm?$AAp?$AAD?$AAa?$AAt?$AAa?$AAS?$AAt?$AAa?$AAc?$AAk?$AAe?$AAd?$AA?5?$AA?$DO?$AA?5?$AA0?$AA?$AA@ ; `string'
PUBLIC	?__LINE__Var@?0??TableSetupColumn@ImGui@@YAXPEBDHMI@Z@4JA ; `ImGui::TableSetupColumn'::`1'::__LINE__Var
PUBLIC	??_C@_0DE@JMKEADIJ@Need?5to?5call?5TableSetupColumn?$CI?$CJ?5@ ; `string'
PUBLIC	??_C@_1II@MMHPDEP@?$AAt?$AAa?$AAb?$AAl?$AAe?$AA?5?$AA?$CB?$AA?$DN?$AA?5?$AA0?$AA?5?$AA?$CG?$AA?$CG?$AA?5?$AA?$CC?$AAN?$AAe?$AAe?$AAd?$AA?5?$AAt?$AAo?$AA?5?$AAc?$AAa?$AAl?$AAl?$AA?5?$AAT?$AAa?$AAb?$AAl@ ; `string'
PUBLIC	??_C@_0DH@KOGIGLHC@Need?5to?5call?5call?5TableSetupColu@ ; `string'
PUBLIC	??_C@_1LG@IFCOIHC@?$AAt?$AAa?$AAb?$AAl?$AAe?$AA?9?$AA?$DO?$AAI?$AAs?$AAL?$AAa?$AAy?$AAo?$AAu?$AAt?$AAL?$AAo?$AAc?$AAk?$AAe?$AAd?$AA?5?$AA?$DN?$AA?$DN?$AA?5?$AAf?$AAa?$AAl?$AAs?$AAe?$AA?5?$AA?$CG@ ; `string'
PUBLIC	??_C@_0DI@CBJAIEBI@Illegal?5to?5pass?5StatusMask?5value@ ; `string'
PUBLIC	??_C@_1NM@DDJLAMJK@?$AA?$CI?$AAf?$AAl?$AAa?$AAg?$AAs?$AA?5?$AA?$CG?$AA?5?$AAI?$AAm?$AAG?$AAu?$AAi?$AAT?$AAa?$AAb?$AAl?$AAe?$AAC?$AAo?$AAl?$AAu?$AAm?$AAn?$AAF?$AAl?$AAa?$AAg?$AAs?$AA_?$AAS@ ; `string'
PUBLIC	??_C@_0CK@FPBLGODL@Called?5TableSetupColumn?$CI?$CJ?5too?5ma@ ; `string'
PUBLIC	??_C@_1LO@INHFIFIG@?$AA?$CI?$AAt?$AAa?$AAb?$AAl?$AAe?$AA?9?$AA?$DO?$AAD?$AAe?$AAc?$AAl?$AAC?$AAo?$AAl?$AAu?$AAm?$AAn?$AAs?$AAC?$AAo?$AAu?$AAn?$AAt?$AA?5?$AA?$DM?$AA?5?$AAt?$AAa?$AAb?$AAl?$AAe@ ; `string'
PUBLIC	??_C@_0FM@GOCDHGH@Can?5only?5specify?5width?1weight?5if@ ; `string'
PUBLIC	??_C@_1PM@LKIEMPHI@?$AAi?$AAn?$AAi?$AAt?$AA_?$AAw?$AAi?$AAd?$AAt?$AAh?$AA_?$AAo?$AAr?$AA_?$AAw?$AAe?$AAi?$AAg?$AAh?$AAt?$AA?5?$AA?$DM?$AA?$DN?$AA?5?$AA0?$AA?4?$AA0?$AAf?$AA?5?$AA?$CG?$AA?$CG?$AA?5@ ; `string'
PUBLIC	?__LINE__Var@?0??TableSetupScrollFreeze@ImGui@@YAXHH@Z@4JA ; `ImGui::TableSetupScrollFreeze'::`1'::__LINE__Var
PUBLIC	??_C@_0DC@CMJJAIP@Need?5to?5call?5TableSetupColumn?$CI?$CJ?5@ ; `string'
PUBLIC	??_C@_1KM@MPIBPMGF@?$AAt?$AAa?$AAb?$AAl?$AAe?$AA?9?$AA?$DO?$AAI?$AAs?$AAL?$AAa?$AAy?$AAo?$AAu?$AAt?$AAL?$AAo?$AAc?$AAk?$AAe?$AAd?$AA?5?$AA?$DN?$AA?$DN?$AA?5?$AAf?$AAa?$AAl?$AAs?$AAe?$AA?5?$AA?$CG@ ; `string'
PUBLIC	??_C@_1DM@GIPBLHPN@?$AAc?$AAo?$AAl?$AAu?$AAm?$AAn?$AAs?$AA?5?$AA?$DO?$AA?$DN?$AA?5?$AA0?$AA?5?$AA?$CG?$AA?$CG?$AA?5?$AAc?$AAo?$AAl?$AAu?$AAm?$AAn?$AAs?$AA?5?$AA?$DM?$AA?5?$AA5?$AA1?$AA2?$AA?$AA@ ; `string'
PUBLIC	??_C@_1DA@CGNBCADH@?$AAr?$AAo?$AAw?$AAs?$AA?5?$AA?$DO?$AA?$DN?$AA?5?$AA0?$AA?5?$AA?$CG?$AA?$CG?$AA?5?$AAr?$AAo?$AAw?$AAs?$AA?5?$AA?$DM?$AA?5?$AA1?$AA2?$AA8?$AA?$AA@ ; `string'
PUBLIC	??_C@_00CNPNBAHC@?$AA@				; `string'
PUBLIC	?__LINE__Var@?0??TableSetColumnEnabled@ImGui@@YAXH_N@Z@4JA ; `ImGui::TableSetColumnEnabled'::`1'::__LINE__Var
PUBLIC	??_C@_1BG@IPNBPJPE@?$AAt?$AAa?$AAb?$AAl?$AAe?$AA?5?$AA?$CB?$AA?$DN?$AA?5?$AA0?$AA?$AA@ ; `string'
PUBLIC	??_C@_1FA@FCMNFGAM@?$AAt?$AAa?$AAb?$AAl?$AAe?$AA?9?$AA?$DO?$AAF?$AAl?$AAa?$AAg?$AAs?$AA?5?$AA?$CG?$AA?5?$AAI?$AAm?$AAG?$AAu?$AAi?$AAT?$AAa?$AAb?$AAl?$AAe?$AAF?$AAl?$AAa?$AAg?$AAs?$AA_?$AAH@ ; `string'
PUBLIC	??_C@_1GA@OFNPMLNE@?$AAc?$AAo?$AAl?$AAu?$AAm?$AAn?$AA_?$AAn?$AA?5?$AA?$DO?$AA?$DN?$AA?5?$AA0?$AA?5?$AA?$CG?$AA?$CG?$AA?5?$AAc?$AAo?$AAl?$AAu?$AAm?$AAn?$AA_?$AAn?$AA?5?$AA?$DM?$AA?5?$AAt?$AAa?$AAb?$AAl@ ; `string'
PUBLIC	?__LINE__Var@?0??TableGetColumnResizeID@ImGui@@YAIPEBUImGuiTable@@HH@Z@4JA ; `ImGui::TableGetColumnResizeID'::`1'::__LINE__Var
PUBLIC	?__LINE__Var@?0??TableSetBgColor@ImGui@@YAXHIH@Z@4JA ; `ImGui::TableSetBgColor'::`1'::__LINE__Var
PUBLIC	??_C@_1EE@NMABAIJJ@?$AAt?$AAa?$AAr?$AAg?$AAe?$AAt?$AA?5?$AA?$CB?$AA?$DN?$AA?5?$AAI?$AAm?$AAG?$AAu?$AAi?$AAT?$AAa?$AAb?$AAl?$AAe?$AAB?$AAg?$AAT?$AAa?$AAr?$AAg?$AAe?$AAt?$AA_?$AAN?$AAo?$AAn@ ; `string'
PUBLIC	??_C@_1BO@EGJMPMHM@?$AAc?$AAo?$AAl?$AAu?$AAm?$AAn?$AA_?$AAn?$AA?5?$AA?$DN?$AA?$DN?$AA?5?$AA?9?$AA1?$AA?$AA@ ; `string'
PUBLIC	?__LINE__Var@?0??TableBeginRow@ImGui@@YAXPEAUImGuiTable@@@Z@4JA ; `ImGui::TableBeginRow'::`1'::__LINE__Var
PUBLIC	??_C@_1CI@JLDNLAAM@?$AA?$CB?$AAt?$AAa?$AAb?$AAl?$AAe?$AA?9?$AA?$DO?$AAI?$AAs?$AAI?$AAn?$AAs?$AAi?$AAd?$AAe?$AAR?$AAo?$AAw?$AA?$AA@ ; `string'
PUBLIC	?__LINE__Var@?0??TableEndRow@ImGui@@YAXPEAUImGuiTable@@@Z@4JA ; `ImGui::TableEndRow'::`1'::__LINE__Var
PUBLIC	??_C@_1DK@GFLHACMC@?$AAw?$AAi?$AAn?$AAd?$AAo?$AAw?$AA?5?$AA?$DN?$AA?$DN?$AA?5?$AAt?$AAa?$AAb?$AAl?$AAe?$AA?9?$AA?$DO?$AAI?$AAn?$AAn?$AAe?$AAr?$AAW?$AAi?$AAn?$AAd?$AAo?$AAw?$AA?$AA@ ; `string'
PUBLIC	??_C@_1CG@HHNDIFPE@?$AAt?$AAa?$AAb?$AAl?$AAe?$AA?9?$AA?$DO?$AAI?$AAs?$AAI?$AAn?$AAs?$AAi?$AAd?$AAe?$AAR?$AAo?$AAw?$AA?$AA@ ; `string'
PUBLIC	??_C@_01DNKMNLPK@?$HM?$AA@			; `string'
PUBLIC	??_C@_1DO@BPCFJEPF@?$AAt?$AAa?$AAb?$AAl?$AAe?$AA?9?$AA?$DO?$AAI?$AAs?$AAU?$AAn?$AAf?$AAr?$AAo?$AAz?$AAe?$AAn?$AAR?$AAo?$AAw?$AAs?$AA?5?$AA?$DN?$AA?$DN?$AA?5?$AAf?$AAa?$AAl?$AAs?$AAe?$AA?$AA@ ; `string'
PUBLIC	??_C@_1JC@PCOAPGIF@?$AAt?$AAa?$AAb?$AAl?$AAe?$AA?9?$AA?$DO?$AAB?$AAg?$AA2?$AAC?$AAl?$AAi?$AAp?$AAR?$AAe?$AAc?$AAt?$AAF?$AAo?$AAr?$AAD?$AAr?$AAa?$AAw?$AAC?$AAm?$AAd?$AA?4?$AAM?$AAi?$AAn@ ; `string'
PUBLIC	?__LINE__Var@?0??TableSetColumnIndex@ImGui@@YA_NH@Z@4JA ; `ImGui::TableSetColumnIndex'::`1'::__LINE__Var
PUBLIC	??_C@_1EK@MBNMJGKK@?$AAc?$AAo?$AAl?$AAu?$AAm?$AAn?$AA_?$AAn?$AA?5?$AA?$DO?$AA?$DN?$AA?5?$AA0?$AA?5?$AA?$CG?$AA?$CG?$AA?5?$AAt?$AAa?$AAb?$AAl?$AAe?$AA?9?$AA?$DO?$AAC?$AAo?$AAl?$AAu?$AAm?$AAn?$AAs?$AAC@ ; `string'
PUBLIC	?__LINE__Var@?0??TableSetColumnWidth@ImGui@@YAXHM@Z@4JA ; `ImGui::TableSetColumnWidth'::`1'::__LINE__Var
PUBLIC	??_C@_1FK@MHBOMDGH@?$AAt?$AAa?$AAb?$AAl?$AAe?$AA?5?$AA?$CB?$AA?$DN?$AA?5?$AA0?$AA?5?$AA?$CG?$AA?$CG?$AA?5?$AAt?$AAa?$AAb?$AAl?$AAe?$AA?9?$AA?$DO?$AAI?$AAs?$AAL?$AAa?$AAy?$AAo?$AAu?$AAt?$AAL?$AAo?$AAc@ ; `string'
PUBLIC	??_C@_1DK@PGHMBBCD@?$AAt?$AAa?$AAb?$AAl?$AAe?$AA?9?$AA?$DO?$AAM?$AAi?$AAn?$AAC?$AAo?$AAl?$AAu?$AAm?$AAn?$AAW?$AAi?$AAd?$AAt?$AAh?$AA?5?$AA?$DO?$AA?5?$AA0?$AA?4?$AA0?$AAf?$AA?$AA@ ; `string'
PUBLIC	??_C@_1FO@DCOODALF@?$AAc?$AAo?$AAl?$AAu?$AAm?$AAn?$AA_?$AA0?$AA_?$AAw?$AAi?$AAd?$AAt?$AAh?$AA?5?$AA?$DO?$AA?5?$AA0?$AA?4?$AA0?$AAf?$AA?5?$AA?$CG?$AA?$CG?$AA?5?$AAc?$AAo?$AAl?$AAu?$AAm?$AAn?$AA_@ ; `string'
PUBLIC	?__LINE__Var@?0??TableUpdateColumnsWeightFromWidth@ImGui@@YAXPEAUImGuiTable@@@Z@4JA ; `ImGui::TableUpdateColumnsWeightFromWidth'::`1'::__LINE__Var
PUBLIC	??_C@_1JM@ELMLJHLO@?$AAt?$AAa?$AAb?$AAl?$AAe?$AA?9?$AA?$DO?$AAL?$AAe?$AAf?$AAt?$AAM?$AAo?$AAs?$AAt?$AAS?$AAt?$AAr?$AAe?$AAt?$AAc?$AAh?$AAe?$AAd?$AAC?$AAo?$AAl?$AAu?$AAm?$AAn?$AA?5?$AA?$CB@ ; `string'
PUBLIC	??_C@_1DK@MOAONJGL@?$AAc?$AAo?$AAl?$AAu?$AAm?$AAn?$AA?9?$AA?$DO?$AAS?$AAt?$AAr?$AAe?$AAt?$AAc?$AAh?$AAW?$AAe?$AAi?$AAg?$AAh?$AAt?$AA?5?$AA?$DO?$AA?5?$AA0?$AA?4?$AA0?$AAf?$AA?$AA@ ; `string'
PUBLIC	??_C@_1FM@OBNODAI@?$AAv?$AAi?$AAs?$AAi?$AAb?$AAl?$AAe?$AA_?$AAw?$AAe?$AAi?$AAg?$AAh?$AAt?$AA?5?$AA?$DO?$AA?5?$AA0?$AA?4?$AA0?$AAf?$AA?5?$AA?$CG?$AA?$CG?$AA?5?$AAv?$AAi?$AAs?$AAi?$AAb?$AAl?$AAe@ ; `string'
PUBLIC	?__LINE__Var@?0??TableSetupDrawChannels@ImGui@@YAXPEAUImGuiTable@@@Z@4JA ; `ImGui::TableSetupDrawChannels'::`1'::__LINE__Var
PUBLIC	??_C@_1GG@NCDBECJP@?$AAt?$AAa?$AAb?$AAl?$AAe?$AA?9?$AA?$DO?$AAB?$AAg?$AAC?$AAl?$AAi?$AAp?$AAR?$AAe?$AAc?$AAt?$AA?4?$AAM?$AAi?$AAn?$AA?4?$AAy?$AA?5?$AA?$DM?$AA?$DN?$AA?5?$AAt?$AAa?$AAb?$AAl?$AAe@ ; `string'
PUBLIC	?__LINE__Var@?0??TableMergeDrawChannels@ImGui@@YAXPEAUImGuiTable@@@Z@4JA ; `ImGui::TableMergeDrawChannels'::`1'::__LINE__Var
PUBLIC	??_C@_1DA@GEHLCBHG@?$AAs?$AAp?$AAl?$AAi?$AAt?$AAt?$AAe?$AAr?$AA?9?$AA?$DO?$AA_?$AAC?$AAu?$AAr?$AAr?$AAe?$AAn?$AAt?$AA?5?$AA?$DN?$AA?$DN?$AA?5?$AA0?$AA?$AA@ ; `string'
PUBLIC	??_C@_1DO@EEGFHBNA@?$AAc?$AAh?$AAa?$AAn?$AAn?$AAe?$AAl?$AA_?$AAn?$AAo?$AA?5?$AA?$DM?$AA?5?$AAm?$AAa?$AAx?$AA_?$AAd?$AAr?$AAa?$AAw?$AA_?$AAc?$AAh?$AAa?$AAn?$AAn?$AAe?$AAl?$AAs?$AA?$AA@ ; `string'
PUBLIC	??_C@_1LA@JABKDEHA@?$AAh?$AAa?$AAs?$AA_?$AAf?$AAr?$AAe?$AAe?$AAz?$AAe?$AA_?$AAv?$AA?5?$AA?$DN?$AA?$DN?$AA?5?$AAf?$AAa?$AAl?$AAs?$AAe?$AA?5?$AA?$HM?$AA?$HM?$AA?5?$AAt?$AAa?$AAb?$AAl?$AAe?$AA?9?$AA?$DO@ ; `string'
PUBLIC	??_C@_1MG@IJOOMOFE@?$AAc?$AAh?$AAa?$AAn?$AAn?$AAe?$AAl?$AA?9?$AA?$DO?$AA_?$AAC?$AAm?$AAd?$AAB?$AAu?$AAf?$AAf?$AAe?$AAr?$AA?4?$AAS?$AAi?$AAz?$AAe?$AA?5?$AA?$DN?$AA?$DN?$AA?5?$AA1?$AA?5?$AA?$CG?$AA?$CG@ ; `string'
PUBLIC	??_C@_1KG@FHCGPPO@?$AAd?$AAs?$AAt?$AA_?$AAt?$AAm?$AAp?$AA?5?$AA?$DN?$AA?$DN?$AA?5?$AAg?$AA?4?$AAD?$AAr?$AAa?$AAw?$AAC?$AAh?$AAa?$AAn?$AAn?$AAe?$AAl?$AAs?$AAT?$AAe?$AAm?$AAp?$AAM?$AAe?$AAr@ ; `string'
PUBLIC	?__LINE__Var@?0??TableGetSortSpecs@ImGui@@YAPEAUImGuiTableSortSpecs@@XZ@4JA ; `ImGui::TableGetSortSpecs'::`1'::__LINE__Var
PUBLIC	?__LINE__Var@?0??TableGetColumnAvailSortDirection@@YAHPEAUImGuiTableColumn@@H@Z@4JA ; `TableGetColumnAvailSortDirection'::`1'::__LINE__Var
PUBLIC	??_C@_1EK@EKGOAIAF@?$AAn?$AA?5?$AA?$DM?$AA?5?$AAc?$AAo?$AAl?$AAu?$AAm?$AAn?$AA?9?$AA?$DO?$AAS?$AAo?$AAr?$AAt?$AAD?$AAi?$AAr?$AAe?$AAc?$AAt?$AAi?$AAo?$AAn?$AAs?$AAA?$AAv?$AAa?$AAi?$AAl?$AAC@ ; `string'
PUBLIC	?__LINE__Var@?0??TableGetColumnNextSortDirection@ImGui@@YAHPEAUImGuiTableColumn@@@Z@4JA ; `ImGui::TableGetColumnNextSortDirection'::`1'::__LINE__Var
PUBLIC	??_C@_1EK@NEPNAPMF@?$AAc?$AAo?$AAl?$AAu?$AAm?$AAn?$AA?9?$AA?$DO?$AAS?$AAo?$AAr?$AAt?$AAD?$AAi?$AAr?$AAe?$AAc?$AAt?$AAi?$AAo?$AAn?$AAs?$AAA?$AAv?$AAa?$AAi?$AAl?$AAC?$AAo?$AAu?$AAn?$AAt@ ; `string'
PUBLIC	?__LINE__Var@?0??TableSetColumnSortDirection@ImGui@@YAXHH_N@Z@4JA ; `ImGui::TableSetColumnSortDirection'::`1'::__LINE__Var
PUBLIC	??_C@_1FE@KIEHIAAN@?$AAs?$AAo?$AAr?$AAt?$AA_?$AAd?$AAi?$AAr?$AAe?$AAc?$AAt?$AAi?$AAo?$AAn?$AA?5?$AA?$CB?$AA?$DN?$AA?5?$AAI?$AAm?$AAG?$AAu?$AAi?$AAS?$AAo?$AAr?$AAt?$AAD?$AAi?$AAr?$AAe?$AAc@ ; `string'
PUBLIC	?__LINE__Var@?0??TableSortSpecsSanitize@ImGui@@YAXPEAUImGuiTable@@@Z@4JA ; `ImGui::TableSortSpecsSanitize'::`1'::__LINE__Var
PUBLIC	??_C@_1FA@NLOFMGNH@?$AAt?$AAa?$AAb?$AAl?$AAe?$AA?9?$AA?$DO?$AAF?$AAl?$AAa?$AAg?$AAs?$AA?5?$AA?$CG?$AA?5?$AAI?$AAm?$AAG?$AAu?$AAi?$AAT?$AAa?$AAb?$AAl?$AAe?$AAF?$AAl?$AAa?$AAg?$AAs?$AA_?$AAS@ ; `string'
PUBLIC	??_C@_1GI@FLDFCCLG@?$AAs?$AAo?$AAr?$AAt?$AA_?$AAo?$AAr?$AAd?$AAe?$AAr?$AA_?$AAc?$AAo?$AAu?$AAn?$AAt?$AA?5?$AA?$DM?$AA?5?$AA?$CI?$AAi?$AAn?$AAt?$AA?$CJ?$AAs?$AAi?$AAz?$AAe?$AAo?$AAf?$AA?$CI?$AAs@ ; `string'
PUBLIC	??_C@_1EM@BCBBNGI@?$AAc?$AAo?$AAl?$AAu?$AAm?$AAn?$AA_?$AAw?$AAi?$AAt?$AAh?$AA_?$AAs?$AAm?$AAa?$AAl?$AAl?$AAe?$AAs?$AAt?$AA_?$AAs?$AAo?$AAr?$AAt?$AA_?$AAo?$AAr?$AAd?$AAe?$AAr?$AA?5@ ; `string'
PUBLIC	?__LINE__Var@?0??TableSortSpecsBuild@ImGui@@YAXPEAUImGuiTable@@@Z@4JA ; `ImGui::TableSortSpecsBuild'::`1'::__LINE__Var
PUBLIC	??_C@_1FE@KLCJNJLO@?$AAc?$AAo?$AAl?$AAu?$AAm?$AAn?$AA?9?$AA?$DO?$AAS?$AAo?$AAr?$AAt?$AAO?$AAr?$AAd?$AAe?$AAr?$AA?5?$AA?$DM?$AA?5?$AAt?$AAa?$AAb?$AAl?$AAe?$AA?9?$AA?$DO?$AAS?$AAo?$AAr?$AAt?$AAS@ ; `string'
PUBLIC	?__LINE__Var@?0??TableHeadersRow@ImGui@@YAXXZ@4JA ; `ImGui::TableHeadersRow'::`1'::__LINE__Var
PUBLIC	??_C@_0DD@NCKBBGOL@Need?5to?5call?5TableHeadersRow?$CI?$CJ?5a@ ; `string'
PUBLIC	??_C@_1IG@FPFBNANE@?$AAt?$AAa?$AAb?$AAl?$AAe?$AA?5?$AA?$CB?$AA?$DN?$AA?5?$AA0?$AA?5?$AA?$CG?$AA?$CG?$AA?5?$AA?$CC?$AAN?$AAe?$AAe?$AAd?$AA?5?$AAt?$AAo?$AA?5?$AAc?$AAa?$AAl?$AAl?$AA?5?$AAT?$AAa?$AAb?$AAl@ ; `string'
PUBLIC	?__LINE__Var@?0??TableHeader@ImGui@@YAXPEBD@Z@4JA ; `ImGui::TableHeader'::`1'::__LINE__Var
PUBLIC	??_C@_0CP@HLEIDDEE@Need?5to?5call?5TableHeader?$CI?$CJ?5after@ ; `string'
PUBLIC	??_C@_1HO@PDHKEBPE@?$AAt?$AAa?$AAb?$AAl?$AAe?$AA?5?$AA?$CB?$AA?$DN?$AA?5?$AA0?$AA?5?$AA?$CG?$AA?$CG?$AA?5?$AA?$CC?$AAN?$AAe?$AAe?$AAd?$AA?5?$AAt?$AAo?$AA?5?$AAc?$AAa?$AAl?$AAl?$AA?5?$AAT?$AAa?$AAb?$AAl@ ; `string'
PUBLIC	??_C@_1DG@CDIJLMHK@?$AAt?$AAa?$AAb?$AAl?$AAe?$AA?9?$AA?$DO?$AAC?$AAu?$AAr?$AAr?$AAe?$AAn?$AAt?$AAC?$AAo?$AAl?$AAu?$AAm?$AAn?$AA?5?$AA?$CB?$AA?$DN?$AA?5?$AA?9?$AA1?$AA?$AA@ ; `string'
PUBLIC	??_C@_02DPKJAMEF@?$CFd?$AA@			; `string'
PUBLIC	??_C@_04EBNJJJJI@?$CF?4?$CKs?$AA@		; `string'
PUBLIC	?__LINE__Var@?0??TableOpenContextMenu@ImGui@@YAXH@Z@4JA ; `ImGui::TableOpenContextMenu'::`1'::__LINE__Var
PUBLIC	??_C@_1GC@CPFLEHCP@?$AAc?$AAo?$AAl?$AAu?$AAm?$AAn?$AA_?$AAn?$AA?5?$AA?$DO?$AA?$DN?$AA?5?$AA?9?$AA1?$AA?5?$AA?$CG?$AA?$CG?$AA?5?$AAc?$AAo?$AAl?$AAu?$AAm?$AAn?$AA_?$AAn?$AA?5?$AA?$DM?$AA?5?$AAt?$AAa?$AAb@ ; `string'
PUBLIC	??_C@_0O@BMOANCPA@?$CD?$CDContextMenu?$AA@	; `string'
PUBLIC	??_C@_09MGFHLAFE@?$DMUnknown?$DO?$AA@		; `string'
PUBLIC	?__LINE__Var@?0??TableGetBoundSettings@ImGui@@YAPEAUImGuiTableSettings@@PEAUImGuiTable@@@Z@4JA ; `ImGui::TableGetBoundSettings'::`1'::__LINE__Var
PUBLIC	??_C@_1DE@KGKHJKNP@?$AAs?$AAe?$AAt?$AAt?$AAi?$AAn?$AAg?$AAs?$AA?9?$AA?$DO?$AAI?$AAD?$AA?5?$AA?$DN?$AA?$DN?$AA?5?$AAt?$AAa?$AAb?$AAl?$AAe?$AA?9?$AA?$DO?$AAI?$AAD?$AA?$AA@ ; `string'
PUBLIC	?__LINE__Var@?0??TableSaveSettings@ImGui@@YAXPEAUImGuiTable@@@Z@4JA ; `ImGui::TableSaveSettings'::`1'::__LINE__Var
PUBLIC	??_C@_1MK@NEOBPBEE@?$AAs?$AAe?$AAt?$AAt?$AAi?$AAn?$AAg?$AAs?$AA?9?$AA?$DO?$AAC?$AAo?$AAl?$AAu?$AAm?$AAn?$AAs?$AAC?$AAo?$AAu?$AAn?$AAt?$AA?5?$AA?$DN?$AA?$DN?$AA?5?$AAt?$AAa?$AAb?$AAl?$AAe?$AA?9@ ; `string'
PUBLIC	??_C@_09BDLBIGPI@0x?$CF08X?0?$CFd?$AA@		; `string'
PUBLIC	??_C@_0M@LAOOHBLO@RefScale?$DN?$CFf?$AA@	; `string'
PUBLIC	??_C@_0M@JOECNJOM@Column?5?$CFd?$CFn?$AA@	; `string'
PUBLIC	??_C@_0BA@KAIOJKEL@UserID?$DN0x?$CF08X?$CFn?$AA@ ; `string'
PUBLIC	??_C@_0L@LJLKPCDP@Width?$DN?$CFd?$CFn?$AA@	; `string'
PUBLIC	??_C@_0M@IJODOCHC@Weight?$DN?$CFf?$CFn?$AA@	; `string'
PUBLIC	??_C@_0N@EKALHFOF@Visible?$DN?$CFd?$CFn?$AA@	; `string'
PUBLIC	??_C@_0L@BHOFPJL@Order?$DN?$CFd?$CFn?$AA@	; `string'
PUBLIC	??_C@_0M@KGHCDDIO@Sort?$DN?$CFd?$CFc?$CFn?$AA@	; `string'
PUBLIC	??_C@_0BB@PGHPBJD@?$FL?$CFs?$FN?$FL0x?$CF08X?0?$CFd?$FN?6?$AA@ ; `string'
PUBLIC	??_C@_0N@NHEEPCEH@RefScale?$DN?$CFg?6?$AA@	; `string'
PUBLIC	??_C@_0M@JLNIJDCE@Column?5?$CF?92d?$AA@		; `string'
PUBLIC	??_C@_0N@PGBEGIHP@?5UserID?$DN?$CF08X?$AA@	; `string'
PUBLIC	??_C@_0N@MFKBBKPH@?5Weight?$DN?$CF?44f?$AA@	; `string'
PUBLIC	??_C@_09PBOBBCAP@?5Width?$DN?$CFd?$AA@		; `string'
PUBLIC	??_C@_0M@CIPDPODB@?5Visible?$DN?$CFd?$AA@	; `string'
PUBLIC	??_C@_09CFPCIBAG@?5Order?$DN?$CFd?$AA@		; `string'
PUBLIC	??_C@_0L@EAJILIBD@?5Sort?$DN?$CFd?$CFc?$AA@	; `string'
PUBLIC	??_C@_01EEMJAFIK@?6?$AA@			; `string'
PUBLIC	??_C@_05LFBINIGO@Table?$AA@			; `string'
PUBLIC	?__LINE__Var@?0??TableGcCompactTransientBuffers@ImGui@@YAXPEAUImGuiTable@@@Z@4JA ; `ImGui::TableGcCompactTransientBuffers'::`1'::__LINE__Var
PUBLIC	??_C@_1EA@HDPGNILG@?$AAt?$AAa?$AAb?$AAl?$AAe?$AA?9?$AA?$DO?$AAM?$AAe?$AAm?$AAo?$AAr?$AAy?$AAC?$AAo?$AAm?$AAp?$AAa?$AAc?$AAt?$AAe?$AAd?$AA?5?$AA?$DN?$AA?$DN?$AA?5?$AAf?$AAa?$AAl?$AAs?$AAe?$AA?$AA@ ; `string'
PUBLIC	??_C@_08CCPMLANI@FixedFit?$AA@			; `string'
PUBLIC	??_C@_09OOODJBFG@FixedSame?$AA@			; `string'
PUBLIC	??_C@_0M@IGAOBHEB@StretchProp?$AA@		; `string'
PUBLIC	??_C@_0M@LHDDKHJK@StretchSame?$AA@		; `string'
PUBLIC	??_C@_03HPADHAHE@N?1A?$AA@			; `string'
PUBLIC	??_C@_0M@MDILNFHC@?5?$CKInactive?$CK?$AA@	; `string'
PUBLIC	??_C@_0CF@DAHKPIHJ@Table?50x?$CF08X?5?$CI?$CFd?5columns?0?5in?5?8?$CFs@ ; `string'
PUBLIC	??_C@_02DKCKIIND@?$CFs?$AA@			; `string'
PUBLIC	??_C@_0EM@JLKLPOOK@?$CK?$CK?5?$CFd?5instances?5of?5same?5table?$CB?5S@ ; `string'
PUBLIC	??_C@_0P@MDFKNKGM@Clear?5settings?$AA@		; `string'
PUBLIC	??_C@_0DL@BMMMGOOI@OuterRect?3?5Pos?3?5?$CI?$CF?41f?0?$CF?41f?$CJ?5Size@ ; `string'
PUBLIC	??_C@_07IOPDKCEG@?5?$CIauto?$CJ?$AA@		; `string'
PUBLIC	??_C@_0EH@GODPECNO@ColumnsGivenWidth?3?5?$CF?41f?0?5Columns@ ; `string'
PUBLIC	??_C@_0EB@FOKPBOFF@CellPaddingX?3?5?$CF?41f?0?5CellSpacingX@ ; `string'
PUBLIC	??_C@_0CP@NOMNLPPG@HoveredColumnBody?3?5?$CFd?0?5HoveredCo@ ; `string'
PUBLIC	??_C@_0DL@PBPICJCB@ResizedColumn?3?5?$CFd?0?5ReorderColumn@ ; `string'
PUBLIC	??_C@_09BHNPHONE@NoResize?5?$AA@		; `string'
PUBLIC	??_C@_0M@IGDNFKMD@WidthFixed?5?$AA@		; `string'
PUBLIC	??_C@_0O@PEPBBILL@WidthStretch?5?$AA@		; `string'
PUBLIC	??_C@_06FEBPAKFP@?5?$CIAsc?$CJ?$AA@		; `string'
PUBLIC	??_C@_06PFKLCOBM@?5?$CIDes?$CJ?$AA@		; `string'
PUBLIC	??_C@_09LODDIFJL@?5?$CIFrozen?$CJ?$AA@		; `string'
PUBLIC	??_C@_0BHH@CNHMONCM@Column?5?$CFd?5order?5?$CFd?5?8?$CFs?8?3?5offset?5@ ; `string'
PUBLIC	??_C@_0BN@LNKMILO@Settings?50x?$CF08X?5?$CI?$CFd?5columns?$CJ?$AA@ ; `string'
PUBLIC	??_C@_0BC@LJHOAHJA@SaveFlags?3?50x?$CF08X?$AA@	; `string'
PUBLIC	??_C@_0BK@OLKPLDMA@ColumnsCount?3?5?$CFd?5?$CImax?5?$CFd?$CJ?$AA@ ; `string'
PUBLIC	??_C@_06ODJMJFLN@Weight?$AA@			; `string'
PUBLIC	??_C@_06PALFPBFG@Width?5?$AA@			; `string'
PUBLIC	??_C@_03OFHEPBNG@Asc?$AA@			; `string'
PUBLIC	??_C@_03IAMDMMHH@Des?$AA@			; `string'
PUBLIC	??_C@_03JMFMNIFM@?9?9?9?$AA@			; `string'
PUBLIC	??_C@_0EB@CNABLLAJ@Column?5?$CFd?5Order?5?$CFd?5SortOrder?5?$CFd?5@ ; `string'
PUBLIC	?__LINE__Var@?0??GetDraggedColumnOffset@@YAMPEAUImGuiOldColumns@@H@Z@4JA ; `GetDraggedColumnOffset'::`1'::__LINE__Var
PUBLIC	??_C@_1CC@HNMGCLDB@?$AAc?$AAo?$AAl?$AAu?$AAm?$AAn?$AA_?$AAi?$AAn?$AAd?$AAe?$AAx?$AA?5?$AA?$DO?$AA?5?$AA0?$AA?$AA@ ; `string'
PUBLIC	??_C@_1GE@CFLLPKGA@?$AAg?$AA?4?$AAA?$AAc?$AAt?$AAi?$AAv?$AAe?$AAI?$AAd?$AA?5?$AA?$DN?$AA?$DN?$AA?5?$AAc?$AAo?$AAl?$AAu?$AAm?$AAn?$AAs?$AA?9?$AA?$DO?$AAI?$AAD?$AA?5?$AA?$CL?$AA?5?$AAI?$AAm?$AAG?$AAu@ ; `string'
PUBLIC	?__LINE__Var@?0??GetColumnOffset@ImGui@@YAMH@Z@4JA ; `ImGui::GetColumnOffset'::`1'::__LINE__Var
PUBLIC	??_C@_1EK@FCGFMMCK@?$AAc?$AAo?$AAl?$AAu?$AAm?$AAn?$AA_?$AAi?$AAn?$AAd?$AAe?$AAx?$AA?5?$AA?$DM?$AA?5?$AAc?$AAo?$AAl?$AAu?$AAm?$AAn?$AAs?$AA?9?$AA?$DO?$AAC?$AAo?$AAl?$AAu?$AAm?$AAn?$AAs?$AA?4@ ; `string'
PUBLIC	?__LINE__Var@?0??SetColumnOffset@ImGui@@YAXHM@Z@4JA ; `ImGui::SetColumnOffset'::`1'::__LINE__Var
PUBLIC	??_C@_1BK@FLGDBJKG@?$AAc?$AAo?$AAl?$AAu?$AAm?$AAn?$AAs?$AA?5?$AA?$CB?$AA?$DN?$AA?5?$AA0?$AA?$AA@ ; `string'
PUBLIC	?__LINE__Var@?0??SetColumnWidth@ImGui@@YAXHM@Z@4JA ; `ImGui::SetColumnWidth'::`1'::__LINE__Var
PUBLIC	??_C@_07HIFEPIJN@columns?$AA@			; `string'
PUBLIC	?__LINE__Var@?0??BeginColumns@ImGui@@YAXPEBDHH@Z@4JA ; `ImGui::BeginColumns'::`1'::__LINE__Var
PUBLIC	??_C@_1CG@GDAJJGIO@?$AAc?$AAo?$AAl?$AAu?$AAm?$AAn?$AAs?$AA_?$AAc?$AAo?$AAu?$AAn?$AAt?$AA?5?$AA?$DO?$AA?$DN?$AA?5?$AA1?$AA?$AA@ ; `string'
PUBLIC	??_C@_1DO@BPFJENMI@?$AAw?$AAi?$AAn?$AAd?$AAo?$AAw?$AA?9?$AA?$DO?$AAD?$AAC?$AA?4?$AAC?$AAu?$AAr?$AAr?$AAe?$AAn?$AAt?$AAC?$AAo?$AAl?$AAu?$AAm?$AAn?$AAs?$AA?5?$AA?$DN?$AA?$DN?$AA?5?$AA0?$AA?$AA@ ; `string'
PUBLIC	??_C@_1CE@IJEAECLN@?$AAc?$AAo?$AAl?$AAu?$AAm?$AAn?$AAs?$AA?9?$AA?$DO?$AAI?$AAD?$AA?5?$AA?$DN?$AA?$DN?$AA?5?$AAi?$AAd?$AA?$AA@ ; `string'
PUBLIC	?__LINE__Var@?0??NextColumn@ImGui@@YAXXZ@4JA	; `ImGui::NextColumn'::`1'::__LINE__Var
PUBLIC	??_C@_1CM@HCFAHNAF@?$AAc?$AAo?$AAl?$AAu?$AAm?$AAn?$AAs?$AA?9?$AA?$DO?$AAC?$AAu?$AAr?$AAr?$AAe?$AAn?$AAt?$AA?5?$AA?$DN?$AA?$DN?$AA?5?$AA0?$AA?$AA@ ; `string'
PUBLIC	?__LINE__Var@?0??EndColumns@ImGui@@YAXXZ@4JA	; `ImGui::EndColumns'::`1'::__LINE__Var
PUBLIC	?__LINE__Var@?0??Columns@ImGui@@YAXHPEBD_N@Z@4JA ; `ImGui::Columns'::`1'::__LINE__Var
PUBLIC	??_C@_1FE@GEHGFLGL@?$AAn?$AA?5?$AA?$DO?$AA?$DN?$AA?5?$AA0?$AA?5?$AA?$CG?$AA?$CG?$AA?5?$AAn?$AA?5?$AA?$DM?$AA?5?$AAC?$AAH?$AAU?$AAN?$AAK?$AAS?$AA?5?$AA?$CG?$AA?$CG?$AA?5?$AAC?$AAu?$AAr?$AAr?$AAI?$AAd?$AAx?$AA?5@ ; `string'
PUBLIC	??_C@_1DG@BODLFGJA@?$AAn?$AA?5?$AA?$DN?$AA?$DN?$AA?5?$AAC?$AAu?$AAr?$AAr?$AAI?$AAd?$AAx?$AA?5?$AA?$CG?$AA?$CG?$AA?5?$AAn?$AA?5?$AA?$DM?$AA?5?$AAC?$AAH?$AAU?$AAN?$AAK?$AAS?$AA?$AA@ ; `string'
PUBLIC	??_C@_1CG@GPMNJCJ@?$AAi?$AA?5?$AA?$DO?$AA?$DN?$AA?5?$AA0?$AA?5?$AA?$CG?$AA?$CG?$AA?5?$AAi?$AA?5?$AA?$DM?$AA?5?$AAS?$AAi?$AAz?$AAe?$AA?$AA@ ; `string'
PUBLIC	??_C@_1DC@DHFOGPCD@?$AAp?$AA?5?$AA?$DO?$AA?$DN?$AA?5?$AAD?$AAa?$AAt?$AAa?$AA?5?$AA?$CG?$AA?$CG?$AA?5?$AAp?$AA?5?$AA?$DM?$AA?5?$AAD?$AAa?$AAt?$AAa?$AAE?$AAn?$AAd?$AA?$AA@ ; `string'
PUBLIC	??_C@_1DG@OANBFKML@?$AAi?$AAt?$AA?5?$AA?$DO?$AA?$DN?$AA?5?$AAD?$AAa?$AAt?$AAa?$AA?5?$AA?$CG?$AA?$CG?$AA?5?$AAi?$AAt?$AA?5?$AA?$DM?$AA?5?$AAD?$AAa?$AAt?$AAa?$AAE?$AAn?$AAd?$AA?$AA@ ; `string'
PUBLIC	??_C@_1BC@KCECIPDP@?$AAS?$AAi?$AAz?$AAe?$AA?5?$AA?$DO?$AA?5?$AA0?$AA?$AA@ ; `string'
PUBLIC	??_C@_1DG@EPOMENA@?$AAo?$AAf?$AAf?$AA?5?$AA?$DO?$AA?$DN?$AA?5?$AA4?$AA?5?$AA?$CG?$AA?$CG?$AA?5?$AAo?$AAf?$AAf?$AA?5?$AA?$DM?$AA?5?$AAB?$AAu?$AAf?$AA?4?$AAS?$AAi?$AAz?$AAe?$AA?$AA@ ; `string'
PUBLIC	??_C@_1DE@BDDBABLK@?$AAp?$AA?5?$AA?$DO?$AA?$DN?$AA?5?$AAb?$AAe?$AAg?$AAi?$AAn?$AA?$CI?$AA?$CJ?$AA?5?$AA?$CG?$AA?$CG?$AA?5?$AAp?$AA?5?$AA?$DM?$AA?5?$AAe?$AAn?$AAd?$AA?$CI?$AA?$CJ?$AA?$AA@ ; `string'
PUBLIC	??_C@_1BE@OEELIPPM@?$AAp?$AA?5?$AA?$DM?$AA?5?$AAe?$AAn?$AAd?$AA?$CI?$AA?$CJ?$AA?$AA@ ; `string'
PUBLIC	??_C@_1FC@BIEMKEOL@?$AAp?$AA?5?$AA?$DO?$AA?$DN?$AA?5?$AAB?$AAu?$AAf?$AA?4?$AAD?$AAa?$AAt?$AAa?$AA?5?$AA?$CG?$AA?$CG?$AA?5?$AAp?$AA?5?$AA?$DM?$AA?5?$AAB?$AAu?$AAf?$AA?4?$AAD?$AAa?$AAt?$AAa?$AA?5?$AA?$CL?$AA?5@ ; `string'
PUBLIC	__real@00000000
PUBLIC	__real@00800000
PUBLIC	__real@3c23d70a
PUBLIC	__real@3d75c28f
PUBLIC	__real@3f000000
PUBLIC	__real@3f266666
PUBLIC	__real@3f333333
PUBLIC	__real@3f800000
PUBLIC	__real@40000000
PUBLIC	__real@40800000
PUBLIC	__real@42c80000
PUBLIC	__real@7f7fffff
PUBLIC	__real@bf800000
PUBLIC	__real@ff7fffff
EXTRN	??3@YAXPEAX_K@Z:PROC				; operator delete
EXTRN	memcmp:PROC
EXTRN	memcpy:PROC
EXTRN	memset:PROC
EXTRN	strlen:PROC
EXTRN	__imp__wassert:PROC
EXTRN	?GetStyle@ImGui@@YAAEAUImGuiStyle@@XZ:PROC	; ImGui::GetStyle
EXTRN	?EndChild@ImGui@@YAXXZ:PROC			; ImGui::EndChild
EXTRN	?SetNextWindowContentSize@ImGui@@YAXAEBUImVec2@@@Z:PROC ; ImGui::SetNextWindowContentSize
EXTRN	?SetNextWindowScroll@ImGui@@YAXAEBUImVec2@@@Z:PROC ; ImGui::SetNextWindowScroll
EXTRN	?GetContentRegionAvail@ImGui@@YA?AUImVec2@@XZ:PROC ; ImGui::GetContentRegionAvail
EXTRN	?PushStyleColor@ImGui@@YAXHI@Z:PROC		; ImGui::PushStyleColor
EXTRN	?PushStyleColor@ImGui@@YAXHAEBUImVec4@@@Z:PROC	; ImGui::PushStyleColor
EXTRN	?PopStyleColor@ImGui@@YAXH@Z:PROC		; ImGui::PopStyleColor
EXTRN	?PushItemWidth@ImGui@@YAXM@Z:PROC		; ImGui::PushItemWidth
EXTRN	?PopItemWidth@ImGui@@YAXXZ:PROC			; ImGui::PopItemWidth
EXTRN	?GetColorU32@ImGui@@YAIHM@Z:PROC		; ImGui::GetColorU32
EXTRN	?GetStyleColorVec4@ImGui@@YAAEBUImVec4@@H@Z:PROC ; ImGui::GetStyleColorVec4
EXTRN	?Separator@ImGui@@YAXXZ:PROC			; ImGui::Separator
EXTRN	?GetCursorScreenPos@ImGui@@YA?AUImVec2@@XZ:PROC	; ImGui::GetCursorScreenPos
EXTRN	?GetTextLineHeight@ImGui@@YAMXZ:PROC		; ImGui::GetTextLineHeight
EXTRN	?PushID@ImGui@@YAXH@Z:PROC			; ImGui::PushID
EXTRN	?PopID@ImGui@@YAXXZ:PROC			; ImGui::PopID
EXTRN	?GetID@ImGui@@YAIPEBD@Z:PROC			; ImGui::GetID
EXTRN	?Text@ImGui@@YAXPEBDZZ:PROC			; ImGui::Text
EXTRN	?BulletText@ImGui@@YAXPEBDZZ:PROC		; ImGui::BulletText
EXTRN	?SmallButton@ImGui@@YA_NPEBD@Z:PROC		; ImGui::SmallButton
EXTRN	?Bullet@ImGui@@YAXXZ:PROC			; ImGui::Bullet
EXTRN	?TreeNode@ImGui@@YA_NPEBXPEBDZZ:PROC		; ImGui::TreeNode
EXTRN	?TreePop@ImGui@@YAXXZ:PROC			; ImGui::TreePop
EXTRN	?Selectable@ImGui@@YA_NPEBD_NHAEBUImVec2@@@Z:PROC ; ImGui::Selectable
EXTRN	?MenuItem@ImGui@@YA_NPEBD0_N1@Z:PROC		; ImGui::MenuItem
EXTRN	?SetTooltip@ImGui@@YAXPEBDZZ:PROC		; ImGui::SetTooltip
EXTRN	?EndPopup@ImGui@@YAXXZ:PROC			; ImGui::EndPopup
EXTRN	?PushClipRect@ImGui@@YAXAEBUImVec2@@0_N@Z:PROC	; ImGui::PushClipRect
EXTRN	?PopClipRect@ImGui@@YAXXZ:PROC			; ImGui::PopClipRect
EXTRN	?IsItemHovered@ImGui@@YA_NH@Z:PROC		; ImGui::IsItemHovered
EXTRN	?IsItemVisible@ImGui@@YA_NXZ:PROC		; ImGui::IsItemVisible
EXTRN	?IsAnyItemHovered@ImGui@@YA_NXZ:PROC		; ImGui::IsAnyItemHovered
EXTRN	?GetItemRectMin@ImGui@@YA?AUImVec2@@XZ:PROC	; ImGui::GetItemRectMin
EXTRN	?GetItemRectMax@ImGui@@YA?AUImVec2@@XZ:PROC	; ImGui::GetItemRectMax
EXTRN	?SetItemAllowOverlap@ImGui@@YAXXZ:PROC		; ImGui::SetItemAllowOverlap
EXTRN	?GetForegroundDrawList@ImGui@@YAPEAUImDrawList@@XZ:PROC ; ImGui::GetForegroundDrawList
EXTRN	?GetFrameCount@ImGui@@YAHXZ:PROC		; ImGui::GetFrameCount
EXTRN	?CalcTextSize@ImGui@@YA?AUImVec2@@PEBD0_NM@Z:PROC ; ImGui::CalcTextSize
EXTRN	?IsMouseReleased@ImGui@@YA_NH@Z:PROC		; ImGui::IsMouseReleased
EXTRN	?IsMouseDoubleClicked@ImGui@@YA_NH@Z:PROC	; ImGui::IsMouseDoubleClicked
EXTRN	?GetMousePos@ImGui@@YA?AUImVec2@@XZ:PROC	; ImGui::GetMousePos
EXTRN	?IsMouseDragging@ImGui@@YA_NHM@Z:PROC		; ImGui::IsMouseDragging
EXTRN	?SetMouseCursor@ImGui@@YAXH@Z:PROC		; ImGui::SetMouseCursor
EXTRN	?MemAlloc@ImGui@@YAPEAX_K@Z:PROC		; ImGui::MemAlloc
EXTRN	?MemFree@ImGui@@YAXPEAX@Z:PROC			; ImGui::MemFree
EXTRN	?append@ImGuiTextBuffer@@QEAAXPEBD0@Z:PROC	; ImGuiTextBuffer::append
EXTRN	?appendf@ImGuiTextBuffer@@QEAAXPEBDZZ:PROC	; ImGuiTextBuffer::appendf
EXTRN	?GetInt@ImGuiStorage@@QEBAHIH@Z:PROC		; ImGuiStorage::GetInt
EXTRN	?SetInt@ImGuiStorage@@QEAAXIH@Z:PROC		; ImGuiStorage::SetInt
EXTRN	?GetIntRef@ImGuiStorage@@QEAAPEAHIH@Z:PROC	; ImGuiStorage::GetIntRef
EXTRN	?ClearFreeMemory@ImDrawListSplitter@@QEAAXXZ:PROC ; ImDrawListSplitter::ClearFreeMemory
EXTRN	?Split@ImDrawListSplitter@@QEAAXPEAUImDrawList@@H@Z:PROC ; ImDrawListSplitter::Split
EXTRN	?Merge@ImDrawListSplitter@@QEAAXPEAUImDrawList@@@Z:PROC ; ImDrawListSplitter::Merge
EXTRN	?SetCurrentChannel@ImDrawListSplitter@@QEAAXPEAUImDrawList@@H@Z:PROC ; ImDrawListSplitter::SetCurrentChannel
EXTRN	?PushClipRect@ImDrawList@@QEAAXAEBUImVec2@@0_N@Z:PROC ; ImDrawList::PushClipRect
EXTRN	?PopClipRect@ImDrawList@@QEAAXXZ:PROC		; ImDrawList::PopClipRect
EXTRN	?AddLine@ImDrawList@@QEAAXAEBUImVec2@@0IM@Z:PROC ; ImDrawList::AddLine
EXTRN	?AddRect@ImDrawList@@QEAAXAEBUImVec2@@0IMHM@Z:PROC ; ImDrawList::AddRect
EXTRN	?AddRectFilled@ImDrawList@@QEAAXAEBUImVec2@@0IMH@Z:PROC ; ImDrawList::AddRectFilled
EXTRN	__imp___stdio_common_vsscanf:PROC
EXTRN	?ImHashStr@@YAIPEBD_KI@Z:PROC			; ImHashStr
EXTRN	?ImStrSkipBlank@@YAPEBDPEBD@Z:PROC		; ImStrSkipBlank
EXTRN	?ImFormatString@@YAHPEAD_KPEBDZZ:PROC		; ImFormatString
EXTRN	?GetID@ImGuiWindow@@QEAAIPEBD0@Z:PROC		; ImGuiWindow::GetID
EXTRN	?MarkIniSettingsDirty@ImGui@@YAXXZ:PROC		; ImGui::MarkIniSettingsDirty
EXTRN	?AddSettingsHandler@ImGui@@YAXPEBUImGuiSettingsHandler@@@Z:PROC ; ImGui::AddSettingsHandler
EXTRN	?SetScrollFromPosX@ImGui@@YAXPEAUImGuiWindow@@MM@Z:PROC ; ImGui::SetScrollFromPosX
EXTRN	?ClearActiveID@ImGui@@YAXXZ:PROC		; ImGui::ClearActiveID
EXTRN	?PushOverrideID@ImGui@@YAXI@Z:PROC		; ImGui::PushOverrideID
EXTRN	?ItemSize@ImGui@@YAXAEBUImVec2@@M@Z:PROC	; ImGui::ItemSize
EXTRN	?ItemAdd@ImGui@@YA_NAEBUImRect@@IPEBU2@H@Z:PROC	; ImGui::ItemAdd
EXTRN	?ItemHoverable@ImGui@@YA_NAEBUImRect@@I@Z:PROC	; ImGui::ItemHoverable
EXTRN	?IsClippedEx@ImGui@@YA_NAEBUImRect@@I@Z:PROC	; ImGui::IsClippedEx
EXTRN	?CalcItemSize@ImGui@@YA?AUImVec2@@U2@MM@Z:PROC	; ImGui::CalcItemSize
EXTRN	?PushItemFlag@ImGui@@YAXH_N@Z:PROC		; ImGui::PushItemFlag
EXTRN	?PopItemFlag@ImGui@@YAXXZ:PROC			; ImGui::PopItemFlag
EXTRN	?LogRenderedText@ImGui@@YAXPEBUImVec2@@PEBD1@Z:PROC ; ImGui::LogRenderedText
EXTRN	?BeginChildEx@ImGui@@YA_NPEBDIAEBUImVec2@@_NH@Z:PROC ; ImGui::BeginChildEx
EXTRN	?OpenPopupEx@ImGui@@YAXIH@Z:PROC		; ImGui::OpenPopupEx
EXTRN	?BeginPopupEx@ImGui@@YA_NIH@Z:PROC		; ImGui::BeginPopupEx
EXTRN	?RenderText@ImGui@@YAXUImVec2@@PEBD1_N@Z:PROC	; ImGui::RenderText
EXTRN	?RenderTextEllipsis@ImGui@@YAXPEAUImDrawList@@AEBUImVec2@@1MMPEBD2PEBU3@@Z:PROC ; ImGui::RenderTextEllipsis
EXTRN	?RenderNavHighlight@ImGui@@YAXAEBUImRect@@IH@Z:PROC ; ImGui::RenderNavHighlight
EXTRN	?FindRenderedTextEnd@ImGui@@YAPEBDPEBD0@Z:PROC	; ImGui::FindRenderedTextEnd
EXTRN	?RenderArrow@ImGui@@YAXPEAUImDrawList@@UImVec2@@IHM@Z:PROC ; ImGui::RenderArrow
EXTRN	?ButtonBehavior@ImGui@@YA_NAEBUImRect@@IPEA_N1H@Z:PROC ; ImGui::ButtonBehavior
EXTRN	?ErrorCheckUsingSetCursorPosToExtendParentBoundaries@ImGui@@YAXXZ:PROC ; ImGui::ErrorCheckUsingSetCursorPosToExtendParentBoundaries
EXTRN	_RTC_CheckStackVars:PROC
EXTRN	_RTC_InitBase:PROC
EXTRN	_RTC_Shutdown:PROC
EXTRN	__CxxFrameHandler3:PROC
EXTRN	__GSHandlerCheck:PROC
EXTRN	__GSHandlerCheck_EH:PROC
EXTRN	__security_check_cookie:PROC
EXTRN	?GImGui@@3PEAUImGuiContext@@EA:QWORD		; GImGui
EXTRN	__security_cookie:QWORD
EXTRN	_fltused:DWORD
;	COMDAT ?_OptionsStorage@?1??__local_stdio_scanf_options@@9@4_KA
_BSS	SEGMENT
?_OptionsStorage@?1??__local_stdio_scanf_options@@9@4_KA DQ 01H DUP (?) ; `__local_stdio_scanf_options'::`2'::_OptionsStorage
_BSS	ENDS
;	COMDAT pdata
pdata	SEGMENT
$pdata$??_H@YAXPEAX_K1P6APEAX0@Z@Z DD imagerel $LN7
	DD	imagerel $LN7+181
	DD	imagerel $unwind$??_H@YAXPEAX_K1P6APEAX0@Z@Z
pdata	ENDS
;	COMDAT pdata
pdata	SEGMENT
$pdata$??0ImVec2@@QEAA@XZ DD imagerel $LN3
	DD	imagerel $LN3+46
	DD	imagerel $unwind$??0ImVec2@@QEAA@XZ
pdata	ENDS
;	COMDAT pdata
pdata	SEGMENT
$pdata$??0ImVec2@@QEAA@MM@Z DD imagerel $LN3
	DD	imagerel $LN3+62
	DD	imagerel $unwind$??0ImVec2@@QEAA@MM@Z
pdata	ENDS
;	COMDAT pdata
pdata	SEGMENT
$pdata$??0ImVec4@@QEAA@MMMM@Z DD imagerel $LN3
	DD	imagerel $LN3+96
	DD	imagerel $unwind$??0ImVec4@@QEAA@MMMM@Z
pdata	ENDS
;	COMDAT pdata
pdata	SEGMENT
$pdata$?BeginTable@ImGui@@YA_NPEBDHHAEBUImVec2@@M@Z DD imagerel $LN3
	DD	imagerel $LN3+136
	DD	imagerel $unwind$?BeginTable@ImGui@@YA_NPEBDHHAEBUImVec2@@M@Z
pdata	ENDS
;	COMDAT pdata
pdata	SEGMENT
$pdata$?EndTable@ImGui@@YAXXZ DD imagerel $LN68
	DD	imagerel $LN68+4111
	DD	imagerel $unwind$?EndTable@ImGui@@YAXXZ
pdata	ENDS
;	COMDAT pdata
pdata	SEGMENT
$pdata$?TableNextRow@ImGui@@YAXHM@Z DD imagerel $LN5
	DD	imagerel $LN5+372
	DD	imagerel $unwind$?TableNextRow@ImGui@@YAXHM@Z
pdata	ENDS
;	COMDAT pdata
pdata	SEGMENT
$pdata$?TableNextColumn@ImGui@@YA_NXZ DD imagerel $LN7
	DD	imagerel $LN7+199
	DD	imagerel $unwind$?TableNextColumn@ImGui@@YA_NXZ
pdata	ENDS
;	COMDAT pdata
pdata	SEGMENT
$pdata$?TableSetColumnIndex@ImGui@@YA_NH@Z DD imagerel $LN8
	DD	imagerel $LN8+218
	DD	imagerel $unwind$?TableSetColumnIndex@ImGui@@YA_NH@Z
pdata	ENDS
;	COMDAT pdata
pdata	SEGMENT
$pdata$?TableSetupColumn@ImGui@@YAXPEBDHMI@Z DD imagerel $LN30
	DD	imagerel $LN30+1138
	DD	imagerel $unwind$?TableSetupColumn@ImGui@@YAXPEBDHMI@Z
pdata	ENDS
;	COMDAT pdata
pdata	SEGMENT
$pdata$?TableSetupScrollFreeze@ImGui@@YAXHH@Z DD imagerel $LN27
	DD	imagerel $LN27+902
	DD	imagerel $unwind$?TableSetupScrollFreeze@ImGui@@YAXHH@Z
pdata	ENDS
;	COMDAT pdata
pdata	SEGMENT
$pdata$?TableHeadersRow@ImGui@@YAXXZ DD imagerel $LN15
	DD	imagerel $LN15+537
	DD	imagerel $unwind$?TableHeadersRow@ImGui@@YAXXZ
pdata	ENDS
;	COMDAT pdata
pdata	SEGMENT
$pdata$?TableHeader@ImGui@@YAXPEBD@Z DD imagerel $LN54
	DD	imagerel $LN54+3055
	DD	imagerel $unwind$?TableHeader@ImGui@@YAXPEBD@Z
pdata	ENDS
;	COMDAT pdata
pdata	SEGMENT
$pdata$?TableGetSortSpecs@ImGui@@YAPEAUImGuiTableSortSpecs@@XZ DD imagerel $LN6
	DD	imagerel $LN6+168
	DD	imagerel $unwind$?TableGetSortSpecs@ImGui@@YAPEAUImGuiTableSortSpecs@@XZ
pdata	ENDS
;	COMDAT pdata
pdata	SEGMENT
$pdata$?TableGetColumnCount@ImGui@@YAHXZ DD imagerel $LN5
	DD	imagerel $LN5+102
	DD	imagerel $unwind$?TableGetColumnCount@ImGui@@YAHXZ
pdata	ENDS
;	COMDAT pdata
pdata	SEGMENT
$pdata$?TableGetColumnIndex@ImGui@@YAHXZ DD imagerel $LN4
	DD	imagerel $LN4+82
	DD	imagerel $unwind$?TableGetColumnIndex@ImGui@@YAHXZ
pdata	ENDS
;	COMDAT pdata
pdata	SEGMENT
$pdata$?TableGetRowIndex@ImGui@@YAHXZ DD imagerel $LN4
	DD	imagerel $LN4+82
	DD	imagerel $unwind$?TableGetRowIndex@ImGui@@YAHXZ
pdata	ENDS
;	COMDAT pdata
pdata	SEGMENT
$pdata$?TableGetColumnName@ImGui@@YAPEBDH@Z DD imagerel $LN5
	DD	imagerel $LN5+124
	DD	imagerel $unwind$?TableGetColumnName@ImGui@@YAPEBDH@Z
pdata	ENDS
;	COMDAT pdata
pdata	SEGMENT
$pdata$?TableGetColumnFlags@ImGui@@YAHH@Z DD imagerel $LN8
	DD	imagerel $LN8+197
	DD	imagerel $unwind$?TableGetColumnFlags@ImGui@@YAHH@Z
pdata	ENDS
;	COMDAT pdata
pdata	SEGMENT
$pdata$?TableSetColumnEnabled@ImGui@@YAXH_N@Z DD imagerel $LN9
	DD	imagerel $LN9+301
	DD	imagerel $unwind$?TableSetColumnEnabled@ImGui@@YAXH_N@Z
pdata	ENDS
;	COMDAT pdata
pdata	SEGMENT
$pdata$?TableSetBgColor@ImGui@@YAXHIH@Z DD imagerel $LN20
	DD	imagerel $LN20+636
	DD	imagerel $unwind$?TableSetBgColor@ImGui@@YAXHIH@Z
pdata	ENDS
;	COMDAT pdata
pdata	SEGMENT
$pdata$?Columns@ImGui@@YAXHPEBD_N@Z DD imagerel $LN9
	DD	imagerel $LN9+248
	DD	imagerel $unwind$?Columns@ImGui@@YAXHPEBD_N@Z
pdata	ENDS
;	COMDAT pdata
pdata	SEGMENT
$pdata$?NextColumn@ImGui@@YAXXZ DD imagerel $LN10
	DD	imagerel $LN10+787
	DD	imagerel $unwind$?NextColumn@ImGui@@YAXXZ
pdata	ENDS
;	COMDAT pdata
pdata	SEGMENT
$pdata$?GetColumnIndex@ImGui@@YAHXZ DD imagerel $LN5
	DD	imagerel $LN5+101
	DD	imagerel $unwind$?GetColumnIndex@ImGui@@YAHXZ
pdata	ENDS
;	COMDAT pdata
pdata	SEGMENT
$pdata$?GetColumnWidth@ImGui@@YAMH@Z DD imagerel $LN5
	DD	imagerel $LN5+214
	DD	imagerel $unwind$?GetColumnWidth@ImGui@@YAMH@Z
pdata	ENDS
;	COMDAT pdata
pdata	SEGMENT
$pdata$?SetColumnWidth@ImGui@@YAXHM@Z DD imagerel $LN5
	DD	imagerel $LN5+180
	DD	imagerel $unwind$?SetColumnWidth@ImGui@@YAXHM@Z
pdata	ENDS
;	COMDAT pdata
pdata	SEGMENT
$pdata$?GetColumnOffset@ImGui@@YAMH@Z DD imagerel $LN6
	DD	imagerel $LN6+229
	DD	imagerel $unwind$?GetColumnOffset@ImGui@@YAMH@Z
pdata	ENDS
;	COMDAT pdata
pdata	SEGMENT
$pdata$?SetColumnOffset@ImGui@@YAXHM@Z DD imagerel $LN12
	DD	imagerel $LN12+564
	DD	imagerel $unwind$?SetColumnOffset@ImGui@@YAXHM@Z
pdata	ENDS
;	COMDAT pdata
pdata	SEGMENT
$pdata$?GetColumnsCount@ImGui@@YAHXZ DD imagerel $LN5
	DD	imagerel $LN5+101
	DD	imagerel $unwind$?GetColumnsCount@ImGui@@YAHXZ
pdata	ENDS
;	COMDAT pdata
pdata	SEGMENT
$pdata$??2@YAPEAX_KUImNewWrapper@@PEAX@Z DD imagerel $LN3
	DD	imagerel $LN3+66
	DD	imagerel $unwind$??2@YAPEAX_KUImNewWrapper@@PEAX@Z
pdata	ENDS
;	COMDAT pdata
pdata	SEGMENT
$pdata$??3@YAXPEAXUImNewWrapper@@0@Z DD imagerel $LN3
	DD	imagerel $LN3+59
	DD	imagerel $unwind$??3@YAXPEAXUImNewWrapper@@0@Z
pdata	ENDS
;	COMDAT pdata
pdata	SEGMENT
$pdata$??0ImGuiTableColumnSortSpecs@@QEAA@XZ DD imagerel $LN3
	DD	imagerel $LN3+79
	DD	imagerel $unwind$??0ImGuiTableColumnSortSpecs@@QEAA@XZ
pdata	ENDS
;	COMDAT pdata
pdata	SEGMENT
$pdata$??0ImGuiTableSortSpecs@@QEAA@XZ DD imagerel $LN3
	DD	imagerel $LN3+79
	DD	imagerel $unwind$??0ImGuiTableSortSpecs@@QEAA@XZ
pdata	ENDS
;	COMDAT pdata
pdata	SEGMENT
$pdata$??0?$ImVector@D@@QEAA@XZ DD imagerel $LN3
	DD	imagerel $LN3+99
	DD	imagerel $unwind$??0?$ImVector@D@@QEAA@XZ
pdata	ENDS
;	COMDAT pdata
pdata	SEGMENT
$pdata$??1?$ImVector@D@@QEAA@XZ DD imagerel $LN4
	DD	imagerel $LN4+94
	DD	imagerel $unwind$??1?$ImVector@D@@QEAA@XZ
pdata	ENDS
;	COMDAT pdata
pdata	SEGMENT
$pdata$?clear@?$ImVector@D@@QEAAXXZ DD imagerel $LN4
	DD	imagerel $LN4+124
	DD	imagerel $unwind$?clear@?$ImVector@D@@QEAAXXZ
pdata	ENDS
;	COMDAT pdata
pdata	SEGMENT
$pdata$??A?$ImVector@D@@QEBAAEBDH@Z DD imagerel $LN5
	DD	imagerel $LN5+134
	DD	imagerel $unwind$??A?$ImVector@D@@QEBAAEBDH@Z
pdata	ENDS
;	COMDAT pdata
pdata	SEGMENT
$pdata$?swap@?$ImVector@D@@QEAAXAEAU1@@Z DD imagerel $LN3
	DD	imagerel $LN3+195
	DD	imagerel $unwind$?swap@?$ImVector@D@@QEAAXAEAU1@@Z
pdata	ENDS
;	COMDAT pdata
pdata	SEGMENT
$pdata$?_grow_capacity@?$ImVector@D@@QEBAHH@Z DD imagerel $LN7
	DD	imagerel $LN7+159
	DD	imagerel $unwind$?_grow_capacity@?$ImVector@D@@QEBAHH@Z
pdata	ENDS
;	COMDAT pdata
pdata	SEGMENT
$pdata$?resize@?$ImVector@D@@QEAAXH@Z DD imagerel $LN4
	DD	imagerel $LN4+121
	DD	imagerel $unwind$?resize@?$ImVector@D@@QEAAXH@Z
pdata	ENDS
;	COMDAT pdata
pdata	SEGMENT
$pdata$?reserve@?$ImVector@D@@QEAAXH@Z DD imagerel $LN5
	DD	imagerel $LN5+189
	DD	imagerel $unwind$?reserve@?$ImVector@D@@QEAAXH@Z
pdata	ENDS
;	COMDAT pdata
pdata	SEGMENT
$pdata$??0ImGuiTextBuffer@@QEAA@XZ DD imagerel $LN4
	DD	imagerel $LN4+74
	DD	imagerel $unwind$??0ImGuiTextBuffer@@QEAA@XZ
pdata	ENDS
;	COMDAT pdata
pdata	SEGMENT
$pdata$?size@ImGuiTextBuffer@@QEBAHXZ DD imagerel $LN5
	DD	imagerel $LN5+97
	DD	imagerel $unwind$?size@ImGuiTextBuffer@@QEBAHXZ
pdata	ENDS
;	COMDAT pdata
pdata	SEGMENT
$pdata$?clear@ImGuiTextBuffer@@QEAAXXZ DD imagerel $LN3
	DD	imagerel $LN3+67
	DD	imagerel $unwind$?clear@ImGuiTextBuffer@@QEAAXXZ
pdata	ENDS
;	COMDAT pdata
pdata	SEGMENT
$pdata$?reserve@ImGuiTextBuffer@@QEAAXH@Z DD imagerel $LN3
	DD	imagerel $LN3+77
	DD	imagerel $unwind$?reserve@ImGuiTextBuffer@@QEAAXH@Z
pdata	ENDS
;	COMDAT pdata
pdata	SEGMENT
$pdata$??1ImGuiTextBuffer@@QEAA@XZ DD imagerel $LN3
	DD	imagerel $LN3+67
	DD	imagerel $unwind$??1ImGuiTextBuffer@@QEAA@XZ
pdata	ENDS
;	COMDAT pdata
pdata	SEGMENT
$pdata$??A?$ImVector@UImGuiStoragePair@ImGuiStorage@@@@QEAAAEAUImGuiStoragePair@ImGuiStorage@@H@Z DD imagerel $LN5
	DD	imagerel $LN5+132
	DD	imagerel $unwind$??A?$ImVector@UImGuiStoragePair@ImGuiStorage@@@@QEAAAEAUImGuiStoragePair@ImGuiStorage@@H@Z
pdata	ENDS
;	COMDAT pdata
pdata	SEGMENT
$pdata$??A?$ImVector@UImDrawCmd@@@@QEAAAEAUImDrawCmd@@H@Z DD imagerel $LN5
	DD	imagerel $LN5+132
	DD	imagerel $unwind$??A?$ImVector@UImDrawCmd@@@@QEAAAEAUImDrawCmd@@H@Z
pdata	ENDS
;	COMDAT pdata
pdata	SEGMENT
$pdata$?back@?$ImVector@UImDrawCmd@@@@QEAAAEAUImDrawCmd@@XZ DD imagerel $LN4
	DD	imagerel $LN4+120
	DD	imagerel $unwind$?back@?$ImVector@UImDrawCmd@@@@QEAAAEAUImDrawCmd@@XZ
pdata	ENDS
;	COMDAT pdata
pdata	SEGMENT
$pdata$?pop_back@?$ImVector@UImDrawCmd@@@@QEAAXXZ DD imagerel $LN4
	DD	imagerel $LN4+112
	DD	imagerel $unwind$?pop_back@?$ImVector@UImDrawCmd@@@@QEAAXXZ
pdata	ENDS
;	COMDAT pdata
pdata	SEGMENT
$pdata$??0?$ImVector@UImDrawChannel@@@@QEAA@XZ DD imagerel $LN3
	DD	imagerel $LN3+99
	DD	imagerel $unwind$??0?$ImVector@UImDrawChannel@@@@QEAA@XZ
pdata	ENDS
;	COMDAT pdata
pdata	SEGMENT
$pdata$??1?$ImVector@UImDrawChannel@@@@QEAA@XZ DD imagerel $LN4
	DD	imagerel $LN4+94
	DD	imagerel $unwind$??1?$ImVector@UImDrawChannel@@@@QEAA@XZ
pdata	ENDS
;	COMDAT pdata
pdata	SEGMENT
$pdata$??A?$ImVector@UImDrawChannel@@@@QEAAAEAUImDrawChannel@@H@Z DD imagerel $LN5
	DD	imagerel $LN5+132
	DD	imagerel $unwind$??A?$ImVector@UImDrawChannel@@@@QEAAAEAUImDrawChannel@@H@Z
pdata	ENDS
;	COMDAT pdata
pdata	SEGMENT
$pdata$?_grow_capacity@?$ImVector@UImDrawChannel@@@@QEBAHH@Z DD imagerel $LN7
	DD	imagerel $LN7+159
	DD	imagerel $unwind$?_grow_capacity@?$ImVector@UImDrawChannel@@@@QEBAHH@Z
pdata	ENDS
;	COMDAT pdata
pdata	SEGMENT
$pdata$?resize@?$ImVector@UImDrawChannel@@@@QEAAXH@Z DD imagerel $LN4
	DD	imagerel $LN4+121
	DD	imagerel $unwind$?resize@?$ImVector@UImDrawChannel@@@@QEAAXH@Z
pdata	ENDS
;	COMDAT pdata
pdata	SEGMENT
$pdata$?reserve@?$ImVector@UImDrawChannel@@@@QEAAXH@Z DD imagerel $LN5
	DD	imagerel $LN5+197
	DD	imagerel $unwind$?reserve@?$ImVector@UImDrawChannel@@@@QEAAXH@Z
pdata	ENDS
;	COMDAT pdata
pdata	SEGMENT
$pdata$??0ImDrawListSplitter@@QEAA@XZ DD imagerel $LN4
	DD	imagerel $LN4+98
	DD	imagerel $unwind$??0ImDrawListSplitter@@QEAA@XZ
pdata	ENDS
;	COMDAT pdata
pdata	SEGMENT
$pdata$??1ImDrawListSplitter@@QEAA@XZ DD imagerel $LN3
	DD	imagerel $LN3+96
	DD	imagerel $unwind$??1ImDrawListSplitter@@QEAA@XZ
pdata	ENDS
;	COMDAT pdata
pdata	SEGMENT
$pdata$?Clear@ImDrawListSplitter@@QEAAXXZ DD imagerel $LN3
	DD	imagerel $LN3+77
	DD	imagerel $unwind$?Clear@ImDrawListSplitter@@QEAAXXZ
pdata	ENDS
;	COMDAT pdata
pdata	SEGMENT
$pdata$?back@?$ImVector@UImVec4@@@@QEAAAEAUImVec4@@XZ DD imagerel $LN4
	DD	imagerel $LN4+120
	DD	imagerel $unwind$?back@?$ImVector@UImVec4@@@@QEAAAEAUImVec4@@XZ
pdata	ENDS
;	COMDAT pdata
pdata	SEGMENT
$pdata$?back@?$ImVector@I@@QEAAAEAIXZ DD imagerel $LN4
	DD	imagerel $LN4+120
	DD	imagerel $unwind$?back@?$ImVector@I@@QEAAAEAIXZ
pdata	ENDS
;	COMDAT pdata
pdata	SEGMENT
$pdata$??A?$ImVector@M@@QEAAAEAMH@Z DD imagerel $LN5
	DD	imagerel $LN5+132
	DD	imagerel $unwind$??A?$ImVector@M@@QEAAAEAMH@Z
pdata	ENDS
;	COMDAT pdata
pdata	SEGMENT
$pdata$?_grow_capacity@?$ImVector@M@@QEBAHH@Z DD imagerel $LN7
	DD	imagerel $LN7+159
	DD	imagerel $unwind$?_grow_capacity@?$ImVector@M@@QEBAHH@Z
pdata	ENDS
;	COMDAT pdata
pdata	SEGMENT
$pdata$?resize@?$ImVector@M@@QEAAXHAEBM@Z DD imagerel $LN8
	DD	imagerel $LN8+218
	DD	imagerel $unwind$?resize@?$ImVector@M@@QEAAXHAEBM@Z
pdata	ENDS
;	COMDAT pdata
pdata	SEGMENT
$pdata$?reserve@?$ImVector@M@@QEAAXH@Z DD imagerel $LN5
	DD	imagerel $LN5+197
	DD	imagerel $unwind$?reserve@?$ImVector@M@@QEAAXH@Z
pdata	ENDS
;	COMDAT pdata
pdata	SEGMENT
$pdata$__local_stdio_scanf_options DD imagerel $LN3
	DD	imagerel $LN3+45
	DD	imagerel $unwind$__local_stdio_scanf_options
pdata	ENDS
;	COMDAT pdata
pdata	SEGMENT
$pdata$??$__vcrt_va_start_verify_argument_type@QEBD@@YAXXZ DD imagerel $LN3
	DD	imagerel $LN3+38
	DD	imagerel $unwind$??$__vcrt_va_start_verify_argument_type@QEBD@@YAXXZ
pdata	ENDS
;	COMDAT pdata
pdata	SEGMENT
$pdata$_vsscanf_l DD imagerel $LN3
	DD	imagerel $LN3+126
	DD	imagerel $unwind$_vsscanf_l
pdata	ENDS
;	COMDAT pdata
pdata	SEGMENT
$pdata$sscanf DD imagerel $LN3
	DD	imagerel $LN3+175
	DD	imagerel $unwind$sscanf
pdata	ENDS
;	COMDAT pdata
pdata	SEGMENT
$pdata$?ImIsPowerOfTwo@@YA_NH@Z DD imagerel ?ImIsPowerOfTwo@@YA_NH@Z
	DD	imagerel ?ImIsPowerOfTwo@@YA_NH@Z+108
	DD	imagerel $unwind$?ImIsPowerOfTwo@@YA_NH@Z
pdata	ENDS
;	COMDAT pdata
pdata	SEGMENT
$pdata$??H@YA?AUImVec2@@AEBU0@0@Z DD imagerel ??H@YA?AUImVec2@@AEBU0@0@Z
	DD	imagerel ??H@YA?AUImVec2@@AEBU0@0@Z+81
	DD	imagerel $unwind$??H@YA?AUImVec2@@AEBU0@0@Z
pdata	ENDS
;	COMDAT pdata
pdata	SEGMENT
$pdata$?ImMin@@YA?AUImVec2@@AEBU1@0@Z DD imagerel ?ImMin@@YA?AUImVec2@@AEBU1@0@Z
	DD	imagerel ?ImMin@@YA?AUImVec2@@AEBU1@0@Z+148
	DD	imagerel $unwind$?ImMin@@YA?AUImVec2@@AEBU1@0@Z
pdata	ENDS
;	COMDAT pdata
pdata	SEGMENT
$pdata$?ImMax@@YA?AUImVec2@@AEBU1@0@Z DD imagerel ?ImMax@@YA?AUImVec2@@AEBU1@0@Z
	DD	imagerel ?ImMax@@YA?AUImVec2@@AEBU1@0@Z+148
	DD	imagerel $unwind$?ImMax@@YA?AUImVec2@@AEBU1@0@Z
pdata	ENDS
;	COMDAT pdata
pdata	SEGMENT
$pdata$?ImClamp@@YA?AUImVec2@@AEBU1@0U1@@Z DD imagerel ?ImClamp@@YA?AUImVec2@@AEBU1@0U1@@Z
	DD	imagerel ?ImClamp@@YA?AUImVec2@@AEBU1@0U1@@Z+226
	DD	imagerel $unwind$?ImClamp@@YA?AUImVec2@@AEBU1@0U1@@Z
pdata	ENDS
;	COMDAT pdata
pdata	SEGMENT
$pdata$?ImFloor@@YAMM@Z DD imagerel ?ImFloor@@YAMM@Z
	DD	imagerel ?ImFloor@@YAMM@Z+29
	DD	imagerel $unwind$?ImFloor@@YAMM@Z
pdata	ENDS
;	COMDAT pdata
pdata	SEGMENT
$pdata$??$ImMin@M@@YAMMM@Z DD imagerel ??$ImMin@M@@YAMMM@Z
	DD	imagerel ??$ImMin@M@@YAMMM@Z+110
	DD	imagerel $unwind$??$ImMin@M@@YAMMM@Z
pdata	ENDS
;	COMDAT pdata
pdata	SEGMENT
$pdata$??$ImMax@M@@YAMMM@Z DD imagerel ??$ImMax@M@@YAMMM@Z
	DD	imagerel ??$ImMax@M@@YAMMM@Z+110
	DD	imagerel $unwind$??$ImMax@M@@YAMMM@Z
pdata	ENDS
;	COMDAT pdata
pdata	SEGMENT
$pdata$??0ImVec1@@QEAA@XZ DD imagerel $LN3
	DD	imagerel $LN3+34
	DD	imagerel $unwind$??0ImVec1@@QEAA@XZ
pdata	ENDS
;	COMDAT pdata
pdata	SEGMENT
$pdata$??0ImRect@@QEAA@XZ DD imagerel $LN3
	DD	imagerel $LN3+65
	DD	imagerel $unwind$??0ImRect@@QEAA@XZ
pdata	ENDS
;	COMDAT pdata
pdata	SEGMENT
$pdata$??0ImRect@@QEAA@AEBUImVec2@@0@Z DD imagerel $LN3
	DD	imagerel $LN3+62
	DD	imagerel $unwind$??0ImRect@@QEAA@AEBUImVec2@@0@Z
pdata	ENDS
;	COMDAT pdata
pdata	SEGMENT
$pdata$??0ImRect@@QEAA@AEBUImVec4@@@Z DD imagerel $LN3
	DD	imagerel $LN3+93
	DD	imagerel $unwind$??0ImRect@@QEAA@AEBUImVec4@@@Z
pdata	ENDS
;	COMDAT pdata
pdata	SEGMENT
$pdata$??0ImRect@@QEAA@MMMM@Z DD imagerel $LN3
	DD	imagerel $LN3+91
	DD	imagerel $unwind$??0ImRect@@QEAA@MMMM@Z
pdata	ENDS
;	COMDAT pdata
pdata	SEGMENT
$pdata$?GetSize@ImRect@@QEBA?AUImVec2@@XZ DD imagerel $LN3
	DD	imagerel $LN3+77
	DD	imagerel $unwind$?GetSize@ImRect@@QEBA?AUImVec2@@XZ
pdata	ENDS
;	COMDAT pdata
pdata	SEGMENT
$pdata$?GetWidth@ImRect@@QEBAMXZ DD imagerel $LN3
	DD	imagerel $LN3+36
	DD	imagerel $unwind$?GetWidth@ImRect@@QEBAMXZ
pdata	ENDS
;	COMDAT pdata
pdata	SEGMENT
$pdata$?GetHeight@ImRect@@QEBAMXZ DD imagerel $LN3
	DD	imagerel $LN3+37
	DD	imagerel $unwind$?GetHeight@ImRect@@QEBAMXZ
pdata	ENDS
;	COMDAT pdata
pdata	SEGMENT
$pdata$?Contains@ImRect@@QEBA_NAEBU1@@Z DD imagerel $LN5
	DD	imagerel $LN5+118
	DD	imagerel $unwind$?Contains@ImRect@@QEBA_NAEBU1@@Z
pdata	ENDS
;	COMDAT pdata
pdata	SEGMENT
$pdata$?Overlaps@ImRect@@QEBA_NAEBU1@@Z DD imagerel $LN5
	DD	imagerel $LN5+118
	DD	imagerel $unwind$?Overlaps@ImRect@@QEBA_NAEBU1@@Z
pdata	ENDS
;	COMDAT pdata
pdata	SEGMENT
$pdata$?Add@ImRect@@QEAAXAEBU1@@Z DD imagerel $LN7
	DD	imagerel $LN7+168
	DD	imagerel $unwind$?Add@ImRect@@QEAAXAEBU1@@Z
pdata	ENDS
;	COMDAT pdata
pdata	SEGMENT
$pdata$?ClipWith@ImRect@@QEAAXAEBU1@@Z DD imagerel $LN3
	DD	imagerel $LN3+101
	DD	imagerel $unwind$?ClipWith@ImRect@@QEAAXAEBU1@@Z
pdata	ENDS
;	COMDAT pdata
pdata	SEGMENT
$pdata$?ClipWithFull@ImRect@@QEAAXAEBU1@@Z DD imagerel $LN3
	DD	imagerel $LN3+113
	DD	imagerel $unwind$?ClipWithFull@ImRect@@QEAAXAEBU1@@Z
pdata	ENDS
;	COMDAT pdata
pdata	SEGMENT
$pdata$?ToVec4@ImRect@@QEBA?AUImVec4@@XZ DD imagerel $LN3
	DD	imagerel $LN3+80
	DD	imagerel $unwind$?ToVec4@ImRect@@QEBA?AUImVec4@@XZ
pdata	ENDS
;	COMDAT pdata
pdata	SEGMENT
$pdata$?ImBitArrayGetStorageSizeInBytes@@YA_KH@Z DD imagerel $LN3
	DD	imagerel $LN3+33
	DD	imagerel $unwind$?ImBitArrayGetStorageSizeInBytes@@YA_KH@Z
pdata	ENDS
;	COMDAT pdata
pdata	SEGMENT
$pdata$?ImBitArrayClearAllBits@@YAXPEAIH@Z DD imagerel $LN3
	DD	imagerel $LN3+47
	DD	imagerel $unwind$?ImBitArrayClearAllBits@@YAXPEAIH@Z
pdata	ENDS
;	COMDAT pdata
pdata	SEGMENT
$pdata$?ImBitArrayClearBit@@YAXPEAIH@Z DD imagerel $LN3
	DD	imagerel $LN3+86
	DD	imagerel $unwind$?ImBitArrayClearBit@@YAXPEAIH@Z
pdata	ENDS
;	COMDAT pdata
pdata	SEGMENT
$pdata$?ImBitArraySetBit@@YAXPEAIH@Z DD imagerel $LN3
	DD	imagerel $LN3+84
	DD	imagerel $unwind$?ImBitArraySetBit@@YAXPEAIH@Z
pdata	ENDS
;	COMDAT pdata
pdata	SEGMENT
$pdata$?ImBitArraySetBitRange@@YAXPEAIHH@Z DD imagerel $LN7
	DD	imagerel $LN7+211
	DD	imagerel $unwind$?ImBitArraySetBitRange@@YAXPEAIHH@Z
pdata	ENDS
;	COMDAT pdata
pdata	SEGMENT
$pdata$??$ImMin@H@@YAHHH@Z DD imagerel ??$ImMin@H@@YAHHH@Z
	DD	imagerel ??$ImMin@H@@YAHHH@Z+98
	DD	imagerel $unwind$??$ImMin@H@@YAHHH@Z
pdata	ENDS
;	COMDAT pdata
pdata	SEGMENT
$pdata$??0ImGuiOldColumnData@@QEAA@XZ DD imagerel $LN3
	DD	imagerel $LN3+98
	DD	imagerel $unwind$??0ImGuiOldColumnData@@QEAA@XZ
pdata	ENDS
;	COMDAT pdata
pdata	SEGMENT
$pdata$??0?$ImVector@UImGuiOldColumnData@@@@QEAA@XZ DD imagerel $LN3
	DD	imagerel $LN3+99
	DD	imagerel $unwind$??0?$ImVector@UImGuiOldColumnData@@@@QEAA@XZ
pdata	ENDS
;	COMDAT pdata
pdata	SEGMENT
$pdata$??1?$ImVector@UImGuiOldColumnData@@@@QEAA@XZ DD imagerel $LN4
	DD	imagerel $LN4+94
	DD	imagerel $unwind$??1?$ImVector@UImGuiOldColumnData@@@@QEAA@XZ
pdata	ENDS
;	COMDAT pdata
pdata	SEGMENT
$pdata$??A?$ImVector@UImGuiOldColumnData@@@@QEAAAEAUImGuiOldColumnData@@H@Z DD imagerel $LN5
	DD	imagerel $LN5+132
	DD	imagerel $unwind$??A?$ImVector@UImGuiOldColumnData@@@@QEAAAEAUImGuiOldColumnData@@H@Z
pdata	ENDS
;	COMDAT pdata
pdata	SEGMENT
$pdata$?_grow_capacity@?$ImVector@UImGuiOldColumnData@@@@QEBAHH@Z DD imagerel $LN7
	DD	imagerel $LN7+159
	DD	imagerel $unwind$?_grow_capacity@?$ImVector@UImGuiOldColumnData@@@@QEBAHH@Z
pdata	ENDS
;	COMDAT pdata
pdata	SEGMENT
$pdata$?resize@?$ImVector@UImGuiOldColumnData@@@@QEAAXH@Z DD imagerel $LN4
	DD	imagerel $LN4+121
	DD	imagerel $unwind$?resize@?$ImVector@UImGuiOldColumnData@@@@QEAAXH@Z
pdata	ENDS
;	COMDAT pdata
pdata	SEGMENT
$pdata$?reserve@?$ImVector@UImGuiOldColumnData@@@@QEAAXH@Z DD imagerel $LN5
	DD	imagerel $LN5+197
	DD	imagerel $unwind$?reserve@?$ImVector@UImGuiOldColumnData@@@@QEAAXH@Z
pdata	ENDS
;	COMDAT pdata
pdata	SEGMENT
$pdata$?push_back@?$ImVector@UImGuiOldColumnData@@@@QEAAXAEBUImGuiOldColumnData@@@Z DD imagerel $LN4
	DD	imagerel $LN4+183
	DD	imagerel $unwind$?push_back@?$ImVector@UImGuiOldColumnData@@@@QEAAXAEBUImGuiOldColumnData@@@Z
pdata	ENDS
;	COMDAT pdata
pdata	SEGMENT
$pdata$??0ImGuiOldColumns@@QEAA@XZ DD imagerel $LN5
	DD	imagerel $LN5+187
	DD	imagerel $unwind$??0ImGuiOldColumns@@QEAA@XZ
pdata	ENDS
;	COMDAT pdata
pdata	SEGMENT
$pdata$?dtor$0@?0???0ImGuiOldColumns@@QEAA@XZ@4HA DD imagerel ?dtor$0@?0???0ImGuiOldColumns@@QEAA@XZ@4HA
	DD	imagerel ?dtor$0@?0???0ImGuiOldColumns@@QEAA@XZ@4HA+43
	DD	imagerel $unwind$?dtor$0@?0???0ImGuiOldColumns@@QEAA@XZ@4HA
pdata	ENDS
;	COMDAT pdata
pdata	SEGMENT
$pdata$??1ImGuiOldColumns@@QEAA@XZ DD imagerel $LN3
	DD	imagerel $LN3+90
	DD	imagerel $unwind$??1ImGuiOldColumns@@QEAA@XZ
pdata	ENDS
;	COMDAT pdata
pdata	SEGMENT
$pdata$??0ImGuiSettingsHandler@@QEAA@XZ DD imagerel $LN3
	DD	imagerel $LN3+79
	DD	imagerel $unwind$??0ImGuiSettingsHandler@@QEAA@XZ
pdata	ENDS
;	COMDAT pdata
pdata	SEGMENT
$pdata$??A?$ImVector@UImGuiTableTempData@@@@QEAAAEAUImGuiTableTempData@@H@Z DD imagerel $LN5
	DD	imagerel $LN5+132
	DD	imagerel $unwind$??A?$ImVector@UImGuiTableTempData@@@@QEAAAEAUImGuiTableTempData@@H@Z
pdata	ENDS
;	COMDAT pdata
pdata	SEGMENT
$pdata$?_grow_capacity@?$ImVector@UImGuiTableTempData@@@@QEBAHH@Z DD imagerel $LN7
	DD	imagerel $LN7+159
	DD	imagerel $unwind$?_grow_capacity@?$ImVector@UImGuiTableTempData@@@@QEBAHH@Z
pdata	ENDS
;	COMDAT pdata
pdata	SEGMENT
$pdata$?resize@?$ImVector@UImGuiTableTempData@@@@QEAAXHAEBUImGuiTableTempData@@@Z DD imagerel $LN8
	DD	imagerel $LN8+218
	DD	imagerel $unwind$?resize@?$ImVector@UImGuiTableTempData@@@@QEAAXHAEBUImGuiTableTempData@@@Z
pdata	ENDS
;	COMDAT pdata
pdata	SEGMENT
$pdata$?reserve@?$ImVector@UImGuiTableTempData@@@@QEAAXH@Z DD imagerel $LN5
	DD	imagerel $LN5+197
	DD	imagerel $unwind$?reserve@?$ImVector@UImGuiTableTempData@@@@QEAAXH@Z
pdata	ENDS
;	COMDAT pdata
pdata	SEGMENT
$pdata$??A?$ImVector@UImGuiTable@@@@QEAAAEAUImGuiTable@@H@Z DD imagerel $LN5
	DD	imagerel $LN5+135
	DD	imagerel $unwind$??A?$ImVector@UImGuiTable@@@@QEAAAEAUImGuiTable@@H@Z
pdata	ENDS
;	COMDAT pdata
pdata	SEGMENT
$pdata$?_grow_capacity@?$ImVector@UImGuiTable@@@@QEBAHH@Z DD imagerel $LN7
	DD	imagerel $LN7+159
	DD	imagerel $unwind$?_grow_capacity@?$ImVector@UImGuiTable@@@@QEBAHH@Z
pdata	ENDS
;	COMDAT pdata
pdata	SEGMENT
$pdata$?resize@?$ImVector@UImGuiTable@@@@QEAAXH@Z DD imagerel $LN4
	DD	imagerel $LN4+121
	DD	imagerel $unwind$?resize@?$ImVector@UImGuiTable@@@@QEAAXH@Z
pdata	ENDS
;	COMDAT pdata
pdata	SEGMENT
$pdata$?reserve@?$ImVector@UImGuiTable@@@@QEAAXH@Z DD imagerel $LN5
	DD	imagerel $LN5+203
	DD	imagerel $unwind$?reserve@?$ImVector@UImGuiTable@@@@QEAAXH@Z
pdata	ENDS
;	COMDAT pdata
pdata	SEGMENT
$pdata$?GetByKey@?$ImPool@UImGuiTable@@@@QEAAPEAUImGuiTable@@I@Z DD imagerel $LN5
	DD	imagerel $LN5+141
	DD	imagerel $unwind$?GetByKey@?$ImPool@UImGuiTable@@@@QEAAPEAUImGuiTable@@I@Z
pdata	ENDS
;	COMDAT pdata
pdata	SEGMENT
$pdata$?GetByIndex@?$ImPool@UImGuiTable@@@@QEAAPEAUImGuiTable@@H@Z DD imagerel $LN3
	DD	imagerel $LN3+77
	DD	imagerel $unwind$?GetByIndex@?$ImPool@UImGuiTable@@@@QEAAPEAUImGuiTable@@H@Z
pdata	ENDS
;	COMDAT pdata
pdata	SEGMENT
$pdata$?GetIndex@?$ImPool@UImGuiTable@@@@QEBAHPEBUImGuiTable@@@Z DD imagerel $LN5
	DD	imagerel $LN5+176
	DD	imagerel $unwind$?GetIndex@?$ImPool@UImGuiTable@@@@QEBAHPEBUImGuiTable@@@Z
pdata	ENDS
;	COMDAT pdata
pdata	SEGMENT
$pdata$?GetOrAddByKey@?$ImPool@UImGuiTable@@@@QEAAPEAUImGuiTable@@I@Z DD imagerel $LN4
	DD	imagerel $LN4+151
	DD	imagerel $unwind$?GetOrAddByKey@?$ImPool@UImGuiTable@@@@QEAAPEAUImGuiTable@@I@Z
pdata	ENDS
;	COMDAT pdata
pdata	SEGMENT
$pdata$?Add@?$ImPool@UImGuiTable@@@@QEAAPEAUImGuiTable@@XZ DD imagerel $LN8
	DD	imagerel $LN8+338
	DD	imagerel $unwind$?Add@?$ImPool@UImGuiTable@@@@QEAAPEAUImGuiTable@@XZ
pdata	ENDS
;	COMDAT pdata
pdata	SEGMENT
$pdata$?dtor$0@?0??Add@?$ImPool@UImGuiTable@@@@QEAAPEAUImGuiTable@@XZ@4HA DD imagerel ?dtor$0@?0??Add@?$ImPool@UImGuiTable@@@@QEAAPEAUImGuiTable@@XZ@4HA
	DD	imagerel ?dtor$0@?0??Add@?$ImPool@UImGuiTable@@@@QEAAPEAUImGuiTable@@XZ@4HA+56
	DD	imagerel $unwind$?dtor$0@?0??Add@?$ImPool@UImGuiTable@@@@QEAAPEAUImGuiTable@@XZ@4HA
pdata	ENDS
;	COMDAT pdata
pdata	SEGMENT
$pdata$?Remove@?$ImPool@UImGuiTable@@@@QEAAXIPEBUImGuiTable@@@Z DD imagerel $LN3
	DD	imagerel $LN3+101
	DD	imagerel $unwind$?Remove@?$ImPool@UImGuiTable@@@@QEAAXIPEBUImGuiTable@@@Z
pdata	ENDS
;	COMDAT pdata
pdata	SEGMENT
$pdata$?Remove@?$ImPool@UImGuiTable@@@@QEAAXIH@Z DD imagerel $LN3
	DD	imagerel $LN3+194
	DD	imagerel $unwind$?Remove@?$ImPool@UImGuiTable@@@@QEAAXIH@Z
pdata	ENDS
;	COMDAT pdata
pdata	SEGMENT
$pdata$?GetMapSize@?$ImPool@UImGuiTable@@@@QEBAHXZ DD imagerel $LN3
	DD	imagerel $LN3+60
	DD	imagerel $unwind$?GetMapSize@?$ImPool@UImGuiTable@@@@QEBAHXZ
pdata	ENDS
;	COMDAT pdata
pdata	SEGMENT
$pdata$?TryGetMapData@?$ImPool@UImGuiTable@@@@QEAAPEAUImGuiTable@@H@Z DD imagerel $LN4
	DD	imagerel $LN4+112
	DD	imagerel $unwind$?TryGetMapData@?$ImPool@UImGuiTable@@@@QEAAPEAUImGuiTable@@H@Z
pdata	ENDS
;	COMDAT pdata
pdata	SEGMENT
$pdata$?clear@?$ImChunkStream@UImGuiTableSettings@@@@QEAAXXZ DD imagerel $LN3
	DD	imagerel $LN3+67
	DD	imagerel $unwind$?clear@?$ImChunkStream@UImGuiTableSettings@@@@QEAAXXZ
pdata	ENDS
;	COMDAT pdata
pdata	SEGMENT
$pdata$?alloc_chunk@?$ImChunkStream@UImGuiTableSettings@@@@QEAAPEAUImGuiTableSettings@@_K@Z DD imagerel $LN3
	DD	imagerel $LN3+196
	DD	imagerel $unwind$?alloc_chunk@?$ImChunkStream@UImGuiTableSettings@@@@QEAAPEAUImGuiTableSettings@@_K@Z
pdata	ENDS
;	COMDAT pdata
pdata	SEGMENT
$pdata$?begin@?$ImChunkStream@UImGuiTableSettings@@@@QEAAPEAUImGuiTableSettings@@XZ DD imagerel $LN4
	DD	imagerel $LN4+91
	DD	imagerel $unwind$?begin@?$ImChunkStream@UImGuiTableSettings@@@@QEAAPEAUImGuiTableSettings@@XZ
pdata	ENDS
;	COMDAT pdata
pdata	SEGMENT
$pdata$?next_chunk@?$ImChunkStream@UImGuiTableSettings@@@@QEAAPEAUImGuiTableSettings@@PEAU2@@Z DD imagerel $LN7
	DD	imagerel $LN7+261
	DD	imagerel $unwind$?next_chunk@?$ImChunkStream@UImGuiTableSettings@@@@QEAAPEAUImGuiTableSettings@@PEAU2@@Z
pdata	ENDS
;	COMDAT pdata
pdata	SEGMENT
$pdata$?chunk_size@?$ImChunkStream@UImGuiTableSettings@@@@QEAAHPEBUImGuiTableSettings@@@Z DD imagerel $LN3
	DD	imagerel $LN3+74
	DD	imagerel $unwind$?chunk_size@?$ImChunkStream@UImGuiTableSettings@@@@QEAAHPEBUImGuiTableSettings@@@Z
pdata	ENDS
;	COMDAT pdata
pdata	SEGMENT
$pdata$?end@?$ImChunkStream@UImGuiTableSettings@@@@QEAAPEAUImGuiTableSettings@@XZ DD imagerel $LN3
	DD	imagerel $LN3+71
	DD	imagerel $unwind$?end@?$ImChunkStream@UImGuiTableSettings@@@@QEAAPEAUImGuiTableSettings@@XZ
pdata	ENDS
;	COMDAT pdata
pdata	SEGMENT
$pdata$?offset_from_ptr@?$ImChunkStream@UImGuiTableSettings@@@@QEAAHPEBUImGuiTableSettings@@@Z DD imagerel $LN5
	DD	imagerel $LN5+158
	DD	imagerel $unwind$?offset_from_ptr@?$ImChunkStream@UImGuiTableSettings@@@@QEAAHPEBUImGuiTableSettings@@@Z
pdata	ENDS
;	COMDAT pdata
pdata	SEGMENT
$pdata$?ptr_from_offset@?$ImChunkStream@UImGuiTableSettings@@@@QEAAPEAUImGuiTableSettings@@H@Z DD imagerel $LN5
	DD	imagerel $LN5+128
	DD	imagerel $unwind$?ptr_from_offset@?$ImChunkStream@UImGuiTableSettings@@@@QEAAPEAUImGuiTableSettings@@H@Z
pdata	ENDS
;	COMDAT pdata
pdata	SEGMENT
$pdata$?swap@?$ImChunkStream@UImGuiTableSettings@@@@QEAAXAEAU1@@Z DD imagerel $LN3
	DD	imagerel $LN3+79
	DD	imagerel $unwind$?swap@?$ImChunkStream@UImGuiTableSettings@@@@QEAAXAEAU1@@Z
pdata	ENDS
;	COMDAT pdata
pdata	SEGMENT
$pdata$??0?$ImChunkStream@UImGuiTableSettings@@@@QEAA@XZ DD imagerel $LN4
	DD	imagerel $LN4+74
	DD	imagerel $unwind$??0?$ImChunkStream@UImGuiTableSettings@@@@QEAA@XZ
pdata	ENDS
;	COMDAT pdata
pdata	SEGMENT
$pdata$??1?$ImChunkStream@UImGuiTableSettings@@@@QEAA@XZ DD imagerel $LN3
	DD	imagerel $LN3+67
	DD	imagerel $unwind$??1?$ImChunkStream@UImGuiTableSettings@@@@QEAA@XZ
pdata	ENDS
;	COMDAT pdata
pdata	SEGMENT
$pdata$??A?$ImVector@UImGuiOldColumns@@@@QEAAAEAUImGuiOldColumns@@H@Z DD imagerel $LN5
	DD	imagerel $LN5+135
	DD	imagerel $unwind$??A?$ImVector@UImGuiOldColumns@@@@QEAAAEAUImGuiOldColumns@@H@Z
pdata	ENDS
;	COMDAT pdata
pdata	SEGMENT
$pdata$?back@?$ImVector@UImGuiOldColumns@@@@QEAAAEAUImGuiOldColumns@@XZ DD imagerel $LN4
	DD	imagerel $LN4+123
	DD	imagerel $unwind$?back@?$ImVector@UImGuiOldColumns@@@@QEAAAEAUImGuiOldColumns@@XZ
pdata	ENDS
;	COMDAT pdata
pdata	SEGMENT
$pdata$?_grow_capacity@?$ImVector@UImGuiOldColumns@@@@QEBAHH@Z DD imagerel $LN7
	DD	imagerel $LN7+159
	DD	imagerel $unwind$?_grow_capacity@?$ImVector@UImGuiOldColumns@@@@QEBAHH@Z
pdata	ENDS
;	COMDAT pdata
pdata	SEGMENT
$pdata$?reserve@?$ImVector@UImGuiOldColumns@@@@QEAAXH@Z DD imagerel $LN5
	DD	imagerel $LN5+203
	DD	imagerel $unwind$?reserve@?$ImVector@UImGuiOldColumns@@@@QEAAXH@Z
pdata	ENDS
;	COMDAT pdata
pdata	SEGMENT
$pdata$?push_back@?$ImVector@UImGuiOldColumns@@@@QEAAXAEBUImGuiOldColumns@@@Z DD imagerel $LN4
	DD	imagerel $LN4+186
	DD	imagerel $unwind$?push_back@?$ImVector@UImGuiOldColumns@@@@QEAAXAEBUImGuiOldColumns@@@Z
pdata	ENDS
;	COMDAT pdata
pdata	SEGMENT
$pdata$?Rect@ImGuiWindow@@QEBA?AUImRect@@XZ DD imagerel $LN3
	DD	imagerel $LN3+157
	DD	imagerel $unwind$?Rect@ImGuiWindow@@QEBA?AUImRect@@XZ
pdata	ENDS
;	COMDAT pdata
pdata	SEGMENT
$pdata$??0ImGuiTableColumn@@QEAA@XZ DD imagerel $LN3
	DD	imagerel $LN3+305
	DD	imagerel $unwind$??0ImGuiTableColumn@@QEAA@XZ
pdata	ENDS
;	COMDAT pdata
pdata	SEGMENT
$pdata$??0ImGuiTableInstanceData@@QEAA@XZ DD imagerel $LN3
	DD	imagerel $LN3+101
	DD	imagerel $unwind$??0ImGuiTableInstanceData@@QEAA@XZ
pdata	ENDS
;	COMDAT pdata
pdata	SEGMENT
$pdata$??0?$ImSpan@UImGuiTableColumn@@@@QEAA@XZ DD imagerel $LN3
	DD	imagerel $LN3+86
	DD	imagerel $unwind$??0?$ImSpan@UImGuiTableColumn@@@@QEAA@XZ
pdata	ENDS
;	COMDAT pdata
pdata	SEGMENT
$pdata$?set@?$ImSpan@UImGuiTableColumn@@@@QEAAXPEAUImGuiTableColumn@@0@Z DD imagerel $LN3
	DD	imagerel $LN3+95
	DD	imagerel $unwind$?set@?$ImSpan@UImGuiTableColumn@@@@QEAAXPEAUImGuiTableColumn@@0@Z
pdata	ENDS
;	COMDAT pdata
pdata	SEGMENT
$pdata$?size@?$ImSpan@UImGuiTableColumn@@@@QEBAHXZ DD imagerel $LN3
	DD	imagerel $LN3+84
	DD	imagerel $unwind$?size@?$ImSpan@UImGuiTableColumn@@@@QEBAHXZ
pdata	ENDS
;	COMDAT pdata
pdata	SEGMENT
$pdata$??A?$ImSpan@UImGuiTableColumn@@@@QEAAAEAUImGuiTableColumn@@H@Z DD imagerel $LN5
	DD	imagerel $LN5+146
	DD	imagerel $unwind$??A?$ImSpan@UImGuiTableColumn@@@@QEAAAEAUImGuiTableColumn@@H@Z
pdata	ENDS
;	COMDAT pdata
pdata	SEGMENT
$pdata$??A?$ImSpan@UImGuiTableColumn@@@@QEBAAEBUImGuiTableColumn@@H@Z DD imagerel $LN5
	DD	imagerel $LN5+146
	DD	imagerel $unwind$??A?$ImSpan@UImGuiTableColumn@@@@QEBAAEBUImGuiTableColumn@@H@Z
pdata	ENDS
;	COMDAT pdata
pdata	SEGMENT
$pdata$?index_from_ptr@?$ImSpan@UImGuiTableColumn@@@@QEBAHPEBUImGuiTableColumn@@@Z DD imagerel $LN5
	DD	imagerel $LN5+164
	DD	imagerel $unwind$?index_from_ptr@?$ImSpan@UImGuiTableColumn@@@@QEBAHPEBUImGuiTableColumn@@@Z
pdata	ENDS
;	COMDAT pdata
pdata	SEGMENT
$pdata$??0?$ImSpan@F@@QEAA@XZ DD imagerel $LN3
	DD	imagerel $LN3+86
	DD	imagerel $unwind$??0?$ImSpan@F@@QEAA@XZ
pdata	ENDS
;	COMDAT pdata
pdata	SEGMENT
$pdata$?set@?$ImSpan@F@@QEAAXPEAF0@Z DD imagerel $LN3
	DD	imagerel $LN3+95
	DD	imagerel $unwind$?set@?$ImSpan@F@@QEAAXPEAF0@Z
pdata	ENDS
;	COMDAT pdata
pdata	SEGMENT
$pdata$??A?$ImSpan@F@@QEAAAEAFH@Z DD imagerel $LN5
	DD	imagerel $LN5+146
	DD	imagerel $unwind$??A?$ImSpan@F@@QEAAAEAFH@Z
pdata	ENDS
;	COMDAT pdata
pdata	SEGMENT
$pdata$??0?$ImSpan@UImGuiTableCellData@@@@QEAA@XZ DD imagerel $LN3
	DD	imagerel $LN3+86
	DD	imagerel $unwind$??0?$ImSpan@UImGuiTableCellData@@@@QEAA@XZ
pdata	ENDS
;	COMDAT pdata
pdata	SEGMENT
$pdata$?set@?$ImSpan@UImGuiTableCellData@@@@QEAAXPEAUImGuiTableCellData@@0@Z DD imagerel $LN3
	DD	imagerel $LN3+95
	DD	imagerel $unwind$?set@?$ImSpan@UImGuiTableCellData@@@@QEAAXPEAUImGuiTableCellData@@0@Z
pdata	ENDS
;	COMDAT pdata
pdata	SEGMENT
$pdata$??A?$ImSpan@UImGuiTableCellData@@@@QEAAAEAUImGuiTableCellData@@H@Z DD imagerel $LN5
	DD	imagerel $LN5+146
	DD	imagerel $unwind$??A?$ImSpan@UImGuiTableCellData@@@@QEAAAEAUImGuiTableCellData@@H@Z
pdata	ENDS
;	COMDAT pdata
pdata	SEGMENT
$pdata$??0?$ImVector@UImGuiTableInstanceData@@@@QEAA@XZ DD imagerel $LN3
	DD	imagerel $LN3+99
	DD	imagerel $unwind$??0?$ImVector@UImGuiTableInstanceData@@@@QEAA@XZ
pdata	ENDS
;	COMDAT pdata
pdata	SEGMENT
$pdata$??1?$ImVector@UImGuiTableInstanceData@@@@QEAA@XZ DD imagerel $LN4
	DD	imagerel $LN4+94
	DD	imagerel $unwind$??1?$ImVector@UImGuiTableInstanceData@@@@QEAA@XZ
pdata	ENDS
;	COMDAT pdata
pdata	SEGMENT
$pdata$??A?$ImVector@UImGuiTableInstanceData@@@@QEAAAEAUImGuiTableInstanceData@@H@Z DD imagerel $LN5
	DD	imagerel $LN5+132
	DD	imagerel $unwind$??A?$ImVector@UImGuiTableInstanceData@@@@QEAAAEAUImGuiTableInstanceData@@H@Z
pdata	ENDS
;	COMDAT pdata
pdata	SEGMENT
$pdata$?_grow_capacity@?$ImVector@UImGuiTableInstanceData@@@@QEBAHH@Z DD imagerel $LN7
	DD	imagerel $LN7+159
	DD	imagerel $unwind$?_grow_capacity@?$ImVector@UImGuiTableInstanceData@@@@QEBAHH@Z
pdata	ENDS
;	COMDAT pdata
pdata	SEGMENT
$pdata$?reserve@?$ImVector@UImGuiTableInstanceData@@@@QEAAXH@Z DD imagerel $LN5
	DD	imagerel $LN5+197
	DD	imagerel $unwind$?reserve@?$ImVector@UImGuiTableInstanceData@@@@QEAAXH@Z
pdata	ENDS
;	COMDAT pdata
pdata	SEGMENT
$pdata$?push_back@?$ImVector@UImGuiTableInstanceData@@@@QEAAXAEBUImGuiTableInstanceData@@@Z DD imagerel $LN4
	DD	imagerel $LN4+183
	DD	imagerel $unwind$?push_back@?$ImVector@UImGuiTableInstanceData@@@@QEAAXAEBUImGuiTableInstanceData@@@Z
pdata	ENDS
;	COMDAT pdata
pdata	SEGMENT
$pdata$??0?$ImVector@UImGuiTableColumnSortSpecs@@@@QEAA@XZ DD imagerel $LN3
	DD	imagerel $LN3+99
	DD	imagerel $unwind$??0?$ImVector@UImGuiTableColumnSortSpecs@@@@QEAA@XZ
pdata	ENDS
;	COMDAT pdata
pdata	SEGMENT
$pdata$??1?$ImVector@UImGuiTableColumnSortSpecs@@@@QEAA@XZ DD imagerel $LN4
	DD	imagerel $LN4+94
	DD	imagerel $unwind$??1?$ImVector@UImGuiTableColumnSortSpecs@@@@QEAA@XZ
pdata	ENDS
;	COMDAT pdata
pdata	SEGMENT
$pdata$?clear@?$ImVector@UImGuiTableColumnSortSpecs@@@@QEAAXXZ DD imagerel $LN4
	DD	imagerel $LN4+124
	DD	imagerel $unwind$?clear@?$ImVector@UImGuiTableColumnSortSpecs@@@@QEAAXXZ
pdata	ENDS
;	COMDAT pdata
pdata	SEGMENT
$pdata$?_grow_capacity@?$ImVector@UImGuiTableColumnSortSpecs@@@@QEBAHH@Z DD imagerel $LN7
	DD	imagerel $LN7+159
	DD	imagerel $unwind$?_grow_capacity@?$ImVector@UImGuiTableColumnSortSpecs@@@@QEBAHH@Z
pdata	ENDS
;	COMDAT pdata
pdata	SEGMENT
$pdata$?resize@?$ImVector@UImGuiTableColumnSortSpecs@@@@QEAAXH@Z DD imagerel $LN4
	DD	imagerel $LN4+121
	DD	imagerel $unwind$?resize@?$ImVector@UImGuiTableColumnSortSpecs@@@@QEAAXH@Z
pdata	ENDS
;	COMDAT pdata
pdata	SEGMENT
$pdata$?reserve@?$ImVector@UImGuiTableColumnSortSpecs@@@@QEAAXH@Z DD imagerel $LN5
	DD	imagerel $LN5+197
	DD	imagerel $unwind$?reserve@?$ImVector@UImGuiTableColumnSortSpecs@@@@QEAAXH@Z
pdata	ENDS
;	COMDAT pdata
pdata	SEGMENT
$pdata$??0ImGuiTable@@QEAA@XZ DD imagerel $LN6
	DD	imagerel $LN6+479
	DD	imagerel $unwind$??0ImGuiTable@@QEAA@XZ
pdata	ENDS
;	COMDAT pdata
pdata	SEGMENT
$pdata$?dtor$0@?0???0ImGuiTable@@QEAA@XZ@4HA DD imagerel ?dtor$0@?0???0ImGuiTable@@QEAA@XZ@4HA
	DD	imagerel ?dtor$0@?0???0ImGuiTable@@QEAA@XZ@4HA+46
	DD	imagerel $unwind$?dtor$0@?0???0ImGuiTable@@QEAA@XZ@4HA
pdata	ENDS
;	COMDAT pdata
pdata	SEGMENT
$pdata$?dtor$1@?0???0ImGuiTable@@QEAA@XZ@4HA DD imagerel ?dtor$1@?0???0ImGuiTable@@QEAA@XZ@4HA
	DD	imagerel ?dtor$1@?0???0ImGuiTable@@QEAA@XZ@4HA+46
	DD	imagerel $unwind$?dtor$1@?0???0ImGuiTable@@QEAA@XZ@4HA
pdata	ENDS
;	COMDAT pdata
pdata	SEGMENT
$pdata$?dtor$2@?0???0ImGuiTable@@QEAA@XZ@4HA DD imagerel ?dtor$2@?0???0ImGuiTable@@QEAA@XZ@4HA
	DD	imagerel ?dtor$2@?0???0ImGuiTable@@QEAA@XZ@4HA+46
	DD	imagerel $unwind$?dtor$2@?0???0ImGuiTable@@QEAA@XZ@4HA
pdata	ENDS
;	COMDAT pdata
pdata	SEGMENT
$pdata$??1ImGuiTable@@QEAA@XZ DD imagerel $LN3
	DD	imagerel $LN3+146
	DD	imagerel $unwind$??1ImGuiTable@@QEAA@XZ
pdata	ENDS
;	COMDAT pdata
pdata	SEGMENT
$pdata$??_GImGuiTable@@QEAAPEAXI@Z DD imagerel $LN4
	DD	imagerel $LN4+105
	DD	imagerel $unwind$??_GImGuiTable@@QEAAPEAXI@Z
pdata	ENDS
;	COMDAT pdata
pdata	SEGMENT
$pdata$??0ImGuiTableTempData@@QEAA@XZ DD imagerel $LN4
	DD	imagerel $LN4+263
	DD	imagerel $unwind$??0ImGuiTableTempData@@QEAA@XZ
pdata	ENDS
;	COMDAT pdata
pdata	SEGMENT
$pdata$?dtor$0@?0???0ImGuiTableTempData@@QEAA@XZ@4HA DD imagerel ?dtor$0@?0???0ImGuiTableTempData@@QEAA@XZ@4HA
	DD	imagerel ?dtor$0@?0???0ImGuiTableTempData@@QEAA@XZ@4HA+43
	DD	imagerel $unwind$?dtor$0@?0???0ImGuiTableTempData@@QEAA@XZ@4HA
pdata	ENDS
;	COMDAT pdata
pdata	SEGMENT
$pdata$??1ImGuiTableTempData@@QEAA@XZ DD imagerel $LN3
	DD	imagerel $LN3+71
	DD	imagerel $unwind$??1ImGuiTableTempData@@QEAA@XZ
pdata	ENDS
;	COMDAT pdata
pdata	SEGMENT
$pdata$??0ImGuiTableColumnSettings@@QEAA@XZ DD imagerel $LN3
	DD	imagerel $LN3+202
	DD	imagerel $unwind$??0ImGuiTableColumnSettings@@QEAA@XZ
pdata	ENDS
;	COMDAT pdata
pdata	SEGMENT
$pdata$??0ImGuiTableSettings@@QEAA@XZ DD imagerel $LN3
	DD	imagerel $LN3+79
	DD	imagerel $unwind$??0ImGuiTableSettings@@QEAA@XZ
pdata	ENDS
;	COMDAT pdata
pdata	SEGMENT
$pdata$?GetColumnSettings@ImGuiTableSettings@@QEAAPEAUImGuiTableColumnSettings@@XZ DD imagerel $LN3
	DD	imagerel $LN3+61
	DD	imagerel $unwind$?GetColumnSettings@ImGuiTableSettings@@QEAAPEAUImGuiTableColumnSettings@@XZ
pdata	ENDS
;	COMDAT pdata
pdata	SEGMENT
$pdata$?GetCurrentWindowRead@ImGui@@YAPEAUImGuiWindow@@XZ DD imagerel $LN3
	DD	imagerel $LN3+60
	DD	imagerel $unwind$?GetCurrentWindowRead@ImGui@@YAPEAUImGuiWindow@@XZ
pdata	ENDS
;	COMDAT pdata
pdata	SEGMENT
$pdata$?GetCurrentWindow@ImGui@@YAPEAUImGuiWindow@@XZ DD imagerel $LN3
	DD	imagerel $LN3+78
	DD	imagerel $unwind$?GetCurrentWindow@ImGui@@YAPEAUImGuiWindow@@XZ
pdata	ENDS
;	COMDAT pdata
pdata	SEGMENT
$pdata$?LocalizeGetMsg@ImGui@@YAPEBDW4ImGuiLocKey@@@Z DD imagerel $LN5
	DD	imagerel $LN5+123
	DD	imagerel $unwind$?LocalizeGetMsg@ImGui@@YAPEBDW4ImGuiLocKey@@@Z
pdata	ENDS
;	COMDAT pdata
pdata	SEGMENT
$pdata$?ItemSize@ImGui@@YAXAEBUImRect@@M@Z DD imagerel $LN3
	DD	imagerel $LN3+93
	DD	imagerel $unwind$?ItemSize@ImGui@@YAXAEBUImRect@@M@Z
pdata	ENDS
;	COMDAT pdata
pdata	SEGMENT
$pdata$?SetWindowClipRectBeforeSetChannel@ImGui@@YAXPEAUImGuiWindow@@AEBUImRect@@@Z DD imagerel $LN3
	DD	imagerel $LN3+248
	DD	imagerel $unwind$?SetWindowClipRectBeforeSetChannel@ImGui@@YAXPEAUImGuiWindow@@AEBUImRect@@@Z
pdata	ENDS
;	COMDAT pdata
pdata	SEGMENT
$pdata$?BeginColumns@ImGui@@YAXPEBDHH@Z DD imagerel $LN17
	DD	imagerel $LN17+1707
	DD	imagerel $unwind$?BeginColumns@ImGui@@YAXPEBDHH@Z
pdata	ENDS
;	COMDAT pdata
pdata	SEGMENT
$pdata$?EndColumns@ImGui@@YAXXZ DD imagerel $LN24
	DD	imagerel $LN24+1454
	DD	imagerel $unwind$?EndColumns@ImGui@@YAXXZ
pdata	ENDS
;	COMDAT pdata
pdata	SEGMENT
$pdata$?PushColumnClipRect@ImGui@@YAXH@Z DD imagerel $LN4
	DD	imagerel $LN4+149
	DD	imagerel $unwind$?PushColumnClipRect@ImGui@@YAXH@Z
pdata	ENDS
;	COMDAT pdata
pdata	SEGMENT
$pdata$?PushColumnsBackground@ImGui@@YAXXZ DD imagerel $LN4
	DD	imagerel $LN4+154
	DD	imagerel $unwind$?PushColumnsBackground@ImGui@@YAXXZ
pdata	ENDS
;	COMDAT pdata
pdata	SEGMENT
$pdata$?PopColumnsBackground@ImGui@@YAXXZ DD imagerel $LN4
	DD	imagerel $LN4+132
	DD	imagerel $unwind$?PopColumnsBackground@ImGui@@YAXXZ
pdata	ENDS
;	COMDAT pdata
pdata	SEGMENT
$pdata$?GetColumnsID@ImGui@@YAIPEBDH@Z DD imagerel $LN7
	DD	imagerel $LN7+187
	DD	imagerel $unwind$?GetColumnsID@ImGui@@YAIPEBDH@Z
pdata	ENDS
;	COMDAT pdata
pdata	SEGMENT
$pdata$?FindOrCreateColumns@ImGui@@YAPEAUImGuiOldColumns@@PEAUImGuiWindow@@I@Z DD imagerel $LN8
	DD	imagerel $LN8+279
	DD	imagerel $unwind$?FindOrCreateColumns@ImGui@@YAPEAUImGuiOldColumns@@PEAUImGuiWindow@@I@Z
pdata	ENDS
;	COMDAT pdata
pdata	SEGMENT
$pdata$?dtor$0@?0??FindOrCreateColumns@ImGui@@YAPEAUImGuiOldColumns@@PEAUImGuiWindow@@I@Z@4HA DD imagerel ?dtor$0@?0??FindOrCreateColumns@ImGui@@YAPEAUImGuiOldColumns@@PEAUImGuiWindow@@I@Z@4HA
	DD	imagerel ?dtor$0@?0??FindOrCreateColumns@ImGui@@YAPEAUImGuiOldColumns@@PEAUImGuiWindow@@I@Z@4HA+39
	DD	imagerel $unwind$?dtor$0@?0??FindOrCreateColumns@ImGui@@YAPEAUImGuiOldColumns@@PEAUImGuiWindow@@I@Z@4HA
pdata	ENDS
;	COMDAT pdata
pdata	SEGMENT
$pdata$?GetColumnOffsetFromNorm@ImGui@@YAMPEBUImGuiOldColumns@@M@Z DD imagerel $LN3
	DD	imagerel $LN3+97
	DD	imagerel $unwind$?GetColumnOffsetFromNorm@ImGui@@YAMPEBUImGuiOldColumns@@M@Z
pdata	ENDS
;	COMDAT pdata
pdata	SEGMENT
$pdata$?GetColumnNormFromOffset@ImGui@@YAMPEBUImGuiOldColumns@@M@Z DD imagerel $LN3
	DD	imagerel $LN3+97
	DD	imagerel $unwind$?GetColumnNormFromOffset@ImGui@@YAMPEBUImGuiOldColumns@@M@Z
pdata	ENDS
;	COMDAT pdata
pdata	SEGMENT
$pdata$?TableOpenContextMenu@ImGui@@YAXH@Z DD imagerel $LN8
	DD	imagerel $LN8+284
	DD	imagerel $unwind$?TableOpenContextMenu@ImGui@@YAXH@Z
pdata	ENDS
;	COMDAT pdata
pdata	SEGMENT
$pdata$?TableSetColumnWidth@ImGui@@YAXHM@Z DD imagerel $LN23
	DD	imagerel $LN23+926
	DD	imagerel $unwind$?TableSetColumnWidth@ImGui@@YAXHM@Z
pdata	ENDS
;	COMDAT pdata
pdata	SEGMENT
$pdata$?TableSetColumnSortDirection@ImGui@@YAXHH_N@Z DD imagerel $LN20
	DD	imagerel $LN20+589
	DD	imagerel $unwind$?TableSetColumnSortDirection@ImGui@@YAXHH_N@Z
pdata	ENDS
;	COMDAT pdata
pdata	SEGMENT
$pdata$?TableGetHoveredColumn@ImGui@@YAHXZ DD imagerel $LN4
	DD	imagerel $LN4+89
	DD	imagerel $unwind$?TableGetHoveredColumn@ImGui@@YAHXZ
pdata	ENDS
;	COMDAT pdata
pdata	SEGMENT
$pdata$?TableGetHeaderRowHeight@ImGui@@YAMXZ DD imagerel $LN7
	DD	imagerel $LN7+223
	DD	imagerel $unwind$?TableGetHeaderRowHeight@ImGui@@YAMXZ
pdata	ENDS
;	COMDAT pdata
pdata	SEGMENT
$pdata$?TablePushBackgroundChannel@ImGui@@YAXXZ DD imagerel $LN3
	DD	imagerel $LN3+175
	DD	imagerel $unwind$?TablePushBackgroundChannel@ImGui@@YAXXZ
pdata	ENDS
;	COMDAT pdata
pdata	SEGMENT
$pdata$?TablePopBackgroundChannel@ImGui@@YAXXZ DD imagerel $LN3
	DD	imagerel $LN3+168
	DD	imagerel $unwind$?TablePopBackgroundChannel@ImGui@@YAXXZ
pdata	ENDS
;	COMDAT pdata
pdata	SEGMENT
$pdata$?TableFindByID@ImGui@@YAPEAUImGuiTable@@I@Z DD imagerel $LN3
	DD	imagerel $LN3+85
	DD	imagerel $unwind$?TableFindByID@ImGui@@YAPEAUImGuiTable@@I@Z
pdata	ENDS
;	COMDAT pdata
pdata	SEGMENT
$pdata$?BeginTableEx@ImGui@@YA_NPEBDIHHAEBUImVec2@@M@Z DD imagerel $LN88
	DD	imagerel $LN88+5345
	DD	imagerel $unwind$?BeginTableEx@ImGui@@YA_NPEBDIHHAEBUImVec2@@M@Z
pdata	ENDS
;	COMDAT pdata
pdata	SEGMENT
$pdata$?dtor$0@?0??BeginTableEx@ImGui@@YA_NPEBDIHHAEBUImVec2@@M@Z@4HA DD imagerel ?dtor$0@?0??BeginTableEx@ImGui@@YA_NPEBDIHHAEBUImVec2@@M@Z@4HA
	DD	imagerel ?dtor$0@?0??BeginTableEx@ImGui@@YA_NPEBDIHHAEBUImVec2@@M@Z@4HA+39
	DD	imagerel $unwind$?dtor$0@?0??BeginTableEx@ImGui@@YA_NPEBDIHHAEBUImVec2@@M@Z@4HA
pdata	ENDS
;	COMDAT pdata
pdata	SEGMENT
$pdata$?TableBeginInitMemory@ImGui@@YAXPEAUImGuiTable@@H@Z DD imagerel $LN6
	DD	imagerel $LN6+528
	DD	imagerel $unwind$?TableBeginInitMemory@ImGui@@YAXPEAUImGuiTable@@H@Z
pdata	ENDS
;	COMDAT pdata
pdata	SEGMENT
$pdata$?TableBeginApplyRequests@ImGui@@YAXPEAUImGuiTable@@@Z DD imagerel $LN25
	DD	imagerel $LN25+1217
	DD	imagerel $unwind$?TableBeginApplyRequests@ImGui@@YAXPEAUImGuiTable@@@Z
pdata	ENDS
;	COMDAT pdata
pdata	SEGMENT
$pdata$?TableSetupDrawChannels@ImGui@@YAXPEAUImGuiTable@@@Z DD imagerel $LN22
	DD	imagerel $LN22+978
	DD	imagerel $unwind$?TableSetupDrawChannels@ImGui@@YAXPEAUImGuiTable@@@Z
pdata	ENDS
;	COMDAT pdata
pdata	SEGMENT
$pdata$?TableUpdateLayout@ImGui@@YAXPEAUImGuiTable@@@Z DD imagerel $LN118
	DD	imagerel $LN118+7666
	DD	imagerel $unwind$?TableUpdateLayout@ImGui@@YAXPEAUImGuiTable@@@Z
pdata	ENDS
;	COMDAT pdata
pdata	SEGMENT
$pdata$?TableUpdateBorders@ImGui@@YAXPEAUImGuiTable@@@Z DD imagerel $LN21
	DD	imagerel $LN21+1180
	DD	imagerel $unwind$?TableUpdateBorders@ImGui@@YAXPEAUImGuiTable@@@Z
pdata	ENDS
;	COMDAT pdata
pdata	SEGMENT
$pdata$?TableUpdateColumnsWeightFromWidth@ImGui@@YAXPEAUImGuiTable@@@Z DD imagerel $LN19
	DD	imagerel $LN19+592
	DD	imagerel $unwind$?TableUpdateColumnsWeightFromWidth@ImGui@@YAXPEAUImGuiTable@@@Z
pdata	ENDS
;	COMDAT pdata
pdata	SEGMENT
$pdata$?TableDrawBorders@ImGui@@YAXPEAUImGuiTable@@@Z DD imagerel $LN46
	DD	imagerel $LN46+2305
	DD	imagerel $unwind$?TableDrawBorders@ImGui@@YAXPEAUImGuiTable@@@Z
pdata	ENDS
;	COMDAT pdata
pdata	SEGMENT
$pdata$?TableDrawContextMenu@ImGui@@YAXPEAUImGuiTable@@@Z DD imagerel $LN34
	DD	imagerel $LN34+1044
	DD	imagerel $unwind$?TableDrawContextMenu@ImGui@@YAXPEAUImGuiTable@@@Z
pdata	ENDS
;	COMDAT pdata
pdata	SEGMENT
$pdata$?TableBeginContextMenuPopup@ImGui@@YA_NPEAUImGuiTable@@@Z DD imagerel $LN6
	DD	imagerel $LN6+167
	DD	imagerel $unwind$?TableBeginContextMenuPopup@ImGui@@YA_NPEAUImGuiTable@@@Z
pdata	ENDS
;	COMDAT pdata
pdata	SEGMENT
$pdata$?TableMergeDrawChannels@ImGui@@YAXPEAUImGuiTable@@@Z DD imagerel $LN65
	DD	imagerel $LN65+3177
	DD	imagerel $unwind$?TableMergeDrawChannels@ImGui@@YAXPEAUImGuiTable@@@Z
pdata	ENDS
;	COMDAT pdata
pdata	SEGMENT
$pdata$?TableGetInstanceData@ImGui@@YAPEAUImGuiTableInstanceData@@PEAUImGuiTable@@H@Z DD imagerel $LN4
	DD	imagerel $LN4+109
	DD	imagerel $unwind$?TableGetInstanceData@ImGui@@YAPEAUImGuiTableInstanceData@@PEAUImGuiTable@@H@Z
pdata	ENDS
;	COMDAT pdata
pdata	SEGMENT
$pdata$?TableSortSpecsSanitize@ImGui@@YAXPEAUImGuiTable@@@Z DD imagerel $LN36
	DD	imagerel $LN36+1270
	DD	imagerel $unwind$?TableSortSpecsSanitize@ImGui@@YAXPEAUImGuiTable@@@Z
pdata	ENDS
;	COMDAT pdata
pdata	SEGMENT
$pdata$?TableSortSpecsBuild@ImGui@@YAXPEAUImGuiTable@@@Z DD imagerel $LN16
	DD	imagerel $LN16+651
	DD	imagerel $unwind$?TableSortSpecsBuild@ImGui@@YAXPEAUImGuiTable@@@Z
pdata	ENDS
;	COMDAT pdata
pdata	SEGMENT
$pdata$?TableGetColumnNextSortDirection@ImGui@@YAHPEAUImGuiTableColumn@@@Z DD imagerel $LN10
	DD	imagerel $LN10+303
	DD	imagerel $unwind$?TableGetColumnNextSortDirection@ImGui@@YAHPEAUImGuiTableColumn@@@Z
pdata	ENDS
;	COMDAT pdata
pdata	SEGMENT
$pdata$?TableFixColumnSortDirection@ImGui@@YAXPEAUImGuiTable@@PEAUImGuiTableColumn@@@Z DD imagerel $LN5
	DD	imagerel $LN5+198
	DD	imagerel $unwind$?TableFixColumnSortDirection@ImGui@@YAXPEAUImGuiTable@@PEAUImGuiTableColumn@@@Z
pdata	ENDS
;	COMDAT pdata
pdata	SEGMENT
$pdata$?TableGetColumnWidthAuto@ImGui@@YAMPEAUImGuiTable@@PEAUImGuiTableColumn@@@Z DD imagerel $LN7
	DD	imagerel $LN7+292
	DD	imagerel $unwind$?TableGetColumnWidthAuto@ImGui@@YAMPEAUImGuiTable@@PEAUImGuiTableColumn@@@Z
pdata	ENDS
;	COMDAT pdata
pdata	SEGMENT
$pdata$?TableBeginRow@ImGui@@YAXPEAUImGuiTable@@@Z DD imagerel $LN7
	DD	imagerel $LN7+612
	DD	imagerel $unwind$?TableBeginRow@ImGui@@YAXPEAUImGuiTable@@@Z
pdata	ENDS
;	COMDAT pdata
pdata	SEGMENT
$pdata$?TableEndRow@ImGui@@YAXPEAUImGuiTable@@@Z DD imagerel $LN52
	DD	imagerel $LN52+3189
	DD	imagerel $unwind$?TableEndRow@ImGui@@YAXPEAUImGuiTable@@@Z
pdata	ENDS
;	COMDAT pdata
pdata	SEGMENT
$pdata$?TableBeginCell@ImGui@@YAXPEAUImGuiTable@@H@Z DD imagerel $LN9
	DD	imagerel $LN9+761
	DD	imagerel $unwind$?TableBeginCell@ImGui@@YAXPEAUImGuiTable@@H@Z
pdata	ENDS
;	COMDAT pdata
pdata	SEGMENT
$pdata$?TableEndCell@ImGui@@YAXPEAUImGuiTable@@@Z DD imagerel $LN8
	DD	imagerel $LN8+390
	DD	imagerel $unwind$?TableEndCell@ImGui@@YAXPEAUImGuiTable@@@Z
pdata	ENDS
;	COMDAT pdata
pdata	SEGMENT
$pdata$?TableGetCellBgRect@ImGui@@YA?AUImRect@@PEBUImGuiTable@@H@Z DD imagerel $LN3
	DD	imagerel $LN3+241
	DD	imagerel $unwind$?TableGetCellBgRect@ImGui@@YA?AUImRect@@PEBUImGuiTable@@H@Z
pdata	ENDS
;	COMDAT pdata
pdata	SEGMENT
$pdata$?TableGetColumnName@ImGui@@YAPEBDPEBUImGuiTable@@H@Z DD imagerel $LN5
	DD	imagerel $LN5+185
	DD	imagerel $unwind$?TableGetColumnName@ImGui@@YAPEBDPEBUImGuiTable@@H@Z
pdata	ENDS
;	COMDAT pdata
pdata	SEGMENT
$pdata$?TableGetColumnResizeID@ImGui@@YAIPEBUImGuiTable@@HH@Z DD imagerel $LN5
	DD	imagerel $LN5+169
	DD	imagerel $unwind$?TableGetColumnResizeID@ImGui@@YAIPEBUImGuiTable@@HH@Z
pdata	ENDS
;	COMDAT pdata
pdata	SEGMENT
$pdata$?TableGetMaxColumnWidth@ImGui@@YAMPEBUImGuiTable@@H@Z DD imagerel $LN7
	DD	imagerel $LN7+545
	DD	imagerel $unwind$?TableGetMaxColumnWidth@ImGui@@YAMPEBUImGuiTable@@H@Z
pdata	ENDS
;	COMDAT pdata
pdata	SEGMENT
$pdata$?TableSetColumnWidthAutoSingle@ImGui@@YAXPEAUImGuiTable@@H@Z DD imagerel $LN4
	DD	imagerel $LN4+128
	DD	imagerel $unwind$?TableSetColumnWidthAutoSingle@ImGui@@YAXPEAUImGuiTable@@H@Z
pdata	ENDS
;	COMDAT pdata
pdata	SEGMENT
$pdata$?TableSetColumnWidthAutoAll@ImGui@@YAXPEAUImGuiTable@@@Z DD imagerel $LN7
	DD	imagerel $LN7+155
	DD	imagerel $unwind$?TableSetColumnWidthAutoAll@ImGui@@YAXPEAUImGuiTable@@@Z
pdata	ENDS
;	COMDAT pdata
pdata	SEGMENT
$pdata$?TableRemove@ImGui@@YAXPEAUImGuiTable@@@Z DD imagerel $LN3
	DD	imagerel $LN3+158
	DD	imagerel $unwind$?TableRemove@ImGui@@YAXPEAUImGuiTable@@@Z
pdata	ENDS
;	COMDAT pdata
pdata	SEGMENT
$pdata$?TableGcCompactTransientBuffers@ImGui@@YAXPEAUImGuiTable@@@Z DD imagerel $LN7
	DD	imagerel $LN7+323
	DD	imagerel $unwind$?TableGcCompactTransientBuffers@ImGui@@YAXPEAUImGuiTable@@@Z
pdata	ENDS
;	COMDAT pdata
pdata	SEGMENT
$pdata$?TableGcCompactTransientBuffers@ImGui@@YAXPEAUImGuiTableTempData@@@Z DD imagerel $LN3
	DD	imagerel $LN3+91
	DD	imagerel $unwind$?TableGcCompactTransientBuffers@ImGui@@YAXPEAUImGuiTableTempData@@@Z
pdata	ENDS
;	COMDAT pdata
pdata	SEGMENT
$pdata$?TableGcCompactSettings@ImGui@@YAXXZ DD imagerel $LN13
	DD	imagerel $LN13+448
	DD	imagerel $unwind$?TableGcCompactSettings@ImGui@@YAXXZ
pdata	ENDS
;	COMDAT pdata
pdata	SEGMENT
$pdata$?dtor$0@?0??TableGcCompactSettings@ImGui@@YAXXZ@4HA DD imagerel ?dtor$0@?0??TableGcCompactSettings@ImGui@@YAXXZ@4HA
	DD	imagerel ?dtor$0@?0??TableGcCompactSettings@ImGui@@YAXXZ@4HA+36
	DD	imagerel $unwind$?dtor$0@?0??TableGcCompactSettings@ImGui@@YAXXZ@4HA
pdata	ENDS
;	COMDAT pdata
pdata	SEGMENT
$pdata$?TableLoadSettings@ImGui@@YAXPEAUImGuiTable@@@Z DD imagerel $LN27
	DD	imagerel $LN27+1010
	DD	imagerel $unwind$?TableLoadSettings@ImGui@@YAXPEAUImGuiTable@@@Z
pdata	ENDS
;	COMDAT pdata
pdata	SEGMENT
$pdata$?TableSaveSettings@ImGui@@YAXPEAUImGuiTable@@@Z DD imagerel $LN25
	DD	imagerel $LN25+1001
	DD	imagerel $unwind$?TableSaveSettings@ImGui@@YAXPEAUImGuiTable@@@Z
pdata	ENDS
;	COMDAT pdata
pdata	SEGMENT
$pdata$?TableResetSettings@ImGui@@YAXPEAUImGuiTable@@@Z DD imagerel $LN3
	DD	imagerel $LN3+120
	DD	imagerel $unwind$?TableResetSettings@ImGui@@YAXPEAUImGuiTable@@@Z
pdata	ENDS
;	COMDAT pdata
pdata	SEGMENT
$pdata$?TableGetBoundSettings@ImGui@@YAPEAUImGuiTableSettings@@PEAUImGuiTable@@@Z DD imagerel $LN6
	DD	imagerel $LN6+201
	DD	imagerel $unwind$?TableGetBoundSettings@ImGui@@YAPEAUImGuiTableSettings@@PEAUImGuiTable@@@Z
pdata	ENDS
;	COMDAT pdata
pdata	SEGMENT
$pdata$?TableSettingsAddSettingsHandler@ImGui@@YAXXZ DD imagerel $LN3
	DD	imagerel $LN3+192
	DD	imagerel $unwind$?TableSettingsAddSettingsHandler@ImGui@@YAXXZ
pdata	ENDS
;	COMDAT pdata
pdata	SEGMENT
$pdata$?TableSettingsCreate@ImGui@@YAPEAUImGuiTableSettings@@IH@Z DD imagerel $LN3
	DD	imagerel $LN3+132
	DD	imagerel $unwind$?TableSettingsCreate@ImGui@@YAPEAUImGuiTableSettings@@IH@Z
pdata	ENDS
;	COMDAT pdata
pdata	SEGMENT
$pdata$?TableSettingsFindByID@ImGui@@YAPEAUImGuiTableSettings@@I@Z DD imagerel $LN7
	DD	imagerel $LN7+142
	DD	imagerel $unwind$?TableSettingsFindByID@ImGui@@YAPEAUImGuiTableSettings@@I@Z
pdata	ENDS
;	COMDAT pdata
pdata	SEGMENT
$pdata$?DebugNodeTable@ImGui@@YAXPEAUImGuiTable@@@Z DD imagerel $LN39
	DD	imagerel $LN39+3157
	DD	imagerel $unwind$?DebugNodeTable@ImGui@@YAXPEAUImGuiTable@@@Z
pdata	ENDS
;	COMDAT pdata
pdata	SEGMENT
$pdata$?DebugNodeTableSettings@ImGui@@YAXPEAUImGuiTableSettings@@@Z DD imagerel $LN15
	DD	imagerel $LN15+527
	DD	imagerel $unwind$?DebugNodeTableSettings@ImGui@@YAXPEAUImGuiTableSettings@@@Z
pdata	ENDS
;	COMDAT pdata
pdata	SEGMENT
$pdata$?TableFixFlags@@YAHHPEAUImGuiWindow@@@Z DD imagerel $LN12
	DD	imagerel $LN12+345
	DD	imagerel $unwind$?TableFixFlags@@YAHHPEAUImGuiWindow@@@Z
pdata	ENDS
;	COMDAT pdata
pdata	SEGMENT
$pdata$??0?$ImSpanAllocator@$05@@QEAA@XZ DD imagerel $LN3
	DD	imagerel $LN3+79
	DD	imagerel $unwind$??0?$ImSpanAllocator@$05@@QEAA@XZ
pdata	ENDS
;	COMDAT pdata
pdata	SEGMENT
$pdata$?Reserve@?$ImSpanAllocator@$05@@QEAAXH_KH@Z DD imagerel $LN5
	DD	imagerel $LN5+263
	DD	imagerel $unwind$?Reserve@?$ImSpanAllocator@$05@@QEAAXH_KH@Z
pdata	ENDS
;	COMDAT pdata
pdata	SEGMENT
$pdata$?GetArenaSizeInBytes@?$ImSpanAllocator@$05@@QEAAHXZ DD imagerel $LN3
	DD	imagerel $LN3+60
	DD	imagerel $unwind$?GetArenaSizeInBytes@?$ImSpanAllocator@$05@@QEAAHXZ
pdata	ENDS
;	COMDAT pdata
pdata	SEGMENT
$pdata$?SetArenaBasePtr@?$ImSpanAllocator@$05@@QEAAXPEAX@Z DD imagerel $LN3
	DD	imagerel $LN3+72
	DD	imagerel $unwind$?SetArenaBasePtr@?$ImSpanAllocator@$05@@QEAAXPEAX@Z
pdata	ENDS
;	COMDAT pdata
pdata	SEGMENT
$pdata$?GetSpanPtrBegin@?$ImSpanAllocator@$05@@QEAAPEAXH@Z DD imagerel $LN5
	DD	imagerel $LN5+144
	DD	imagerel $unwind$?GetSpanPtrBegin@?$ImSpanAllocator@$05@@QEAAPEAXH@Z
pdata	ENDS
;	COMDAT pdata
pdata	SEGMENT
$pdata$?GetSpanPtrEnd@?$ImSpanAllocator@$05@@QEAAPEAXH@Z DD imagerel $LN5
	DD	imagerel $LN5+172
	DD	imagerel $unwind$?GetSpanPtrEnd@?$ImSpanAllocator@$05@@QEAAPEAXH@Z
pdata	ENDS
;	COMDAT pdata
pdata	SEGMENT
$pdata$??$GetSpan@UImGuiTableColumn@@@?$ImSpanAllocator@$05@@QEAAXHPEAU?$ImSpan@UImGuiTableColumn@@@@@Z DD imagerel $LN3
	DD	imagerel $LN3+129
	DD	imagerel $unwind$??$GetSpan@UImGuiTableColumn@@@?$ImSpanAllocator@$05@@QEAAXHPEAU?$ImSpan@UImGuiTableColumn@@@@@Z
pdata	ENDS
;	COMDAT pdata
pdata	SEGMENT
$pdata$??$GetSpan@F@?$ImSpanAllocator@$05@@QEAAXHPEAU?$ImSpan@F@@@Z DD imagerel $LN3
	DD	imagerel $LN3+129
	DD	imagerel $unwind$??$GetSpan@F@?$ImSpanAllocator@$05@@QEAAXHPEAU?$ImSpan@F@@@Z
pdata	ENDS
;	COMDAT pdata
pdata	SEGMENT
$pdata$??$GetSpan@UImGuiTableCellData@@@?$ImSpanAllocator@$05@@QEAAXHPEAU?$ImSpan@UImGuiTableCellData@@@@@Z DD imagerel $LN3
	DD	imagerel $LN3+129
	DD	imagerel $unwind$??$GetSpan@UImGuiTableCellData@@@?$ImSpanAllocator@$05@@QEAAXHPEAU?$ImSpan@UImGuiTableCellData@@@@@Z
pdata	ENDS
;	COMDAT pdata
pdata	SEGMENT
$pdata$?TableSetupColumnFlags@@YAXPEAUImGuiTable@@PEAUImGuiTableColumn@@H@Z DD imagerel ?TableSetupColumnFlags@@YAXPEAUImGuiTable@@PEAUImGuiTableColumn@@H@Z
	DD	imagerel ?TableSetupColumnFlags@@YAXPEAUImGuiTable@@PEAUImGuiTableColumn@@H@Z+955
	DD	imagerel $unwind$?TableSetupColumnFlags@@YAXPEAUImGuiTable@@PEAUImGuiTableColumn@@H@Z
pdata	ENDS
;	COMDAT pdata
pdata	SEGMENT
$pdata$??$ImClamp@M@@YAMMMM@Z DD imagerel ??$ImClamp@M@@YAMMMM@Z
	DD	imagerel ??$ImClamp@M@@YAMMMM@Z+167
	DD	imagerel $unwind$??$ImClamp@M@@YAMMMM@Z
pdata	ENDS
;	COMDAT pdata
pdata	SEGMENT
$pdata$??$ImSwap@F@@YAXAEAF0@Z DD imagerel ??$ImSwap@F@@YAXAEAF0@Z
	DD	imagerel ??$ImSwap@F@@YAXAEAF0@Z+103
	DD	imagerel $unwind$??$ImSwap@F@@YAXAEAF0@Z
pdata	ENDS
;	COMDAT pdata
pdata	SEGMENT
$pdata$??0MergeGroup@?1??TableMergeDrawChannels@ImGui@@YAXPEAUImGuiTable@@@Z@QEAA@XZ DD imagerel ??0MergeGroup@?1??TableMergeDrawChannels@ImGui@@YAXPEAUImGuiTable@@@Z@QEAA@XZ
	DD	imagerel ??0MergeGroup@?1??TableMergeDrawChannels@ImGui@@YAXPEAUImGuiTable@@@Z@QEAA@XZ+74
	DD	imagerel $unwind$??0MergeGroup@?1??TableMergeDrawChannels@ImGui@@YAXPEAUImGuiTable@@@Z@QEAA@XZ
pdata	ENDS
;	COMDAT pdata
pdata	SEGMENT
$pdata$?TableGetColumnAvailSortDirection@@YAHPEAUImGuiTableColumn@@H@Z DD imagerel ?TableGetColumnAvailSortDirection@@YAHPEAUImGuiTableColumn@@H@Z
	DD	imagerel ?TableGetColumnAvailSortDirection@@YAHPEAUImGuiTableColumn@@H@Z+140
	DD	imagerel $unwind$?TableGetColumnAvailSortDirection@@YAHPEAUImGuiTableColumn@@H@Z
pdata	ENDS
;	COMDAT pdata
pdata	SEGMENT
$pdata$??$ImMax@F@@YAFFF@Z DD imagerel ??$ImMax@F@@YAFFF@Z
	DD	imagerel ??$ImMax@F@@YAFFF@Z+110
	DD	imagerel $unwind$??$ImMax@F@@YAFFF@Z
pdata	ENDS
;	COMDAT pdata
pdata	SEGMENT
$pdata$?TableSettingsInit@@YAXPEAUImGuiTableSettings@@IHH@Z DD imagerel ?TableSettingsInit@@YAXPEAUImGuiTableSettings@@IHH@Z
	DD	imagerel ?TableSettingsInit@@YAXPEAUImGuiTableSettings@@IHH@Z+405
	DD	imagerel $unwind$?TableSettingsInit@@YAXPEAUImGuiTableSettings@@IHH@Z
pdata	ENDS
;	COMDAT pdata
pdata	SEGMENT
$pdata$?dtor$0@?0??TableSettingsInit@@YAXPEAUImGuiTableSettings@@IHH@Z@4HA DD imagerel ?dtor$0@?0??TableSettingsInit@@YAXPEAUImGuiTableSettings@@IHH@Z@4HA
	DD	imagerel ?dtor$0@?0??TableSettingsInit@@YAXPEAUImGuiTableSettings@@IHH@Z@4HA+56
	DD	imagerel $unwind$?dtor$0@?0??TableSettingsInit@@YAXPEAUImGuiTableSettings@@IHH@Z@4HA
pdata	ENDS
;	COMDAT pdata
pdata	SEGMENT
$pdata$?dtor$1@?0??TableSettingsInit@@YAXPEAUImGuiTableSettings@@IHH@Z@4HA DD imagerel ?dtor$1@?0??TableSettingsInit@@YAXPEAUImGuiTableSettings@@IHH@Z@4HA
	DD	imagerel ?dtor$1@?0??TableSettingsInit@@YAXPEAUImGuiTableSettings@@IHH@Z@4HA+53
	DD	imagerel $unwind$?dtor$1@?0??TableSettingsInit@@YAXPEAUImGuiTableSettings@@IHH@Z@4HA
pdata	ENDS
;	COMDAT pdata
pdata	SEGMENT
$pdata$?TableSettingsCalcChunkSize@@YA_KH@Z DD imagerel ?TableSettingsCalcChunkSize@@YA_KH@Z
	DD	imagerel ?TableSettingsCalcChunkSize@@YA_KH@Z+63
	DD	imagerel $unwind$?TableSettingsCalcChunkSize@@YA_KH@Z
pdata	ENDS
;	COMDAT pdata
pdata	SEGMENT
$pdata$?TableSettingsHandler_ClearAll@@YAXPEAUImGuiContext@@PEAUImGuiSettingsHandler@@@Z DD imagerel ?TableSettingsHandler_ClearAll@@YAXPEAUImGuiContext@@PEAUImGuiSettingsHandler@@@Z
	DD	imagerel ?TableSettingsHandler_ClearAll@@YAXPEAUImGuiContext@@PEAUImGuiSettingsHandler@@@Z+171
	DD	imagerel $unwind$?TableSettingsHandler_ClearAll@@YAXPEAUImGuiContext@@PEAUImGuiSettingsHandler@@@Z
pdata	ENDS
;	COMDAT pdata
pdata	SEGMENT
$pdata$?TableSettingsHandler_ApplyAll@@YAXPEAUImGuiContext@@PEAUImGuiSettingsHandler@@@Z DD imagerel ?TableSettingsHandler_ApplyAll@@YAXPEAUImGuiContext@@PEAUImGuiSettingsHandler@@@Z
	DD	imagerel ?TableSettingsHandler_ApplyAll@@YAXPEAUImGuiContext@@PEAUImGuiSettingsHandler@@@Z+164
	DD	imagerel $unwind$?TableSettingsHandler_ApplyAll@@YAXPEAUImGuiContext@@PEAUImGuiSettingsHandler@@@Z
pdata	ENDS
;	COMDAT pdata
pdata	SEGMENT
$pdata$?TableSettingsHandler_ReadOpen@@YAPEAXPEAUImGuiContext@@PEAUImGuiSettingsHandler@@PEBD@Z DD imagerel ?TableSettingsHandler_ReadOpen@@YAPEAXPEAUImGuiContext@@PEAUImGuiSettingsHandler@@PEBD@Z
	DD	imagerel ?TableSettingsHandler_ReadOpen@@YAPEAXPEAUImGuiContext@@PEAUImGuiSettingsHandler@@PEBD@Z+252
	DD	imagerel $unwind$?TableSettingsHandler_ReadOpen@@YAPEAXPEAUImGuiContext@@PEAUImGuiSettingsHandler@@PEBD@Z
pdata	ENDS
;	COMDAT pdata
pdata	SEGMENT
$pdata$?TableSettingsHandler_ReadLine@@YAXPEAUImGuiContext@@PEAUImGuiSettingsHandler@@PEAXPEBD@Z DD imagerel ?TableSettingsHandler_ReadLine@@YAXPEAUImGuiContext@@PEAUImGuiSettingsHandler@@PEAXPEBD@Z
	DD	imagerel ?TableSettingsHandler_ReadLine@@YAXPEAUImGuiContext@@PEAUImGuiSettingsHandler@@PEAXPEBD@Z+1092
	DD	imagerel $unwind$?TableSettingsHandler_ReadLine@@YAXPEAUImGuiContext@@PEAUImGuiSettingsHandler@@PEAXPEBD@Z
pdata	ENDS
;	COMDAT pdata
pdata	SEGMENT
$pdata$?TableSettingsHandler_WriteAll@@YAXPEAUImGuiContext@@PEAUImGuiSettingsHandler@@PEAUImGuiTextBuffer@@@Z DD imagerel ?TableSettingsHandler_WriteAll@@YAXPEAUImGuiContext@@PEAUImGuiSettingsHandler@@PEAUImGuiTextBuffer@@@Z
	DD	imagerel ?TableSettingsHandler_WriteAll@@YAXPEAUImGuiContext@@PEAUImGuiSettingsHandler@@PEAUImGuiTextBuffer@@@Z+1153
	DD	imagerel $unwind$?TableSettingsHandler_WriteAll@@YAXPEAUImGuiContext@@PEAUImGuiSettingsHandler@@PEAUImGuiTextBuffer@@@Z
pdata	ENDS
;	COMDAT pdata
pdata	SEGMENT
$pdata$?DebugNodeTableGetSizingPolicyDesc@@YAPEBDH@Z DD imagerel ?DebugNodeTableGetSizingPolicyDesc@@YAPEBDH@Z
	DD	imagerel ?DebugNodeTableGetSizingPolicyDesc@@YAPEBDH@Z+156
	DD	imagerel $unwind$?DebugNodeTableGetSizingPolicyDesc@@YAPEBDH@Z
pdata	ENDS
;	COMDAT pdata
pdata	SEGMENT
$pdata$?GetDraggedColumnOffset@@YAMPEAUImGuiOldColumns@@H@Z DD imagerel ?GetDraggedColumnOffset@@YAMPEAUImGuiOldColumns@@H@Z
	DD	imagerel ?GetDraggedColumnOffset@@YAMPEAUImGuiOldColumns@@H@Z+344
	DD	imagerel $unwind$?GetDraggedColumnOffset@@YAMPEAUImGuiOldColumns@@H@Z
pdata	ENDS
;	COMDAT pdata
pdata	SEGMENT
$pdata$??$ImLerp@M@@YAMMMM@Z DD imagerel ??$ImLerp@M@@YAMMMM@Z
	DD	imagerel ??$ImLerp@M@@YAMMMM@Z+96
	DD	imagerel $unwind$??$ImLerp@M@@YAMMMM@Z
pdata	ENDS
;	COMDAT pdata
pdata	SEGMENT
$pdata$?GetColumnWidthEx@@YAMPEAUImGuiOldColumns@@H_N@Z DD imagerel ?GetColumnWidthEx@@YAMPEAUImGuiOldColumns@@H_N@Z
	DD	imagerel ?GetColumnWidthEx@@YAMPEAUImGuiOldColumns@@H_N@Z+268
	DD	imagerel $unwind$?GetColumnWidthEx@@YAMPEAUImGuiOldColumns@@H_N@Z
pdata	ENDS
;	COMDAT __real@ff7fffff
CONST	SEGMENT
__real@ff7fffff DD 0ff7fffffr			; -3.40282e+38
CONST	ENDS
;	COMDAT __real@bf800000
CONST	SEGMENT
__real@bf800000 DD 0bf800000r			; -1
CONST	ENDS
;	COMDAT __real@7f7fffff
CONST	SEGMENT
__real@7f7fffff DD 07f7fffffr			; 3.40282e+38
CONST	ENDS
;	COMDAT __real@42c80000
CONST	SEGMENT
__real@42c80000 DD 042c80000r			; 100
CONST	ENDS
;	COMDAT __real@40800000
CONST	SEGMENT
__real@40800000 DD 040800000r			; 4
CONST	ENDS
;	COMDAT __real@40000000
CONST	SEGMENT
__real@40000000 DD 040000000r			; 2
CONST	ENDS
;	COMDAT __real@3f800000
CONST	SEGMENT
__real@3f800000 DD 03f800000r			; 1
CONST	ENDS
;	COMDAT __real@3f333333
CONST	SEGMENT
__real@3f333333 DD 03f333333r			; 0.7
CONST	ENDS
;	COMDAT __real@3f266666
CONST	SEGMENT
__real@3f266666 DD 03f266666r			; 0.65
CONST	ENDS
;	COMDAT __real@3f000000
CONST	SEGMENT
__real@3f000000 DD 03f000000r			; 0.5
CONST	ENDS
;	COMDAT __real@3d75c28f
CONST	SEGMENT
__real@3d75c28f DD 03d75c28fr			; 0.06
CONST	ENDS
;	COMDAT __real@3c23d70a
CONST	SEGMENT
__real@3c23d70a DD 03c23d70ar			; 0.01
CONST	ENDS
;	COMDAT __real@00800000
CONST	SEGMENT
__real@00800000 DD 000800000r			; 1.17549e-38
CONST	ENDS
;	COMDAT __real@00000000
CONST	SEGMENT
__real@00000000 DD 000000000r			; 0
CONST	ENDS
;	COMDAT rtc$TMZ
rtc$TMZ	SEGMENT
_RTC_Shutdown.rtc$TMZ DQ FLAT:_RTC_Shutdown
rtc$TMZ	ENDS
;	COMDAT rtc$IMZ
rtc$IMZ	SEGMENT
_RTC_InitBase.rtc$IMZ DQ FLAT:_RTC_InitBase
rtc$IMZ	ENDS
;	COMDAT ??_C@_1FC@BIEMKEOL@?$AAp?$AA?5?$AA?$DO?$AA?$DN?$AA?5?$AAB?$AAu?$AAf?$AA?4?$AAD?$AAa?$AAt?$AAa?$AA?5?$AA?$CG?$AA?$CG?$AA?5?$AAp?$AA?5?$AA?$DM?$AA?5?$AAB?$AAu?$AAf?$AA?4?$AAD?$AAa?$AAt?$AAa?$AA?5?$AA?$CL?$AA?5@
CONST	SEGMENT
??_C@_1FC@BIEMKEOL@?$AAp?$AA?5?$AA?$DO?$AA?$DN?$AA?5?$AAB?$AAu?$AAf?$AA?4?$AAD?$AAa?$AAt?$AAa?$AA?5?$AA?$CG?$AA?$CG?$AA?5?$AAp?$AA?5?$AA?$DM?$AA?5?$AAB?$AAu?$AAf?$AA?4?$AAD?$AAa?$AAt?$AAa?$AA?5?$AA?$CL?$AA?5@ DB 'p'
	DB	00H, ' ', 00H, '>', 00H, '=', 00H, ' ', 00H, 'B', 00H, 'u', 00H
	DB	'f', 00H, '.', 00H, 'D', 00H, 'a', 00H, 't', 00H, 'a', 00H, ' '
	DB	00H, '&', 00H, '&', 00H, ' ', 00H, 'p', 00H, ' ', 00H, '<', 00H
	DB	' ', 00H, 'B', 00H, 'u', 00H, 'f', 00H, '.', 00H, 'D', 00H, 'a'
	DB	00H, 't', 00H, 'a', 00H, ' ', 00H, '+', 00H, ' ', 00H, 'B', 00H
	DB	'u', 00H, 'f', 00H, '.', 00H, 'S', 00H, 'i', 00H, 'z', 00H, 'e'
	DB	00H, 00H, 00H				; `string'
CONST	ENDS
;	COMDAT ??_C@_1BE@OEELIPPM@?$AAp?$AA?5?$AA?$DM?$AA?5?$AAe?$AAn?$AAd?$AA?$CI?$AA?$CJ?$AA?$AA@
CONST	SEGMENT
??_C@_1BE@OEELIPPM@?$AAp?$AA?5?$AA?$DM?$AA?5?$AAe?$AAn?$AAd?$AA?$CI?$AA?$CJ?$AA?$AA@ DB 'p'
	DB	00H, ' ', 00H, '<', 00H, ' ', 00H, 'e', 00H, 'n', 00H, 'd', 00H
	DB	'(', 00H, ')', 00H, 00H, 00H			; `string'
CONST	ENDS
;	COMDAT ??_C@_1DE@BDDBABLK@?$AAp?$AA?5?$AA?$DO?$AA?$DN?$AA?5?$AAb?$AAe?$AAg?$AAi?$AAn?$AA?$CI?$AA?$CJ?$AA?5?$AA?$CG?$AA?$CG?$AA?5?$AAp?$AA?5?$AA?$DM?$AA?5?$AAe?$AAn?$AAd?$AA?$CI?$AA?$CJ?$AA?$AA@
CONST	SEGMENT
??_C@_1DE@BDDBABLK@?$AAp?$AA?5?$AA?$DO?$AA?$DN?$AA?5?$AAb?$AAe?$AAg?$AAi?$AAn?$AA?$CI?$AA?$CJ?$AA?5?$AA?$CG?$AA?$CG?$AA?5?$AAp?$AA?5?$AA?$DM?$AA?5?$AAe?$AAn?$AAd?$AA?$CI?$AA?$CJ?$AA?$AA@ DB 'p'
	DB	00H, ' ', 00H, '>', 00H, '=', 00H, ' ', 00H, 'b', 00H, 'e', 00H
	DB	'g', 00H, 'i', 00H, 'n', 00H, '(', 00H, ')', 00H, ' ', 00H, '&'
	DB	00H, '&', 00H, ' ', 00H, 'p', 00H, ' ', 00H, '<', 00H, ' ', 00H
	DB	'e', 00H, 'n', 00H, 'd', 00H, '(', 00H, ')', 00H, 00H, 00H ; `string'
CONST	ENDS
;	COMDAT ??_C@_1DG@EPOMENA@?$AAo?$AAf?$AAf?$AA?5?$AA?$DO?$AA?$DN?$AA?5?$AA4?$AA?5?$AA?$CG?$AA?$CG?$AA?5?$AAo?$AAf?$AAf?$AA?5?$AA?$DM?$AA?5?$AAB?$AAu?$AAf?$AA?4?$AAS?$AAi?$AAz?$AAe?$AA?$AA@
CONST	SEGMENT
??_C@_1DG@EPOMENA@?$AAo?$AAf?$AAf?$AA?5?$AA?$DO?$AA?$DN?$AA?5?$AA4?$AA?5?$AA?$CG?$AA?$CG?$AA?5?$AAo?$AAf?$AAf?$AA?5?$AA?$DM?$AA?5?$AAB?$AAu?$AAf?$AA?4?$AAS?$AAi?$AAz?$AAe?$AA?$AA@ DB 'o'
	DB	00H, 'f', 00H, 'f', 00H, ' ', 00H, '>', 00H, '=', 00H, ' ', 00H
	DB	'4', 00H, ' ', 00H, '&', 00H, '&', 00H, ' ', 00H, 'o', 00H, 'f'
	DB	00H, 'f', 00H, ' ', 00H, '<', 00H, ' ', 00H, 'B', 00H, 'u', 00H
	DB	'f', 00H, '.', 00H, 'S', 00H, 'i', 00H, 'z', 00H, 'e', 00H, 00H
	DB	00H						; `string'
CONST	ENDS
;	COMDAT ??_C@_1BC@KCECIPDP@?$AAS?$AAi?$AAz?$AAe?$AA?5?$AA?$DO?$AA?5?$AA0?$AA?$AA@
CONST	SEGMENT
??_C@_1BC@KCECIPDP@?$AAS?$AAi?$AAz?$AAe?$AA?5?$AA?$DO?$AA?5?$AA0?$AA?$AA@ DB 'S'
	DB	00H, 'i', 00H, 'z', 00H, 'e', 00H, ' ', 00H, '>', 00H, ' ', 00H
	DB	'0', 00H, 00H, 00H				; `string'
CONST	ENDS
;	COMDAT ??_C@_1DG@OANBFKML@?$AAi?$AAt?$AA?5?$AA?$DO?$AA?$DN?$AA?5?$AAD?$AAa?$AAt?$AAa?$AA?5?$AA?$CG?$AA?$CG?$AA?5?$AAi?$AAt?$AA?5?$AA?$DM?$AA?5?$AAD?$AAa?$AAt?$AAa?$AAE?$AAn?$AAd?$AA?$AA@
CONST	SEGMENT
??_C@_1DG@OANBFKML@?$AAi?$AAt?$AA?5?$AA?$DO?$AA?$DN?$AA?5?$AAD?$AAa?$AAt?$AAa?$AA?5?$AA?$CG?$AA?$CG?$AA?5?$AAi?$AAt?$AA?5?$AA?$DM?$AA?5?$AAD?$AAa?$AAt?$AAa?$AAE?$AAn?$AAd?$AA?$AA@ DB 'i'
	DB	00H, 't', 00H, ' ', 00H, '>', 00H, '=', 00H, ' ', 00H, 'D', 00H
	DB	'a', 00H, 't', 00H, 'a', 00H, ' ', 00H, '&', 00H, '&', 00H, ' '
	DB	00H, 'i', 00H, 't', 00H, ' ', 00H, '<', 00H, ' ', 00H, 'D', 00H
	DB	'a', 00H, 't', 00H, 'a', 00H, 'E', 00H, 'n', 00H, 'd', 00H, 00H
	DB	00H						; `string'
CONST	ENDS
;	COMDAT ??_C@_1DC@DHFOGPCD@?$AAp?$AA?5?$AA?$DO?$AA?$DN?$AA?5?$AAD?$AAa?$AAt?$AAa?$AA?5?$AA?$CG?$AA?$CG?$AA?5?$AAp?$AA?5?$AA?$DM?$AA?5?$AAD?$AAa?$AAt?$AAa?$AAE?$AAn?$AAd?$AA?$AA@
CONST	SEGMENT
??_C@_1DC@DHFOGPCD@?$AAp?$AA?5?$AA?$DO?$AA?$DN?$AA?5?$AAD?$AAa?$AAt?$AAa?$AA?5?$AA?$CG?$AA?$CG?$AA?5?$AAp?$AA?5?$AA?$DM?$AA?5?$AAD?$AAa?$AAt?$AAa?$AAE?$AAn?$AAd?$AA?$AA@ DB 'p'
	DB	00H, ' ', 00H, '>', 00H, '=', 00H, ' ', 00H, 'D', 00H, 'a', 00H
	DB	't', 00H, 'a', 00H, ' ', 00H, '&', 00H, '&', 00H, ' ', 00H, 'p'
	DB	00H, ' ', 00H, '<', 00H, ' ', 00H, 'D', 00H, 'a', 00H, 't', 00H
	DB	'a', 00H, 'E', 00H, 'n', 00H, 'd', 00H, 00H, 00H ; `string'
CONST	ENDS
;	COMDAT ??_C@_1CG@GPMNJCJ@?$AAi?$AA?5?$AA?$DO?$AA?$DN?$AA?5?$AA0?$AA?5?$AA?$CG?$AA?$CG?$AA?5?$AAi?$AA?5?$AA?$DM?$AA?5?$AAS?$AAi?$AAz?$AAe?$AA?$AA@
CONST	SEGMENT
??_C@_1CG@GPMNJCJ@?$AAi?$AA?5?$AA?$DO?$AA?$DN?$AA?5?$AA0?$AA?5?$AA?$CG?$AA?$CG?$AA?5?$AAi?$AA?5?$AA?$DM?$AA?5?$AAS?$AAi?$AAz?$AAe?$AA?$AA@ DB 'i'
	DB	00H, ' ', 00H, '>', 00H, '=', 00H, ' ', 00H, '0', 00H, ' ', 00H
	DB	'&', 00H, '&', 00H, ' ', 00H, 'i', 00H, ' ', 00H, '<', 00H, ' '
	DB	00H, 'S', 00H, 'i', 00H, 'z', 00H, 'e', 00H, 00H, 00H ; `string'
CONST	ENDS
;	COMDAT ??_C@_1DG@BODLFGJA@?$AAn?$AA?5?$AA?$DN?$AA?$DN?$AA?5?$AAC?$AAu?$AAr?$AAr?$AAI?$AAd?$AAx?$AA?5?$AA?$CG?$AA?$CG?$AA?5?$AAn?$AA?5?$AA?$DM?$AA?5?$AAC?$AAH?$AAU?$AAN?$AAK?$AAS?$AA?$AA@
CONST	SEGMENT
??_C@_1DG@BODLFGJA@?$AAn?$AA?5?$AA?$DN?$AA?$DN?$AA?5?$AAC?$AAu?$AAr?$AAr?$AAI?$AAd?$AAx?$AA?5?$AA?$CG?$AA?$CG?$AA?5?$AAn?$AA?5?$AA?$DM?$AA?5?$AAC?$AAH?$AAU?$AAN?$AAK?$AAS?$AA?$AA@ DB 'n'
	DB	00H, ' ', 00H, '=', 00H, '=', 00H, ' ', 00H, 'C', 00H, 'u', 00H
	DB	'r', 00H, 'r', 00H, 'I', 00H, 'd', 00H, 'x', 00H, ' ', 00H, '&'
	DB	00H, '&', 00H, ' ', 00H, 'n', 00H, ' ', 00H, '<', 00H, ' ', 00H
	DB	'C', 00H, 'H', 00H, 'U', 00H, 'N', 00H, 'K', 00H, 'S', 00H, 00H
	DB	00H						; `string'
CONST	ENDS
;	COMDAT ??_C@_1FE@GEHGFLGL@?$AAn?$AA?5?$AA?$DO?$AA?$DN?$AA?5?$AA0?$AA?5?$AA?$CG?$AA?$CG?$AA?5?$AAn?$AA?5?$AA?$DM?$AA?5?$AAC?$AAH?$AAU?$AAN?$AAK?$AAS?$AA?5?$AA?$CG?$AA?$CG?$AA?5?$AAC?$AAu?$AAr?$AAr?$AAI?$AAd?$AAx?$AA?5@
CONST	SEGMENT
??_C@_1FE@GEHGFLGL@?$AAn?$AA?5?$AA?$DO?$AA?$DN?$AA?5?$AA0?$AA?5?$AA?$CG?$AA?$CG?$AA?5?$AAn?$AA?5?$AA?$DM?$AA?5?$AAC?$AAH?$AAU?$AAN?$AAK?$AAS?$AA?5?$AA?$CG?$AA?$CG?$AA?5?$AAC?$AAu?$AAr?$AAr?$AAI?$AAd?$AAx?$AA?5@ DB 'n'
	DB	00H, ' ', 00H, '>', 00H, '=', 00H, ' ', 00H, '0', 00H, ' ', 00H
	DB	'&', 00H, '&', 00H, ' ', 00H, 'n', 00H, ' ', 00H, '<', 00H, ' '
	DB	00H, 'C', 00H, 'H', 00H, 'U', 00H, 'N', 00H, 'K', 00H, 'S', 00H
	DB	' ', 00H, '&', 00H, '&', 00H, ' ', 00H, 'C', 00H, 'u', 00H, 'r'
	DB	00H, 'r', 00H, 'I', 00H, 'd', 00H, 'x', 00H, ' ', 00H, '=', 00H
	DB	'=', 00H, ' ', 00H, 'C', 00H, 'H', 00H, 'U', 00H, 'N', 00H, 'K'
	DB	00H, 'S', 00H, 00H, 00H			; `string'
CONST	ENDS
;	COMDAT ?__LINE__Var@?0??Columns@ImGui@@YAXHPEBD_N@Z@4JA
_DATA	SEGMENT
?__LINE__Var@?0??Columns@ImGui@@YAXHPEBD_N@Z@4JA DD 0ff7H ; `ImGui::Columns'::`1'::__LINE__Var
_DATA	ENDS
;	COMDAT ?__LINE__Var@?0??EndColumns@ImGui@@YAXXZ@4JA
_DATA	SEGMENT
?__LINE__Var@?0??EndColumns@ImGui@@YAXXZ@4JA DD 0facH	; `ImGui::EndColumns'::`1'::__LINE__Var
_DATA	ENDS
;	COMDAT ??_C@_1CM@HCFAHNAF@?$AAc?$AAo?$AAl?$AAu?$AAm?$AAn?$AAs?$AA?9?$AA?$DO?$AAC?$AAu?$AAr?$AAr?$AAe?$AAn?$AAt?$AA?5?$AA?$DN?$AA?$DN?$AA?5?$AA0?$AA?$AA@
CONST	SEGMENT
??_C@_1CM@HCFAHNAF@?$AAc?$AAo?$AAl?$AAu?$AAm?$AAn?$AAs?$AA?9?$AA?$DO?$AAC?$AAu?$AAr?$AAr?$AAe?$AAn?$AAt?$AA?5?$AA?$DN?$AA?$DN?$AA?5?$AA0?$AA?$AA@ DB 'c'
	DB	00H, 'o', 00H, 'l', 00H, 'u', 00H, 'm', 00H, 'n', 00H, 's', 00H
	DB	'-', 00H, '>', 00H, 'C', 00H, 'u', 00H, 'r', 00H, 'r', 00H, 'e'
	DB	00H, 'n', 00H, 't', 00H, ' ', 00H, '=', 00H, '=', 00H, ' ', 00H
	DB	'0', 00H, 00H, 00H				; `string'
CONST	ENDS
;	COMDAT ?__LINE__Var@?0??NextColumn@ImGui@@YAXXZ@4JA
_DATA	SEGMENT
?__LINE__Var@?0??NextColumn@ImGui@@YAXXZ@4JA DD 0f74H	; `ImGui::NextColumn'::`1'::__LINE__Var
_DATA	ENDS
;	COMDAT ??_C@_1CE@IJEAECLN@?$AAc?$AAo?$AAl?$AAu?$AAm?$AAn?$AAs?$AA?9?$AA?$DO?$AAI?$AAD?$AA?5?$AA?$DN?$AA?$DN?$AA?5?$AAi?$AAd?$AA?$AA@
CONST	SEGMENT
??_C@_1CE@IJEAECLN@?$AAc?$AAo?$AAl?$AAu?$AAm?$AAn?$AAs?$AA?9?$AA?$DO?$AAI?$AAD?$AA?5?$AA?$DN?$AA?$DN?$AA?5?$AAi?$AAd?$AA?$AA@ DB 'c'
	DB	00H, 'o', 00H, 'l', 00H, 'u', 00H, 'm', 00H, 'n', 00H, 's', 00H
	DB	'-', 00H, '>', 00H, 'I', 00H, 'D', 00H, ' ', 00H, '=', 00H, '='
	DB	00H, ' ', 00H, 'i', 00H, 'd', 00H, 00H, 00H	; `string'
CONST	ENDS
;	COMDAT ??_C@_1DO@BPFJENMI@?$AAw?$AAi?$AAn?$AAd?$AAo?$AAw?$AA?9?$AA?$DO?$AAD?$AAC?$AA?4?$AAC?$AAu?$AAr?$AAr?$AAe?$AAn?$AAt?$AAC?$AAo?$AAl?$AAu?$AAm?$AAn?$AAs?$AA?5?$AA?$DN?$AA?$DN?$AA?5?$AA0?$AA?$AA@
CONST	SEGMENT
??_C@_1DO@BPFJENMI@?$AAw?$AAi?$AAn?$AAd?$AAo?$AAw?$AA?9?$AA?$DO?$AAD?$AAC?$AA?4?$AAC?$AAu?$AAr?$AAr?$AAe?$AAn?$AAt?$AAC?$AAo?$AAl?$AAu?$AAm?$AAn?$AAs?$AA?5?$AA?$DN?$AA?$DN?$AA?5?$AA0?$AA?$AA@ DB 'w'
	DB	00H, 'i', 00H, 'n', 00H, 'd', 00H, 'o', 00H, 'w', 00H, '-', 00H
	DB	'>', 00H, 'D', 00H, 'C', 00H, '.', 00H, 'C', 00H, 'u', 00H, 'r'
	DB	00H, 'r', 00H, 'e', 00H, 'n', 00H, 't', 00H, 'C', 00H, 'o', 00H
	DB	'l', 00H, 'u', 00H, 'm', 00H, 'n', 00H, 's', 00H, ' ', 00H, '='
	DB	00H, '=', 00H, ' ', 00H, '0', 00H, 00H, 00H	; `string'
CONST	ENDS
;	COMDAT ??_C@_1CG@GDAJJGIO@?$AAc?$AAo?$AAl?$AAu?$AAm?$AAn?$AAs?$AA_?$AAc?$AAo?$AAu?$AAn?$AAt?$AA?5?$AA?$DO?$AA?$DN?$AA?5?$AA1?$AA?$AA@
CONST	SEGMENT
??_C@_1CG@GDAJJGIO@?$AAc?$AAo?$AAl?$AAu?$AAm?$AAn?$AAs?$AA_?$AAc?$AAo?$AAu?$AAn?$AAt?$AA?5?$AA?$DO?$AA?$DN?$AA?5?$AA1?$AA?$AA@ DB 'c'
	DB	00H, 'o', 00H, 'l', 00H, 'u', 00H, 'm', 00H, 'n', 00H, 's', 00H
	DB	'_', 00H, 'c', 00H, 'o', 00H, 'u', 00H, 'n', 00H, 't', 00H, ' '
	DB	00H, '>', 00H, '=', 00H, ' ', 00H, '1', 00H, 00H, 00H ; `string'
CONST	ENDS
;	COMDAT ?__LINE__Var@?0??BeginColumns@ImGui@@YAXPEBDHH@Z@4JA
_DATA	SEGMENT
?__LINE__Var@?0??BeginColumns@ImGui@@YAXPEBDHH@Z@4JA DD 0f27H ; `ImGui::BeginColumns'::`1'::__LINE__Var
_DATA	ENDS
;	COMDAT ??_C@_07HIFEPIJN@columns?$AA@
CONST	SEGMENT
??_C@_07HIFEPIJN@columns?$AA@ DB 'columns', 00H		; `string'
CONST	ENDS
;	COMDAT ?__LINE__Var@?0??SetColumnWidth@ImGui@@YAXHM@Z@4JA
_DATA	SEGMENT
?__LINE__Var@?0??SetColumnWidth@ImGui@@YAXHM@Z@4JA DD 0eddH ; `ImGui::SetColumnWidth'::`1'::__LINE__Var
_DATA	ENDS
;	COMDAT ??_C@_1BK@FLGDBJKG@?$AAc?$AAo?$AAl?$AAu?$AAm?$AAn?$AAs?$AA?5?$AA?$CB?$AA?$DN?$AA?5?$AA0?$AA?$AA@
CONST	SEGMENT
??_C@_1BK@FLGDBJKG@?$AAc?$AAo?$AAl?$AAu?$AAm?$AAn?$AAs?$AA?5?$AA?$CB?$AA?$DN?$AA?5?$AA0?$AA?$AA@ DB 'c'
	DB	00H, 'o', 00H, 'l', 00H, 'u', 00H, 'm', 00H, 'n', 00H, 's', 00H
	DB	' ', 00H, '!', 00H, '=', 00H, ' ', 00H, '0', 00H, 00H, 00H ; `string'
CONST	ENDS
;	COMDAT ?__LINE__Var@?0??SetColumnOffset@ImGui@@YAXHM@Z@4JA
_DATA	SEGMENT
?__LINE__Var@?0??SetColumnOffset@ImGui@@YAXHM@Z@4JA DD 0ec7H ; `ImGui::SetColumnOffset'::`1'::__LINE__Var
_DATA	ENDS
;	COMDAT ??_C@_1EK@FCGFMMCK@?$AAc?$AAo?$AAl?$AAu?$AAm?$AAn?$AA_?$AAi?$AAn?$AAd?$AAe?$AAx?$AA?5?$AA?$DM?$AA?5?$AAc?$AAo?$AAl?$AAu?$AAm?$AAn?$AAs?$AA?9?$AA?$DO?$AAC?$AAo?$AAl?$AAu?$AAm?$AAn?$AAs?$AA?4@
CONST	SEGMENT
??_C@_1EK@FCGFMMCK@?$AAc?$AAo?$AAl?$AAu?$AAm?$AAn?$AA_?$AAi?$AAn?$AAd?$AAe?$AAx?$AA?5?$AA?$DM?$AA?5?$AAc?$AAo?$AAl?$AAu?$AAm?$AAn?$AAs?$AA?9?$AA?$DO?$AAC?$AAo?$AAl?$AAu?$AAm?$AAn?$AAs?$AA?4@ DB 'c'
	DB	00H, 'o', 00H, 'l', 00H, 'u', 00H, 'm', 00H, 'n', 00H, '_', 00H
	DB	'i', 00H, 'n', 00H, 'd', 00H, 'e', 00H, 'x', 00H, ' ', 00H, '<'
	DB	00H, ' ', 00H, 'c', 00H, 'o', 00H, 'l', 00H, 'u', 00H, 'm', 00H
	DB	'n', 00H, 's', 00H, '-', 00H, '>', 00H, 'C', 00H, 'o', 00H, 'l'
	DB	00H, 'u', 00H, 'm', 00H, 'n', 00H, 's', 00H, '.', 00H, 'S', 00H
	DB	'i', 00H, 'z', 00H, 'e', 00H, 00H, 00H	; `string'
CONST	ENDS
;	COMDAT ?__LINE__Var@?0??GetColumnOffset@ImGui@@YAMH@Z@4JA
_DATA	SEGMENT
?__LINE__Var@?0??GetColumnOffset@ImGui@@YAMH@Z@4JA DD 0e9dH ; `ImGui::GetColumnOffset'::`1'::__LINE__Var
_DATA	ENDS
;	COMDAT ??_C@_1GE@CFLLPKGA@?$AAg?$AA?4?$AAA?$AAc?$AAt?$AAi?$AAv?$AAe?$AAI?$AAd?$AA?5?$AA?$DN?$AA?$DN?$AA?5?$AAc?$AAo?$AAl?$AAu?$AAm?$AAn?$AAs?$AA?9?$AA?$DO?$AAI?$AAD?$AA?5?$AA?$CL?$AA?5?$AAI?$AAm?$AAG?$AAu@
CONST	SEGMENT
??_C@_1GE@CFLLPKGA@?$AAg?$AA?4?$AAA?$AAc?$AAt?$AAi?$AAv?$AAe?$AAI?$AAd?$AA?5?$AA?$DN?$AA?$DN?$AA?5?$AAc?$AAo?$AAl?$AAu?$AAm?$AAn?$AAs?$AA?9?$AA?$DO?$AAI?$AAD?$AA?5?$AA?$CL?$AA?5?$AAI?$AAm?$AAG?$AAu@ DB 'g'
	DB	00H, '.', 00H, 'A', 00H, 'c', 00H, 't', 00H, 'i', 00H, 'v', 00H
	DB	'e', 00H, 'I', 00H, 'd', 00H, ' ', 00H, '=', 00H, '=', 00H, ' '
	DB	00H, 'c', 00H, 'o', 00H, 'l', 00H, 'u', 00H, 'm', 00H, 'n', 00H
	DB	's', 00H, '-', 00H, '>', 00H, 'I', 00H, 'D', 00H, ' ', 00H, '+'
	DB	00H, ' ', 00H, 'I', 00H, 'm', 00H, 'G', 00H, 'u', 00H, 'i', 00H
	DB	'I', 00H, 'D', 00H, '(', 00H, 'c', 00H, 'o', 00H, 'l', 00H, 'u'
	DB	00H, 'm', 00H, 'n', 00H, '_', 00H, 'i', 00H, 'n', 00H, 'd', 00H
	DB	'e', 00H, 'x', 00H, ')', 00H, 00H, 00H	; `string'
CONST	ENDS
;	COMDAT ??_C@_1CC@HNMGCLDB@?$AAc?$AAo?$AAl?$AAu?$AAm?$AAn?$AA_?$AAi?$AAn?$AAd?$AAe?$AAx?$AA?5?$AA?$DO?$AA?5?$AA0?$AA?$AA@
CONST	SEGMENT
??_C@_1CC@HNMGCLDB@?$AAc?$AAo?$AAl?$AAu?$AAm?$AAn?$AA_?$AAi?$AAn?$AAd?$AAe?$AAx?$AA?5?$AA?$DO?$AA?5?$AA0?$AA?$AA@ DB 'c'
	DB	00H, 'o', 00H, 'l', 00H, 'u', 00H, 'm', 00H, 'n', 00H, '_', 00H
	DB	'i', 00H, 'n', 00H, 'd', 00H, 'e', 00H, 'x', 00H, ' ', 00H, '>'
	DB	00H, ' ', 00H, '0', 00H, 00H, 00H		; `string'
CONST	ENDS
;	COMDAT ?__LINE__Var@?0??GetDraggedColumnOffset@@YAMPEAUImGuiOldColumns@@H@Z@4JA
_DATA	SEGMENT
?__LINE__Var@?0??GetDraggedColumnOffset@@YAMPEAUImGuiOldColumns@@H@Z@4JA DD 0e8cH ; `GetDraggedColumnOffset'::`1'::__LINE__Var
_DATA	ENDS
;	COMDAT ??_C@_0EB@CNABLLAJ@Column?5?$CFd?5Order?5?$CFd?5SortOrder?5?$CFd?5@
CONST	SEGMENT
??_C@_0EB@CNABLLAJ@Column?5?$CFd?5Order?5?$CFd?5SortOrder?5?$CFd?5@ DB 'C'
	DB	'olumn %d Order %d SortOrder %d %s Vis %d %s %7.3f UserID 0x%0'
	DB	'8X', 00H					; `string'
CONST	ENDS
;	COMDAT ??_C@_03JMFMNIFM@?9?9?9?$AA@
CONST	SEGMENT
??_C@_03JMFMNIFM@?9?9?9?$AA@ DB '---', 00H		; `string'
CONST	ENDS
;	COMDAT ??_C@_03IAMDMMHH@Des?$AA@
CONST	SEGMENT
??_C@_03IAMDMMHH@Des?$AA@ DB 'Des', 00H			; `string'
CONST	ENDS
;	COMDAT ??_C@_03OFHEPBNG@Asc?$AA@
CONST	SEGMENT
??_C@_03OFHEPBNG@Asc?$AA@ DB 'Asc', 00H			; `string'
CONST	ENDS
;	COMDAT ??_C@_06PALFPBFG@Width?5?$AA@
CONST	SEGMENT
??_C@_06PALFPBFG@Width?5?$AA@ DB 'Width ', 00H		; `string'
CONST	ENDS
;	COMDAT ??_C@_06ODJMJFLN@Weight?$AA@
CONST	SEGMENT
??_C@_06ODJMJFLN@Weight?$AA@ DB 'Weight', 00H		; `string'
CONST	ENDS
;	COMDAT ??_C@_0BK@OLKPLDMA@ColumnsCount?3?5?$CFd?5?$CImax?5?$CFd?$CJ?$AA@
CONST	SEGMENT
??_C@_0BK@OLKPLDMA@ColumnsCount?3?5?$CFd?5?$CImax?5?$CFd?$CJ?$AA@ DB 'Col'
	DB	'umnsCount: %d (max %d)', 00H		; `string'
CONST	ENDS
;	COMDAT ??_C@_0BC@LJHOAHJA@SaveFlags?3?50x?$CF08X?$AA@
CONST	SEGMENT
??_C@_0BC@LJHOAHJA@SaveFlags?3?50x?$CF08X?$AA@ DB 'SaveFlags: 0x%08X', 00H ; `string'
CONST	ENDS
;	COMDAT ??_C@_0BN@LNKMILO@Settings?50x?$CF08X?5?$CI?$CFd?5columns?$CJ?$AA@
CONST	SEGMENT
??_C@_0BN@LNKMILO@Settings?50x?$CF08X?5?$CI?$CFd?5columns?$CJ?$AA@ DB 'Se'
	DB	'ttings 0x%08X (%d columns)', 00H		; `string'
CONST	ENDS
;	COMDAT ??_C@_0BHH@CNHMONCM@Column?5?$CFd?5order?5?$CFd?5?8?$CFs?8?3?5offset?5@
CONST	SEGMENT
??_C@_0BHH@CNHMONCM@Column?5?$CFd?5order?5?$CFd?5?8?$CFs?8?3?5offset?5@ DB 'C'
	DB	'olumn %d order %d ''%s'': offset %+.2f to %+.2f%s', 0aH, 'Ena'
	DB	'bled: %d, VisibleX/Y: %d/%d, RequestOutput: %d, SkipItems: %d'
	DB	', DrawChannels: %d,%d', 0aH, 'WidthGiven: %.1f, Request/Auto:'
	DB	' %.1f/%.1f, StretchWeight: %.3f (%.1f%%)', 0aH, 'MinX: %.1f, '
	DB	'MaxX: %.1f (%+.1f), ClipRect: %.1f to %.1f (+%.1f)', 0aH, 'Co'
	DB	'ntentWidth: %.1f,%.1f, HeadersUsed/Ideal %.1f/%.1f', 0aH, 'So'
	DB	'rt: %d%s, UserID: 0x%08X, Flags: 0x%04X: %s%s%s..', 00H ; `string'
CONST	ENDS
;	COMDAT ??_C@_09LODDIFJL@?5?$CIFrozen?$CJ?$AA@
CONST	SEGMENT
??_C@_09LODDIFJL@?5?$CIFrozen?$CJ?$AA@ DB ' (Frozen)', 00H ; `string'
CONST	ENDS
;	COMDAT ??_C@_06PFKLCOBM@?5?$CIDes?$CJ?$AA@
CONST	SEGMENT
??_C@_06PFKLCOBM@?5?$CIDes?$CJ?$AA@ DB ' (Des)', 00H	; `string'
CONST	ENDS
;	COMDAT ??_C@_06FEBPAKFP@?5?$CIAsc?$CJ?$AA@
CONST	SEGMENT
??_C@_06FEBPAKFP@?5?$CIAsc?$CJ?$AA@ DB ' (Asc)', 00H	; `string'
CONST	ENDS
;	COMDAT ??_C@_0O@PEPBBILL@WidthStretch?5?$AA@
CONST	SEGMENT
??_C@_0O@PEPBBILL@WidthStretch?5?$AA@ DB 'WidthStretch ', 00H ; `string'
CONST	ENDS
;	COMDAT ??_C@_0M@IGDNFKMD@WidthFixed?5?$AA@
CONST	SEGMENT
??_C@_0M@IGDNFKMD@WidthFixed?5?$AA@ DB 'WidthFixed ', 00H ; `string'
CONST	ENDS
;	COMDAT ??_C@_09BHNPHONE@NoResize?5?$AA@
CONST	SEGMENT
??_C@_09BHNPHONE@NoResize?5?$AA@ DB 'NoResize ', 00H	; `string'
CONST	ENDS
;	COMDAT ??_C@_0DL@PBPICJCB@ResizedColumn?3?5?$CFd?0?5ReorderColumn@
CONST	SEGMENT
??_C@_0DL@PBPICJCB@ResizedColumn?3?5?$CFd?0?5ReorderColumn@ DB 'ResizedCo'
	DB	'lumn: %d, ReorderColumn: %d, HeldHeaderColumn: %d', 00H ; `string'
CONST	ENDS
;	COMDAT ??_C@_0CP@NOMNLPPG@HoveredColumnBody?3?5?$CFd?0?5HoveredCo@
CONST	SEGMENT
??_C@_0CP@NOMNLPPG@HoveredColumnBody?3?5?$CFd?0?5HoveredCo@ DB 'HoveredCo'
	DB	'lumnBody: %d, HoveredColumnBorder: %d', 00H	; `string'
CONST	ENDS
;	COMDAT ??_C@_0EB@FOKPBOFF@CellPaddingX?3?5?$CF?41f?0?5CellSpacingX@
CONST	SEGMENT
??_C@_0EB@FOKPBOFF@CellPaddingX?3?5?$CF?41f?0?5CellSpacingX@ DB 'CellPadd'
	DB	'ingX: %.1f, CellSpacingX: %.1f/%.1f, OuterPaddingX: %.1f', 00H ; `string'
CONST	ENDS
;	COMDAT ??_C@_0EH@GODPECNO@ColumnsGivenWidth?3?5?$CF?41f?0?5Columns@
CONST	SEGMENT
??_C@_0EH@GODPECNO@ColumnsGivenWidth?3?5?$CF?41f?0?5Columns@ DB 'ColumnsG'
	DB	'ivenWidth: %.1f, ColumnsAutoFitWidth: %.1f, InnerWidth: %.1f%'
	DB	's', 00H					; `string'
CONST	ENDS
;	COMDAT ??_C@_07IOPDKCEG@?5?$CIauto?$CJ?$AA@
CONST	SEGMENT
??_C@_07IOPDKCEG@?5?$CIauto?$CJ?$AA@ DB ' (auto)', 00H	; `string'
CONST	ENDS
;	COMDAT ??_C@_0DL@BMMMGOOI@OuterRect?3?5Pos?3?5?$CI?$CF?41f?0?$CF?41f?$CJ?5Size@
CONST	SEGMENT
??_C@_0DL@BMMMGOOI@OuterRect?3?5Pos?3?5?$CI?$CF?41f?0?$CF?41f?$CJ?5Size@ DB 'O'
	DB	'uterRect: Pos: (%.1f,%.1f) Size: (%.1f,%.1f) Sizing: ''%s''', 00H ; `string'
CONST	ENDS
;	COMDAT ??_C@_0P@MDFKNKGM@Clear?5settings?$AA@
CONST	SEGMENT
??_C@_0P@MDFKNKGM@Clear?5settings?$AA@ DB 'Clear settings', 00H ; `string'
CONST	ENDS
;	COMDAT ??_C@_0EM@JLKLPOOK@?$CK?$CK?5?$CFd?5instances?5of?5same?5table?$CB?5S@
CONST	SEGMENT
??_C@_0EM@JLKLPOOK@?$CK?$CK?5?$CFd?5instances?5of?5same?5table?$CB?5S@ DB '*'
	DB	'* %d instances of same table! Some data below will refer to l'
	DB	'ast instance.', 00H				; `string'
CONST	ENDS
;	COMDAT ??_C@_02DKCKIIND@?$CFs?$AA@
CONST	SEGMENT
??_C@_02DKCKIIND@?$CFs?$AA@ DB '%s', 00H		; `string'
CONST	ENDS
;	COMDAT ??_C@_0CF@DAHKPIHJ@Table?50x?$CF08X?5?$CI?$CFd?5columns?0?5in?5?8?$CFs@
CONST	SEGMENT
??_C@_0CF@DAHKPIHJ@Table?50x?$CF08X?5?$CI?$CFd?5columns?0?5in?5?8?$CFs@ DB 'T'
	DB	'able 0x%08X (%d columns, in ''%s'')%s', 00H	; `string'
CONST	ENDS
;	COMDAT ??_C@_0M@MDILNFHC@?5?$CKInactive?$CK?$AA@
CONST	SEGMENT
??_C@_0M@MDILNFHC@?5?$CKInactive?$CK?$AA@ DB ' *Inactive*', 00H ; `string'
CONST	ENDS
;	COMDAT ??_C@_03HPADHAHE@N?1A?$AA@
CONST	SEGMENT
??_C@_03HPADHAHE@N?1A?$AA@ DB 'N/A', 00H		; `string'
CONST	ENDS
;	COMDAT ??_C@_0M@LHDDKHJK@StretchSame?$AA@
CONST	SEGMENT
??_C@_0M@LHDDKHJK@StretchSame?$AA@ DB 'StretchSame', 00H ; `string'
CONST	ENDS
;	COMDAT ??_C@_0M@IGAOBHEB@StretchProp?$AA@
CONST	SEGMENT
??_C@_0M@IGAOBHEB@StretchProp?$AA@ DB 'StretchProp', 00H ; `string'
CONST	ENDS
;	COMDAT ??_C@_09OOODJBFG@FixedSame?$AA@
CONST	SEGMENT
??_C@_09OOODJBFG@FixedSame?$AA@ DB 'FixedSame', 00H	; `string'
CONST	ENDS
;	COMDAT ??_C@_08CCPMLANI@FixedFit?$AA@
CONST	SEGMENT
??_C@_08CCPMLANI@FixedFit?$AA@ DB 'FixedFit', 00H	; `string'
CONST	ENDS
;	COMDAT ??_C@_1EA@HDPGNILG@?$AAt?$AAa?$AAb?$AAl?$AAe?$AA?9?$AA?$DO?$AAM?$AAe?$AAm?$AAo?$AAr?$AAy?$AAC?$AAo?$AAm?$AAp?$AAa?$AAc?$AAt?$AAe?$AAd?$AA?5?$AA?$DN?$AA?$DN?$AA?5?$AAf?$AAa?$AAl?$AAs?$AAe?$AA?$AA@
CONST	SEGMENT
??_C@_1EA@HDPGNILG@?$AAt?$AAa?$AAb?$AAl?$AAe?$AA?9?$AA?$DO?$AAM?$AAe?$AAm?$AAo?$AAr?$AAy?$AAC?$AAo?$AAm?$AAp?$AAa?$AAc?$AAt?$AAe?$AAd?$AA?5?$AA?$DN?$AA?$DN?$AA?5?$AAf?$AAa?$AAl?$AAs?$AAe?$AA?$AA@ DB 't'
	DB	00H, 'a', 00H, 'b', 00H, 'l', 00H, 'e', 00H, '-', 00H, '>', 00H
	DB	'M', 00H, 'e', 00H, 'm', 00H, 'o', 00H, 'r', 00H, 'y', 00H, 'C'
	DB	00H, 'o', 00H, 'm', 00H, 'p', 00H, 'a', 00H, 'c', 00H, 't', 00H
	DB	'e', 00H, 'd', 00H, ' ', 00H, '=', 00H, '=', 00H, ' ', 00H, 'f'
	DB	00H, 'a', 00H, 'l', 00H, 's', 00H, 'e', 00H, 00H, 00H ; `string'
CONST	ENDS
;	COMDAT ?__LINE__Var@?0??TableGcCompactTransientBuffers@ImGui@@YAXPEAUImGuiTable@@@Z@4JA
_DATA	SEGMENT
?__LINE__Var@?0??TableGcCompactTransientBuffers@ImGui@@YAXPEAUImGuiTable@@@Z@4JA DD 0dbcH ; `ImGui::TableGcCompactTransientBuffers'::`1'::__LINE__Var
_DATA	ENDS
;	COMDAT ??_C@_05LFBINIGO@Table?$AA@
CONST	SEGMENT
??_C@_05LFBINIGO@Table?$AA@ DB 'Table', 00H		; `string'
CONST	ENDS
;	COMDAT ??_C@_01EEMJAFIK@?6?$AA@
CONST	SEGMENT
??_C@_01EEMJAFIK@?6?$AA@ DB 0aH, 00H			; `string'
CONST	ENDS
;	COMDAT ??_C@_0L@EAJILIBD@?5Sort?$DN?$CFd?$CFc?$AA@
CONST	SEGMENT
??_C@_0L@EAJILIBD@?5Sort?$DN?$CFd?$CFc?$AA@ DB ' Sort=%d%c', 00H ; `string'
CONST	ENDS
;	COMDAT ??_C@_09CFPCIBAG@?5Order?$DN?$CFd?$AA@
CONST	SEGMENT
??_C@_09CFPCIBAG@?5Order?$DN?$CFd?$AA@ DB ' Order=%d', 00H ; `string'
CONST	ENDS
;	COMDAT ??_C@_0M@CIPDPODB@?5Visible?$DN?$CFd?$AA@
CONST	SEGMENT
??_C@_0M@CIPDPODB@?5Visible?$DN?$CFd?$AA@ DB ' Visible=%d', 00H ; `string'
CONST	ENDS
;	COMDAT ??_C@_09PBOBBCAP@?5Width?$DN?$CFd?$AA@
CONST	SEGMENT
??_C@_09PBOBBCAP@?5Width?$DN?$CFd?$AA@ DB ' Width=%d', 00H ; `string'
CONST	ENDS
;	COMDAT ??_C@_0N@MFKBBKPH@?5Weight?$DN?$CF?44f?$AA@
CONST	SEGMENT
??_C@_0N@MFKBBKPH@?5Weight?$DN?$CF?44f?$AA@ DB ' Weight=%.4f', 00H ; `string'
CONST	ENDS
;	COMDAT ??_C@_0N@PGBEGIHP@?5UserID?$DN?$CF08X?$AA@
CONST	SEGMENT
??_C@_0N@PGBEGIHP@?5UserID?$DN?$CF08X?$AA@ DB ' UserID=%08X', 00H ; `string'
CONST	ENDS
;	COMDAT ??_C@_0M@JLNIJDCE@Column?5?$CF?92d?$AA@
CONST	SEGMENT
??_C@_0M@JLNIJDCE@Column?5?$CF?92d?$AA@ DB 'Column %-2d', 00H ; `string'
CONST	ENDS
;	COMDAT ??_C@_0N@NHEEPCEH@RefScale?$DN?$CFg?6?$AA@
CONST	SEGMENT
??_C@_0N@NHEEPCEH@RefScale?$DN?$CFg?6?$AA@ DB 'RefScale=%g', 0aH, 00H ; `string'
CONST	ENDS
;	COMDAT ??_C@_0BB@PGHPBJD@?$FL?$CFs?$FN?$FL0x?$CF08X?0?$CFd?$FN?6?$AA@
CONST	SEGMENT
??_C@_0BB@PGHPBJD@?$FL?$CFs?$FN?$FL0x?$CF08X?0?$CFd?$FN?6?$AA@ DB '[%s][0'
	DB	'x%08X,%d]', 0aH, 00H			; `string'
CONST	ENDS
;	COMDAT ??_C@_0M@KGHCDDIO@Sort?$DN?$CFd?$CFc?$CFn?$AA@
CONST	SEGMENT
??_C@_0M@KGHCDDIO@Sort?$DN?$CFd?$CFc?$CFn?$AA@ DB 'Sort=%d%c%n', 00H ; `string'
CONST	ENDS
;	COMDAT ??_C@_0L@BHOFPJL@Order?$DN?$CFd?$CFn?$AA@
CONST	SEGMENT
??_C@_0L@BHOFPJL@Order?$DN?$CFd?$CFn?$AA@ DB 'Order=%d%n', 00H ; `string'
CONST	ENDS
;	COMDAT ??_C@_0N@EKALHFOF@Visible?$DN?$CFd?$CFn?$AA@
CONST	SEGMENT
??_C@_0N@EKALHFOF@Visible?$DN?$CFd?$CFn?$AA@ DB 'Visible=%d%n', 00H ; `string'
CONST	ENDS
;	COMDAT ??_C@_0M@IJODOCHC@Weight?$DN?$CFf?$CFn?$AA@
CONST	SEGMENT
??_C@_0M@IJODOCHC@Weight?$DN?$CFf?$CFn?$AA@ DB 'Weight=%f%n', 00H ; `string'
CONST	ENDS
;	COMDAT ??_C@_0L@LJLKPCDP@Width?$DN?$CFd?$CFn?$AA@
CONST	SEGMENT
??_C@_0L@LJLKPCDP@Width?$DN?$CFd?$CFn?$AA@ DB 'Width=%d%n', 00H ; `string'
CONST	ENDS
;	COMDAT ??_C@_0BA@KAIOJKEL@UserID?$DN0x?$CF08X?$CFn?$AA@
CONST	SEGMENT
??_C@_0BA@KAIOJKEL@UserID?$DN0x?$CF08X?$CFn?$AA@ DB 'UserID=0x%08X%n', 00H ; `string'
CONST	ENDS
;	COMDAT ??_C@_0M@JOECNJOM@Column?5?$CFd?$CFn?$AA@
CONST	SEGMENT
??_C@_0M@JOECNJOM@Column?5?$CFd?$CFn?$AA@ DB 'Column %d%n', 00H ; `string'
CONST	ENDS
;	COMDAT ??_C@_0M@LAOOHBLO@RefScale?$DN?$CFf?$AA@
CONST	SEGMENT
??_C@_0M@LAOOHBLO@RefScale?$DN?$CFf?$AA@ DB 'RefScale=%f', 00H ; `string'
CONST	ENDS
;	COMDAT ??_C@_09BDLBIGPI@0x?$CF08X?0?$CFd?$AA@
CONST	SEGMENT
??_C@_09BDLBIGPI@0x?$CF08X?0?$CFd?$AA@ DB '0x%08X,%d', 00H ; `string'
CONST	ENDS
;	COMDAT ??_C@_1MK@NEOBPBEE@?$AAs?$AAe?$AAt?$AAt?$AAi?$AAn?$AAg?$AAs?$AA?9?$AA?$DO?$AAC?$AAo?$AAl?$AAu?$AAm?$AAn?$AAs?$AAC?$AAo?$AAu?$AAn?$AAt?$AA?5?$AA?$DN?$AA?$DN?$AA?5?$AAt?$AAa?$AAb?$AAl?$AAe?$AA?9@
CONST	SEGMENT
??_C@_1MK@NEOBPBEE@?$AAs?$AAe?$AAt?$AAt?$AAi?$AAn?$AAg?$AAs?$AA?9?$AA?$DO?$AAC?$AAo?$AAl?$AAu?$AAm?$AAn?$AAs?$AAC?$AAo?$AAu?$AAn?$AAt?$AA?5?$AA?$DN?$AA?$DN?$AA?5?$AAt?$AAa?$AAb?$AAl?$AAe?$AA?9@ DB 's'
	DB	00H, 'e', 00H, 't', 00H, 't', 00H, 'i', 00H, 'n', 00H, 'g', 00H
	DB	's', 00H, '-', 00H, '>', 00H, 'C', 00H, 'o', 00H, 'l', 00H, 'u'
	DB	00H, 'm', 00H, 'n', 00H, 's', 00H, 'C', 00H, 'o', 00H, 'u', 00H
	DB	'n', 00H, 't', 00H, ' ', 00H, '=', 00H, '=', 00H, ' ', 00H, 't'
	DB	00H, 'a', 00H, 'b', 00H, 'l', 00H, 'e', 00H, '-', 00H, '>', 00H
	DB	'C', 00H, 'o', 00H, 'l', 00H, 'u', 00H, 'm', 00H, 'n', 00H, 's'
	DB	00H, 'C', 00H, 'o', 00H, 'u', 00H, 'n', 00H, 't', 00H, ' ', 00H
	DB	'&', 00H, '&', 00H, ' ', 00H, 's', 00H, 'e', 00H, 't', 00H, 't'
	DB	00H, 'i', 00H, 'n', 00H, 'g', 00H, 's', 00H, '-', 00H, '>', 00H
	DB	'C', 00H, 'o', 00H, 'l', 00H, 'u', 00H, 'm', 00H, 'n', 00H, 's'
	DB	00H, 'C', 00H, 'o', 00H, 'u', 00H, 'n', 00H, 't', 00H, 'M', 00H
	DB	'a', 00H, 'x', 00H, ' ', 00H, '>', 00H, '=', 00H, ' ', 00H, 's'
	DB	00H, 'e', 00H, 't', 00H, 't', 00H, 'i', 00H, 'n', 00H, 'g', 00H
	DB	's', 00H, '-', 00H, '>', 00H, 'C', 00H, 'o', 00H, 'l', 00H, 'u'
	DB	00H, 'm', 00H, 'n', 00H, 's', 00H, 'C', 00H, 'o', 00H, 'u', 00H
	DB	'n', 00H, 't', 00H, 00H, 00H			; `string'
CONST	ENDS
;	COMDAT ?__LINE__Var@?0??TableSaveSettings@ImGui@@YAXPEAUImGuiTable@@@Z@4JA
_DATA	SEGMENT
?__LINE__Var@?0??TableSaveSettings@ImGui@@YAXPEAUImGuiTable@@@Z@4JA DD 0cb7H ; `ImGui::TableSaveSettings'::`1'::__LINE__Var
_DATA	ENDS
;	COMDAT ??_C@_1DE@KGKHJKNP@?$AAs?$AAe?$AAt?$AAt?$AAi?$AAn?$AAg?$AAs?$AA?9?$AA?$DO?$AAI?$AAD?$AA?5?$AA?$DN?$AA?$DN?$AA?5?$AAt?$AAa?$AAb?$AAl?$AAe?$AA?9?$AA?$DO?$AAI?$AAD?$AA?$AA@
CONST	SEGMENT
??_C@_1DE@KGKHJKNP@?$AAs?$AAe?$AAt?$AAt?$AAi?$AAn?$AAg?$AAs?$AA?9?$AA?$DO?$AAI?$AAD?$AA?5?$AA?$DN?$AA?$DN?$AA?5?$AAt?$AAa?$AAb?$AAl?$AAe?$AA?9?$AA?$DO?$AAI?$AAD?$AA?$AA@ DB 's'
	DB	00H, 'e', 00H, 't', 00H, 't', 00H, 'i', 00H, 'n', 00H, 'g', 00H
	DB	's', 00H, '-', 00H, '>', 00H, 'I', 00H, 'D', 00H, ' ', 00H, '='
	DB	00H, '=', 00H, ' ', 00H, 't', 00H, 'a', 00H, 'b', 00H, 'l', 00H
	DB	'e', 00H, '-', 00H, '>', 00H, 'I', 00H, 'D', 00H, 00H, 00H ; `string'
CONST	ENDS
;	COMDAT ?__LINE__Var@?0??TableGetBoundSettings@ImGui@@YAPEAUImGuiTableSettings@@PEAUImGuiTable@@@Z@4JA
_DATA	SEGMENT
?__LINE__Var@?0??TableGetBoundSettings@ImGui@@YAPEAUImGuiTableSettings@@PEAUImGuiTable@@@Z@4JA DD 0ca0H ; `ImGui::TableGetBoundSettings'::`1'::__LINE__Var
_DATA	ENDS
;	COMDAT ??_C@_09MGFHLAFE@?$DMUnknown?$DO?$AA@
CONST	SEGMENT
??_C@_09MGFHLAFE@?$DMUnknown?$DO?$AA@ DB '<Unknown>', 00H ; `string'
CONST	ENDS
;	COMDAT ??_C@_0O@BMOANCPA@?$CD?$CDContextMenu?$AA@
CONST	SEGMENT
??_C@_0O@BMOANCPA@?$CD?$CDContextMenu?$AA@ DB '##ContextMenu', 00H ; `string'
CONST	ENDS
;	COMDAT ??_C@_1GC@CPFLEHCP@?$AAc?$AAo?$AAl?$AAu?$AAm?$AAn?$AA_?$AAn?$AA?5?$AA?$DO?$AA?$DN?$AA?5?$AA?9?$AA1?$AA?5?$AA?$CG?$AA?$CG?$AA?5?$AAc?$AAo?$AAl?$AAu?$AAm?$AAn?$AA_?$AAn?$AA?5?$AA?$DM?$AA?5?$AAt?$AAa?$AAb@
CONST	SEGMENT
??_C@_1GC@CPFLEHCP@?$AAc?$AAo?$AAl?$AAu?$AAm?$AAn?$AA_?$AAn?$AA?5?$AA?$DO?$AA?$DN?$AA?5?$AA?9?$AA1?$AA?5?$AA?$CG?$AA?$CG?$AA?5?$AAc?$AAo?$AAl?$AAu?$AAm?$AAn?$AA_?$AAn?$AA?5?$AA?$DM?$AA?5?$AAt?$AAa?$AAb@ DB 'c'
	DB	00H, 'o', 00H, 'l', 00H, 'u', 00H, 'm', 00H, 'n', 00H, '_', 00H
	DB	'n', 00H, ' ', 00H, '>', 00H, '=', 00H, ' ', 00H, '-', 00H, '1'
	DB	00H, ' ', 00H, '&', 00H, '&', 00H, ' ', 00H, 'c', 00H, 'o', 00H
	DB	'l', 00H, 'u', 00H, 'm', 00H, 'n', 00H, '_', 00H, 'n', 00H, ' '
	DB	00H, '<', 00H, ' ', 00H, 't', 00H, 'a', 00H, 'b', 00H, 'l', 00H
	DB	'e', 00H, '-', 00H, '>', 00H, 'C', 00H, 'o', 00H, 'l', 00H, 'u'
	DB	00H, 'm', 00H, 'n', 00H, 's', 00H, 'C', 00H, 'o', 00H, 'u', 00H
	DB	'n', 00H, 't', 00H, 00H, 00H			; `string'
CONST	ENDS
;	COMDAT ?__LINE__Var@?0??TableOpenContextMenu@ImGui@@YAXH@Z@4JA
_DATA	SEGMENT
?__LINE__Var@?0??TableOpenContextMenu@ImGui@@YAXH@Z@4JA DD 0be7H ; `ImGui::TableOpenContextMenu'::`1'::__LINE__Var
_DATA	ENDS
;	COMDAT ??_C@_04EBNJJJJI@?$CF?4?$CKs?$AA@
CONST	SEGMENT
??_C@_04EBNJJJJI@?$CF?4?$CKs?$AA@ DB '%.*s', 00H	; `string'
CONST	ENDS
;	COMDAT ??_C@_02DPKJAMEF@?$CFd?$AA@
CONST	SEGMENT
??_C@_02DPKJAMEF@?$CFd?$AA@ DB '%d', 00H		; `string'
CONST	ENDS
;	COMDAT ??_C@_1DG@CDIJLMHK@?$AAt?$AAa?$AAb?$AAl?$AAe?$AA?9?$AA?$DO?$AAC?$AAu?$AAr?$AAr?$AAe?$AAn?$AAt?$AAC?$AAo?$AAl?$AAu?$AAm?$AAn?$AA?5?$AA?$CB?$AA?$DN?$AA?5?$AA?9?$AA1?$AA?$AA@
CONST	SEGMENT
??_C@_1DG@CDIJLMHK@?$AAt?$AAa?$AAb?$AAl?$AAe?$AA?9?$AA?$DO?$AAC?$AAu?$AAr?$AAr?$AAe?$AAn?$AAt?$AAC?$AAo?$AAl?$AAu?$AAm?$AAn?$AA?5?$AA?$CB?$AA?$DN?$AA?5?$AA?9?$AA1?$AA?$AA@ DB 't'
	DB	00H, 'a', 00H, 'b', 00H, 'l', 00H, 'e', 00H, '-', 00H, '>', 00H
	DB	'C', 00H, 'u', 00H, 'r', 00H, 'r', 00H, 'e', 00H, 'n', 00H, 't'
	DB	00H, 'C', 00H, 'o', 00H, 'l', 00H, 'u', 00H, 'm', 00H, 'n', 00H
	DB	' ', 00H, '!', 00H, '=', 00H, ' ', 00H, '-', 00H, '1', 00H, 00H
	DB	00H						; `string'
CONST	ENDS
;	COMDAT ??_C@_1HO@PDHKEBPE@?$AAt?$AAa?$AAb?$AAl?$AAe?$AA?5?$AA?$CB?$AA?$DN?$AA?5?$AA0?$AA?5?$AA?$CG?$AA?$CG?$AA?5?$AA?$CC?$AAN?$AAe?$AAe?$AAd?$AA?5?$AAt?$AAo?$AA?5?$AAc?$AAa?$AAl?$AAl?$AA?5?$AAT?$AAa?$AAb?$AAl@
CONST	SEGMENT
??_C@_1HO@PDHKEBPE@?$AAt?$AAa?$AAb?$AAl?$AAe?$AA?5?$AA?$CB?$AA?$DN?$AA?5?$AA0?$AA?5?$AA?$CG?$AA?$CG?$AA?5?$AA?$CC?$AAN?$AAe?$AAe?$AAd?$AA?5?$AAt?$AAo?$AA?5?$AAc?$AAa?$AAl?$AAl?$AA?5?$AAT?$AAa?$AAb?$AAl@ DB 't'
	DB	00H, 'a', 00H, 'b', 00H, 'l', 00H, 'e', 00H, ' ', 00H, '!', 00H
	DB	'=', 00H, ' ', 00H, '0', 00H, ' ', 00H, '&', 00H, '&', 00H, ' '
	DB	00H, '"', 00H, 'N', 00H, 'e', 00H, 'e', 00H, 'd', 00H, ' ', 00H
	DB	't', 00H, 'o', 00H, ' ', 00H, 'c', 00H, 'a', 00H, 'l', 00H, 'l'
	DB	00H, ' ', 00H, 'T', 00H, 'a', 00H, 'b', 00H, 'l', 00H, 'e', 00H
	DB	'H', 00H, 'e', 00H, 'a', 00H, 'd', 00H, 'e', 00H, 'r', 00H, '('
	DB	00H, ')', 00H, ' ', 00H, 'a', 00H, 'f', 00H, 't', 00H, 'e', 00H
	DB	'r', 00H, ' ', 00H, 'B', 00H, 'e', 00H, 'g', 00H, 'i', 00H, 'n'
	DB	00H, 'T', 00H, 'a', 00H, 'b', 00H, 'l', 00H, 'e', 00H, '(', 00H
	DB	')', 00H, '!', 00H, '"', 00H, 00H, 00H	; `string'
CONST	ENDS
;	COMDAT ??_C@_0CP@HLEIDDEE@Need?5to?5call?5TableHeader?$CI?$CJ?5after@
CONST	SEGMENT
??_C@_0CP@HLEIDDEE@Need?5to?5call?5TableHeader?$CI?$CJ?5after@ DB 'Need t'
	DB	'o call TableHeader() after BeginTable()!', 00H ; `string'
CONST	ENDS
;	COMDAT ?__LINE__Var@?0??TableHeader@ImGui@@YAXPEBD@Z@4JA
_DATA	SEGMENT
?__LINE__Var@?0??TableHeader@ImGui@@YAXPEBD@Z@4JA DD 0b54H ; `ImGui::TableHeader'::`1'::__LINE__Var
_DATA	ENDS
;	COMDAT ??_C@_1IG@FPFBNANE@?$AAt?$AAa?$AAb?$AAl?$AAe?$AA?5?$AA?$CB?$AA?$DN?$AA?5?$AA0?$AA?5?$AA?$CG?$AA?$CG?$AA?5?$AA?$CC?$AAN?$AAe?$AAe?$AAd?$AA?5?$AAt?$AAo?$AA?5?$AAc?$AAa?$AAl?$AAl?$AA?5?$AAT?$AAa?$AAb?$AAl@
CONST	SEGMENT
??_C@_1IG@FPFBNANE@?$AAt?$AAa?$AAb?$AAl?$AAe?$AA?5?$AA?$CB?$AA?$DN?$AA?5?$AA0?$AA?5?$AA?$CG?$AA?$CG?$AA?5?$AA?$CC?$AAN?$AAe?$AAe?$AAd?$AA?5?$AAt?$AAo?$AA?5?$AAc?$AAa?$AAl?$AAl?$AA?5?$AAT?$AAa?$AAb?$AAl@ DB 't'
	DB	00H, 'a', 00H, 'b', 00H, 'l', 00H, 'e', 00H, ' ', 00H, '!', 00H
	DB	'=', 00H, ' ', 00H, '0', 00H, ' ', 00H, '&', 00H, '&', 00H, ' '
	DB	00H, '"', 00H, 'N', 00H, 'e', 00H, 'e', 00H, 'd', 00H, ' ', 00H
	DB	't', 00H, 'o', 00H, ' ', 00H, 'c', 00H, 'a', 00H, 'l', 00H, 'l'
	DB	00H, ' ', 00H, 'T', 00H, 'a', 00H, 'b', 00H, 'l', 00H, 'e', 00H
	DB	'H', 00H, 'e', 00H, 'a', 00H, 'd', 00H, 'e', 00H, 'r', 00H, 's'
	DB	00H, 'R', 00H, 'o', 00H, 'w', 00H, '(', 00H, ')', 00H, ' ', 00H
	DB	'a', 00H, 'f', 00H, 't', 00H, 'e', 00H, 'r', 00H, ' ', 00H, 'B'
	DB	00H, 'e', 00H, 'g', 00H, 'i', 00H, 'n', 00H, 'T', 00H, 'a', 00H
	DB	'b', 00H, 'l', 00H, 'e', 00H, '(', 00H, ')', 00H, '!', 00H, '"'
	DB	00H, 00H, 00H				; `string'
CONST	ENDS
;	COMDAT ??_C@_0DD@NCKBBGOL@Need?5to?5call?5TableHeadersRow?$CI?$CJ?5a@
CONST	SEGMENT
??_C@_0DD@NCKBBGOL@Need?5to?5call?5TableHeadersRow?$CI?$CJ?5a@ DB 'Need t'
	DB	'o call TableHeadersRow() after BeginTable()!', 00H ; `string'
CONST	ENDS
;	COMDAT ?__LINE__Var@?0??TableHeadersRow@ImGui@@YAXXZ@4JA
_DATA	SEGMENT
?__LINE__Var@?0??TableHeadersRow@ImGui@@YAXXZ@4JA DD 0b2aH ; `ImGui::TableHeadersRow'::`1'::__LINE__Var
_DATA	ENDS
;	COMDAT ??_C@_1FE@KLCJNJLO@?$AAc?$AAo?$AAl?$AAu?$AAm?$AAn?$AA?9?$AA?$DO?$AAS?$AAo?$AAr?$AAt?$AAO?$AAr?$AAd?$AAe?$AAr?$AA?5?$AA?$DM?$AA?5?$AAt?$AAa?$AAb?$AAl?$AAe?$AA?9?$AA?$DO?$AAS?$AAo?$AAr?$AAt?$AAS@
CONST	SEGMENT
??_C@_1FE@KLCJNJLO@?$AAc?$AAo?$AAl?$AAu?$AAm?$AAn?$AA?9?$AA?$DO?$AAS?$AAo?$AAr?$AAt?$AAO?$AAr?$AAd?$AAe?$AAr?$AA?5?$AA?$DM?$AA?5?$AAt?$AAa?$AAb?$AAl?$AAe?$AA?9?$AA?$DO?$AAS?$AAo?$AAr?$AAt?$AAS@ DB 'c'
	DB	00H, 'o', 00H, 'l', 00H, 'u', 00H, 'm', 00H, 'n', 00H, '-', 00H
	DB	'>', 00H, 'S', 00H, 'o', 00H, 'r', 00H, 't', 00H, 'O', 00H, 'r'
	DB	00H, 'd', 00H, 'e', 00H, 'r', 00H, ' ', 00H, '<', 00H, ' ', 00H
	DB	't', 00H, 'a', 00H, 'b', 00H, 'l', 00H, 'e', 00H, '-', 00H, '>'
	DB	00H, 'S', 00H, 'o', 00H, 'r', 00H, 't', 00H, 'S', 00H, 'p', 00H
	DB	'e', 00H, 'c', 00H, 's', 00H, 'C', 00H, 'o', 00H, 'u', 00H, 'n'
	DB	00H, 't', 00H, 00H, 00H			; `string'
CONST	ENDS
;	COMDAT ?__LINE__Var@?0??TableSortSpecsBuild@ImGui@@YAXPEAUImGuiTable@@@Z@4JA
_DATA	SEGMENT
?__LINE__Var@?0??TableSortSpecsBuild@ImGui@@YAXPEAUImGuiTable@@@Z@4JA DD 0aebH ; `ImGui::TableSortSpecsBuild'::`1'::__LINE__Var
_DATA	ENDS
;	COMDAT ??_C@_1EM@BCBBNGI@?$AAc?$AAo?$AAl?$AAu?$AAm?$AAn?$AA_?$AAw?$AAi?$AAt?$AAh?$AA_?$AAs?$AAm?$AAa?$AAl?$AAl?$AAe?$AAs?$AAt?$AA_?$AAs?$AAo?$AAr?$AAt?$AA_?$AAo?$AAr?$AAd?$AAe?$AAr?$AA?5@
CONST	SEGMENT
??_C@_1EM@BCBBNGI@?$AAc?$AAo?$AAl?$AAu?$AAm?$AAn?$AA_?$AAw?$AAi?$AAt?$AAh?$AA_?$AAs?$AAm?$AAa?$AAl?$AAl?$AAe?$AAs?$AAt?$AA_?$AAs?$AAo?$AAr?$AAt?$AA_?$AAo?$AAr?$AAd?$AAe?$AAr?$AA?5@ DB 'c'
	DB	00H, 'o', 00H, 'l', 00H, 'u', 00H, 'm', 00H, 'n', 00H, '_', 00H
	DB	'w', 00H, 'i', 00H, 't', 00H, 'h', 00H, '_', 00H, 's', 00H, 'm'
	DB	00H, 'a', 00H, 'l', 00H, 'l', 00H, 'e', 00H, 's', 00H, 't', 00H
	DB	'_', 00H, 's', 00H, 'o', 00H, 'r', 00H, 't', 00H, '_', 00H, 'o'
	DB	00H, 'r', 00H, 'd', 00H, 'e', 00H, 'r', 00H, ' ', 00H, '!', 00H
	DB	'=', 00H, ' ', 00H, '-', 00H, '1', 00H, 00H, 00H ; `string'
CONST	ENDS
;	COMDAT ??_C@_1GI@FLDFCCLG@?$AAs?$AAo?$AAr?$AAt?$AA_?$AAo?$AAr?$AAd?$AAe?$AAr?$AA_?$AAc?$AAo?$AAu?$AAn?$AAt?$AA?5?$AA?$DM?$AA?5?$AA?$CI?$AAi?$AAn?$AAt?$AA?$CJ?$AAs?$AAi?$AAz?$AAe?$AAo?$AAf?$AA?$CI?$AAs@
CONST	SEGMENT
??_C@_1GI@FLDFCCLG@?$AAs?$AAo?$AAr?$AAt?$AA_?$AAo?$AAr?$AAd?$AAe?$AAr?$AA_?$AAc?$AAo?$AAu?$AAn?$AAt?$AA?5?$AA?$DM?$AA?5?$AA?$CI?$AAi?$AAn?$AAt?$AA?$CJ?$AAs?$AAi?$AAz?$AAe?$AAo?$AAf?$AA?$CI?$AAs@ DB 's'
	DB	00H, 'o', 00H, 'r', 00H, 't', 00H, '_', 00H, 'o', 00H, 'r', 00H
	DB	'd', 00H, 'e', 00H, 'r', 00H, '_', 00H, 'c', 00H, 'o', 00H, 'u'
	DB	00H, 'n', 00H, 't', 00H, ' ', 00H, '<', 00H, ' ', 00H, '(', 00H
	DB	'i', 00H, 'n', 00H, 't', 00H, ')', 00H, 's', 00H, 'i', 00H, 'z'
	DB	00H, 'e', 00H, 'o', 00H, 'f', 00H, '(', 00H, 's', 00H, 'o', 00H
	DB	'r', 00H, 't', 00H, '_', 00H, 'o', 00H, 'r', 00H, 'd', 00H, 'e'
	DB	00H, 'r', 00H, '_', 00H, 'm', 00H, 'a', 00H, 's', 00H, 'k', 00H
	DB	')', 00H, ' ', 00H, '*', 00H, ' ', 00H, '8', 00H, 00H, 00H ; `string'
CONST	ENDS
;	COMDAT ??_C@_1FA@NLOFMGNH@?$AAt?$AAa?$AAb?$AAl?$AAe?$AA?9?$AA?$DO?$AAF?$AAl?$AAa?$AAg?$AAs?$AA?5?$AA?$CG?$AA?5?$AAI?$AAm?$AAG?$AAu?$AAi?$AAT?$AAa?$AAb?$AAl?$AAe?$AAF?$AAl?$AAa?$AAg?$AAs?$AA_?$AAS@
CONST	SEGMENT
??_C@_1FA@NLOFMGNH@?$AAt?$AAa?$AAb?$AAl?$AAe?$AA?9?$AA?$DO?$AAF?$AAl?$AAa?$AAg?$AAs?$AA?5?$AA?$CG?$AA?5?$AAI?$AAm?$AAG?$AAu?$AAi?$AAT?$AAa?$AAb?$AAl?$AAe?$AAF?$AAl?$AAa?$AAg?$AAs?$AA_?$AAS@ DB 't'
	DB	00H, 'a', 00H, 'b', 00H, 'l', 00H, 'e', 00H, '-', 00H, '>', 00H
	DB	'F', 00H, 'l', 00H, 'a', 00H, 'g', 00H, 's', 00H, ' ', 00H, '&'
	DB	00H, ' ', 00H, 'I', 00H, 'm', 00H, 'G', 00H, 'u', 00H, 'i', 00H
	DB	'T', 00H, 'a', 00H, 'b', 00H, 'l', 00H, 'e', 00H, 'F', 00H, 'l'
	DB	00H, 'a', 00H, 'g', 00H, 's', 00H, '_', 00H, 'S', 00H, 'o', 00H
	DB	'r', 00H, 't', 00H, 'a', 00H, 'b', 00H, 'l', 00H, 'e', 00H, 00H
	DB	00H						; `string'
CONST	ENDS
;	COMDAT ?__LINE__Var@?0??TableSortSpecsSanitize@ImGui@@YAXPEAUImGuiTable@@@Z@4JA
_DATA	SEGMENT
?__LINE__Var@?0??TableSortSpecsSanitize@ImGui@@YAXPEAUImGuiTable@@@Z@4JA DD 0aa9H ; `ImGui::TableSortSpecsSanitize'::`1'::__LINE__Var
_DATA	ENDS
;	COMDAT ??_C@_1FE@KIEHIAAN@?$AAs?$AAo?$AAr?$AAt?$AA_?$AAd?$AAi?$AAr?$AAe?$AAc?$AAt?$AAi?$AAo?$AAn?$AA?5?$AA?$CB?$AA?$DN?$AA?5?$AAI?$AAm?$AAG?$AAu?$AAi?$AAS?$AAo?$AAr?$AAt?$AAD?$AAi?$AAr?$AAe?$AAc@
CONST	SEGMENT
??_C@_1FE@KIEHIAAN@?$AAs?$AAo?$AAr?$AAt?$AA_?$AAd?$AAi?$AAr?$AAe?$AAc?$AAt?$AAi?$AAo?$AAn?$AA?5?$AA?$CB?$AA?$DN?$AA?5?$AAI?$AAm?$AAG?$AAu?$AAi?$AAS?$AAo?$AAr?$AAt?$AAD?$AAi?$AAr?$AAe?$AAc@ DB 's'
	DB	00H, 'o', 00H, 'r', 00H, 't', 00H, '_', 00H, 'd', 00H, 'i', 00H
	DB	'r', 00H, 'e', 00H, 'c', 00H, 't', 00H, 'i', 00H, 'o', 00H, 'n'
	DB	00H, ' ', 00H, '!', 00H, '=', 00H, ' ', 00H, 'I', 00H, 'm', 00H
	DB	'G', 00H, 'u', 00H, 'i', 00H, 'S', 00H, 'o', 00H, 'r', 00H, 't'
	DB	00H, 'D', 00H, 'i', 00H, 'r', 00H, 'e', 00H, 'c', 00H, 't', 00H
	DB	'i', 00H, 'o', 00H, 'n', 00H, '_', 00H, 'N', 00H, 'o', 00H, 'n'
	DB	00H, 'e', 00H, 00H, 00H			; `string'
CONST	ENDS
;	COMDAT ?__LINE__Var@?0??TableSetColumnSortDirection@ImGui@@YAXHH_N@Z@4JA
_DATA	SEGMENT
?__LINE__Var@?0??TableSetColumnSortDirection@ImGui@@YAXHH_N@Z@4JA DD 0a88H ; `ImGui::TableSetColumnSortDirection'::`1'::__LINE__Var
_DATA	ENDS
;	COMDAT ??_C@_1EK@NEPNAPMF@?$AAc?$AAo?$AAl?$AAu?$AAm?$AAn?$AA?9?$AA?$DO?$AAS?$AAo?$AAr?$AAt?$AAD?$AAi?$AAr?$AAe?$AAc?$AAt?$AAi?$AAo?$AAn?$AAs?$AAA?$AAv?$AAa?$AAi?$AAl?$AAC?$AAo?$AAu?$AAn?$AAt@
CONST	SEGMENT
??_C@_1EK@NEPNAPMF@?$AAc?$AAo?$AAl?$AAu?$AAm?$AAn?$AA?9?$AA?$DO?$AAS?$AAo?$AAr?$AAt?$AAD?$AAi?$AAr?$AAe?$AAc?$AAt?$AAi?$AAo?$AAn?$AAs?$AAA?$AAv?$AAa?$AAi?$AAl?$AAC?$AAo?$AAu?$AAn?$AAt@ DB 'c'
	DB	00H, 'o', 00H, 'l', 00H, 'u', 00H, 'm', 00H, 'n', 00H, '-', 00H
	DB	'>', 00H, 'S', 00H, 'o', 00H, 'r', 00H, 't', 00H, 'D', 00H, 'i'
	DB	00H, 'r', 00H, 'e', 00H, 'c', 00H, 't', 00H, 'i', 00H, 'o', 00H
	DB	'n', 00H, 's', 00H, 'A', 00H, 'v', 00H, 'a', 00H, 'i', 00H, 'l'
	DB	00H, 'C', 00H, 'o', 00H, 'u', 00H, 'n', 00H, 't', 00H, ' ', 00H
	DB	'>', 00H, ' ', 00H, '0', 00H, 00H, 00H	; `string'
CONST	ENDS
;	COMDAT ?__LINE__Var@?0??TableGetColumnNextSortDirection@ImGui@@YAHPEAUImGuiTableColumn@@@Z@4JA
_DATA	SEGMENT
?__LINE__Var@?0??TableGetColumnNextSortDirection@ImGui@@YAHPEAUImGuiTableColumn@@@Z@4JA DD 0a7aH ; `ImGui::TableGetColumnNextSortDirection'::`1'::__LINE__Var
_DATA	ENDS
;	COMDAT ??_C@_1EK@EKGOAIAF@?$AAn?$AA?5?$AA?$DM?$AA?5?$AAc?$AAo?$AAl?$AAu?$AAm?$AAn?$AA?9?$AA?$DO?$AAS?$AAo?$AAr?$AAt?$AAD?$AAi?$AAr?$AAe?$AAc?$AAt?$AAi?$AAo?$AAn?$AAs?$AAA?$AAv?$AAa?$AAi?$AAl?$AAC@
CONST	SEGMENT
??_C@_1EK@EKGOAIAF@?$AAn?$AA?5?$AA?$DM?$AA?5?$AAc?$AAo?$AAl?$AAu?$AAm?$AAn?$AA?9?$AA?$DO?$AAS?$AAo?$AAr?$AAt?$AAD?$AAi?$AAr?$AAe?$AAc?$AAt?$AAi?$AAo?$AAn?$AAs?$AAA?$AAv?$AAa?$AAi?$AAl?$AAC@ DB 'n'
	DB	00H, ' ', 00H, '<', 00H, ' ', 00H, 'c', 00H, 'o', 00H, 'l', 00H
	DB	'u', 00H, 'm', 00H, 'n', 00H, '-', 00H, '>', 00H, 'S', 00H, 'o'
	DB	00H, 'r', 00H, 't', 00H, 'D', 00H, 'i', 00H, 'r', 00H, 'e', 00H
	DB	'c', 00H, 't', 00H, 'i', 00H, 'o', 00H, 'n', 00H, 's', 00H, 'A'
	DB	00H, 'v', 00H, 'a', 00H, 'i', 00H, 'l', 00H, 'C', 00H, 'o', 00H
	DB	'u', 00H, 'n', 00H, 't', 00H, 00H, 00H	; `string'
CONST	ENDS
;	COMDAT ?__LINE__Var@?0??TableGetColumnAvailSortDirection@@YAHPEAUImGuiTableColumn@@H@Z@4JA
_DATA	SEGMENT
?__LINE__Var@?0??TableGetColumnAvailSortDirection@@YAHPEAUImGuiTableColumn@@H@Z@4JA DD 0a67H ; `TableGetColumnAvailSortDirection'::`1'::__LINE__Var
_DATA	ENDS
;	COMDAT ?__LINE__Var@?0??TableGetSortSpecs@ImGui@@YAPEAUImGuiTableSortSpecs@@XZ@4JA
_DATA	SEGMENT
?__LINE__Var@?0??TableGetSortSpecs@ImGui@@YAPEAUImGuiTableSortSpecs@@XZ@4JA DD 0a55H ; `ImGui::TableGetSortSpecs'::`1'::__LINE__Var
_DATA	ENDS
;	COMDAT ??_C@_1KG@FHCGPPO@?$AAd?$AAs?$AAt?$AA_?$AAt?$AAm?$AAp?$AA?5?$AA?$DN?$AA?$DN?$AA?5?$AAg?$AA?4?$AAD?$AAr?$AAa?$AAw?$AAC?$AAh?$AAa?$AAn?$AAn?$AAe?$AAl?$AAs?$AAT?$AAe?$AAm?$AAp?$AAM?$AAe?$AAr@
CONST	SEGMENT
??_C@_1KG@FHCGPPO@?$AAd?$AAs?$AAt?$AA_?$AAt?$AAm?$AAp?$AA?5?$AA?$DN?$AA?$DN?$AA?5?$AAg?$AA?4?$AAD?$AAr?$AAa?$AAw?$AAC?$AAh?$AAa?$AAn?$AAn?$AAe?$AAl?$AAs?$AAT?$AAe?$AAm?$AAp?$AAM?$AAe?$AAr@ DB 'd'
	DB	00H, 's', 00H, 't', 00H, '_', 00H, 't', 00H, 'm', 00H, 'p', 00H
	DB	' ', 00H, '=', 00H, '=', 00H, ' ', 00H, 'g', 00H, '.', 00H, 'D'
	DB	00H, 'r', 00H, 'a', 00H, 'w', 00H, 'C', 00H, 'h', 00H, 'a', 00H
	DB	'n', 00H, 'n', 00H, 'e', 00H, 'l', 00H, 's', 00H, 'T', 00H, 'e'
	DB	00H, 'm', 00H, 'p', 00H, 'M', 00H, 'e', 00H, 'r', 00H, 'g', 00H
	DB	'e', 00H, 'B', 00H, 'u', 00H, 'f', 00H, 'f', 00H, 'e', 00H, 'r'
	DB	00H, '.', 00H, 'D', 00H, 'a', 00H, 't', 00H, 'a', 00H, ' ', 00H
	DB	'+', 00H, ' ', 00H, 'g', 00H, '.', 00H, 'D', 00H, 'r', 00H, 'a'
	DB	00H, 'w', 00H, 'C', 00H, 'h', 00H, 'a', 00H, 'n', 00H, 'n', 00H
	DB	'e', 00H, 'l', 00H, 's', 00H, 'T', 00H, 'e', 00H, 'm', 00H, 'p'
	DB	00H, 'M', 00H, 'e', 00H, 'r', 00H, 'g', 00H, 'e', 00H, 'B', 00H
	DB	'u', 00H, 'f', 00H, 'f', 00H, 'e', 00H, 'r', 00H, '.', 00H, 'S'
	DB	00H, 'i', 00H, 'z', 00H, 'e', 00H, 00H, 00H	; `string'
CONST	ENDS
;	COMDAT ??_C@_1MG@IJOOMOFE@?$AAc?$AAh?$AAa?$AAn?$AAn?$AAe?$AAl?$AA?9?$AA?$DO?$AA_?$AAC?$AAm?$AAd?$AAB?$AAu?$AAf?$AAf?$AAe?$AAr?$AA?4?$AAS?$AAi?$AAz?$AAe?$AA?5?$AA?$DN?$AA?$DN?$AA?5?$AA1?$AA?5?$AA?$CG?$AA?$CG@
CONST	SEGMENT
??_C@_1MG@IJOOMOFE@?$AAc?$AAh?$AAa?$AAn?$AAn?$AAe?$AAl?$AA?9?$AA?$DO?$AA_?$AAC?$AAm?$AAd?$AAB?$AAu?$AAf?$AAf?$AAe?$AAr?$AA?4?$AAS?$AAi?$AAz?$AAe?$AA?5?$AA?$DN?$AA?$DN?$AA?5?$AA1?$AA?5?$AA?$CG?$AA?$CG@ DB 'c'
	DB	00H, 'h', 00H, 'a', 00H, 'n', 00H, 'n', 00H, 'e', 00H, 'l', 00H
	DB	'-', 00H, '>', 00H, '_', 00H, 'C', 00H, 'm', 00H, 'd', 00H, 'B'
	DB	00H, 'u', 00H, 'f', 00H, 'f', 00H, 'e', 00H, 'r', 00H, '.', 00H
	DB	'S', 00H, 'i', 00H, 'z', 00H, 'e', 00H, ' ', 00H, '=', 00H, '='
	DB	00H, ' ', 00H, '1', 00H, ' ', 00H, '&', 00H, '&', 00H, ' ', 00H
	DB	'm', 00H, 'e', 00H, 'r', 00H, 'g', 00H, 'e', 00H, '_', 00H, 'c'
	DB	00H, 'l', 00H, 'i', 00H, 'p', 00H, '_', 00H, 'r', 00H, 'e', 00H
	DB	'c', 00H, 't', 00H, '.', 00H, 'C', 00H, 'o', 00H, 'n', 00H, 't'
	DB	00H, 'a', 00H, 'i', 00H, 'n', 00H, 's', 00H, '(', 00H, 'I', 00H
	DB	'm', 00H, 'R', 00H, 'e', 00H, 'c', 00H, 't', 00H, '(', 00H, 'c'
	DB	00H, 'h', 00H, 'a', 00H, 'n', 00H, 'n', 00H, 'e', 00H, 'l', 00H
	DB	'-', 00H, '>', 00H, '_', 00H, 'C', 00H, 'm', 00H, 'd', 00H, 'B'
	DB	00H, 'u', 00H, 'f', 00H, 'f', 00H, 'e', 00H, 'r', 00H, '[', 00H
	DB	'0', 00H, ']', 00H, '.', 00H, 'C', 00H, 'l', 00H, 'i', 00H, 'p'
	DB	00H, 'R', 00H, 'e', 00H, 'c', 00H, 't', 00H, ')', 00H, ')', 00H
	DB	00H, 00H					; `string'
CONST	ENDS
;	COMDAT ??_C@_1LA@JABKDEHA@?$AAh?$AAa?$AAs?$AA_?$AAf?$AAr?$AAe?$AAe?$AAz?$AAe?$AA_?$AAv?$AA?5?$AA?$DN?$AA?$DN?$AA?5?$AAf?$AAa?$AAl?$AAs?$AAe?$AA?5?$AA?$HM?$AA?$HM?$AA?5?$AAt?$AAa?$AAb?$AAl?$AAe?$AA?9?$AA?$DO@
CONST	SEGMENT
??_C@_1LA@JABKDEHA@?$AAh?$AAa?$AAs?$AA_?$AAf?$AAr?$AAe?$AAe?$AAz?$AAe?$AA_?$AAv?$AA?5?$AA?$DN?$AA?$DN?$AA?5?$AAf?$AAa?$AAl?$AAs?$AAe?$AA?5?$AA?$HM?$AA?$HM?$AA?5?$AAt?$AAa?$AAb?$AAl?$AAe?$AA?9?$AA?$DO@ DB 'h'
	DB	00H, 'a', 00H, 's', 00H, '_', 00H, 'f', 00H, 'r', 00H, 'e', 00H
	DB	'e', 00H, 'z', 00H, 'e', 00H, '_', 00H, 'v', 00H, ' ', 00H, '='
	DB	00H, '=', 00H, ' ', 00H, 'f', 00H, 'a', 00H, 'l', 00H, 's', 00H
	DB	'e', 00H, ' ', 00H, '|', 00H, '|', 00H, ' ', 00H, 't', 00H, 'a'
	DB	00H, 'b', 00H, 'l', 00H, 'e', 00H, '-', 00H, '>', 00H, 'B', 00H
	DB	'g', 00H, '2', 00H, 'D', 00H, 'r', 00H, 'a', 00H, 'w', 00H, 'C'
	DB	00H, 'h', 00H, 'a', 00H, 'n', 00H, 'n', 00H, 'e', 00H, 'l', 00H
	DB	'U', 00H, 'n', 00H, 'f', 00H, 'r', 00H, 'o', 00H, 'z', 00H, 'e'
	DB	00H, 'n', 00H, ' ', 00H, '!', 00H, '=', 00H, ' ', 00H, 'T', 00H
	DB	'A', 00H, 'B', 00H, 'L', 00H, 'E', 00H, '_', 00H, 'D', 00H, 'R'
	DB	00H, 'A', 00H, 'W', 00H, '_', 00H, 'C', 00H, 'H', 00H, 'A', 00H
	DB	'N', 00H, 'N', 00H, 'E', 00H, 'L', 00H, '_', 00H, 'B', 00H, 'G'
	DB	00H, '2', 00H, '_', 00H, 'F', 00H, 'R', 00H, 'O', 00H, 'Z', 00H
	DB	'E', 00H, 'N', 00H, 00H, 00H			; `string'
CONST	ENDS
;	COMDAT ??_C@_1DO@EEGFHBNA@?$AAc?$AAh?$AAa?$AAn?$AAn?$AAe?$AAl?$AA_?$AAn?$AAo?$AA?5?$AA?$DM?$AA?5?$AAm?$AAa?$AAx?$AA_?$AAd?$AAr?$AAa?$AAw?$AA_?$AAc?$AAh?$AAa?$AAn?$AAn?$AAe?$AAl?$AAs?$AA?$AA@
CONST	SEGMENT
??_C@_1DO@EEGFHBNA@?$AAc?$AAh?$AAa?$AAn?$AAn?$AAe?$AAl?$AA_?$AAn?$AAo?$AA?5?$AA?$DM?$AA?5?$AAm?$AAa?$AAx?$AA_?$AAd?$AAr?$AAa?$AAw?$AA_?$AAc?$AAh?$AAa?$AAn?$AAn?$AAe?$AAl?$AAs?$AA?$AA@ DB 'c'
	DB	00H, 'h', 00H, 'a', 00H, 'n', 00H, 'n', 00H, 'e', 00H, 'l', 00H
	DB	'_', 00H, 'n', 00H, 'o', 00H, ' ', 00H, '<', 00H, ' ', 00H, 'm'
	DB	00H, 'a', 00H, 'x', 00H, '_', 00H, 'd', 00H, 'r', 00H, 'a', 00H
	DB	'w', 00H, '_', 00H, 'c', 00H, 'h', 00H, 'a', 00H, 'n', 00H, 'n'
	DB	00H, 'e', 00H, 'l', 00H, 's', 00H, 00H, 00H	; `string'
CONST	ENDS
;	COMDAT ??_C@_1DA@GEHLCBHG@?$AAs?$AAp?$AAl?$AAi?$AAt?$AAt?$AAe?$AAr?$AA?9?$AA?$DO?$AA_?$AAC?$AAu?$AAr?$AAr?$AAe?$AAn?$AAt?$AA?5?$AA?$DN?$AA?$DN?$AA?5?$AA0?$AA?$AA@
CONST	SEGMENT
??_C@_1DA@GEHLCBHG@?$AAs?$AAp?$AAl?$AAi?$AAt?$AAt?$AAe?$AAr?$AA?9?$AA?$DO?$AA_?$AAC?$AAu?$AAr?$AAr?$AAe?$AAn?$AAt?$AA?5?$AA?$DN?$AA?$DN?$AA?5?$AA0?$AA?$AA@ DB 's'
	DB	00H, 'p', 00H, 'l', 00H, 'i', 00H, 't', 00H, 't', 00H, 'e', 00H
	DB	'r', 00H, '-', 00H, '>', 00H, '_', 00H, 'C', 00H, 'u', 00H, 'r'
	DB	00H, 'r', 00H, 'e', 00H, 'n', 00H, 't', 00H, ' ', 00H, '=', 00H
	DB	'=', 00H, ' ', 00H, '0', 00H, 00H, 00H	; `string'
CONST	ENDS
;	COMDAT ?__LINE__Var@?0??TableMergeDrawChannels@ImGui@@YAXPEAUImGuiTable@@@Z@4JA
_DATA	SEGMENT
?__LINE__Var@?0??TableMergeDrawChannels@ImGui@@YAXPEAUImGuiTable@@@Z@4JA DD 0939H ; `ImGui::TableMergeDrawChannels'::`1'::__LINE__Var
_DATA	ENDS
;	COMDAT ??_C@_1GG@NCDBECJP@?$AAt?$AAa?$AAb?$AAl?$AAe?$AA?9?$AA?$DO?$AAB?$AAg?$AAC?$AAl?$AAi?$AAp?$AAR?$AAe?$AAc?$AAt?$AA?4?$AAM?$AAi?$AAn?$AA?4?$AAy?$AA?5?$AA?$DM?$AA?$DN?$AA?5?$AAt?$AAa?$AAb?$AAl?$AAe@
CONST	SEGMENT
??_C@_1GG@NCDBECJP@?$AAt?$AAa?$AAb?$AAl?$AAe?$AA?9?$AA?$DO?$AAB?$AAg?$AAC?$AAl?$AAi?$AAp?$AAR?$AAe?$AAc?$AAt?$AA?4?$AAM?$AAi?$AAn?$AA?4?$AAy?$AA?5?$AA?$DM?$AA?$DN?$AA?5?$AAt?$AAa?$AAb?$AAl?$AAe@ DB 't'
	DB	00H, 'a', 00H, 'b', 00H, 'l', 00H, 'e', 00H, '-', 00H, '>', 00H
	DB	'B', 00H, 'g', 00H, 'C', 00H, 'l', 00H, 'i', 00H, 'p', 00H, 'R'
	DB	00H, 'e', 00H, 'c', 00H, 't', 00H, '.', 00H, 'M', 00H, 'i', 00H
	DB	'n', 00H, '.', 00H, 'y', 00H, ' ', 00H, '<', 00H, '=', 00H, ' '
	DB	00H, 't', 00H, 'a', 00H, 'b', 00H, 'l', 00H, 'e', 00H, '-', 00H
	DB	'>', 00H, 'B', 00H, 'g', 00H, 'C', 00H, 'l', 00H, 'i', 00H, 'p'
	DB	00H, 'R', 00H, 'e', 00H, 'c', 00H, 't', 00H, '.', 00H, 'M', 00H
	DB	'a', 00H, 'x', 00H, '.', 00H, 'y', 00H, 00H, 00H ; `string'
CONST	ENDS
;	COMDAT ?__LINE__Var@?0??TableSetupDrawChannels@ImGui@@YAXPEAUImGuiTable@@@Z@4JA
_DATA	SEGMENT
?__LINE__Var@?0??TableSetupDrawChannels@ImGui@@YAXPEAUImGuiTable@@@Z@4JA DD 08f5H ; `ImGui::TableSetupDrawChannels'::`1'::__LINE__Var
_DATA	ENDS
;	COMDAT ??_C@_1FM@OBNODAI@?$AAv?$AAi?$AAs?$AAi?$AAb?$AAl?$AAe?$AA_?$AAw?$AAe?$AAi?$AAg?$AAh?$AAt?$AA?5?$AA?$DO?$AA?5?$AA0?$AA?4?$AA0?$AAf?$AA?5?$AA?$CG?$AA?$CG?$AA?5?$AAv?$AAi?$AAs?$AAi?$AAb?$AAl?$AAe@
CONST	SEGMENT
??_C@_1FM@OBNODAI@?$AAv?$AAi?$AAs?$AAi?$AAb?$AAl?$AAe?$AA_?$AAw?$AAe?$AAi?$AAg?$AAh?$AAt?$AA?5?$AA?$DO?$AA?5?$AA0?$AA?4?$AA0?$AAf?$AA?5?$AA?$CG?$AA?$CG?$AA?5?$AAv?$AAi?$AAs?$AAi?$AAb?$AAl?$AAe@ DB 'v'
	DB	00H, 'i', 00H, 's', 00H, 'i', 00H, 'b', 00H, 'l', 00H, 'e', 00H
	DB	'_', 00H, 'w', 00H, 'e', 00H, 'i', 00H, 'g', 00H, 'h', 00H, 't'
	DB	00H, ' ', 00H, '>', 00H, ' ', 00H, '0', 00H, '.', 00H, '0', 00H
	DB	'f', 00H, ' ', 00H, '&', 00H, '&', 00H, ' ', 00H, 'v', 00H, 'i'
	DB	00H, 's', 00H, 'i', 00H, 'b', 00H, 'l', 00H, 'e', 00H, '_', 00H
	DB	'w', 00H, 'i', 00H, 'd', 00H, 't', 00H, 'h', 00H, ' ', 00H, '>'
	DB	00H, ' ', 00H, '0', 00H, '.', 00H, '0', 00H, 'f', 00H, 00H, 00H ; `string'
CONST	ENDS
;	COMDAT ??_C@_1DK@MOAONJGL@?$AAc?$AAo?$AAl?$AAu?$AAm?$AAn?$AA?9?$AA?$DO?$AAS?$AAt?$AAr?$AAe?$AAt?$AAc?$AAh?$AAW?$AAe?$AAi?$AAg?$AAh?$AAt?$AA?5?$AA?$DO?$AA?5?$AA0?$AA?4?$AA0?$AAf?$AA?$AA@
CONST	SEGMENT
??_C@_1DK@MOAONJGL@?$AAc?$AAo?$AAl?$AAu?$AAm?$AAn?$AA?9?$AA?$DO?$AAS?$AAt?$AAr?$AAe?$AAt?$AAc?$AAh?$AAW?$AAe?$AAi?$AAg?$AAh?$AAt?$AA?5?$AA?$DO?$AA?5?$AA0?$AA?4?$AA0?$AAf?$AA?$AA@ DB 'c'
	DB	00H, 'o', 00H, 'l', 00H, 'u', 00H, 'm', 00H, 'n', 00H, '-', 00H
	DB	'>', 00H, 'S', 00H, 't', 00H, 'r', 00H, 'e', 00H, 't', 00H, 'c'
	DB	00H, 'h', 00H, 'W', 00H, 'e', 00H, 'i', 00H, 'g', 00H, 'h', 00H
	DB	't', 00H, ' ', 00H, '>', 00H, ' ', 00H, '0', 00H, '.', 00H, '0'
	DB	00H, 'f', 00H, 00H, 00H			; `string'
CONST	ENDS
;	COMDAT ??_C@_1JM@ELMLJHLO@?$AAt?$AAa?$AAb?$AAl?$AAe?$AA?9?$AA?$DO?$AAL?$AAe?$AAf?$AAt?$AAM?$AAo?$AAs?$AAt?$AAS?$AAt?$AAr?$AAe?$AAt?$AAc?$AAh?$AAe?$AAd?$AAC?$AAo?$AAl?$AAu?$AAm?$AAn?$AA?5?$AA?$CB@
CONST	SEGMENT
??_C@_1JM@ELMLJHLO@?$AAt?$AAa?$AAb?$AAl?$AAe?$AA?9?$AA?$DO?$AAL?$AAe?$AAf?$AAt?$AAM?$AAo?$AAs?$AAt?$AAS?$AAt?$AAr?$AAe?$AAt?$AAc?$AAh?$AAe?$AAd?$AAC?$AAo?$AAl?$AAu?$AAm?$AAn?$AA?5?$AA?$CB@ DB 't'
	DB	00H, 'a', 00H, 'b', 00H, 'l', 00H, 'e', 00H, '-', 00H, '>', 00H
	DB	'L', 00H, 'e', 00H, 'f', 00H, 't', 00H, 'M', 00H, 'o', 00H, 's'
	DB	00H, 't', 00H, 'S', 00H, 't', 00H, 'r', 00H, 'e', 00H, 't', 00H
	DB	'c', 00H, 'h', 00H, 'e', 00H, 'd', 00H, 'C', 00H, 'o', 00H, 'l'
	DB	00H, 'u', 00H, 'm', 00H, 'n', 00H, ' ', 00H, '!', 00H, '=', 00H
	DB	' ', 00H, '-', 00H, '1', 00H, ' ', 00H, '&', 00H, '&', 00H, ' '
	DB	00H, 't', 00H, 'a', 00H, 'b', 00H, 'l', 00H, 'e', 00H, '-', 00H
	DB	'>', 00H, 'R', 00H, 'i', 00H, 'g', 00H, 'h', 00H, 't', 00H, 'M'
	DB	00H, 'o', 00H, 's', 00H, 't', 00H, 'S', 00H, 't', 00H, 'r', 00H
	DB	'e', 00H, 't', 00H, 'c', 00H, 'h', 00H, 'e', 00H, 'd', 00H, 'C'
	DB	00H, 'o', 00H, 'l', 00H, 'u', 00H, 'm', 00H, 'n', 00H, ' ', 00H
	DB	'!', 00H, '=', 00H, ' ', 00H, '-', 00H, '1', 00H, 00H, 00H ; `string'
CONST	ENDS
;	COMDAT ?__LINE__Var@?0??TableUpdateColumnsWeightFromWidth@ImGui@@YAXPEAUImGuiTable@@@Z@4JA
_DATA	SEGMENT
?__LINE__Var@?0??TableUpdateColumnsWeightFromWidth@ImGui@@YAXPEAUImGuiTable@@@Z@4JA DD 08a4H ; `ImGui::TableUpdateColumnsWeightFromWidth'::`1'::__LINE__Var
_DATA	ENDS
;	COMDAT ??_C@_1FO@DCOODALF@?$AAc?$AAo?$AAl?$AAu?$AAm?$AAn?$AA_?$AA0?$AA_?$AAw?$AAi?$AAd?$AAt?$AAh?$AA?5?$AA?$DO?$AA?5?$AA0?$AA?4?$AA0?$AAf?$AA?5?$AA?$CG?$AA?$CG?$AA?5?$AAc?$AAo?$AAl?$AAu?$AAm?$AAn?$AA_@
CONST	SEGMENT
??_C@_1FO@DCOODALF@?$AAc?$AAo?$AAl?$AAu?$AAm?$AAn?$AA_?$AA0?$AA_?$AAw?$AAi?$AAd?$AAt?$AAh?$AA?5?$AA?$DO?$AA?5?$AA0?$AA?4?$AA0?$AAf?$AA?5?$AA?$CG?$AA?$CG?$AA?5?$AAc?$AAo?$AAl?$AAu?$AAm?$AAn?$AA_@ DB 'c'
	DB	00H, 'o', 00H, 'l', 00H, 'u', 00H, 'm', 00H, 'n', 00H, '_', 00H
	DB	'0', 00H, '_', 00H, 'w', 00H, 'i', 00H, 'd', 00H, 't', 00H, 'h'
	DB	00H, ' ', 00H, '>', 00H, ' ', 00H, '0', 00H, '.', 00H, '0', 00H
	DB	'f', 00H, ' ', 00H, '&', 00H, '&', 00H, ' ', 00H, 'c', 00H, 'o'
	DB	00H, 'l', 00H, 'u', 00H, 'm', 00H, 'n', 00H, '_', 00H, '1', 00H
	DB	'_', 00H, 'w', 00H, 'i', 00H, 'd', 00H, 't', 00H, 'h', 00H, ' '
	DB	00H, '>', 00H, ' ', 00H, '0', 00H, '.', 00H, '0', 00H, 'f', 00H
	DB	00H, 00H					; `string'
CONST	ENDS
;	COMDAT ??_C@_1DK@PGHMBBCD@?$AAt?$AAa?$AAb?$AAl?$AAe?$AA?9?$AA?$DO?$AAM?$AAi?$AAn?$AAC?$AAo?$AAl?$AAu?$AAm?$AAn?$AAW?$AAi?$AAd?$AAt?$AAh?$AA?5?$AA?$DO?$AA?5?$AA0?$AA?4?$AA0?$AAf?$AA?$AA@
CONST	SEGMENT
??_C@_1DK@PGHMBBCD@?$AAt?$AAa?$AAb?$AAl?$AAe?$AA?9?$AA?$DO?$AAM?$AAi?$AAn?$AAC?$AAo?$AAl?$AAu?$AAm?$AAn?$AAW?$AAi?$AAd?$AAt?$AAh?$AA?5?$AA?$DO?$AA?5?$AA0?$AA?4?$AA0?$AAf?$AA?$AA@ DB 't'
	DB	00H, 'a', 00H, 'b', 00H, 'l', 00H, 'e', 00H, '-', 00H, '>', 00H
	DB	'M', 00H, 'i', 00H, 'n', 00H, 'C', 00H, 'o', 00H, 'l', 00H, 'u'
	DB	00H, 'm', 00H, 'n', 00H, 'W', 00H, 'i', 00H, 'd', 00H, 't', 00H
	DB	'h', 00H, ' ', 00H, '>', 00H, ' ', 00H, '0', 00H, '.', 00H, '0'
	DB	00H, 'f', 00H, 00H, 00H			; `string'
CONST	ENDS
;	COMDAT ??_C@_1FK@MHBOMDGH@?$AAt?$AAa?$AAb?$AAl?$AAe?$AA?5?$AA?$CB?$AA?$DN?$AA?5?$AA0?$AA?5?$AA?$CG?$AA?$CG?$AA?5?$AAt?$AAa?$AAb?$AAl?$AAe?$AA?9?$AA?$DO?$AAI?$AAs?$AAL?$AAa?$AAy?$AAo?$AAu?$AAt?$AAL?$AAo?$AAc@
CONST	SEGMENT
??_C@_1FK@MHBOMDGH@?$AAt?$AAa?$AAb?$AAl?$AAe?$AA?5?$AA?$CB?$AA?$DN?$AA?5?$AA0?$AA?5?$AA?$CG?$AA?$CG?$AA?5?$AAt?$AAa?$AAb?$AAl?$AAe?$AA?9?$AA?$DO?$AAI?$AAs?$AAL?$AAa?$AAy?$AAo?$AAu?$AAt?$AAL?$AAo?$AAc@ DB 't'
	DB	00H, 'a', 00H, 'b', 00H, 'l', 00H, 'e', 00H, ' ', 00H, '!', 00H
	DB	'=', 00H, ' ', 00H, '0', 00H, ' ', 00H, '&', 00H, '&', 00H, ' '
	DB	00H, 't', 00H, 'a', 00H, 'b', 00H, 'l', 00H, 'e', 00H, '-', 00H
	DB	'>', 00H, 'I', 00H, 's', 00H, 'L', 00H, 'a', 00H, 'y', 00H, 'o'
	DB	00H, 'u', 00H, 't', 00H, 'L', 00H, 'o', 00H, 'c', 00H, 'k', 00H
	DB	'e', 00H, 'd', 00H, ' ', 00H, '=', 00H, '=', 00H, ' ', 00H, 'f'
	DB	00H, 'a', 00H, 'l', 00H, 's', 00H, 'e', 00H, 00H, 00H ; `string'
CONST	ENDS
;	COMDAT ?__LINE__Var@?0??TableSetColumnWidth@ImGui@@YAXHM@Z@4JA
_DATA	SEGMENT
?__LINE__Var@?0??TableSetColumnWidth@ImGui@@YAXHM@Z@4JA DD 083bH ; `ImGui::TableSetColumnWidth'::`1'::__LINE__Var
_DATA	ENDS
;	COMDAT ??_C@_1EK@MBNMJGKK@?$AAc?$AAo?$AAl?$AAu?$AAm?$AAn?$AA_?$AAn?$AA?5?$AA?$DO?$AA?$DN?$AA?5?$AA0?$AA?5?$AA?$CG?$AA?$CG?$AA?5?$AAt?$AAa?$AAb?$AAl?$AAe?$AA?9?$AA?$DO?$AAC?$AAo?$AAl?$AAu?$AAm?$AAn?$AAs?$AAC@
CONST	SEGMENT
??_C@_1EK@MBNMJGKK@?$AAc?$AAo?$AAl?$AAu?$AAm?$AAn?$AA_?$AAn?$AA?5?$AA?$DO?$AA?$DN?$AA?5?$AA0?$AA?5?$AA?$CG?$AA?$CG?$AA?5?$AAt?$AAa?$AAb?$AAl?$AAe?$AA?9?$AA?$DO?$AAC?$AAo?$AAl?$AAu?$AAm?$AAn?$AAs?$AAC@ DB 'c'
	DB	00H, 'o', 00H, 'l', 00H, 'u', 00H, 'm', 00H, 'n', 00H, '_', 00H
	DB	'n', 00H, ' ', 00H, '>', 00H, '=', 00H, ' ', 00H, '0', 00H, ' '
	DB	00H, '&', 00H, '&', 00H, ' ', 00H, 't', 00H, 'a', 00H, 'b', 00H
	DB	'l', 00H, 'e', 00H, '-', 00H, '>', 00H, 'C', 00H, 'o', 00H, 'l'
	DB	00H, 'u', 00H, 'm', 00H, 'n', 00H, 's', 00H, 'C', 00H, 'o', 00H
	DB	'u', 00H, 'n', 00H, 't', 00H, 00H, 00H	; `string'
CONST	ENDS
;	COMDAT ?__LINE__Var@?0??TableSetColumnIndex@ImGui@@YA_NH@Z@4JA
_DATA	SEGMENT
?__LINE__Var@?0??TableSetColumnIndex@ImGui@@YA_NH@Z@4JA DD 077cH ; `ImGui::TableSetColumnIndex'::`1'::__LINE__Var
_DATA	ENDS
;	COMDAT ??_C@_1JC@PCOAPGIF@?$AAt?$AAa?$AAb?$AAl?$AAe?$AA?9?$AA?$DO?$AAB?$AAg?$AA2?$AAC?$AAl?$AAi?$AAp?$AAR?$AAe?$AAc?$AAt?$AAF?$AAo?$AAr?$AAD?$AAr?$AAa?$AAw?$AAC?$AAm?$AAd?$AA?4?$AAM?$AAi?$AAn@
CONST	SEGMENT
??_C@_1JC@PCOAPGIF@?$AAt?$AAa?$AAb?$AAl?$AAe?$AA?9?$AA?$DO?$AAB?$AAg?$AA2?$AAC?$AAl?$AAi?$AAp?$AAR?$AAe?$AAc?$AAt?$AAF?$AAo?$AAr?$AAD?$AAr?$AAa?$AAw?$AAC?$AAm?$AAd?$AA?4?$AAM?$AAi?$AAn@ DB 't'
	DB	00H, 'a', 00H, 'b', 00H, 'l', 00H, 'e', 00H, '-', 00H, '>', 00H
	DB	'B', 00H, 'g', 00H, '2', 00H, 'C', 00H, 'l', 00H, 'i', 00H, 'p'
	DB	00H, 'R', 00H, 'e', 00H, 'c', 00H, 't', 00H, 'F', 00H, 'o', 00H
	DB	'r', 00H, 'D', 00H, 'r', 00H, 'a', 00H, 'w', 00H, 'C', 00H, 'm'
	DB	00H, 'd', 00H, '.', 00H, 'M', 00H, 'i', 00H, 'n', 00H, '.', 00H
	DB	'y', 00H, ' ', 00H, '<', 00H, '=', 00H, ' ', 00H, 't', 00H, 'a'
	DB	00H, 'b', 00H, 'l', 00H, 'e', 00H, '-', 00H, '>', 00H, 'B', 00H
	DB	'g', 00H, '2', 00H, 'C', 00H, 'l', 00H, 'i', 00H, 'p', 00H, 'R'
	DB	00H, 'e', 00H, 'c', 00H, 't', 00H, 'F', 00H, 'o', 00H, 'r', 00H
	DB	'D', 00H, 'r', 00H, 'a', 00H, 'w', 00H, 'C', 00H, 'm', 00H, 'd'
	DB	00H, '.', 00H, 'M', 00H, 'a', 00H, 'x', 00H, '.', 00H, 'y', 00H
	DB	00H, 00H					; `string'
CONST	ENDS
;	COMDAT ??_C@_1DO@BPCFJEPF@?$AAt?$AAa?$AAb?$AAl?$AAe?$AA?9?$AA?$DO?$AAI?$AAs?$AAU?$AAn?$AAf?$AAr?$AAo?$AAz?$AAe?$AAn?$AAR?$AAo?$AAw?$AAs?$AA?5?$AA?$DN?$AA?$DN?$AA?5?$AAf?$AAa?$AAl?$AAs?$AAe?$AA?$AA@
CONST	SEGMENT
??_C@_1DO@BPCFJEPF@?$AAt?$AAa?$AAb?$AAl?$AAe?$AA?9?$AA?$DO?$AAI?$AAs?$AAU?$AAn?$AAf?$AAr?$AAo?$AAz?$AAe?$AAn?$AAR?$AAo?$AAw?$AAs?$AA?5?$AA?$DN?$AA?$DN?$AA?5?$AAf?$AAa?$AAl?$AAs?$AAe?$AA?$AA@ DB 't'
	DB	00H, 'a', 00H, 'b', 00H, 'l', 00H, 'e', 00H, '-', 00H, '>', 00H
	DB	'I', 00H, 's', 00H, 'U', 00H, 'n', 00H, 'f', 00H, 'r', 00H, 'o'
	DB	00H, 'z', 00H, 'e', 00H, 'n', 00H, 'R', 00H, 'o', 00H, 'w', 00H
	DB	's', 00H, ' ', 00H, '=', 00H, '=', 00H, ' ', 00H, 'f', 00H, 'a'
	DB	00H, 'l', 00H, 's', 00H, 'e', 00H, 00H, 00H	; `string'
CONST	ENDS
;	COMDAT ??_C@_01DNKMNLPK@?$HM?$AA@
CONST	SEGMENT
??_C@_01DNKMNLPK@?$HM?$AA@ DB '|', 00H			; `string'
CONST	ENDS
;	COMDAT ??_C@_1CG@HHNDIFPE@?$AAt?$AAa?$AAb?$AAl?$AAe?$AA?9?$AA?$DO?$AAI?$AAs?$AAI?$AAn?$AAs?$AAi?$AAd?$AAe?$AAR?$AAo?$AAw?$AA?$AA@
CONST	SEGMENT
??_C@_1CG@HHNDIFPE@?$AAt?$AAa?$AAb?$AAl?$AAe?$AA?9?$AA?$DO?$AAI?$AAs?$AAI?$AAn?$AAs?$AAi?$AAd?$AAe?$AAR?$AAo?$AAw?$AA?$AA@ DB 't'
	DB	00H, 'a', 00H, 'b', 00H, 'l', 00H, 'e', 00H, '-', 00H, '>', 00H
	DB	'I', 00H, 's', 00H, 'I', 00H, 'n', 00H, 's', 00H, 'i', 00H, 'd'
	DB	00H, 'e', 00H, 'R', 00H, 'o', 00H, 'w', 00H, 00H, 00H ; `string'
CONST	ENDS
;	COMDAT ??_C@_1DK@GFLHACMC@?$AAw?$AAi?$AAn?$AAd?$AAo?$AAw?$AA?5?$AA?$DN?$AA?$DN?$AA?5?$AAt?$AAa?$AAb?$AAl?$AAe?$AA?9?$AA?$DO?$AAI?$AAn?$AAn?$AAe?$AAr?$AAW?$AAi?$AAn?$AAd?$AAo?$AAw?$AA?$AA@
CONST	SEGMENT
??_C@_1DK@GFLHACMC@?$AAw?$AAi?$AAn?$AAd?$AAo?$AAw?$AA?5?$AA?$DN?$AA?$DN?$AA?5?$AAt?$AAa?$AAb?$AAl?$AAe?$AA?9?$AA?$DO?$AAI?$AAn?$AAn?$AAe?$AAr?$AAW?$AAi?$AAn?$AAd?$AAo?$AAw?$AA?$AA@ DB 'w'
	DB	00H, 'i', 00H, 'n', 00H, 'd', 00H, 'o', 00H, 'w', 00H, ' ', 00H
	DB	'=', 00H, '=', 00H, ' ', 00H, 't', 00H, 'a', 00H, 'b', 00H, 'l'
	DB	00H, 'e', 00H, '-', 00H, '>', 00H, 'I', 00H, 'n', 00H, 'n', 00H
	DB	'e', 00H, 'r', 00H, 'W', 00H, 'i', 00H, 'n', 00H, 'd', 00H, 'o'
	DB	00H, 'w', 00H, 00H, 00H			; `string'
CONST	ENDS
;	COMDAT ?__LINE__Var@?0??TableEndRow@ImGui@@YAXPEAUImGuiTable@@@Z@4JA
_DATA	SEGMENT
?__LINE__Var@?0??TableEndRow@ImGui@@YAXPEAUImGuiTable@@@Z@4JA DD 06e2H ; `ImGui::TableEndRow'::`1'::__LINE__Var
_DATA	ENDS
;	COMDAT ??_C@_1CI@JLDNLAAM@?$AA?$CB?$AAt?$AAa?$AAb?$AAl?$AAe?$AA?9?$AA?$DO?$AAI?$AAs?$AAI?$AAn?$AAs?$AAi?$AAd?$AAe?$AAR?$AAo?$AAw?$AA?$AA@
CONST	SEGMENT
??_C@_1CI@JLDNLAAM@?$AA?$CB?$AAt?$AAa?$AAb?$AAl?$AAe?$AA?9?$AA?$DO?$AAI?$AAs?$AAI?$AAn?$AAs?$AAi?$AAd?$AAe?$AAR?$AAo?$AAw?$AA?$AA@ DB '!'
	DB	00H, 't', 00H, 'a', 00H, 'b', 00H, 'l', 00H, 'e', 00H, '-', 00H
	DB	'>', 00H, 'I', 00H, 's', 00H, 'I', 00H, 'n', 00H, 's', 00H, 'i'
	DB	00H, 'd', 00H, 'e', 00H, 'R', 00H, 'o', 00H, 'w', 00H, 00H, 00H ; `string'
CONST	ENDS
;	COMDAT ?__LINE__Var@?0??TableBeginRow@ImGui@@YAXPEAUImGuiTable@@@Z@4JA
_DATA	SEGMENT
?__LINE__Var@?0??TableBeginRow@ImGui@@YAXPEAUImGuiTable@@@Z@4JA DD 06bfH ; `ImGui::TableBeginRow'::`1'::__LINE__Var
_DATA	ENDS
;	COMDAT ??_C@_1BO@EGJMPMHM@?$AAc?$AAo?$AAl?$AAu?$AAm?$AAn?$AA_?$AAn?$AA?5?$AA?$DN?$AA?$DN?$AA?5?$AA?9?$AA1?$AA?$AA@
CONST	SEGMENT
??_C@_1BO@EGJMPMHM@?$AAc?$AAo?$AAl?$AAu?$AAm?$AAn?$AA_?$AAn?$AA?5?$AA?$DN?$AA?$DN?$AA?5?$AA?9?$AA1?$AA?$AA@ DB 'c'
	DB	00H, 'o', 00H, 'l', 00H, 'u', 00H, 'm', 00H, 'n', 00H, '_', 00H
	DB	'n', 00H, ' ', 00H, '=', 00H, '=', 00H, ' ', 00H, '-', 00H, '1'
	DB	00H, 00H, 00H				; `string'
CONST	ENDS
;	COMDAT ??_C@_1EE@NMABAIJJ@?$AAt?$AAa?$AAr?$AAg?$AAe?$AAt?$AA?5?$AA?$CB?$AA?$DN?$AA?5?$AAI?$AAm?$AAG?$AAu?$AAi?$AAT?$AAa?$AAb?$AAl?$AAe?$AAB?$AAg?$AAT?$AAa?$AAr?$AAg?$AAe?$AAt?$AA_?$AAN?$AAo?$AAn@
CONST	SEGMENT
??_C@_1EE@NMABAIJJ@?$AAt?$AAa?$AAr?$AAg?$AAe?$AAt?$AA?5?$AA?$CB?$AA?$DN?$AA?5?$AAI?$AAm?$AAG?$AAu?$AAi?$AAT?$AAa?$AAb?$AAl?$AAe?$AAB?$AAg?$AAT?$AAa?$AAr?$AAg?$AAe?$AAt?$AA_?$AAN?$AAo?$AAn@ DB 't'
	DB	00H, 'a', 00H, 'r', 00H, 'g', 00H, 'e', 00H, 't', 00H, ' ', 00H
	DB	'!', 00H, '=', 00H, ' ', 00H, 'I', 00H, 'm', 00H, 'G', 00H, 'u'
	DB	00H, 'i', 00H, 'T', 00H, 'a', 00H, 'b', 00H, 'l', 00H, 'e', 00H
	DB	'B', 00H, 'g', 00H, 'T', 00H, 'a', 00H, 'r', 00H, 'g', 00H, 'e'
	DB	00H, 't', 00H, '_', 00H, 'N', 00H, 'o', 00H, 'n', 00H, 'e', 00H
	DB	00H, 00H					; `string'
CONST	ENDS
;	COMDAT ?__LINE__Var@?0??TableSetBgColor@ImGui@@YAXHIH@Z@4JA
_DATA	SEGMENT
?__LINE__Var@?0??TableSetBgColor@ImGui@@YAXHIH@Z@4JA DD 0668H ; `ImGui::TableSetBgColor'::`1'::__LINE__Var
_DATA	ENDS
;	COMDAT ?__LINE__Var@?0??TableGetColumnResizeID@ImGui@@YAIPEBUImGuiTable@@HH@Z@4JA
_DATA	SEGMENT
?__LINE__Var@?0??TableGetColumnResizeID@ImGui@@YAIPEBUImGuiTable@@HH@Z@4JA DD 0657H ; `ImGui::TableGetColumnResizeID'::`1'::__LINE__Var
_DATA	ENDS
;	COMDAT ??_C@_1GA@OFNPMLNE@?$AAc?$AAo?$AAl?$AAu?$AAm?$AAn?$AA_?$AAn?$AA?5?$AA?$DO?$AA?$DN?$AA?5?$AA0?$AA?5?$AA?$CG?$AA?$CG?$AA?5?$AAc?$AAo?$AAl?$AAu?$AAm?$AAn?$AA_?$AAn?$AA?5?$AA?$DM?$AA?5?$AAt?$AAa?$AAb?$AAl@
CONST	SEGMENT
??_C@_1GA@OFNPMLNE@?$AAc?$AAo?$AAl?$AAu?$AAm?$AAn?$AA_?$AAn?$AA?5?$AA?$DO?$AA?$DN?$AA?5?$AA0?$AA?5?$AA?$CG?$AA?$CG?$AA?5?$AAc?$AAo?$AAl?$AAu?$AAm?$AAn?$AA_?$AAn?$AA?5?$AA?$DM?$AA?5?$AAt?$AAa?$AAb?$AAl@ DB 'c'
	DB	00H, 'o', 00H, 'l', 00H, 'u', 00H, 'm', 00H, 'n', 00H, '_', 00H
	DB	'n', 00H, ' ', 00H, '>', 00H, '=', 00H, ' ', 00H, '0', 00H, ' '
	DB	00H, '&', 00H, '&', 00H, ' ', 00H, 'c', 00H, 'o', 00H, 'l', 00H
	DB	'u', 00H, 'm', 00H, 'n', 00H, '_', 00H, 'n', 00H, ' ', 00H, '<'
	DB	00H, ' ', 00H, 't', 00H, 'a', 00H, 'b', 00H, 'l', 00H, 'e', 00H
	DB	'-', 00H, '>', 00H, 'C', 00H, 'o', 00H, 'l', 00H, 'u', 00H, 'm'
	DB	00H, 'n', 00H, 's', 00H, 'C', 00H, 'o', 00H, 'u', 00H, 'n', 00H
	DB	't', 00H, 00H, 00H				; `string'
CONST	ENDS
;	COMDAT ??_C@_1FA@FCMNFGAM@?$AAt?$AAa?$AAb?$AAl?$AAe?$AA?9?$AA?$DO?$AAF?$AAl?$AAa?$AAg?$AAs?$AA?5?$AA?$CG?$AA?5?$AAI?$AAm?$AAG?$AAu?$AAi?$AAT?$AAa?$AAb?$AAl?$AAe?$AAF?$AAl?$AAa?$AAg?$AAs?$AA_?$AAH@
CONST	SEGMENT
??_C@_1FA@FCMNFGAM@?$AAt?$AAa?$AAb?$AAl?$AAe?$AA?9?$AA?$DO?$AAF?$AAl?$AAa?$AAg?$AAs?$AA?5?$AA?$CG?$AA?5?$AAI?$AAm?$AAG?$AAu?$AAi?$AAT?$AAa?$AAb?$AAl?$AAe?$AAF?$AAl?$AAa?$AAg?$AAs?$AA_?$AAH@ DB 't'
	DB	00H, 'a', 00H, 'b', 00H, 'l', 00H, 'e', 00H, '-', 00H, '>', 00H
	DB	'F', 00H, 'l', 00H, 'a', 00H, 'g', 00H, 's', 00H, ' ', 00H, '&'
	DB	00H, ' ', 00H, 'I', 00H, 'm', 00H, 'G', 00H, 'u', 00H, 'i', 00H
	DB	'T', 00H, 'a', 00H, 'b', 00H, 'l', 00H, 'e', 00H, 'F', 00H, 'l'
	DB	00H, 'a', 00H, 'g', 00H, 's', 00H, '_', 00H, 'H', 00H, 'i', 00H
	DB	'd', 00H, 'e', 00H, 'a', 00H, 'b', 00H, 'l', 00H, 'e', 00H, 00H
	DB	00H						; `string'
CONST	ENDS
;	COMDAT ??_C@_1BG@IPNBPJPE@?$AAt?$AAa?$AAb?$AAl?$AAe?$AA?5?$AA?$CB?$AA?$DN?$AA?5?$AA0?$AA?$AA@
CONST	SEGMENT
??_C@_1BG@IPNBPJPE@?$AAt?$AAa?$AAb?$AAl?$AAe?$AA?5?$AA?$CB?$AA?$DN?$AA?5?$AA0?$AA?$AA@ DB 't'
	DB	00H, 'a', 00H, 'b', 00H, 'l', 00H, 'e', 00H, ' ', 00H, '!', 00H
	DB	'=', 00H, ' ', 00H, '0', 00H, 00H, 00H	; `string'
CONST	ENDS
;	COMDAT ?__LINE__Var@?0??TableSetColumnEnabled@ImGui@@YAXH_N@Z@4JA
_DATA	SEGMENT
?__LINE__Var@?0??TableSetColumnEnabled@ImGui@@YAXH_N@Z@4JA DD 0625H ; `ImGui::TableSetColumnEnabled'::`1'::__LINE__Var
_DATA	ENDS
;	COMDAT ??_C@_00CNPNBAHC@?$AA@
CONST	SEGMENT
??_C@_00CNPNBAHC@?$AA@ DB 00H				; `string'
CONST	ENDS
;	COMDAT ??_C@_1DA@CGNBCADH@?$AAr?$AAo?$AAw?$AAs?$AA?5?$AA?$DO?$AA?$DN?$AA?5?$AA0?$AA?5?$AA?$CG?$AA?$CG?$AA?5?$AAr?$AAo?$AAw?$AAs?$AA?5?$AA?$DM?$AA?5?$AA1?$AA2?$AA8?$AA?$AA@
CONST	SEGMENT
??_C@_1DA@CGNBCADH@?$AAr?$AAo?$AAw?$AAs?$AA?5?$AA?$DO?$AA?$DN?$AA?5?$AA0?$AA?5?$AA?$CG?$AA?$CG?$AA?5?$AAr?$AAo?$AAw?$AAs?$AA?5?$AA?$DM?$AA?5?$AA1?$AA2?$AA8?$AA?$AA@ DB 'r'
	DB	00H, 'o', 00H, 'w', 00H, 's', 00H, ' ', 00H, '>', 00H, '=', 00H
	DB	' ', 00H, '0', 00H, ' ', 00H, '&', 00H, '&', 00H, ' ', 00H, 'r'
	DB	00H, 'o', 00H, 'w', 00H, 's', 00H, ' ', 00H, '<', 00H, ' ', 00H
	DB	'1', 00H, '2', 00H, '8', 00H, 00H, 00H	; `string'
CONST	ENDS
;	COMDAT ??_C@_1DM@GIPBLHPN@?$AAc?$AAo?$AAl?$AAu?$AAm?$AAn?$AAs?$AA?5?$AA?$DO?$AA?$DN?$AA?5?$AA0?$AA?5?$AA?$CG?$AA?$CG?$AA?5?$AAc?$AAo?$AAl?$AAu?$AAm?$AAn?$AAs?$AA?5?$AA?$DM?$AA?5?$AA5?$AA1?$AA2?$AA?$AA@
CONST	SEGMENT
??_C@_1DM@GIPBLHPN@?$AAc?$AAo?$AAl?$AAu?$AAm?$AAn?$AAs?$AA?5?$AA?$DO?$AA?$DN?$AA?5?$AA0?$AA?5?$AA?$CG?$AA?$CG?$AA?5?$AAc?$AAo?$AAl?$AAu?$AAm?$AAn?$AAs?$AA?5?$AA?$DM?$AA?5?$AA5?$AA1?$AA2?$AA?$AA@ DB 'c'
	DB	00H, 'o', 00H, 'l', 00H, 'u', 00H, 'm', 00H, 'n', 00H, 's', 00H
	DB	' ', 00H, '>', 00H, '=', 00H, ' ', 00H, '0', 00H, ' ', 00H, '&'
	DB	00H, '&', 00H, ' ', 00H, 'c', 00H, 'o', 00H, 'l', 00H, 'u', 00H
	DB	'm', 00H, 'n', 00H, 's', 00H, ' ', 00H, '<', 00H, ' ', 00H, '5'
	DB	00H, '1', 00H, '2', 00H, 00H, 00H		; `string'
CONST	ENDS
;	COMDAT ??_C@_1KM@MPIBPMGF@?$AAt?$AAa?$AAb?$AAl?$AAe?$AA?9?$AA?$DO?$AAI?$AAs?$AAL?$AAa?$AAy?$AAo?$AAu?$AAt?$AAL?$AAo?$AAc?$AAk?$AAe?$AAd?$AA?5?$AA?$DN?$AA?$DN?$AA?5?$AAf?$AAa?$AAl?$AAs?$AAe?$AA?5?$AA?$CG@
CONST	SEGMENT
??_C@_1KM@MPIBPMGF@?$AAt?$AAa?$AAb?$AAl?$AAe?$AA?9?$AA?$DO?$AAI?$AAs?$AAL?$AAa?$AAy?$AAo?$AAu?$AAt?$AAL?$AAo?$AAc?$AAk?$AAe?$AAd?$AA?5?$AA?$DN?$AA?$DN?$AA?5?$AAf?$AAa?$AAl?$AAs?$AAe?$AA?5?$AA?$CG@ DB 't'
	DB	00H, 'a', 00H, 'b', 00H, 'l', 00H, 'e', 00H, '-', 00H, '>', 00H
	DB	'I', 00H, 's', 00H, 'L', 00H, 'a', 00H, 'y', 00H, 'o', 00H, 'u'
	DB	00H, 't', 00H, 'L', 00H, 'o', 00H, 'c', 00H, 'k', 00H, 'e', 00H
	DB	'd', 00H, ' ', 00H, '=', 00H, '=', 00H, ' ', 00H, 'f', 00H, 'a'
	DB	00H, 'l', 00H, 's', 00H, 'e', 00H, ' ', 00H, '&', 00H, '&', 00H
	DB	' ', 00H, '"', 00H, 'N', 00H, 'e', 00H, 'e', 00H, 'd', 00H, ' '
	DB	00H, 't', 00H, 'o', 00H, ' ', 00H, 'c', 00H, 'a', 00H, 'l', 00H
	DB	'l', 00H, ' ', 00H, 'T', 00H, 'a', 00H, 'b', 00H, 'l', 00H, 'e'
	DB	00H, 'S', 00H, 'e', 00H, 't', 00H, 'u', 00H, 'p', 00H, 'C', 00H
	DB	'o', 00H, 'l', 00H, 'u', 00H, 'm', 00H, 'n', 00H, '(', 00H, ')'
	DB	00H, ' ', 00H, 'b', 00H, 'e', 00H, 'f', 00H, 'o', 00H, 'r', 00H
	DB	'e', 00H, ' ', 00H, 'f', 00H, 'i', 00H, 'r', 00H, 's', 00H, 't'
	DB	00H, ' ', 00H, 'r', 00H, 'o', 00H, 'w', 00H, '!', 00H, '"', 00H
	DB	00H, 00H					; `string'
CONST	ENDS
;	COMDAT ??_C@_0DC@CMJJAIP@Need?5to?5call?5TableSetupColumn?$CI?$CJ?5@
CONST	SEGMENT
??_C@_0DC@CMJJAIP@Need?5to?5call?5TableSetupColumn?$CI?$CJ?5@ DB 'Need to'
	DB	' call TableSetupColumn() before first row!', 00H ; `string'
CONST	ENDS
;	COMDAT ?__LINE__Var@?0??TableSetupScrollFreeze@ImGui@@YAXHH@Z@4JA
_DATA	SEGMENT
?__LINE__Var@?0??TableSetupScrollFreeze@ImGui@@YAXHH@Z@4JA DD 05d9H ; `ImGui::TableSetupScrollFreeze'::`1'::__LINE__Var
_DATA	ENDS
;	COMDAT ??_C@_1PM@LKIEMPHI@?$AAi?$AAn?$AAi?$AAt?$AA_?$AAw?$AAi?$AAd?$AAt?$AAh?$AA_?$AAo?$AAr?$AA_?$AAw?$AAe?$AAi?$AAg?$AAh?$AAt?$AA?5?$AA?$DM?$AA?$DN?$AA?5?$AA0?$AA?4?$AA0?$AAf?$AA?5?$AA?$CG?$AA?$CG?$AA?5@
CONST	SEGMENT
??_C@_1PM@LKIEMPHI@?$AAi?$AAn?$AAi?$AAt?$AA_?$AAw?$AAi?$AAd?$AAt?$AAh?$AA_?$AAo?$AAr?$AA_?$AAw?$AAe?$AAi?$AAg?$AAh?$AAt?$AA?5?$AA?$DM?$AA?$DN?$AA?5?$AA0?$AA?4?$AA0?$AAf?$AA?5?$AA?$CG?$AA?$CG?$AA?5@ DB 'i'
	DB	00H, 'n', 00H, 'i', 00H, 't', 00H, '_', 00H, 'w', 00H, 'i', 00H
	DB	'd', 00H, 't', 00H, 'h', 00H, '_', 00H, 'o', 00H, 'r', 00H, '_'
	DB	00H, 'w', 00H, 'e', 00H, 'i', 00H, 'g', 00H, 'h', 00H, 't', 00H
	DB	' ', 00H, '<', 00H, '=', 00H, ' ', 00H, '0', 00H, '.', 00H, '0'
	DB	00H, 'f', 00H, ' ', 00H, '&', 00H, '&', 00H, ' ', 00H, '"', 00H
	DB	'C', 00H, 'a', 00H, 'n', 00H, ' ', 00H, 'o', 00H, 'n', 00H, 'l'
	DB	00H, 'y', 00H, ' ', 00H, 's', 00H, 'p', 00H, 'e', 00H, 'c', 00H
	DB	'i', 00H, 'f', 00H, 'y', 00H, ' ', 00H, 'w', 00H, 'i', 00H, 'd'
	DB	00H, 't', 00H, 'h', 00H, '/', 00H, 'w', 00H, 'e', 00H, 'i', 00H
	DB	'g', 00H, 'h', 00H, 't', 00H, ' ', 00H, 'i', 00H, 'f', 00H, ' '
	DB	00H, 's', 00H, 'i', 00H, 'z', 00H, 'i', 00H, 'n', 00H, 'g', 00H
	DB	' ', 00H, 'p', 00H, 'o', 00H, 'l', 00H, 'i', 00H, 'c', 00H, 'y'
	DB	00H, ' ', 00H, 'i', 00H, 's', 00H, ' ', 00H, 's', 00H, 'e', 00H
	DB	't', 00H, ' ', 00H, 'e', 00H, 'x', 00H, 'p', 00H, 'l', 00H, 'i'
	DB	00H, 'c', 00H, 'i', 00H, 't', 00H, 'l', 00H, 'y', 00H, ' ', 00H
	DB	'i', 00H, 'n', 00H, ' ', 00H, 'e', 00H, 'i', 00H, 't', 00H, 'h'
	DB	00H, 'e', 00H, 'r', 00H, ' ', 00H, 'T', 00H, 'a', 00H, 'b', 00H
	DB	'l', 00H, 'e', 00H, ' ', 00H, 'o', 00H, 'r', 00H, ' ', 00H, 'C'
	DB	00H, 'o', 00H, 'l', 00H, 'u', 00H, 'm', 00H, 'n', 00H, '.', 00H
	DB	'"', 00H, 00H, 00H				; `string'
CONST	ENDS
;	COMDAT ??_C@_0FM@GOCDHGH@Can?5only?5specify?5width?1weight?5if@
CONST	SEGMENT
??_C@_0FM@GOCDHGH@Can?5only?5specify?5width?1weight?5if@ DB 'Can only spe'
	DB	'cify width/weight if sizing policy is set explicitly in eithe'
	DB	'r Table or Column.', 00H			; `string'
CONST	ENDS
;	COMDAT ??_C@_1LO@INHFIFIG@?$AA?$CI?$AAt?$AAa?$AAb?$AAl?$AAe?$AA?9?$AA?$DO?$AAD?$AAe?$AAc?$AAl?$AAC?$AAo?$AAl?$AAu?$AAm?$AAn?$AAs?$AAC?$AAo?$AAu?$AAn?$AAt?$AA?5?$AA?$DM?$AA?5?$AAt?$AAa?$AAb?$AAl?$AAe@
CONST	SEGMENT
??_C@_1LO@INHFIFIG@?$AA?$CI?$AAt?$AAa?$AAb?$AAl?$AAe?$AA?9?$AA?$DO?$AAD?$AAe?$AAc?$AAl?$AAC?$AAo?$AAl?$AAu?$AAm?$AAn?$AAs?$AAC?$AAo?$AAu?$AAn?$AAt?$AA?5?$AA?$DM?$AA?5?$AAt?$AAa?$AAb?$AAl?$AAe@ DB '('
	DB	00H, 't', 00H, 'a', 00H, 'b', 00H, 'l', 00H, 'e', 00H, '-', 00H
	DB	'>', 00H, 'D', 00H, 'e', 00H, 'c', 00H, 'l', 00H, 'C', 00H, 'o'
	DB	00H, 'l', 00H, 'u', 00H, 'm', 00H, 'n', 00H, 's', 00H, 'C', 00H
	DB	'o', 00H, 'u', 00H, 'n', 00H, 't', 00H, ' ', 00H, '<', 00H, ' '
	DB	00H, 't', 00H, 'a', 00H, 'b', 00H, 'l', 00H, 'e', 00H, '-', 00H
	DB	'>', 00H, 'C', 00H, 'o', 00H, 'l', 00H, 'u', 00H, 'm', 00H, 'n'
	DB	00H, 's', 00H, 'C', 00H, 'o', 00H, 'u', 00H, 'n', 00H, 't', 00H
	DB	')', 00H, ' ', 00H, '&', 00H, '&', 00H, ' ', 00H, '"', 00H, 'C'
	DB	00H, 'a', 00H, 'l', 00H, 'l', 00H, 'e', 00H, 'd', 00H, ' ', 00H
	DB	'T', 00H, 'a', 00H, 'b', 00H, 'l', 00H, 'e', 00H, 'S', 00H, 'e'
	DB	00H, 't', 00H, 'u', 00H, 'p', 00H, 'C', 00H, 'o', 00H, 'l', 00H
	DB	'u', 00H, 'm', 00H, 'n', 00H, '(', 00H, ')', 00H, ' ', 00H, 't'
	DB	00H, 'o', 00H, 'o', 00H, ' ', 00H, 'm', 00H, 'a', 00H, 'n', 00H
	DB	'y', 00H, ' ', 00H, 't', 00H, 'i', 00H, 'm', 00H, 'e', 00H, 's'
	DB	00H, '!', 00H, '"', 00H, 00H, 00H		; `string'
CONST	ENDS
;	COMDAT ??_C@_0CK@FPBLGODL@Called?5TableSetupColumn?$CI?$CJ?5too?5ma@
CONST	SEGMENT
??_C@_0CK@FPBLGODL@Called?5TableSetupColumn?$CI?$CJ?5too?5ma@ DB 'Called '
	DB	'TableSetupColumn() too many times!', 00H	; `string'
CONST	ENDS
;	COMDAT ??_C@_1NM@DDJLAMJK@?$AA?$CI?$AAf?$AAl?$AAa?$AAg?$AAs?$AA?5?$AA?$CG?$AA?5?$AAI?$AAm?$AAG?$AAu?$AAi?$AAT?$AAa?$AAb?$AAl?$AAe?$AAC?$AAo?$AAl?$AAu?$AAm?$AAn?$AAF?$AAl?$AAa?$AAg?$AAs?$AA_?$AAS@
CONST	SEGMENT
??_C@_1NM@DDJLAMJK@?$AA?$CI?$AAf?$AAl?$AAa?$AAg?$AAs?$AA?5?$AA?$CG?$AA?5?$AAI?$AAm?$AAG?$AAu?$AAi?$AAT?$AAa?$AAb?$AAl?$AAe?$AAC?$AAo?$AAl?$AAu?$AAm?$AAn?$AAF?$AAl?$AAa?$AAg?$AAs?$AA_?$AAS@ DB '('
	DB	00H, 'f', 00H, 'l', 00H, 'a', 00H, 'g', 00H, 's', 00H, ' ', 00H
	DB	'&', 00H, ' ', 00H, 'I', 00H, 'm', 00H, 'G', 00H, 'u', 00H, 'i'
	DB	00H, 'T', 00H, 'a', 00H, 'b', 00H, 'l', 00H, 'e', 00H, 'C', 00H
	DB	'o', 00H, 'l', 00H, 'u', 00H, 'm', 00H, 'n', 00H, 'F', 00H, 'l'
	DB	00H, 'a', 00H, 'g', 00H, 's', 00H, '_', 00H, 'S', 00H, 't', 00H
	DB	'a', 00H, 't', 00H, 'u', 00H, 's', 00H, 'M', 00H, 'a', 00H, 's'
	DB	00H, 'k', 00H, '_', 00H, ')', 00H, ' ', 00H, '=', 00H, '=', 00H
	DB	' ', 00H, '0', 00H, ' ', 00H, '&', 00H, '&', 00H, ' ', 00H, '"'
	DB	00H, 'I', 00H, 'l', 00H, 'l', 00H, 'e', 00H, 'g', 00H, 'a', 00H
	DB	'l', 00H, ' ', 00H, 't', 00H, 'o', 00H, ' ', 00H, 'p', 00H, 'a'
	DB	00H, 's', 00H, 's', 00H, ' ', 00H, 'S', 00H, 't', 00H, 'a', 00H
	DB	't', 00H, 'u', 00H, 's', 00H, 'M', 00H, 'a', 00H, 's', 00H, 'k'
	DB	00H, ' ', 00H, 'v', 00H, 'a', 00H, 'l', 00H, 'u', 00H, 'e', 00H
	DB	's', 00H, ' ', 00H, 't', 00H, 'o', 00H, ' ', 00H, 'T', 00H, 'a'
	DB	00H, 'b', 00H, 'l', 00H, 'e', 00H, 'S', 00H, 'e', 00H, 't', 00H
	DB	'u', 00H, 'p', 00H, 'C', 00H, 'o', 00H, 'l', 00H, 'u', 00H, 'm'
	DB	00H, 'n', 00H, '(', 00H, ')', 00H, '"', 00H, 00H, 00H ; `string'
CONST	ENDS
;	COMDAT ??_C@_0DI@CBJAIEBI@Illegal?5to?5pass?5StatusMask?5value@
CONST	SEGMENT
??_C@_0DI@CBJAIEBI@Illegal?5to?5pass?5StatusMask?5value@ DB 'Illegal to p'
	DB	'ass StatusMask values to TableSetupColumn()', 00H ; `string'
CONST	ENDS
;	COMDAT ??_C@_1LG@IFCOIHC@?$AAt?$AAa?$AAb?$AAl?$AAe?$AA?9?$AA?$DO?$AAI?$AAs?$AAL?$AAa?$AAy?$AAo?$AAu?$AAt?$AAL?$AAo?$AAc?$AAk?$AAe?$AAd?$AA?5?$AA?$DN?$AA?$DN?$AA?5?$AAf?$AAa?$AAl?$AAs?$AAe?$AA?5?$AA?$CG@
CONST	SEGMENT
??_C@_1LG@IFCOIHC@?$AAt?$AAa?$AAb?$AAl?$AAe?$AA?9?$AA?$DO?$AAI?$AAs?$AAL?$AAa?$AAy?$AAo?$AAu?$AAt?$AAL?$AAo?$AAc?$AAk?$AAe?$AAd?$AA?5?$AA?$DN?$AA?$DN?$AA?5?$AAf?$AAa?$AAl?$AAs?$AAe?$AA?5?$AA?$CG@ DB 't'
	DB	00H, 'a', 00H, 'b', 00H, 'l', 00H, 'e', 00H, '-', 00H, '>', 00H
	DB	'I', 00H, 's', 00H, 'L', 00H, 'a', 00H, 'y', 00H, 'o', 00H, 'u'
	DB	00H, 't', 00H, 'L', 00H, 'o', 00H, 'c', 00H, 'k', 00H, 'e', 00H
	DB	'd', 00H, ' ', 00H, '=', 00H, '=', 00H, ' ', 00H, 'f', 00H, 'a'
	DB	00H, 'l', 00H, 's', 00H, 'e', 00H, ' ', 00H, '&', 00H, '&', 00H
	DB	' ', 00H, '"', 00H, 'N', 00H, 'e', 00H, 'e', 00H, 'd', 00H, ' '
	DB	00H, 't', 00H, 'o', 00H, ' ', 00H, 'c', 00H, 'a', 00H, 'l', 00H
	DB	'l', 00H, ' ', 00H, 'c', 00H, 'a', 00H, 'l', 00H, 'l', 00H, ' '
	DB	00H, 'T', 00H, 'a', 00H, 'b', 00H, 'l', 00H, 'e', 00H, 'S', 00H
	DB	'e', 00H, 't', 00H, 'u', 00H, 'p', 00H, 'C', 00H, 'o', 00H, 'l'
	DB	00H, 'u', 00H, 'm', 00H, 'n', 00H, '(', 00H, ')', 00H, ' ', 00H
	DB	'b', 00H, 'e', 00H, 'f', 00H, 'o', 00H, 'r', 00H, 'e', 00H, ' '
	DB	00H, 'f', 00H, 'i', 00H, 'r', 00H, 's', 00H, 't', 00H, ' ', 00H
	DB	'r', 00H, 'o', 00H, 'w', 00H, '!', 00H, '"', 00H, 00H, 00H ; `string'
CONST	ENDS
;	COMDAT ??_C@_0DH@KOGIGLHC@Need?5to?5call?5call?5TableSetupColu@
CONST	SEGMENT
??_C@_0DH@KOGIGLHC@Need?5to?5call?5call?5TableSetupColu@ DB 'Need to call'
	DB	' call TableSetupColumn() before first row!', 00H ; `string'
CONST	ENDS
;	COMDAT ??_C@_1II@MMHPDEP@?$AAt?$AAa?$AAb?$AAl?$AAe?$AA?5?$AA?$CB?$AA?$DN?$AA?5?$AA0?$AA?5?$AA?$CG?$AA?$CG?$AA?5?$AA?$CC?$AAN?$AAe?$AAe?$AAd?$AA?5?$AAt?$AAo?$AA?5?$AAc?$AAa?$AAl?$AAl?$AA?5?$AAT?$AAa?$AAb?$AAl@
CONST	SEGMENT
??_C@_1II@MMHPDEP@?$AAt?$AAa?$AAb?$AAl?$AAe?$AA?5?$AA?$CB?$AA?$DN?$AA?5?$AA0?$AA?5?$AA?$CG?$AA?$CG?$AA?5?$AA?$CC?$AAN?$AAe?$AAe?$AAd?$AA?5?$AAt?$AAo?$AA?5?$AAc?$AAa?$AAl?$AAl?$AA?5?$AAT?$AAa?$AAb?$AAl@ DB 't'
	DB	00H, 'a', 00H, 'b', 00H, 'l', 00H, 'e', 00H, ' ', 00H, '!', 00H
	DB	'=', 00H, ' ', 00H, '0', 00H, ' ', 00H, '&', 00H, '&', 00H, ' '
	DB	00H, '"', 00H, 'N', 00H, 'e', 00H, 'e', 00H, 'd', 00H, ' ', 00H
	DB	't', 00H, 'o', 00H, ' ', 00H, 'c', 00H, 'a', 00H, 'l', 00H, 'l'
	DB	00H, ' ', 00H, 'T', 00H, 'a', 00H, 'b', 00H, 'l', 00H, 'e', 00H
	DB	'S', 00H, 'e', 00H, 't', 00H, 'u', 00H, 'p', 00H, 'C', 00H, 'o'
	DB	00H, 'l', 00H, 'u', 00H, 'm', 00H, 'n', 00H, '(', 00H, ')', 00H
	DB	' ', 00H, 'a', 00H, 'f', 00H, 't', 00H, 'e', 00H, 'r', 00H, ' '
	DB	00H, 'B', 00H, 'e', 00H, 'g', 00H, 'i', 00H, 'n', 00H, 'T', 00H
	DB	'a', 00H, 'b', 00H, 'l', 00H, 'e', 00H, '(', 00H, ')', 00H, '!'
	DB	00H, '"', 00H, 00H, 00H			; `string'
CONST	ENDS
;	COMDAT ??_C@_0DE@JMKEADIJ@Need?5to?5call?5TableSetupColumn?$CI?$CJ?5@
CONST	SEGMENT
??_C@_0DE@JMKEADIJ@Need?5to?5call?5TableSetupColumn?$CI?$CJ?5@ DB 'Need t'
	DB	'o call TableSetupColumn() after BeginTable()!', 00H ; `string'
CONST	ENDS
;	COMDAT ?__LINE__Var@?0??TableSetupColumn@ImGui@@YAXPEBDHMI@Z@4JA
_DATA	SEGMENT
?__LINE__Var@?0??TableSetupColumn@ImGui@@YAXPEBDHMI@Z@4JA DD 0595H ; `ImGui::TableSetupColumn'::`1'::__LINE__Var
_DATA	ENDS
;	COMDAT ??_C@_1DI@IPEFINGP@?$AAg?$AA?4?$AAT?$AAa?$AAb?$AAl?$AAe?$AAs?$AAT?$AAe?$AAm?$AAp?$AAD?$AAa?$AAt?$AAa?$AAS?$AAt?$AAa?$AAc?$AAk?$AAe?$AAd?$AA?5?$AA?$DO?$AA?5?$AA0?$AA?$AA@
CONST	SEGMENT
??_C@_1DI@IPEFINGP@?$AAg?$AA?4?$AAT?$AAa?$AAb?$AAl?$AAe?$AAs?$AAT?$AAe?$AAm?$AAp?$AAD?$AAa?$AAt?$AAa?$AAS?$AAt?$AAa?$AAc?$AAk?$AAe?$AAd?$AA?5?$AA?$DO?$AA?5?$AA0?$AA?$AA@ DB 'g'
	DB	00H, '.', 00H, 'T', 00H, 'a', 00H, 'b', 00H, 'l', 00H, 'e', 00H
	DB	's', 00H, 'T', 00H, 'e', 00H, 'm', 00H, 'p', 00H, 'D', 00H, 'a'
	DB	00H, 't', 00H, 'a', 00H, 'S', 00H, 't', 00H, 'a', 00H, 'c', 00H
	DB	'k', 00H, 'e', 00H, 'd', 00H, ' ', 00H, '>', 00H, ' ', 00H, '0'
	DB	00H, 00H, 00H				; `string'
CONST	ENDS
;	COMDAT ??_C@_1HG@JFMKDCJB@?$AAg?$AA?4?$AAC?$AAu?$AAr?$AAr?$AAe?$AAn?$AAt?$AAW?$AAi?$AAn?$AAd?$AAo?$AAw?$AA?5?$AA?$DN?$AA?$DN?$AA?5?$AAo?$AAu?$AAt?$AAe?$AAr?$AA_?$AAw?$AAi?$AAn?$AAd?$AAo?$AAw?$AA?5@
CONST	SEGMENT
??_C@_1HG@JFMKDCJB@?$AAg?$AA?4?$AAC?$AAu?$AAr?$AAr?$AAe?$AAn?$AAt?$AAW?$AAi?$AAn?$AAd?$AAo?$AAw?$AA?5?$AA?$DN?$AA?$DN?$AA?5?$AAo?$AAu?$AAt?$AAe?$AAr?$AA_?$AAw?$AAi?$AAn?$AAd?$AAo?$AAw?$AA?5@ DB 'g'
	DB	00H, '.', 00H, 'C', 00H, 'u', 00H, 'r', 00H, 'r', 00H, 'e', 00H
	DB	'n', 00H, 't', 00H, 'W', 00H, 'i', 00H, 'n', 00H, 'd', 00H, 'o'
	DB	00H, 'w', 00H, ' ', 00H, '=', 00H, '=', 00H, ' ', 00H, 'o', 00H
	DB	'u', 00H, 't', 00H, 'e', 00H, 'r', 00H, '_', 00H, 'w', 00H, 'i'
	DB	00H, 'n', 00H, 'd', 00H, 'o', 00H, 'w', 00H, ' ', 00H, '&', 00H
	DB	'&', 00H, ' ', 00H, 'g', 00H, '.', 00H, 'C', 00H, 'u', 00H, 'r'
	DB	00H, 'r', 00H, 'e', 00H, 'n', 00H, 't', 00H, 'T', 00H, 'a', 00H
	DB	'b', 00H, 'l', 00H, 'e', 00H, ' ', 00H, '=', 00H, '=', 00H, ' '
	DB	00H, 't', 00H, 'a', 00H, 'b', 00H, 'l', 00H, 'e', 00H, 00H, 00H ; `string'
CONST	ENDS
;	COMDAT ??_C@_1FM@ICPCKIED@?$AA?$CI?$AAt?$AAa?$AAb?$AAl?$AAe?$AA?9?$AA?$DO?$AAF?$AAl?$AAa?$AAg?$AAs?$AA?5?$AA?$CG?$AA?5?$AAI?$AAm?$AAG?$AAu?$AAi?$AAT?$AAa?$AAb?$AAl?$AAe?$AAF?$AAl?$AAa?$AAg?$AAs?$AA_@
CONST	SEGMENT
??_C@_1FM@ICPCKIED@?$AA?$CI?$AAt?$AAa?$AAb?$AAl?$AAe?$AA?9?$AA?$DO?$AAF?$AAl?$AAa?$AAg?$AAs?$AA?5?$AA?$CG?$AA?5?$AAI?$AAm?$AAG?$AAu?$AAi?$AAT?$AAa?$AAb?$AAl?$AAe?$AAF?$AAl?$AAa?$AAg?$AAs?$AA_@ DB '('
	DB	00H, 't', 00H, 'a', 00H, 'b', 00H, 'l', 00H, 'e', 00H, '-', 00H
	DB	'>', 00H, 'F', 00H, 'l', 00H, 'a', 00H, 'g', 00H, 's', 00H, ' '
	DB	00H, '&', 00H, ' ', 00H, 'I', 00H, 'm', 00H, 'G', 00H, 'u', 00H
	DB	'i', 00H, 'T', 00H, 'a', 00H, 'b', 00H, 'l', 00H, 'e', 00H, 'F'
	DB	00H, 'l', 00H, 'a', 00H, 'g', 00H, 's', 00H, '_', 00H, 'S', 00H
	DB	'c', 00H, 'r', 00H, 'o', 00H, 'l', 00H, 'l', 00H, 'X', 00H, ')'
	DB	00H, ' ', 00H, '=', 00H, '=', 00H, ' ', 00H, '0', 00H, 00H, 00H ; `string'
CONST	ENDS
;	COMDAT ??_C@_1NM@BLFPKGHB@?$AA?$CI?$AAo?$AAu?$AAt?$AAe?$AAr?$AA_?$AAw?$AAi?$AAn?$AAd?$AAo?$AAw?$AA?9?$AA?$DO?$AAD?$AAC?$AA?4?$AAI?$AAt?$AAe?$AAm?$AAW?$AAi?$AAd?$AAt?$AAh?$AAS?$AAt?$AAa?$AAc?$AAk@
CONST	SEGMENT
??_C@_1NM@BLFPKGHB@?$AA?$CI?$AAo?$AAu?$AAt?$AAe?$AAr?$AA_?$AAw?$AAi?$AAn?$AAd?$AAo?$AAw?$AA?9?$AA?$DO?$AAD?$AAC?$AA?4?$AAI?$AAt?$AAe?$AAm?$AAW?$AAi?$AAd?$AAt?$AAh?$AAS?$AAt?$AAa?$AAc?$AAk@ DB '('
	DB	00H, 'o', 00H, 'u', 00H, 't', 00H, 'e', 00H, 'r', 00H, '_', 00H
	DB	'w', 00H, 'i', 00H, 'n', 00H, 'd', 00H, 'o', 00H, 'w', 00H, '-'
	DB	00H, '>', 00H, 'D', 00H, 'C', 00H, '.', 00H, 'I', 00H, 't', 00H
	DB	'e', 00H, 'm', 00H, 'W', 00H, 'i', 00H, 'd', 00H, 't', 00H, 'h'
	DB	00H, 'S', 00H, 't', 00H, 'a', 00H, 'c', 00H, 'k', 00H, '.', 00H
	DB	'S', 00H, 'i', 00H, 'z', 00H, 'e', 00H, ' ', 00H, '>', 00H, '='
	DB	00H, ' ', 00H, 't', 00H, 'e', 00H, 'm', 00H, 'p', 00H, '_', 00H
	DB	'd', 00H, 'a', 00H, 't', 00H, 'a', 00H, '-', 00H, '>', 00H, 'H'
	DB	00H, 'o', 00H, 's', 00H, 't', 00H, 'B', 00H, 'a', 00H, 'c', 00H
	DB	'k', 00H, 'u', 00H, 'p', 00H, 'I', 00H, 't', 00H, 'e', 00H, 'm'
	DB	00H, 'W', 00H, 'i', 00H, 'd', 00H, 't', 00H, 'h', 00H, 'S', 00H
	DB	't', 00H, 'a', 00H, 'c', 00H, 'k', 00H, 'S', 00H, 'i', 00H, 'z'
	DB	00H, 'e', 00H, ')', 00H, ' ', 00H, '&', 00H, '&', 00H, ' ', 00H
	DB	'"', 00H, 'T', 00H, 'o', 00H, 'o', 00H, ' ', 00H, 'm', 00H, 'a'
	DB	00H, 'n', 00H, 'y', 00H, ' ', 00H, 'P', 00H, 'o', 00H, 'p', 00H
	DB	'I', 00H, 't', 00H, 'e', 00H, 'm', 00H, 'W', 00H, 'i', 00H, 'd'
	DB	00H, 't', 00H, 'h', 00H, '!', 00H, '"', 00H, 00H, 00H ; `string'
CONST	ENDS
;	COMDAT ??_C@_0BH@GAFFHFPC@Too?5many?5PopItemWidth?$CB?$AA@
CONST	SEGMENT
??_C@_0BH@GAFFHFPC@Too?5many?5PopItemWidth?$CB?$AA@ DB 'Too many PopItemW'
	DB	'idth!', 00H					; `string'
CONST	ENDS
;	COMDAT ??_C@_1MI@BOIHHKDM@?$AA?$CI?$AAi?$AAn?$AAn?$AAe?$AAr?$AA_?$AAw?$AAi?$AAn?$AAd?$AAo?$AAw?$AA?9?$AA?$DO?$AAI?$AAD?$AAS?$AAt?$AAa?$AAc?$AAk?$AA?4?$AAb?$AAa?$AAc?$AAk?$AA?$CI?$AA?$CJ?$AA?5?$AA?$DN?$AA?$DN@
CONST	SEGMENT
??_C@_1MI@BOIHHKDM@?$AA?$CI?$AAi?$AAn?$AAn?$AAe?$AAr?$AA_?$AAw?$AAi?$AAn?$AAd?$AAo?$AAw?$AA?9?$AA?$DO?$AAI?$AAD?$AAS?$AAt?$AAa?$AAc?$AAk?$AA?4?$AAb?$AAa?$AAc?$AAk?$AA?$CI?$AA?$CJ?$AA?5?$AA?$DN?$AA?$DN@ DB '('
	DB	00H, 'i', 00H, 'n', 00H, 'n', 00H, 'e', 00H, 'r', 00H, '_', 00H
	DB	'w', 00H, 'i', 00H, 'n', 00H, 'd', 00H, 'o', 00H, 'w', 00H, '-'
	DB	00H, '>', 00H, 'I', 00H, 'D', 00H, 'S', 00H, 't', 00H, 'a', 00H
	DB	'c', 00H, 'k', 00H, '.', 00H, 'b', 00H, 'a', 00H, 'c', 00H, 'k'
	DB	00H, '(', 00H, ')', 00H, ' ', 00H, '=', 00H, '=', 00H, ' ', 00H
	DB	't', 00H, 'a', 00H, 'b', 00H, 'l', 00H, 'e', 00H, '-', 00H, '>'
	DB	00H, 'I', 00H, 'D', 00H, ' ', 00H, '+', 00H, ' ', 00H, 't', 00H
	DB	'a', 00H, 'b', 00H, 'l', 00H, 'e', 00H, '-', 00H, '>', 00H, 'I'
	DB	00H, 'n', 00H, 's', 00H, 't', 00H, 'a', 00H, 'n', 00H, 'c', 00H
	DB	'e', 00H, 'C', 00H, 'u', 00H, 'r', 00H, 'r', 00H, 'e', 00H, 'n'
	DB	00H, 't', 00H, ')', 00H, ' ', 00H, '&', 00H, '&', 00H, ' ', 00H
	DB	'"', 00H, 'M', 00H, 'i', 00H, 's', 00H, 'm', 00H, 'a', 00H, 't'
	DB	00H, 'c', 00H, 'h', 00H, 'i', 00H, 'n', 00H, 'g', 00H, ' ', 00H
	DB	'P', 00H, 'u', 00H, 's', 00H, 'h', 00H, 'I', 00H, 'D', 00H, '/'
	DB	00H, 'P', 00H, 'o', 00H, 'p', 00H, 'I', 00H, 'D', 00H, '!', 00H
	DB	'"', 00H, 00H, 00H				; `string'
CONST	ENDS
;	COMDAT ??_C@_0BK@MHDEDKFO@Mismatching?5PushID?1PopID?$CB?$AA@
CONST	SEGMENT
??_C@_0BK@MHDEDKFO@Mismatching?5PushID?1PopID?$CB?$AA@ DB 'Mismatching Pu'
	DB	'shID/PopID!', 00H				; `string'
CONST	ENDS
;	COMDAT ??_C@_1GA@MJADNMBJ@?$AAt?$AAa?$AAb?$AAl?$AAe?$AA?9?$AA?$DO?$AAR?$AAo?$AAw?$AAP?$AAo?$AAs?$AAY?$AA2?$AA?5?$AA?$DN?$AA?$DN?$AA?5?$AAi?$AAn?$AAn?$AAe?$AAr?$AA_?$AAw?$AAi?$AAn?$AAd?$AAo?$AAw?$AA?9@
CONST	SEGMENT
??_C@_1GA@MJADNMBJ@?$AAt?$AAa?$AAb?$AAl?$AAe?$AA?9?$AA?$DO?$AAR?$AAo?$AAw?$AAP?$AAo?$AAs?$AAY?$AA2?$AA?5?$AA?$DN?$AA?$DN?$AA?5?$AAi?$AAn?$AAn?$AAe?$AAr?$AA_?$AAw?$AAi?$AAn?$AAd?$AAo?$AAw?$AA?9@ DB 't'
	DB	00H, 'a', 00H, 'b', 00H, 'l', 00H, 'e', 00H, '-', 00H, '>', 00H
	DB	'R', 00H, 'o', 00H, 'w', 00H, 'P', 00H, 'o', 00H, 's', 00H, 'Y'
	DB	00H, '2', 00H, ' ', 00H, '=', 00H, '=', 00H, ' ', 00H, 'i', 00H
	DB	'n', 00H, 'n', 00H, 'e', 00H, 'r', 00H, '_', 00H, 'w', 00H, 'i'
	DB	00H, 'n', 00H, 'd', 00H, 'o', 00H, 'w', 00H, '-', 00H, '>', 00H
	DB	'D', 00H, 'C', 00H, '.', 00H, 'C', 00H, 'u', 00H, 'r', 00H, 's'
	DB	00H, 'o', 00H, 'r', 00H, 'P', 00H, 'o', 00H, 's', 00H, '.', 00H
	DB	'y', 00H, 00H, 00H				; `string'
CONST	ENDS
;	COMDAT ??_C@_1JG@DEMMNCCK@?$AAo?$AAu?$AAt?$AAe?$AAr?$AA_?$AAw?$AAi?$AAn?$AAd?$AAo?$AAw?$AA?5?$AA?$DN?$AA?$DN?$AA?5?$AAi?$AAn?$AAn?$AAe?$AAr?$AA_?$AAw?$AAi?$AAn?$AAd?$AAo?$AAw?$AA?5?$AA?$HM?$AA?$HM?$AA?5@
CONST	SEGMENT
??_C@_1JG@DEMMNCCK@?$AAo?$AAu?$AAt?$AAe?$AAr?$AA_?$AAw?$AAi?$AAn?$AAd?$AAo?$AAw?$AA?5?$AA?$DN?$AA?$DN?$AA?5?$AAi?$AAn?$AAn?$AAe?$AAr?$AA_?$AAw?$AAi?$AAn?$AAd?$AAo?$AAw?$AA?5?$AA?$HM?$AA?$HM?$AA?5@ DB 'o'
	DB	00H, 'u', 00H, 't', 00H, 'e', 00H, 'r', 00H, '_', 00H, 'w', 00H
	DB	'i', 00H, 'n', 00H, 'd', 00H, 'o', 00H, 'w', 00H, ' ', 00H, '='
	DB	00H, '=', 00H, ' ', 00H, 'i', 00H, 'n', 00H, 'n', 00H, 'e', 00H
	DB	'r', 00H, '_', 00H, 'w', 00H, 'i', 00H, 'n', 00H, 'd', 00H, 'o'
	DB	00H, 'w', 00H, ' ', 00H, '|', 00H, '|', 00H, ' ', 00H, 'o', 00H
	DB	'u', 00H, 't', 00H, 'e', 00H, 'r', 00H, '_', 00H, 'w', 00H, 'i'
	DB	00H, 'n', 00H, 'd', 00H, 'o', 00H, 'w', 00H, ' ', 00H, '=', 00H
	DB	'=', 00H, ' ', 00H, 'i', 00H, 'n', 00H, 'n', 00H, 'e', 00H, 'r'
	DB	00H, '_', 00H, 'w', 00H, 'i', 00H, 'n', 00H, 'd', 00H, 'o', 00H
	DB	'w', 00H, '-', 00H, '>', 00H, 'P', 00H, 'a', 00H, 'r', 00H, 'e'
	DB	00H, 'n', 00H, 't', 00H, 'W', 00H, 'i', 00H, 'n', 00H, 'd', 00H
	DB	'o', 00H, 'w', 00H, 00H, 00H			; `string'
CONST	ENDS
;	COMDAT ??_C@_1EA@FGAGBNK@?$AAi?$AAn?$AAn?$AAe?$AAr?$AA_?$AAw?$AAi?$AAn?$AAd?$AAo?$AAw?$AA?5?$AA?$DN?$AA?$DN?$AA?5?$AAg?$AA?4?$AAC?$AAu?$AAr?$AAr?$AAe?$AAn?$AAt?$AAW?$AAi?$AAn?$AAd?$AAo?$AAw?$AA?$AA@
CONST	SEGMENT
??_C@_1EA@FGAGBNK@?$AAi?$AAn?$AAn?$AAe?$AAr?$AA_?$AAw?$AAi?$AAn?$AAd?$AAo?$AAw?$AA?5?$AA?$DN?$AA?$DN?$AA?5?$AAg?$AA?4?$AAC?$AAu?$AAr?$AAr?$AAe?$AAn?$AAt?$AAW?$AAi?$AAn?$AAd?$AAo?$AAw?$AA?$AA@ DB 'i'
	DB	00H, 'n', 00H, 'n', 00H, 'e', 00H, 'r', 00H, '_', 00H, 'w', 00H
	DB	'i', 00H, 'n', 00H, 'd', 00H, 'o', 00H, 'w', 00H, ' ', 00H, '='
	DB	00H, '=', 00H, ' ', 00H, 'g', 00H, '.', 00H, 'C', 00H, 'u', 00H
	DB	'r', 00H, 'r', 00H, 'e', 00H, 'n', 00H, 't', 00H, 'W', 00H, 'i'
	DB	00H, 'n', 00H, 'd', 00H, 'o', 00H, 'w', 00H, 00H, 00H ; `string'
CONST	ENDS
;	COMDAT ??_C@_1IG@CGOKCKPM@?$AAt?$AAa?$AAb?$AAl?$AAe?$AA?5?$AA?$CB?$AA?$DN?$AA?5?$AA0?$AA?5?$AA?$CG?$AA?$CG?$AA?5?$AA?$CC?$AAO?$AAn?$AAl?$AAy?$AA?5?$AAc?$AAa?$AAl?$AAl?$AA?5?$AAE?$AAn?$AAd?$AAT?$AAa?$AAb?$AAl@
CONST	SEGMENT
??_C@_1IG@CGOKCKPM@?$AAt?$AAa?$AAb?$AAl?$AAe?$AA?5?$AA?$CB?$AA?$DN?$AA?5?$AA0?$AA?5?$AA?$CG?$AA?$CG?$AA?5?$AA?$CC?$AAO?$AAn?$AAl?$AAy?$AA?5?$AAc?$AAa?$AAl?$AAl?$AA?5?$AAE?$AAn?$AAd?$AAT?$AAa?$AAb?$AAl@ DB 't'
	DB	00H, 'a', 00H, 'b', 00H, 'l', 00H, 'e', 00H, ' ', 00H, '!', 00H
	DB	'=', 00H, ' ', 00H, '0', 00H, ' ', 00H, '&', 00H, '&', 00H, ' '
	DB	00H, '"', 00H, 'O', 00H, 'n', 00H, 'l', 00H, 'y', 00H, ' ', 00H
	DB	'c', 00H, 'a', 00H, 'l', 00H, 'l', 00H, ' ', 00H, 'E', 00H, 'n'
	DB	00H, 'd', 00H, 'T', 00H, 'a', 00H, 'b', 00H, 'l', 00H, 'e', 00H
	DB	'(', 00H, ')', 00H, ' ', 00H, 'i', 00H, 'f', 00H, ' ', 00H, 'B'
	DB	00H, 'e', 00H, 'g', 00H, 'i', 00H, 'n', 00H, 'T', 00H, 'a', 00H
	DB	'b', 00H, 'l', 00H, 'e', 00H, '(', 00H, ')', 00H, ' ', 00H, 'r'
	DB	00H, 'e', 00H, 't', 00H, 'u', 00H, 'r', 00H, 'n', 00H, 's', 00H
	DB	' ', 00H, 't', 00H, 'r', 00H, 'u', 00H, 'e', 00H, '!', 00H, '"'
	DB	00H, 00H, 00H				; `string'
CONST	ENDS
;	COMDAT ??_C@_0DD@JFFDACDB@Only?5call?5EndTable?$CI?$CJ?5if?5BeginTab@
CONST	SEGMENT
??_C@_0DD@JFFDACDB@Only?5call?5EndTable?$CI?$CJ?5if?5BeginTab@ DB 'Only c'
	DB	'all EndTable() if BeginTable() returns true!', 00H ; `string'
CONST	ENDS
;	COMDAT ?__LINE__Var@?0??EndTable@ImGui@@YAXXZ@4JA
_DATA	SEGMENT
?__LINE__Var@?0??EndTable@ImGui@@YAXXZ@4JA DD 04c4H	; `ImGui::EndTable'::`1'::__LINE__Var
_DATA	ENDS
;	COMDAT ??_C@_1FC@BMHMHKON@?$AAt?$AAa?$AAb?$AAl?$AAe?$AA?9?$AA?$DO?$AAF?$AAl?$AAa?$AAg?$AAs?$AA?5?$AA?$CG?$AA?5?$AAI?$AAm?$AAG?$AAu?$AAi?$AAT?$AAa?$AAb?$AAl?$AAe?$AAF?$AAl?$AAa?$AAg?$AAs?$AA_?$AAR@
CONST	SEGMENT
??_C@_1FC@BMHMHKON@?$AAt?$AAa?$AAb?$AAl?$AAe?$AA?9?$AA?$DO?$AAF?$AAl?$AAa?$AAg?$AAs?$AA?5?$AA?$CG?$AA?5?$AAI?$AAm?$AAG?$AAu?$AAi?$AAT?$AAa?$AAb?$AAl?$AAe?$AAF?$AAl?$AAa?$AAg?$AAs?$AA_?$AAR@ DB 't'
	DB	00H, 'a', 00H, 'b', 00H, 'l', 00H, 'e', 00H, '-', 00H, '>', 00H
	DB	'F', 00H, 'l', 00H, 'a', 00H, 'g', 00H, 's', 00H, ' ', 00H, '&'
	DB	00H, ' ', 00H, 'I', 00H, 'm', 00H, 'G', 00H, 'u', 00H, 'i', 00H
	DB	'T', 00H, 'a', 00H, 'b', 00H, 'l', 00H, 'e', 00H, 'F', 00H, 'l'
	DB	00H, 'a', 00H, 'g', 00H, 's', 00H, '_', 00H, 'R', 00H, 'e', 00H
	DB	's', 00H, 'i', 00H, 'z', 00H, 'a', 00H, 'b', 00H, 'l', 00H, 'e'
	DB	00H, 00H, 00H				; `string'
CONST	ENDS
;	COMDAT ?__LINE__Var@?0??TableUpdateBorders@ImGui@@YAXPEAUImGuiTable@@@Z@4JA
_DATA	SEGMENT
?__LINE__Var@?0??TableUpdateBorders@ImGui@@YAXPEAUImGuiTable@@@Z@4JA DD 0487H ; `ImGui::TableUpdateBorders'::`1'::__LINE__Var
_DATA	ENDS
;	COMDAT ??_C@_1BI@PMBHHKFI@?$AA?$CB?$AAi?$AAs?$AA_?$AAv?$AAi?$AAs?$AAi?$AAb?$AAl?$AAe?$AA?$AA@
CONST	SEGMENT
??_C@_1BI@PMBHHKFI@?$AA?$CB?$AAi?$AAs?$AA_?$AAv?$AAi?$AAs?$AAi?$AAb?$AAl?$AAe?$AA?$AA@ DB '!'
	DB	00H, 'i', 00H, 's', 00H, '_', 00H, 'v', 00H, 'i', 00H, 's', 00H
	DB	'i', 00H, 'b', 00H, 'l', 00H, 'e', 00H, 00H, 00H ; `string'
CONST	ENDS
;	COMDAT ??_C@_1JA@JKJMNFJF@?$AAt?$AAa?$AAb?$AAl?$AAe?$AA?9?$AA?$DO?$AAL?$AAe?$AAf?$AAt?$AAM?$AAo?$AAs?$AAt?$AAE?$AAn?$AAa?$AAb?$AAl?$AAe?$AAd?$AAC?$AAo?$AAl?$AAu?$AAm?$AAn?$AA?5?$AA?$DO?$AA?$DN?$AA?5@
CONST	SEGMENT
??_C@_1JA@JKJMNFJF@?$AAt?$AAa?$AAb?$AAl?$AAe?$AA?9?$AA?$DO?$AAL?$AAe?$AAf?$AAt?$AAM?$AAo?$AAs?$AAt?$AAE?$AAn?$AAa?$AAb?$AAl?$AAe?$AAd?$AAC?$AAo?$AAl?$AAu?$AAm?$AAn?$AA?5?$AA?$DO?$AA?$DN?$AA?5@ DB 't'
	DB	00H, 'a', 00H, 'b', 00H, 'l', 00H, 'e', 00H, '-', 00H, '>', 00H
	DB	'L', 00H, 'e', 00H, 'f', 00H, 't', 00H, 'M', 00H, 'o', 00H, 's'
	DB	00H, 't', 00H, 'E', 00H, 'n', 00H, 'a', 00H, 'b', 00H, 'l', 00H
	DB	'e', 00H, 'd', 00H, 'C', 00H, 'o', 00H, 'l', 00H, 'u', 00H, 'm'
	DB	00H, 'n', 00H, ' ', 00H, '>', 00H, '=', 00H, ' ', 00H, '0', 00H
	DB	' ', 00H, '&', 00H, '&', 00H, ' ', 00H, 't', 00H, 'a', 00H, 'b'
	DB	00H, 'l', 00H, 'e', 00H, '-', 00H, '>', 00H, 'R', 00H, 'i', 00H
	DB	'g', 00H, 'h', 00H, 't', 00H, 'M', 00H, 'o', 00H, 's', 00H, 't'
	DB	00H, 'E', 00H, 'n', 00H, 'a', 00H, 'b', 00H, 'l', 00H, 'e', 00H
	DB	'd', 00H, 'C', 00H, 'o', 00H, 'l', 00H, 'u', 00H, 'm', 00H, 'n'
	DB	00H, ' ', 00H, '>', 00H, '=', 00H, ' ', 00H, '0', 00H, 00H, 00H ; `string'
CONST	ENDS
;	COMDAT ??_C@_1GM@PGNFGMB@?$AAc?$AAo?$AAl?$AAu?$AAm?$AAn?$AA?9?$AA?$DO?$AAI?$AAn?$AAd?$AAe?$AAx?$AAW?$AAi?$AAt?$AAh?$AAi?$AAn?$AAE?$AAn?$AAa?$AAb?$AAl?$AAe?$AAd?$AAS?$AAe?$AAt?$AA?5?$AA?$DM?$AA?$DN@
CONST	SEGMENT
??_C@_1GM@PGNFGMB@?$AAc?$AAo?$AAl?$AAu?$AAm?$AAn?$AA?9?$AA?$DO?$AAI?$AAn?$AAd?$AAe?$AAx?$AAW?$AAi?$AAt?$AAh?$AAi?$AAn?$AAE?$AAn?$AAa?$AAb?$AAl?$AAe?$AAd?$AAS?$AAe?$AAt?$AA?5?$AA?$DM?$AA?$DN@ DB 'c'
	DB	00H, 'o', 00H, 'l', 00H, 'u', 00H, 'm', 00H, 'n', 00H, '-', 00H
	DB	'>', 00H, 'I', 00H, 'n', 00H, 'd', 00H, 'e', 00H, 'x', 00H, 'W'
	DB	00H, 'i', 00H, 't', 00H, 'h', 00H, 'i', 00H, 'n', 00H, 'E', 00H
	DB	'n', 00H, 'a', 00H, 'b', 00H, 'l', 00H, 'e', 00H, 'd', 00H, 'S'
	DB	00H, 'e', 00H, 't', 00H, ' ', 00H, '<', 00H, '=', 00H, ' ', 00H
	DB	'c', 00H, 'o', 00H, 'l', 00H, 'u', 00H, 'm', 00H, 'n', 00H, '-'
	DB	00H, '>', 00H, 'D', 00H, 'i', 00H, 's', 00H, 'p', 00H, 'l', 00H
	DB	'a', 00H, 'y', 00H, 'O', 00H, 'r', 00H, 'd', 00H, 'e', 00H, 'r'
	DB	00H, 00H, 00H				; `string'
CONST	ENDS
;	COMDAT ??_C@_1DO@DEAGPPGG@?$AAt?$AAa?$AAb?$AAl?$AAe?$AA?9?$AA?$DO?$AAI?$AAs?$AAL?$AAa?$AAy?$AAo?$AAu?$AAt?$AAL?$AAo?$AAc?$AAk?$AAe?$AAd?$AA?5?$AA?$DN?$AA?$DN?$AA?5?$AAf?$AAa?$AAl?$AAs?$AAe?$AA?$AA@
CONST	SEGMENT
??_C@_1DO@DEAGPPGG@?$AAt?$AAa?$AAb?$AAl?$AAe?$AA?9?$AA?$DO?$AAI?$AAs?$AAL?$AAa?$AAy?$AAo?$AAu?$AAt?$AAL?$AAo?$AAc?$AAk?$AAe?$AAd?$AA?5?$AA?$DN?$AA?$DN?$AA?5?$AAf?$AAa?$AAl?$AAs?$AAe?$AA?$AA@ DB 't'
	DB	00H, 'a', 00H, 'b', 00H, 'l', 00H, 'e', 00H, '-', 00H, '>', 00H
	DB	'I', 00H, 's', 00H, 'L', 00H, 'a', 00H, 'y', 00H, 'o', 00H, 'u'
	DB	00H, 't', 00H, 'L', 00H, 'o', 00H, 'c', 00H, 'k', 00H, 'e', 00H
	DB	'd', 00H, ' ', 00H, '=', 00H, '=', 00H, ' ', 00H, 'f', 00H, 'a'
	DB	00H, 'l', 00H, 's', 00H, 'e', 00H, 00H, 00H	; `string'
CONST	ENDS
;	COMDAT ?__LINE__Var@?0??TableUpdateLayout@ImGui@@YAXPEAUImGuiTable@@@Z@4JA
_DATA	SEGMENT
?__LINE__Var@?0??TableUpdateLayout@ImGui@@YAXPEAUImGuiTable@@@Z@4JA DD 02dbH ; `ImGui::TableUpdateLayout'::`1'::__LINE__Var
_DATA	ENDS
;	COMDAT ??_C@_1HC@EONHDNHI@?$AAI?$AAm?$AAI?$AAs?$AAP?$AAo?$AAw?$AAe?$AAr?$AAO?$AAf?$AAT?$AAw?$AAo?$AA?$CI?$AAf?$AAl?$AAa?$AAg?$AAs?$AA?5?$AA?$CG?$AA?5?$AAI?$AAm?$AAG?$AAu?$AAi?$AAT?$AAa?$AAb?$AAl@
CONST	SEGMENT
??_C@_1HC@EONHDNHI@?$AAI?$AAm?$AAI?$AAs?$AAP?$AAo?$AAw?$AAe?$AAr?$AAO?$AAf?$AAT?$AAw?$AAo?$AA?$CI?$AAf?$AAl?$AAa?$AAg?$AAs?$AA?5?$AA?$CG?$AA?5?$AAI?$AAm?$AAG?$AAu?$AAi?$AAT?$AAa?$AAb?$AAl@ DB 'I'
	DB	00H, 'm', 00H, 'I', 00H, 's', 00H, 'P', 00H, 'o', 00H, 'w', 00H
	DB	'e', 00H, 'r', 00H, 'O', 00H, 'f', 00H, 'T', 00H, 'w', 00H, 'o'
	DB	00H, '(', 00H, 'f', 00H, 'l', 00H, 'a', 00H, 'g', 00H, 's', 00H
	DB	' ', 00H, '&', 00H, ' ', 00H, 'I', 00H, 'm', 00H, 'G', 00H, 'u'
	DB	00H, 'i', 00H, 'T', 00H, 'a', 00H, 'b', 00H, 'l', 00H, 'e', 00H
	DB	'C', 00H, 'o', 00H, 'l', 00H, 'u', 00H, 'm', 00H, 'n', 00H, 'F'
	DB	00H, 'l', 00H, 'a', 00H, 'g', 00H, 's', 00H, '_', 00H, 'W', 00H
	DB	'i', 00H, 'd', 00H, 't', 00H, 'h', 00H, 'M', 00H, 'a', 00H, 's'
	DB	00H, 'k', 00H, '_', 00H, ')', 00H, 00H, 00H	; `string'
CONST	ENDS
;	COMDAT ?__LINE__Var@?0??TableSetupColumnFlags@@YAXPEAUImGuiTable@@PEAUImGuiTableColumn@@H@Z@4JA
_DATA	SEGMENT
?__LINE__Var@?0??TableSetupColumnFlags@@YAXPEAUImGuiTable@@PEAUImGuiTableColumn@@H@Z@4JA DD 02a0H ; `TableSetupColumnFlags'::`1'::__LINE__Var
_DATA	ENDS
;	COMDAT ??_C@_1GI@FDBBNGED@?$AAd?$AAs?$AAt?$AA_?$AAc?$AAo?$AAl?$AAu?$AAm?$AAn?$AA?9?$AA?$DO?$AAD?$AAi?$AAs?$AAp?$AAl?$AAa?$AAy?$AAO?$AAr?$AAd?$AAe?$AAr?$AA?5?$AA?$DN?$AA?$DN?$AA?5?$AAd?$AAs?$AAt?$AA_@
CONST	SEGMENT
??_C@_1GI@FDBBNGED@?$AAd?$AAs?$AAt?$AA_?$AAc?$AAo?$AAl?$AAu?$AAm?$AAn?$AA?9?$AA?$DO?$AAD?$AAi?$AAs?$AAp?$AAl?$AAa?$AAy?$AAO?$AAr?$AAd?$AAe?$AAr?$AA?5?$AA?$DN?$AA?$DN?$AA?5?$AAd?$AAs?$AAt?$AA_@ DB 'd'
	DB	00H, 's', 00H, 't', 00H, '_', 00H, 'c', 00H, 'o', 00H, 'l', 00H
	DB	'u', 00H, 'm', 00H, 'n', 00H, '-', 00H, '>', 00H, 'D', 00H, 'i'
	DB	00H, 's', 00H, 'p', 00H, 'l', 00H, 'a', 00H, 'y', 00H, 'O', 00H
	DB	'r', 00H, 'd', 00H, 'e', 00H, 'r', 00H, ' ', 00H, '=', 00H, '='
	DB	00H, ' ', 00H, 'd', 00H, 's', 00H, 't', 00H, '_', 00H, 'o', 00H
	DB	'r', 00H, 'd', 00H, 'e', 00H, 'r', 00H, ' ', 00H, '-', 00H, ' '
	DB	00H, 'r', 00H, 'e', 00H, 'o', 00H, 'r', 00H, 'd', 00H, 'e', 00H
	DB	'r', 00H, '_', 00H, 'd', 00H, 'i', 00H, 'r', 00H, 00H, 00H ; `string'
CONST	ENDS
;	COMDAT ??_C@_1FG@FFJIEHAF@?$AAt?$AAa?$AAb?$AAl?$AAe?$AA?9?$AA?$DO?$AAF?$AAl?$AAa?$AAg?$AAs?$AA?5?$AA?$CG?$AA?5?$AAI?$AAm?$AAG?$AAu?$AAi?$AAT?$AAa?$AAb?$AAl?$AAe?$AAF?$AAl?$AAa?$AAg?$AAs?$AA_?$AAR@
CONST	SEGMENT
??_C@_1FG@FFJIEHAF@?$AAt?$AAa?$AAb?$AAl?$AAe?$AA?9?$AA?$DO?$AAF?$AAl?$AAa?$AAg?$AAs?$AA?5?$AA?$CG?$AA?5?$AAI?$AAm?$AAG?$AAu?$AAi?$AAT?$AAa?$AAb?$AAl?$AAe?$AAF?$AAl?$AAa?$AAg?$AAs?$AA_?$AAR@ DB 't'
	DB	00H, 'a', 00H, 'b', 00H, 'l', 00H, 'e', 00H, '-', 00H, '>', 00H
	DB	'F', 00H, 'l', 00H, 'a', 00H, 'g', 00H, 's', 00H, ' ', 00H, '&'
	DB	00H, ' ', 00H, 'I', 00H, 'm', 00H, 'G', 00H, 'u', 00H, 'i', 00H
	DB	'T', 00H, 'a', 00H, 'b', 00H, 'l', 00H, 'e', 00H, 'F', 00H, 'l'
	DB	00H, 'a', 00H, 'g', 00H, 's', 00H, '_', 00H, 'R', 00H, 'e', 00H
	DB	'o', 00H, 'r', 00H, 'd', 00H, 'e', 00H, 'r', 00H, 'a', 00H, 'b'
	DB	00H, 'l', 00H, 'e', 00H, 00H, 00H		; `string'
CONST	ENDS
;	COMDAT ??_C@_1EO@CLPKFPLH@?$AAr?$AAe?$AAo?$AAr?$AAd?$AAe?$AAr?$AA_?$AAd?$AAi?$AAr?$AA?5?$AA?$DN?$AA?$DN?$AA?5?$AA?9?$AA1?$AA?5?$AA?$HM?$AA?$HM?$AA?5?$AAr?$AAe?$AAo?$AAr?$AAd?$AAe?$AAr?$AA_?$AAd?$AAi?$AAr@
CONST	SEGMENT
??_C@_1EO@CLPKFPLH@?$AAr?$AAe?$AAo?$AAr?$AAd?$AAe?$AAr?$AA_?$AAd?$AAi?$AAr?$AA?5?$AA?$DN?$AA?$DN?$AA?5?$AA?9?$AA1?$AA?5?$AA?$HM?$AA?$HM?$AA?5?$AAr?$AAe?$AAo?$AAr?$AAd?$AAe?$AAr?$AA_?$AAd?$AAi?$AAr@ DB 'r'
	DB	00H, 'e', 00H, 'o', 00H, 'r', 00H, 'd', 00H, 'e', 00H, 'r', 00H
	DB	'_', 00H, 'd', 00H, 'i', 00H, 'r', 00H, ' ', 00H, '=', 00H, '='
	DB	00H, ' ', 00H, '-', 00H, '1', 00H, ' ', 00H, '|', 00H, '|', 00H
	DB	' ', 00H, 'r', 00H, 'e', 00H, 'o', 00H, 'r', 00H, 'd', 00H, 'e'
	DB	00H, 'r', 00H, '_', 00H, 'd', 00H, 'i', 00H, 'r', 00H, ' ', 00H
	DB	'=', 00H, '=', 00H, ' ', 00H, '+', 00H, '1', 00H, 00H, 00H ; `string'
CONST	ENDS
;	COMDAT ?__LINE__Var@?0??TableBeginApplyRequests@ImGui@@YAXPEAUImGuiTable@@@Z@4JA
_DATA	SEGMENT
?__LINE__Var@?0??TableBeginApplyRequests@ImGui@@YAXPEAUImGuiTable@@@Z@4JA DD 025cH ; `ImGui::TableBeginApplyRequests'::`1'::__LINE__Var
_DATA	ENDS
;	COMDAT ??_C@_1BBG@HLLCHCOP@?$AAt?$AAa?$AAb?$AAl?$AAe?$AA?9?$AA?$DO?$AAI?$AAn?$AAn?$AAe?$AAr?$AAW?$AAi?$AAn?$AAd?$AAo?$AAw?$AA?9?$AA?$DO?$AAW?$AAi?$AAn?$AAd?$AAo?$AAw?$AAP?$AAa?$AAd?$AAd?$AAi?$AAn@
CONST	SEGMENT
??_C@_1BBG@HLLCHCOP@?$AAt?$AAa?$AAb?$AAl?$AAe?$AA?9?$AA?$DO?$AAI?$AAn?$AAn?$AAe?$AAr?$AAW?$AAi?$AAn?$AAd?$AAo?$AAw?$AA?9?$AA?$DO?$AAW?$AAi?$AAn?$AAd?$AAo?$AAw?$AAP?$AAa?$AAd?$AAd?$AAi?$AAn@ DB 't'
	DB	00H, 'a', 00H, 'b', 00H, 'l', 00H, 'e', 00H, '-', 00H, '>', 00H
	DB	'I', 00H, 'n', 00H, 'n', 00H, 'e', 00H, 'r', 00H, 'W', 00H, 'i'
	DB	00H, 'n', 00H, 'd', 00H, 'o', 00H, 'w', 00H, '-', 00H, '>', 00H
	DB	'W', 00H, 'i', 00H, 'n', 00H, 'd', 00H, 'o', 00H, 'w', 00H, 'P'
	DB	00H, 'a', 00H, 'd', 00H, 'd', 00H, 'i', 00H, 'n', 00H, 'g', 00H
	DB	'.', 00H, 'x', 00H, ' ', 00H, '=', 00H, '=', 00H, ' ', 00H, '0'
	DB	00H, '.', 00H, '0', 00H, 'f', 00H, ' ', 00H, '&', 00H, '&', 00H
	DB	' ', 00H, 't', 00H, 'a', 00H, 'b', 00H, 'l', 00H, 'e', 00H, '-'
	DB	00H, '>', 00H, 'I', 00H, 'n', 00H, 'n', 00H, 'e', 00H, 'r', 00H
	DB	'W', 00H, 'i', 00H, 'n', 00H, 'd', 00H, 'o', 00H, 'w', 00H, '-'
	DB	00H, '>', 00H, 'W', 00H, 'i', 00H, 'n', 00H, 'd', 00H, 'o', 00H
	DB	'w', 00H, 'P', 00H, 'a', 00H, 'd', 00H, 'd', 00H, 'i', 00H, 'n'
	DB	00H, 'g', 00H, '.', 00H, 'y', 00H, ' ', 00H, '=', 00H, '=', 00H
	DB	' ', 00H, '0', 00H, '.', 00H, '0', 00H, 'f', 00H, ' ', 00H, '&'
	DB	00H, '&', 00H, ' ', 00H, 't', 00H, 'a', 00H, 'b', 00H, 'l', 00H
	DB	'e', 00H, '-', 00H, '>', 00H, 'I', 00H, 'n', 00H, 'n', 00H, 'e'
	DB	00H, 'r', 00H, 'W', 00H, 'i', 00H, 'n', 00H, 'd', 00H, 'o', 00H
	DB	'w', 00H, '-', 00H, '>', 00H, 'W', 00H, 'i', 00H, 'n', 00H, 'd'
	DB	00H, 'o', 00H, 'w', 00H, 'B', 00H, 'o', 00H, 'r', 00H, 'd', 00H
	DB	'e', 00H, 'r', 00H, 'S', 00H, 'i', 00H, 'z', 00H, 'e', 00H, ' '
	DB	00H, '=', 00H, '=', 00H, ' ', 00H, '0', 00H, '.', 00H, '0', 00H
	DB	'f', 00H, 00H, 00H				; `string'
CONST	ENDS
;	COMDAT ??_C@_1OO@LHJMPKOL@?$AAt?$AAa?$AAb?$AAl?$AAe?$AA?9?$AA?$DO?$AAC?$AAo?$AAl?$AAu?$AAm?$AAn?$AAs?$AAC?$AAo?$AAu?$AAn?$AAt?$AA?5?$AA?$DN?$AA?$DN?$AA?5?$AAc?$AAo?$AAl?$AAu?$AAm?$AAn?$AAs?$AA_?$AAc@
CONST	SEGMENT
??_C@_1OO@LHJMPKOL@?$AAt?$AAa?$AAb?$AAl?$AAe?$AA?9?$AA?$DO?$AAC?$AAo?$AAl?$AAu?$AAm?$AAn?$AAs?$AAC?$AAo?$AAu?$AAn?$AAt?$AA?5?$AA?$DN?$AA?$DN?$AA?5?$AAc?$AAo?$AAl?$AAu?$AAm?$AAn?$AAs?$AA_?$AAc@ DB 't'
	DB	00H, 'a', 00H, 'b', 00H, 'l', 00H, 'e', 00H, '-', 00H, '>', 00H
	DB	'C', 00H, 'o', 00H, 'l', 00H, 'u', 00H, 'm', 00H, 'n', 00H, 's'
	DB	00H, 'C', 00H, 'o', 00H, 'u', 00H, 'n', 00H, 't', 00H, ' ', 00H
	DB	'=', 00H, '=', 00H, ' ', 00H, 'c', 00H, 'o', 00H, 'l', 00H, 'u'
	DB	00H, 'm', 00H, 'n', 00H, 's', 00H, '_', 00H, 'c', 00H, 'o', 00H
	DB	'u', 00H, 'n', 00H, 't', 00H, ' ', 00H, '&', 00H, '&', 00H, ' '
	DB	00H, '"', 00H, 'B', 00H, 'e', 00H, 'g', 00H, 'i', 00H, 'n', 00H
	DB	'T', 00H, 'a', 00H, 'b', 00H, 'l', 00H, 'e', 00H, '(', 00H, ')'
	DB	00H, ':', 00H, ' ', 00H, 'C', 00H, 'a', 00H, 'n', 00H, 'n', 00H
	DB	'o', 00H, 't', 00H, ' ', 00H, 'c', 00H, 'h', 00H, 'a', 00H, 'n'
	DB	00H, 'g', 00H, 'e', 00H, ' ', 00H, 'c', 00H, 'o', 00H, 'l', 00H
	DB	'u', 00H, 'm', 00H, 'n', 00H, 's', 00H, ' ', 00H, 'c', 00H, 'o'
	DB	00H, 'u', 00H, 'n', 00H, 't', 00H, ' ', 00H, 'm', 00H, 'i', 00H
	DB	'd', 00H, '-', 00H, 'f', 00H, 'r', 00H, 'a', 00H, 'm', 00H, 'e'
	DB	00H, ' ', 00H, 'w', 00H, 'h', 00H, 'i', 00H, 'l', 00H, 'e', 00H
	DB	' ', 00H, 'p', 00H, 'r', 00H, 'e', 00H, 's', 00H, 'e', 00H, 'r'
	DB	00H, 'v', 00H, 'i', 00H, 'n', 00H, 'g', 00H, ' ', 00H, 's', 00H
	DB	'a', 00H, 'm', 00H, 'e', 00H, ' ', 00H, 'I', 00H, 'D', 00H, '"'
	DB	00H, 00H, 00H				; `string'
CONST	ENDS
;	COMDAT ??_C@_0EN@HCDJLOKE@BeginTable?$CI?$CJ?3?5Cannot?5change?5colu@
CONST	SEGMENT
??_C@_0EN@HCDJLOKE@BeginTable?$CI?$CJ?3?5Cannot?5change?5colu@ DB 'BeginT'
	DB	'able(): Cannot change columns count mid-frame while preservin'
	DB	'g same ID', 00H				; `string'
CONST	ENDS
;	COMDAT ??_C@_1CI@NLGBMAGB@?$AAi?$AAn?$AAn?$AAe?$AAr?$AA_?$AAw?$AAi?$AAd?$AAt?$AAh?$AA?5?$AA?$DO?$AA?$DN?$AA?5?$AA0?$AA?4?$AA0?$AAf?$AA?$AA@
CONST	SEGMENT
??_C@_1CI@NLGBMAGB@?$AAi?$AAn?$AAn?$AAe?$AAr?$AA_?$AAw?$AAi?$AAd?$AAt?$AAh?$AA?5?$AA?$DO?$AA?$DN?$AA?5?$AA0?$AA?4?$AA0?$AAf?$AA?$AA@ DB 'i'
	DB	00H, 'n', 00H, 'n', 00H, 'e', 00H, 'r', 00H, '_', 00H, 'w', 00H
	DB	'i', 00H, 'd', 00H, 't', 00H, 'h', 00H, ' ', 00H, '>', 00H, '='
	DB	00H, ' ', 00H, '0', 00H, '.', 00H, '0', 00H, 'f', 00H, 00H, 00H ; `string'
CONST	ENDS
;	COMDAT ??_C@_1FC@LLGOGPDA@?$AAc?$AAo?$AAl?$AAu?$AAm?$AAn?$AAs?$AA_?$AAc?$AAo?$AAu?$AAn?$AAt?$AA?5?$AA?$DO?$AA?5?$AA0?$AA?5?$AA?$CG?$AA?$CG?$AA?5?$AAc?$AAo?$AAl?$AAu?$AAm?$AAn?$AAs?$AA_?$AAc?$AAo?$AAu@
CONST	SEGMENT
??_C@_1FC@LLGOGPDA@?$AAc?$AAo?$AAl?$AAu?$AAm?$AAn?$AAs?$AA_?$AAc?$AAo?$AAu?$AAn?$AAt?$AA?5?$AA?$DO?$AA?5?$AA0?$AA?5?$AA?$CG?$AA?$CG?$AA?5?$AAc?$AAo?$AAl?$AAu?$AAm?$AAn?$AAs?$AA_?$AAc?$AAo?$AAu@ DB 'c'
	DB	00H, 'o', 00H, 'l', 00H, 'u', 00H, 'm', 00H, 'n', 00H, 's', 00H
	DB	'_', 00H, 'c', 00H, 'o', 00H, 'u', 00H, 'n', 00H, 't', 00H, ' '
	DB	00H, '>', 00H, ' ', 00H, '0', 00H, ' ', 00H, '&', 00H, '&', 00H
	DB	' ', 00H, 'c', 00H, 'o', 00H, 'l', 00H, 'u', 00H, 'm', 00H, 'n'
	DB	00H, 's', 00H, '_', 00H, 'c', 00H, 'o', 00H, 'u', 00H, 'n', 00H
	DB	't', 00H, ' ', 00H, '<', 00H, ' ', 00H, '5', 00H, '1', 00H, '2'
	DB	00H, 00H, 00H				; `string'
CONST	ENDS
;	COMDAT ??_C@_1GA@OPMIMIN@?$AAc?$AA?3?$AA?2?$AAg?$AAi?$AAt?$AAh?$AAu?$AAb?$AA?2?$AAf?$AAr?$AAa?$AAm?$AAe?$AAw?$AAo?$AAr?$AAk?$AA?2?$AAt?$AAo?$AAo?$AAl?$AA?2?$AAi?$AAm?$AAg?$AAu?$AAi?$AA?2?$AAi@
CONST	SEGMENT
??_C@_1GA@OPMIMIN@?$AAc?$AA?3?$AA?2?$AAg?$AAi?$AAt?$AAh?$AAu?$AAb?$AA?2?$AAf?$AAr?$AAa?$AAm?$AAe?$AAw?$AAo?$AAr?$AAk?$AA?2?$AAt?$AAo?$AAo?$AAl?$AA?2?$AAi?$AAm?$AAg?$AAu?$AAi?$AA?2?$AAi@ DB 'c'
	DB	00H, ':', 00H, '\', 00H, 'g', 00H, 'i', 00H, 't', 00H, 'h', 00H
	DB	'u', 00H, 'b', 00H, '\', 00H, 'f', 00H, 'r', 00H, 'a', 00H, 'm'
	DB	00H, 'e', 00H, 'w', 00H, 'o', 00H, 'r', 00H, 'k', 00H, '\', 00H
	DB	't', 00H, 'o', 00H, 'o', 00H, 'l', 00H, '\', 00H, 'i', 00H, 'm'
	DB	00H, 'g', 00H, 'u', 00H, 'i', 00H, '\', 00H, 'i', 00H, 'm', 00H
	DB	'g', 00H, 'u', 00H, 'i', 00H, '_', 00H, 't', 00H, 'a', 00H, 'b'
	DB	00H, 'l', 00H, 'e', 00H, 's', 00H, '.', 00H, 'c', 00H, 'p', 00H
	DB	'p', 00H, 00H, 00H				; `string'
CONST	ENDS
;	COMDAT ?__LINE__Var@?0??BeginTableEx@ImGui@@YA_NPEBDIHHAEBUImVec2@@M@Z@4JA
_DATA	SEGMENT
?__LINE__Var@?0??BeginTableEx@ImGui@@YA_NPEBDIHHAEBUImVec2@@M@Z@4JA DD 0137H ; `ImGui::BeginTableEx'::`1'::__LINE__Var
_DATA	ENDS
;	COMDAT ??_C@_13COJANIEC@?$AA0?$AA?$AA@
CONST	SEGMENT
??_C@_13COJANIEC@?$AA0?$AA?$AA@ DB '0', 00H, 00H, 00H	; `string'
CONST	ENDS
;	COMDAT ??_C@_0P@HEMCFMMD@?$CKMissing?5Text?$CK?$AA@
CONST	SEGMENT
??_C@_0P@HEMCFMMD@?$CKMissing?5Text?$CK?$AA@ DB '*Missing Text*', 00H ; `string'
CONST	ENDS
;	COMDAT ??_C@_1GA@FAIKKLKG@?$AAc?$AA?3?$AA?2?$AAg?$AAi?$AAt?$AAh?$AAu?$AAb?$AA?2?$AAf?$AAr?$AAa?$AAm?$AAe?$AAw?$AAo?$AAr?$AAk?$AA?2?$AAt?$AAo?$AAo?$AAl?$AA?2?$AAi?$AAm?$AAg?$AAu?$AAi?$AA?2?$AAi@
CONST	SEGMENT
??_C@_1GA@FAIKKLKG@?$AAc?$AA?3?$AA?2?$AAg?$AAi?$AAt?$AAh?$AAu?$AAb?$AA?2?$AAf?$AAr?$AAa?$AAm?$AAe?$AAw?$AAo?$AAr?$AAk?$AA?2?$AAt?$AAo?$AAo?$AAl?$AA?2?$AAi?$AAm?$AAg?$AAu?$AAi?$AA?2?$AAi@ DB 'c'
	DB	00H, ':', 00H, '\', 00H, 'g', 00H, 'i', 00H, 't', 00H, 'h', 00H
	DB	'u', 00H, 'b', 00H, '\', 00H, 'f', 00H, 'r', 00H, 'a', 00H, 'm'
	DB	00H, 'e', 00H, 'w', 00H, 'o', 00H, 'r', 00H, 'k', 00H, '\', 00H
	DB	't', 00H, 'o', 00H, 'o', 00H, 'l', 00H, '\', 00H, 'i', 00H, 'm'
	DB	00H, 'g', 00H, 'u', 00H, 'i', 00H, '\', 00H, 'i', 00H, 'm', 00H
	DB	'g', 00H, 'u', 00H, 'i', 00H, '_', 00H, 'i', 00H, 'n', 00H, 't'
	DB	00H, 'e', 00H, 'r', 00H, 'n', 00H, 'a', 00H, 'l', 00H, '.', 00H
	DB	'h', 00H, 00H, 00H				; `string'
CONST	ENDS
;	COMDAT ??_C@_1EO@MGODAGF@?$AAc?$AA?3?$AA?2?$AAg?$AAi?$AAt?$AAh?$AAu?$AAb?$AA?2?$AAf?$AAr?$AAa?$AAm?$AAe?$AAw?$AAo?$AAr?$AAk?$AA?2?$AAt?$AAo?$AAo?$AAl?$AA?2?$AAi?$AAm?$AAg?$AAu?$AAi?$AA?2?$AAi@
CONST	SEGMENT
??_C@_1EO@MGODAGF@?$AAc?$AA?3?$AA?2?$AAg?$AAi?$AAt?$AAh?$AAu?$AAb?$AA?2?$AAf?$AAr?$AAa?$AAm?$AAe?$AAw?$AAo?$AAr?$AAk?$AA?2?$AAt?$AAo?$AAo?$AAl?$AA?2?$AAi?$AAm?$AAg?$AAu?$AAi?$AA?2?$AAi@ DB 'c'
	DB	00H, ':', 00H, '\', 00H, 'g', 00H, 'i', 00H, 't', 00H, 'h', 00H
	DB	'u', 00H, 'b', 00H, '\', 00H, 'f', 00H, 'r', 00H, 'a', 00H, 'm'
	DB	00H, 'e', 00H, 'w', 00H, 'o', 00H, 'r', 00H, 'k', 00H, '\', 00H
	DB	't', 00H, 'o', 00H, 'o', 00H, 'l', 00H, '\', 00H, 'i', 00H, 'm'
	DB	00H, 'g', 00H, 'u', 00H, 'i', 00H, '\', 00H, 'i', 00H, 'm', 00H
	DB	'g', 00H, 'u', 00H, 'i', 00H, '.', 00H, 'h', 00H, 00H, 00H ; `string'
CONST	ENDS
;	COMDAT xdata
xdata	SEGMENT
$unwind$?GetColumnWidthEx@@YAMPEAUImGuiOldColumns@@H_N@Z DD 035053301H
	DD	0117331cH
	DD	070100023H
	DD	0500fH
xdata	ENDS
;	COMDAT xdata
xdata	SEGMENT
$unwind$??$ImLerp@M@@YAMMMM@Z DD 015052f01H
	DD	011b1320H
	DD	07014001bH
	DD	05013H
xdata	ENDS
;	COMDAT xdata
xdata	SEGMENT
$unwind$?GetDraggedColumnOffset@@YAMPEAUImGuiOldColumns@@H@Z DD 035052e01H
	DD	01123317H
	DD	0700b002bH
	DD	0500aH
xdata	ENDS
;	COMDAT xdata
xdata	SEGMENT
$unwind$?DebugNodeTableGetSizingPolicyDesc@@YAPEBDH@Z DD 05052601H
	DD	010d0310H
	DD	070060019H
	DD	05005H
xdata	ENDS
;	COMDAT xdata
xdata	SEGMENT
$unwind$?TableSettingsHandler_WriteAll@@YAXPEAUImGuiContext@@PEAUImGuiSettingsHandler@@PEAUImGuiTextBuffer@@@Z DD 035053401H
	DD	0118331dH
	DD	070110043H
	DD	05010H
xdata	ENDS
;	COMDAT xdata
xdata	SEGMENT
$unwind$?TableSettingsHandler_ReadLine@@YAXPEAUImGuiContext@@PEAUImGuiSettingsHandler@@PEAXPEBD@Z DD 035054a19H
	DD	011d3322H
	DD	07016003bH
	DD	05015H
	DD	imagerel __GSHandlerCheck
	DD	01c8H
xdata	ENDS
;	COMDAT CONST
CONST	SEGMENT
?TableSettingsHandler_ReadLine@@YAXPEAUImGuiContext@@PEAUImGuiSettingsHandler@@PEAXPEBD@Z$rtcName$0 DB 066H ; TableSettingsHandler_ReadLine
	DB	00H
	ORG $+6
?TableSettingsHandler_ReadLine@@YAXPEAUImGuiContext@@PEAUImGuiSettingsHandler@@PEAXPEBD@Z$rtcName$1 DB 063H ; TableSettingsHandler_ReadLine
	DB	06fH
	DB	06cH
	DB	075H
	DB	06dH
	DB	06eH
	DB	05fH
	DB	06eH
	DB	00H
	ORG $+3
?TableSettingsHandler_ReadLine@@YAXPEAUImGuiContext@@PEAUImGuiSettingsHandler@@PEAXPEBD@Z$rtcName$2 DB 072H ; TableSettingsHandler_ReadLine
	DB	00H
	ORG $+2
?TableSettingsHandler_ReadLine@@YAXPEAUImGuiContext@@PEAUImGuiSettingsHandler@@PEAXPEBD@Z$rtcName$3 DB 06eH ; TableSettingsHandler_ReadLine
	DB	00H
	ORG $+2
?TableSettingsHandler_ReadLine@@YAXPEAUImGuiContext@@PEAUImGuiSettingsHandler@@PEAXPEBD@Z$rtcName$4 DB 063H ; TableSettingsHandler_ReadLine
	DB	00H
	ORG $+2
?TableSettingsHandler_ReadLine@@YAXPEAUImGuiContext@@PEAUImGuiSettingsHandler@@PEAXPEBD@Z$rtcVarDesc DD 0d4H ; TableSettingsHandler_ReadLine
	DD	01H
	DQ	FLAT:?TableSettingsHandler_ReadLine@@YAXPEAUImGuiContext@@PEAUImGuiSettingsHandler@@PEAXPEBD@Z$rtcName$4
	DD	0b4H
	DD	04H
	DQ	FLAT:?TableSettingsHandler_ReadLine@@YAXPEAUImGuiContext@@PEAUImGuiSettingsHandler@@PEAXPEBD@Z$rtcName$3
	DD	094H
	DD	04H
	DQ	FLAT:?TableSettingsHandler_ReadLine@@YAXPEAUImGuiContext@@PEAUImGuiSettingsHandler@@PEAXPEBD@Z$rtcName$2
	DD	074H
	DD	04H
	DQ	FLAT:?TableSettingsHandler_ReadLine@@YAXPEAUImGuiContext@@PEAUImGuiSettingsHandler@@PEAXPEBD@Z$rtcName$1
	DD	054H
	DD	04H
	DQ	FLAT:?TableSettingsHandler_ReadLine@@YAXPEAUImGuiContext@@PEAUImGuiSettingsHandler@@PEAXPEBD@Z$rtcName$0
	ORG $+240
?TableSettingsHandler_ReadLine@@YAXPEAUImGuiContext@@PEAUImGuiSettingsHandler@@PEAXPEBD@Z$rtcFrameData DD 05H ; TableSettingsHandler_ReadLine
	DD	00H
	DQ	FLAT:?TableSettingsHandler_ReadLine@@YAXPEAUImGuiContext@@PEAUImGuiSettingsHandler@@PEAXPEBD@Z$rtcVarDesc
CONST	ENDS
;	COMDAT xdata
xdata	SEGMENT
$unwind$?TableSettingsHandler_ReadOpen@@YAPEAXPEAUImGuiContext@@PEAUImGuiSettingsHandler@@PEBD@Z DD 025054519H
	DD	0118231dH
	DD	070110029H
	DD	05010H
	DD	imagerel __GSHandlerCheck
	DD	0138H
xdata	ENDS
;	COMDAT CONST
CONST	SEGMENT
?TableSettingsHandler_ReadOpen@@YAPEAXPEAUImGuiContext@@PEAUImGuiSettingsHandler@@PEBD@Z$rtcName$0 DB 069H ; TableSettingsHandler_ReadOpen
	DB	064H
	DB	00H
	ORG $+5
?TableSettingsHandler_ReadOpen@@YAPEAXPEAUImGuiContext@@PEAUImGuiSettingsHandler@@PEBD@Z$rtcName$1 DB 063H ; TableSettingsHandler_ReadOpen
	DB	06fH
	DB	06cH
	DB	075H
	DB	06dH
	DB	06eH
	DB	073H
	DB	05fH
	DB	063H
	DB	06fH
	DB	075H
	DB	06eH
	DB	074H
	DB	00H
	ORG $+10
?TableSettingsHandler_ReadOpen@@YAPEAXPEAUImGuiContext@@PEAUImGuiSettingsHandler@@PEBD@Z$rtcVarDesc DD 044H ; TableSettingsHandler_ReadOpen
	DD	04H
	DQ	FLAT:?TableSettingsHandler_ReadOpen@@YAPEAXPEAUImGuiContext@@PEAUImGuiSettingsHandler@@PEBD@Z$rtcName$1
	DD	024H
	DD	04H
	DQ	FLAT:?TableSettingsHandler_ReadOpen@@YAPEAXPEAUImGuiContext@@PEAUImGuiSettingsHandler@@PEBD@Z$rtcName$0
	ORG $+96
?TableSettingsHandler_ReadOpen@@YAPEAXPEAUImGuiContext@@PEAUImGuiSettingsHandler@@PEBD@Z$rtcFrameData DD 02H ; TableSettingsHandler_ReadOpen
	DD	00H
	DQ	FLAT:?TableSettingsHandler_ReadOpen@@YAPEAXPEAUImGuiContext@@PEAUImGuiSettingsHandler@@PEBD@Z$rtcVarDesc
CONST	ENDS
;	COMDAT xdata
xdata	SEGMENT
$unwind$?TableSettingsHandler_ApplyAll@@YAXPEAUImGuiContext@@PEAUImGuiSettingsHandler@@@Z DD 025052f01H
	DD	01132318H
	DD	0700c0029H
	DD	0500bH
xdata	ENDS
;	COMDAT xdata
xdata	SEGMENT
$unwind$?TableSettingsHandler_ClearAll@@YAXPEAUImGuiContext@@PEAUImGuiSettingsHandler@@@Z DD 025052f01H
	DD	01132318H
	DD	0700c0029H
	DD	0500bH
xdata	ENDS
;	COMDAT xdata
xdata	SEGMENT
$unwind$?TableSettingsCalcChunkSize@@YA_KH@Z DD 05052601H
	DD	010d0310H
	DD	070060019H
	DD	05005H
xdata	ENDS
;	COMDAT xdata
xdata	SEGMENT
$unwind$?dtor$1@?0??TableSettingsInit@@YAXPEAUImGuiTableSettings@@IHH@Z@4HA DD 031001H
	DD	0700c4210H
	DD	0500bH
xdata	ENDS
;	COMDAT xdata
xdata	SEGMENT
$unwind$?dtor$0@?0??TableSettingsInit@@YAXPEAUImGuiTableSettings@@IHH@Z@4HA DD 031001H
	DD	0700c4210H
	DD	0500bH
xdata	ENDS
;	COMDAT xdata
xdata	SEGMENT
$ip2state$?TableSettingsInit@@YAXPEAUImGuiTableSettings@@IHH@Z DD imagerel ?TableSettingsInit@@YAXPEAUImGuiTableSettings@@IHH@Z
	DD	0ffffffffH
	DD	imagerel ?TableSettingsInit@@YAXPEAUImGuiTableSettings@@IHH@Z+115
	DD	00H
	DD	imagerel ?TableSettingsInit@@YAXPEAUImGuiTableSettings@@IHH@Z+171
	DD	0ffffffffH
	DD	imagerel ?TableSettingsInit@@YAXPEAUImGuiTableSettings@@IHH@Z+272
	DD	01H
	DD	imagerel ?TableSettingsInit@@YAXPEAUImGuiTableSettings@@IHH@Z+328
	DD	0ffffffffH
xdata	ENDS
;	COMDAT xdata
xdata	SEGMENT
$stateUnwindMap$?TableSettingsInit@@YAXPEAUImGuiTableSettings@@IHH@Z DD 0ffffffffH
	DD	imagerel ?dtor$0@?0??TableSettingsInit@@YAXPEAUImGuiTableSettings@@IHH@Z@4HA
	DD	0ffffffffH
	DD	imagerel ?dtor$1@?0??TableSettingsInit@@YAXPEAUImGuiTableSettings@@IHH@Z@4HA
xdata	ENDS
;	COMDAT CONST
CONST	SEGMENT
$cppxdata$?TableSettingsInit@@YAXPEAUImGuiTableSettings@@IHH@Z DD 019930522H
	DD	02H
	DD	imagerel $stateUnwindMap$?TableSettingsInit@@YAXPEAUImGuiTableSettings@@IHH@Z
	DD	00H
	DD	00H
	DD	05H
	DD	imagerel $ip2state$?TableSettingsInit@@YAXPEAUImGuiTableSettings@@IHH@Z
	DD	0228H
	DD	00H
	DD	01H
CONST	ENDS
;	COMDAT xdata
xdata	SEGMENT
$unwind$?TableSettingsInit@@YAXPEAUImGuiTableSettings@@IHH@Z DD 025054311H
	DD	011c2321H
	DD	070150049H
	DD	05014H
	DD	imagerel __CxxFrameHandler3
	DD	imagerel $cppxdata$?TableSettingsInit@@YAXPEAUImGuiTableSettings@@IHH@Z
xdata	ENDS
;	COMDAT xdata
xdata	SEGMENT
$unwind$??$ImMax@F@@YAFFF@Z DD 05052d01H
	DD	01130316H
	DD	0700c001bH
	DD	0500bH
xdata	ENDS
;	COMDAT xdata
xdata	SEGMENT
$unwind$?TableGetColumnAvailSortDirection@@YAHPEAUImGuiTableColumn@@H@Z DD 025052e01H
	DD	01122317H
	DD	0700b001dH
	DD	0500aH
xdata	ENDS
;	COMDAT xdata
xdata	SEGMENT
$unwind$??0MergeGroup@?1??TableMergeDrawChannels@ImGui@@YAXPEAUImGuiTable@@@Z@QEAA@XZ DD 025052a01H
	DD	010e2313H
	DD	07007001dH
	DD	05006H
xdata	ENDS
;	COMDAT xdata
xdata	SEGMENT
$unwind$??$ImSwap@F@@YAXAEAF0@Z DD 05052d01H
	DD	01130316H
	DD	0700c001dH
	DD	0500bH
xdata	ENDS
;	COMDAT xdata
xdata	SEGMENT
$unwind$??$ImClamp@M@@YAMMMM@Z DD 015052f01H
	DD	011b1320H
	DD	07014001dH
	DD	05013H
xdata	ENDS
;	COMDAT xdata
xdata	SEGMENT
$unwind$?TableSetupColumnFlags@@YAXPEAUImGuiTable@@PEAUImGuiTableColumn@@H@Z DD 025053401H
	DD	0118231dH
	DD	070110031H
	DD	05010H
xdata	ENDS
;	COMDAT xdata
xdata	SEGMENT
$unwind$??$GetSpan@UImGuiTableCellData@@@?$ImSpanAllocator@$05@@QEAAXHPEAU?$ImSpan@UImGuiTableCellData@@@@@Z DD 025053301H
	DD	0117231cH
	DD	07010001fH
	DD	0500fH
xdata	ENDS
;	COMDAT xdata
xdata	SEGMENT
$unwind$??$GetSpan@F@?$ImSpanAllocator@$05@@QEAAXHPEAU?$ImSpan@F@@@Z DD 025053301H
	DD	0117231cH
	DD	07010001fH
	DD	0500fH
xdata	ENDS
;	COMDAT xdata
xdata	SEGMENT
$unwind$??$GetSpan@UImGuiTableColumn@@@?$ImSpanAllocator@$05@@QEAAXHPEAU?$ImSpan@UImGuiTableColumn@@@@@Z DD 025053301H
	DD	0117231cH
	DD	07010001fH
	DD	0500fH
xdata	ENDS
;	COMDAT xdata
xdata	SEGMENT
$unwind$?GetSpanPtrEnd@?$ImSpanAllocator@$05@@QEAAPEAXH@Z DD 025052e01H
	DD	01122317H
	DD	0700b001dH
	DD	0500aH
xdata	ENDS
;	COMDAT xdata
xdata	SEGMENT
$unwind$?GetSpanPtrBegin@?$ImSpanAllocator@$05@@QEAAPEAXH@Z DD 025052e01H
	DD	01122317H
	DD	0700b001dH
	DD	0500aH
xdata	ENDS
;	COMDAT xdata
xdata	SEGMENT
$unwind$?SetArenaBasePtr@?$ImSpanAllocator@$05@@QEAAXPEAX@Z DD 05052d01H
	DD	01130316H
	DD	0700c0019H
	DD	0500bH
xdata	ENDS
;	COMDAT xdata
xdata	SEGMENT
$unwind$?GetArenaSizeInBytes@?$ImSpanAllocator@$05@@QEAAHXZ DD 05052801H
	DD	010e0311H
	DD	070070019H
	DD	05006H
xdata	ENDS
;	COMDAT xdata
xdata	SEGMENT
$unwind$?Reserve@?$ImSpanAllocator@$05@@QEAAXH_KH@Z DD 025053801H
	DD	011c2321H
	DD	07015001dH
	DD	05014H
xdata	ENDS
;	COMDAT xdata
xdata	SEGMENT
$unwind$??0?$ImSpanAllocator@$05@@QEAA@XZ DD 025052a01H
	DD	010e2313H
	DD	07007001dH
	DD	05006H
xdata	ENDS
;	COMDAT xdata
xdata	SEGMENT
$unwind$?TableFixFlags@@YAHHPEAUImGuiWindow@@@Z DD 05052b01H
	DD	01120315H
	DD	0700b001bH
	DD	0500aH
xdata	ENDS
;	COMDAT xdata
xdata	SEGMENT
$unwind$?DebugNodeTableSettings@ImGui@@YAXPEAUImGuiTableSettings@@@Z DD 055052a01H
	DD	010e5313H
	DD	070070031H
	DD	05006H
xdata	ENDS
;	COMDAT xdata
xdata	SEGMENT
$unwind$?DebugNodeTable@ImGui@@YAXPEAUImGuiTable@@@Z DD 0f51b8e19H
	DD	07cf866H
	DD	07de85eH
	DD	07ed856H
	DD	07fc84eH
	DD	080b846H
	DD	081a83eH
	DD	0829836H
	DD	083882eH
	DD	0847826H
	DD	085681fH
	DD	0110f318H
	DD	07009010dH
	DD	030076008H
	DD	05006H
	DD	imagerel __GSHandlerCheck
	DD	07b8H
xdata	ENDS
;	COMDAT CONST
CONST	SEGMENT
?DebugNodeTable@ImGui@@YAXPEAUImGuiTable@@@Z$rtcName$0 DB 062H ; ImGui::DebugNodeTable
	DB	075H
	DB	066H
	DB	00H
?DebugNodeTable@ImGui@@YAXPEAUImGuiTable@@@Z$rtcName$1 DB 072H ; ImGui::DebugNodeTable
	DB	00H
	ORG $+10
?DebugNodeTable@ImGui@@YAXPEAUImGuiTable@@@Z$rtcVarDesc DD 0498H ; ImGui::DebugNodeTable
	DD	010H
	DQ	FLAT:?DebugNodeTable@ImGui@@YAXPEAUImGuiTable@@@Z$rtcName$1
	DD	0140H
	DD	0200H
	DQ	FLAT:?DebugNodeTable@ImGui@@YAXPEAUImGuiTable@@@Z$rtcName$0
	ORG $+96
?DebugNodeTable@ImGui@@YAXPEAUImGuiTable@@@Z$rtcFrameData DD 02H ; ImGui::DebugNodeTable
	DD	00H
	DQ	FLAT:?DebugNodeTable@ImGui@@YAXPEAUImGuiTable@@@Z$rtcVarDesc
CONST	ENDS
;	COMDAT xdata
xdata	SEGMENT
$unwind$?TableSettingsFindByID@ImGui@@YAPEAUImGuiTableSettings@@I@Z DD 025052801H
	DD	010d2312H
	DD	070060025H
	DD	05005H
xdata	ENDS
;	COMDAT xdata
xdata	SEGMENT
$unwind$?TableSettingsCreate@ImGui@@YAPEAUImGuiTableSettings@@IH@Z DD 025052c01H
	DD	01112316H
	DD	0700a0025H
	DD	05009H
xdata	ENDS
;	COMDAT xdata
xdata	SEGMENT
$unwind$?TableSettingsAddSettingsHandler@ImGui@@YAXXZ DD 025052f19H
	DD	010a230fH
	DD	07003002bH
	DD	05002H
	DD	imagerel __GSHandlerCheck
	DD	0148H
xdata	ENDS
;	COMDAT CONST
CONST	SEGMENT
?TableSettingsAddSettingsHandler@ImGui@@YAXXZ$rtcName$0 DB 069H ; ImGui::TableSettingsAddSettingsHandler
	DB	06eH
	DB	069H
	DB	05fH
	DB	068H
	DB	061H
	DB	06eH
	DB	064H
	DB	06cH
	DB	065H
	DB	072H
	DB	00H
	ORG $+4
?TableSettingsAddSettingsHandler@ImGui@@YAXXZ$rtcVarDesc DD 030H ; ImGui::TableSettingsAddSettingsHandler
	DD	048H
	DQ	FLAT:?TableSettingsAddSettingsHandler@ImGui@@YAXXZ$rtcName$0
	ORG $+48
?TableSettingsAddSettingsHandler@ImGui@@YAXXZ$rtcFrameData DD 01H ; ImGui::TableSettingsAddSettingsHandler
	DD	00H
	DQ	FLAT:?TableSettingsAddSettingsHandler@ImGui@@YAXXZ$rtcVarDesc
CONST	ENDS
;	COMDAT xdata
xdata	SEGMENT
$unwind$?TableGetBoundSettings@ImGui@@YAPEAUImGuiTableSettings@@PEAUImGuiTable@@@Z DD 025052a01H
	DD	010e2313H
	DD	070070025H
	DD	05006H
xdata	ENDS
;	COMDAT xdata
xdata	SEGMENT
$unwind$?TableResetSettings@ImGui@@YAXPEAUImGuiTable@@@Z DD 05052801H
	DD	010e0311H
	DD	070070019H
	DD	05006H
xdata	ENDS
;	COMDAT xdata
xdata	SEGMENT
$unwind$?TableSaveSettings@ImGui@@YAXPEAUImGuiTable@@@Z DD 025052a01H
	DD	010e2313H
	DD	070070039H
	DD	05006H
xdata	ENDS
;	COMDAT xdata
xdata	SEGMENT
$unwind$?TableLoadSettings@ImGui@@YAXPEAUImGuiTable@@@Z DD 025052a01H
	DD	010e2313H
	DD	070070047H
	DD	05006H
xdata	ENDS
;	COMDAT xdata
xdata	SEGMENT
$unwind$?dtor$0@?0??TableGcCompactSettings@ImGui@@YAXXZ@4HA DD 031001H
	DD	0700c4210H
	DD	0500bH
xdata	ENDS
;	COMDAT xdata
xdata	SEGMENT
$ip2state$?TableGcCompactSettings@ImGui@@YAXXZ DD imagerel ?TableGcCompactSettings@ImGui@@YAXXZ
	DD	0ffffffffH
	DD	imagerel ?TableGcCompactSettings@ImGui@@YAXXZ+199
	DD	00H
	DD	imagerel ?TableGcCompactSettings@ImGui@@YAXXZ+398
	DD	0ffffffffH
xdata	ENDS
;	COMDAT xdata
xdata	SEGMENT
$stateUnwindMap$?TableGcCompactSettings@ImGui@@YAXXZ DD 0ffffffffH
	DD	imagerel ?dtor$0@?0??TableGcCompactSettings@ImGui@@YAXXZ@4HA
xdata	ENDS
;	COMDAT xdata
xdata	SEGMENT
$unwind$?TableGcCompactSettings@ImGui@@YAXXZ DD 025053a19H
	DD	010a230fH
	DD	070030039H
	DD	05002H
	DD	imagerel __GSHandlerCheck_EH
	DD	imagerel $cppxdata$?TableGcCompactSettings@ImGui@@YAXXZ
	DD	01b2H
xdata	ENDS
;	COMDAT CONST
CONST	SEGMENT
?TableGcCompactSettings@ImGui@@YAXXZ$rtcName$0 DB 06eH	; ImGui::TableGcCompactSettings
	DB	065H
	DB	077H
	DB	05fH
	DB	063H
	DB	068H
	DB	075H
	DB	06eH
	DB	06bH
	DB	05fH
	DB	073H
	DB	074H
	DB	072H
	DB	065H
	DB	061H
	DB	06dH
	DB	00H
	ORG $+15
?TableGcCompactSettings@ImGui@@YAXXZ$rtcVarDesc DD 088H	; ImGui::TableGcCompactSettings
	DD	010H
	DQ	FLAT:?TableGcCompactSettings@ImGui@@YAXXZ$rtcName$0
	ORG $+48
?TableGcCompactSettings@ImGui@@YAXXZ$rtcFrameData DD 01H ; ImGui::TableGcCompactSettings
	DD	00H
	DQ	FLAT:?TableGcCompactSettings@ImGui@@YAXXZ$rtcVarDesc
$cppxdata$?TableGcCompactSettings@ImGui@@YAXXZ DD 019930522H
	DD	01H
	DD	imagerel $stateUnwindMap$?TableGcCompactSettings@ImGui@@YAXXZ
	DD	00H
	DD	00H
	DD	03H
	DD	imagerel $ip2state$?TableGcCompactSettings@ImGui@@YAXXZ
	DD	0198H
	DD	00H
	DD	01H
CONST	ENDS
;	COMDAT xdata
xdata	SEGMENT
$unwind$?TableGcCompactTransientBuffers@ImGui@@YAXPEAUImGuiTableTempData@@@Z DD 025052a01H
	DD	010e2313H
	DD	07007001dH
	DD	05006H
xdata	ENDS
;	COMDAT xdata
xdata	SEGMENT
$unwind$?TableGcCompactTransientBuffers@ImGui@@YAXPEAUImGuiTable@@@Z DD 025052a01H
	DD	010e2313H
	DD	070070025H
	DD	05006H
xdata	ENDS
;	COMDAT xdata
xdata	SEGMENT
$unwind$?TableRemove@ImGui@@YAXPEAUImGuiTable@@@Z DD 025052a01H
	DD	010e2313H
	DD	070070025H
	DD	05006H
xdata	ENDS
;	COMDAT xdata
xdata	SEGMENT
$unwind$?TableSetColumnWidthAutoAll@ImGui@@YAXPEAUImGuiTable@@@Z DD 025052a01H
	DD	010e2313H
	DD	070070025H
	DD	05006H
xdata	ENDS
;	COMDAT xdata
xdata	SEGMENT
$unwind$?TableSetColumnWidthAutoSingle@ImGui@@YAXPEAUImGuiTable@@H@Z DD 025052e01H
	DD	01122317H
	DD	0700b0021H
	DD	0500aH
xdata	ENDS
;	COMDAT xdata
xdata	SEGMENT
$unwind$?TableGetMaxColumnWidth@ImGui@@YAMPEBUImGuiTable@@H@Z DD 035052e01H
	DD	01123317H
	DD	0700b002bH
	DD	0500aH
xdata	ENDS
;	COMDAT xdata
xdata	SEGMENT
$unwind$?TableGetColumnResizeID@ImGui@@YAIPEBUImGuiTable@@HH@Z DD 025053301H
	DD	0117231cH
	DD	070100021H
	DD	0500fH
xdata	ENDS
;	COMDAT xdata
xdata	SEGMENT
$unwind$?TableGetColumnName@ImGui@@YAPEBDPEBUImGuiTable@@H@Z DD 025052e01H
	DD	01122317H
	DD	0700b0021H
	DD	0500aH
xdata	ENDS
;	COMDAT xdata
xdata	SEGMENT
$unwind$?TableGetCellBgRect@ImGui@@YA?AUImRect@@PEBUImGuiTable@@H@Z DD 035053401H
	DD	0118331dH
	DD	07011002bH
	DD	05010H
xdata	ENDS
;	COMDAT xdata
xdata	SEGMENT
$unwind$?TableEndCell@ImGui@@YAXPEAUImGuiTable@@@Z DD 025052a01H
	DD	010e2313H
	DD	070070029H
	DD	05006H
xdata	ENDS
;	COMDAT xdata
xdata	SEGMENT
$unwind$?TableBeginCell@ImGui@@YAXPEAUImGuiTable@@H@Z DD 025052e01H
	DD	01122317H
	DD	0700b0031H
	DD	0500aH
xdata	ENDS
;	COMDAT xdata
xdata	SEGMENT
$unwind$?TableEndRow@ImGui@@YAXPEAUImGuiTable@@@Z DD 035063c19H
	DD	010f3314H
	DD	0700800aeH
	DD	050066007H
	DD	imagerel __GSHandlerCheck
	DD	0560H
xdata	ENDS
;	COMDAT CONST
CONST	SEGMENT
?TableEndRow@ImGui@@YAXPEAUImGuiTable@@@Z$rtcName$0 DB 072H ; ImGui::TableEndRow
	DB	06fH
	DB	077H
	DB	05fH
	DB	072H
	DB	065H
	DB	063H
	DB	074H
	DB	00H
	ORG $+7
?TableEndRow@ImGui@@YAXPEAUImGuiTable@@@Z$rtcName$1 DB 063H ; ImGui::TableEndRow
	DB	065H
	DB	06cH
	DB	06cH
	DB	05fH
	DB	062H
	DB	067H
	DB	05fH
	DB	072H
	DB	065H
	DB	063H
	DB	074H
	DB	00H
	ORG $+3
?TableEndRow@ImGui@@YAXPEAUImGuiTable@@@Z$rtcVarDesc DD 0268H ; ImGui::TableEndRow
	DD	010H
	DQ	FLAT:?TableEndRow@ImGui@@YAXPEAUImGuiTable@@@Z$rtcName$1
	DD	01d8H
	DD	010H
	DQ	FLAT:?TableEndRow@ImGui@@YAXPEAUImGuiTable@@@Z$rtcName$0
	ORG $+96
?TableEndRow@ImGui@@YAXPEAUImGuiTable@@@Z$rtcFrameData DD 02H ; ImGui::TableEndRow
	DD	00H
	DQ	FLAT:?TableEndRow@ImGui@@YAXPEAUImGuiTable@@@Z$rtcVarDesc
CONST	ENDS
;	COMDAT xdata
xdata	SEGMENT
$unwind$?TableBeginRow@ImGui@@YAXPEAUImGuiTable@@@Z DD 025052a01H
	DD	010e2313H
	DD	070070029H
	DD	05006H
xdata	ENDS
;	COMDAT xdata
xdata	SEGMENT
$unwind$?TableGetColumnWidthAuto@ImGui@@YAMPEAUImGuiTable@@PEAUImGuiTableColumn@@@Z DD 035052f01H
	DD	01133318H
	DD	0700c002bH
	DD	0500bH
xdata	ENDS
;	COMDAT xdata
xdata	SEGMENT
$unwind$?TableFixColumnSortDirection@ImGui@@YAXPEAUImGuiTable@@PEAUImGuiTableColumn@@@Z DD 025052f01H
	DD	01132318H
	DD	0700c001fH
	DD	0500bH
xdata	ENDS
;	COMDAT xdata
xdata	SEGMENT
$unwind$?TableGetColumnNextSortDirection@ImGui@@YAHPEAUImGuiTableColumn@@@Z DD 025052a01H
	DD	010e2313H
	DD	070070021H
	DD	05006H
xdata	ENDS
;	COMDAT xdata
xdata	SEGMENT
$unwind$?TableSortSpecsBuild@ImGui@@YAXPEAUImGuiTable@@@Z DD 025052a01H
	DD	010e2313H
	DD	070070033H
	DD	05006H
xdata	ENDS
;	COMDAT xdata
xdata	SEGMENT
$unwind$?TableSortSpecsSanitize@ImGui@@YAXPEAUImGuiTable@@@Z DD 025052a01H
	DD	010e2313H
	DD	070070053H
	DD	05006H
xdata	ENDS
;	COMDAT xdata
xdata	SEGMENT
$unwind$?TableGetInstanceData@ImGui@@YAPEAUImGuiTableInstanceData@@PEAUImGuiTable@@H@Z DD 025052e01H
	DD	01122317H
	DD	0700b001dH
	DD	0500aH
xdata	ENDS
;	COMDAT xdata
xdata	SEGMENT
$unwind$?TableMergeDrawChannels@ImGui@@YAXPEAUImGuiTable@@@Z DD 035063c19H
	DD	010f3314H
	DD	0700800fcH
	DD	050066007H
	DD	imagerel __GSHandlerCheck
	DD	07d0H
xdata	ENDS
;	COMDAT CONST
CONST	SEGMENT
?TableMergeDrawChannels@ImGui@@YAXPEAUImGuiTable@@@Z$rtcName$0 DB 06dH ; ImGui::TableMergeDrawChannels
	DB	065H
	DB	072H
	DB	067H
	DB	065H
	DB	05fH
	DB	067H
	DB	072H
	DB	06fH
	DB	075H
	DB	070H
	DB	073H
	DB	00H
	ORG $+3
?TableMergeDrawChannels@ImGui@@YAXPEAUImGuiTable@@@Z$rtcName$1 DB 068H ; ImGui::TableMergeDrawChannels
	DB	06fH
	DB	073H
	DB	074H
	DB	05fH
	DB	072H
	DB	065H
	DB	063H
	DB	074H
	DB	00H
	ORG $+6
?TableMergeDrawChannels@ImGui@@YAXPEAUImGuiTable@@@Z$rtcName$2 DB 06dH ; ImGui::TableMergeDrawChannels
	DB	065H
	DB	072H
	DB	067H
	DB	065H
	DB	05fH
	DB	063H
	DB	06cH
	DB	069H
	DB	070H
	DB	05fH
	DB	072H
	DB	065H
	DB	063H
	DB	074H
	DB	00H
?TableMergeDrawChannels@ImGui@@YAXPEAUImGuiTable@@@Z$rtcVarDesc DD 0408H ; ImGui::TableMergeDrawChannels
	DD	010H
	DQ	FLAT:?TableMergeDrawChannels@ImGui@@YAXPEAUImGuiTable@@@Z$rtcName$2
	DD	0378H
	DD	010H
	DQ	FLAT:?TableMergeDrawChannels@ImGui@@YAXPEAUImGuiTable@@@Z$rtcName$1
	DD	0e0H
	DD	080H
	DQ	FLAT:?TableMergeDrawChannels@ImGui@@YAXPEAUImGuiTable@@@Z$rtcName$0
	ORG $+144
?TableMergeDrawChannels@ImGui@@YAXPEAUImGuiTable@@@Z$rtcFrameData DD 03H ; ImGui::TableMergeDrawChannels
	DD	00H
	DQ	FLAT:?TableMergeDrawChannels@ImGui@@YAXPEAUImGuiTable@@@Z$rtcVarDesc
CONST	ENDS
;	COMDAT xdata
xdata	SEGMENT
$unwind$?TableBeginContextMenuPopup@ImGui@@YA_NPEAUImGuiTable@@@Z DD 025052a01H
	DD	010e2313H
	DD	070070021H
	DD	05006H
xdata	ENDS
;	COMDAT xdata
xdata	SEGMENT
$unwind$?TableDrawContextMenu@ImGui@@YAXPEAUImGuiTable@@@Z DD 025052a01H
	DD	010e2313H
	DD	070070049H
	DD	05006H
xdata	ENDS
;	COMDAT xdata
xdata	SEGMENT
$unwind$?TableDrawBorders@ImGui@@YAXPEAUImGuiTable@@@Z DD 045063c19H
	DD	010f4314H
	DD	0700800a8H
	DD	050066007H
	DD	imagerel __GSHandlerCheck
	DD	0530H
xdata	ENDS
;	COMDAT CONST
CONST	SEGMENT
?TableDrawBorders@ImGui@@YAXPEAUImGuiTable@@@Z$rtcName$0 DB 06fH ; ImGui::TableDrawBorders
	DB	075H
	DB	074H
	DB	065H
	DB	072H
	DB	05fH
	DB	062H
	DB	06fH
	DB	072H
	DB	064H
	DB	065H
	DB	072H
	DB	00H
	ORG $+3
?TableDrawBorders@ImGui@@YAXPEAUImGuiTable@@@Z$rtcVarDesc DD 0248H ; ImGui::TableDrawBorders
	DD	010H
	DQ	FLAT:?TableDrawBorders@ImGui@@YAXPEAUImGuiTable@@@Z$rtcName$0
	ORG $+48
?TableDrawBorders@ImGui@@YAXPEAUImGuiTable@@@Z$rtcFrameData DD 01H ; ImGui::TableDrawBorders
	DD	00H
	DQ	FLAT:?TableDrawBorders@ImGui@@YAXPEAUImGuiTable@@@Z$rtcVarDesc
CONST	ENDS
;	COMDAT xdata
xdata	SEGMENT
$unwind$?TableUpdateColumnsWeightFromWidth@ImGui@@YAXPEAUImGuiTable@@@Z DD 025052a01H
	DD	010e2313H
	DD	070070035H
	DD	05006H
xdata	ENDS
;	COMDAT xdata
xdata	SEGMENT
$unwind$?TableUpdateBorders@ImGui@@YAXPEAUImGuiTable@@@Z DD 035053b19H
	DD	010e3313H
	DD	07007005fH
	DD	05006H
	DD	imagerel __GSHandlerCheck
	DD	02e0H
xdata	ENDS
;	COMDAT CONST
CONST	SEGMENT
?TableUpdateBorders@ImGui@@YAXPEAUImGuiTable@@@Z$rtcName$0 DB 068H ; ImGui::TableUpdateBorders
	DB	069H
	DB	074H
	DB	05fH
	DB	072H
	DB	065H
	DB	063H
	DB	074H
	DB	00H
	ORG $+7
?TableUpdateBorders@ImGui@@YAXPEAUImGuiTable@@@Z$rtcName$1 DB 068H ; ImGui::TableUpdateBorders
	DB	06fH
	DB	076H
	DB	065H
	DB	072H
	DB	065H
	DB	064H
	DB	00H
?TableUpdateBorders@ImGui@@YAXPEAUImGuiTable@@@Z$rtcName$2 DB 068H ; ImGui::TableUpdateBorders
	DB	065H
	DB	06cH
	DB	064H
	DB	00H
	ORG $+3
?TableUpdateBorders@ImGui@@YAXPEAUImGuiTable@@@Z$rtcVarDesc DD 01e4H ; ImGui::TableUpdateBorders
	DD	01H
	DQ	FLAT:?TableUpdateBorders@ImGui@@YAXPEAUImGuiTable@@@Z$rtcName$2
	DD	01c4H
	DD	01H
	DQ	FLAT:?TableUpdateBorders@ImGui@@YAXPEAUImGuiTable@@@Z$rtcName$1
	DD	0198H
	DD	010H
	DQ	FLAT:?TableUpdateBorders@ImGui@@YAXPEAUImGuiTable@@@Z$rtcName$0
	ORG $+144
?TableUpdateBorders@ImGui@@YAXPEAUImGuiTable@@@Z$rtcFrameData DD 03H ; ImGui::TableUpdateBorders
	DD	00H
	DQ	FLAT:?TableUpdateBorders@ImGui@@YAXPEAUImGuiTable@@@Z$rtcVarDesc
CONST	ENDS
;	COMDAT xdata
xdata	SEGMENT
$unwind$?TableUpdateLayout@ImGui@@YAXPEAUImGuiTable@@@Z DD 035063c19H
	DD	010f3314H
	DD	07008010eH
	DD	050066007H
	DD	imagerel __GSHandlerCheck
	DD	0860H
xdata	ENDS
;	COMDAT CONST
CONST	SEGMENT
?TableUpdateLayout@ImGui@@YAXPEAUImGuiTable@@@Z$rtcName$0 DB 077H ; ImGui::TableUpdateLayout
	DB	06fH
	DB	072H
	DB	06bH
	DB	05fH
	DB	072H
	DB	065H
	DB	063H
	DB	074H
	DB	00H
	ORG $+6
?TableUpdateLayout@ImGui@@YAXPEAUImGuiTable@@@Z$rtcName$1 DB 06dH ; ImGui::TableUpdateLayout
	DB	06fH
	DB	075H
	DB	073H
	DB	065H
	DB	05fH
	DB	068H
	DB	069H
	DB	074H
	DB	05fH
	DB	072H
	DB	065H
	DB	063H
	DB	074H
	DB	00H
	ORG $+1
?TableUpdateLayout@ImGui@@YAXPEAUImGuiTable@@@Z$rtcName$2 DB 068H ; ImGui::TableUpdateLayout
	DB	06fH
	DB	073H
	DB	074H
	DB	05fH
	DB	063H
	DB	06cH
	DB	069H
	DB	070H
	DB	05fH
	DB	072H
	DB	065H
	DB	063H
	DB	074H
	DB	00H
	ORG $+1
?TableUpdateLayout@ImGui@@YAXPEAUImGuiTable@@@Z$rtcVarDesc DD 0518H ; ImGui::TableUpdateLayout
	DD	010H
	DQ	FLAT:?TableUpdateLayout@ImGui@@YAXPEAUImGuiTable@@@Z$rtcName$2
	DD	0448H
	DD	010H
	DQ	FLAT:?TableUpdateLayout@ImGui@@YAXPEAUImGuiTable@@@Z$rtcName$1
	DD	02b8H
	DD	010H
	DQ	FLAT:?TableUpdateLayout@ImGui@@YAXPEAUImGuiTable@@@Z$rtcName$0
	ORG $+144
?TableUpdateLayout@ImGui@@YAXPEAUImGuiTable@@@Z$rtcFrameData DD 03H ; ImGui::TableUpdateLayout
	DD	00H
	DQ	FLAT:?TableUpdateLayout@ImGui@@YAXPEAUImGuiTable@@@Z$rtcVarDesc
CONST	ENDS
;	COMDAT xdata
xdata	SEGMENT
$unwind$?TableSetupDrawChannels@ImGui@@YAXPEAUImGuiTable@@@Z DD 025062b01H
	DD	010f2314H
	DD	07008003cH
	DD	050066007H
xdata	ENDS
;	COMDAT xdata
xdata	SEGMENT
$unwind$?TableBeginApplyRequests@ImGui@@YAXPEAUImGuiTable@@@Z DD 025052a01H
	DD	010e2313H
	DD	07007003dH
	DD	05006H
xdata	ENDS
;	COMDAT xdata
xdata	SEGMENT
$unwind$?TableBeginInitMemory@ImGui@@YAXPEAUImGuiTable@@H@Z DD 025053f19H
	DD	01122317H
	DD	0700b0031H
	DD	0500aH
	DD	imagerel __GSHandlerCheck
	DD	0178H
xdata	ENDS
;	COMDAT CONST
CONST	SEGMENT
?TableBeginInitMemory@ImGui@@YAXPEAUImGuiTable@@H@Z$rtcName$0 DB 073H ; ImGui::TableBeginInitMemory
	DB	070H
	DB	061H
	DB	06eH
	DB	05fH
	DB	061H
	DB	06cH
	DB	06cH
	DB	06fH
	DB	063H
	DB	061H
	DB	074H
	DB	06fH
	DB	072H
	DB	00H
	ORG $+1
?TableBeginInitMemory@ImGui@@YAXPEAUImGuiTable@@H@Z$rtcVarDesc DD 050H ; ImGui::TableBeginInitMemory
	DD	040H
	DQ	FLAT:?TableBeginInitMemory@ImGui@@YAXPEAUImGuiTable@@H@Z$rtcName$0
	ORG $+48
?TableBeginInitMemory@ImGui@@YAXPEAUImGuiTable@@H@Z$rtcFrameData DD 01H ; ImGui::TableBeginInitMemory
	DD	00H
	DQ	FLAT:?TableBeginInitMemory@ImGui@@YAXPEAUImGuiTable@@H@Z$rtcVarDesc
CONST	ENDS
;	COMDAT xdata
xdata	SEGMENT
$unwind$?dtor$0@?0??BeginTableEx@ImGui@@YA_NPEBDIHHAEBUImVec2@@M@Z@4HA DD 031001H
	DD	0700c4210H
	DD	0500bH
xdata	ENDS
;	COMDAT xdata
xdata	SEGMENT
$ip2state$?BeginTableEx@ImGui@@YA_NPEBDIHHAEBUImVec2@@M@Z DD imagerel ?BeginTableEx@ImGui@@YA_NPEBDIHHAEBUImVec2@@M@Z
	DD	0ffffffffH
	DD	imagerel ?BeginTableEx@ImGui@@YA_NPEBDIHHAEBUImVec2@@M@Z+836
	DD	00H
	DD	imagerel ?BeginTableEx@ImGui@@YA_NPEBDIHHAEBUImVec2@@M@Z+872
	DD	0ffffffffH
xdata	ENDS
;	COMDAT xdata
xdata	SEGMENT
$stateUnwindMap$?BeginTableEx@ImGui@@YA_NPEBDIHHAEBUImVec2@@M@Z DD 0ffffffffH
	DD	imagerel ?dtor$0@?0??BeginTableEx@ImGui@@YA_NPEBDIHHAEBUImVec2@@M@Z@4HA
xdata	ENDS
;	COMDAT xdata
xdata	SEGMENT
$unwind$?BeginTableEx@ImGui@@YA_NPEBDIHHAEBUImVec2@@M@Z DD 035065519H
	DD	011d3322H
	DD	070160134H
	DD	050146015H
	DD	imagerel __GSHandlerCheck_EH
	DD	imagerel $cppxdata$?BeginTableEx@ImGui@@YA_NPEBDIHHAEBUImVec2@@M@Z
	DD	099aH
xdata	ENDS
;	COMDAT CONST
CONST	SEGMENT
?BeginTableEx@ImGui@@YA_NPEBDIHHAEBUImVec2@@M@Z$rtcName$0 DB 061H ; ImGui::BeginTableEx
	DB	076H
	DB	061H
	DB	069H
	DB	06cH
	DB	05fH
	DB	073H
	DB	069H
	DB	07aH
	DB	065H
	DB	00H
	ORG $+5
?BeginTableEx@ImGui@@YA_NPEBDIHHAEBUImVec2@@M@Z$rtcName$1 DB 061H ; ImGui::BeginTableEx
	DB	063H
	DB	074H
	DB	075H
	DB	061H
	DB	06cH
	DB	05fH
	DB	06fH
	DB	075H
	DB	074H
	DB	065H
	DB	072H
	DB	05fH
	DB	073H
	DB	069H
	DB	07aH
	DB	065H
	DB	00H
	ORG $+6
?BeginTableEx@ImGui@@YA_NPEBDIHHAEBUImVec2@@M@Z$rtcName$2 DB 06fH ; ImGui::BeginTableEx
	DB	075H
	DB	074H
	DB	065H
	DB	072H
	DB	05fH
	DB	072H
	DB	065H
	DB	063H
	DB	074H
	DB	00H
	ORG $+5
?BeginTableEx@ImGui@@YA_NPEBDIHHAEBUImVec2@@M@Z$rtcName$3 DB 06fH ; ImGui::BeginTableEx
	DB	076H
	DB	065H
	DB	072H
	DB	072H
	DB	069H
	DB	064H
	DB	065H
	DB	05fH
	DB	063H
	DB	06fH
	DB	06eH
	DB	074H
	DB	065H
	DB	06eH
	DB	074H
	DB	05fH
	DB	073H
	DB	069H
	DB	07aH
	DB	065H
	DB	00H
	ORG $+2
?BeginTableEx@ImGui@@YA_NPEBDIHHAEBUImVec2@@M@Z$rtcVarDesc DD 01c8H ; ImGui::BeginTableEx
	DD	08H
	DQ	FLAT:?BeginTableEx@ImGui@@YA_NPEBDIHHAEBUImVec2@@M@Z$rtcName$3
	DD	0d8H
	DD	010H
	DQ	FLAT:?BeginTableEx@ImGui@@YA_NPEBDIHHAEBUImVec2@@M@Z$rtcName$2
	DD	0b8H
	DD	08H
	DQ	FLAT:?BeginTableEx@ImGui@@YA_NPEBDIHHAEBUImVec2@@M@Z$rtcName$1
	DD	098H
	DD	08H
	DQ	FLAT:?BeginTableEx@ImGui@@YA_NPEBDIHHAEBUImVec2@@M@Z$rtcName$0
	ORG $+192
?BeginTableEx@ImGui@@YA_NPEBDIHHAEBUImVec2@@M@Z$rtcFrameData DD 04H ; ImGui::BeginTableEx
	DD	00H
	DQ	FLAT:?BeginTableEx@ImGui@@YA_NPEBDIHHAEBUImVec2@@M@Z$rtcVarDesc
$cppxdata$?BeginTableEx@ImGui@@YA_NPEBDIHHAEBUImVec2@@M@Z DD 019930522H
	DD	01H
	DD	imagerel $stateUnwindMap$?BeginTableEx@ImGui@@YA_NPEBDIHHAEBUImVec2@@M@Z
	DD	00H
	DD	00H
	DD	03H
	DD	imagerel $ip2state$?BeginTableEx@ImGui@@YA_NPEBDIHHAEBUImVec2@@M@Z
	DD	0978H
	DD	00H
	DD	01H
CONST	ENDS
;	COMDAT xdata
xdata	SEGMENT
$unwind$?TableFindByID@ImGui@@YAPEAUImGuiTable@@I@Z DD 025052801H
	DD	010d2312H
	DD	070060021H
	DD	05005H
xdata	ENDS
;	COMDAT xdata
xdata	SEGMENT
$unwind$?TablePopBackgroundChannel@ImGui@@YAXXZ DD 025051e01H
	DD	010a230fH
	DD	07003002dH
	DD	05002H
xdata	ENDS
;	COMDAT xdata
xdata	SEGMENT
$unwind$?TablePushBackgroundChannel@ImGui@@YAXXZ DD 025061f01H
	DD	010b2310H
	DD	070040028H
	DD	050026003H
xdata	ENDS
;	COMDAT xdata
xdata	SEGMENT
$unwind$?TableGetHeaderRowHeight@ImGui@@YAMXZ DD 045051e01H
	DD	010a430fH
	DD	070030035H
	DD	05002H
xdata	ENDS
;	COMDAT xdata
xdata	SEGMENT
$unwind$?TableGetHoveredColumn@ImGui@@YAHXZ DD 05051c01H
	DD	010a030dH
	DD	070030021H
	DD	05002H
xdata	ENDS
;	COMDAT xdata
xdata	SEGMENT
$unwind$?TableSetColumnSortDirection@ImGui@@YAXHH_N@Z DD 025053101H
	DD	0116231bH
	DD	0700f0039H
	DD	0500eH
xdata	ENDS
;	COMDAT xdata
xdata	SEGMENT
$unwind$?TableSetColumnWidth@ImGui@@YAXHM@Z DD 025052e01H
	DD	01132318H
	DD	0700c003dH
	DD	0500bH
xdata	ENDS
;	COMDAT xdata
xdata	SEGMENT
$unwind$?TableOpenContextMenu@ImGui@@YAXH@Z DD 025052801H
	DD	010d2312H
	DD	070060029H
	DD	05005H
xdata	ENDS
;	COMDAT xdata
xdata	SEGMENT
$unwind$?GetColumnNormFromOffset@ImGui@@YAMPEBUImGuiOldColumns@@M@Z DD 015053001H
	DD	01141319H
	DD	0700d001bH
	DD	0500cH
xdata	ENDS
;	COMDAT xdata
xdata	SEGMENT
$unwind$?GetColumnOffsetFromNorm@ImGui@@YAMPEBUImGuiOldColumns@@M@Z DD 015053001H
	DD	01141319H
	DD	0700d001bH
	DD	0500cH
xdata	ENDS
;	COMDAT xdata
xdata	SEGMENT
$unwind$?dtor$0@?0??FindOrCreateColumns@ImGui@@YAPEAUImGuiOldColumns@@PEAUImGuiWindow@@I@Z@4HA DD 031001H
	DD	0700c4210H
	DD	0500bH
xdata	ENDS
;	COMDAT xdata
xdata	SEGMENT
$ip2state$?FindOrCreateColumns@ImGui@@YAPEAUImGuiOldColumns@@PEAUImGuiWindow@@I@Z DD imagerel ?FindOrCreateColumns@ImGui@@YAPEAUImGuiOldColumns@@PEAUImGuiWindow@@I@Z
	DD	0ffffffffH
	DD	imagerel ?FindOrCreateColumns@ImGui@@YAPEAUImGuiOldColumns@@PEAUImGuiWindow@@I@Z+187
	DD	00H
	DD	imagerel ?FindOrCreateColumns@ImGui@@YAPEAUImGuiOldColumns@@PEAUImGuiWindow@@I@Z+216
	DD	0ffffffffH
xdata	ENDS
;	COMDAT xdata
xdata	SEGMENT
$stateUnwindMap$?FindOrCreateColumns@ImGui@@YAPEAUImGuiOldColumns@@PEAUImGuiWindow@@I@Z DD 0ffffffffH
	DD	imagerel ?dtor$0@?0??FindOrCreateColumns@ImGui@@YAPEAUImGuiOldColumns@@PEAUImGuiWindow@@I@Z@4HA
xdata	ENDS
;	COMDAT CONST
CONST	SEGMENT
$cppxdata$?FindOrCreateColumns@ImGui@@YAPEAUImGuiOldColumns@@PEAUImGuiWindow@@I@Z DD 019930522H
	DD	01H
	DD	imagerel $stateUnwindMap$?FindOrCreateColumns@ImGui@@YAPEAUImGuiOldColumns@@PEAUImGuiWindow@@I@Z
	DD	00H
	DD	00H
	DD	03H
	DD	imagerel $ip2state$?FindOrCreateColumns@ImGui@@YAPEAUImGuiOldColumns@@PEAUImGuiWindow@@I@Z
	DD	01c8H
	DD	00H
	DD	01H
CONST	ENDS
;	COMDAT xdata
xdata	SEGMENT
$unwind$?FindOrCreateColumns@ImGui@@YAPEAUImGuiOldColumns@@PEAUImGuiWindow@@I@Z DD 025053911H
	DD	01122317H
	DD	0700b003fH
	DD	0500aH
	DD	imagerel __CxxFrameHandler3
	DD	imagerel $cppxdata$?FindOrCreateColumns@ImGui@@YAPEAUImGuiOldColumns@@PEAUImGuiWindow@@I@Z
xdata	ENDS
;	COMDAT xdata
xdata	SEGMENT
$unwind$?GetColumnsID@ImGui@@YAIPEBDH@Z DD 025052e01H
	DD	01122317H
	DD	0700b0025H
	DD	0500aH
xdata	ENDS
;	COMDAT xdata
xdata	SEGMENT
$unwind$?PopColumnsBackground@ImGui@@YAXXZ DD 025051e01H
	DD	010a230fH
	DD	070030025H
	DD	05002H
xdata	ENDS
;	COMDAT xdata
xdata	SEGMENT
$unwind$?PushColumnsBackground@ImGui@@YAXXZ DD 025061f01H
	DD	010b2310H
	DD	070040024H
	DD	050026003H
xdata	ENDS
;	COMDAT xdata
xdata	SEGMENT
$unwind$?PushColumnClipRect@ImGui@@YAXH@Z DD 025052801H
	DD	010d2312H
	DD	070060029H
	DD	05005H
xdata	ENDS
;	COMDAT xdata
xdata	SEGMENT
$unwind$?EndColumns@ImGui@@YAXXZ DD 035063019H
	DD	010b3310H
	DD	07004009aH
	DD	050026003H
	DD	imagerel __GSHandlerCheck
	DD	04c0H
xdata	ENDS
;	COMDAT CONST
CONST	SEGMENT
?EndColumns@ImGui@@YAXXZ$rtcName$0 DB 063H		; ImGui::EndColumns
	DB	06fH
	DB	06cH
	DB	075H
	DB	06dH
	DB	06eH
	DB	05fH
	DB	068H
	DB	069H
	DB	074H
	DB	05fH
	DB	072H
	DB	065H
	DB	063H
	DB	074H
	DB	00H
?EndColumns@ImGui@@YAXXZ$rtcName$1 DB 068H		; ImGui::EndColumns
	DB	06fH
	DB	076H
	DB	065H
	DB	072H
	DB	065H
	DB	064H
	DB	00H
?EndColumns@ImGui@@YAXXZ$rtcName$2 DB 068H		; ImGui::EndColumns
	DB	065H
	DB	06cH
	DB	064H
	DB	00H
	ORG $+3
?EndColumns@ImGui@@YAXXZ$rtcVarDesc DD 0224H		; ImGui::EndColumns
	DD	01H
	DQ	FLAT:?EndColumns@ImGui@@YAXXZ$rtcName$2
	DD	0204H
	DD	01H
	DQ	FLAT:?EndColumns@ImGui@@YAXXZ$rtcName$1
	DD	01d8H
	DD	010H
	DQ	FLAT:?EndColumns@ImGui@@YAXXZ$rtcName$0
	ORG $+144
?EndColumns@ImGui@@YAXXZ$rtcFrameData DD 03H		; ImGui::EndColumns
	DD	00H
	DQ	FLAT:?EndColumns@ImGui@@YAXXZ$rtcVarDesc
CONST	ENDS
;	COMDAT xdata
xdata	SEGMENT
$unwind$?BeginColumns@ImGui@@YAXPEBDHH@Z DD 035064519H
	DD	0118331dH
	DD	070110086H
	DD	0500f6010H
	DD	imagerel __GSHandlerCheck
	DD	0420H
xdata	ENDS
;	COMDAT CONST
CONST	SEGMENT
?BeginColumns@ImGui@@YAXPEBDHH@Z$rtcName$0 DB 063H	; ImGui::BeginColumns
	DB	06fH
	DB	06cH
	DB	075H
	DB	06dH
	DB	06eH
	DB	00H
	ORG $+9
?BeginColumns@ImGui@@YAXPEBDHH@Z$rtcVarDesc DD 0158H	; ImGui::BeginColumns
	DD	01cH
	DQ	FLAT:?BeginColumns@ImGui@@YAXPEBDHH@Z$rtcName$0
	ORG $+48
?BeginColumns@ImGui@@YAXPEBDHH@Z$rtcFrameData DD 01H	; ImGui::BeginColumns
	DD	00H
	DQ	FLAT:?BeginColumns@ImGui@@YAXPEBDHH@Z$rtcVarDesc
CONST	ENDS
;	COMDAT xdata
xdata	SEGMENT
$unwind$?SetWindowClipRectBeforeSetChannel@ImGui@@YAXPEAUImGuiWindow@@AEBUImRect@@@Z DD 025064119H
	DD	01142319H
	DD	0700d0022H
	DD	0500b600cH
	DD	imagerel __GSHandlerCheck
	DD	0108H
xdata	ENDS
;	COMDAT CONST
CONST	SEGMENT
?SetWindowClipRectBeforeSetChannel@ImGui@@YAXPEAUImGuiWindow@@AEBUImRect@@@Z$rtcName$0 DB 063H ; ImGui::SetWindowClipRectBeforeSetChannel
	DB	06cH
	DB	069H
	DB	070H
	DB	05fH
	DB	072H
	DB	065H
	DB	063H
	DB	074H
	DB	05fH
	DB	076H
	DB	065H
	DB	063H
	DB	034H
	DB	00H
	ORG $+1
?SetWindowClipRectBeforeSetChannel@ImGui@@YAXPEAUImGuiWindow@@AEBUImRect@@@Z$rtcVarDesc DD 028H ; ImGui::SetWindowClipRectBeforeSetChannel
	DD	010H
	DQ	FLAT:?SetWindowClipRectBeforeSetChannel@ImGui@@YAXPEAUImGuiWindow@@AEBUImRect@@@Z$rtcName$0
	ORG $+48
?SetWindowClipRectBeforeSetChannel@ImGui@@YAXPEAUImGuiWindow@@AEBUImRect@@@Z$rtcFrameData DD 01H ; ImGui::SetWindowClipRectBeforeSetChannel
	DD	00H
	DQ	FLAT:?SetWindowClipRectBeforeSetChannel@ImGui@@YAXPEAUImGuiWindow@@AEBUImRect@@@Z$rtcVarDesc
CONST	ENDS
;	COMDAT xdata
xdata	SEGMENT
$unwind$?ItemSize@ImGui@@YAXAEBUImRect@@M@Z DD 025053001H
	DD	01142319H
	DD	0700d0021H
	DD	0500cH
xdata	ENDS
;	COMDAT xdata
xdata	SEGMENT
$unwind$?LocalizeGetMsg@ImGui@@YAPEBDW4ImGuiLocKey@@@Z DD 05052601H
	DD	010d0310H
	DD	070060021H
	DD	05005H
xdata	ENDS
;	COMDAT xdata
xdata	SEGMENT
$unwind$?GetCurrentWindow@ImGui@@YAPEAUImGuiWindow@@XZ DD 05051c01H
	DD	010a030dH
	DD	07003001dH
	DD	05002H
xdata	ENDS
;	COMDAT xdata
xdata	SEGMENT
$unwind$?GetCurrentWindowRead@ImGui@@YAPEAUImGuiWindow@@XZ DD 05051c01H
	DD	010a030dH
	DD	07003001dH
	DD	05002H
xdata	ENDS
;	COMDAT xdata
xdata	SEGMENT
$unwind$?GetColumnSettings@ImGuiTableSettings@@QEAAPEAUImGuiTableColumnSettings@@XZ DD 05052801H
	DD	010e0311H
	DD	070070019H
	DD	05006H
xdata	ENDS
;	COMDAT xdata
xdata	SEGMENT
$unwind$??0ImGuiTableSettings@@QEAA@XZ DD 025052a01H
	DD	010e2313H
	DD	07007001dH
	DD	05006H
xdata	ENDS
;	COMDAT xdata
xdata	SEGMENT
$unwind$??0ImGuiTableColumnSettings@@QEAA@XZ DD 05052801H
	DD	010e0311H
	DD	070070019H
	DD	05006H
xdata	ENDS
;	COMDAT xdata
xdata	SEGMENT
$unwind$??1ImGuiTableTempData@@QEAA@XZ DD 025052a01H
	DD	010e2313H
	DD	07007001dH
	DD	05006H
xdata	ENDS
;	COMDAT xdata
xdata	SEGMENT
$unwind$?dtor$0@?0???0ImGuiTableTempData@@QEAA@XZ@4HA DD 031001H
	DD	0700c4210H
	DD	0500bH
xdata	ENDS
;	COMDAT xdata
xdata	SEGMENT
$ip2state$??0ImGuiTableTempData@@QEAA@XZ DD imagerel ??0ImGuiTableTempData@@QEAA@XZ
	DD	0ffffffffH
	DD	imagerel ??0ImGuiTableTempData@@QEAA@XZ+92
	DD	00H
	DD	imagerel ??0ImGuiTableTempData@@QEAA@XZ+246
	DD	0ffffffffH
xdata	ENDS
;	COMDAT xdata
xdata	SEGMENT
