; Listing generated by Microsoft (R) Optimizing Compiler Version 19.00.24245.0 

include listing.inc

INCLUDELIB MSVCRTD
INCLUDELIB OLDNAMES

PUBLIC	??_C@_04BAJDEDPD@Root?$AA@			; `string'
PUBLIC	??_C@_06HHJDFOK@Folder?$AA@			; `string'
PUBLIC	??_C@_05LMJFOPOI@Music?$AA@			; `string'
PUBLIC	??_C@_08FLHNKADJ@Textures?$AA@			; `string'
PUBLIC	??_C@_0M@NNNKMEPA@desktop?4ini?$AA@		; `string'
PUBLIC	??_C@_0M@IGEMGAFG@System?5file?$AA@		; `string'
PUBLIC	??_C@_0M@EKPJMDEN@File1_a?4wav?$AA@		; `string'
PUBLIC	??_C@_0L@COLMADCA@Audio?5file?$AA@		; `string'
PUBLIC	??_C@_0M@MMGNLBOD@File1_b?4wav?$AA@		; `string'
PUBLIC	??_C@_0N@FHEINFFG@Image001?4png?$AA@		; `string'
PUBLIC	??_C@_0L@FLGLCLEK@Image?5file?$AA@		; `string'
PUBLIC	??_C@_0BF@LIFBAFGM@Copy?5of?5Image001?4png?$AA@	; `string'
PUBLIC	??_C@_0BO@DEMDOGLF@Copy?5of?5Image001?5?$CIFinal2?$CJ?4png?$AA@ ; `string'
PUBLIC	??_C@_0L@KKHKDDPE@Grapefruit?$AA@		; `string'
PUBLIC	??_C@_09HNADIOOI@Blueberry?$AA@			; `string'
PUBLIC	??_C@_04PCFHDAMD@Plum?$AA@			; `string'
PUBLIC	??_C@_07BHKDNCIF@Coconut?$AA@			; `string'
PUBLIC	??_C@_04FJCKHKHL@Pear?$AA@			; `string'
PUBLIC	??_C@_07GAABODDK@Apricot?$AA@			; `string'
PUBLIC	?GImGuiDemoMarkerCallback@@3P6AXPEBDH0PEAX@ZEA	; GImGuiDemoMarkerCallback
PUBLIC	?GImGuiDemoMarkerCallbackUserData@@3PEAXEA	; GImGuiDemoMarkerCallbackUserData
PUBLIC	?s_current_sort_specs@MyItem@?A0x1ed25892@@2PEBUImGuiTableSortSpecs@@EB ; `anonymous namespace'::MyItem::s_current_sort_specs
PUBLIC	??_C@_07MCAEODGB@Default?$AA@			; `string'
PUBLIC	??_C@_0LF@IILMEFCL@Use?5default?5sizing?5policy?3?6?9?5ImG@ ; `string'
PUBLIC	??_C@_0BP@MPLHLLNP@ImGuiTableFlags_SizingFixedFit?$AA@ ; `string'
PUBLIC	??_C@_0GJ@LHMCJKNJ@Columns?5default?5to?5_WidthFixed?5?$CI@ ; `string'
PUBLIC	??_C@_0CA@HAGKEPPO@ImGuiTableFlags_SizingFixedSame?$AA@ ; `string'
PUBLIC	??_C@_0KD@KKOOHGIJ@Columns?5are?5all?5the?5same?5width?0?5@ ; `string'
PUBLIC	??_C@_0CC@IBLLEAPK@ImGuiTableFlags_SizingStretchPro@ ; `string'
PUBLIC	??_C@_0EM@EAECLPPK@Columns?5default?5to?5_WidthStretch@ ; `string'
PUBLIC	??_C@_0CC@LAIGPACB@ImGuiTableFlags_SizingStretchSam@ ; `string'
PUBLIC	??_C@_0DE@LNEEFNDM@Columns?5default?5to?5_WidthStretch@ ; `string'
PUBLIC	??_C@_05DDEOPHNO@Bobby?$AA@			; `string'
PUBLIC	??_C@_08FLMMIHDE@Beatrice?$AA@			; `string'
PUBLIC	??_C@_05BECHDIPO@Betty?$AA@			; `string'
PUBLIC	??_C@_07OEGNBIJH@Brianna?$AA@			; `string'
PUBLIC	??_C@_05MAEBLNFA@Barry?$AA@			; `string'
PUBLIC	??_C@_07JNHNGBFJ@Bernard?$AA@			; `string'
PUBLIC	??_C@_04KCKMHEOC@Bibi?$AA@			; `string'
PUBLIC	??_C@_06HGIOBEEM@Blaine?$AA@			; `string'
PUBLIC	??_C@_04HKIGHOCK@Bryn?$AA@			; `string'
PUBLIC	??_C@_08HGEMKAAG@Item?5One?$AA@			; `string'
PUBLIC	??_C@_08BIEMAAON@Item?5Two?$AA@			; `string'
PUBLIC	??_C@_0L@PNIFIMNF@Item?5Three?$AA@		; `string'
PUBLIC	??_C@_09FNJGFEIF@Item?5Four?$AA@		; `string'
PUBLIC	??_C@_09HPDIDBJG@Item?5Five?$AA@		; `string'
PUBLIC	??_C@_05EBJDGKGA@Apple?$AA@			; `string'
PUBLIC	??_C@_06OJJIHNKI@Banana?$AA@			; `string'
PUBLIC	??_C@_06MKLLCMPJ@Cherry?$AA@			; `string'
PUBLIC	??_C@_04LFFBHHAI@Kiwi?$AA@			; `string'
PUBLIC	??_C@_05CNKNDDOO@Mango?$AA@			; `string'
PUBLIC	??_C@_06LMIDBFFB@Orange?$AA@			; `string'
PUBLIC	??_C@_09EBEMMGPP@Pineapple?$AA@			; `string'
PUBLIC	??_C@_0L@BNANDFPN@Strawberry?$AA@		; `string'
PUBLIC	??_C@_0L@JJNGHCMI@Watermelon?$AA@		; `string'
_BSS	SEGMENT
?buf1@?BLJ@??ShowDemoWindowWidgets@@YAXXZ@4PADA DB 040H DUP (?) ; `ShowDemoWindowWidgets'::`441'::buf1
?buf2@?BLJ@??ShowDemoWindowWidgets@@YAXXZ@4PADA DB 040H DUP (?) ; `ShowDemoWindowWidgets'::`441'::buf2
?buf3@?BLJ@??ShowDemoWindowWidgets@@YAXXZ@4PADA DB 040H DUP (?) ; `ShowDemoWindowWidgets'::`441'::buf3
?buf4@?BLJ@??ShowDemoWindowWidgets@@YAXXZ@4PADA DB 040H DUP (?) ; `ShowDemoWindowWidgets'::`441'::buf4
?buf5@?BLJ@??ShowDemoWindowWidgets@@YAXXZ@4PADA DB 040H DUP (?) ; `ShowDemoWindowWidgets'::`441'::buf5
?buf6@?BLJ@??ShowDemoWindowWidgets@@YAXXZ@4PADA DB 040H DUP (?) ; `ShowDemoWindowWidgets'::`441'::buf6
?edit_count@?BMD@??ShowDemoWindowWidgets@@YAXXZ@4HA DD 01H DUP (?) ; `ShowDemoWindowWidgets'::`451'::edit_count
?f3@?EI@??ShowDemoWindowInputs@@YAXXZ@4PAMA DD 03H DUP (?) ; `ShowDemoWindowInputs'::`72'::f3
?dummy_f@?BJM@??ShowDemoWindowTables@@YAXXZ@4MA DD 01H DUP (?) ; `ShowDemoWindowTables'::`412'::dummy_f
?column_selected@?BKL@??ShowDemoWindowTables@@YAXXZ@4PA_NA DB 03H DUP (?) ; `ShowDemoWindowTables'::`427'::column_selected
	ALIGN	4

?next_tab_id@?CAI@??ShowDemoWindowWidgets@@YAXXZ@4HA DD 01H DUP (?) ; `ShowDemoWindowWidgets'::`520'::next_tab_id
?counter@?8??ShowExampleAppLog@@YAXPEA_N@Z@4HA DD 01H DUP (?) ; `ShowExampleAppLog'::`9'::counter
?show_config_info@?1??ShowAboutWindow@ImGui@@YAXPEA_N@Z@4_NA DB 01H DUP (?) ; `ImGui::ShowAboutWindow'::`2'::show_config_info
	ALIGN	4

?values@?CCM@??ShowDemoWindowWidgets@@YAXXZ@4PAMA DD 05aH DUP (?) ; `ShowDemoWindowWidgets'::`556'::values
?values_offset@?CCM@??ShowDemoWindowWidgets@@YAXXZ@4HA DD 01H DUP (?) ; `ShowDemoWindowWidgets'::`556'::values_offset
?refresh_time@?CCM@??ShowDemoWindowWidgets@@YAXXZ@4NA DQ 01H DUP (?) ; `ShowDemoWindowWidgets'::`556'::refresh_time
?selected@?4??ShowExampleAppLayout@@YAXPEA_N@Z@4HA DD 01H DUP (?) ; `ShowExampleAppLayout'::`5'::selected
?phase@?CDE@??ShowDemoWindowWidgets@@YAXXZ@4MA DD 01H DUP (?) ; `ShowDemoWindowWidgets'::`564'::phase
?GImGuiDemoMarkerCallback@@3P6AXPEBDH0PEAX@ZEA DQ 01H DUP (?) ; GImGuiDemoMarkerCallback
?GImGuiDemoMarkerCallbackUserData@@3PEAXEA DQ 01H DUP (?) ; GImGuiDemoMarkerCallbackUserData
?show_app_main_menu_bar@?1??ShowDemoWindow@ImGui@@YAXPEA_N@Z@4_NA DB 01H DUP (?) ; `ImGui::ShowDemoWindow'::`2'::show_app_main_menu_bar
	ALIGN	4

?show_app_documents@?1??ShowDemoWindow@ImGui@@YAXPEA_N@Z@4_NA DB 01H DUP (?) ; `ImGui::ShowDemoWindow'::`2'::show_app_documents
	ALIGN	4

?show_app_console@?1??ShowDemoWindow@ImGui@@YAXPEA_N@Z@4_NA DB 01H DUP (?) ; `ImGui::ShowDemoWindow'::`2'::show_app_console
	ALIGN	4

?show_app_log@?1??ShowDemoWindow@ImGui@@YAXPEA_N@Z@4_NA DB 01H DUP (?) ; `ImGui::ShowDemoWindow'::`2'::show_app_log
	ALIGN	4

?show_app_layout@?1??ShowDemoWindow@ImGui@@YAXPEA_N@Z@4_NA DB 01H DUP (?) ; `ImGui::ShowDemoWindow'::`2'::show_app_layout
	ALIGN	4

?show_app_property_editor@?1??ShowDemoWindow@ImGui@@YAXPEA_N@Z@4_NA DB 01H DUP (?) ; `ImGui::ShowDemoWindow'::`2'::show_app_property_editor
	ALIGN	4

?show_app_long_text@?1??ShowDemoWindow@ImGui@@YAXPEA_N@Z@4_NA DB 01H DUP (?) ; `ImGui::ShowDemoWindow'::`2'::show_app_long_text
	ALIGN	4

?show_app_auto_resize@?1??ShowDemoWindow@ImGui@@YAXPEA_N@Z@4_NA DB 01H DUP (?) ; `ImGui::ShowDemoWindow'::`2'::show_app_auto_resize
	ALIGN	4

?show_app_constrained_resize@?1??ShowDemoWindow@ImGui@@YAXPEA_N@Z@4_NA DB 01H DUP (?) ; `ImGui::ShowDemoWindow'::`2'::show_app_constrained_resize
	ALIGN	4

?show_app_simple_overlay@?1??ShowDemoWindow@ImGui@@YAXPEA_N@Z@4_NA DB 01H DUP (?) ; `ImGui::ShowDemoWindow'::`2'::show_app_simple_overlay
	ALIGN	4

?show_app_fullscreen@?1??ShowDemoWindow@ImGui@@YAXPEA_N@Z@4_NA DB 01H DUP (?) ; `ImGui::ShowDemoWindow'::`2'::show_app_fullscreen
	ALIGN	4

?show_app_window_titles@?1??ShowDemoWindow@ImGui@@YAXPEA_N@Z@4_NA DB 01H DUP (?) ; `ImGui::ShowDemoWindow'::`2'::show_app_window_titles
	ALIGN	4

?show_app_custom_rendering@?1??ShowDemoWindow@ImGui@@YAXPEA_N@Z@4_NA DB 01H DUP (?) ; `ImGui::ShowDemoWindow'::`2'::show_app_custom_rendering
	ALIGN	4

?show_app_metrics@?1??ShowDemoWindow@ImGui@@YAXPEA_N@Z@4_NA DB 01H DUP (?) ; `ImGui::ShowDemoWindow'::`2'::show_app_metrics
	ALIGN	4

?row_min_height@?CAP@??ShowDemoWindowTables@@YAXXZ@4MA DD 01H DUP (?) ; `ShowDemoWindowTables'::`527'::row_min_height
?func_type@?CCM@??ShowDemoWindowWidgets@@YAXXZ@4HA DD 01H DUP (?) ; `ShowDemoWindowWidgets'::`556'::func_type
?show_app_debug_log@?1??ShowDemoWindow@ImGui@@YAXPEA_N@Z@4_NA DB 01H DUP (?) ; `ImGui::ShowDemoWindow'::`2'::show_app_debug_log
	ALIGN	4

?inner_width_with_scroll@?CAP@??ShowDemoWindowTables@@YAXXZ@4MA DD 01H DUP (?) ; `ShowDemoWindowTables'::`527'::inner_width_with_scroll
?show_app_stack_tool@?1??ShowDemoWindow@ImGui@@YAXPEA_N@Z@4_NA DB 01H DUP (?) ; `ImGui::ShowDemoWindow'::`2'::show_app_stack_tool
	ALIGN	4

?show_app_about@?1??ShowDemoWindow@ImGui@@YAXPEA_N@Z@4_NA DB 01H DUP (?) ; `ImGui::ShowDemoWindow'::`2'::show_app_about
	ALIGN	4

?show_wrapped_text@?CAP@??ShowDemoWindowTables@@YAXXZ@4_NA DB 01H DUP (?) ; `ShowDemoWindowTables'::`527'::show_wrapped_text
	ALIGN	4

?show_app_style_editor@?1??ShowDemoWindow@ImGui@@YAXPEA_N@Z@4_NA DB 01H DUP (?) ; `ImGui::ShowDemoWindow'::`2'::show_app_style_editor
	ALIGN	4

?no_titlebar@?1??ShowDemoWindow@ImGui@@YAXPEA_N@Z@4_NA DB 01H DUP (?) ; `ImGui::ShowDemoWindow'::`2'::no_titlebar
	ALIGN	4

?no_scrollbar@?1??ShowDemoWindow@ImGui@@YAXPEA_N@Z@4_NA DB 01H DUP (?) ; `ImGui::ShowDemoWindow'::`2'::no_scrollbar
	ALIGN	4

?progress@?CCM@??ShowDemoWindowWidgets@@YAXXZ@4MA DD 01H DUP (?) ; `ShowDemoWindowWidgets'::`556'::progress
?no_menu@?1??ShowDemoWindow@ImGui@@YAXPEA_N@Z@4_NA DB 01H DUP (?) ; `ImGui::ShowDemoWindow'::`2'::no_menu
	ALIGN	4

?no_move@?1??ShowDemoWindow@ImGui@@YAXPEA_N@Z@4_NA DB 01H DUP (?) ; `ImGui::ShowDemoWindow'::`2'::no_move
	ALIGN	4

?no_resize@?1??ShowDemoWindow@ImGui@@YAXPEA_N@Z@4_NA DB 01H DUP (?) ; `ImGui::ShowDemoWindow'::`2'::no_resize
	ALIGN	4

?no_collapse@?1??ShowDemoWindow@ImGui@@YAXPEA_N@Z@4_NA DB 01H DUP (?) ; `ImGui::ShowDemoWindow'::`2'::no_collapse
	ALIGN	4

?dont_ask_me_next_time@?GN@??ShowDemoWindowPopups@@YAXXZ@4_NA DB 01H DUP (?) ; `ShowDemoWindowPopups'::`109'::dont_ask_me_next_time
	ALIGN	4

?no_close@?1??ShowDemoWindow@ImGui@@YAXPEA_N@Z@4_NA DB 01H DUP (?) ; `ImGui::ShowDemoWindow'::`2'::no_close
	ALIGN	4

?no_nav@?1??ShowDemoWindow@ImGui@@YAXPEA_N@Z@4_NA DB 01H DUP (?) ; `ImGui::ShowDemoWindow'::`2'::no_nav
	ALIGN	4

?items_need_sort@?CAP@??ShowDemoWindowTables@@YAXXZ@4_NA DB 01H DUP (?) ; `ShowDemoWindowTables'::`527'::items_need_sort
	ALIGN	4

?no_background@?1??ShowDemoWindow@ImGui@@YAXPEA_N@Z@4_NA DB 01H DUP (?) ; `ImGui::ShowDemoWindow'::`2'::no_background
	ALIGN	4

?no_bring_to_front@?1??ShowDemoWindow@ImGui@@YAXPEA_N@Z@4_NA DB 01H DUP (?) ; `ImGui::ShowDemoWindow'::`2'::no_bring_to_front
	ALIGN	4

?unsaved_document@?1??ShowDemoWindow@ImGui@@YAXPEA_N@Z@4_NA DB 01H DUP (?) ; `ImGui::ShowDemoWindow'::`2'::unsaved_document
	ALIGN	4

?alpha_half_preview@?CEK@??ShowDemoWindowWidgets@@YAXXZ@4_NA DB 01H DUP (?) ; `ShowDemoWindowWidgets'::`586'::alpha_half_preview
	ALIGN	4

?hdr@?CEK@??ShowDemoWindowWidgets@@YAXXZ@4_NA DB 01H DUP (?) ; `ShowDemoWindowWidgets'::`586'::hdr
	ALIGN	4

?test_type@?1??ShowExampleAppLongText@@YAXPEA_N@Z@4HA DD 01H DUP (?) ; `ShowExampleAppLongText'::`2'::test_type
?lines@?1??ShowExampleAppLongText@@YAXPEA_N@Z@4HA DD 01H DUP (?) ; `ShowExampleAppLongText'::`2'::lines
?show_debug_details@?CAP@??ShowDemoWindowTables@@YAXXZ@4_NA DB 01H DUP (?) ; `ShowDemoWindowTables'::`527'::show_debug_details
	ALIGN	4

?output_dest@?CJ@??ShowStyleEditor@ImGui@@YAXPEAUImGuiStyle@@@Z@4HA DD 01H DUP (?) ; `ImGui::ShowStyleEditor'::`41'::output_dest
?alpha_flags@?CJ@??ShowStyleEditor@ImGui@@YAXPEAUImGuiStyle@@@Z@4HA DD 01H DUP (?) ; `ImGui::ShowStyleEditor'::`41'::alpha_flags
?no_border@?CEK@??ShowDemoWindowWidgets@@YAXXZ@4_NA DB 01H DUP (?) ; `ShowDemoWindowWidgets'::`586'::no_border
	ALIGN	4

?ref_color@?CEK@??ShowDemoWindowWidgets@@YAXXZ@4_NA DB 01H DUP (?) ; `ShowDemoWindowWidgets'::`586'::ref_color
	ALIGN	4

?display_mode@?CEK@??ShowDemoWindowWidgets@@YAXXZ@4HA DD 01H DUP (?) ; `ShowDemoWindowWidgets'::`586'::display_mode
?picker_mode@?CEK@??ShowDemoWindowWidgets@@YAXXZ@4HA DD 01H DUP (?) ; `ShowDemoWindowWidgets'::`586'::picker_mode
?flags@?CKD@??ShowDemoWindowWidgets@@YAXXZ@4HA DD 01H DUP (?) ; `ShowDemoWindowWidgets'::`675'::flags
?auto_resize@?1??ShowExampleAppConstrainedResize@@YAXPEA_N@Z@4_NA DB 01H DUP (?) ; `ShowExampleAppConstrainedResize'::`2'::auto_resize
	ALIGN	8

?s_current_sort_specs@MyItem@?A0x1ed25892@@2PEBUImGuiTableSortSpecs@@EB DQ 01H DUP (?) ; `anonymous namespace'::MyItem::s_current_sort_specs
?disable_all@?1??ShowDemoWindowWidgets@@YAXXZ@4_NA DB 01H DUP (?) ; `ShowDemoWindowWidgets'::`2'::disable_all
	ALIGN	4

?clicked@?BB@??ShowDemoWindowWidgets@@YAXXZ@4HA DD 01H DUP (?) ; `ShowDemoWindowWidgets'::`17'::clicked
?drag_clamp@?CLB@??ShowDemoWindowWidgets@@YAXXZ@4_NA DB 01H DUP (?) ; `ShowDemoWindowWidgets'::`689'::drag_clamp
	ALIGN	4

?e@?BB@??ShowDemoWindowWidgets@@YAXXZ@4HA DD 01H DUP (?) ; `ShowDemoWindowWidgets'::`17'::e
?location@?1??ShowExampleAppSimpleOverlay@@YAXPEA_N@Z@4HA DD 01H DUP (?) ; `ShowExampleAppSimpleOverlay'::`2'::location
?counter@?BB@??ShowDemoWindowWidgets@@YAXXZ@4HA DD 01H DUP (?) ; `ShowDemoWindowWidgets'::`17'::counter
?int_value@?CML@??ShowDemoWindowWidgets@@YAXXZ@4HA DD 01H DUP (?) ; `ShowDemoWindowWidgets'::`715'::int_value
?str1@?EB@??ShowDemoWindowWidgets@@YAXXZ@4PADA DB 080H DUP (?) ; `ShowDemoWindowWidgets'::`65'::str1
?n@?CC@??ShowExampleMenuFile@@YAXXZ@4HA DD 01H DUP (?)	; `ShowExampleMenuFile'::`34'::n
?i1@?EP@??ShowDemoWindowWidgets@@YAXXZ@4HA DD 01H DUP (?) ; `ShowDemoWindowWidgets'::`79'::i1
?f2@?EP@??ShowDemoWindowWidgets@@YAXXZ@4MA DD 01H DUP (?) ; `ShowDemoWindowWidgets'::`79'::f2
?angle@?EP@??ShowDemoWindowWidgets@@YAXXZ@4MA DD 01H DUP (?) ; `ShowDemoWindowWidgets'::`79'::angle
?disable_indent@?1??ShowDemoWindowTables@@YAXXZ@4_NA DB 01H DUP (?) ; `ShowDemoWindowTables'::`2'::disable_indent
	ALIGN	4

?mode@?CPC@??ShowDemoWindowWidgets@@YAXXZ@4HA DD 01H DUP (?) ; `ShowDemoWindowWidgets'::`754'::mode
?disable_mouse_wheel@?P@??ShowDemoWindowLayout@@YAXXZ@4_NA DB 01H DUP (?) ; `ShowDemoWindowLayout'::`15'::disable_mouse_wheel
	ALIGN	4

?disable_menu@?P@??ShowDemoWindowLayout@@YAXXZ@4_NA DB 01H DUP (?) ; `ShowDemoWindowLayout'::`15'::disable_menu
	ALIGN	4

?elem@?EP@??ShowDemoWindowWidgets@@YAXXZ@4HA DD 01H DUP (?) ; `ShowDemoWindowWidgets'::`79'::elem
?offset_x@?CE@??ShowDemoWindowLayout@@YAXXZ@4HA DD 01H DUP (?) ; `ShowDemoWindowLayout'::`36'::offset_x
?item_current@?GB@??ShowDemoWindowWidgets@@YAXXZ@4HA DD 01H DUP (?) ; `ShowDemoWindowWidgets'::`97'::item_current
?display_headers@?DB@??ShowDemoWindowTables@@YAXXZ@4_NA DB 01H DUP (?) ; `ShowDemoWindowTables'::`49'::display_headers
	ALIGN	4

?contents_type@?DB@??ShowDemoWindowTables@@YAXXZ@4HA DD 01H DUP (?) ; `ShowDemoWindowTables'::`49'::contents_type
?f@?CM@??ShowDemoWindowLayout@@YAXXZ@4MA DD 01H DUP (?)	; `ShowDemoWindowLayout'::`44'::f
?align_label_with_current_x_position@?IJ@??ShowDemoWindowWidgets@@YAXXZ@4_NA DB 01H DUP (?) ; `ShowDemoWindowWidgets'[::J]::align_label_with_current_x_position
	ALIGN	4

?test_drag_and_drop@?IJ@??ShowDemoWindowWidgets@@YAXXZ@4_NA DB 01H DUP (?) ; `ShowDemoWindowWidgets'[::J]::test_drag_and_drop
	ALIGN	4

?item_disabled@?DDA@??ShowDemoWindowWidgets@@YAXXZ@4_NA DB 01H DUP (?) ; `ShowDemoWindowWidgets'::`816'::item_disabled
	ALIGN	4

?b@?DDA@??ShowDemoWindowWidgets@@YAXXZ@4_NA DB 01H DUP (?) ; `ShowDemoWindowWidgets'::`816'::b
	ALIGN	4

?circle_segments_override@?P@??ShowExampleAppCustomRendering@@YAXPEA_N@Z@4_NA DB 01H DUP (?) ; `ShowExampleAppCustomRendering'::`15'::circle_segments_override
	ALIGN	4

?str@?DDA@??ShowDemoWindowWidgets@@YAXXZ@4PADA DB 010H DUP (?) ; `ShowDemoWindowWidgets'::`816'::str
?curve_segments_override@?P@??ShowExampleAppCustomRendering@@YAXPEA_N@Z@4_NA DB 01H DUP (?) ; `ShowExampleAppCustomRendering'::`15'::curve_segments_override
	ALIGN	4

?c1@?EC@??ShowDemoWindowLayout@@YAXXZ@4_NA DB 01H DUP (?) ; `ShowDemoWindowLayout'::`66'::c1
	ALIGN	4

?c2@?EC@??ShowDemoWindowLayout@@YAXXZ@4_NA DB 01H DUP (?) ; `ShowDemoWindowLayout'::`66'::c2
	ALIGN	4

?c3@?EC@??ShowDemoWindowLayout@@YAXXZ@4_NA DB 01H DUP (?) ; `ShowDemoWindowLayout'::`66'::c3
	ALIGN	4

?c4@?EC@??ShowDemoWindowLayout@@YAXXZ@4_NA DB 01H DUP (?) ; `ShowDemoWindowLayout'::`66'::c4
	ALIGN	4

?embed_all_inside_a_child_window@?DGN@??ShowDemoWindowWidgets@@YAXXZ@4_NA DB 01H DUP (?) ; `ShowDemoWindowWidgets'::`877'::embed_all_inside_a_child_window
	ALIGN	4

?test_window@?DGN@??ShowDemoWindowWidgets@@YAXXZ@4_NA DB 01H DUP (?) ; `ShowDemoWindowWidgets'::`877'::test_window
	ALIGN	4

?show_headers@?JH@??ShowDemoWindowTables@@YAXXZ@4_NA DB 01H DUP (?) ; `ShowDemoWindowTables'::`151'::show_headers
	ALIGN	4

?pressed_count@?OK@??ShowDemoWindowWidgets@@YAXXZ@4HA DD 01H DUP (?) ; `ShowDemoWindowWidgets'::`234'::pressed_count
?enable_extra_decorations@?IE@??ShowDemoWindowLayout@@YAXXZ@4_NA DB 01H DUP (?) ; `ShowDemoWindowLayout'[::E]::enable_extra_decorations
	ALIGN	4

?scroll_to_off_px@?IE@??ShowDemoWindowLayout@@YAXXZ@4MA DD 01H DUP (?) ; `ShowDemoWindowLayout'[::E]::scroll_to_off_px
?adding_line@?BG@??ShowExampleAppCustomRendering@@YAXPEA_N@Z@4_NA DB 01H DUP (?) ; `ShowExampleAppCustomRendering'::`22'::adding_line
	ALIGN	4

?flags@?BAP@??ShowDemoWindowWidgets@@YAXXZ@4HA DD 01H DUP (?) ; `ShowDemoWindowWidgets'::`271'::flags
?item_current_idx@?BAP@??ShowDemoWindowWidgets@@YAXXZ@4HA DD 01H DUP (?) ; `ShowDemoWindowWidgets'::`271'::item_current_idx
?contents_type@?LK@??ShowDemoWindowTables@@YAXXZ@4HA DD 01H DUP (?) ; `ShowDemoWindowTables'::`186'::contents_type
?item_current_2@?BAP@??ShowDemoWindowWidgets@@YAXXZ@4HA DD 01H DUP (?) ; `ShowDemoWindowWidgets'::`271'::item_current_2
?text_buf@?MO@??ShowDemoWindowTables@@YAXXZ@4PADA DB 020H DUP (?) ; `ShowDemoWindowTables'::`206'::text_buf
?item_current_4@?BAP@??ShowDemoWindowWidgets@@YAXXZ@4HA DD 01H DUP (?) ; `ShowDemoWindowWidgets'::`271'::item_current_4
?item_current_idx@?BCD@??ShowDemoWindowWidgets@@YAXXZ@4HA DD 01H DUP (?) ; `ShowDemoWindowWidgets'::`291'::item_current_idx
?show_horizontal_contents_size_demo_window@?IE@??ShowDemoWindowLayout@@YAXXZ@4_NA DB 01H DUP (?) ; `ShowDemoWindowLayout'[::E]::show_horizontal_contents_size_demo_window
	ALIGN	4

?column_flags_out@?BAF@??ShowDemoWindowTables@@YAXXZ@4PAHA DD 03H DUP (?) ; `ShowDemoWindowTables'::`261'::column_flags_out
?show_text_wrapped@?ML@??ShowDemoWindowLayout@@YAXXZ@4_NA DB 01H DUP (?) ; `ShowDemoWindowLayout'::`203'::show_text_wrapped
	ALIGN	4

?selection@?BFJ@??ShowDemoWindowWidgets@@YAXXZ@4PA_NA DB 05H DUP (?) ; `ShowDemoWindowWidgets'::`345'::selection
	ALIGN	4

?show_child@?ML@??ShowDemoWindowLayout@@YAXXZ@4_NA DB 01H DUP (?) ; `ShowDemoWindowLayout'::`203'::show_child
	ALIGN	4

?explicit_content_size@?ML@??ShowDemoWindowLayout@@YAXXZ@4_NA DB 01H DUP (?) ; `ShowDemoWindowLayout'::`203'::explicit_content_size
	ALIGN	4

?selected@?BGH@??ShowDemoWindowWidgets@@YAXXZ@4PA_NA DB 03H DUP (?) ; `ShowDemoWindowWidgets'::`359'::selected
	ALIGN	4

?selected@?BGO@??ShowDemoWindowWidgets@@YAXXZ@4PA_NA DB 0aH DUP (?) ; `ShowDemoWindowWidgets'::`366'::selected
	ALIGN	4

?flags2@?BBM@??ShowDemoWindowTables@@YAXXZ@4HA DD 01H DUP (?) ; `ShowDemoWindowTables'::`284'::flags2
_BSS	ENDS
;	COMDAT ??_C@_0L@JJNGHCMI@Watermelon?$AA@
CONST	SEGMENT
??_C@_0L@JJNGHCMI@Watermelon?$AA@ DB 'Watermelon', 00H	; `string'
CONST	ENDS
;	COMDAT ??_C@_0L@BNANDFPN@Strawberry?$AA@
CONST	SEGMENT
??_C@_0L@BNANDFPN@Strawberry?$AA@ DB 'Strawberry', 00H	; `string'
CONST	ENDS
;	COMDAT ??_C@_09EBEMMGPP@Pineapple?$AA@
CONST	SEGMENT
??_C@_09EBEMMGPP@Pineapple?$AA@ DB 'Pineapple', 00H	; `string'
CONST	ENDS
;	COMDAT ??_C@_06LMIDBFFB@Orange?$AA@
CONST	SEGMENT
??_C@_06LMIDBFFB@Orange?$AA@ DB 'Orange', 00H		; `string'
CONST	ENDS
;	COMDAT ??_C@_05CNKNDDOO@Mango?$AA@
CONST	SEGMENT
??_C@_05CNKNDDOO@Mango?$AA@ DB 'Mango', 00H		; `string'
CONST	ENDS
;	COMDAT ??_C@_04LFFBHHAI@Kiwi?$AA@
CONST	SEGMENT
??_C@_04LFFBHHAI@Kiwi?$AA@ DB 'Kiwi', 00H		; `string'
CONST	ENDS
;	COMDAT ??_C@_06MKLLCMPJ@Cherry?$AA@
CONST	SEGMENT
??_C@_06MKLLCMPJ@Cherry?$AA@ DB 'Cherry', 00H		; `string'
CONST	ENDS
;	COMDAT ??_C@_06OJJIHNKI@Banana?$AA@
CONST	SEGMENT
??_C@_06OJJIHNKI@Banana?$AA@ DB 'Banana', 00H		; `string'
CONST	ENDS
;	COMDAT ??_C@_05EBJDGKGA@Apple?$AA@
CONST	SEGMENT
??_C@_05EBJDGKGA@Apple?$AA@ DB 'Apple', 00H		; `string'
CONST	ENDS
;	COMDAT ??_C@_09HPDIDBJG@Item?5Five?$AA@
CONST	SEGMENT
??_C@_09HPDIDBJG@Item?5Five?$AA@ DB 'Item Five', 00H	; `string'
CONST	ENDS
;	COMDAT ??_C@_09FNJGFEIF@Item?5Four?$AA@
CONST	SEGMENT
??_C@_09FNJGFEIF@Item?5Four?$AA@ DB 'Item Four', 00H	; `string'
CONST	ENDS
;	COMDAT ??_C@_0L@PNIFIMNF@Item?5Three?$AA@
CONST	SEGMENT
??_C@_0L@PNIFIMNF@Item?5Three?$AA@ DB 'Item Three', 00H	; `string'
CONST	ENDS
;	COMDAT ??_C@_08BIEMAAON@Item?5Two?$AA@
CONST	SEGMENT
??_C@_08BIEMAAON@Item?5Two?$AA@ DB 'Item Two', 00H	; `string'
CONST	ENDS
;	COMDAT ??_C@_08HGEMKAAG@Item?5One?$AA@
CONST	SEGMENT
??_C@_08HGEMKAAG@Item?5One?$AA@ DB 'Item One', 00H	; `string'
CONST	ENDS
;	COMDAT ??_C@_04HKIGHOCK@Bryn?$AA@
CONST	SEGMENT
??_C@_04HKIGHOCK@Bryn?$AA@ DB 'Bryn', 00H		; `string'
CONST	ENDS
;	COMDAT ??_C@_06HGIOBEEM@Blaine?$AA@
CONST	SEGMENT
??_C@_06HGIOBEEM@Blaine?$AA@ DB 'Blaine', 00H		; `string'
CONST	ENDS
;	COMDAT ??_C@_04KCKMHEOC@Bibi?$AA@
CONST	SEGMENT
??_C@_04KCKMHEOC@Bibi?$AA@ DB 'Bibi', 00H		; `string'
CONST	ENDS
;	COMDAT ??_C@_07JNHNGBFJ@Bernard?$AA@
CONST	SEGMENT
??_C@_07JNHNGBFJ@Bernard?$AA@ DB 'Bernard', 00H		; `string'
CONST	ENDS
;	COMDAT ??_C@_05MAEBLNFA@Barry?$AA@
CONST	SEGMENT
??_C@_05MAEBLNFA@Barry?$AA@ DB 'Barry', 00H		; `string'
CONST	ENDS
;	COMDAT ??_C@_07OEGNBIJH@Brianna?$AA@
CONST	SEGMENT
??_C@_07OEGNBIJH@Brianna?$AA@ DB 'Brianna', 00H		; `string'
CONST	ENDS
;	COMDAT ??_C@_05BECHDIPO@Betty?$AA@
CONST	SEGMENT
??_C@_05BECHDIPO@Betty?$AA@ DB 'Betty', 00H		; `string'
CONST	ENDS
;	COMDAT ??_C@_08FLMMIHDE@Beatrice?$AA@
CONST	SEGMENT
??_C@_08FLMMIHDE@Beatrice?$AA@ DB 'Beatrice', 00H	; `string'
CONST	ENDS
;	COMDAT ??_C@_05DDEOPHNO@Bobby?$AA@
CONST	SEGMENT
??_C@_05DDEOPHNO@Bobby?$AA@ DB 'Bobby', 00H		; `string'
CONST	ENDS
;	COMDAT ??_C@_0DE@LNEEFNDM@Columns?5default?5to?5_WidthStretch@
CONST	SEGMENT
??_C@_0DE@LNEEFNDM@Columns?5default?5to?5_WidthStretch@ DB 'Columns defau'
	DB	'lt to _WidthStretch with same weights.', 00H ; `string'
CONST	ENDS
;	COMDAT ??_C@_0CC@LAIGPACB@ImGuiTableFlags_SizingStretchSam@
CONST	SEGMENT
??_C@_0CC@LAIGPACB@ImGuiTableFlags_SizingStretchSam@ DB 'ImGuiTableFlags_'
	DB	'SizingStretchSame', 00H			; `string'
CONST	ENDS
;	COMDAT ??_C@_0EM@EAECLPPK@Columns?5default?5to?5_WidthStretch@
CONST	SEGMENT
??_C@_0EM@EAECLPPK@Columns?5default?5to?5_WidthStretch@ DB 'Columns defau'
	DB	'lt to _WidthStretch with weights proportional to their widths'
	DB	'.', 00H					; `string'
CONST	ENDS
;	COMDAT ??_C@_0CC@IBLLEAPK@ImGuiTableFlags_SizingStretchPro@
CONST	SEGMENT
??_C@_0CC@IBLLEAPK@ImGuiTableFlags_SizingStretchPro@ DB 'ImGuiTableFlags_'
	DB	'SizingStretchProp', 00H			; `string'
CONST	ENDS
;	COMDAT ??_C@_0KD@KKOOHGIJ@Columns?5are?5all?5the?5same?5width?0?5@
CONST	SEGMENT
??_C@_0KD@KKOOHGIJ@Columns?5are?5all?5the?5same?5width?0?5@ DB 'Columns a'
	DB	're all the same width, matching the maximum contents width.', 0aH
	DB	'Implicitly disable ImGuiTableFlags_Resizable and enable ImGui'
	DB	'TableFlags_NoKeepColumnsVisible.', 00H	; `string'
CONST	ENDS
;	COMDAT ??_C@_0CA@HAGKEPPO@ImGuiTableFlags_SizingFixedSame?$AA@
CONST	SEGMENT
??_C@_0CA@HAGKEPPO@ImGuiTableFlags_SizingFixedSame?$AA@ DB 'ImGuiTableFla'
	DB	'gs_SizingFixedSame', 00H			; `string'
CONST	ENDS
;	COMDAT ??_C@_0GJ@LHMCJKNJ@Columns?5default?5to?5_WidthFixed?5?$CI@
CONST	SEGMENT
??_C@_0GJ@LHMCJKNJ@Columns?5default?5to?5_WidthFixed?5?$CI@ DB 'Columns d'
	DB	'efault to _WidthFixed (if resizable) or _WidthAuto (if not re'
	DB	'sizable), matching contents width.', 00H	; `string'
CONST	ENDS
;	COMDAT ??_C@_0BP@MPLHLLNP@ImGuiTableFlags_SizingFixedFit?$AA@
CONST	SEGMENT
??_C@_0BP@MPLHLLNP@ImGuiTableFlags_SizingFixedFit?$AA@ DB 'ImGuiTableFlag'
	DB	's_SizingFixedFit', 00H			; `string'
CONST	ENDS
;	COMDAT ??_C@_0LF@IILMEFCL@Use?5default?5sizing?5policy?3?6?9?5ImG@
CONST	SEGMENT
??_C@_0LF@IILMEFCL@Use?5default?5sizing?5policy?3?6?9?5ImG@ DB 'Use defau'
	DB	'lt sizing policy:', 0aH, '- ImGuiTableFlags_SizingFixedFit if'
	DB	' ScrollX is on or if host window has ImGuiWindowFlags_AlwaysA'
	DB	'utoResize.', 0aH, '- ImGuiTableFlags_SizingStretchSame otherw'
	DB	'ise.', 00H					; `string'
CONST	ENDS
;	COMDAT ??_C@_07MCAEODGB@Default?$AA@
CONST	SEGMENT
??_C@_07MCAEODGB@Default?$AA@ DB 'Default', 00H		; `string'
CONST	ENDS
;	COMDAT ??_C@_07GAABODDK@Apricot?$AA@
CONST	SEGMENT
??_C@_07GAABODDK@Apricot?$AA@ DB 'Apricot', 00H		; `string'
CONST	ENDS
;	COMDAT ??_C@_04FJCKHKHL@Pear?$AA@
CONST	SEGMENT
??_C@_04FJCKHKHL@Pear?$AA@ DB 'Pear', 00H		; `string'
CONST	ENDS
;	COMDAT ??_C@_07BHKDNCIF@Coconut?$AA@
CONST	SEGMENT
??_C@_07BHKDNCIF@Coconut?$AA@ DB 'Coconut', 00H		; `string'
CONST	ENDS
;	COMDAT ??_C@_04PCFHDAMD@Plum?$AA@
CONST	SEGMENT
??_C@_04PCFHDAMD@Plum?$AA@ DB 'Plum', 00H		; `string'
CONST	ENDS
;	COMDAT ??_C@_09HNADIOOI@Blueberry?$AA@
CONST	SEGMENT
??_C@_09HNADIOOI@Blueberry?$AA@ DB 'Blueberry', 00H	; `string'
CONST	ENDS
;	COMDAT ??_C@_0L@KKHKDDPE@Grapefruit?$AA@
CONST	SEGMENT
??_C@_0L@KKHKDDPE@Grapefruit?$AA@ DB 'Grapefruit', 00H	; `string'
CONST	ENDS
;	COMDAT ??_C@_0BO@DEMDOGLF@Copy?5of?5Image001?5?$CIFinal2?$CJ?4png?$AA@
CONST	SEGMENT
??_C@_0BO@DEMDOGLF@Copy?5of?5Image001?5?$CIFinal2?$CJ?4png?$AA@ DB 'Copy '
	DB	'of Image001 (Final2).png', 00H		; `string'
CONST	ENDS
;	COMDAT ??_C@_0BF@LIFBAFGM@Copy?5of?5Image001?4png?$AA@
CONST	SEGMENT
??_C@_0BF@LIFBAFGM@Copy?5of?5Image001?4png?$AA@ DB 'Copy of Image001.png', 00H ; `string'
CONST	ENDS
;	COMDAT ??_C@_0L@FLGLCLEK@Image?5file?$AA@
CONST	SEGMENT
??_C@_0L@FLGLCLEK@Image?5file?$AA@ DB 'Image file', 00H	; `string'
CONST	ENDS
;	COMDAT ??_C@_0N@FHEINFFG@Image001?4png?$AA@
CONST	SEGMENT
??_C@_0N@FHEINFFG@Image001?4png?$AA@ DB 'Image001.png', 00H ; `string'
CONST	ENDS
;	COMDAT ??_C@_0M@MMGNLBOD@File1_b?4wav?$AA@
CONST	SEGMENT
??_C@_0M@MMGNLBOD@File1_b?4wav?$AA@ DB 'File1_b.wav', 00H ; `string'
CONST	ENDS
;	COMDAT ??_C@_0L@COLMADCA@Audio?5file?$AA@
CONST	SEGMENT
??_C@_0L@COLMADCA@Audio?5file?$AA@ DB 'Audio file', 00H	; `string'
CONST	ENDS
;	COMDAT ??_C@_0M@EKPJMDEN@File1_a?4wav?$AA@
CONST	SEGMENT
??_C@_0M@EKPJMDEN@File1_a?4wav?$AA@ DB 'File1_a.wav', 00H ; `string'
CONST	ENDS
;	COMDAT ??_C@_0M@IGEMGAFG@System?5file?$AA@
CONST	SEGMENT
??_C@_0M@IGEMGAFG@System?5file?$AA@ DB 'System file', 00H ; `string'
CONST	ENDS
;	COMDAT ??_C@_0M@NNNKMEPA@desktop?4ini?$AA@
CONST	SEGMENT
??_C@_0M@NNNKMEPA@desktop?4ini?$AA@ DB 'desktop.ini', 00H ; `string'
CONST	ENDS
;	COMDAT ??_C@_08FLHNKADJ@Textures?$AA@
CONST	SEGMENT
??_C@_08FLHNKADJ@Textures?$AA@ DB 'Textures', 00H	; `string'
CONST	ENDS
;	COMDAT ??_C@_05LMJFOPOI@Music?$AA@
CONST	SEGMENT
??_C@_05LMJFOPOI@Music?$AA@ DB 'Music', 00H		; `string'
CONST	ENDS
;	COMDAT ??_C@_06HHJDFOK@Folder?$AA@
CONST	SEGMENT
??_C@_06HHJDFOK@Folder?$AA@ DB 'Folder', 00H		; `string'
CONST	ENDS
;	COMDAT ??_C@_04BAJDEDPD@Root?$AA@
CONST	SEGMENT
??_C@_04BAJDEDPD@Root?$AA@ DB 'Root', 00H		; `string'
CONST	ENDS
CONST	SEGMENT
?nodes@?BIO@??ShowDemoWindowTables@@YAXXZ@4QBUMyTreeNode@?BIO@??1@YAXXZ@B DQ FLAT:??_C@_04BAJDEDPD@Root?$AA@ ; `ShowDemoWindowTables'::`398'::nodes
	DQ	FLAT:??_C@_06HHJDFOK@Folder?$AA@
	DD	0ffffffffH
	DD	01H
	DD	03H
	ORG $+4
	DQ	FLAT:??_C@_05LMJFOPOI@Music?$AA@
	DQ	FLAT:??_C@_06HHJDFOK@Folder?$AA@
	DD	0ffffffffH
	DD	04H
	DD	02H
	ORG $+4
	DQ	FLAT:??_C@_08FLHNKADJ@Textures?$AA@
	DQ	FLAT:??_C@_06HHJDFOK@Folder?$AA@
	DD	0ffffffffH
	DD	06H
	DD	03H
	ORG $+4
	DQ	FLAT:??_C@_0M@NNNKMEPA@desktop?4ini?$AA@
	DQ	FLAT:??_C@_0M@IGEMGAFG@System?5file?$AA@
	DD	0400H
	DD	0ffffffffH
	DD	0ffffffffH
	ORG $+4
	DQ	FLAT:??_C@_0M@EKPJMDEN@File1_a?4wav?$AA@
	DQ	FLAT:??_C@_0L@COLMADCA@Audio?5file?$AA@
	DD	01e078H
	DD	0ffffffffH
	DD	0ffffffffH
	ORG $+4
	DQ	FLAT:??_C@_0M@MMGNLBOD@File1_b?4wav?$AA@
	DQ	FLAT:??_C@_0L@COLMADCA@Audio?5file?$AA@
	DD	06f540H
	DD	0ffffffffH
	DD	0ffffffffH
	ORG $+4
	DQ	FLAT:??_C@_0N@FHEINFFG@Image001?4png?$AA@
	DQ	FLAT:??_C@_0L@FLGLCLEK@Image?5file?$AA@
	DD	031978H
	DD	0ffffffffH
	DD	0ffffffffH
	ORG $+4
	DQ	FLAT:??_C@_0BF@LIFBAFGM@Copy?5of?5Image001?4png?$AA@
	DQ	FLAT:??_C@_0L@FLGLCLEK@Image?5file?$AA@
	DD	0319f8H
	DD	0ffffffffH
	DD	0ffffffffH
	ORG $+4
	DQ	FLAT:??_C@_0BO@DEMDOGLF@Copy?5of?5Image001?5?$CIFinal2?$CJ?4png?$AA@
	DQ	FLAT:??_C@_0L@FLGLCLEK@Image?5file?$AA@
	DD	031af8H
	DD	0ffffffffH
	DD	0ffffffffH
	ORG $+4
?policies@?1??EditTableSizingFlags@@YAXPEAH@Z@4QBUEnumDesc@?1??1@YAX0@Z@B DD 00H ; `EditTableSizingFlags'::`2'::policies
	ORG $+4
	DQ	FLAT:??_C@_07MCAEODGB@Default?$AA@
	DQ	FLAT:??_C@_0LF@IILMEFCL@Use?5default?5sizing?5policy?3?6?9?5ImG@
	DD	02000H
	ORG $+4
	DQ	FLAT:??_C@_0BP@MPLHLLNP@ImGuiTableFlags_SizingFixedFit?$AA@
	DQ	FLAT:??_C@_0GJ@LHMCJKNJ@Columns?5default?5to?5_WidthFixed?5?$CI@
	DD	04000H
	ORG $+4
	DQ	FLAT:??_C@_0CA@HAGKEPPO@ImGuiTableFlags_SizingFixedSame?$AA@
	DQ	FLAT:??_C@_0KD@KKOOHGIJ@Columns?5are?5all?5the?5same?5width?0?5@
	DD	06000H
	ORG $+4
	DQ	FLAT:??_C@_0CC@IBLLEAPK@ImGuiTableFlags_SizingStretchPro@
	DQ	FLAT:??_C@_0EM@EAECLPPK@Columns?5default?5to?5_WidthStretch@
	DD	08000H
	ORG $+4
	DQ	FLAT:??_C@_0CC@LAIGPACB@ImGuiTableFlags_SizingStretchSam@
	DQ	FLAT:??_C@_0DE@LNEEFNDM@Columns?5default?5to?5_WidthStretch@
CONST	ENDS
_DATA	SEGMENT
?flags@?BFH@??ShowDemoWindowTables@@YAXXZ@4HA DD 0127e1H ; `ShowDemoWindowTables'::`343'::flags
?flags@?BLC@??ShowDemoWindowWidgets@@YAXXZ@4HA DD 0400H	; `ShowDemoWindowWidgets'::`434'::flags
?flags@?BHF@??ShowDemoWindowTables@@YAXXZ@4HA DD 040H	; `ShowDemoWindowTables'::`373'::flags
?row_bg_type@?BHF@??ShowDemoWindowTables@@YAXXZ@4HA DD 01H ; `ShowDemoWindowTables'::`373'::row_bg_type
?text@?BLC@??ShowDemoWindowWidgets@@YAXXZ@4PADA DB '/*', 0aH, ' The Penti'
	DB	'um F00F bug, shorthand for F0 0F C7 C8,', 0aH, ' the hexadeci'
	DB	'mal encoding of one offending instruction,', 0aH, ' more form'
	DB	'ally, the invalid operand with locked CMPXCHG8B', 0aH, ' inst'
	DB	'ruction bug, is a design flaw in the majority of', 0aH, ' Int'
	DB	'el Pentium, Pentium MMX, and Pentium OverDrive', 0aH, ' proce'
	DB	'ssors (all in the P5 microarchitecture).', 0aH, '*/', 0aH, 0aH
	DB	'label:', 0aH, 09H, 'lock cmpxchg8b eax', 0aH, 00H ; `ShowDemoWindowWidgets'::`434'::text
	ORG $+16033
?row_bg_target@?BHF@??ShowDemoWindowTables@@YAXXZ@4HA DD 01H ; `ShowDemoWindowTables'::`373'::row_bg_target
?cell_bg_type@?BHF@??ShowDemoWindowTables@@YAXXZ@4HA DD 01H ; `ShowDemoWindowTables'::`373'::cell_bg_type
?flags@?BIL@??ShowDemoWindowTables@@YAXXZ@4HA DD 0f41H	; `ShowDemoWindowTables'::`395'::flags
?capture_override_mouse@?CL@??ShowDemoWindowInputs@@YAXXZ@4HA DD 0ffffffffH ; `ShowDemoWindowInputs'::`43'::capture_override_mouse
?password@?BMA@??ShowDemoWindowWidgets@@YAXXZ@4PADA DB 'password123', 00H ; `ShowDemoWindowWidgets'::`448'::password
	ORG $+52
?capture_override_keyboard@?CL@??ShowDemoWindowInputs@@YAXXZ@4HA DD 0ffffffffH ; `ShowDemoWindowInputs'::`43'::capture_override_keyboard
?flags1@?BLK@??ShowDemoWindowTables@@YAXXZ@4HA DD 07a7H	; `ShowDemoWindowTables'::`442'::flags1
?buf@?EB@??ShowDemoWindowInputs@@YAXXZ@4PADA DB 'hello', 00H ; `ShowDemoWindowInputs'::`65'::buf
	ORG $+26
?tab_bar_flags@?BON@??ShowDemoWindowWidgets@@YAXXZ@4HA DD 01H ; `ShowDemoWindowWidgets'::`493'::tab_bar_flags
?opt_reorderable@?1??ShowExampleAppDocuments@@YAXPEA_N@Z@4_NA DB 01H ; `ShowExampleAppDocuments'::`2'::opt_reorderable
?show_leading_button@?CAI@??ShowDemoWindowWidgets@@YAXXZ@4_NA DB 01H ; `ShowDemoWindowWidgets'::`520'::show_leading_button
?show_trailing_button@?CAI@??ShowDemoWindowWidgets@@YAXXZ@4_NA DB 01H ; `ShowDemoWindowWidgets'::`520'::show_trailing_button
?animate@?CCM@??ShowDemoWindowWidgets@@YAXXZ@4_NA DB 01H ; `ShowDemoWindowWidgets'::`556'::animate
?buf@?EI@??ShowDemoWindowInputs@@YAXXZ@4PADA DB 'click on a button to set'
	DB	' focus', 00H				; `ShowDemoWindowInputs'::`72'::buf
	ORG $+97
?opened@?BON@??ShowDemoWindowWidgets@@YAXXZ@4PA_NA DB 01H ; `ShowDemoWindowWidgets'::`493'::opened
	DB	01H
	DB	01H
	DB	01H
?opt_fitting_flags@?1??ShowExampleAppDocuments@@YAXPEA_N@Z@4HA DD 040H ; `ShowExampleAppDocuments'::`2'::opt_fitting_flags
?flags@?BOE@??ShowDemoWindowTables@@YAXXZ@4HA DD 02797H	; `ShowDemoWindowTables'::`484'::flags
?tab_bar_flags@?CAI@??ShowDemoWindowWidgets@@YAXXZ@4HA DD 043H ; `ShowDemoWindowWidgets'::`520'::tab_bar_flags
?template_items_names@?1??ShowDemoWindowTables@@YAXXZ@4PAPEBDA DQ FLAT:??_C@_06OJJIHNKI@Banana?$AA@ ; `ShowDemoWindowTables'::`2'::template_items_names
	DQ	FLAT:??_C@_05EBJDGKGA@Apple?$AA@
	DQ	FLAT:??_C@_06MKLLCMPJ@Cherry?$AA@
	DQ	FLAT:??_C@_0L@JJNGHCMI@Watermelon?$AA@
	DQ	FLAT:??_C@_0L@KKHKDDPE@Grapefruit?$AA@
	DQ	FLAT:??_C@_0L@BNANDFPN@Strawberry?$AA@
	DQ	FLAT:??_C@_05CNKNDDOO@Mango?$AA@
	DQ	FLAT:??_C@_04LFFBHHAI@Kiwi?$AA@
	DQ	FLAT:??_C@_06LMIDBFFB@Orange?$AA@
	DQ	FLAT:??_C@_09EBEMMGPP@Pineapple?$AA@
	DQ	FLAT:??_C@_09HNADIOOI@Blueberry?$AA@
	DQ	FLAT:??_C@_04PCFHDAMD@Plum?$AA@
	DQ	FLAT:??_C@_07BHKDNCIF@Coconut?$AA@
	DQ	FLAT:??_C@_04FJCKHKHL@Pear?$AA@
	DQ	FLAT:??_C@_07GAABODDK@Apricot?$AA@
?arr@?CCM@??ShowDemoWindowWidgets@@YAXXZ@4PAMA DD 03f19999ar ; 0.6 ; `ShowDemoWindowWidgets'::`556'::arr
	DD	03dcccccdr			; 0.1
	DD	03f800000r			; 1
	DD	03f000000r			; 0.5
	DD	03f6b851fr			; 0.92
	DD	03dcccccdr			; 0.1
	DD	03e4ccccdr			; 0.2
?flags@?BPE@??ShowDemoWindowTables@@YAXXZ@4HA DD 06000f4fH ; `ShowDemoWindowTables'::`500'::flags
?selected_fish@?P@??ShowDemoWindowPopups@@YAXXZ@4HA DD 0ffffffffH ; `ShowDemoWindowPopups'::`15'::selected_fish
?toggles@?P@??ShowDemoWindowPopups@@YAXXZ@4PA_NA DB 01H	; `ShowDemoWindowPopups'::`15'::toggles
	DB	00H
	DB	00H
	DB	00H
	DB	00H
?outer_size_enabled@?CAP@??ShowDemoWindowTables@@YAXXZ@4_NA DB 01H ; `ShowDemoWindowTables'::`527'::outer_size_enabled
?show_headers@?CAP@??ShowDemoWindowTables@@YAXXZ@4_NA DB 01H ; `ShowDemoWindowTables'::`527'::show_headers
?alpha_preview@?CEK@??ShowDemoWindowWidgets@@YAXXZ@4_NA DB 01H ; `ShowDemoWindowWidgets'::`586'::alpha_preview
?flags@?CAP@??ShowDemoWindowTables@@YAXXZ@4HA DD 07002fcfH ; `ShowDemoWindowTables'::`527'::flags
?contents_type@?CAP@??ShowDemoWindowTables@@YAXXZ@4HA DD 05H ; `ShowDemoWindowTables'::`527'::contents_type
?freeze_cols@?CAP@??ShowDemoWindowTables@@YAXXZ@4HA DD 01H ; `ShowDemoWindowTables'::`527'::freeze_cols
?freeze_rows@?CAP@??ShowDemoWindowTables@@YAXXZ@4HA DD 01H ; `ShowDemoWindowTables'::`527'::freeze_rows
?items_count@?CAP@??ShowDemoWindowTables@@YAXXZ@4HA DD 01eH ; `ShowDemoWindowTables'::`527'::items_count
?selected@?EG@??ShowDemoWindowPopups@@YAXXZ@4HA DD 0ffffffffH ; `ShowDemoWindowPopups'::`70'::selected
?value@?FC@??ShowDemoWindowPopups@@YAXXZ@4MA DD 03f000000r ; 0.5 ; `ShowDemoWindowPopups'::`82'::value
?display_count@?CCM@??ShowDemoWindowWidgets@@YAXXZ@4HA DD 046H ; `ShowDemoWindowWidgets'::`556'::display_count
?progress_dir@?CCM@??ShowDemoWindowWidgets@@YAXXZ@4MA DD 03f800000r ; 1 ; `ShowDemoWindowWidgets'::`556'::progress_dir
?placeholder_members@?4??ShowPlaceholderObject@@YAXPEBDH@Z@4PAMA DD 000000000r ; 0 ; `ShowPlaceholderObject'::`5'::placeholder_members
	DD	000000000r			; 0
	DD	03f800000r			; 1
	DD	040490ff9r			; 3.1416
	DD	042c80000r			; 100
	DD	04479c000r			; 999
	ORG $+8
?name@?FM@??ShowDemoWindowPopups@@YAXXZ@4PADA DB 'Label1', 00H ; `ShowDemoWindowPopups'::`92'::name
	ORG $+25
?style_idx@?1??ShowStyleSelector@ImGui@@YA_NPEBD@Z@4HA DD 0ffffffffH ; `ImGui::ShowStyleSelector'::`2'::style_idx
?item@?HI@??ShowDemoWindowPopups@@YAXXZ@4HA DD 01H	; `ShowDemoWindowPopups'::`120'::item
?color@?HI@??ShowDemoWindowPopups@@YAXXZ@4PAMA DD 03ecccccdr ; 0.4 ; `ShowDemoWindowPopups'::`120'::color
	DD	03f333333r			; 0.7
	DD	000000000r			; 0
	DD	03f000000r			; 0.5
?drag_and_drop@?CEK@??ShowDemoWindowWidgets@@YAXXZ@4_NA DB 01H ; `ShowDemoWindowWidgets'::`586'::drag_and_drop
?options_menu@?CEK@??ShowDemoWindowWidgets@@YAXXZ@4_NA DB 01H ; `ShowDemoWindowWidgets'::`586'::options_menu
?init@?1??ShowStyleEditor@ImGui@@YAXPEAUImGuiStyle@@@Z@4_NA DB 01H ; `ImGui::ShowStyleEditor'::`2'::init
?saved_palette_init@?CEK@??ShowDemoWindowWidgets@@YAXXZ@4_NA DB 01H ; `ShowDemoWindowWidgets'::`586'::saved_palette_init
?output_only_modified@?CJ@??ShowStyleEditor@ImGui@@YAXPEAUImGuiStyle@@@Z@4_NA DB 01H ; `ImGui::ShowStyleEditor'::`41'::output_only_modified
?alpha@?CEK@??ShowDemoWindowWidgets@@YAXXZ@4_NA DB 01H	; `ShowDemoWindowWidgets'::`586'::alpha
?alpha_bar@?CEK@??ShowDemoWindowWidgets@@YAXXZ@4_NA DB 01H ; `ShowDemoWindowWidgets'::`586'::alpha_bar
?side_preview@?CEK@??ShowDemoWindowWidgets@@YAXXZ@4_NA DB 01H ; `ShowDemoWindowWidgets'::`586'::side_preview
?window_scale@?EM@??ShowStyleEditor@ImGui@@YAXPEAUImGuiStyle@@@Z@4MA DD 03f800000r ; 1 ; `ImGui::ShowStyleEditor'::`76'::window_scale
?lines@?1??ShowExampleAppAutoResize@@YAXPEA_N@Z@4HA DD 0aH ; `ShowExampleAppAutoResize'::`2'::lines
?drag_f@?CKD@??ShowDemoWindowWidgets@@YAXXZ@4MA DD 03f000000r ; 0.5 ; `ShowDemoWindowWidgets'::`675'::drag_f
?drag_i@?CKD@??ShowDemoWindowWidgets@@YAXXZ@4HA DD 032H	; `ShowDemoWindowWidgets'::`675'::drag_i
?slider_f@?CKD@??ShowDemoWindowWidgets@@YAXXZ@4MA DD 03f000000r ; 0.5 ; `ShowDemoWindowWidgets'::`675'::slider_f
?slider_i@?CKD@??ShowDemoWindowWidgets@@YAXXZ@4HA DD 032H ; `ShowDemoWindowWidgets'::`675'::slider_i
?begin@?CKK@??ShowDemoWindowWidgets@@YAXXZ@4MA DD 041200000r ; 10 ; `ShowDemoWindowWidgets'::`682'::begin
?end@?CKK@??ShowDemoWindowWidgets@@YAXXZ@4MA DD 042b40000r ; 90 ; `ShowDemoWindowWidgets'::`682'::end
?begin_i@?CKK@??ShowDemoWindowWidgets@@YAXXZ@4HA DD 064H ; `ShowDemoWindowWidgets'::`682'::begin_i
?window_padding@?1??ShowExampleAppConstrainedResize@@YAXPEA_N@Z@4_NA DB 01H ; `ShowExampleAppConstrainedResize'::`2'::window_padding
?s8_v@?CLB@??ShowDemoWindowWidgets@@YAXXZ@4DA DB 07fH	; `ShowDemoWindowWidgets'::`689'::s8_v
?u8_v@?CLB@??ShowDemoWindowWidgets@@YAXXZ@4EA DB 0ffH	; `ShowDemoWindowWidgets'::`689'::u8_v
?check@?BB@??ShowDemoWindowWidgets@@YAXXZ@4_NA DB 01H	; `ShowDemoWindowWidgets'::`17'::check
?end_i@?CKK@??ShowDemoWindowWidgets@@YAXXZ@4HA DD 03e8H	; `ShowDemoWindowWidgets'::`682'::end_i
?type@?1??ShowExampleAppConstrainedResize@@YAXPEA_N@Z@4HA DD 05H ; `ShowExampleAppConstrainedResize'::`2'::type
?display_lines@?1??ShowExampleAppConstrainedResize@@YAXPEA_N@Z@4HA DD 0aH ; `ShowExampleAppConstrainedResize'::`2'::display_lines
?s16_v@?CLB@??ShowDemoWindowWidgets@@YAXXZ@4FA DW 07fffH ; `ShowDemoWindowWidgets'::`689'::s16_v
?inputs_step@?CLB@??ShowDemoWindowWidgets@@YAXXZ@4_NA DB 01H ; `ShowDemoWindowWidgets'::`689'::inputs_step
?enabled@?CC@??ShowExampleMenuFile@@YAXXZ@4_NA DB 01H	; `ShowExampleMenuFile'::`34'::enabled
?u16_v@?CLB@??ShowDemoWindowWidgets@@YAXXZ@4GA DW 0ffffH ; `ShowDemoWindowWidgets'::`689'::u16_v
?use_work_area@?1??ShowExampleAppFullscreen@@YAXPEA_N@Z@4_NA DB 01H ; `ShowExampleAppFullscreen'::`2'::use_work_area
?b@?CP@??ShowExampleMenuFile@@YAXXZ@4_NA DB 01H		; `ShowExampleMenuFile'::`47'::b
?s32_v@?CLB@??ShowDemoWindowWidgets@@YAXXZ@4HA DD 0ffffffffH ; `ShowDemoWindowWidgets'::`689'::s32_v
?u32_v@?CLB@??ShowDemoWindowWidgets@@YAXXZ@4IA DD 0ffffffffH ; `ShowDemoWindowWidgets'::`689'::u32_v
?f32_v@?CLB@??ShowDemoWindowWidgets@@YAXXZ@4MA DD 03dfbe76dr ; 0.123 ; `ShowDemoWindowWidgets'::`689'::f32_v
?s64_v@?CLB@??ShowDemoWindowWidgets@@YAXXZ@4_JA DQ ffffffffffffffffH ; `ShowDemoWindowWidgets'::`689'::s64_v
?u64_v@?CLB@??ShowDemoWindowWidgets@@YAXXZ@4_KA DQ ffffffffffffffffH ; `ShowDemoWindowWidgets'::`689'::u64_v
?f64_v@?CLB@??ShowDemoWindowWidgets@@YAXXZ@4NA DQ 040f5f900329161f2r ; 90000 ; `ShowDemoWindowWidgets'::`689'::f64_v
?vec4f@?CME@??ShowDemoWindowWidgets@@YAXXZ@4PAMA DD 03dcccccdr ; 0.1 ; `ShowDemoWindowWidgets'::`708'::vec4f
	DD	03e4ccccdr			; 0.2
	DD	03e99999ar			; 0.3
	DD	03ee147aer			; 0.44
?vec4i@?CME@??ShowDemoWindowWidgets@@YAXXZ@4PAHA DD 01H	; `ShowDemoWindowWidgets'::`708'::vec4i
	DD	05H
	DD	064H
	DD	0ffH
?values@?CML@??ShowDemoWindowWidgets@@YAXXZ@4PAMA DD 000000000r ; 0 ; `ShowDemoWindowWidgets'::`715'::values
	DD	03f19999ar			; 0.6
	DD	03eb33333r			; 0.35
	DD	03f666666r			; 0.9
	DD	03f333333r			; 0.7
	DD	03e4ccccdr			; 0.2
	DD	000000000r			; 0
?i0@?EB@??ShowDemoWindowWidgets@@YAXXZ@4HA DD 07bH	; `ShowDemoWindowWidgets'::`65'::i0
?arr@?DO@??ShowDemoWindowWidgets@@YAXXZ@4PAMA DD 03f19999ar ; 0.6 ; `ShowDemoWindowWidgets'::`62'::arr
	DD	03dcccccdr			; 0.1
	DD	03f800000r			; 1
	DD	03f000000r			; 0.5
	DD	03f6b851fr			; 0.92
	DD	03dcccccdr			; 0.1
	DD	03e4ccccdr			; 0.2
?f0@?EB@??ShowDemoWindowWidgets@@YAXXZ@4MA DD 03a83126fr ; 0.001 ; `ShowDemoWindowWidgets'::`65'::f0
?flags@?1??ShowExampleAppFullscreen@@YAXPEA_N@Z@4HA DD 012fH ; `ShowExampleAppFullscreen'::`2'::flags
?f@?CC@??ShowExampleMenuFile@@YAXXZ@4MA DD 03f000000r ; 0.5 ; `ShowExampleMenuFile'::`34'::f
?str0@?EB@??ShowDemoWindowWidgets@@YAXXZ@4PADA DB 'Hello, world!', 00H ; `ShowDemoWindowWidgets'::`65'::str0
	ORG $+114
?values2@?CML@??ShowDemoWindowWidgets@@YAXXZ@4PAMA DD 03e4ccccdr ; 0.2 ; `ShowDemoWindowWidgets'::`715'::values2
	DD	03f4ccccdr			; 0.8
	DD	03ecccccdr			; 0.4
	DD	03e800000r			; 0.25
?d0@?EB@??ShowDemoWindowWidgets@@YAXXZ@4NA DQ 0412e847e00000056r ; 999999 ; `ShowDemoWindowWidgets'::`65'::d0
?f1@?EB@??ShowDemoWindowWidgets@@YAXXZ@4MA DD 0501502f9r ; 1e+10 ; `ShowDemoWindowWidgets'::`65'::f1
?i1@?EK@??ShowDemoWindowWidgets@@YAXXZ@4HA DD 032H	; `ShowDemoWindowWidgets'::`74'::i1
?vec4a@?EB@??ShowDemoWindowWidgets@@YAXXZ@4PAMA DD 03dcccccdr ; 0.1 ; `ShowDemoWindowWidgets'::`65'::vec4a
	DD	03e4ccccdr			; 0.2
	DD	03e99999ar			; 0.3
	DD	03ee147aer			; 0.44
?i2@?EK@??ShowDemoWindowWidgets@@YAXXZ@4HA DD 02aH	; `ShowDemoWindowWidgets'::`74'::i2
?f1@?EK@??ShowDemoWindowWidgets@@YAXXZ@4MA DD 03f800000r ; 1 ; `ShowDemoWindowWidgets'::`74'::f1
?f2@?EK@??ShowDemoWindowWidgets@@YAXXZ@4MA DD 03bdb8bacr ; 0.0067 ; `ShowDemoWindowWidgets'::`74'::f2
?f1@?EP@??ShowDemoWindowWidgets@@YAXXZ@4MA DD 03dfbe76dr ; 0.123 ; `ShowDemoWindowWidgets'::`79'::f1
?col1@?COL@??ShowDemoWindowWidgets@@YAXXZ@4PAMA DD 03f800000r ; 1 ; `ShowDemoWindowWidgets'::`747'::col1
	DD	000000000r			; 0
	DD	03e4ccccdr			; 0.2
?flags@?DB@??ShowDemoWindowTables@@YAXXZ@4HA DD 07c0H	; `ShowDemoWindowTables'::`49'::flags
?col2@?COL@??ShowDemoWindowWidgets@@YAXXZ@4PAMA DD 03ecccccdr ; 0.4 ; `ShowDemoWindowWidgets'::`747'::col2
	DD	03f333333r			; 0.7
	DD	000000000r			; 0
	DD	03f000000r			; 0.5
?names@?CPC@??ShowDemoWindowWidgets@@YAXXZ@4PAPEBDA DQ FLAT:??_C@_05DDEOPHNO@Bobby?$AA@ ; `ShowDemoWindowWidgets'::`754'::names
	DQ	FLAT:??_C@_08FLMMIHDE@Beatrice?$AA@
	DQ	FLAT:??_C@_05BECHDIPO@Betty?$AA@
	DQ	FLAT:??_C@_07OEGNBIJH@Brianna?$AA@
	DQ	FLAT:??_C@_05MAEBLNFA@Barry?$AA@
	DQ	FLAT:??_C@_07JNHNGBFJ@Bernard?$AA@
	DQ	FLAT:??_C@_04KCKMHEOC@Bibi?$AA@
	DQ	FLAT:??_C@_06HGIOBEEM@Blaine?$AA@
	DQ	FLAT:??_C@_04HKIGHOCK@Bryn?$AA@
?col1@?FM@??ShowDemoWindowWidgets@@YAXXZ@4PAMA DD 03f800000r ; 1 ; `ShowDemoWindowWidgets'::`92'::col1
	DD	000000000r			; 0
	DD	03e4ccccdr			; 0.2
?item_current@?GG@??ShowDemoWindowWidgets@@YAXXZ@4HA DD 01H ; `ShowDemoWindowWidgets'::`102'::item_current
?col2@?FM@??ShowDemoWindowWidgets@@YAXXZ@4PAMA DD 03ecccccdr ; 0.4 ; `ShowDemoWindowWidgets'::`92'::col2
	DD	03f333333r			; 0.7
	DD	000000000r			; 0
	DD	03f000000r			; 0.5
?item_names@?DCB@??ShowDemoWindowWidgets@@YAXXZ@4PAPEBDA DQ FLAT:??_C@_08HGEMKAAG@Item?5One?$AA@ ; `ShowDemoWindowWidgets'::`801'::item_names
	DQ	FLAT:??_C@_08BIEMAAON@Item?5Two?$AA@
	DQ	FLAT:??_C@_0L@PNIFIMNF@Item?5Three?$AA@
	DQ	FLAT:??_C@_09FNJGFEIF@Item?5Four?$AA@
	DQ	FLAT:??_C@_09HPDIDBJG@Item?5Five?$AA@
?show_indented_items@?CM@??ShowDemoWindowLayout@@YAXXZ@4_NA DB 01H ; `ShowDemoWindowLayout'::`44'::show_indented_items
?closable_group@?LA@??ShowDemoWindowWidgets@@YAXXZ@4_NA DB 01H ; `ShowDemoWindowWidgets'::`176'::closable_group
?show_widget_frame_bg@?JH@??ShowDemoWindowTables@@YAXXZ@4_NA DB 01H ; `ShowDemoWindowTables'::`151'::show_widget_frame_bg
?init@?KJ@??ShowDemoWindowTables@@YAXXZ@4_NA DB 01H	; `ShowDemoWindowTables'::`169'::init
?flags@?EJ@??ShowDemoWindowTables@@YAXXZ@4HA DD 08721H	; `ShowDemoWindowTables'::`73'::flags
?base_flags@?IJ@??ShowDemoWindowWidgets@@YAXXZ@4HA DD 08c0H ; `ShowDemoWindowWidgets'[::J]::base_flags
?item_type@?DDA@??ShowDemoWindowWidgets@@YAXXZ@4HA DD 04H ; `ShowDemoWindowWidgets'::`816'::item_type
?selection_mask@?IJ@??ShowDemoWindowWidgets@@YAXXZ@4HA DD 04H ; `ShowDemoWindowWidgets'[::J]::selection_mask
?sz@?P@??ShowExampleAppCustomRendering@@YAXPEA_N@Z@4MA DD 042100000r ; 36 ; `ShowExampleAppCustomRendering'::`15'::sz
?thickness@?P@??ShowExampleAppCustomRendering@@YAXPEA_N@Z@4MA DD 040400000r ; 3 ; `ShowExampleAppCustomRendering'::`15'::thickness
?ngon_sides@?P@??ShowExampleAppCustomRendering@@YAXPEA_N@Z@4HA DD 06H ; `ShowExampleAppCustomRendering'::`15'::ngon_sides
?col4f@?DDA@??ShowDemoWindowWidgets@@YAXXZ@4PAMA DD 03f800000r ; 1 ; `ShowDemoWindowWidgets'::`816'::col4f
	DD	03f000000r			; 0.5
	DD	000000000r			; 0
	DD	03f800000r			; 1
?circle_segments_override_v@?P@??ShowExampleAppCustomRendering@@YAXPEA_N@Z@4HA DD 0cH ; `ShowExampleAppCustomRendering'::`15'::circle_segments_override_v
?flags@?FJ@??ShowDemoWindowTables@@YAXXZ@4HA DD 02721H	; `ShowDemoWindowTables'::`89'::flags
?curve_segments_override_v@?P@??ShowExampleAppCustomRendering@@YAXPEA_N@Z@4HA DD 08H ; `ShowExampleAppCustomRendering'::`15'::curve_segments_override_v
?current@?DGB@??ShowDemoWindowWidgets@@YAXXZ@4HA DD 01H	; `ShowDemoWindowWidgets'::`865'::current
?f0@?EC@??ShowDemoWindowLayout@@YAXXZ@4MA DD 03f800000r ; 1 ; `ShowDemoWindowLayout'::`66'::f0
?flags@?GJ@??ShowDemoWindowTables@@YAXXZ@4HA DD 027c7H	; `ShowDemoWindowTables'::`105'::flags
?current@?DGE@??ShowDemoWindowWidgets@@YAXXZ@4HA DD 01H	; `ShowDemoWindowWidgets'::`868'::current
?f1@?EC@??ShowDemoWindowLayout@@YAXXZ@4MA DD 040000000r ; 2 ; `ShowDemoWindowLayout'::`66'::f1
?f2@?EC@??ShowDemoWindowLayout@@YAXXZ@4MA DD 040400000r ; 3 ; `ShowDemoWindowLayout'::`66'::f2
?item@?EC@??ShowDemoWindowLayout@@YAXXZ@4HA DD 0ffffffffH ; `ShowDemoWindowLayout'::`66'::item
?selection@?EC@??ShowDemoWindowLayout@@YAXXZ@4PAHA DD 00H ; `ShowDemoWindowLayout'::`66'::selection
	DD	01H
	DD	02H
	DD	03H
?wrap_width@?NH@??ShowDemoWindowWidgets@@YAXXZ@4MA DD 043480000r ; 200 ; `ShowDemoWindowWidgets'::`215'::wrap_width
?flags@?IA@??ShowDemoWindowTables@@YAXXZ@4HA DD 0707H	; `ShowDemoWindowTables'[::A]::flags
?flags1@?JH@??ShowDemoWindowTables@@YAXXZ@4HA DD 0600H	; `ShowDemoWindowTables'::`151'::flags1
?flags2@?JH@??ShowDemoWindowTables@@YAXXZ@4HA DD 07c0H	; `ShowDemoWindowTables'::`151'::flags2
?buf@?OD@??ShowDemoWindowWidgets@@YAXXZ@4PADA DB 0e6H, 097H, 0a5H, 0e6H, 09cH
	DB	0acH, 0e8H, 0aaH, 09eH, 00H			; `ShowDemoWindowWidgets'::`227'::buf
	ORG $+22
?track_item@?IE@??ShowDemoWindowLayout@@YAXXZ@4HA DD 032H ; `ShowDemoWindowLayout'[::E]::track_item
?flags1@?LK@??ShowDemoWindowTables@@YAXXZ@4HA DD 0760H	; `ShowDemoWindowTables'::`186'::flags1
?enable_track@?IE@??ShowDemoWindowLayout@@YAXXZ@4_NA DB 01H ; `ShowDemoWindowLayout'[::E]::enable_track
?opt_enable_grid@?BG@??ShowExampleAppCustomRendering@@YAXPEA_N@Z@4_NA DB 01H ; `ShowExampleAppCustomRendering'::`22'::opt_enable_grid
?opt_enable_context_menu@?BG@??ShowExampleAppCustomRendering@@YAXPEA_N@Z@4_NA DB 01H ; `ShowExampleAppCustomRendering'::`22'::opt_enable_context_menu
?h_borders@?BP@??ShowDemoWindowColumns@@YAXXZ@4_NA DB 01H ; `ShowDemoWindowColumns'::`31'::h_borders
?scroll_to_pos_px@?IE@??ShowDemoWindowLayout@@YAXXZ@4MA DD 043480000r ; 200 ; `ShowDemoWindowLayout'[::E]::scroll_to_pos_px
?sizing_policy_flags@?LK@??ShowDemoWindowTables@@YAXXZ@4PAHA DD 02000H ; `ShowDemoWindowTables'::`186'::sizing_policy_flags
	DD	04000H
	DD	06000H
	DD	08000H
?flags@?LK@??ShowDemoWindowTables@@YAXXZ@4HA DD 020007c1H ; `ShowDemoWindowTables'::`186'::flags
?column_count@?LK@??ShowDemoWindowTables@@YAXXZ@4HA DD 03H ; `ShowDemoWindowTables'::`186'::column_count
?item_current_3@?BAP@??ShowDemoWindowWidgets@@YAXXZ@4HA DD 0ffffffffH ; `ShowDemoWindowWidgets'::`271'::item_current_3
?selected@?P@??ShowDemoWindowColumns@@YAXXZ@4HA DD 0ffffffffH ; `ShowDemoWindowColumns'::`15'::selected
?flags@?NJ@??ShowDemoWindowTables@@YAXXZ@4HA DD 02000747H ; `ShowDemoWindowTables'::`217'::flags
?lines@?IE@??ShowDemoWindowLayout@@YAXXZ@4HA DD 07H	; `ShowDemoWindowLayout'[::E]::lines
?v_borders@?BP@??ShowDemoWindowColumns@@YAXXZ@4_NA DB 01H ; `ShowDemoWindowColumns'::`31'::v_borders
?draw_bg@?DL@??ShowExampleAppCustomRendering@@YAXPEA_N@Z@4_NA DB 01H ; `ShowExampleAppCustomRendering'::`59'::draw_bg
?draw_fg@?DL@??ShowExampleAppCustomRendering@@YAXPEA_N@Z@4_NA DB 01H ; `ShowExampleAppCustomRendering'::`59'::draw_fg
?show_h_scrollbar@?ML@??ShowDemoWindowLayout@@YAXXZ@4_NA DB 01H ; `ShowDemoWindowLayout'::`203'::show_h_scrollbar
?columns_count@?BP@??ShowDemoWindowColumns@@YAXXZ@4HA DD 04H ; `ShowDemoWindowColumns'::`31'::columns_count
?flags@?OL@??ShowDemoWindowTables@@YAXXZ@4HA DD 03000747H ; `ShowDemoWindowTables'::`235'::flags
?freeze_cols@?OL@??ShowDemoWindowTables@@YAXXZ@4HA DD 01H ; `ShowDemoWindowTables'::`235'::freeze_cols
?freeze_rows@?OL@??ShowDemoWindowTables@@YAXXZ@4HA DD 01H ; `ShowDemoWindowTables'::`235'::freeze_rows
?foo@?CO@??ShowDemoWindowColumns@@YAXXZ@4MA DD 03f800000r ; 1 ; `ShowDemoWindowColumns'::`46'::foo
?bar@?CO@??ShowDemoWindowColumns@@YAXXZ@4MA DD 03f800000r ; 1 ; `ShowDemoWindowColumns'::`46'::bar
?selection@?BED@??ShowDemoWindowWidgets@@YAXXZ@4PA_NA DB 00H ; `ShowDemoWindowWidgets'::`323'::selection
	DB	01H
	DB	00H
	DB	00H
	DB	00H
?show_button@?ML@??ShowDemoWindowLayout@@YAXXZ@4_NA DB 01H ; `ShowDemoWindowLayout'::`203'::show_button
?show_tree_nodes@?ML@??ShowDemoWindowLayout@@YAXXZ@4_NA DB 01H ; `ShowDemoWindowLayout'::`203'::show_tree_nodes
?show_columns@?ML@??ShowDemoWindowLayout@@YAXXZ@4_NA DB 01H ; `ShowDemoWindowLayout'::`203'::show_columns
?flags2@?OL@??ShowDemoWindowTables@@YAXXZ@4HA DD 03008560H ; `ShowDemoWindowTables'::`235'::flags2
?inner_width@?OL@??ShowDemoWindowTables@@YAXXZ@4MA DD 0447a0000r ; 1000 ; `ShowDemoWindowTables'::`235'::inner_width
?selected@?BEO@??ShowDemoWindowWidgets@@YAXXZ@4HA DD 0ffffffffH ; `ShowDemoWindowWidgets'::`334'::selected
?column_flags@?BAF@??ShowDemoWindowTables@@YAXXZ@4PAHA DD 04H ; `ShowDemoWindowTables'::`261'::column_flags
	DD	00H
	DD	02H
?show_tab_bar@?ML@??ShowDemoWindowLayout@@YAXXZ@4_NA DB 01H ; `ShowDemoWindowLayout'::`203'::show_tab_bar
	ORG $+3
?contents_size_x@?ML@??ShowDemoWindowLayout@@YAXXZ@4MA DD 043960000r ; 300 ; `ShowDemoWindowLayout'::`203'::contents_size_x
?flags1@?BBM@??ShowDemoWindowTables@@YAXXZ@4HA DD 01780H ; `ShowDemoWindowTables'::`284'::flags1
?selected@?BHP@??ShowDemoWindowWidgets@@YAXXZ@4PAY03DA DB 01H ; `ShowDemoWindowWidgets'::`383'::selected
	DB	00H
	DB	00H
	DB	00H
	DB	00H
	DB	01H
	DB	00H
	DB	00H
	DB	00H
	DB	00H
	DB	01H
	DB	00H
	DB	00H
	DB	00H
	DB	00H
	DB	01H
?selected@?BJO@??ShowDemoWindowWidgets@@YAXXZ@4PA_NA DB 01H ; `ShowDemoWindowWidgets'::`414'::selected
	DB	00H
	DB	01H
	DB	00H
	DB	01H
	DB	00H
	DB	01H
	DB	00H
	DB	01H
_DATA	ENDS
PUBLIC	??_H@YAXPEAX_K1P6APEAX0@Z@Z			; `vector constructor iterator'
PUBLIC	?memchr@@YAPEAXPEAXH_K@Z			; memchr
PUBLIC	??0ImVec2@@QEAA@XZ				; ImVec2::ImVec2
PUBLIC	??0ImVec2@@QEAA@MM@Z				; ImVec2::ImVec2
PUBLIC	??0ImVec4@@QEAA@XZ				; ImVec4::ImVec4
PUBLIC	??0ImVec4@@QEAA@MMMM@Z				; ImVec4::ImVec4
PUBLIC	?ShowDemoWindow@ImGui@@YAXPEA_N@Z		; ImGui::ShowDemoWindow
PUBLIC	?ShowAboutWindow@ImGui@@YAXPEA_N@Z		; ImGui::ShowAboutWindow
PUBLIC	?ShowStyleEditor@ImGui@@YAXPEAUImGuiStyle@@@Z	; ImGui::ShowStyleEditor
PUBLIC	?ShowStyleSelector@ImGui@@YA_NPEBD@Z		; ImGui::ShowStyleSelector
PUBLIC	?ShowFontSelector@ImGui@@YAXPEBD@Z		; ImGui::ShowFontSelector
PUBLIC	?ShowUserGuide@ImGui@@YAXXZ			; ImGui::ShowUserGuide
PUBLIC	??A?$ImVector@G@@QEAAAEAGH@Z			; ImVector<unsigned short>::operator[]
PUBLIC	?SelectAll@ImGuiInputTextCallbackData@@QEAAXXZ	; ImGuiInputTextCallbackData::SelectAll
PUBLIC	?IsActive@ImGuiTextFilter@@QEBA_NXZ		; ImGuiTextFilter::IsActive
PUBLIC	??1?$ImVector@UImGuiTextRange@ImGuiTextFilter@@@@QEAA@XZ ; ImVector<ImGuiTextFilter::ImGuiTextRange>::~ImVector<ImGuiTextFilter::ImGuiTextRange>
PUBLIC	?empty@?$ImVector@UImGuiTextRange@ImGuiTextFilter@@@@QEBA_NXZ ; ImVector<ImGuiTextFilter::ImGuiTextRange>::empty
PUBLIC	??1ImGuiTextFilter@@QEAA@XZ			; ImGuiTextFilter::~ImGuiTextFilter
PUBLIC	??0?$ImVector@D@@QEAA@XZ			; ImVector<char>::ImVector<char>
PUBLIC	??1?$ImVector@D@@QEAA@XZ			; ImVector<char>::~ImVector<char>
PUBLIC	?clear@?$ImVector@D@@QEAAXXZ			; ImVector<char>::clear
PUBLIC	?empty@?$ImVector@D@@QEBA_NXZ			; ImVector<char>::empty
PUBLIC	?size@?$ImVector@D@@QEBAHXZ			; ImVector<char>::size
PUBLIC	?capacity@?$ImVector@D@@QEBAHXZ			; ImVector<char>::capacity
PUBLIC	?begin@?$ImVector@D@@QEAAPEADXZ			; ImVector<char>::begin
PUBLIC	?front@?$ImVector@D@@QEBAAEBDXZ			; ImVector<char>::front
PUBLIC	?back@?$ImVector@D@@QEBAAEBDXZ			; ImVector<char>::back
PUBLIC	?_grow_capacity@?$ImVector@D@@QEBAHH@Z		; ImVector<char>::_grow_capacity
PUBLIC	?resize@?$ImVector@D@@QEAAXH@Z			; ImVector<char>::resize
PUBLIC	?reserve@?$ImVector@D@@QEAAXH@Z			; ImVector<char>::reserve
PUBLIC	?push_back@?$ImVector@D@@QEAAXAEBD@Z		; ImVector<char>::push_back
PUBLIC	??0ImGuiTextBuffer@@QEAA@XZ			; ImGuiTextBuffer::ImGuiTextBuffer
PUBLIC	??AImGuiTextBuffer@@QEBADH@Z			; ImGuiTextBuffer::operator[]
PUBLIC	?begin@ImGuiTextBuffer@@QEBAPEBDXZ		; ImGuiTextBuffer::begin
PUBLIC	?end@ImGuiTextBuffer@@QEBAPEBDXZ		; ImGuiTextBuffer::end
PUBLIC	?size@ImGuiTextBuffer@@QEBAHXZ			; ImGuiTextBuffer::size
PUBLIC	?clear@ImGuiTextBuffer@@QEAAXXZ			; ImGuiTextBuffer::clear
PUBLIC	??1ImGuiTextBuffer@@QEAA@XZ			; ImGuiTextBuffer::~ImGuiTextBuffer
PUBLIC	??0ImColor@@QEAA@MMMM@Z				; ImColor::ImColor
PUBLIC	??0ImColor@@QEAA@AEBUImVec4@@@Z			; ImColor::ImColor
PUBLIC	??BImColor@@QEBAIXZ				; ImColor::operator unsigned int
PUBLIC	??BImColor@@QEBA?AUImVec4@@XZ			; ImColor::operator ImVec4
PUBLIC	?HSV@ImColor@@SA?AU1@MMMM@Z			; ImColor::HSV
PUBLIC	??0?$ImVector@UImVec2@@@@QEAA@XZ		; ImVector<ImVec2>::ImVector<ImVec2>
PUBLIC	??1?$ImVector@UImVec2@@@@QEAA@XZ		; ImVector<ImVec2>::~ImVector<ImVec2>
PUBLIC	?clear@?$ImVector@UImVec2@@@@QEAAXXZ		; ImVector<ImVec2>::clear
PUBLIC	?size@?$ImVector@UImVec2@@@@QEBAHXZ		; ImVector<ImVec2>::size
PUBLIC	??A?$ImVector@UImVec2@@@@QEAAAEAUImVec2@@H@Z	; ImVector<ImVec2>::operator[]
PUBLIC	?back@?$ImVector@UImVec2@@@@QEAAAEAUImVec2@@XZ	; ImVector<ImVec2>::back
PUBLIC	?_grow_capacity@?$ImVector@UImVec2@@@@QEBAHH@Z	; ImVector<ImVec2>::_grow_capacity
PUBLIC	?resize@?$ImVector@UImVec2@@@@QEAAXH@Z		; ImVector<ImVec2>::resize
PUBLIC	?reserve@?$ImVector@UImVec2@@@@QEAAXH@Z		; ImVector<ImVec2>::reserve
PUBLIC	?push_back@?$ImVector@UImVec2@@@@QEAAXAEBUImVec2@@@Z ; ImVector<ImVec2>::push_back
PUBLIC	??A?$ImVector@PEAUImFont@@@@QEAAAEAPEAUImFont@@H@Z ; ImVector<ImFont * __ptr64>::operator[]
PUBLIC	?GetDebugName@ImFont@@QEBAPEBDXZ		; ImFont::GetDebugName
PUBLIC	?GetCenter@ImGuiViewport@@QEBA?AUImVec2@@XZ	; ImGuiViewport::GetCenter
PUBLIC	__local_stdio_printf_options
PUBLIC	??$__vcrt_va_start_verify_argument_type@QEBD@@YAXXZ ; __vcrt_va_start_verify_argument_type<char const * __ptr64 const>
PUBLIC	_vsnprintf_l
PUBLIC	_vsnprintf
PUBLIC	_vsprintf_l
PUBLIC	sprintf
PUBLIC	_snprintf
PUBLIC	??0?$ImVector@H@@QEAA@XZ			; ImVector<int>::ImVector<int>
PUBLIC	??1?$ImVector@H@@QEAA@XZ			; ImVector<int>::~ImVector<int>
PUBLIC	?clear@?$ImVector@H@@QEAAXXZ			; ImVector<int>::clear
PUBLIC	??A?$ImVector@H@@QEAAAEAHH@Z			; ImVector<int>::operator[]
PUBLIC	?_grow_capacity@?$ImVector@H@@QEBAHH@Z		; ImVector<int>::_grow_capacity
PUBLIC	?reserve@?$ImVector@H@@QEAAXH@Z			; ImVector<int>::reserve
PUBLIC	?push_back@?$ImVector@H@@QEAAXAEBH@Z		; ImVector<int>::push_back
PUBLIC	?erase@?$ImVector@H@@QEAAPEAHPEBH@Z		; ImVector<int>::erase
PUBLIC	?erase_unsorted@?$ImVector@H@@QEAAPEAHPEBH@Z	; ImVector<int>::erase_unsorted
PUBLIC	?contains@?$ImVector@H@@QEBA_NAEBH@Z		; ImVector<int>::contains
PUBLIC	?find@?$ImVector@H@@QEAAPEAHAEBH@Z		; ImVector<int>::find
PUBLIC	?find_erase_unsorted@?$ImVector@H@@QEAA_NAEBH@Z	; ImVector<int>::find_erase_unsorted
PUBLIC	??0?$ImVector@UMyItem@?A0x1ed25892@@@@QEAA@XZ	; ImVector<`anonymous namespace'::MyItem>::ImVector<`anonymous namespace'::MyItem>
PUBLIC	??1?$ImVector@UMyItem@?A0x1ed25892@@@@QEAA@XZ	; ImVector<`anonymous namespace'::MyItem>::~ImVector<`anonymous namespace'::MyItem>
PUBLIC	??A?$ImVector@UMyItem@?A0x1ed25892@@@@QEAAAEAUMyItem@?A0x1ed25892@@H@Z ; ImVector<`anonymous namespace'::MyItem>::operator[]
PUBLIC	?_grow_capacity@?$ImVector@UMyItem@?A0x1ed25892@@@@QEBAHH@Z ; ImVector<`anonymous namespace'::MyItem>::_grow_capacity
PUBLIC	?resize@?$ImVector@UMyItem@?A0x1ed25892@@@@QEAAXHAEBUMyItem@?A0x1ed25892@@@Z ; ImVector<`anonymous namespace'::MyItem>::resize
PUBLIC	?reserve@?$ImVector@UMyItem@?A0x1ed25892@@@@QEAAXH@Z ; ImVector<`anonymous namespace'::MyItem>::reserve
PUBLIC	??0?$ImVector@PEAD@@QEAA@XZ			; ImVector<char * __ptr64>::ImVector<char * __ptr64>
PUBLIC	??1?$ImVector@PEAD@@QEAA@XZ			; ImVector<char * __ptr64>::~ImVector<char * __ptr64>
PUBLIC	?clear@?$ImVector@PEAD@@QEAAXXZ			; ImVector<char * __ptr64>::clear
PUBLIC	??A?$ImVector@PEAD@@QEAAAEAPEADH@Z		; ImVector<char * __ptr64>::operator[]
PUBLIC	?begin@?$ImVector@PEAD@@QEAAPEAPEADXZ		; ImVector<char * __ptr64>::begin
PUBLIC	?_grow_capacity@?$ImVector@PEAD@@QEBAHH@Z	; ImVector<char * __ptr64>::_grow_capacity
PUBLIC	?reserve@?$ImVector@PEAD@@QEAAXH@Z		; ImVector<char * __ptr64>::reserve
PUBLIC	?push_back@?$ImVector@PEAD@@QEAAXAEBQEAD@Z	; ImVector<char * __ptr64>::push_back
PUBLIC	?erase@?$ImVector@PEAD@@QEAAPEAPEADPEBQEAD@Z	; ImVector<char * __ptr64>::erase
PUBLIC	??0?$ImVector@PEBD@@QEAA@XZ			; ImVector<char const * __ptr64>::ImVector<char const * __ptr64>
PUBLIC	??1?$ImVector@PEBD@@QEAA@XZ			; ImVector<char const * __ptr64>::~ImVector<char const * __ptr64>
PUBLIC	??A?$ImVector@PEBD@@QEAAAEAPEBDH@Z		; ImVector<char const * __ptr64>::operator[]
PUBLIC	?_grow_capacity@?$ImVector@PEBD@@QEBAHH@Z	; ImVector<char const * __ptr64>::_grow_capacity
PUBLIC	?reserve@?$ImVector@PEBD@@QEAAXH@Z		; ImVector<char const * __ptr64>::reserve
PUBLIC	?push_back@?$ImVector@PEBD@@QEAAXAEBQEBD@Z	; ImVector<char const * __ptr64>::push_back
PUBLIC	??0ExampleAppConsole@@QEAA@XZ			; ExampleAppConsole::ExampleAppConsole
PUBLIC	??1ExampleAppConsole@@QEAA@XZ			; ExampleAppConsole::~ExampleAppConsole
PUBLIC	?Stricmp@ExampleAppConsole@@SAHPEBD0@Z		; ExampleAppConsole::Stricmp
PUBLIC	?Strnicmp@ExampleAppConsole@@SAHPEBD0H@Z	; ExampleAppConsole::Strnicmp
PUBLIC	?Strdup@ExampleAppConsole@@SAPEADPEBD@Z		; ExampleAppConsole::Strdup
PUBLIC	?Strtrim@ExampleAppConsole@@SAXPEAD@Z		; ExampleAppConsole::Strtrim
PUBLIC	?ClearLog@ExampleAppConsole@@QEAAXXZ		; ExampleAppConsole::ClearLog
PUBLIC	?AddLog@ExampleAppConsole@@QEAAXPEBDZZ		; ExampleAppConsole::AddLog
PUBLIC	?Draw@ExampleAppConsole@@QEAAXPEBDPEA_N@Z	; ExampleAppConsole::Draw
PUBLIC	?ExecCommand@ExampleAppConsole@@QEAAXPEBD@Z	; ExampleAppConsole::ExecCommand
PUBLIC	?TextEditCallbackStub@ExampleAppConsole@@SAHPEAUImGuiInputTextCallbackData@@@Z ; ExampleAppConsole::TextEditCallbackStub
PUBLIC	?TextEditCallback@ExampleAppConsole@@QEAAHPEAUImGuiInputTextCallbackData@@@Z ; ExampleAppConsole::TextEditCallback
PUBLIC	??$__vcrt_va_start_verify_argument_type@PEBD@@YAXXZ ; __vcrt_va_start_verify_argument_type<char const * __ptr64>
PUBLIC	??0ExampleAppLog@@QEAA@XZ			; ExampleAppLog::ExampleAppLog
PUBLIC	?Clear@ExampleAppLog@@QEAAXXZ			; ExampleAppLog::Clear
PUBLIC	?AddLog@ExampleAppLog@@QEAAXPEBDZZ		; ExampleAppLog::AddLog
PUBLIC	?Draw@ExampleAppLog@@QEAAXPEBDPEA_N@Z		; ExampleAppLog::Draw
PUBLIC	??1ExampleAppLog@@QEAA@XZ			; ExampleAppLog::~ExampleAppLog
PUBLIC	??0MyDocument@@QEAA@PEBD_NAEBUImVec4@@@Z	; MyDocument::MyDocument
PUBLIC	?DoOpen@MyDocument@@QEAAXXZ			; MyDocument::DoOpen
PUBLIC	?DoQueueClose@MyDocument@@QEAAXXZ		; MyDocument::DoQueueClose
PUBLIC	?DoForceClose@MyDocument@@QEAAXXZ		; MyDocument::DoForceClose
PUBLIC	?DoSave@MyDocument@@QEAAXXZ			; MyDocument::DoSave
PUBLIC	?DisplayContents@MyDocument@@SAXPEAU1@@Z	; MyDocument::DisplayContents
PUBLIC	?DisplayContextMenu@MyDocument@@SAXPEAU1@@Z	; MyDocument::DisplayContextMenu
PUBLIC	??0?$ImVector@UMyDocument@@@@QEAA@XZ		; ImVector<MyDocument>::ImVector<MyDocument>
PUBLIC	??1?$ImVector@UMyDocument@@@@QEAA@XZ		; ImVector<MyDocument>::~ImVector<MyDocument>
PUBLIC	??A?$ImVector@UMyDocument@@@@QEAAAEAUMyDocument@@H@Z ; ImVector<MyDocument>::operator[]
PUBLIC	?_grow_capacity@?$ImVector@UMyDocument@@@@QEBAHH@Z ; ImVector<MyDocument>::_grow_capacity
PUBLIC	?reserve@?$ImVector@UMyDocument@@@@QEAAXH@Z	; ImVector<MyDocument>::reserve
PUBLIC	?push_back@?$ImVector@UMyDocument@@@@QEAAXAEBUMyDocument@@@Z ; ImVector<MyDocument>::push_back
PUBLIC	??0ExampleAppDocuments@@QEAA@XZ			; ExampleAppDocuments::ExampleAppDocuments
PUBLIC	??1ExampleAppDocuments@@QEAA@XZ			; ExampleAppDocuments::~ExampleAppDocuments
PUBLIC	??0?$ImVector@PEAUMyDocument@@@@QEAA@XZ		; ImVector<MyDocument * __ptr64>::ImVector<MyDocument * __ptr64>
PUBLIC	??1?$ImVector@PEAUMyDocument@@@@QEAA@XZ		; ImVector<MyDocument * __ptr64>::~ImVector<MyDocument * __ptr64>
PUBLIC	?clear@?$ImVector@PEAUMyDocument@@@@QEAAXXZ	; ImVector<MyDocument * __ptr64>::clear
PUBLIC	?empty@?$ImVector@PEAUMyDocument@@@@QEBA_NXZ	; ImVector<MyDocument * __ptr64>::empty
PUBLIC	??A?$ImVector@PEAUMyDocument@@@@QEAAAEAPEAUMyDocument@@H@Z ; ImVector<MyDocument * __ptr64>::operator[]
PUBLIC	?_grow_capacity@?$ImVector@PEAUMyDocument@@@@QEBAHH@Z ; ImVector<MyDocument * __ptr64>::_grow_capacity
PUBLIC	?reserve@?$ImVector@PEAUMyDocument@@@@QEAAXH@Z	; ImVector<MyDocument * __ptr64>::reserve
PUBLIC	?push_back@?$ImVector@PEAUMyDocument@@@@QEAAXAEBQEAUMyDocument@@@Z ; ImVector<MyDocument * __ptr64>::push_back
PUBLIC	??_C@_1EO@MGODAGF@?$AAc?$AA?3?$AA?2?$AAg?$AAi?$AAt?$AAh?$AAu?$AAb?$AA?2?$AAf?$AAr?$AAa?$AAm?$AAe?$AAw?$AAo?$AAr?$AAk?$AA?2?$AAt?$AAo?$AAo?$AAl?$AA?2?$AAi?$AAm?$AAg?$AAu?$AAi?$AA?2?$AAi@ ; `string'
PUBLIC	??_C@_1BM@COLNJNAB@?$AAB?$AAu?$AAf?$AA?4?$AAD?$AAa?$AAt?$AAa?$AA?5?$AA?$CB?$AA?$DN?$AA?5?$AA0?$AA?$AA@ ; `string'
PUBLIC	??_C@_09EEKGDCPH@?$DMunknown?$DO?$AA@		; `string'
PUBLIC	?_OptionsStorage@?1??__local_stdio_printf_options@@9@4_KA ; `__local_stdio_printf_options'::`2'::_OptionsStorage
PUBLIC	??_C@_03NAEMJKHE@?$CI?$DP?$CJ?$AA@		; `string'
PUBLIC	?__LINE__Var@?0??ShowDemoWindow@ImGui@@YAXPEA_N@Z@4JA ; `ImGui::ShowDemoWindow'::`1'::__LINE__Var
PUBLIC	??_C@_0DD@MGKHNCLH@Missing?5dear?5imgui?5context?4?5Refe@ ; `string'
PUBLIC	??_C@_1FM@DPDGFNDC@?$AAc?$AA?3?$AA?2?$AAg?$AAi?$AAt?$AAh?$AAu?$AAb?$AA?2?$AAf?$AAr?$AAa?$AAm?$AAe?$AAw?$AAo?$AAr?$AAk?$AA?2?$AAt?$AAo?$AAo?$AAl?$AA?2?$AAi?$AAm?$AAg?$AAu?$AAi?$AA?2?$AAi@ ; `string'
PUBLIC	??_C@_1LA@COADBOEK@?$AAI?$AAm?$AAG?$AAu?$AAi?$AA?3?$AA?3?$AAG?$AAe?$AAt?$AAC?$AAu?$AAr?$AAr?$AAe?$AAn?$AAt?$AAC?$AAo?$AAn?$AAt?$AAe?$AAx?$AAt?$AA?$CI?$AA?$CJ?$AA?5?$AA?$CB?$AA?$DN?$AA?5?$AA0?$AA?5@ ; `string'
PUBLIC	??_C@_0BI@DDJBLHAK@Dear?5ImGui?5Style?5Editor?$AA@ ; `string'
PUBLIC	??_C@_0BA@IGMFAKOE@Dear?5ImGui?5Demo?$AA@	; `string'
PUBLIC	??_C@_04IFEHPILC@Menu?$AA@			; `string'
PUBLIC	??_C@_09CENEJNFC@Menu?1File?$AA@		; `string'
PUBLIC	??_C@_0CO@PPMGEAFH@c?3?2github?2framework?2tool?2imgui?2i@ ; `string'
PUBLIC	??_C@_08KJMBPHGD@Examples?$AA@			; `string'
PUBLIC	??_C@_0O@ILKMGNBH@Menu?1Examples?$AA@		; `string'
PUBLIC	??_C@_0O@ECNFCDDH@Main?5menu?5bar?$AA@		; `string'
PUBLIC	??_C@_07PGLPGHFC@Console?$AA@			; `string'
PUBLIC	??_C@_03GGEOLGBL@Log?$AA@			; `string'
PUBLIC	??_C@_0O@JBJOEMFC@Simple?5layout?$AA@		; `string'
PUBLIC	??_C@_0BA@DNAHAJCI@Property?5editor?$AA@	; `string'
PUBLIC	??_C@_0BC@INJCBODH@Long?5text?5display?$AA@	; `string'
PUBLIC	??_C@_0BF@OHKJAELB@Auto?9resizing?5window?$AA@	; `string'
PUBLIC	??_C@_0BM@CJMMFMCL@Constrained?9resizing?5window?$AA@ ; `string'
PUBLIC	??_C@_0P@IMGHCBNF@Simple?5overlay?$AA@		; `string'
PUBLIC	??_C@_0BC@EPMOEMI@Fullscreen?5window?$AA@	; `string'
PUBLIC	??_C@_0BL@MDGJIIDL@Manipulating?5window?5titles?$AA@ ; `string'
PUBLIC	??_C@_0BB@MLNDPKFI@Custom?5rendering?$AA@	; `string'
PUBLIC	??_C@_09IBGBKIMC@Documents?$AA@			; `string'
PUBLIC	??_C@_05OENKALAF@Tools?$AA@			; `string'
PUBLIC	??_C@_0L@FNGJAMCB@Menu?1Tools?$AA@		; `string'
PUBLIC	??_C@_0BB@DAKIBJMB@Metrics?1Debugger?$AA@	; `string'
PUBLIC	??_C@_09NNILCKOM@Debug?5Log?$AA@		; `string'
PUBLIC	??_C@_0L@DFPCNJKK@Stack?5Tool?$AA@		; `string'
PUBLIC	??_C@_0N@GJBKNEHA@Style?5Editor?$AA@		; `string'
PUBLIC	??_C@_0BB@NKKLPDOL@About?5Dear?5ImGui?$AA@	; `string'
PUBLIC	??_C@_0L@GMOEAHPG@1?489?43?5WIP?$AA@		; `string'
PUBLIC	??_C@_0CB@NIEBLCEF@dear?5imgui?5says?5hello?$CB?5?$CI?$CFs?$CJ?5?$CI?$CFd?$CJ@ ; `string'
PUBLIC	??_C@_04DDFEFHOJ@Help?$AA@			; `string'
PUBLIC	??_C@_0BB@LJBDHCFD@ABOUT?5THIS?5DEMO?3?$AA@	; `string'
PUBLIC	??_C@_0DO@FBJHOIEP@Sections?5below?5are?5demonstrating@ ; `string'
PUBLIC	??_C@_0DH@GKLDFKKO@The?5?$CCExamples?$CC?5menu?5above?5leads?5@ ; `string'
PUBLIC	??_C@_0ID@INLAEEEH@The?5?$CCTools?$CC?5menu?5above?5gives?5acc@ ; `string'
PUBLIC	??_C@_0BC@GECCEBDK@PROGRAMMER?5GUIDE?3?$AA@	; `string'
PUBLIC	??_C@_0EC@GEILMFPK@See?5the?5ShowDemoWindow?$CI?$CJ?5code?5in@ ; `string'
PUBLIC	??_C@_0BL@CMPGJGKF@See?5comments?5in?5imgui?4cpp?4?$AA@ ; `string'
PUBLIC	??_C@_0DC@LILBLMCJ@See?5example?5applications?5in?5the?5@ ; `string'
PUBLIC	??_C@_0CO@IHPGPBLH@Read?5the?5FAQ?5at?5http?3?1?1www?4deari@ ; `string'
PUBLIC	??_C@_0EB@MLAMCLHL@Set?5?8io?4ConfigFlags?5?$HM?$DN?5NavEnable@ ; `string'
PUBLIC	??_C@_0DP@CIADOILL@Set?5?8io?4ConfigFlags?5?$HM?$DN?5NavEnable@ ; `string'
PUBLIC	??_C@_0M@NDGNNOFI@USER?5GUIDE?3?$AA@		; `string'
PUBLIC	??_C@_0O@PIILMNHI@Configuration?$AA@		; `string'
PUBLIC	??_C@_0BB@DLCAGGKD@Configuration?$CD?$CD2?$AA@	; `string'
PUBLIC	??_C@_0CC@MKDHACD@io?4ConfigFlags?3?5NavEnableKeyboar@ ; `string'
PUBLIC	??_C@_0BK@OJOJPPOF@Enable?5keyboard?5controls?4?$AA@ ; `string'
PUBLIC	??_C@_0CB@MCNBOBFF@io?4ConfigFlags?3?5NavEnableGamepad@ ; `string'
PUBLIC	??_C@_0IO@MJIBAPFF@Enable?5gamepad?5controls?4?5Require@ ; `string'
PUBLIC	??_C@_0CF@BBHAMFJD@io?4ConfigFlags?3?5NavEnableSetMous@ ; `string'
PUBLIC	??_C@_0GF@EIFIGBGA@Instruct?5navigation?5to?5move?5the?5@ ; `string'
PUBLIC	??_C@_0BI@FJCAMGFF@io?4ConfigFlags?3?5NoMouse?$AA@ ; `string'
PUBLIC	??_C@_0BL@MKGMHIPJ@?$DM?$DMPRESS?5SPACE?5TO?5DISABLE?$DO?$DO?$AA@ ; `string'
PUBLIC	??_C@_0CE@KNKEEHDL@io?4ConfigFlags?3?5NoMouseCursorCha@ ; `string'
PUBLIC	??_C@_0EB@JJIOMJIM@Instruct?5backend?5to?5not?5alter?5mo@ ; `string'
PUBLIC	??_C@_0CA@FACKLLEL@io?4ConfigInputTrickleEventQueue?$AA@ ; `string'
PUBLIC	??_C@_0LM@IEPLLLKB@Enable?5input?5queue?5trickling?3?5so@ ; `string'
PUBLIC	??_C@_0BO@GBANMLLJ@io?4ConfigInputTextCursorBlink?$AA@ ; `string'
PUBLIC	??_C@_0EP@OGONDEMG@Enable?5blinking?5cursor?5?$CIoptional@ ; `string'
PUBLIC	??_C@_0CC@CDNGJGDB@io?4ConfigInputTextEnterKeepActiv@ ; `string'
PUBLIC	??_C@_0EN@DGPMAAAP@Pressing?5Enter?5will?5keep?5item?5ac@ ; `string'
PUBLIC	??_C@_0BO@DELEKPMI@io?4ConfigDragClickToInputText?$AA@ ; `string'
PUBLIC	??_C@_0GD@MCICHOGF@Enable?5turning?5DragXXX?5widgets?5i@ ; `string'
PUBLIC	??_C@_0CA@IFIIDADM@io?4ConfigWindowsResizeFromEdges?$AA@ ; `string'
PUBLIC	??_C@_0LI@DCCFFPOA@Enable?5resizing?5of?5windows?5from?5@ ; `string'
PUBLIC	??_C@_0CF@PKBLIGGG@io?4ConfigWindowsMoveFromTitleBar@ ; `string'
PUBLIC	??_C@_0BD@PFDMJJAG@io?4MouseDrawCursor?$AA@	; `string'
PUBLIC	??_C@_0BFK@CKDHFBDH@Instruct?5Dear?5ImGui?5to?5render?5a?5@ ; `string'
PUBLIC	??_C@_0DB@KCBPEEMI@Also?5see?5Style?9?$DORendering?5for?5re@ ; `string'
PUBLIC	??_C@_0BM@FFMOEAGC@Configuration?1Backend?5Flags?$AA@ ; `string'
PUBLIC	??_C@_0O@GGPAPCP@Backend?5Flags?$AA@		; `string'
PUBLIC	??_C@_0LE@FBDHIPGL@Those?5flags?5are?5set?5by?5the?5backe@ ; `string'
PUBLIC	??_C@_0BM@KECFJBMD@io?4BackendFlags?3?5HasGamepad?$AA@ ; `string'
PUBLIC	??_C@_0CB@OGFIDKNB@io?4BackendFlags?3?5HasMouseCursors@ ; `string'
PUBLIC	??_C@_0CA@JKLPDGP@io?4BackendFlags?3?5HasSetMousePos?$AA@ ; `string'
PUBLIC	??_C@_0CG@EKAIMAPC@io?4BackendFlags?3?5RendererHasVtxO@ ; `string'
PUBLIC	??_C@_0BE@IHLGIHAH@Configuration?1Style?$AA@	; `string'
PUBLIC	??_C@_05IHAFCALK@Style?$AA@			; `string'
PUBLIC	??_C@_0GJ@COKJKNBB@The?5same?5contents?5can?5be?5accesse@ ; `string'
PUBLIC	??_C@_0BP@HOEFEDAL@Configuration?1Capture?0?5Logging?$AA@ ; `string'
PUBLIC	??_C@_0BA@BMMAIOLM@Capture?1Logging?$AA@	; `string'
PUBLIC	??_C@_0PC@PAKMBOJC@The?5logging?5API?5redirects?5all?5te@ ; `string'
PUBLIC	??_C@_0FK@CDOBPMKK@You?5can?5also?5call?5ImGui?3?3LogText@ ; `string'
PUBLIC	??_C@_0CC@DLICJJEI@Copy?5?$CCHello?0?5world?$CB?$CC?5to?5clipboar@ ; `string'
PUBLIC	??_C@_0O@GEHPLBPJ@Hello?0?5world?$CB?$AA@	; `string'
PUBLIC	??_C@_0P@FBBKILOB@Window?5options?$AA@		; `string'
PUBLIC	??_C@_05EHPMMFBK@split?$AA@			; `string'
PUBLIC	??_C@_0M@EABCFDNG@No?5titlebar?$AA@		; `string'
PUBLIC	??_C@_0N@GGGGKBFF@No?5scrollbar?$AA@		; `string'
PUBLIC	??_C@_07KBMDBGCH@No?5menu?$AA@			; `string'
PUBLIC	??_C@_07JGIJBGNK@No?5move?$AA@			; `string'
PUBLIC	??_C@_09HMNEIDKA@No?5resize?$AA@		; `string'
PUBLIC	??_C@_0M@PFMGNBM@No?5collapse?$AA@		; `string'
PUBLIC	??_C@_08DGAKPBEJ@No?5close?$AA@			; `string'
PUBLIC	??_C@_06KFENEDHJ@No?5nav?$AA@			; `string'
PUBLIC	??_C@_0O@EHIGJHPL@No?5background?$AA@		; `string'
PUBLIC	??_C@_0BC@FKMLNKJL@No?5bring?5to?5front?$AA@	; `string'
PUBLIC	??_C@_0BB@BPJMKDGK@Unsaved?5document?$AA@	; `string'
PUBLIC	?__LINE__Var@?0??ShowDemoWindowWidgets@@YAXXZ@4JA ; `ShowDemoWindowWidgets'::`1'::__LINE__Var
PUBLIC	??_C@_05EAJAAGNN@imgui?$AA@			; `string'
PUBLIC	??_C@_02DJGKEECL@?4?4?$AA@			; `string'
PUBLIC	??_C@_0M@GNLHKNNA@Pressed?5Up?$CB?$AA@		; `string'
PUBLIC	??_C@_0O@CDNFAFCH@Pressed?5Down?$CB?$AA@	; `string'
PUBLIC	??_C@_1DK@GBCOMGGK@?$AAm?$AAy?$AA_?$AAs?$AAt?$AAr?$AA?9?$AA?$DO?$AAb?$AAe?$AAg?$AAi?$AAn?$AA?$CI?$AA?$CJ?$AA?5?$AA?$DN?$AA?$DN?$AA?5?$AAd?$AAa?$AAt?$AAa?$AA?9?$AA?$DO?$AAB?$AAu?$AAf?$AA?$AA@ ; `string'
PUBLIC	??_C@_1GE@PBHHHBJD@?$AA?$CI?$AAf?$AAl?$AAa?$AAg?$AAs?$AA?5?$AA?$CG?$AA?5?$AAI?$AAm?$AAG?$AAu?$AAi?$AAI?$AAn?$AAp?$AAu?$AAt?$AAT?$AAe?$AAx?$AAt?$AAF?$AAl?$AAa?$AAg?$AAs?$AA_?$AAC?$AAa?$AAl@ ; `string'
PUBLIC	??_C@_07DIHFNIOG@Widgets?$AA@			; `string'
PUBLIC	??_C@_0O@KAGKFDNH@Widgets?1Basic?$AA@		; `string'
PUBLIC	??_C@_05NIKDGMHP@Basic?$AA@			; `string'
PUBLIC	??_C@_0BF@ICEAACFD@Widgets?1Basic?1Button?$AA@	; `string'
PUBLIC	??_C@_06LKBCGDFD@Button?$AA@			; `string'
PUBLIC	??_C@_0BI@IPKGBENJ@Thanks?5for?5clicking?5me?$CB?$AA@ ; `string'
PUBLIC	??_C@_0BH@ELBMBOIA@Widgets?1Basic?1Checkbox?$AA@ ; `string'
PUBLIC	??_C@_08PDFIPFLP@checkbox?$AA@			; `string'
PUBLIC	??_C@_0BK@MHILAAII@Widgets?1Basic?1RadioButton?$AA@ ; `string'
PUBLIC	??_C@_07HJMAFCAJ@radio?5a?$AA@			; `string'
PUBLIC	??_C@_07FCONABMK@radio?5b?$AA@			; `string'
PUBLIC	??_C@_07ELPGDAIL@radio?5c?$AA@			; `string'
PUBLIC	??_C@_0CA@HMPFCLAN@Widgets?1Basic?1Buttons?5?$CIColored?$CJ?$AA@ ; `string'
PUBLIC	??_C@_05BBIFMDEO@Click?$AA@			; `string'
PUBLIC	??_C@_0BA@FMOKFMLK@Hold?5to?5repeat?3?$AA@	; `string'
PUBLIC	??_C@_0CC@NDENGMIB@Widgets?1Basic?1Buttons?5?$CIRepeating@ ; `string'
PUBLIC	??_C@_06EKMNOCAF@?$CD?$CDleft?$AA@		; `string'
PUBLIC	??_C@_07GKNPDGAE@?$CD?$CDright?$AA@		; `string'
PUBLIC	??_C@_02DPKJAMEF@?$CFd?$AA@			; `string'
PUBLIC	??_C@_0BH@BNGBGPGO@Widgets?1Basic?1Tooltips?$AA@ ; `string'
PUBLIC	??_C@_09HGDNJJEP@Tooltips?3?$AA@		; `string'
PUBLIC	??_C@_0P@HKPBNOOC@I?5am?5a?5tooltip?$AA@	; `string'
PUBLIC	??_C@_05FMPLNOCG@Fancy?$AA@			; `string'
PUBLIC	??_C@_0BF@CIONDOGG@I?5am?5a?5fancy?5tooltip?$AA@ ; `string'
PUBLIC	??_C@_05HPADKKDG@Curve?$AA@			; `string'
PUBLIC	??_C@_0P@IAGOFNGP@Sin?$CItime?$CJ?5?$DN?5?$CFf?$AA@ ; `string'
PUBLIC	??_C@_07GMFKFGGB@Delayed?$AA@			; `string'
PUBLIC	??_C@_0BN@GILFHKEA@I?5am?5a?5tooltip?5with?5a?5delay?4?$AA@ ; `string'
PUBLIC	??_C@_0FB@OEHHDLEI@Tooltip?5are?5created?5by?5using?5the@ ; `string'
PUBLIC	??_C@_05LPIJGKJ@Value?$AA@			; `string'
PUBLIC	??_C@_05IDCCNNGI@label?$AA@			; `string'
PUBLIC	??_C@_0BI@EBJBEBDI@Widgets?1Basic?1InputText?$AA@ ; `string'
PUBLIC	??_C@_0L@GKEMLLGG@input?5text?$AA@		; `string'
PUBLIC	??_C@_0BJJ@PIFHNINF@USER?3?6Hold?5SHIFT?5or?5use?5mouse?5to@ ; `string'
PUBLIC	??_C@_0BA@DCMOPOEB@enter?5text?5here?$AA@	; `string'
PUBLIC	??_C@_0BF@FKMBICKL@input?5text?5?$CIw?1?5hint?$CJ?$AA@ ; `string'
PUBLIC	??_C@_0CD@BADBEAE@Widgets?1Basic?1InputInt?0?5InputFlo@ ; `string'
PUBLIC	??_C@_09KJGAAOJL@input?5int?$AA@		; `string'
PUBLIC	??_C@_04GFJLOHHD@?$CF?43f?$AA@			; `string'
PUBLIC	??_C@_0M@HLMFPLHI@input?5float?$AA@		; `string'
PUBLIC	??_C@_04GJMOAIJC@?$CF?48f?$AA@			; `string'
PUBLIC	??_C@_0N@HNPEBCJF@input?5double?$AA@		; `string'
PUBLIC	??_C@_02CGLCDNAE@?$CFe?$AA@			; `string'
PUBLIC	??_C@_0BB@MKDEHDDF@input?5scientific?$AA@	; `string'
PUBLIC	??_C@_0FG@KKFDAGLG@You?5can?5input?5value?5using?5the?5sc@ ; `string'
PUBLIC	??_C@_0N@KKMOFJMF@input?5float3?$AA@		; `string'
PUBLIC	??_C@_0CB@CBDDBCCE@Widgets?1Basic?1DragInt?0?5DragFloat@ ; `string'
PUBLIC	??_C@_08EAMJBIPC@drag?5int?$AA@			; `string'
PUBLIC	??_C@_0HA@JJHPNEPM@Click?5and?5drag?5to?5edit?5value?4?6Ho@ ; `string'
PUBLIC	??_C@_04FCMNJMCO@?$CFd?$CF?$CF?$AA@		; `string'
PUBLIC	??_C@_0BA@MCINAHBB@drag?5int?50?4?4100?$AA@	; `string'
PUBLIC	??_C@_0L@DLCOHHGO@drag?5float?$AA@		; `string'
PUBLIC	??_C@_08LHDHPMPH@?$CF?406f?5ns?$AA@		; `string'
PUBLIC	??_C@_0BB@CIODINPI@drag?5small?5float?$AA@	; `string'
PUBLIC	??_C@_0CF@NOCPNFME@Widgets?1Basic?1SliderInt?0?5SliderF@ ; `string'
PUBLIC	??_C@_0L@INJDAFHM@slider?5int?$AA@		; `string'
PUBLIC	??_C@_0BL@FBJLFMJ@CTRL?$CLclick?5to?5input?5value?4?$AA@ ; `string'
PUBLIC	??_C@_0N@BCCPFMAI@ratio?5?$DN?5?$CF?43f?$AA@	; `string'
PUBLIC	??_C@_0N@PNCIGDCI@slider?5float?$AA@		; `string'
PUBLIC	??_C@_04GANEPBPG@?$CF?44f?$AA@			; `string'
PUBLIC	??_C@_0BD@PPOMGMAE@slider?5float?5?$CIlog?$CJ?$AA@ ; `string'
PUBLIC	??_C@_0BK@LMANIBOG@Widgets?1Basic?1SliderAngle?$AA@ ; `string'
PUBLIC	??_C@_08FKIHKODH@?$CF?40f?5deg?$AA@		; `string'
PUBLIC	??_C@_0N@EFIJIFM@slider?5angle?$AA@		; `string'
PUBLIC	??_C@_0BM@MKFJNJNL@Widgets?1Basic?1Slider?5?$CIenum?$CJ?$AA@ ; `string'
PUBLIC	??_C@_04OHLPDOFO@Fire?$AA@			; `string'
PUBLIC	??_C@_05IKBANCEK@Earth?$AA@			; `string'
PUBLIC	??_C@_03KHBMPEGA@Air?$AA@			; `string'
PUBLIC	??_C@_05EMKMBNJK@Water?$AA@			; `string'
PUBLIC	??_C@_07NBCGADJA@Unknown?$AA@			; `string'
PUBLIC	??_C@_0M@ENFPDMMO@slider?5enum?$AA@		; `string'
PUBLIC	??_C@_0FH@BEBFOFKH@Using?5the?5format?5string?5paramete@ ; `string'
PUBLIC	??_C@_0CF@OBBGEKML@Widgets?1Basic?1ColorEdit3?0?5ColorE@ ; `string'
PUBLIC	??_C@_07OCDFLNDK@color?51?$AA@			; `string'
PUBLIC	??_C@_0LM@JNIPGMLP@Click?5on?5the?5color?5square?5to?5ope@ ; `string'
PUBLIC	??_C@_07MJBIOOPJ@color?52?$AA@			; `string'
PUBLIC	??_C@_0BE@DGEKEFFI@Widgets?1Basic?1Combo?$AA@	; `string'
PUBLIC	??_C@_04OHNMNPPA@AAAA?$AA@			; `string'
PUBLIC	??_C@_04JLKCOHFE@BBBB?$AA@			; `string'
PUBLIC	??_C@_04GKHPCPH@CCCC?$AA@			; `string'
PUBLIC	??_C@_04GDFOJGBM@DDDD?$AA@			; `string'
PUBLIC	??_C@_04POFLIDLP@EEEE?$AA@			; `string'
PUBLIC	??_C@_04ICCFLLBL@FFFF?$AA@			; `string'
PUBLIC	??_C@_04BPCAKOLI@GGGG?$AA@			; `string'
PUBLIC	??_C@_04EJNHHCMN@HHHH?$AA@			; `string'
PUBLIC	??_C@_07LIMEPNNC@IIIIIII?$AA@			; `string'
PUBLIC	??_C@_04KIKMFPMK@JJJJ?$AA@			; `string'
PUBLIC	??_C@_07MBMNGHIK@KKKKKKK?$AA@			; `string'
PUBLIC	??_C@_05LLEFIEMM@combo?$AA@			; `string'
PUBLIC	??_C@_0KK@EOPNBDJP@Using?5the?5simplified?5one?9liner?5C@ ; `string'
PUBLIC	??_C@_0BG@OOGNHKFG@Widgets?1Basic?1ListBox?$AA@	; `string'
PUBLIC	??_C@_07LHBBOFFP@listbox?$AA@			; `string'
PUBLIC	??_C@_0LF@POLFDEKB@Using?5the?5simplified?5one?9liner?5L@ ; `string'
PUBLIC	??_C@_0O@GEAPLMHF@Widgets?1Trees?$AA@		; `string'
PUBLIC	??_C@_05BMMGIDNN@Trees?$AA@			; `string'
PUBLIC	??_C@_0BK@OJMACAMF@Widgets?1Trees?1Basic?5trees?$AA@ ; `string'
PUBLIC	??_C@_0M@OABIBGBA@Basic?5trees?$AA@		; `string'
PUBLIC	??_C@_08GPGIPNJB@Child?5?$CFd?$AA@		; `string'
PUBLIC	??_C@_09KGLHLKML@blah?5blah?$AA@		; `string'
PUBLIC	??_C@_06HFKPFKMP@button?$AA@			; `string'
PUBLIC	??_C@_0CO@HKMALMNH@Widgets?1Trees?1Advanced?0?5with?5Sel@ ; `string'
PUBLIC	??_C@_0CA@LDNIBPC@Advanced?0?5with?5Selectable?5nodes?$AA@ ; `string'
PUBLIC	??_C@_0IL@PMAJKNJG@This?5is?5a?5more?5typical?5looking?5t@ ; `string'
PUBLIC	??_C@_0BP@JJAJNCOF@ImGuiTreeNodeFlags_OpenOnArrow?$AA@ ; `string'
PUBLIC	??_C@_0CF@HDMDLLCC@ImGuiTreeNodeFlags_OpenOnDoubleC@ ; `string'
PUBLIC	??_C@_0CC@CLHKBONF@ImGuiTreeNodeFlags_SpanAvailWidt@ ; `string'
PUBLIC	??_C@_0GF@HJHHKMOH@Extend?5hit?5area?5to?5all?5available@ ; `string'
PUBLIC	??_C@_0CB@OHNGGEGD@ImGuiTreeNodeFlags_SpanFullWidth@ ; `string'
PUBLIC	??_C@_0CE@CFMFIOLL@Align?5label?5with?5current?5X?5posit@ ; `string'
PUBLIC	??_C@_0BO@ICNOHPIE@Test?5tree?5node?5as?5drag?5source?$AA@ ; `string'
PUBLIC	??_C@_06KPGIMOHP@Hello?$CB?$AA@			; `string'
PUBLIC	??_C@_0BD@DKDJNGLG@Selectable?5Node?5?$CFd?$AA@	; `string'
PUBLIC	??_C@_09PLFIFPJD@_TREENODE?$AA@			; `string'
PUBLIC	??_C@_0BP@LHBEHNKM@This?5is?5a?5drag?5and?5drop?5source?$AA@ ; `string'
PUBLIC	??_C@_0BE@GJFAIPKG@Blah?5blah?6Blah?5Blah?$AA@	; `string'
PUBLIC	??_C@_0BD@MLABGFOG@Selectable?5Leaf?5?$CFd?$AA@	; `string'
PUBLIC	??_C@_0BL@HBCHPPAB@Widgets?1Collapsing?5Headers?$AA@ ; `string'
PUBLIC	??_C@_0BD@GBPHDMGC@Collapsing?5Headers?$AA@	; `string'
PUBLIC	??_C@_0BA@JOCPBPDO@Show?52nd?5header?$AA@	; `string'
PUBLIC	??_C@_06OENKJGA@Header?$AA@			; `string'
PUBLIC	??_C@_0BC@BLAKNONB@IsItemHovered?3?5?$CFd?$AA@	; `string'
PUBLIC	??_C@_0BA@PJMPKHOM@Some?5content?5?$CFd?$AA@	; `string'
PUBLIC	??_C@_0BL@IHHHIKPE@Header?5with?5a?5close?5button?$AA@ ; `string'
PUBLIC	??_C@_0BA@PEMOHED@More?5content?5?$CFd?$AA@	; `string'
PUBLIC	??_C@_0BA@OHGLMBHK@Widgets?1Bullets?$AA@	; `string'
PUBLIC	??_C@_07DHNDKCGP@Bullets?$AA@			; `string'
PUBLIC	??_C@_0P@DEGHIHA@Bullet?5point?51?$AA@		; `string'
PUBLIC	??_C@_0CB@LFMFDEHN@Bullet?5point?52?6On?5multiple?5lines@ ; `string'
PUBLIC	??_C@_09CGOFEACE@Tree?5node?$AA@		; `string'
PUBLIC	??_C@_0BF@FBMIEPNI@Another?5bullet?5point?$AA@	; `string'
PUBLIC	??_C@_0BL@OAFINJBP@Bullet?5point?53?5?$CItwo?5calls?$CJ?$AA@ ; `string'
PUBLIC	??_C@_0N@CHPBOJIK@Widgets?1Text?$AA@		; `string'
PUBLIC	??_C@_04OJAHODMC@Text?$AA@			; `string'
PUBLIC	??_C@_0BK@PPEHIABB@Widgets?1Text?1Colored?5Text?$AA@ ; `string'
PUBLIC	??_C@_0O@HGHOOCPG@Colorful?5Text?$AA@		; `string'
PUBLIC	??_C@_04IDKACLOG@Pink?$AA@			; `string'
PUBLIC	??_C@_06ICCAKDNH@Yellow?$AA@			; `string'
PUBLIC	??_C@_08JGILNPHN@Disabled?$AA@			; `string'
PUBLIC	??_C@_0DA@EPJPAHDI@The?5TextDisabled?5color?5is?5stored@ ; `string'
PUBLIC	??_C@_0BL@NBECCBAN@Widgets?1Text?1Word?5Wrapping?$AA@ ; `string'
PUBLIC	??_C@_0O@CLIMKCMB@Word?5Wrapping?$AA@		; `string'
PUBLIC	??_C@_0LE@LBABKNFA@This?5text?5should?5automatically?5w@ ; `string'
PUBLIC	??_C@_04GHNNFJCK@?$CF?40f?$AA@			; `string'
PUBLIC	??_C@_0L@NHCJIHMI@Wrap?5width?$AA@		; `string'
PUBLIC	??_C@_0BD@IAMDDDPD@Test?5paragraph?5?$CFd?3?$AA@ ; `string'
PUBLIC	??_C@_0JD@HKNKABEJ@The?5lazy?5dog?5is?5a?5good?5dog?4?5This@ ; `string'
PUBLIC	??_C@_0FB@BGHPBDIA@aaaaaaaa?5bbbbbbbb?0?5c?5cccccccc?0dd@ ; `string'
PUBLIC	??_C@_0BI@HMDFOMMC@Widgets?1Text?1UTF?98?5Text?$AA@ ; `string'
PUBLIC	??_C@_0L@KOGPBBGO@UTF?98?5Text?$AA@		; `string'
PUBLIC	??_C@_0MJ@DIENCCGD@CJK?5text?5will?5only?5appear?5if?5the@ ; `string'
PUBLIC	??_C@_0CH@EHCMNMLI@Hiragana?3?5?c?$IB?$IL?c?$IB?$IN?c?$IB?$IP?c?$IB?$JB?c?$IB?$JD?5?$CIkakik@ ; `string'
PUBLIC	??_C@_0BM@BCACPCEP@Kanjis?3?5?f?$JH?$KF?f?$JM?$KM?h?$KK?$JO?5?$CInihongo?$CJ?$AA@ ; `string'
PUBLIC	??_C@_0M@OKLFPIAG@UTF?98?5input?$AA@		; `string'
PUBLIC	??_C@_0P@JHLCFMPD@Widgets?1Images?$AA@		; `string'
PUBLIC	??_C@_06EPMHLOBG@Images?$AA@			; `string'
PUBLIC	??_C@_0OJ@IGJPGIOP@Below?5we?5are?5displaying?5the?5font@ ; `string'
PUBLIC	??_C@_09CLOIPCOK@?$CF?40fx?$CF?40f?$AA@		; `string'
PUBLIC	??_C@_0BC@FICOOKGF@Min?3?5?$CI?$CF?42f?0?5?$CF?42f?$CJ?$AA@ ; `string'
PUBLIC	??_C@_0BC@LIIPCIB@Max?3?5?$CI?$CF?42f?0?5?$CF?42f?$CJ?$AA@ ; `string'
PUBLIC	??_C@_0CA@CCOONHAL@Widgets?1Images?1Textured?5buttons?$AA@ ; `string'
PUBLIC	??_C@_0CA@KAEHPGML@And?5now?5some?5textured?5buttons?4?4?$AA@ ; `string'
PUBLIC	??_C@_00CNPNBAHC@?$AA@				; `string'
PUBLIC	??_C@_0BC@JGNKDOGB@Pressed?5?$CFd?5times?4?$AA@	; `string'
PUBLIC	??_C@_0O@MECALOFC@Widgets?1Combo?$AA@		; `string'
PUBLIC	??_C@_05LMOJIBPK@Combo?$AA@			; `string'
PUBLIC	??_C@_0BP@KDFGPNLK@ImGuiComboFlags_PopupAlignLeft?$AA@ ; `string'
PUBLIC	??_C@_0DO@LDFFHHPN@Only?5makes?5a?5difference?5if?5the?5p@ ; `string'
PUBLIC	??_C@_0BO@IADJEHHH@ImGuiComboFlags_NoArrowButton?$AA@ ; `string'
PUBLIC	??_C@_0BK@CFAPHAND@ImGuiComboFlags_NoPreview?$AA@ ; `string'
PUBLIC	??_C@_04NENCGHGO@IIII?$AA@			; `string'
PUBLIC	??_C@_04DFKJEKGJ@KKKK?$AA@			; `string'
PUBLIC	??_C@_07HGFDAEEO@LLLLLLL?$AA@			; `string'
PUBLIC	??_C@_04MNFFDLCB@MMMM?$AA@			; `string'
PUBLIC	??_C@_07DDNOFDDK@OOOOOOO?$AA@			; `string'
PUBLIC	??_C@_07HDIKCFGM@combo?51?$AA@			; `string'
PUBLIC	??_C@_0BL@ICCGGBKH@aaaa?$AAbbbb?$AAcccc?$AAdddd?$AAeeee?$AA?$AA?$AA@ ; `string'
PUBLIC	??_C@_0BE@BBBJNHHG@combo?52?5?$CIone?9liner?$CJ?$AA@ ; `string'
PUBLIC	??_C@_0BA@MDMKCBHF@combo?53?5?$CIarray?$CJ?$AA@	; `string'
PUBLIC	??_C@_0BD@GDHGAEJD@combo?54?5?$CIfunction?$CJ?$AA@ ; `string'
PUBLIC	??_C@_0BD@GHKBDBIA@Widgets?1List?5Boxes?$AA@	; `string'
PUBLIC	??_C@_0L@PBIKFGCH@List?5boxes?$AA@		; `string'
PUBLIC	??_C@_09BDFDKBCP@listbox?51?$AA@		; `string'
PUBLIC	??_C@_0M@CKEICGGI@Full?9width?3?$AA@		; `string'
PUBLIC	??_C@_0M@NAPALMCL@?$CD?$CDlistbox?52?$AA@	; `string'
PUBLIC	??_C@_0BE@OJBNEPEE@Widgets?1Selectables?$AA@	; `string'
PUBLIC	??_C@_0M@GOIEGLPE@Selectables?$AA@		; `string'
PUBLIC	??_C@_0BK@OFEBJINJ@Widgets?1Selectables?1Basic?$AA@ ; `string'
PUBLIC	??_C@_0BD@KCGCFIHN@1?4?5I?5am?5selectable?$AA@	; `string'
PUBLIC	??_C@_0BD@BDENONE@2?4?5I?5am?5selectable?$AA@	; `string'
PUBLIC	??_C@_0BG@EJJBPEFA@?$CII?5am?5not?5selectable?$CJ?$AA@ ; `string'
PUBLIC	??_C@_0BD@JMOINFMH@4?4?5I?5am?5selectable?$AA@	; `string'
PUBLIC	??_C@_0BJ@DACNLCFI@5?4?5I?5am?5double?5clickable?$AA@ ; `string'
PUBLIC	??_C@_0CF@EDENHAHK@Widgets?1Selectables?1Single?5Selec@ ; `string'
PUBLIC	??_C@_0CC@NGMIMNBC@Selection?5State?3?5Single?5Selectio@ ; `string'
PUBLIC	??_C@_09IEODADNK@Object?5?$CFd?$AA@		; `string'
PUBLIC	??_C@_0CH@JDDBHIKA@Widgets?1Selectables?1Multiple?5Sel@ ; `string'
PUBLIC	??_C@_0CE@ILMFMDLL@Selection?5State?3?5Multiple?5Select@ ; `string'
PUBLIC	??_C@_0CO@HEGMKIIH@Hold?5CTRL?5and?5click?5to?5select?5mu@ ; `string'
PUBLIC	??_C@_0DL@PHDOHIFN@Widgets?1Selectables?1Rendering?5mo@ ; `string'
PUBLIC	??_C@_0CH@PHBOMNNA@Rendering?5more?5text?5into?5the?5sam@ ; `string'
PUBLIC	??_C@_06HIICBHNJ@main?4c?$AA@			; `string'
PUBLIC	??_C@_0N@NKEFLDLJ@?52?0345?5bytes?$AA@		; `string'
PUBLIC	??_C@_09JJLAOCPC@Hello?4cpp?$AA@		; `string'
PUBLIC	??_C@_0N@LDNEMMOG@12?0345?5bytes?$AA@		; `string'
PUBLIC	??_C@_07GGGNKCPB@Hello?4h?$AA@			; `string'
PUBLIC	??_C@_0BP@KAMGKAKE@Widgets?1Selectables?1In?5columns?$AA@ ; `string'
PUBLIC	??_C@_0L@JGCLAHBC@In?5columns?$AA@		; `string'
PUBLIC	??_C@_06DLHIACAN@split1?$AA@			; `string'
PUBLIC	??_C@_07BCJGKFOL@Item?5?$CFd?$AA@		; `string'
PUBLIC	??_C@_06BAFFFBMO@split2?$AA@			; `string'
PUBLIC	??_C@_0BE@DEADEMHJ@Some?5other?5contents?$AA@	; `string'
PUBLIC	??_C@_06BHEBDDGP@123456?$AA@			; `string'
PUBLIC	??_C@_0BJ@GOMOMLMF@Widgets?1Selectables?1Grid?$AA@ ; `string'
PUBLIC	??_C@_04FEKPLKKA@Grid?$AA@			; `string'
PUBLIC	??_C@_06IFGMFLK@Sailor?$AA@			; `string'
PUBLIC	??_C@_0BO@OOLMIAMJ@Widgets?1Selectables?1Alignment?$AA@ ; `string'
PUBLIC	??_C@_09FBMAGD@Alignment?$AA@			; `string'
PUBLIC	??_C@_0BAK@CHANFCAG@By?5default?0?5Selectables?5uses?5sty@ ; `string'
PUBLIC	??_C@_0M@HCIABIHI@?$CI?$CF?41f?0?$CF?41f?$CJ?$AA@ ; `string'
PUBLIC	??_C@_0BD@CKIJKOHG@Widgets?1Text?5Input?$AA@	; `string'
PUBLIC	??_C@_0L@LLAOMMOH@Text?5Input?$AA@		; `string'
PUBLIC	??_C@_0CJ@EJIDMLBN@Widgets?1Text?5Input?1Multi?9line?5Te@ ; `string'
PUBLIC	??_C@_0BG@ENAPIHKE@Multi?9line?5Text?5Input?$AA@ ; `string'
PUBLIC	??_C@_0BAK@IFEHCPKB@You?5can?5use?5the?5ImGuiInputTextFl@ ; `string'
PUBLIC	??_C@_0BN@IHHKAKNM@ImGuiInputTextFlags_ReadOnly?$AA@ ; `string'
PUBLIC	??_C@_0CC@GMDAHFPL@ImGuiInputTextFlags_AllowTabInpu@ ; `string'
PUBLIC	??_C@_0CI@LIKAMPDL@ImGuiInputTextFlags_CtrlEnterFor@ ; `string'
PUBLIC	??_C@_08FDEOKKII@?$CD?$CDsource?$AA@		; `string'
PUBLIC	??_C@_0CH@GBIJGOO@Widgets?1Text?5Input?1Filtered?5Text@ ; `string'
PUBLIC	??_C@_0BE@EABDFJK@Filtered?5Text?5Input?$AA@	; `string'
PUBLIC	??_C@_07DLHCIBDH@default?$AA@			; `string'
PUBLIC	??_C@_07EEKBCPDP@decimal?$AA@			; `string'
PUBLIC	??_C@_0M@PLANEGDO@hexadecimal?$AA@		; `string'
PUBLIC	??_C@_09NMLHJAII@uppercase?$AA@			; `string'
PUBLIC	??_C@_08BFAFMKNB@no?5blank?$AA@			; `string'
PUBLIC	??_C@_0BA@DMKNNKAP@?$CCimgui?$CC?5letters?$AA@	; `string'
PUBLIC	??_C@_0CC@OPLEEAIO@Widgets?1Text?5Input?1Password?5inpu@ ; `string'
PUBLIC	??_C@_0P@CNDCHFGF@Password?5Input?$AA@		; `string'
PUBLIC	??_C@_08NLHBPEGP@password?$AA@			; `string'
PUBLIC	??_C@_0FB@LAANLENK@Display?5all?5characters?5as?5?8?$CK?8?4?6D@ ; `string'
PUBLIC	??_C@_0L@DGGOBGAB@?$DMpassword?$DO?$AA@		; `string'
PUBLIC	??_C@_0BD@DPDFGHAP@password?5?$CIw?1?5hint?$CJ?$AA@ ; `string'
PUBLIC	??_C@_0BB@LNABFGG@password?5?$CIclear?$CJ?$AA@	; `string'
PUBLIC	??_C@_0CE@HIDJCAJO@Completion?0?5History?0?5Edit?5Callba@ ; `string'
PUBLIC	??_C@_0L@BMOEBFKJ@Completion?$AA@		; `string'
PUBLIC	??_C@_0IB@POFCECKB@Here?5we?5append?5?$CC?4?4?$CC?5each?5time?5Ta@ ; `string'
PUBLIC	??_C@_07DFKCFAEM@History?$AA@			; `string'
PUBLIC	??_C@_0JC@JNBHNBHO@Here?5we?5replace?5and?5select?5text?5@ ; `string'
PUBLIC	??_C@_04BBNPPDNC@Edit?$AA@			; `string'
PUBLIC	??_C@_0EO@BKNGEHGN@Here?5we?5toggle?5the?5casing?5of?5the@ ; `string'
PUBLIC	??_C@_04FEBIMPDM@?$CI?$CFd?$CJ?$AA@		; `string'
PUBLIC	??_C@_0CD@OOGDFIC@Widgets?1Text?5Input?1Resize?5Callba@ ; `string'
PUBLIC	??_C@_0BA@PGEBLBNL@Resize?5Callback?$AA@	; `string'
PUBLIC	??_C@_0KF@ELKLKFLA@Using?5ImGuiInputTextFlags_Callba@ ; `string'
PUBLIC	??_C@_07MDDMIGJK@?$CD?$CDMyStr?$AA@		; `string'
PUBLIC	??_C@_0BP@HFIMENAP@Data?3?5?$CFp?6Size?3?5?$CFd?6Capacity?3?5?$CFd?$AA@ ; `string'
PUBLIC	??_C@_0N@PGGDMOLM@Widgets?1Tabs?$AA@		; `string'
PUBLIC	??_C@_04DIJFMEPE@Tabs?$AA@			; `string'
PUBLIC	??_C@_0BD@MJMKJGN@Widgets?1Tabs?1Basic?$AA@	; `string'
PUBLIC	??_C@_08BHPFJKBJ@MyTabBar?$AA@			; `string'
PUBLIC	??_C@_07PJEDDDBE@Avocado?$AA@			; `string'
PUBLIC	??_C@_0DC@GCKNABCK@This?5is?5the?5Avocado?5tab?$CB?6blah?5bl@ ; `string'
PUBLIC	??_C@_08LMFMBPKH@Broccoli?$AA@			; `string'
PUBLIC	??_C@_0DD@MJGBNDMM@This?5is?5the?5Broccoli?5tab?$CB?6blah?5b@ ; `string'
PUBLIC	??_C@_08FIHABPKG@Cucumber?$AA@			; `string'
PUBLIC	??_C@_0DD@CJPLEJGJ@This?5is?5the?5Cucumber?5tab?$CB?6blah?5b@ ; `string'
PUBLIC	??_C@_0CF@NNMDIAIK@Widgets?1Tabs?1Advanced?5?$CG?5Close?5Bu@ ; `string'
PUBLIC	??_C@_0BI@NAEAKGLC@Advanced?5?$CG?5Close?5Button?$AA@ ; `string'
PUBLIC	??_C@_0BN@FKNGBAKI@ImGuiTabBarFlags_Reorderable?$AA@ ; `string'
PUBLIC	??_C@_0CD@CJJDGNCL@ImGuiTabBarFlags_AutoSelectNewTa@ ; `string'
PUBLIC	??_C@_0CE@ODMHCKNA@ImGuiTabBarFlags_TabListPopupBut@ ; `string'
PUBLIC	??_C@_0CO@PEFOKBDP@ImGuiTabBarFlags_NoCloseWithMidd@ ; `string'
PUBLIC	??_C@_0CJ@IIIJDEBN@ImGuiTabBarFlags_FittingPolicyRe@ ; `string'
PUBLIC	??_C@_0CF@NLLNBILH@ImGuiTabBarFlags_FittingPolicySc@ ; `string'
PUBLIC	??_C@_09JNADJLBG@Artichoke?$AA@			; `string'
PUBLIC	??_C@_08NACLCGIP@Beetroot?$AA@			; `string'
PUBLIC	??_C@_06LGPLDCHA@Celery?$AA@			; `string'
PUBLIC	??_C@_06NBIPACBO@Daikon?$AA@			; `string'
PUBLIC	??_C@_0BE@HMOLENGG@This?5is?5the?5?$CFs?5tab?$CB?$AA@ ; `string'
PUBLIC	??_C@_0BB@PAPJGNOM@I?5am?5an?5odd?5tab?4?$AA@	; `string'
PUBLIC	??_C@_0DE@GLBBPDDL@Widgets?1Tabs?1TabItemButton?5?$CG?5Lea@ ; `string'
PUBLIC	??_C@_0CH@FJDGMAFH@TabItemButton?5?$CG?5Leading?1Trailing@ ; `string'
PUBLIC	??_C@_0BN@OJPKMGDH@Show?5Leading?5TabItemButton?$CI?$CJ?$AA@ ; `string'
PUBLIC	??_C@_0BO@GMKHPNHK@Show?5Trailing?5TabItemButton?$CI?$CJ?$AA@ ; `string'
PUBLIC	??_C@_01OGPIMHDM@?$DP?$AA@			; `string'
PUBLIC	??_C@_0L@IFBHGAGJ@MyHelpMenu?$AA@		; `string'
PUBLIC	??_C@_01MIFGBAGJ@?$CL?$AA@			; `string'
PUBLIC	??_C@_04OCCELDNI@?$CF04d?$AA@			; `string'
PUBLIC	??_C@_0BB@EOCJNFEM@Widgets?1Plotting?$AA@	; `string'
PUBLIC	??_C@_08CDCEIJME@Plotting?$AA@			; `string'
PUBLIC	??_C@_07CCNCPHDL@Animate?$AA@			; `string'
PUBLIC	??_C@_0CK@MBEHLAAJ@Widgets?1Plotting?1PlotLines?0?5Plot@ ; `string'
PUBLIC	??_C@_0M@LJPKANLB@Frame?5Times?$AA@		; `string'
PUBLIC	??_C@_09NBOAEPFB@Histogram?$AA@			; `string'
PUBLIC	??_C@_06BECIMFEF@avg?5?$CFf?$AA@		; `string'
PUBLIC	??_C@_05DDHCCCLJ@Lines?$AA@			; `string'
PUBLIC	??_C@_08OLJDEBGC@Sin?$AASaw?$AA?$AA@		; `string'
PUBLIC	??_C@_04HPNHAEOP@func?$AA@			; `string'
PUBLIC	??_C@_0N@LHCNOOOP@Sample?5count?$AA@		; `string'
PUBLIC	??_C@_0BN@JJJCOIGD@Widgets?1Plotting?1ProgressBar?$AA@ ; `string'
PUBLIC	??_C@_0N@HDMPBJBE@Progress?5Bar?$AA@		; `string'
PUBLIC	??_C@_05LCKIIOJE@?$CFd?1?$CFd?$AA@		; `string'
PUBLIC	??_C@_0O@ILCICGHI@Widgets?1Color?$AA@		; `string'
PUBLIC	??_C@_0BF@GELOCOAL@Color?1Picker?5Widgets?$AA@	; `string'
PUBLIC	??_C@_0BD@KJCAPGNJ@With?5Alpha?5Preview?$AA@	; `string'
PUBLIC	??_C@_0BI@FJEMIBKC@With?5Half?5Alpha?5Preview?$AA@ ; `string'
PUBLIC	??_C@_0BD@KEFEHFM@With?5Drag?5and?5Drop?$AA@	; `string'
PUBLIC	??_C@_0BC@EJIAMDNC@With?5Options?5Menu?$AA@	; `string'
PUBLIC	??_C@_0DM@KEMLELAP@Right?9click?5on?5the?5individual?5co@ ; `string'
PUBLIC	??_C@_08FMJOEAGN@With?5HDR?$AA@			; `string'
PUBLIC	??_C@_0EI@FHFBEIHN@Currently?5all?5this?5does?5is?5to?5li@ ; `string'
PUBLIC	??_C@_0BI@MDJGKOGL@Widgets?1Color?1ColorEdit?$AA@ ; `string'
PUBLIC	??_C@_0O@NOEDKBGC@Color?5widget?3?$AA@		; `string'
PUBLIC	??_C@_0GG@EFLMCGPH@Click?5on?5the?5color?5square?5to?5ope@ ; `string'
PUBLIC	??_C@_0L@BFFLOOBG@MyColor?$CD?$CD1?$AA@		; `string'
PUBLIC	??_C@_0CK@HAPIFBGC@Widgets?1Color?1ColorEdit?5?$CIHSV?0?5wi@ ; `string'
PUBLIC	??_C@_0BN@GLLLKGMC@Color?5widget?5HSV?5with?5Alpha?3?$AA@ ; `string'
PUBLIC	??_C@_0L@DOHGLNNF@MyColor?$CD?$CD2?$AA@		; `string'
PUBLIC	??_C@_0CI@DKIDAOAB@Widgets?1Color?1ColorEdit?5?$CIfloat?5d@ ; `string'
PUBLIC	??_C@_0CB@GHOEMJO@Color?5widget?5with?5Float?5Display?3@ ; `string'
PUBLIC	??_C@_0M@MFCAJMMH@MyColor?$CD?$CD2f?$AA@	; `string'
PUBLIC	??_C@_0CI@KPPBOEAG@Widgets?1Color?1ColorButton?5?$CIwith?5@ ; `string'
PUBLIC	??_C@_0BK@EFMOKOBO@Color?5button?5with?5Picker?3?$AA@ ; `string'
PUBLIC	??_C@_0NH@CMBOCHE@With?5the?5ImGuiColorEditFlags_NoI@ ; `string'
PUBLIC	??_C@_0L@CHGNIMJE@MyColor?$CD?$CD3?$AA@		; `string'
PUBLIC	??_C@_0DF@LKFAKHKL@Widgets?1Color?1ColorButton?5?$CIwith?5@ ; `string'
PUBLIC	??_C@_0CH@HJNHAHAP@Color?5button?5with?5Custom?5Picker?5@ ; `string'
PUBLIC	??_C@_0M@KAIODDPE@MyColor?$CD?$CD3b?$AA@	; `string'
PUBLIC	??_C@_07GDPBMLLI@Palette?$AA@			; `string'
PUBLIC	??_C@_08KFPGOGIA@mypicker?$AA@			; `string'
PUBLIC	??_C@_0DA@DKOICBGC@MY?5CUSTOM?5COLOR?5PICKER?5WITH?5AN?5A@ ; `string'
PUBLIC	??_C@_08HHEANBBL@?$CD?$CDpicker?$AA@		; `string'
PUBLIC	??_C@_07EDIFFIJI@Current?$AA@			; `string'
PUBLIC	??_C@_09CDENILGE@?$CD?$CDcurrent?$AA@		; `string'
PUBLIC	??_C@_08CAGLMDLD@Previous?$AA@			; `string'
PUBLIC	??_C@_0L@JEAALFFH@?$CD?$CDprevious?$AA@		; `string'
PUBLIC	??_C@_09DDJBIEE@?$CD?$CDpalette?$AA@		; `string'
PUBLIC	??_C@_06LFKNFKEK@_COL3F?$AA@			; `string'
PUBLIC	??_C@_06LAOCEMMP@_COL4F?$AA@			; `string'
PUBLIC	??_C@_0CD@HMBJHACC@Widgets?1Color?1ColorButton?5?$CIsimpl@ ; `string'
PUBLIC	??_C@_0BD@NCDFBPJC@Color?5button?5only?3?$AA@	; `string'
PUBLIC	??_C@_0BN@HLFBDHDP@ImGuiColorEditFlags_NoBorder?$AA@ ; `string'
PUBLIC	??_C@_0M@LJJFACLF@MyColor?$CD?$CD3c?$AA@	; `string'
PUBLIC	??_C@_0BK@CPMABCHF@Widgets?1Color?1ColorPicker?$AA@ ; `string'
PUBLIC	??_C@_0O@IPOAJHA@Color?5picker?3?$AA@		; `string'
PUBLIC	??_C@_0L@EACIJKCC@With?5Alpha?$AA@		; `string'
PUBLIC	??_C@_0P@HFPOLAHI@With?5Alpha?5Bar?$AA@		; `string'
PUBLIC	??_C@_0BC@IIIMIJGF@With?5Side?5Preview?$AA@	; `string'
PUBLIC	??_C@_0P@CEAKBNI@With?5Ref?5Color?$AA@		; `string'
PUBLIC	??_C@_0L@LOHJOGGK@?$CD?$CDRefColor?$AA@		; `string'
PUBLIC	??_C@_0CO@EADBOKOE@Auto?1Current?$AANone?$AARGB?5Only?$AAHSV?5O@ ; `string'
PUBLIC	??_C@_0N@OFPFGAFL@Display?5Mode?$AA@		; `string'
PUBLIC	??_C@_0BBP@JAIDJLF@ColorEdit?5defaults?5to?5displaying@ ; `string'
PUBLIC	??_C@_0GD@OPONKGG@When?5not?5specified?5explicitly?5?$CIA@ ; `string'
PUBLIC	??_C@_0L@GICMBKFD@MyColor?$CD?$CD4?$AA@		; `string'
PUBLIC	??_C@_0BG@PLDANIFM@Set?5defaults?5in?5code?3?$AA@ ; `string'
PUBLIC	??_C@_0BFC@FHNBCNON@SetColorEditOptions?$CI?$CJ?5is?5designe@ ; `string'
PUBLIC	??_C@_0BP@GBPCDFBG@Default?3?5Uint8?5?$CL?5HSV?5?$CL?5Hue?5Bar?$AA@ ; `string'
PUBLIC	??_C@_0CB@BDAOENPB@Default?3?5Float?5?$CL?5HDR?5?$CL?5Hue?5Wheel@ ; `string'
PUBLIC	??_C@_0M@MIAPFBLG@Both?5types?3?$AA@		; `string'
PUBLIC	??_C@_0N@HENPPCEP@?$CD?$CDMyColor?$CD?$CD5?$AA@	; `string'
PUBLIC	??_C@_0N@FPPCKBIM@?$CD?$CDMyColor?$CD?$CD6?$AA@	; `string'
PUBLIC	??_C@_0BD@DKMMPKGG@HSV?5encoded?5colors?$AA@	; `string'
PUBLIC	??_C@_0BDD@IKIAIDKH@By?5default?0?5colors?5are?5given?5to?5@ ; `string'
PUBLIC	??_C@_0BM@EODGJACI@Color?5widget?5with?5InputHSV?3?$AA@ ; `string'
PUBLIC	??_C@_0BE@PEEENKKH@HSV?5shown?5as?5RGB?$CD?$CD1?$AA@ ; `string'
PUBLIC	??_C@_0BE@DKMNGIOI@HSV?5shown?5as?5HSV?$CD?$CD1?$AA@ ; `string'
PUBLIC	??_C@_0P@PMCJHJ@Raw?5HSV?5values?$AA@		; `string'
PUBLIC	??_C@_0BO@ONPGHCKF@Widgets?1Drag?5and?5Slider?5Flags?$AA@ ; `string'
PUBLIC	??_C@_0BC@FOMNFKHB@Drag?1Slider?5Flags?$AA@	; `string'
PUBLIC	??_C@_0BN@OEAGPOC@ImGuiSliderFlags_AlwaysClamp?$AA@ ; `string'
PUBLIC	??_C@_0FD@BLABLEIF@Always?5clamp?5value?5to?5min?1max?5bo@ ; `string'
PUBLIC	??_C@_0BN@HAKIJBBA@ImGuiSliderFlags_Logarithmic?$AA@ ; `string'
PUBLIC	??_C@_0DO@HKODNILP@Enable?5logarithmic?5editing?5?$CImore@ ; `string'
PUBLIC	??_C@_0CB@DOCCIAEK@ImGuiSliderFlags_NoRoundToFormat@ ; `string'
PUBLIC	??_C@_0HM@PJMLMMLP@Disable?5rounding?5underlying?5valu@ ; `string'
PUBLIC	??_C@_0BJ@KFAEJGBN@ImGuiSliderFlags_NoInput?$AA@ ; `string'
PUBLIC	??_C@_0FB@JPLHIJIO@Disable?5CTRL?$CLClick?5or?5Enter?5key?5@ ; `string'
PUBLIC	??_C@_0BL@HLOFLJPB@Underlying?5float?5value?3?5?$CFf?$AA@ ; `string'
PUBLIC	??_C@_0BD@LPIMJICP@DragFloat?5?$CI0?5?9?$DO?51?$CJ?$AA@ ; `string'
PUBLIC	??_C@_0BG@EHNMBPIG@DragFloat?5?$CI0?5?9?$DO?5?$CLinf?$CJ?$AA@ ; `string'
PUBLIC	??_C@_0BG@GPJPIKGM@DragFloat?5?$CI?9inf?5?9?$DO?51?$CJ?$AA@ ; `string'
PUBLIC	??_C@_0BJ@MJEKBNMC@DragFloat?5?$CI?9inf?5?9?$DO?5?$CLinf?$CJ?$AA@ ; `string'
PUBLIC	??_C@_0BD@KDPKGLCE@DragInt?5?$CI0?5?9?$DO?5100?$CJ?$AA@ ; `string'
PUBLIC	??_C@_0BF@MCKPEGDC@SliderFloat?5?$CI0?5?9?$DO?51?$CJ?$AA@ ; `string'
PUBLIC	??_C@_0BF@NONJLFDJ@SliderInt?5?$CI0?5?9?$DO?5100?$CJ?$AA@ ; `string'
PUBLIC	??_C@_0BG@EMJJMOGJ@Widgets?1Range?5Widgets?$AA@	; `string'
PUBLIC	??_C@_0O@JEFPADJJ@Range?5Widgets?$AA@		; `string'
PUBLIC	??_C@_0N@IBBLMIOP@Max?3?5?$CF?41f?5?$CF?$CF?$AA@ ; `string'
PUBLIC	??_C@_0N@MBFELAJJ@Min?3?5?$CF?41f?5?$CF?$CF?$AA@ ; `string'
PUBLIC	??_C@_0M@JOPHKMFF@range?5float?$AA@		; `string'
PUBLIC	??_C@_0O@JDOPLCFE@Max?3?5?$CFd?5units?$AA@	; `string'
PUBLIC	??_C@_0O@CKMJCJCF@Min?3?5?$CFd?5units?$AA@	; `string'
PUBLIC	??_C@_09PIGNMEJF@range?5int?$AA@		; `string'
PUBLIC	??_C@_0BG@NFKPCFAN@range?5int?5?$CIno?5bounds?$CJ?$AA@ ; `string'
PUBLIC	??_C@_0BD@GBBEGJPM@Widgets?1Data?5Types?$AA@	; `string'
PUBLIC	??_C@_0L@PAJDALGN@Data?5Types?$AA@		; `string'
PUBLIC	??_C@_0BJ@IECCHINH@Widgets?1Data?5Types?1Drags?$AA@ ; `string'
PUBLIC	??_C@_06OFIAEEBG@Drags?3?$AA@			; `string'
PUBLIC	??_C@_0BI@LDAPNGOM@Clamp?5integers?5to?50?4?450?$AA@ ; `string'
PUBLIC	??_C@_0KK@PJCBLLDP@As?5with?5every?5widget?5in?5dear?5img@ ; `string'
PUBLIC	??_C@_07LMCLPNLL@drag?5s8?$AA@			; `string'
PUBLIC	??_C@_05MMEBHIBO@?$CFu?5ms?$AA@			; `string'
PUBLIC	??_C@_07LIKGIBAJ@drag?5u8?$AA@			; `string'
PUBLIC	??_C@_08NKMCOLAD@drag?5s16?$AA@			; `string'
PUBLIC	??_C@_08PPKJLENP@drag?5u16?$AA@			; `string'
PUBLIC	??_C@_08LNCKPKGJ@drag?5s32?$AA@			; `string'
PUBLIC	??_C@_06IMJBDBNO@0x?$CF08X?$AA@			; `string'
PUBLIC	??_C@_0N@LCGPEHEL@drag?5s32?5hex?$AA@		; `string'
PUBLIC	??_C@_08JIEBKFLF@drag?5u32?$AA@			; `string'
PUBLIC	??_C@_08ONLLJPAE@drag?5s64?$AA@			; `string'
PUBLIC	??_C@_08MINAMANI@drag?5u64?$AA@			; `string'
PUBLIC	??_C@_02NJPGOMH@?$CFf?$AA@			; `string'
PUBLIC	??_C@_0P@OJENAICP@drag?5float?5log?$AA@		; `string'
PUBLIC	??_C@_0M@PBAPOGLA@?$CF?410f?5grams?$AA@		; `string'
PUBLIC	??_C@_0M@IJGAEMEI@drag?5double?$AA@		; `string'
PUBLIC	??_C@_0O@PIJBNPDH@0?5?$DM?5?$CF?410f?5?$DM?51?$AA@ ; `string'
PUBLIC	??_C@_0BA@PLPECJH@drag?5double?5log?$AA@	; `string'
PUBLIC	??_C@_0BL@FMNOJHKA@Widgets?1Data?5Types?1Sliders?$AA@ ; `string'
PUBLIC	??_C@_07BBLEOMAH@Sliders?$AA@			; `string'
PUBLIC	??_C@_0P@BGDAIEKI@slider?5s8?5full?$AA@		; `string'
PUBLIC	??_C@_02GMHACPFF@?$CFu?$AA@			; `string'
PUBLIC	??_C@_0P@NAFPINCP@slider?5u8?5full?$AA@		; `string'
PUBLIC	??_C@_0BA@NJECJBBM@slider?5s16?5full?$AA@	; `string'
PUBLIC	??_C@_0BA@KKFIOIJG@slider?5u16?5full?$AA@	; `string'
PUBLIC	??_C@_0P@LPLLDPN@slider?5s32?5low?$AA@		; `string'
PUBLIC	??_C@_0BA@KCOOMONB@slider?5s32?5high?$AA@	; `string'
PUBLIC	??_C@_0BA@GPCILCHC@slider?5s32?5full?$AA@	; `string'
PUBLIC	??_C@_06IFILMILK@0x?$CF04X?$AA@			; `string'
PUBLIC	??_C@_0P@OJGLNLD@slider?5s32?5hex?$AA@		; `string'
PUBLIC	??_C@_0P@MNJELKHK@slider?5u32?5low?$AA@		; `string'
PUBLIC	??_C@_0BA@NBPELHFL@slider?5u32?5high?$AA@	; `string'
PUBLIC	??_C@_0BA@BMDCMLPI@slider?5u32?5full?$AA@	; `string'
PUBLIC	??_C@_05LLAMLEHD@?$CFI64d?$AA@			; `string'
PUBLIC	??_C@_0P@IPJKHPEH@slider?5s64?5low?$AA@		; `string'
PUBLIC	??_C@_0BA@IJNOPFIP@slider?5s64?5high?$AA@	; `string'
PUBLIC	??_C@_0BA@EEBIIJCM@slider?5s64?5full?$AA@	; `string'
PUBLIC	??_C@_08GGAHJCGP@?$CFI64u?5ms?$AA@		; `string'
PUBLIC	??_C@_0P@EJPFHGMA@slider?5u64?5low?$AA@		; `string'
PUBLIC	??_C@_0BA@PKMEIMAF@slider?5u64?5high?$AA@	; `string'
PUBLIC	??_C@_0BA@DHACPAKG@slider?5u64?5full?$AA@	; `string'
PUBLIC	??_C@_0BB@CCICNGDA@slider?5float?5low?$AA@	; `string'
PUBLIC	??_C@_05DIPGONMJ@?$CF?410f?$AA@			; `string'
PUBLIC	??_C@_0BF@HMPMBMMM@slider?5float?5low?5log?$AA@	; `string'
PUBLIC	??_C@_0BC@EHBCAJLJ@slider?5float?5high?$AA@	; `string'
PUBLIC	??_C@_0BC@NEJIDBJN@slider?5double?5low?$AA@	; `string'
PUBLIC	??_C@_0BG@ILKDLGMD@slider?5double?5low?5log?$AA@ ; `string'
PUBLIC	??_C@_08NHECNFJD@?$CFe?5grams?$AA@		; `string'
PUBLIC	??_C@_0BD@OPIDMMAL@slider?5double?5high?$AA@	; `string'
PUBLIC	??_C@_0BC@BGMAPONL@Sliders?5?$CIreverse?$CJ?$AA@ ; `string'
PUBLIC	??_C@_0BC@BBCEKAEC@slider?5s8?5reverse?$AA@	; `string'
PUBLIC	??_C@_0BC@PJJBGKAB@slider?5u8?5reverse?$AA@	; `string'
PUBLIC	??_C@_0BD@LEKBJPO@slider?5s32?5reverse?$AA@	; `string'
PUBLIC	??_C@_0BD@OEHHLMBO@slider?5u32?5reverse?$AA@	; `string'
PUBLIC	??_C@_0BD@HHADMFPL@slider?5s64?5reverse?$AA@	; `string'
PUBLIC	??_C@_0BD@JIDOGABL@slider?5u64?5reverse?$AA@	; `string'
PUBLIC	??_C@_0BK@KLDNNLLJ@Widgets?1Data?5Types?1Inputs?$AA@ ; `string'
PUBLIC	??_C@_06HDCHCENJ@Inputs?$AA@			; `string'
PUBLIC	??_C@_0BC@HEADHDLD@Show?5step?5buttons?$AA@	; `string'
PUBLIC	??_C@_08HGJIKBLN@input?5s8?$AA@			; `string'
PUBLIC	??_C@_08HCBFNNAP@input?5u8?$AA@			; `string'
PUBLIC	??_C@_09DDGLPNGK@input?5s16?$AA@		; `string'
PUBLIC	??_C@_09BGAAKCLG@input?5u16?$AA@		; `string'
PUBLIC	??_C@_09FEIDOMAA@input?5s32?$AA@		; `string'
PUBLIC	??_C@_04JBNHMKCH@?$CF04X?$AA@			; `string'
PUBLIC	??_C@_0O@EKPJHNHM@input?5s32?5hex?$AA@		; `string'
PUBLIC	??_C@_09HBOILDNM@input?5u32?$AA@		; `string'
PUBLIC	??_C@_04JIMNDDED@?$CF08X?$AA@			; `string'
PUBLIC	??_C@_0O@IMJGHEPL@input?5u32?5hex?$AA@		; `string'
PUBLIC	??_C@_09EBCIJGN@input?5s64?$AA@			; `string'
PUBLIC	??_C@_09CBHJNGLB@input?5u64?$AA@		; `string'
PUBLIC	??_C@_0CA@DGAGEKBO@Widgets?1Multi?9component?5Widgets?$AA@ ; `string'
PUBLIC	??_C@_0BI@ELCHCBAK@Multi?9component?5Widgets?$AA@ ; `string'
PUBLIC	??_C@_0N@LDNFGIIE@input?5float2?$AA@		; `string'
PUBLIC	??_C@_0M@EHEBDGFJ@drag?5float2?$AA@		; `string'
PUBLIC	??_C@_0O@NIDINEOI@slider?5float2?$AA@		; `string'
PUBLIC	??_C@_0L@IKAEHOLD@input?5int2?$AA@		; `string'
PUBLIC	??_C@_09LOIDAOFJ@drag?5int2?$AA@		; `string'
PUBLIC	??_C@_0M@LEEOPKGD@slider?5int2?$AA@		; `string'
PUBLIC	??_C@_0M@FOFKAHBI@drag?5float3?$AA@		; `string'
PUBLIC	??_C@_0O@MBCDOFKJ@slider?5float3?$AA@		; `string'
PUBLIC	??_C@_0L@JDBPEPPC@input?5int3?$AA@		; `string'
PUBLIC	??_C@_09KHJIDPBI@drag?5int3?$AA@		; `string'
PUBLIC	??_C@_0M@KNFFMLCC@slider?5int3?$AA@		; `string'
PUBLIC	??_C@_0N@OFIPMPAC@input?5float4?$AA@		; `string'
PUBLIC	??_C@_0M@BBBLJBNP@drag?5float4?$AA@		; `string'
PUBLIC	??_C@_0O@IOGCHDGO@slider?5float4?$AA@		; `string'
PUBLIC	??_C@_0L@NMFONJDF@input?5int4?$AA@		; `string'
PUBLIC	??_C@_09OINJKJNP@drag?5int4?$AA@		; `string'
PUBLIC	??_C@_0M@OCBEFNOF@slider?5int4?$AA@		; `string'
PUBLIC	??_C@_0BJ@PJBGHCMF@Widgets?1Vertical?5Sliders?$AA@ ; `string'
PUBLIC	??_C@_0BB@EAIBMPEL@Vertical?5Sliders?$AA@	; `string'
PUBLIC	??_C@_05GFAJOEB@?$CD?$CDint?$AA@		; `string'
PUBLIC	??_C@_04BOPCFCPC@set1?$AA@			; `string'
PUBLIC	??_C@_03CPFCAGPK@?$CD?$CDv?$AA@			; `string'
PUBLIC	??_C@_04DFNPABDB@set2?$AA@			; `string'
PUBLIC	??_C@_04CMMEDAHA@set3?$AA@			; `string'
PUBLIC	??_C@_08OPMLCCJJ@?$CF?42f?6sec?$AA@		; `string'
PUBLIC	??_C@_0BG@MGGGFMDO@Widgets?1Drag?5and?5drop?$AA@ ; `string'
PUBLIC	??_C@_0O@NPGBLOMK@Drag?5and?5Drop?$AA@		; `string'
PUBLIC	??_C@_0CH@JCNBENHC@Widgets?1Drag?5and?5drop?1Standard?5w@ ; `string'
PUBLIC	??_C@_0CC@EPFBCHH@Drag?5and?5drop?5in?5standard?5widget@ ; `string'
PUBLIC	??_C@_0CF@BONKBAOB@You?5can?5drag?5from?5the?5color?5squa@ ; `string'
PUBLIC	??_C@_0CG@ELLGHBBE@Widgets?1Drag?5and?5drop?1Copy?9swap?5@ ; `string'
PUBLIC	??_C@_0CB@EBEBHJBF@Drag?5and?5drop?5to?5copy?1swap?5items@ ; `string'
PUBLIC	??_C@_04OPMHGHMB@Copy?$AA@			; `string'
PUBLIC	??_C@_04LCANPIEP@Move?$AA@			; `string'
PUBLIC	??_C@_04NGKMPNDN@Swap?$AA@			; `string'
PUBLIC	??_C@_0O@IBJLLBID@DND_DEMO_CELL?$AA@		; `string'
PUBLIC	??_C@_07CFHHFHOL@Copy?5?$CFs?$AA@		; `string'
PUBLIC	??_C@_07EDLENMEH@Move?5?$CFs?$AA@		; `string'
PUBLIC	??_C@_07MIGHAHCG@Swap?5?$CFs?$AA@		; `string'
PUBLIC	??_C@_1EC@PPPBDLLH@?$AAp?$AAa?$AAy?$AAl?$AAo?$AAa?$AAd?$AA?9?$AA?$DO?$AAD?$AAa?$AAt?$AAa?$AAS?$AAi?$AAz?$AAe?$AA?5?$AA?$DN?$AA?$DN?$AA?5?$AAs?$AAi?$AAz?$AAe?$AAo?$AAf?$AA?$CI?$AAi?$AAn?$AAt?$AA?$CJ@ ; `string'
PUBLIC	??_C@_0DF@EMDCONLH@Widgets?1Drag?5and?5Drop?1Drag?5to?5re@ ; `string'
PUBLIC	??_C@_0BP@DIEMEPOM@Drag?5to?5reorder?5items?5?$CIsimple?$CJ?$AA@ ; `string'
PUBLIC	??_C@_0IF@PPHKDPML@We?5don?8t?5use?5the?5drag?5and?5drop?5a@ ; `string'
PUBLIC	??_C@_0DK@EFBKDNNE@Widgets?1Querying?5Item?5Status?5?$CIEd@ ; `string'
PUBLIC	??_C@_0DC@BNAEMHFC@Querying?5Item?5Status?5?$CIEdited?1Act@ ; `string'
PUBLIC	??_C@_0BD@MDBANHDM@Button?5?$CIw?1?5repeat?$CJ?$AA@ ; `string'
PUBLIC	??_C@_08HBKJHHBM@Checkbox?$AA@			; `string'
PUBLIC	??_C@_0M@LOEAKMNB@SliderFloat?$AA@		; `string'
PUBLIC	??_C@_09LIBCCLDO@InputText?$AA@			; `string'
PUBLIC	??_C@_0BD@GFPADHGG@InputTextMultiline?$AA@	; `string'
PUBLIC	??_C@_0L@BOKHHMCO@InputFloat?$AA@		; `string'
PUBLIC	??_C@_0M@CIKDMPID@InputFloat3?$AA@		; `string'
PUBLIC	??_C@_0L@KOIOKOAF@ColorEdit4?$AA@		; `string'
PUBLIC	??_C@_0L@CGGBDDBB@Selectable?$AA@		; `string'
PUBLIC	??_C@_08BLHBLMG@MenuItem?$AA@			; `string'
PUBLIC	??_C@_08IKFIGNAO@TreeNode?$AA@			; `string'
PUBLIC	??_C@_0BL@BMPDCCKO@TreeNode?5?$CIw?1?5double?9click?$CJ?$AA@ ; `string'
PUBLIC	??_C@_07OOFFCIDH@ListBox?$AA@			; `string'
PUBLIC	??_C@_09DBIMNOFJ@Item?5Type?$AA@		; `string'
PUBLIC	??_C@_0MD@CGCEADDG@Testing?5how?5various?5types?5of?5ite@ ; `string'
PUBLIC	??_C@_0O@FAHHGPEA@Item?5Disabled?$AA@		; `string'
PUBLIC	??_C@_0L@HEHKMKDF@ITEM?3?5Text?$AA@		; `string'
PUBLIC	??_C@_0N@KDFNBBDI@ITEM?3?5Button?$AA@		; `string'
PUBLIC	??_C@_0P@EJKLMMCP@ITEM?3?5Checkbox?$AA@		; `string'
PUBLIC	??_C@_0BC@HBFCOBHP@ITEM?3?5SliderFloat?$AA@	; `string'
PUBLIC	??_C@_0BA@HPKEIJD@ITEM?3?5InputText?$AA@	; `string'
PUBLIC	??_C@_0BJ@PFKMLMFF@ITEM?3?5InputTextMultiline?$AA@ ; `string'
PUBLIC	??_C@_0BB@LGHPELBI@ITEM?3?5InputFloat?$AA@	; `string'
PUBLIC	??_C@_0BC@OHLBICCN@ITEM?3?5InputFloat3?$AA@	; `string'
PUBLIC	??_C@_0BB@GFGJJDD@ITEM?3?5ColorEdit4?$AA@	; `string'
PUBLIC	??_C@_0BB@IOLJAECH@ITEM?3?5Selectable?$AA@	; `string'
PUBLIC	??_C@_0P@DJLFKAPF@ITEM?3?5MenuItem?$AA@		; `string'
PUBLIC	??_C@_0P@LCFKNGDN@ITEM?3?5TreeNode?$AA@		; `string'
PUBLIC	??_C@_0DH@BOEHHDDC@ITEM?3?5TreeNode?5w?1?5ImGuiTreeNodeF@ ; `string'
PUBLIC	??_C@_0M@JPKNJLGM@ITEM?3?5Combo?$AA@		; `string'
PUBLIC	??_C@_0O@DECMNPJF@ITEM?3?5ListBox?$AA@		; `string'
PUBLIC	??_C@_0CCH@GLOAKFDB@Return?5value?5?$DN?5?$CFd?6IsItemFocused?$CI@ ; `string'
PUBLIC	??_C@_0DD@FBICNHKB@w?1?5Hovering?5Delay?3?5None?5?$DN?5?$CFd?0?5Fa@ ; `string'
PUBLIC	??_C@_06OJAIHGIC@unused?$AA@			; `string'
PUBLIC	??_C@_0GH@DPFHCGHD@This?5widget?5is?5only?5here?5to?5be?5a@ ; `string'
PUBLIC	??_C@_0DG@IOBCHNLH@Widgets?1Querying?5Window?5Status?5?$CI@ ; `string'
PUBLIC	??_C@_0CO@GHICHHHH@Querying?5Window?5Status?5?$CIFocused?1@ ; `string'
PUBLIC	??_C@_0EF@HEEHLIKF@Embed?5everything?5inside?5a?5child?5@ ; `string'
PUBLIC	??_C@_0M@KCHHLPPE@outer_child?$AA@		; `string'
PUBLIC	??_C@_0BFL@IGCCLIMC@IsWindowFocused?$CI?$CJ?5?$DN?5?$CFd?6IsWindowF@ ; `string'
PUBLIC	??_C@_0BPL@PECCPJNF@IsWindowHovered?$CI?$CJ?5?$DN?5?$CFd?6IsWindowH@ ; `string'
PUBLIC	??_C@_05GPGNDLEK@child?$AA@			; `string'
PUBLIC	??_C@_0EB@JLFLAMNL@This?5is?5another?5child?5window?5for@ ; `string'
PUBLIC	??_C@_0DJ@OKFMLKNH@Hovered?1Active?5tests?5after?5Begin@ ; `string'
PUBLIC	??_C@_0BP@MFKNMHP@Title?5bar?5Hovered?1Active?5tests?$AA@ ; `string'
PUBLIC	??_C@_05LGELBCGM@Close?$AA@			; `string'
PUBLIC	??_C@_0HP@CKBHJIAM@IsItemHovered?$CI?$CJ?5after?5begin?5?$DN?5?$CFd@ ; `string'
PUBLIC	??_C@_0BG@GMADNJLN@Widgets?1Disable?5Block?$AA@	; `string'
PUBLIC	??_C@_0O@LDGJBBHL@Disable?5block?$AA@		; `string'
PUBLIC	??_C@_0BN@CHNIACDP@Disable?5entire?5section?5above?$AA@ ; `string'
PUBLIC	??_C@_0EF@FEKDLMNJ@Demonstrate?5using?5BeginDisabled?$CI@ ; `string'
PUBLIC	??_C@_0BE@EPEANCCD@Widgets?1Text?5Filter?$AA@	; `string'
PUBLIC	??_C@_0M@MINJPGJD@Text?5Filter?$AA@		; `string'
PUBLIC	??_C@_0GC@CDJPIFKB@Not?5a?5widget?5per?9se?0?5but?5ImGuiTe@ ; `string'
PUBLIC	??_C@_0LH@KANOFBLE@Filter?5usage?3?6?5?5?$CC?$CC?5?5?5?5?5?5?5?5?5displ@ ; `string'
PUBLIC	??_C@_0BC@HPCLFOON@Filter?5?$CIinc?0?9exc?$CJ?$AA@ ; `string'
PUBLIC	??_C@_06BMDMCJJI@aaa1?4c?$AA@			; `string'
PUBLIC	??_C@_06OMOADLHL@bbb1?4c?$AA@			; `string'
PUBLIC	??_C@_06LMKLMKNK@ccc1?4c?$AA@			; `string'
PUBLIC	??_C@_08GHAOHEK@aaa2?4cpp?$AA@			; `string'
PUBLIC	??_C@_08IAJKMGPB@bbb2?4cpp?$AA@			; `string'
PUBLIC	??_C@_08PNDMNJJI@ccc2?4cpp?$AA@			; `string'
PUBLIC	??_C@_05NIADHECG@abc?4h?$AA@			; `string'
PUBLIC	??_C@_0N@OLAOGCLC@hello?0?5world?$AA@		; `string'
PUBLIC	??_C@_02DKCKIIND@?$CFs?$AA@			; `string'
PUBLIC	?__LINE__Var@?0??ShowDemoWindowLayout@@YAXXZ@4JA ; `ShowDemoWindowLayout'::`1'::__LINE__Var
PUBLIC	??_C@_06KMHOJANB@Layout?$AA@			; `string'
PUBLIC	??_C@_0BD@JPJJCKFL@Layout?5?$CG?5Scrolling?$AA@	; `string'
PUBLIC	??_C@_0BF@MLLFPDNJ@Layout?1Child?5windows?$AA@	; `string'
PUBLIC	??_C@_0O@CCLKLEED@Child?5windows?$AA@		; `string'
PUBLIC	??_C@_0GO@NHEDEMHF@Use?5child?5windows?5to?5begin?5into?5@ ; `string'
PUBLIC	??_C@_0BE@DLAKMPBE@Disable?5Mouse?5Wheel?$AA@	; `string'
PUBLIC	??_C@_0N@PGMIMFJH@Disable?5Menu?$AA@		; `string'
PUBLIC	??_C@_06FBHPMCA@ChildL?$AA@			; `string'
PUBLIC	??_C@_0BI@NIHPFDMO@?$CF04d?3?5scrollable?5region?$AA@ ; `string'
PUBLIC	??_C@_06NBFGMDPP@ChildR?$AA@			; `string'
PUBLIC	??_C@_04OHGLKFFN@?$CF03d?$AA@			; `string'
PUBLIC	??_C@_08JECJNGEB@Offset?5X?$AA@			; `string'
PUBLIC	??_C@_03PADCEAKC@Red?$AA@			; `string'
PUBLIC	??_C@_0N@NPCHMHMN@Some?5test?5?$CFd?$AA@	; `string'
PUBLIC	??_C@_0M@EMOADGAG@Hovered?3?5?$CFd?$AA@		; `string'
PUBLIC	??_C@_0DB@EENCLFAL@Rect?5of?5child?5window?5is?3?5?$CI?$CF?40f?0?$CF@ ; `string'
PUBLIC	??_C@_0BF@OGICDKID@Layout?1Widgets?5Width?$AA@	; `string'
PUBLIC	??_C@_0O@PINHNBJ@Widgets?5Width?$AA@		; `string'
PUBLIC	??_C@_0BE@LMCIIFLK@Show?5indented?5items?$AA@	; `string'
PUBLIC	??_C@_0CE@LPIOKAFF@SetNextItemWidth?1PushItemWidth?$CI1@ ; `string'
PUBLIC	??_C@_0N@BANGKKCL@Fixed?5width?4?$AA@		; `string'
PUBLIC	??_C@_09IIOGPIBJ@float?$CD?$CD1b?$AA@		; `string'
PUBLIC	??_C@_0BF@IPGFKEDH@float?5?$CIindented?$CJ?$CD?$CD1b?$AA@ ; `string'
PUBLIC	??_C@_0CF@FHLMHJP@SetNextItemWidth?1PushItemWidth?$CI?9@ ; `string'
PUBLIC	??_C@_0BO@IEOHBCBL@Align?5to?5right?5edge?5minus?5100?$AA@ ; `string'
PUBLIC	??_C@_09KBINBFID@float?$CD?$CD2a?$AA@		; `string'
PUBLIC	??_C@_0BF@INCDBKGO@float?5?$CIindented?$CJ?$CD?$CD2b?$AA@ ; `string'
PUBLIC	??_C@_0EB@LHGGMOLL@SetNextItemWidth?1PushItemWidth?$CIG@ ; `string'
PUBLIC	??_C@_0EK@LHEEJHHB@Half?5of?5available?5width?4?6?$CI?$HO?5righ@ ; `string'
PUBLIC	??_C@_09KAEPHPLE@float?$CD?$CD3a?$AA@		; `string'
PUBLIC	??_C@_0BF@IMOBHAFJ@float?5?$CIindented?$CJ?$CD?$CD3b?$AA@ ; `string'
PUBLIC	??_C@_0EC@PNELNOAD@SetNextItemWidth?1PushItemWidth?$CI?9@ ; `string'
PUBLIC	??_C@_0BP@JKFCPAHG@Align?5to?5right?5edge?5minus?5half?$AA@ ; `string'
PUBLIC	??_C@_09KFAAGJDB@float?$CD?$CD4a?$AA@		; `string'
PUBLIC	??_C@_0BF@IJKOGGNM@float?5?$CIindented?$CJ?$CD?$CD4b?$AA@ ; `string'
PUBLIC	??_C@_0CJ@HIOADNAC@SetNextItemWidth?1PushItemWidth?$CI?9@ ; `string'
PUBLIC	??_C@_0BE@CLIHJLDF@Align?5to?5right?5edge?$AA@	; `string'
PUBLIC	??_C@_09LOBKLHLF@?$CD?$CDfloat5a?$AA@		; `string'
PUBLIC	??_C@_0BF@IIGMAMOL@float?5?$CIindented?$CJ?$CD?$CD5b?$AA@ ; `string'
PUBLIC	??_C@_0BP@OIAKENPD@Layout?1Basic?5Horizontal?5Layout?$AA@ ; `string'
PUBLIC	??_C@_0BI@MLGIMKHF@Basic?5Horizontal?5Layout?$AA@ ; `string'
PUBLIC	??_C@_0FA@GPJJJDFK@?$CIUse?5ImGui?3?3SameLine?$CI?$CJ?5to?5keep?5a@ ; `string'
PUBLIC	??_C@_0CI@JJPKKMMM@Layout?1Basic?5Horizontal?5Layout?1S@ ; `string'
PUBLIC	??_C@_0BB@CPONELNL@Two?5items?3?5Hello?$AA@	; `string'
PUBLIC	??_C@_0BE@BBDLDECN@More?5spacing?3?5Hello?$AA@	; `string'
PUBLIC	??_C@_0P@PEKJFFJL@Normal?5buttons?$AA@		; `string'
PUBLIC	??_C@_0M@IAINFGJF@Corniflower?$AA@		; `string'
PUBLIC	??_C@_0O@JIDOKED@Small?5buttons?$AA@		; `string'
PUBLIC	??_C@_0O@DOOOCPOJ@Like?5this?5one?$AA@		; `string'
PUBLIC	??_C@_0BN@FOPDMCKC@can?5fit?5within?5a?5text?5block?4?$AA@ ; `string'
PUBLIC	??_C@_0DG@PNPLOBCG@Layout?1Basic?5Horizontal?5Layout?1S@ ; `string'
PUBLIC	??_C@_07KDGBBGOD@Aligned?$AA@			; `string'
PUBLIC	??_C@_05EFIMCDIL@x?$DN150?$AA@			; `string'
PUBLIC	??_C@_05OJEOCJOL@x?$DN300?$AA@			; `string'
PUBLIC	??_C@_0CP@MGOPNFDK@Layout?1Basic?5Horizontal?5Layout?1S@ ; `string'
PUBLIC	??_C@_02IGABPKMB@My?$AA@			; `string'
PUBLIC	??_C@_06MNPBPLDE@Tailor?$AA@			; `string'
PUBLIC	??_C@_02HLOHLKJH@Is?$AA@			; `string'
PUBLIC	??_C@_04NKJFLIBG@Rich?$AA@			; `string'
PUBLIC	??_C@_01MMEEDKFM@X?$AA@				; `string'
PUBLIC	??_C@_01NFFPALBN@Y?$AA@				; `string'
PUBLIC	??_C@_01POHCFINO@Z?$AA@				; `string'
PUBLIC	??_C@_06OHPCMELK@Lists?3?$AA@			; `string'
PUBLIC	??_C@_0CF@BAJJENJB@Layout?1Basic?5Horizontal?5Layout?1D@ ; `string'
PUBLIC	??_C@_01FHEEJDEE@A?$AA@				; `string'
PUBLIC	??_C@_01HMGJMAIH@B?$AA@				; `string'
PUBLIC	??_C@_0CP@EDHPDNEN@Layout?1Basic?5Horizontal?5Layout?1M@ ; `string'
PUBLIC	??_C@_0BB@EBMAGHCE@Manual?5wrapping?3?$AA@	; `string'
PUBLIC	??_C@_03ELMLMPLG@Box?$AA@			; `string'
PUBLIC	??_C@_0O@KBPNIDDB@Layout?1Groups?$AA@		; `string'
PUBLIC	??_C@_06LCLFDFOL@Groups?$AA@			; `string'
PUBLIC	??_C@_0NJ@BBEJCFPH@BeginGroup?$CI?$CJ?5basically?5locks?5the@ ; `string'
PUBLIC	??_C@_03GFCJIGAI@AAA?$AA@			; `string'
PUBLIC	??_C@_03FOPHMEHM@BBB?$AA@			; `string'
PUBLIC	??_C@_03POJCPIGP@CCC?$AA@			; `string'
PUBLIC	??_C@_03CJELEAJE@DDD?$AA@			; `string'
PUBLIC	??_C@_03IJCOHMIH@EEE?$AA@			; `string'
PUBLIC	??_C@_0BE@GCGPENCF@First?5group?5hovered?$AA@	; `string'
PUBLIC	??_C@_08NDEOOAHA@?$CD?$CDvalues?$AA@		; `string'
PUBLIC	??_C@_06DHJAPAEE@ACTION?$AA@			; `string'
PUBLIC	??_C@_08HBCMJOON@REACTION?$AA@			; `string'
PUBLIC	??_C@_0BC@NCAPIIPH@LEVERAGE?6BUZZWORD?$AA@	; `string'
PUBLIC	??_C@_04PPBEGPNI@List?$AA@			; `string'
PUBLIC	??_C@_08KLEPBNHL@Selected?$AA@			; `string'
PUBLIC	??_C@_0N@FODJADJE@Not?5Selected?$AA@		; `string'
PUBLIC	??_C@_0BP@BPEPNMPK@Layout?1Text?5Baseline?5Alignment?$AA@ ; `string'
PUBLIC	??_C@_0BI@DMCNFLHM@Text?5Baseline?5Alignment?$AA@ ; `string'
PUBLIC	??_C@_0P@FLJDDPLM@Text?5baseline?3?$AA@		; `string'
PUBLIC	??_C@_0MJ@CEINBEPI@This?5is?5testing?5the?5vertical?5ali@ ; `string'
PUBLIC	??_C@_0M@HEDLMKK@KO?5Blahblah?$AA@		; `string'
PUBLIC	??_C@_0BB@GBEAAIAC@Some?5framed?5item?$AA@	; `string'
PUBLIC	??_C@_0DE@PMNLFDAO@Baseline?5of?5button?5will?5look?5mis@ ; `string'
PUBLIC	??_C@_0M@LEJMPEFH@OK?5Blahblah?$AA@		; `string'
PUBLIC	??_C@_0FL@DLOHNEGO@We?5call?5AlignTextToFramePadding?$CI@ ; `string'
PUBLIC	??_C@_07FENKGLPN@TEST?$CD?$CD1?$AA@		; `string'
PUBLIC	??_C@_04OIKJMBFP@TEST?$AA@			; `string'
PUBLIC	??_C@_07HPPHDIDO@TEST?$CD?$CD2?$AA@		; `string'
PUBLIC	??_C@_0BM@CCJJPIAI@Text?5aligned?5to?5framed?5item?$AA@ ; `string'
PUBLIC	??_C@_07MDGCNPKG@Item?$CD?$CD1?$AA@		; `string'
PUBLIC	??_C@_04BGCMBJDA@Item?$AA@			; `string'
PUBLIC	??_C@_07OIEPIMGF@Item?$CD?$CD2?$AA@		; `string'
PUBLIC	??_C@_07PBFELNCE@Item?$CD?$CD3?$AA@		; `string'
PUBLIC	??_C@_0BB@IKLHLLAO@Multi?9line?5text?3?$AA@	; `string'
PUBLIC	??_C@_0O@LPFJLNGJ@One?6Two?6Three?$AA@		; `string'
PUBLIC	??_C@_0M@MEHCJFNA@Hello?6World?$AA@		; `string'
PUBLIC	??_C@_06JNLLJDDG@HOP?$CD?$CD1?$AA@		; `string'
PUBLIC	??_C@_06LGJGMAPF@HOP?$CD?$CD2?$AA@		; `string'
PUBLIC	??_C@_0M@OFIEFPON@Misc?5items?3?$AA@		; `string'
PUBLIC	??_C@_05FMIAGJLC@80x80?$AA@			; `string'
PUBLIC	??_C@_05OIMGOJDP@50x50?$AA@			; `string'
PUBLIC	??_C@_08DHDFAMNE@Button?$CI?$CJ?$AA@		; `string'
PUBLIC	??_C@_0O@DANAPFLN@SmallButton?$CI?$CJ?$AA@	; `string'
PUBLIC	??_C@_09JNECCGKE@Button?$CD?$CD1?$AA@		; `string'
PUBLIC	??_C@_07FHFCIGOP@Node?$CD?$CD1?$AA@		; `string'
PUBLIC	??_C@_09CCOCANBA@Item?5?$CFd?4?4?$AA@		; `string'
PUBLIC	??_C@_07HMHPNFCM@Node?$CD?$CD2?$AA@		; `string'
PUBLIC	??_C@_09LGGPHFGH@Button?$CD?$CD2?$AA@		; `string'
PUBLIC	??_C@_09KPHEEECG@Button?$CD?$CD3?$AA@		; `string'
PUBLIC	??_C@_0M@DABAODPF@Bullet?5text?$AA@		; `string'
PUBLIC	??_C@_04OKAPPFIB@Node?$AA@			; `string'
PUBLIC	??_C@_09OADFNCOB@Button?$CD?$CD4?$AA@		; `string'
PUBLIC	??_C@_0BB@PPJKDLIF@Layout?1Scrolling?$AA@	; `string'
PUBLIC	??_C@_09LFBMELOM@Scrolling?$AA@			; `string'
PUBLIC	??_C@_0BK@KKKEAAFD@Layout?1Scrolling?1Vertical?$AA@ ; `string'
PUBLIC	??_C@_0FE@KFLONGJI@Use?5SetScrollHereY?$CI?$CJ?5or?5SetScrol@ ; `string'
PUBLIC	??_C@_0L@ODNEMNHD@Decoration?$AA@		; `string'
PUBLIC	??_C@_05BFDCPAGB@Track?$AA@			; `string'
PUBLIC	??_C@_09GAMHFGFH@Item?5?$DN?5?$CFd?$AA@		; `string'
PUBLIC	??_C@_06PDMOEKMO@?$CD?$CDitem?$AA@		; `string'
PUBLIC	??_C@_0O@EDOJIGBC@Scroll?5Offset?$AA@		; `string'
PUBLIC	??_C@_08DGGLGIAM@?$CL?$CF?40f?5px?$AA@		; `string'
PUBLIC	??_C@_05FFNMOAPG@?$CD?$CDoff?$AA@		; `string'
PUBLIC	??_C@_0O@CGNNKBMG@Scroll?5To?5Pos?$AA@		; `string'
PUBLIC	??_C@_0O@LJJDDGBB@X?1Y?5?$DN?5?$CF?40f?5px?$AA@	; `string'
PUBLIC	??_C@_05GFMCHKKE@?$CD?$CDpos?$AA@		; `string'
PUBLIC	??_C@_0BE@NILALFMA@?$CD?$CDVerticalScrolling?$AA@ ; `string'
PUBLIC	??_C@_03PGGAENPN@Top?$AA@			; `string'
PUBLIC	??_C@_03EOMKOHFF@25?$CF?$AA@			; `string'
PUBLIC	??_C@_06NOADDNNE@Center?$AA@			; `string'
PUBLIC	??_C@_03HJBEBHGH@75?$CF?$AA@			; `string'
PUBLIC	??_C@_06DDHCBBGN@Bottom?$AA@			; `string'
PUBLIC	??_C@_03FIKCJHKP@abc?$AA@			; `string'
PUBLIC	??_C@_09DKGDMKKF@?$CF?40f?1?$CF?40f?$AA@	; `string'
PUBLIC	??_C@_0BM@CLNONEPI@Layout?1Scrolling?1Horizontal?$AA@ ; `string'
PUBLIC	??_C@_0BDB@LNFKBNGF@Use?5SetScrollHereX?$CI?$CJ?5or?5SetScrol@ ; `string'
PUBLIC	??_C@_0BG@BEAADLOE@?$CD?$CDHorizontalScrolling?$AA@ ; `string'
PUBLIC	??_C@_04KPCPLBPL@Left?$AA@			; `string'
PUBLIC	??_C@_05DADPALEM@Right?$AA@			; `string'
PUBLIC	??_C@_0N@MJLHBHDH@?$CFs?6?$CF?40f?1?$CF?40f?$AA@ ; `string'
PUBLIC	??_C@_0CD@POIINEAC@Layout?1Scrolling?1Horizontal?5?$CImor@ ; `string'
PUBLIC	??_C@_0MM@GGDOLBND@Horizontal?5scrolling?5for?5a?5windo@ ; `string'
PUBLIC	??_C@_09PKEBEIDM@scrolling?$AA@			; `string'
PUBLIC	??_C@_08GLBPKMPD@FizzBuzz?$AA@			; `string'
PUBLIC	??_C@_04CEPGGBHI@Fizz?$AA@			; `string'
PUBLIC	??_C@_04MLLJCPJP@Buzz?$AA@			; `string'
PUBLIC	??_C@_02FODMEDOG@?$DM?$DM?$AA@			; `string'
PUBLIC	??_C@_0BB@HICDBOJF@Scroll?5from?5code?$AA@	; `string'
PUBLIC	??_C@_02GPIOPFAK@?$DO?$DO?$AA@			; `string'
PUBLIC	??_C@_0CK@KHHLOHPL@Show?5Horizontal?5contents?5size?5de@ ; `string'
PUBLIC	??_C@_0CF@OHGKBEFE@Horizontal?5contents?5size?5demo?5wi@ ; `string'
PUBLIC	??_C@_0DG@FFKEOKBG@Layout?1Scrolling?1Horizontal?5cont@ ; `string'
PUBLIC	??_C@_0LE@BCMFBNBD@Test?5of?5different?5widgets?5react?5@ ; `string'
PUBLIC	??_C@_0M@PCJBMDND@H?9scrollbar?$AA@		; `string'
PUBLIC	??_C@_0L@DIDHCLKE@Tree?5nodes?$AA@		; `string'
PUBLIC	??_C@_0N@HDFBIJDK@Text?5wrapped?$AA@		; `string'
PUBLIC	??_C@_07IBCCJKML@Columns?$AA@			; `string'
PUBLIC	??_C@_07CHLOJOEF@Tab?5bar?$AA@			; `string'
PUBLIC	??_C@_05GIMBDOHM@Child?$AA@			; `string'
PUBLIC	??_C@_0BG@GEDBKKBK@Explicit?5content?5size?$AA@	; `string'
PUBLIC	??_C@_0BL@EDCBBBDH@Scroll?5?$CF?41f?1?$CF?41f?5?$CF?41f?1?$CF?41f?$AA@ ; `string'
PUBLIC	??_C@_05NBKGABAK@?$CD?$CDcsx?$AA@		; `string'
PUBLIC	??_C@_0BK@GGAJDBIL@this?5is?5a?5300?9wide?5button?$AA@ ; `string'
PUBLIC	??_C@_0BE@HNGLJJLH@this?5is?5a?5tree?5node?$AA@	; `string'
PUBLIC	??_C@_0CC@FFNCLEGA@another?5one?5of?5those?5tree?5node?4?4@ ; `string'
PUBLIC	??_C@_0BD@GOEDKDLO@Some?5tree?5contents?$AA@	; `string'
PUBLIC	??_C@_0BB@LBMIMLJO@CollapsingHeader?$AA@	; `string'
PUBLIC	??_C@_0EH@ECONPGGJ@This?5text?5should?5automatically?5w@ ; `string'
PUBLIC	??_C@_07GIKBKH@Tables?3?$AA@			; `string'
PUBLIC	??_C@_05LCLENNFI@table?$AA@			; `string'
PUBLIC	??_C@_0L@CDOLGENO@Width?5?$CF?42f?$AA@		; `string'
PUBLIC	??_C@_08CJJOOHNL@Columns?3?$AA@			; `string'
PUBLIC	??_C@_05COLMCDPH@Hello?$AA@			; `string'
PUBLIC	??_C@_09DHLFJNGJ@OneOneOne?$AA@			; `string'
PUBLIC	??_C@_09BMOICMLJ@TwoTwoTwo?$AA@			; `string'
PUBLIC	??_C@_0BA@BGMNPICP@ThreeThreeThree?$AA@		; `string'
PUBLIC	??_C@_0N@GNNAMPMJ@FourFourFour?$AA@		; `string'
PUBLIC	??_C@_0BA@OCHNAOPI@Layout?1Clipping?$AA@	; `string'
PUBLIC	??_C@_08LLKICGJM@Clipping?$AA@			; `string'
PUBLIC	??_C@_04IAGNFIBA@size?$AA@			; `string'
PUBLIC	??_C@_0BL@MNBDPJCG@?$CIClick?5and?5drag?5to?5scroll?$CJ?$AA@ ; `string'
PUBLIC	??_C@_0CBB@PALAFPED@?$CILeft?$CJ?5Using?5ImGui?3?3PushClipRect@ ; `string'
PUBLIC	??_C@_08IJNEAHEL@?$CD?$CDcanvas?$AA@		; `string'
PUBLIC	??_C@_0BN@MKAJBHJO@Line?51?5hello?6Line?52?5clip?5me?$CB?$AA@ ; `string'
PUBLIC	?__LINE__Var@?0??ShowDemoWindowPopups@@YAXXZ@4JA ; `ShowDemoWindowPopups'::`1'::__LINE__Var
PUBLIC	??_C@_06ENDEIGLN@Popups?$AA@			; `string'
PUBLIC	??_C@_0BH@JODLIHDO@Popups?5?$CG?5Modal?5windows?$AA@ ; `string'
PUBLIC	??_C@_0O@LLGFJBMF@Popups?1Popups?$AA@		; `string'
PUBLIC	??_C@_0HO@LGMOGOO@When?5a?5popup?5is?5active?0?5it?5inhib@ ; `string'
PUBLIC	??_C@_05BKABPFFI@Bream?$AA@			; `string'
PUBLIC	??_C@_07BNGOACBO@Haddock?$AA@			; `string'
PUBLIC	??_C@_08OFLHLLIP@Mackerel?$AA@			; `string'
PUBLIC	??_C@_07DOCMJKHB@Pollock?$AA@			; `string'
PUBLIC	??_C@_08EGAMPFAB@Tilefish?$AA@			; `string'
PUBLIC	??_C@_08NNBGNINF@Select?4?4?$AA@		; `string'
PUBLIC	??_C@_0BA@GGCCCMJM@my_select_popup?$AA@		; `string'
PUBLIC	??_C@_06PHEAPGKB@?$DMNone?$DO?$AA@		; `string'
PUBLIC	??_C@_08IKEIPKBP@Aquarium?$AA@			; `string'
PUBLIC	??_C@_08NINPLAO@Toggle?4?4?$AA@			; `string'
PUBLIC	??_C@_0BA@LJBKGLLI@my_toggle_popup?$AA@		; `string'
PUBLIC	??_C@_08GMNJJNGG@Sub?9menu?$AA@			; `string'
PUBLIC	??_C@_08PPLGDLFG@Click?5me?$AA@			; `string'
PUBLIC	??_C@_0N@IODHFNG@Tooltip?5here?$AA@		; `string'
PUBLIC	??_C@_0BM@HJLGLIOD@I?5am?5a?5tooltip?5over?5a?5popup?$AA@ ; `string'
PUBLIC	??_C@_0O@NAJLJJDJ@Stacked?5Popup?$AA@		; `string'
PUBLIC	??_C@_0O@CMMIFNBD@another?5popup?$AA@		; `string'
PUBLIC	??_C@_0BI@DMMONLJF@I?5am?5the?5last?5one?5here?4?$AA@ ; `string'
PUBLIC	??_C@_0O@CEODEGMM@With?5a?5menu?4?4?$AA@	; `string'
PUBLIC	??_C@_0O@CMFGCCH@my_file_popup?$AA@		; `string'
PUBLIC	??_C@_04PBAHLACE@File?$AA@			; `string'
PUBLIC	??_C@_05JMHIMMIL@Dummy?$AA@			; `string'
PUBLIC	??_C@_0BC@DPOMEOMK@Hello?5from?5popup?$CB?$AA@	; `string'
PUBLIC	??_C@_0BJ@BLLJFPAH@This?5is?5a?5dummy?5button?4?4?$AA@ ; `string'
PUBLIC	??_C@_0BF@CBNGCKHJ@Popups?1Context?5menus?$AA@	; `string'
PUBLIC	??_C@_0O@EGPMCJBG@Context?5menus?$AA@		; `string'
PUBLIC	??_C@_0GC@JCPNKAKN@?$CCContext?$CC?5functions?5are?5simple?5h@ ; `string'
PUBLIC	??_C@_06EKAKPFJJ@Label1?$AA@			; `string'
PUBLIC	??_C@_06GBCHKGFK@Label2?$AA@			; `string'
PUBLIC	??_C@_06HIDMJHBL@Label3?$AA@			; `string'
PUBLIC	??_C@_06DHHNABNM@Label4?$AA@			; `string'
PUBLIC	??_C@_06COGGDAJN@Label5?$AA@			; `string'
PUBLIC	??_C@_0BH@BODNOCMP@This?5a?5popup?5for?5?$CC?$CFs?$CC?$CB?$AA@ ; `string'
PUBLIC	??_C@_0BK@PNAOOLFL@Right?9click?5to?5open?5popup?$AA@ ; `string'
PUBLIC	??_C@_0EJ@OBAEIHGO@Text?$CI?$CJ?5elements?5don?8t?5have?5stabl@ ; `string'
PUBLIC	??_C@_0CL@MINHGHEB@Value?5?$DN?5?$CF?43f?5?$DM?9?9?5?$CI1?$CJ?5right?9click@ ; `string'
PUBLIC	??_C@_08MOACKAAJ@my?5popup?$AA@			; `string'
PUBLIC	??_C@_0M@MLNNLOAO@Set?5to?5zero?$AA@		; `string'
PUBLIC	??_C@_09NJOBBCFG@Set?5to?5PI?$AA@		; `string'
PUBLIC	??_C@_07FGLEKONH@?$CD?$CDValue?$AA@		; `string'
PUBLIC	??_C@_0BN@BDAGDOIM@?$CI2?$CJ?5Or?5right?9click?5this?5text?$AA@ ; `string'
PUBLIC	??_C@_0BJ@DCOFNGHJ@?$CI3?$CJ?5Or?5click?5this?5button?$AA@ ; `string'
PUBLIC	??_C@_0HH@IOGIBFGK@Showcase?5using?5a?5popup?5ID?5linked@ ; `string'
PUBLIC	??_C@_0BE@BJGBOOKP@Button?3?5?$CFs?$CD?$CD?$CDButton?$AA@ ; `string'
PUBLIC	??_C@_0L@MIFJAGAG@Edit?5name?3?$AA@		; `string'
PUBLIC	??_C@_06PEDNKACM@?$CD?$CDedit?$AA@		; `string'
PUBLIC	??_C@_0BH@BPPDJDHF@?$CI?$DM?9?9?5right?9click?5here?$CJ?$AA@ ; `string'
PUBLIC	??_C@_0O@OCELMHFF@Popups?1Modals?$AA@		; `string'
PUBLIC	??_C@_06BEBKNACN@Modals?$AA@			; `string'
PUBLIC	??_C@_0FC@FCFEEIDF@Modal?5windows?5are?5like?5popups?5bu@ ; `string'
PUBLIC	??_C@_08CPNCIMAF@Delete?4?4?$AA@		; `string'
PUBLIC	??_C@_07DCPPKMOD@Delete?$DP?$AA@		; `string'
PUBLIC	??_C@_0EO@GEGEJAML@All?5those?5beautiful?5files?5will?5b@ ; `string'
PUBLIC	??_C@_0BH@BGNANACB@Don?8t?5ask?5me?5next?5time?$AA@ ; `string'
PUBLIC	??_C@_02GIPFHKNO@OK?$AA@			; `string'
PUBLIC	??_C@_06FMBNCPDL@Cancel?$AA@			; `string'
PUBLIC	??_C@_0BB@NNACGNLC@Stacked?5modals?4?4?$AA@	; `string'
PUBLIC	??_C@_09DMLDOIOE@Stacked?51?$AA@		; `string'
PUBLIC	??_C@_0P@LCHDFKKN@Some?5menu?5item?$AA@		; `string'
PUBLIC	??_C@_0FG@FEJJJKAO@Hello?5from?5Stacked?5The?5First?6Usi@ ; `string'
PUBLIC	??_C@_05PEENBMOG@color?$AA@			; `string'
PUBLIC	??_C@_0BE@EOGCGODN@Add?5another?5modal?4?4?$AA@	; `string'
PUBLIC	??_C@_09BHJOLLCH@Stacked?52?$AA@		; `string'
PUBLIC	??_C@_0BP@CPFMAIJ@Hello?5from?5Stacked?5The?5Second?$CB?$AA@ ; `string'
PUBLIC	??_C@_0CF@IOOAIMEM@Popups?1Menus?5inside?5a?5regular?5wi@ ; `string'
PUBLIC	??_C@_0BO@EEOFHCMN@Menus?5inside?5a?5regular?5window?$AA@ ; `string'
PUBLIC	??_C@_0GB@PMDHHLNB@Below?5we?5are?5testing?5adding?5menu@ ; `string'
PUBLIC	??_C@_06GCLBOGOD@CTRL?$CLM?$AA@			; `string'
PUBLIC	??_C@_09PDGIKJJH@Menu?5item?$AA@		; `string'
PUBLIC	??_C@_0BN@MFBALFLF@Menu?5inside?5a?5regular?5window?$AA@ ; `string'
PUBLIC	??_C@_13COJANIEC@?$AA0?$AA?$AA@			; `string'
PUBLIC	??_C@_0BA@PNOLBFOJ@ImGuiTableFlags?$AA@		; `string'
PUBLIC	??_C@_0O@GDABACCD@Sizing?5Policy?$AA@		; `string'
PUBLIC	??_C@_03DKEJHHJP@?$CFs?3?$AA@			; `string'
PUBLIC	??_C@_09NLBHHOGA@_Disabled?$AA@			; `string'
PUBLIC	??_C@_0DC@GLEFNIIN@Master?5disable?5flag?5?$CIalso?5hide?5f@ ; `string'
PUBLIC	??_C@_0N@BKJKKNLB@_DefaultHide?$AA@		; `string'
PUBLIC	??_C@_0N@GDLDKICM@_DefaultSort?$AA@		; `string'
PUBLIC	??_C@_0O@LBJDIKPA@_WidthStretch?$AA@		; `string'
PUBLIC	??_C@_0M@ILFLIFOG@_WidthFixed?$AA@		; `string'
PUBLIC	??_C@_09BODCBGEL@_NoResize?$AA@			; `string'
PUBLIC	??_C@_0L@CPPLPFKF@_NoReorder?$AA@		; `string'
PUBLIC	??_C@_07ICLECFEI@_NoHide?$AA@			; `string'
PUBLIC	??_C@_07PNNHJBCM@_NoClip?$AA@			; `string'
PUBLIC	??_C@_07PLJNCANF@_NoSort?$AA@			; `string'
PUBLIC	??_C@_0BB@BJIHNDPG@_NoSortAscending?$AA@	; `string'
PUBLIC	??_C@_0BC@IGDJILJK@_NoSortDescending?$AA@	; `string'
PUBLIC	??_C@_0P@FAJFNLOA@_NoHeaderLabel?$AA@		; `string'
PUBLIC	??_C@_0P@FFBHDBOG@_NoHeaderWidth?$AA@		; `string'
PUBLIC	??_C@_0BF@BFMFKAGJ@_PreferSortAscending?$AA@	; `string'
PUBLIC	??_C@_0BG@OGIFEHDM@_PreferSortDescending?$AA@	; `string'
PUBLIC	??_C@_0O@IHCPMKPD@_IndentEnable?$AA@		; `string'
PUBLIC	??_C@_0BF@NGNGOPFH@Default?5for?5column?50?$AA@	; `string'
PUBLIC	??_C@_0P@NDAELIGC@_IndentDisable?$AA@		; `string'
PUBLIC	??_C@_0BG@CAABAJEB@Default?5for?5column?5?$DO0?$AA@ ; `string'
PUBLIC	??_C@_0L@HAGMFILL@_IsEnabled?$AA@		; `string'
PUBLIC	??_C@_0L@IICELPIB@_IsVisible?$AA@		; `string'
PUBLIC	??_C@_09MHNJAEMK@_IsSorted?$AA@			; `string'
PUBLIC	??_C@_0L@FBCLIIEB@_IsHovered?$AA@		; `string'
PUBLIC	?__LINE__Var@?0??ShowDemoWindowTables@@YAXXZ@4JA ; `ShowDemoWindowTables'::`1'::__LINE__Var
PUBLIC	??_C@_02BAABKJLB@?9?9?$AA@			; `string'
PUBLIC	??_C@_06KOKNHOLC@Tables?$AA@			; `string'
PUBLIC	??_C@_0BB@MJGPNNJD@Tables?5?$CG?5Columns?$AA@	; `string'
PUBLIC	??_C@_08JFCDBCPC@Open?5all?$AA@			; `string'
PUBLIC	??_C@_09JFADBGFP@Close?5all?$AA@		; `string'
PUBLIC	??_C@_0BJ@JLFJACII@Disable?5tree?5indentation?$AA@ ; `string'
PUBLIC	??_C@_0FC@FFIEPAOP@Disable?5the?5indenting?5of?5tree?5no@ ; `string'
PUBLIC	??_C@_0N@NCGMCGDE@Tables?1Basic?$AA@		; `string'
PUBLIC	??_C@_0FE@BMEOIPOH@Using?5TableNextRow?$CI?$CJ?5?$CL?5calling?5T@ ; `string'
PUBLIC	??_C@_06KDFPGKKJ@table1?$AA@			; `string'
PUBLIC	??_C@_0BB@IODOONAJ@Row?5?$CFd?5Column?5?$CFd?$AA@ ; `string'
PUBLIC	??_C@_0EP@POKEAGN@Using?5TableNextRow?$CI?$CJ?5?$CL?5calling?5T@ ; `string'
PUBLIC	??_C@_06IIHCDJGK@table2?$AA@			; `string'
PUBLIC	??_C@_06PLKMNMNJ@Row?5?$CFd?$AA@		; `string'
PUBLIC	??_C@_0O@HOFANGPE@Some?5contents?$AA@		; `string'
PUBLIC	??_C@_07MEKMPKJA@123?4456?$AA@			; `string'
PUBLIC	??_C@_0BAJ@LOLGBBOP@Only?5using?5TableNextColumn?$CI?$CJ?0?5wh@ ; `string'
PUBLIC	??_C@_06JBGJAICL@table3?$AA@			; `string'
PUBLIC	??_C@_0BL@DKPJPGIB@Tables?1Borders?0?5background?$AA@ ; `string'
PUBLIC	??_C@_0BE@HDDFNCPF@Borders?0?5background?$AA@	; `string'
PUBLIC	??_C@_0BG@FNKJINH@ImGuiTableFlags_RowBg?$AA@	; `string'
PUBLIC	??_C@_0BI@KLDEGJMI@ImGuiTableFlags_Borders?$AA@	; `string'
PUBLIC	??_C@_0JM@OCDLGALD@ImGuiTableFlags_Borders?6?5?$DN?5ImGui@ ; `string'
PUBLIC	??_C@_0BJ@KNLELLOG@ImGuiTableFlags_BordersH?$AA@ ; `string'
PUBLIC	??_C@_0BO@EFCOPFHN@ImGuiTableFlags_BordersOuterH?$AA@ ; `string'
PUBLIC	??_C@_0BO@GFLPLNDM@ImGuiTableFlags_BordersInnerH?$AA@ ; `string'
PUBLIC	??_C@_0BJ@HJPFIEDJ@ImGuiTableFlags_BordersV?$AA@ ; `string'
PUBLIC	??_C@_0BO@JBGPMKKC@ImGuiTableFlags_BordersOuterV?$AA@ ; `string'
PUBLIC	??_C@_0BO@LBPOICOD@ImGuiTableFlags_BordersInnerV?$AA@ ; `string'
PUBLIC	??_C@_0BN@IJKOMBIP@ImGuiTableFlags_BordersOuter?$AA@ ; `string'
PUBLIC	??_C@_0BN@HHGDDDPK@ImGuiTableFlags_BordersInner?$AA@ ; `string'
PUBLIC	??_C@_0P@EJGNBOGK@Cell?5contents?3?$AA@		; `string'
PUBLIC	??_C@_0L@GCOFDGJD@FillButton?$AA@		; `string'
PUBLIC	??_C@_0BA@OPBHLGMF@Display?5headers?$AA@	; `string'
PUBLIC	??_C@_0CA@DPINADJM@ImGuiTableFlags_NoBordersInBody?$AA@ ; `string'
PUBLIC	??_C@_0FA@EPKAHHBC@Disable?5vertical?5borders?5in?5colu@ ; `string'
PUBLIC	??_C@_03EHAPBBEA@One?$AA@			; `string'
PUBLIC	??_C@_03CJAPLBKL@Two?$AA@			; `string'
PUBLIC	??_C@_05OHMANGAP@Three?$AA@			; `string'
PUBLIC	??_C@_0M@MKBMKAAH@Hello?5?$CFd?0?$CFd?$AA@	; `string'
PUBLIC	??_C@_0BK@JBACCIOD@Tables?1Resizable?0?5stretch?$AA@ ; `string'
PUBLIC	??_C@_0BD@DEGBBBAF@Resizable?0?5stretch?$AA@	; `string'
PUBLIC	??_C@_0BK@EMJCIFOG@ImGuiTableFlags_Resizable?$AA@ ; `string'
PUBLIC	??_C@_0JI@HEDAGHBG@Using?5the?5_Resizable?5flag?5automa@ ; `string'
PUBLIC	??_C@_0BI@HIOAIGHO@Tables?1Resizable?0?5fixed?$AA@ ; `string'
PUBLIC	??_C@_0BB@PCKPFPON@Resizable?0?5fixed?$AA@	; `string'
PUBLIC	??_C@_0MI@DMACPCHA@Using?5_Resizable?5?$CL?5_SizingFixedF@ ; `string'
PUBLIC	??_C@_0BO@NGJMFDHH@ImGuiTableFlags_NoHostExtendX?$AA@ ; `string'
PUBLIC	??_C@_0BI@BCCHHGLN@Tables?1Resizable?0?5mixed?$AA@ ; `string'
PUBLIC	??_C@_0BB@JIGIKPCO@Resizable?0?5mixed?$AA@	; `string'
PUBLIC	??_C@_0MC@OIEBOKLD@Using?5TableSetupColumn?$CI?$CJ?5to?5alte@ ; `string'
PUBLIC	??_C@_07ENIDNHGB@Stretch?$AA@			; `string'
PUBLIC	??_C@_05OCBIINAK@Fixed?$AA@			; `string'
PUBLIC	??_C@_08NCNCPMHE@?$CFs?5?$CFd?0?$CFd?$AA@	; `string'
PUBLIC	??_C@_03LCPADOPD@FFF?$AA@			; `string'
PUBLIC	??_C@_0CL@HJEJDHOC@Tables?1Reorderable?0?5hideable?0?5wi@ ; `string'
PUBLIC	??_C@_0CE@KCIAIBPM@Reorderable?0?5hideable?0?5with?5head@ ; `string'
PUBLIC	??_C@_0GD@ICCOIMAN@Click?5and?5drag?5column?5headers?5to@ ; `string'
PUBLIC	??_C@_0BM@CEFJIGKC@ImGuiTableFlags_Reorderable?$AA@ ; `string'
PUBLIC	??_C@_0BJ@KDGOANFD@ImGuiTableFlags_Hideable?$AA@ ; `string'
PUBLIC	??_C@_0CL@IIFCHPBH@ImGuiTableFlags_NoBordersInBodyU@ ; `string'
PUBLIC	??_C@_0GK@KONLLEJN@Disable?5vertical?5borders?5in?5colu@ ; `string'
PUBLIC	??_C@_0M@PGLLGKEB@Fixed?5?$CFd?0?$CFd?$AA@	; `string'
PUBLIC	??_C@_0P@LGLCJPIM@Tables?1Padding?$AA@		; `string'
PUBLIC	??_C@_07DDDGKLAD@Padding?$AA@			; `string'
PUBLIC	??_C@_0BMB@HPBFLJOA@We?5often?5want?5outer?5padding?5acti@ ; `string'
PUBLIC	??_C@_0BK@HHEJGEBJ@ImGuiTableFlags_PadOuterX?$AA@ ; `string'
PUBLIC	??_C@_0EM@MKHAEMOD@Enable?5outer?9most?5padding?5?$CIdefau@ ; `string'
PUBLIC	??_C@_0BM@PMBOGJLP@ImGuiTableFlags_NoPadOuterX?$AA@ ; `string'
PUBLIC	??_C@_0FB@OFOCAPDE@Disable?5outer?9most?5padding?5?$CIdefa@ ; `string'
PUBLIC	??_C@_0BM@NMIPCBPO@ImGuiTableFlags_NoPadInnerX?$AA@ ; `string'
PUBLIC	??_C@_0IC@DEFBCLPE@Disable?5inner?5padding?5between?5co@ ; `string'
PUBLIC	??_C@_0N@IJLMIFHN@show_headers?$AA@		; `string'
PUBLIC	??_C@_0O@FKPNOHIF@table_padding?$AA@		; `string'
PUBLIC	??_C@_0L@OKGLPFJF@Avail?5?$CF?42f?$AA@		; `string'
PUBLIC	??_C@_0DG@CDDGEHMI@Setting?5style?4CellPadding?5to?5?$CI0?0@ ; `string'
PUBLIC	??_C@_0BF@GOPEKLPG@show_widget_frame_bg?$AA@	; `string'
PUBLIC	??_C@_0M@DKDDHLDB@CellPadding?$AA@		; `string'
PUBLIC	??_C@_0BA@PCAKHMNE@table_padding_2?$AA@		; `string'
PUBLIC	??_C@_07KGDBJGIN@edit?5me?$AA@			; `string'
PUBLIC	??_C@_06EHBBGIFL@?$CD?$CDcell?$AA@		; `string'
PUBLIC	??_C@_0BH@BDILLJNP@Tables?1Explicit?5widths?$AA@ ; `string'
PUBLIC	??_C@_0BA@MIEBIDIO@Sizing?5policies?$AA@	; `string'
PUBLIC	??_C@_07OBMDJLLM@Oh?5dear?$AA@			; `string'
PUBLIC	??_C@_08LBFBCFMB@BBBBBBBB?$AA@			; `string'
PUBLIC	??_C@_0N@OEOPFKK@CCCCCCCCCCCC?$AA@		; `string'
PUBLIC	??_C@_08IILCFNBD@Advanced?$AA@			; `string'
PUBLIC	??_C@_0JL@GIMGKJDP@This?5section?5allows?5you?5to?5inter@ ; `string'
PUBLIC	??_C@_0DO@GJMCID@Show?5width?$AAShort?5Text?$AALong?5Text?$AA@ ; `string'
PUBLIC	??_C@_08GBNJIMFP@Contents?$AA@			; `string'
PUBLIC	??_C@_0KK@ONILBNCL@Be?5mindful?5that?5using?5right?9alig@ ; `string'
PUBLIC	??_C@_0BO@FCJCGICG@ImGuiTableFlags_PreciseWidths?$AA@ ; `string'
PUBLIC	??_C@_0OP@KCFDFCBF@Disable?5distributing?5remainder?5w@ ; `string'
PUBLIC	??_C@_0BI@LGJFDPIB@ImGuiTableFlags_ScrollX?$AA@	; `string'
PUBLIC	??_C@_0BI@KPIOAOMA@ImGuiTableFlags_ScrollY?$AA@	; `string'
PUBLIC	??_C@_0BH@IJCBPJOC@ImGuiTableFlags_NoClip?$AA@	; `string'
PUBLIC	??_C@_04GOKPGOLB@long?$AA@			; `string'
PUBLIC	??_C@_08GKCNMOBP@longeeer?$AA@			; `string'
PUBLIC	??_C@_0CE@EHNPIEAF@Some?5?$CFs?5text?5?$CFd?0?$CFd?6Over?5two?5line@ ; `string'
PUBLIC	??_C@_07JBEDBOJM@W?3?5?$CF?41f?$AA@		; `string'
PUBLIC	??_C@_02IEBMKJDF@?$CD?$CD?$AA@			; `string'
PUBLIC	??_C@_0CJ@GCIECJKE@Tables?1Vertical?5scrolling?0?5with?5@ ; `string'
PUBLIC	??_C@_0CC@BKCLIGGC@Vertical?5scrolling?0?5with?5clippin@ ; `string'
PUBLIC	??_C@_0MD@ODEEHCKN@Here?5we?5activate?5ScrollY?0?5which?5@ ; `string'
PUBLIC	??_C@_0O@BKJDKFL@table_scrolly?$AA@		; `string'
PUBLIC	??_C@_0BM@FLMIBINL@Tables?1Horizontal?5scrolling?$AA@ ; `string'
PUBLIC	??_C@_0BF@MOJGBNK@Horizontal?5scrolling?$AA@	; `string'
PUBLIC	??_C@_0BJM@LFAMMBOC@When?5ScrollX?5is?5enabled?0?5the?5def@ ; `string'
PUBLIC	??_C@_0M@CFPPLGBE@freeze_cols?$AA@		; `string'
PUBLIC	??_C@_0M@GIAMEELH@freeze_rows?$AA@		; `string'
PUBLIC	??_C@_0O@BILCALBK@table_scrollx?$AA@		; `string'
PUBLIC	??_C@_06GCNNJOIC@Line?5?$CD?$AA@		; `string'
PUBLIC	??_C@_04MCBIPDJB@Four?$AA@			; `string'
PUBLIC	??_C@_04OALGJGIC@Five?$AA@			; `string'
PUBLIC	??_C@_03KHODIDPO@Six?$AA@			; `string'
PUBLIC	??_C@_07GMIONID@Line?5?$CFd?$AA@		; `string'
PUBLIC	??_C@_0BC@OMMFFCFF@Hello?5world?5?$CFd?0?$CFd?$AA@ ; `string'
PUBLIC	??_C@_0BC@HLNLGDMF@Stretch?5?$CL?5ScrollX?$AA@	; `string'
PUBLIC	??_C@_0BBE@ODLBHPGG@Showcase?5using?5Stretch?5columns?5?$CL@ ; `string'
PUBLIC	??_C@_06FFLMLEAB@flags3?$AA@			; `string'
PUBLIC	??_C@_04GGBPDDBN@?$CF?41f?$AA@			; `string'
PUBLIC	??_C@_0M@BJNMEEJO@inner_width?$AA@		; `string'
PUBLIC	??_C@_0BF@LDBFKPOJ@Tables?1Columns?5flags?$AA@	; `string'
PUBLIC	??_C@_0O@INJHOPKF@Columns?5flags?$AA@		; `string'
PUBLIC	??_C@_0BP@MNOKCEIF@table_columns_flags_checkboxes?$AA@ ; `string'
PUBLIC	??_C@_04FBKCMAJG@?8?$CFs?8?$AA@			; `string'
PUBLIC	??_C@_0N@FHGGFOEB@Input?5flags?3?$AA@		; `string'
PUBLIC	??_C@_0O@OFGIHDEK@Output?5flags?3?$AA@		; `string'
PUBLIC	??_C@_0BE@CEBHJEEC@table_columns_flags?$AA@	; `string'
PUBLIC	??_C@_08ELEEDBE@Indented?$AA@			; `string'
PUBLIC	??_C@_05DNIIFBMG@?$CFs?5?$CFs?$AA@		; `string'
PUBLIC	??_C@_0BG@NGCMFIBP@Tables?1Columns?5widths?$AA@	; `string'
PUBLIC	??_C@_0P@KJHINHOE@Columns?5widths?$AA@		; `string'
PUBLIC	??_C@_0DB@BFOOEOFP@Using?5TableSetupColumn?$CI?$CJ?5to?5setu@ ; `string'
PUBLIC	??_C@_03OHDNLOHO@one?$AA@			; `string'
PUBLIC	??_C@_03IJDNBOJF@two?$AA@			; `string'
PUBLIC	??_C@_05OAGMNDDJ@three?$AA@			; `string'
PUBLIC	??_C@_0L@JJDDAIH@?$CIw?3?5?$CF5?41f?$CJ?$AA@	; `string'
PUBLIC	??_C@_0LH@CELOBIGN@Using?5TableSetupColumn?$CI?$CJ?5to?5setu@ ; `string'
PUBLIC	??_C@_0CF@HAPNKCNF@ImGuiTableFlags_NoKeepColumnsVis@ ; `string'
PUBLIC	??_C@_0BF@FIKDGFFI@Tables?1Nested?5tables?$AA@	; `string'
PUBLIC	??_C@_0O@GGCBCFBE@Nested?5tables?$AA@		; `string'
PUBLIC	??_C@_0DN@GIHJANOI@This?5demonstrates?5embedding?5a?5ta@ ; `string'
PUBLIC	??_C@_0O@BCBAIFJC@table_nested1?$AA@		; `string'
PUBLIC	??_C@_02KOKAPHOJ@A0?$AA@			; `string'
PUBLIC	??_C@_02LHLLMGKI@A1?$AA@			; `string'
PUBLIC	??_C@_08NBKIDHKC@A0?5Row?50?$AA@		; `string'
PUBLIC	??_C@_0O@DJDNNGFB@table_nested2?$AA@		; `string'
PUBLIC	??_C@_02KMOGEJLA@B0?$AA@			; `string'
PUBLIC	??_C@_02LFPNHIPB@B1?$AA@			; `string'
PUBLIC	??_C@_08OICFALGH@B0?5Row?50?$AA@		; `string'
PUBLIC	??_C@_08CEIPALPJ@B1?5Row?50?$AA@		; `string'
PUBLIC	??_C@_08PBDODKCG@B0?5Row?51?$AA@		; `string'
PUBLIC	??_C@_08DNJEDKLI@B1?5Row?51?$AA@		; `string'
PUBLIC	??_C@_08BNACDHDM@A1?5Row?50?$AA@		; `string'
PUBLIC	??_C@_08MILDAGOD@A0?5Row?51?$AA@		; `string'
PUBLIC	??_C@_08EBJAGHN@A1?5Row?51?$AA@			; `string'
PUBLIC	??_C@_0BC@JNEADBDA@Tables?1Row?5height?$AA@	; `string'
PUBLIC	??_C@_0L@CGNGNJMG@Row?5height?$AA@		; `string'
PUBLIC	??_C@_0BCL@DDLHCPHA@You?5can?5pass?5a?5?8min_row_height?8?5@ ; `string'
PUBLIC	??_C@_0BB@OGGECGJA@table_row_height?$AA@	; `string'
PUBLIC	??_C@_0BG@PBGJBMCG@min_row_height?5?$DN?5?$CF?42f?$AA@ ; `string'
PUBLIC	??_C@_0BC@IKJBKNNA@Tables?1Outer?5size?$AA@	; `string'
PUBLIC	??_C@_0L@DBAHEFCG@Outer?5size?$AA@		; `string'
PUBLIC	??_C@_0CH@GEPJHBOA@Using?5NoHostExtendX?5and?5NoHostEx@ ; `string'
PUBLIC	??_C@_0JJ@MNEKIKBK@Make?5outer?5width?5auto?9fit?5to?5col@ ; `string'
PUBLIC	??_C@_0BO@MPIHGCDG@ImGuiTableFlags_NoHostExtendY?$AA@ ; `string'
PUBLIC	??_C@_0MH@EOAMIMDE@Make?5outer?5height?5stop?5exactly?5a@ ; `string'
PUBLIC	??_C@_0L@PAJCHPDH@Cell?5?$CFd?0?$CFd?$AA@	; `string'
PUBLIC	??_C@_0BF@KMHJAJHG@Using?5explicit?5size?3?$AA@	; `string'
PUBLIC	??_C@_0BI@OPNKMFLE@Tables?1Background?5color?$AA@ ; `string'
PUBLIC	??_C@_0BB@GFJFBMCH@Background?5color?$AA@	; `string'
PUBLIC	??_C@_0FN@IEBFCIOP@ImGuiTableFlags_RowBg?5automatica@ ; `string'
PUBLIC	??_C@_0BD@FFKBLHFP@None?$AARed?$AAGradient?$AA?$AA@ ; `string'
PUBLIC	??_C@_0M@JEHONGHH@row?5bg?5type?$AA@		; `string'
PUBLIC	??_C@_0P@DAIHOKO@RowBg0?$AARowBg1?$AA?$AA@	; `string'
PUBLIC	??_C@_0O@DFMNKCIK@row?5bg?5target?$AA@		; `string'
PUBLIC	??_C@_0FN@LEKMPDJD@Target?5RowBg0?5to?5override?5the?5al@ ; `string'
PUBLIC	??_C@_0L@DAKPLPKA@None?$AABlue?$AA?$AA@		; `string'
PUBLIC	??_C@_0N@GNMKPIGH@cell?5bg?5type?$AA@		; `string'
PUBLIC	??_C@_0CI@GJIGBOCB@We?5are?5colorizing?5cells?5to?5B1?9?$DOC@ ; `string'
PUBLIC	??_C@_1EK@GEJGPOKK@?$AAr?$AAo?$AAw?$AA_?$AAb?$AAg?$AA_?$AAt?$AAy?$AAp?$AAe?$AA?5?$AA?$DO?$AA?$DN?$AA?5?$AA0?$AA?5?$AA?$CG?$AA?$CG?$AA?5?$AAr?$AAo?$AAw?$AA_?$AAb?$AAg?$AA_?$AAt?$AAy?$AAp?$AAe?$AA?5@ ; `string'
PUBLIC	??_C@_1FC@HBJACPON@?$AAr?$AAo?$AAw?$AA_?$AAb?$AAg?$AA_?$AAt?$AAa?$AAr?$AAg?$AAe?$AAt?$AA?5?$AA?$DO?$AA?$DN?$AA?5?$AA0?$AA?5?$AA?$CG?$AA?$CG?$AA?5?$AAr?$AAo?$AAw?$AA_?$AAb?$AAg?$AA_?$AAt?$AAa?$AAr@ ; `string'
PUBLIC	??_C@_1EO@JOPKKHHI@?$AAc?$AAe?$AAl?$AAl?$AA_?$AAb?$AAg?$AA_?$AAt?$AAy?$AAp?$AAe?$AA?5?$AA?$DO?$AA?$DN?$AA?5?$AA0?$AA?5?$AA?$CG?$AA?$CG?$AA?5?$AAc?$AAe?$AAl?$AAl?$AA_?$AAb?$AAg?$AA_?$AAt?$AAy?$AAp@ ; `string'
PUBLIC	??_C@_04GJDJEMBE@?$CFc?$CFc?$AA@		; `string'
PUBLIC	??_C@_0BB@LHIHCMOK@Tables?1Tree?5view?$AA@	; `string'
PUBLIC	??_C@_09CKCINJFP@Tree?5view?$AA@		; `string'
PUBLIC	??_C@_05FLIJPOAM@3ways?$AA@			; `string'
PUBLIC	??_C@_04FABLJDN@Name?$AA@			; `string'
PUBLIC	??_C@_04EBKMHHBE@Size?$AA@			; `string'
PUBLIC	??_C@_04KOACHJEN@Type?$AA@			; `string'
PUBLIC	??_C@_0BC@CHHDIFEC@Tables?1Item?5width?$AA@	; `string'
PUBLIC	??_C@_0L@JMOFGNLE@Item?5width?$AA@		; `string'
PUBLIC	??_C@_0MP@KOFCKOGB@Showcase?5using?5PushItemWidth?$CI?$CJ?5a@ ; `string'
PUBLIC	??_C@_0BB@DDAHLBBM@table_item_width?$AA@	; `string'
PUBLIC	??_C@_05KJDGBEEG@small?$AA@			; `string'
PUBLIC	??_C@_04GBGPFKGN@half?$AA@			; `string'
PUBLIC	??_C@_0M@FKJABAHD@right?9align?$AA@		; `string'
PUBLIC	??_C@_06OBIFBAPK@float0?$AA@			; `string'
PUBLIC	??_C@_06PIJOCBLL@float1?$AA@			; `string'
PUBLIC	??_C@_08GEFDGCHL@?$CD?$CDfloat2?$AA@		; `string'
PUBLIC	??_C@_0BG@INIBDOJH@Tables?1Custom?5headers?$AA@	; `string'
PUBLIC	??_C@_0P@PCNFLBGM@Custom?5headers?$AA@		; `string'
PUBLIC	??_C@_0BF@JGHIMJPE@table_custom_headers?$AA@	; `string'
PUBLIC	??_C@_0L@PLJPMHBK@?$CD?$CDcheckall?$AA@		; `string'
PUBLIC	??_C@_0BF@HIHOGJFK@Tables?1Context?5menus?$AA@	; `string'
PUBLIC	??_C@_0MD@CMIPBCGH@By?5default?0?5right?9clicking?5over?5@ ; `string'
PUBLIC	??_C@_0CC@DCEKKFEJ@ImGuiTableFlags_ContextMenuInBod@ ; `string'
PUBLIC	??_C@_0BD@GAEOPLMF@table_context_menu?$AA@	; `string'
PUBLIC	??_C@_0IN@GBJFOLPI@Demonstrate?5mixing?5table?5context@ ; `string'
PUBLIC	??_C@_0BF@BGHCFFCN@table_context_menu_2?$AA@	; `string'
PUBLIC	??_C@_0DB@KMDIMPEI@This?5is?5the?5popup?5for?5Button?$CI?$CC?4?4@ ; `string'
PUBLIC	??_C@_07FAGDPJOI@MyPopup?$AA@			; `string'
PUBLIC	??_C@_0DP@GEHELPPM@This?5is?5a?5custom?5popup?5for?5unuse@ ; `string'
PUBLIC	??_C@_0CF@KGFMOBAJ@This?5is?5a?5custom?5popup?5for?5Colum@ ; `string'
PUBLIC	??_C@_0BD@JLLLEHJI@Hovered?5column?3?5?$CFd?$AA@ ; `string'
PUBLIC	??_C@_0BI@EDLGPCJF@Tables?1Synced?5instances?$AA@ ; `string'
PUBLIC	??_C@_0BB@MJPJCLAG@Synced?5instances?$AA@	; `string'
PUBLIC	??_C@_0GC@BAAOPNDB@Multiple?5tables?5with?5the?5same?5id@ ; `string'
PUBLIC	??_C@_0BA@PHDCMLKN@Synced?5Table?5?$CFd?$AA@	; `string'
PUBLIC	??_C@_05LFBINIGO@Table?$AA@			; `string'
PUBLIC	??_C@_0N@CLLFLFPN@this?5cell?5?$CFd?$AA@	; `string'
PUBLIC	??_C@_0P@NNGNJFDG@Tables?1Sorting?$AA@		; `string'
PUBLIC	??_C@_07FIOJKBLJ@Sorting?$AA@			; `string'
PUBLIC	??_C@_0BK@COJNFFHG@ImGuiTableFlags_SortMulti?$AA@ ; `string'
PUBLIC	??_C@_0JD@OJLOANPI@When?5sorting?5is?5enabled?3?5hold?5sh@ ; `string'
PUBLIC	??_C@_0BN@MANCMDD@ImGuiTableFlags_SortTristate?$AA@ ; `string'
PUBLIC	??_C@_0IC@CNBEEKGB@When?5sorting?5is?5enabled?3?5allow?5n@ ; `string'
PUBLIC	??_C@_0O@DBCCONDP@table_sorting?$AA@		; `string'
PUBLIC	??_C@_02OLOABKKD@ID?$AA@			; `string'
PUBLIC	??_C@_06PMAGBHAK@Action?$AA@			; `string'
PUBLIC	??_C@_08GACJPEFO@Quantity?$AA@			; `string'
PUBLIC	??_C@_04OHJIHAFH@None?$AA@			; `string'
PUBLIC	??_C@_0BA@PFDAEHJG@Tables?1Advanced?$AA@	; `string'
PUBLIC	??_C@_0M@IPDIIBIL@SmallButton?$AA@		; `string'
PUBLIC	??_C@_0BG@GEMFLDEN@Selectable?5?$CIspan?5row?$CJ?$AA@ ; `string'
PUBLIC	??_C@_07KHIHFBFN@Options?$AA@			; `string'
PUBLIC	??_C@_09DKFIFAAE@Features?3?$AA@		; `string'
PUBLIC	??_C@_0BJ@IHBAKALC@ImGuiTableFlags_Sortable?$AA@ ; `string'
PUBLIC	??_C@_0CA@KBDPDJDH@ImGuiTableFlags_NoSavedSettings?$AA@ ; `string'
PUBLIC	??_C@_0N@JCNJHPJM@Decorations?3?$AA@		; `string'
PUBLIC	??_C@_07NCAJGFPC@Sizing?3?$AA@			; `string'
PUBLIC	??_C@_0HH@KPNOAHGK@In?5the?5Advanced?5demo?5we?5override@ ; `string'
PUBLIC	??_C@_0CH@IHCAENCE@Only?5available?5if?5ScrollX?5is?5dis@ ; `string'
PUBLIC	??_C@_0LK@OOMEMHDH@Disable?5clipping?5rectangle?5for?5e@ ; `string'
PUBLIC	??_C@_08LMJDLJGI@Padding?3?$AA@			; `string'
PUBLIC	??_C@_0L@IMKAGMGB@Scrolling?3?$AA@		; `string'
PUBLIC	??_C@_08JHEMDMPA@Sorting?3?$AA@			; `string'
PUBLIC	??_C@_06JHAFDDDM@Other?3?$AA@			; `string'
PUBLIC	??_C@_0BC@OGOBPDEF@show_wrapped_text?$AA@	; `string'
PUBLIC	??_C@_0M@OOHBCMON@?$CD?$CDOuterSize?$AA@	; `string'
PUBLIC	??_C@_0L@ENOPHFOF@outer_size?$AA@		; `string'
PUBLIC	??_C@_0BIB@EGFLOKNO@If?5scrolling?5is?5disabled?5?$CIScroll@ ; `string'
PUBLIC	??_C@_0CC@HLDPMJL@inner_width?5?$CIwhen?5ScrollX?5active@ ; `string'
PUBLIC	??_C@_0P@KEOGDMAF@row_min_height?$AA@		; `string'
PUBLIC	??_C@_0CH@KLLECOCH@Specify?5height?5of?5the?5Selectable@ ; `string'
PUBLIC	??_C@_0M@NCHDHPIM@items_count?$AA@		; `string'
PUBLIC	??_C@_0BK@DIOLBOIM@items_type?5?$CIfirst?5column?$CJ?$AA@ ; `string'
PUBLIC	??_C@_0P@IMAALAEK@table_advanced?$AA@		; `string'
PUBLIC	??_C@_0M@OHKMKKDH@Description?$AA@		; `string'
PUBLIC	??_C@_06FHBILLDG@Hidden?$AA@			; `string'
PUBLIC	??_C@_04LEKIAAHM@Chop?$AA@			; `string'
PUBLIC	??_C@_03HADHJFAJ@Eat?$AA@			; `string'
PUBLIC	??_C@_0BL@BHBHGIGI@Lorem?5ipsum?5dolor?5sit?5amet?$AA@ ; `string'
PUBLIC	??_C@_04GCLJABMA@1234?$AA@			; `string'
PUBLIC	??_C@_0O@CFGEHKMC@Debug?5details?$AA@		; `string'
PUBLIC	??_C@_0CA@CHDNACKG@?3?5DrawCmd?3?5?$CL?$CFd?5?$CIin?5same?5window?$CJ?$AA@ ; `string'
PUBLIC	??_C@_0DO@LNHNLFPF@?3?5DrawCmd?3?5?$CL?$CFd?5?$CIin?5child?5window?$CJ@ ; `string'
PUBLIC	?__LINE__Var@?0??ShowDemoWindowColumns@@YAXXZ@4JA ; `ShowDemoWindowColumns'::`1'::__LINE__Var
PUBLIC	??_C@_0BF@EOLLCEHP@Columns?5?$CIlegacy?5API?$CJ?$AA@ ; `string'
PUBLIC	??_C@_0BD@KMNMCONG@Legacy?5Columns?5API?$AA@	; `string'
PUBLIC	??_C@_0FH@MGFHBBFF@Columns?$CI?$CJ?5is?5an?5old?5API?$CB?5Prefer?5@ ; `string'
PUBLIC	??_C@_0BL@NBCJCENH@Columns?5?$CIlegacy?5API?$CJ?1Basic?$AA@ ; `string'
PUBLIC	??_C@_0BA@KGDHMKCI@Without?5border?3?$AA@	; `string'
PUBLIC	??_C@_0L@GGDPAOBO@mycolumns3?$AA@		; `string'
PUBLIC	??_C@_0N@IEPPLKGA@With?5border?3?$AA@		; `string'
PUBLIC	??_C@_09IGOFLFMM@mycolumns?$AA@			; `string'
PUBLIC	??_C@_04HMIIHGGM@Path?$AA@			; `string'
PUBLIC	??_C@_07BPEJBMFM@Hovered?$AA@			; `string'
PUBLIC	??_C@_09MIFGPDGD@?1path?1one?$AA@		; `string'
PUBLIC	??_C@_09KGFGFDII@?1path?1two?$AA@		; `string'
PUBLIC	??_C@_0M@BHGNKNGD@?1path?1three?$AA@		; `string'
PUBLIC	??_C@_0BN@OHIFMDLO@Columns?5?$CIlegacy?5API?$CJ?1Borders?$AA@ ; `string'
PUBLIC	??_C@_07PJFMDFHH@Borders?$AA@			; `string'
PUBLIC	??_C@_0L@NLMHJDCE@?$CFd?5columns?$AA@		; `string'
PUBLIC	??_C@_0BA@EIBKBIKG@?$CD?$CDcolumns_count?$AA@	; `string'
PUBLIC	??_C@_0L@LMMKHPOB@horizontal?$AA@		; `string'
PUBLIC	??_C@_08NEOMLJGJ@vertical?$AA@			; `string'
PUBLIC	??_C@_06CBJCAPLI@?$CFc?$CFc?$CFc?$AA@		; `string'
PUBLIC	??_C@_0M@LBGPBMDK@Offset?5?$CF?42f?$AA@		; `string'
PUBLIC	??_C@_0CB@CDDJNDCG@Long?5text?5that?5is?5likely?5to?5clip@ ; `string'
PUBLIC	??_C@_0CB@BCLMDBFI@Columns?5?$CIlegacy?5API?$CJ?1Mixed?5items@ ; `string'
PUBLIC	??_C@_0M@CEFNMID@Mixed?5items?$AA@		; `string'
PUBLIC	??_C@_05IPHDHIPP@mixed?$AA@			; `string'
PUBLIC	??_C@_05OHAOKMNF@ImGui?$AA@			; `string'
PUBLIC	??_C@_03FAAAOPJM@red?$AA@			; `string'
PUBLIC	??_C@_0BE@OADKLHKC@An?5extra?5line?5here?4?$AA@	; `string'
PUBLIC	??_C@_04OBGPFBCN@blue?$AA@			; `string'
PUBLIC	??_C@_0L@CDAKMJEM@Category?5A?$AA@		; `string'
PUBLIC	??_C@_0P@CNBMJDEI@Blah?5blah?5blah?$AA@		; `string'
PUBLIC	??_C@_0L@ICHJKIP@Category?5B?$AA@		; `string'
PUBLIC	??_C@_0L@BBDMKLMO@Category?5C?$AA@		; `string'
PUBLIC	??_C@_0CD@OAPEDJDK@Columns?5?$CIlegacy?5API?$CJ?1Word?9wrappi@ ; `string'
PUBLIC	??_C@_0O@FMIDKLNC@Word?9wrapping?$AA@		; `string'
PUBLIC	??_C@_0O@JBOHNDAK@word?9wrapping?$AA@		; `string'
PUBLIC	??_C@_0CN@PEHKNKIL@The?5quick?5brown?5fox?5jumps?5over?5t@ ; `string'
PUBLIC	??_C@_0L@BOIODOOK@Hello?5Left?$AA@		; `string'
PUBLIC	??_C@_0M@FKDOIKDB@Hello?5Right?$AA@		; `string'
PUBLIC	??_C@_0CK@DPADPAMP@Columns?5?$CIlegacy?5API?$CJ?1Horizontal?5@ ; `string'
PUBLIC	??_C@_0BF@EDLEGCAK@Horizontal?5Scrolling?$AA@	; `string'
PUBLIC	??_C@_0BC@OPBMFBNO@?$CD?$CDScrollingRegion?$AA@	; `string'
PUBLIC	??_C@_0BF@OFLPNIGP@Line?5?$CFd?5Column?5?$CFd?4?4?4?$AA@ ; `string'
PUBLIC	??_C@_0BK@FPOKBMNL@Columns?5?$CIlegacy?5API?$CJ?1Tree?$AA@ ; `string'
PUBLIC	??_C@_04GDOOJPNH@Tree?$AA@			; `string'
PUBLIC	??_C@_04KCCPLAND@tree?$AA@			; `string'
PUBLIC	??_C@_06NAFIGPDO@Node?$CFd?$AA@			; `string'
PUBLIC	??_C@_0O@DCLBKAFC@Node?5contents?$AA@		; `string'
PUBLIC	??_C@_09NGNKJEEB@Node?$CFd?4?$CFd?$AA@		; `string'
PUBLIC	??_C@_0BD@MJPJLCIK@Even?5more?5contents?$AA@	; `string'
PUBLIC	??_C@_0P@LKPCNPLG@Tree?5in?5column?$AA@		; `string'
PUBLIC	??_C@_0CM@HCLJNHNJ@The?5quick?5brown?5fox?5jumps?5over?5t@ ; `string'
PUBLIC	?__LINE__Var@?0??ShowDemoWindowInputs@@YAXXZ@4JA ; `ShowDemoWindowInputs'::`1'::__LINE__Var
PUBLIC	??_C@_0P@EJPGNOEJ@Inputs?5?$CG?5Focus?$AA@	; `string'
PUBLIC	??_C@_0BG@OJCNILBN@Inputs?5?$CG?5Focus?1Inputs?$AA@ ; `string'
PUBLIC	??_C@_0HP@GHCMDAED@This?5is?5a?5simplified?5view?4?5See?5m@ ; `string'
PUBLIC	??_C@_0BE@HGGCPGOH@Mouse?5pos?3?5?$CI?$CFg?0?5?$CFg?$CJ?$AA@ ; `string'
PUBLIC	??_C@_0BF@BCIGOCNH@Mouse?5pos?3?5?$DMINVALID?$DO?$AA@ ; `string'
PUBLIC	??_C@_0BG@MNNMKHFC@Mouse?5delta?3?5?$CI?$CFg?0?5?$CFg?$CJ?$AA@ ; `string'
PUBLIC	??_C@_0M@HODNMGFJ@Mouse?5down?3?$AA@		; `string'
PUBLIC	??_C@_0BB@BCIHMLII@b?$CFd?5?$CI?$CF?402f?5secs?$CJ?$AA@ ; `string'
PUBLIC	??_C@_0BC@CFHNPKHB@Mouse?5wheel?3?5?$CF?41f?$AA@ ; `string'
PUBLIC	??_C@_0L@POLCMIEL@Keys?5down?3?$AA@		; `string'
PUBLIC	??_C@_04OEDFLLKD@?$CC?$CFs?$CC?$AA@		; `string'
PUBLIC	??_C@_07BFJJNFBL@?$CC?$CFs?$CC?5?$CFd?$AA@	; `string'
PUBLIC	??_C@_07ODHCILNN@?$CI?$CF?402f?$CJ?$AA@		; `string'
PUBLIC	??_C@_06ECIIPDFH@SUPER?5?$AA@			; `string'
PUBLIC	??_C@_04HDLNDMFA@ALT?5?$AA@			; `string'
PUBLIC	??_C@_06IGAIMELN@SHIFT?5?$AA@			; `string'
PUBLIC	??_C@_05IHGCNILK@CTRL?5?$AA@			; `string'
PUBLIC	??_C@_0BE@HPBGOMPC@Keys?5mods?3?5?$CFs?$CFs?$CFs?$CFs?$AA@ ; `string'
PUBLIC	??_C@_0N@PKFKOHDJ@Chars?5queue?3?$AA@		; `string'
PUBLIC	??_C@_0O@FLAJMFCG@?8?$CFc?8?5?$CI0x?$CF04X?$CJ?$AA@ ; `string'
PUBLIC	??_C@_0BH@CKMJBGFC@Inputs?5?$CG?5Focus?1Outputs?$AA@ ; `string'
PUBLIC	??_C@_07LGFKBKFE@Outputs?$AA@			; `string'
PUBLIC	??_C@_0CAJ@EIJLLMLM@The?5value?5of?5io?4WantCaptureMouse@ ; `string'
PUBLIC	??_C@_0BI@JLMOJHHN@io?4WantCaptureMouse?3?5?$CFd?$AA@ ; `string'
PUBLIC	??_C@_0CI@JIGLLDLJ@io?4WantCaptureMouseUnlessPopupCl@ ; `string'
PUBLIC	??_C@_0BL@GDHLPHDK@io?4WantCaptureKeyboard?3?5?$CFd?$AA@ ; `string'
PUBLIC	??_C@_0BF@NDPHMPCP@io?4WantTextInput?3?5?$CFd?$AA@ ; `string'
PUBLIC	??_C@_0BH@DMBBELLF@io?4WantSetMousePos?3?5?$CFd?$AA@ ; `string'
PUBLIC	??_C@_0CE@CPJFFAGJ@io?4NavActive?3?5?$CFd?0?5io?4NavVisible?3@ ; `string'
PUBLIC	??_C@_0CM@FPPCIOD@Inputs?5?$CG?5Focus?1Outputs?1WantCaptu@ ; `string'
PUBLIC	??_C@_0BF@JGLMCEJO@WantCapture?5override?$AA@	; `string'
PUBLIC	??_C@_0MF@IDABKCNF@Hovering?5the?5colored?5canvas?5will@ ; `string'
PUBLIC	??_C@_0N@NLJHHBMD@Set?5to?5false?$AA@		; `string'
PUBLIC	??_C@_0M@EGIDJBEG@Set?5to?5true?$AA@		; `string'
PUBLIC	??_C@_0CI@CJCOBGKD@SetNextFrameWantCaptureMouse?$CI?$CJ?5o@ ; `string'
PUBLIC	??_C@_0CL@FJJMGFDF@SetNextFrameWantCaptureKeyboard?$CI@ ; `string'
PUBLIC	??_C@_07OAKMJIEO@?$CD?$CDpanel?$AA@		; `string'
PUBLIC	??_C@_0BN@GDPPNLD@Inputs?5?$CG?5Focus?1Mouse?5Cursors?$AA@ ; `string'
PUBLIC	??_C@_0O@EOGKPMHB@Mouse?5Cursors?$AA@		; `string'
PUBLIC	??_C@_05OLOIDPAB@Arrow?$AA@			; `string'
PUBLIC	??_C@_09KBOPCPBA@TextInput?$AA@			; `string'
PUBLIC	??_C@_09NLNHGFHP@ResizeAll?$AA@			; `string'
PUBLIC	??_C@_08HLCKOJFI@ResizeNS?$AA@			; `string'
PUBLIC	??_C@_08BDBDMDLN@ResizeEW?$AA@			; `string'
PUBLIC	??_C@_0L@EFMGKFJD@ResizeNESW?$AA@		; `string'
PUBLIC	??_C@_0L@MHCCEKFE@ResizeNWSE?$AA@		; `string'
PUBLIC	??_C@_04JBBMMDIF@Hand?$AA@			; `string'
PUBLIC	??_C@_0L@OJPFEFMM@NotAllowed?$AA@		; `string'
PUBLIC	??_C@_0BO@CHGMKDBB@Current?5mouse?5cursor?5?$DN?5?$CFd?3?5?$CFs?$AA@ ; `string'
PUBLIC	??_C@_0BM@MCMILHH@Hover?5to?5see?5mouse?5cursors?3?$AA@ ; `string'
PUBLIC	??_C@_0PC@CDIOEKMA@Your?5application?5can?5render?5a?5di@ ; `string'
PUBLIC	??_C@_0BE@KDPKCDI@Mouse?5cursor?5?$CFd?3?5?$CFs?$AA@ ; `string'
PUBLIC	??_C@_0BH@HCPGLPEC@Inputs?5?$CG?5Focus?1Tabbing?$AA@ ; `string'
PUBLIC	??_C@_07OOGFLDEE@Tabbing?$AA@			; `string'
PUBLIC	??_C@_0DN@DBMIKJE@Use?5TAB?1SHIFT?$CLTAB?5to?5cycle?5throu@ ; `string'
PUBLIC	??_C@_01HIHLOKLC@1?$AA@				; `string'
PUBLIC	??_C@_01FDFGLJHB@2?$AA@				; `string'
PUBLIC	??_C@_01EKENIIDA@3?$AA@				; `string'
PUBLIC	??_C@_0N@MPCBNDPA@4?5?$CItab?5skip?$CJ?$AA@	; `string'
PUBLIC	??_C@_0DK@EKDPAEPE@Item?5won?8t?5be?5cycled?5through?5whe@ ; `string'
PUBLIC	??_C@_01BMBHCPLG@5?$AA@				; `string'
PUBLIC	??_C@_0BP@HINAMKMF@Inputs?5?$CG?5Focus?1Focus?5from?5code?$AA@ ; `string'
PUBLIC	??_C@_0BA@PGBLAHMK@Focus?5from?5code?$AA@	; `string'
PUBLIC	??_C@_0L@OPJAAOKJ@Focus?5on?51?$AA@		; `string'
PUBLIC	??_C@_0L@MELNFNGK@Focus?5on?52?$AA@		; `string'
PUBLIC	??_C@_0L@NNKGGMCL@Focus?5on?53?$AA@		; `string'
PUBLIC	??_C@_0N@LCFCNFKI@3?5?$CItab?5skip?$CJ?$AA@	; `string'
PUBLIC	??_C@_0BE@PCNBLNDG@Item?5with?5focus?3?5?$CFd?$AA@ ; `string'
PUBLIC	??_C@_0BI@EPMJCFDB@Item?5with?5focus?3?5?$DMnone?$DO?$AA@ ; `string'
PUBLIC	??_C@_0L@FLKPNOEH@Focus?5on?5X?$AA@		; `string'
PUBLIC	??_C@_0L@ECLEOPAG@Focus?5on?5Y?$AA@		; `string'
PUBLIC	??_C@_0L@GJJJLMMF@Focus?5on?5Z?$AA@		; `string'
PUBLIC	??_C@_06FBFHKKF@Float3?$AA@			; `string'
PUBLIC	??_C@_0EN@KGJCPIPJ@NB?3?5Cursor?5?$CG?5selection?5are?5prese@ ; `string'
PUBLIC	??_C@_0BI@KAPLGJKD@Inputs?5?$CG?5Focus?1Dragging?$AA@ ; `string'
PUBLIC	??_C@_08EJAEFPJK@Dragging?$AA@			; `string'
PUBLIC	??_C@_0FH@PFEFFOMN@You?5can?5use?5ImGui?3?3GetMouseDragD@ ; `string'
PUBLIC	??_C@_0BF@KIECDLEM@IsMouseDragging?$CI?$CFd?$CJ?3?$AA@ ; `string'
PUBLIC	??_C@_0BM@OAEENKC@?5?5w?1?5default?5threshold?3?5?$CFd?0?$AA@ ; `string'
PUBLIC	??_C@_0BJ@EKJNKKLN@?5?5w?1?5zero?5threshold?3?5?$CFd?0?$AA@ ; `string'
PUBLIC	??_C@_0BK@IDAIPONC@?5?5w?1?5large?5threshold?3?5?$CFd?0?$AA@ ; `string'
PUBLIC	??_C@_07GELNHEGO@Drag?5Me?$AA@			; `string'
PUBLIC	??_C@_0BG@GNJKBBCP@GetMouseDragDelta?$CI0?$CJ?3?$AA@ ; `string'
PUBLIC	??_C@_0CF@KCDOPHOF@?5?5w?1?5default?5threshold?3?5?$CI?$CF?41f?0?5?$CF@ ; `string'
PUBLIC	??_C@_0CC@LGMLCNKI@?5?5w?1?5zero?5threshold?3?5?$CI?$CF?41f?0?5?$CF?41f@ ; `string'
PUBLIC	??_C@_0BM@LOAJCJGM@io?4MouseDelta?3?5?$CI?$CF?41f?0?5?$CF?41f?$CJ?$AA@ ; `string'
PUBLIC	?__LINE__Var@?0??ShowAboutWindow@ImGui@@YAXPEA_N@Z@4JA ; `ImGui::ShowAboutWindow'::`1'::__LINE__Var
PUBLIC	??_C@_0BH@FIOEKAIP@Tools?1About?5Dear?5ImGui?$AA@ ; `string'
PUBLIC	??_C@_0O@NCHBJMJF@Dear?5ImGui?5?$CFs?$AA@	; `string'
PUBLIC	??_C@_0DA@LADNBCJ@By?5Omar?5Cornut?5and?5all?5Dear?5ImGu@ ; `string'
PUBLIC	??_C@_0FA@NMHKMBMB@Dear?5ImGui?5is?5licensed?5under?5the@ ; `string'
PUBLIC	??_C@_0BJ@CEAKAMCE@Config?1Build?5Information?$AA@ ; `string'
PUBLIC	??_C@_0BC@JBNIPPJL@Copy?5to?5clipboard?$AA@	; `string'
PUBLIC	??_C@_09FGECHJGB@cfg_infos?$AA@			; `string'
PUBLIC	??_C@_04CJPBKLAG@?$GA?$GA?$GA?6?$AA@		; `string'
PUBLIC	??_C@_0BD@GCCEJBGO@Dear?5ImGui?5?$CFs?5?$CI?$CFd?$CJ?$AA@ ; `string'
PUBLIC	??_C@_0EC@BJAMNCHD@sizeof?$CIsize_t?$CJ?3?5?$CFd?0?5sizeof?$CIImDra@ ; `string'
PUBLIC	??_C@_0BH@KGAJBCNH@define?3?5__cplusplus?$DN?$CFd?$AA@ ; `string'
PUBLIC	??_C@_0P@KFJLIPEJ@define?3?5_WIN32?$AA@		; `string'
PUBLIC	??_C@_0P@PFAKOKCE@define?3?5_WIN64?$AA@		; `string'
PUBLIC	??_C@_0BE@JHNIDJHD@define?3?5_MSC_VER?$DN?$CFd?$AA@ ; `string'
PUBLIC	??_C@_0BG@LLKICGOL@define?3?5_MSVC_LANG?$DN?$CFd?$AA@ ; `string'
PUBLIC	??_C@_04HIBGFPH@NULL?$AA@			; `string'
PUBLIC	??_C@_0BL@DHJKNAPN@io?4BackendPlatformName?3?5?$CFs?$AA@ ; `string'
PUBLIC	??_C@_0BL@HCPCDKOE@io?4BackendRendererName?3?5?$CFs?$AA@ ; `string'
PUBLIC	??_C@_0BH@DILJIOHM@io?4ConfigFlags?3?50x?$CF08X?$AA@ ; `string'
PUBLIC	??_C@_0BD@CKENCLMO@?5NavEnableKeyboard?$AA@	; `string'
PUBLIC	??_C@_0BC@PFLKKAGF@?5NavEnableGamepad?$AA@	; `string'
PUBLIC	??_C@_0BG@KOLHMNKG@?5NavEnableSetMousePos?$AA@	; `string'
PUBLIC	??_C@_0BG@DGPFDLKM@?5NavNoCaptureKeyboard?$AA@	; `string'
PUBLIC	??_C@_08GAJGGFEK@?5NoMouse?$AA@			; `string'
PUBLIC	??_C@_0BF@LKMNGEAI@?5NoMouseCursorChange?$AA@	; `string'
PUBLIC	??_C@_0BJ@PEAELIMN@io?4ConfigMacOSXBehaviors?$AA@ ; `string'
PUBLIC	??_C@_0CD@LAKMNGBL@io?4ConfigMemoryCompactTimer?5?$DN?5?$CF?4@ ; `string'
PUBLIC	??_C@_0BI@GNGLPDFI@io?4BackendFlags?3?50x?$CF08X?$AA@ ; `string'
PUBLIC	??_C@_0M@MPABENKI@?5HasGamepad?$AA@		; `string'
PUBLIC	??_C@_0BB@NNHFCGPM@?5HasMouseCursors?$AA@	; `string'
PUBLIC	??_C@_0BA@EKJHBGEP@?5HasSetMousePos?$AA@	; `string'
PUBLIC	??_C@_0BG@GFLBPJOL@?5RendererHasVtxOffset?$AA@	; `string'
PUBLIC	??_C@_0DC@CPKPHKKN@io?4Fonts?3?5?$CFd?5fonts?0?5Flags?3?50x?$CF08@ ; `string'
PUBLIC	??_C@_0BK@EIINOCEN@io?4DisplaySize?3?5?$CF?42f?0?$CF?42f?$AA@ ; `string'
PUBLIC	??_C@_0CG@MDJEGDDF@io?4DisplayFramebufferScale?3?5?$CF?42f@ ; `string'
PUBLIC	??_C@_0BP@CFKGJLOD@style?4WindowPadding?3?5?$CF?42f?0?$CF?42f?$AA@ ; `string'
PUBLIC	??_C@_0BN@NGAGEFMI@style?4WindowBorderSize?3?5?$CF?42f?$AA@ ; `string'
PUBLIC	??_C@_0BO@GOMLHPA@style?4FramePadding?3?5?$CF?42f?0?$CF?42f?$AA@ ; `string'
PUBLIC	??_C@_0BK@INLCDPGI@style?4FrameRounding?3?5?$CF?42f?$AA@ ; `string'
PUBLIC	??_C@_0BM@JEFFCPEF@style?4FrameBorderSize?3?5?$CF?42f?$AA@ ; `string'
PUBLIC	??_C@_0BN@DHGOAPDN@style?4ItemSpacing?3?5?$CF?42f?0?$CF?42f?$AA@ ; `string'
PUBLIC	??_C@_0CC@ECALHKFF@style?4ItemInnerSpacing?3?5?$CF?42f?0?$CF?42@ ; `string'
PUBLIC	??_C@_05PPIKNONO@?6?$GA?$GA?$GA?6?$AA@		; `string'
PUBLIC	??_C@_0BCL@DICJLDFC@?9?5Load?5additional?5fonts?5with?5io?4@ ; `string'
PUBLIC	??_C@_0BE@PBMDCJBA@Dark?$AALight?$AAClassic?$AA?$AA@ ; `string'
PUBLIC	?__LINE__Var@?0??ShowStyleEditor@ImGui@@YAXPEAUImGuiStyle@@@Z@4JA ; `ImGui::ShowStyleEditor'::`1'::__LINE__Var
PUBLIC	??_C@_0BD@LNCFKLAK@Tools?1Style?5Editor?$AA@	; `string'
PUBLIC	??_C@_0BB@MDDLAALC@Colors?$CD?$CDSelector?$AA@	; `string'
PUBLIC	??_C@_0BA@OGAKFFL@Fonts?$CD?$CDSelector?$AA@	; `string'
PUBLIC	??_C@_0O@MJEGPPND@FrameRounding?$AA@		; `string'
PUBLIC	??_C@_0N@IABNAJJO@WindowBorder?$AA@		; `string'
PUBLIC	??_C@_0M@LIENHPEL@FrameBorder?$AA@		; `string'
PUBLIC	??_C@_0M@NFCFILGL@PopupBorder?$AA@		; `string'
PUBLIC	??_C@_08EEJHGAPI@Save?5Ref?$AA@			; `string'
PUBLIC	??_C@_0L@KOOMFCFA@Revert?5Ref?$AA@		; `string'
PUBLIC	??_C@_0IE@DBDEKJDM@Save?1Revert?5in?5local?5non?9persist@ ; `string'
PUBLIC	??_C@_06NNHHJHAK@?$CD?$CDtabs?$AA@		; `string'
PUBLIC	??_C@_05BOIJFCDP@Sizes?$AA@			; `string'
PUBLIC	??_C@_04KGFMLCPK@Main?$AA@			; `string'
PUBLIC	??_C@_0O@NJEPBHAL@WindowPadding?$AA@		; `string'
PUBLIC	??_C@_0N@CPMOGBCG@FramePadding?$AA@		; `string'
PUBLIC	??_C@_0M@PJNJGKOI@ItemSpacing?$AA@		; `string'
PUBLIC	??_C@_0BB@FPELPPEM@ItemInnerSpacing?$AA@	; `string'
PUBLIC	??_C@_0BC@CHKNMAIJ@TouchExtraPadding?$AA@	; `string'
PUBLIC	??_C@_0O@FJCIMFNP@IndentSpacing?$AA@		; `string'
PUBLIC	??_C@_0O@DNFCAGJO@ScrollbarSize?$AA@		; `string'
PUBLIC	??_C@_0M@MMBGIFGH@GrabMinSize?$AA@		; `string'
PUBLIC	??_C@_0BB@DIOLDNNC@WindowBorderSize?$AA@	; `string'
PUBLIC	??_C@_0BA@MHPKDBMC@ChildBorderSize?$AA@		; `string'
PUBLIC	??_C@_0BA@GHHMANCJ@PopupBorderSize?$AA@		; `string'
PUBLIC	??_C@_0BA@OLKEIFFB@FrameBorderSize?$AA@		; `string'
PUBLIC	??_C@_0O@MEMGDJEN@TabBorderSize?$AA@		; `string'
PUBLIC	??_C@_08ICFONDFO@Rounding?$AA@			; `string'
PUBLIC	??_C@_0P@IMGPCCNA@WindowRounding?$AA@		; `string'
PUBLIC	??_C@_0O@OLPNJDEC@ChildRounding?$AA@		; `string'
PUBLIC	??_C@_0O@OGBCIABM@PopupRounding?$AA@		; `string'
PUBLIC	??_C@_0BC@IGAFHGEC@ScrollbarRounding?$AA@	; `string'
PUBLIC	??_C@_0N@CHOEJEFP@GrabRounding?$AA@		; `string'
PUBLIC	??_C@_0M@GELHPNFJ@TabRounding?$AA@		; `string'
PUBLIC	??_C@_04GEFJINEE@?$CF?42f?$AA@			; `string'
PUBLIC	??_C@_0BB@IFNMJCJO@WindowTitleAlign?$AA@	; `string'
PUBLIC	??_C@_0BB@ECHPPBJL@None?$AALeft?$AARight?$AA?$AA@ ; `string'
PUBLIC	??_C@_0BJ@INNLFKOF@WindowMenuButtonPosition?$AA@ ; `string'
PUBLIC	??_C@_0M@PMLPANEE@Left?$AARight?$AA?$AA@	; `string'
PUBLIC	??_C@_0BE@HCCCHIDA@ColorButtonPosition?$AA@	; `string'
PUBLIC	??_C@_0BA@PHDMJLFL@ButtonTextAlign?$AA@		; `string'
PUBLIC	??_C@_0EB@KHCCNPEP@Alignment?5applies?5when?5a?5button?5@ ; `string'
PUBLIC	??_C@_0BE@OFFKFPJC@SelectableTextAlign?$AA@	; `string'
PUBLIC	??_C@_0EF@EIJADJPM@Alignment?5applies?5when?5a?5selecta@ ; `string'
PUBLIC	??_C@_0BC@FINEDBHB@Safe?5Area?5Padding?$AA@	; `string'
PUBLIC	??_C@_0GI@OFDAJLLA@Adjust?5if?5you?5cannot?5see?5the?5edg@ ; `string'
PUBLIC	??_C@_0BH@NLJOADCC@DisplaySafeAreaPadding?$AA@	; `string'
PUBLIC	??_C@_0BC@CILLMAJK@LogSliderDeadzone?$AA@	; `string'
PUBLIC	??_C@_06ICDCBJPI@Colors?$AA@			; `string'
PUBLIC	??_C@_06BFGAPCKF@Export?$AA@			; `string'
PUBLIC	??_C@_0CN@IIGPHJOL@ImVec4?$CK?5colors?5?$DN?5ImGui?3?3GetStyle@ ; `string'
PUBLIC	??_C@_0DO@CEAFKMHA@colors?$FLImGuiCol_?$CFs?$FN?$CF?$CKs?$DN?5ImVec4?$CI?$CF@ ; `string'
PUBLIC	??_C@_0BF@PKKCFHCF@To?5Clipboard?$AATo?5TTY?$AA?$AA@ ; `string'
PUBLIC	??_C@_0O@BMBGJILK@?$CD?$CDoutput_type?$AA@	; `string'
PUBLIC	??_C@_0BF@EKILLAGK@Only?5Modified?5Colors?$AA@	; `string'
PUBLIC	??_C@_0O@ECALKMOF@Filter?5colors?$AA@		; `string'
PUBLIC	??_C@_06OGJDIEIN@Opaque?$AA@			; `string'
PUBLIC	??_C@_05IHOGHNDL@Alpha?$AA@			; `string'
PUBLIC	??_C@_04IGHHMFLN@Both?$AA@			; `string'
PUBLIC	??_C@_0GL@DGJKIMAI@In?5the?5color?5list?3?6Left?9click?5on@ ; `string'
PUBLIC	??_C@_08PKGPDAGH@?$CD?$CDcolors?$AA@		; `string'
PUBLIC	??_C@_07KJABCEJI@?$CD?$CDcolor?$AA@		; `string'
PUBLIC	??_C@_04INACKGJP@Save?$AA@			; `string'
PUBLIC	??_C@_06OIKMFEGE@Revert?$AA@			; `string'
PUBLIC	??_C@_05ENDNDI@Fonts?$AA@			; `string'
PUBLIC	??_C@_0DI@LIBKHDAI@Read?5FAQ?5and?5docs?1FONTS?4md?5for?5d@ ; `string'
PUBLIC	??_C@_0BDA@ONKGEIHO@Those?5are?5old?5settings?5provided?5@ ; `string'
PUBLIC	??_C@_0N@DLFCCMFO@window?5scale?$AA@		; `string'
PUBLIC	??_C@_0N@DCHFKEPM@global?5scale?$AA@		; `string'
PUBLIC	??_C@_09PIAIFBON@Rendering?$AA@			; `string'
PUBLIC	??_C@_0BD@INPJKAKL@Anti?9aliased?5lines?$AA@	; `string'
PUBLIC	??_C@_0GD@HJLOEILL@When?5disabling?5anti?9aliasing?5lin@ ; `string'
PUBLIC	??_C@_0BP@FHJLGIJI@Anti?9aliased?5lines?5use?5texture?$AA@ ; `string'
PUBLIC	??_C@_0HC@GKHKBME@Faster?5lines?5using?5texture?5data?4@ ; `string'
PUBLIC	??_C@_0BC@KAFHAJBP@Anti?9aliased?5fill?$AA@	; `string'
PUBLIC	??_C@_0BN@KPCPFGKJ@Curve?5Tessellation?5Tolerance?$AA@ ; `string'
PUBLIC	??_C@_0BO@ENDODAAL@Circle?5Tessellation?5Max?5Error?$AA@ ; `string'
PUBLIC	??_C@_0CF@PHDIKMAF@?$CIR?5?$DN?5radius?0?5N?5?$DN?5number?5of?5segme@ ; `string'
PUBLIC	??_C@_0O@MNHFAILC@N?3?5MMM?6R?3?5MMM?$AA@	; `string'
PUBLIC	??_C@_0N@PBIKEDIP@R?3?5?$CF?4f?6N?3?5?$CFd?$AA@	; `string'
PUBLIC	??_C@_0GG@GMJKIKDN@When?5drawing?5circle?5primitives?5w@ ; `string'
PUBLIC	??_C@_0N@MBCJIDFM@Global?5Alpha?$AA@		; `string'
PUBLIC	??_C@_0P@HJLJBJBE@Disabled?5Alpha?$AA@		; `string'
PUBLIC	??_C@_0FH@NPBPGPJP@Additional?5alpha?5multiplier?5for?5@ ; `string'
PUBLIC	??_C@_0CO@FFJHEDDC@Double?9click?5on?5title?5bar?5to?5col@ ; `string'
PUBLIC	??_C@_0GD@KHDHCLNB@Click?5and?5drag?5on?5lower?5corner?5t@ ; `string'
PUBLIC	??_C@_0DL@LJHMLMPJ@CTRL?$CLClick?5on?5a?5slider?5or?5drag?5b@ ; `string'
PUBLIC	??_C@_0DJ@LKCIFMEM@TAB?1SHIFT?$CLTAB?5to?5cycle?5through?5k@ ; `string'
PUBLIC	??_C@_0BN@MNOOCJNJ@CTRL?$CLTab?5to?5select?5a?5window?4?$AA@ ; `string'
PUBLIC	??_C@_0CK@LADJDPFO@CTRL?$CLMouse?5Wheel?5to?5zoom?5window?5@ ; `string'
PUBLIC	??_C@_0BG@NMLMAAHC@While?5inputing?5text?3?6?$AA@ ; `string'
PUBLIC	??_C@_0BO@EGJGDBOL@CTRL?$CLLeft?1Right?5to?5word?5jump?4?$AA@ ; `string'
PUBLIC	??_C@_0CG@EHDHJJCE@CTRL?$CLA?5or?5double?9click?5to?5select@ ; `string'
PUBLIC	??_C@_0CM@COCDFHEI@CTRL?$CLX?1C?1V?5to?5use?5clipboard?5cut?1@ ; `string'
PUBLIC	??_C@_0BM@KMMNEEIL@CTRL?$CLZ?0CTRL?$CLY?5to?5undo?1redo?4?$AA@ ; `string'
PUBLIC	??_C@_0BC@PKENOIKO@ESCAPE?5to?5revert?4?$AA@	; `string'
PUBLIC	??_C@_0CC@LHGBBELP@With?5keyboard?5navigation?5enabled@ ; `string'
PUBLIC	??_C@_0BI@PBJOMNMB@Arrow?5keys?5to?5navigate?4?$AA@ ; `string'
PUBLIC	??_C@_0BM@LKNGKCOD@Space?5to?5activate?5a?5widget?4?$AA@ ; `string'
PUBLIC	??_C@_0CE@LIPDCNLP@Return?5to?5input?5text?5into?5a?5widg@ ; `string'
PUBLIC	??_C@_0DP@NLCDBEHA@Escape?5to?5deactivate?5a?5widget?0?5c@ ; `string'
PUBLIC	??_C@_0CL@EBPMKFNL@Alt?5to?5jump?5to?5the?5menu?5layer?5of@ ; `string'
PUBLIC	??_C@_06GHDCGCHF@CTRL?$CLZ?$AA@			; `string'
PUBLIC	??_C@_04LPGMNMPN@Undo?$AA@			; `string'
PUBLIC	??_C@_06EMBPDBLG@CTRL?$CLY?$AA@			; `string'
PUBLIC	??_C@_04NKENIHOM@Redo?$AA@			; `string'
PUBLIC	??_C@_06FFAEAAPH@CTRL?$CLX?$AA@			; `string'
PUBLIC	??_C@_03EOHDMBHJ@Cut?$AA@			; `string'
PUBLIC	??_C@_06PMDCMLGN@CTRL?$CLC?$AA@			; `string'
PUBLIC	??_C@_06MLIHCNHJ@CTRL?$CLV?$AA@			; `string'
PUBLIC	??_C@_05NEBJFIEK@Paste?$AA@			; `string'
PUBLIC	?__LINE__Var@?0??ShowExampleMenuFile@@YAXXZ@4JA	; `ShowExampleMenuFile'::`1'::__LINE__Var
PUBLIC	??_C@_0O@GAOLJPOH@Examples?1Menu?$AA@		; `string'
PUBLIC	??_C@_0M@OLDACLJ@?$CIdemo?5menu?$CJ?$AA@	; `string'
PUBLIC	??_C@_03ILBCOJBH@New?$AA@			; `string'
PUBLIC	??_C@_06DGNIABGN@Ctrl?$CLO?$AA@			; `string'
PUBLIC	??_C@_04DNCDCIAE@Open?$AA@			; `string'
PUBLIC	??_C@_0M@FFOFICLF@Open?5Recent?$AA@		; `string'
PUBLIC	??_C@_0L@MGPNFHBN@fish_hat?4c?$AA@		; `string'
PUBLIC	??_C@_0N@OONPEMFD@fish_hat?4inl?$AA@		; `string'
PUBLIC	??_C@_0L@CFAJIONG@fish_hat?4h?$AA@		; `string'
PUBLIC	??_C@_06INDFPOP@More?4?4?$AA@			; `string'
PUBLIC	??_C@_09JKOAAOOB@Recurse?4?4?$AA@		; `string'
PUBLIC	??_C@_06NAKPFMDA@Ctrl?$CLS?$AA@			; `string'
PUBLIC	??_C@_09JEJONNAL@Save?5As?4?4?$AA@		; `string'
PUBLIC	??_C@_0BG@BFDGIKBI@Examples?1Menu?1Options?$AA@	; `string'
PUBLIC	??_C@_07DOAOMMKG@Enabled?$AA@			; `string'
PUBLIC	??_C@_0BC@MAFFAEMB@Scrolling?5Text?5?$CFd?$AA@	; `string'
PUBLIC	??_C@_05DCDOHKAB@Input?$AA@			; `string'
PUBLIC	??_C@_0P@CHCLHMCH@Yes?$AANo?$AAMaybe?$AA?$AA?$AA@ ; `string'
PUBLIC	??_C@_0BF@IOOCHEEB@Examples?1Menu?1Colors?$AA@	; `string'
PUBLIC	??_C@_0CJ@HMLLIHM@Examples?1Menu?1Append?5to?5an?5exist@ ; `string'
PUBLIC	??_C@_0L@CLAHFOAE@SomeOption?$AA@		; `string'
PUBLIC	??_C@_07KAJHKDAE@Checked?$AA@			; `string'
PUBLIC	??_C@_06ELIFPNNI@Alt?$CLF4?$AA@			; `string'
PUBLIC	??_C@_04GMBKPCGK@Quit?$AA@			; `string'
PUBLIC	??_C@_0BB@GJBEJJEP@Examples?1Console?$AA@	; `string'
PUBLIC	??_C@_04DOKPJKJF@HELP?$AA@			; `string'
PUBLIC	??_C@_07DBIJIOJO@HISTORY?$AA@			; `string'
PUBLIC	??_C@_05PONODPI@CLEAR?$AA@			; `string'
PUBLIC	??_C@_08GOHMLCGG@CLASSIFY?$AA@			; `string'
PUBLIC	??_C@_0BH@HICLALOG@Welcome?5to?5Dear?5ImGui?$CB?$AA@ ; `string'
PUBLIC	??_C@_13KHDBCPJB@?$AAs?$AA?$AA@			; `string'
PUBLIC	??_C@_17ENLBLDPN@?$AAb?$AAu?$AAf?$AA?$AA@	; `string'
PUBLIC	??_C@_0O@GDIOPKGP@Close?5Console?$AA@		; `string'
PUBLIC	??_C@_0NJ@IPNBOCGH@This?5example?5implements?5a?5consol@ ; `string'
PUBLIC	??_C@_0BH@DCBEMCMC@Enter?5?8HELP?8?5for?5help?4?$AA@ ; `string'
PUBLIC	??_C@_0P@EGDLDIHN@Add?5Debug?5Text?$AA@		; `string'
PUBLIC	??_C@_0N@OJGBPOOP@?$CFd?5some?5text?$AA@	; `string'
PUBLIC	??_C@_0P@BMHJKMPF@some?5more?5text?$AA@		; `string'
PUBLIC	??_C@_0CF@PEIDNPCH@display?5very?5important?5message?5h@ ; `string'
PUBLIC	??_C@_0BA@FGHPBLJE@Add?5Debug?5Error?$AA@	; `string'
PUBLIC	??_C@_0BN@KNPJMMPE@?$FLerror?$FN?5something?5went?5wrong?$AA@ ; `string'
PUBLIC	??_C@_05MDNHABIA@Clear?$AA@			; `string'
PUBLIC	??_C@_0M@IFKANFPJ@Auto?9scroll?$AA@		; `string'
PUBLIC	??_C@_0CA@HIABFBKB@Filter?5?$CI?$CCincl?0?9excl?$CC?$CJ?5?$CI?$CCerror?$CC?$CJ?$AA@ ; `string'
PUBLIC	??_C@_0BA@KOEFNJOK@ScrollingRegion?$AA@		; `string'
PUBLIC	??_C@_07LFMCMLFD@?$FLerror?$FN?$AA@		; `string'
PUBLIC	??_C@_02KPDBPKPG@?$CD?5?$AA@			; `string'
PUBLIC	??_C@_05DFHAGHEP@?$CD?5?$CFs?6?$AA@		; `string'
PUBLIC	??_C@_09GJFNIAOH@Commands?3?$AA@		; `string'
PUBLIC	??_C@_04JKCKOCFH@?9?5?$CFs?$AA@			; `string'
PUBLIC	??_C@_08PKLPHKJF@?$CF3d?3?5?$CFs?6?$AA@		; `string'
PUBLIC	??_C@_0BH@OKLFOGKH@Unknown?5command?3?5?8?$CFs?8?6?$AA@ ; `string'
PUBLIC	??_C@_0BG@DOPMHGPK@No?5match?5for?5?$CC?$CF?4?$CKs?$CC?$CB?6?$AA@ ; `string'
PUBLIC	??_C@_01CLKCMJKC@?5?$AA@			; `string'
PUBLIC	??_C@_0BD@LCPLNAHF@Possible?5matches?3?6?$AA@	; `string'
PUBLIC	??_C@_05PHKAGDP@?9?5?$CFs?6?$AA@		; `string'
PUBLIC	??_C@_0BB@NEACHKPE@Example?3?5Console?$AA@	; `string'
PUBLIC	??_C@_06IBDJIBGI@Filter?$AA@			; `string'
PUBLIC	?__LINE__Var@?0??ShowExampleAppLog@@YAXPEA_N@Z@4JA ; `ShowExampleAppLog'::`1'::__LINE__Var
PUBLIC	??_C@_0N@LFJACCKD@Example?3?5Log?$AA@		; `string'
PUBLIC	??_C@_0N@BPJHOONG@Examples?1Log?$AA@		; `string'
PUBLIC	??_C@_0BG@JBNFHIEN@?$FLDebug?$FN?5Add?55?5entries?$AA@ ; `string'
PUBLIC	??_C@_04NIDJFNBE@info?$AA@			; `string'
PUBLIC	??_C@_04FNLOFOEM@warn?$AA@			; `string'
PUBLIC	??_C@_05KKCIMGE@error?$AA@			; `string'
PUBLIC	??_C@_0L@CIGCKJLI@Bumfuzzled?$AA@		; `string'
PUBLIC	??_C@_0M@FKNIJFM@Cattywampus?$AA@		; `string'
PUBLIC	??_C@_0M@KEIJGBOK@Snickersnee?$AA@		; `string'
PUBLIC	??_C@_0O@KKKMMPJN@Abibliophobia?$AA@		; `string'
PUBLIC	??_C@_0N@FLCFMCCB@Absquatulate?$AA@		; `string'
PUBLIC	??_C@_0L@MIMGHMNH@Nincompoop?$AA@		; `string'
PUBLIC	??_C@_0N@BIHLNJM@Pauciloquent?$AA@		; `string'
PUBLIC	??_C@_0DO@NHFCPAIM@?$FL?$CF05d?$FN?5?$FL?$CFs?$FN?5Hello?0?5current?5time?5@ ; `string'
PUBLIC	?__LINE__Var@?0??ShowExampleAppLayout@@YAXPEA_N@Z@4JA ; `ShowExampleAppLayout'::`1'::__LINE__Var
PUBLIC	??_C@_0BH@BCHKOJFL@Example?3?5Simple?5layout?$AA@ ; `string'
PUBLIC	??_C@_0BH@LFPHNCOC@Examples?1Simple?5layout?$AA@ ; `string'
PUBLIC	??_C@_06LEMDJJDE@Ctrl?$CLW?$AA@			; `string'
PUBLIC	??_C@_09OINOOGMP@left?5pane?$AA@		; `string'
PUBLIC	??_C@_0M@DHBPHHKL@MyObject?5?$CFd?$AA@		; `string'
PUBLIC	??_C@_09PHNAOHDK@item?5view?$AA@		; `string'
PUBLIC	??_C@_0N@CMHEFDFC@MyObject?3?5?$CFd?$AA@	; `string'
PUBLIC	??_C@_06BMLGLIAO@?$CD?$CDTabs?$AA@		; `string'
PUBLIC	??_C@_0HN@OJKIHMDC@Lorem?5ipsum?5dolor?5sit?5amet?0?5cons@ ; `string'
PUBLIC	??_C@_07NJJEDOBB@Details?$AA@			; `string'
PUBLIC	??_C@_0P@CCIDAFDC@ID?3?50123456789?$AA@		; `string'
PUBLIC	??_C@_05FIIOEGIK@?$CFs_?$CFu?$AA@		; `string'
PUBLIC	??_C@_06ELFECKBG@Object?$AA@			; `string'
PUBLIC	??_C@_0BC@LIBEHHHH@my?5sailor?5is?5rich?$AA@	; `string'
PUBLIC	??_C@_08BNKJGCPO@Field_?$CFd?$AA@		; `string'
PUBLIC	??_C@_05EPLKDJMH@Field?$AA@			; `string'
PUBLIC	??_C@_07FBBIKLOB@?$CD?$CDvalue?$AA@		; `string'
PUBLIC	?__LINE__Var@?0??ShowExampleAppPropertyEditor@@YAXPEA_N@Z@4JA ; `ShowExampleAppPropertyEditor'::`1'::__LINE__Var
PUBLIC	??_C@_0BJ@EKHJGGOC@Example?3?5Property?5editor?$AA@ ; `string'
PUBLIC	??_C@_0BJ@BMIAECG@Examples?1Property?5Editor?$AA@ ; `string'
PUBLIC	??_C@_0BAG@IGIKGKDA@This?5example?5shows?5how?5you?5may?5i@ ; `string'
PUBLIC	?__LINE__Var@?0??ShowExampleAppLongText@@YAXPEA_N@Z@4JA ; `ShowExampleAppLongText'::`1'::__LINE__Var
PUBLIC	??_C@_0BL@GBIKCKEE@Example?3?5Long?5text?5display?$AA@ ; `string'
PUBLIC	??_C@_0BL@OPFBPBGI@Examples?1Long?5text?5display?$AA@ ; `string'
PUBLIC	??_C@_0CI@JCGLFKAA@Printing?5unusually?5long?5amount?5o@ ; `string'
PUBLIC	??_C@_0HB@DAOOCDLA@Single?5call?5to?5TextUnformatted?$CI?$CJ@ ; `string'
PUBLIC	??_C@_09NBDEEMIG@Test?5type?$AA@		; `string'
PUBLIC	??_C@_0CE@MABLKLGB@Buffer?5contents?3?5?$CFd?5lines?0?5?$CFd?5by@ ; `string'
PUBLIC	??_C@_0P@IHJDPCIL@Add?51000?5lines?$AA@		; `string'
PUBLIC	??_C@_0DA@IKFBCOKM@?$CFi?5The?5quick?5brown?5fox?5jumps?5ove@ ; `string'
PUBLIC	??_C@_0CP@NEDCKJAF@?$CFi?5The?5quick?5brown?5fox?5jumps?5ove@ ; `string'
PUBLIC	?__LINE__Var@?0??ShowExampleAppAutoResize@@YAXPEA_N@Z@4JA ; `ShowExampleAppAutoResize'::`1'::__LINE__Var
PUBLIC	??_C@_0BO@BJFILJPF@Example?3?5Auto?9resizing?5window?$AA@ ; `string'
PUBLIC	??_C@_0BO@FLMCBBHH@Examples?1Auto?9resizing?5window?$AA@ ; `string'
PUBLIC	??_C@_0LI@CEDCIBKO@Window?5will?5resize?5every?9frame?5t@ ; `string'
PUBLIC	??_C@_0BA@EAJBEEH@Number?5of?5lines?$AA@	; `string'
PUBLIC	??_C@_0BD@DIDKCIOM@?$CF?$CKsThis?5is?5line?5?$CFd?$AA@ ; `string'
PUBLIC	?__LINE__Var@?0??ShowExampleAppConstrainedResize@@YAXPEA_N@Z@4JA ; `ShowExampleAppConstrainedResize'::`1'::__LINE__Var
PUBLIC	??_C@_0BM@ELFAEDLN@Between?5100x100?5and?5500x500?$AA@ ; `string'
PUBLIC	??_C@_0BB@OMJELDNN@At?5least?5100x100?$AA@	; `string'
PUBLIC	??_C@_0BF@FPBGOCLL@Resize?5vertical?5only?$AA@	; `string'
PUBLIC	??_C@_0BH@FIOIJIGG@Resize?5horizontal?5only?$AA@ ; `string'
PUBLIC	??_C@_0BK@CJDAKIAB@Width?5Between?5400?5and?5500?$AA@ ; `string'
PUBLIC	??_C@_0BK@HKADNNEP@Custom?3?5Aspect?5Ratio?516?39?$AA@ ; `string'
PUBLIC	??_C@_0BG@JBCFEINF@Custom?3?5Always?5Square?$AA@ ; `string'
PUBLIC	??_C@_0BK@NJBCHMME@Custom?3?5Fixed?5Steps?5?$CI100?$CJ?$AA@ ; `string'
PUBLIC	??_C@_0BM@KOHLMLPM@Example?3?5Constrained?5Resize?$AA@ ; `string'
PUBLIC	??_C@_0CF@GJNNAKKD@Examples?1Constrained?5Resizing?5wi@ ; `string'
PUBLIC	??_C@_08BMPDLDPD@viewport?$AA@			; `string'
PUBLIC	??_C@_0M@OPPEOHAI@?$CF?42f?5x?5?$CF?42f?$AA@	; `string'
PUBLIC	??_C@_0CJ@FGKPOBFJ@?$CIHold?5SHIFT?5to?5display?5a?5dummy?5v@ ; `string'
PUBLIC	??_C@_0M@JAEDJCOP@Set?5200x200?$AA@		; `string'
PUBLIC	??_C@_0M@HFBKDEP@Set?5500x500?$AA@		; `string'
PUBLIC	??_C@_0M@BIDIOCH@Set?5800x200?$AA@		; `string'
PUBLIC	??_C@_0L@PIOLEGBL@Constraint?$AA@		; `string'
PUBLIC	??_C@_0M@CEOMCPLH@Auto?9resize?$AA@		; `string'
PUBLIC	??_C@_0P@MFKLHBLP@Window?5padding?$AA@		; `string'
PUBLIC	??_C@_0EA@CCNBDEKJ@?$CF?$CKsHello?0?5sailor?$CB?5Making?5this?5li@ ; `string'
PUBLIC	?__LINE__Var@?0??ShowExampleAppSimpleOverlay@@YAXPEA_N@Z@4JA ; `ShowExampleAppSimpleOverlay'::`1'::__LINE__Var
PUBLIC	??_C@_0BI@PFDIHNNE@Example?3?5Simple?5overlay?$AA@ ; `string'
PUBLIC	??_C@_0BI@LOFEJJJB@Examples?1Simple?5Overlay?$AA@ ; `string'
PUBLIC	??_C@_0DA@NHHAMFHG@Simple?5overlay?6?$CIright?9click?5to?5c@ ; `string'
PUBLIC	??_C@_0BM@DKAAEOG@Mouse?5Position?3?5?$CI?$CF?41f?0?$CF?41f?$CJ?$AA@ ; `string'
PUBLIC	??_C@_0BK@POIHMAKN@Mouse?5Position?3?5?$DMinvalid?$DO?$AA@ ; `string'
PUBLIC	??_C@_06IFGIOHDE@Custom?$AA@			; `string'
PUBLIC	??_C@_08DPOKBJOC@Top?9left?$AA@			; `string'
PUBLIC	??_C@_09FEMEGGCE@Top?9right?$AA@		; `string'
PUBLIC	??_C@_0M@MGBINKPN@Bottom?9left?$AA@		; `string'
PUBLIC	??_C@_0N@NJDFJJBC@Bottom?9right?$AA@		; `string'
PUBLIC	??_C@_0BL@OIOENALL@Example?3?5Fullscreen?5window?$AA@ ; `string'
PUBLIC	??_C@_0CD@LIJNANIG@Use?5work?5area?5instead?5of?5main?5ar@ ; `string'
PUBLIC	??_C@_0LF@IPIHCBEA@Main?5Area?5?$DN?5entire?5viewport?0?6Wor@ ; `string'
PUBLIC	??_C@_0BO@GBGIKPEE@ImGuiWindowFlags_NoBackground?$AA@ ; `string'
PUBLIC	??_C@_0BO@ECAKMENC@ImGuiWindowFlags_NoDecoration?$AA@ ; `string'
PUBLIC	??_C@_0BM@DAAIDMAD@ImGuiWindowFlags_NoTitleBar?$AA@ ; `string'
PUBLIC	??_C@_0BM@NPHEKNPH@ImGuiWindowFlags_NoCollapse?$AA@ ; `string'
PUBLIC	??_C@_0BN@FBGOLCGF@ImGuiWindowFlags_NoScrollbar?$AA@ ; `string'
PUBLIC	??_C@_0BC@FCOOFHFP@Close?5this?5window?$AA@	; `string'
PUBLIC	?__LINE__Var@?0??ShowExampleAppWindowTitles@@YAXPEA_N@Z@4JA ; `ShowExampleAppWindowTitles'::`1'::__LINE__Var
PUBLIC	??_C@_0CA@BDOLKHNF@Same?5title?5as?5another?5window?$CD?$CD1?$AA@ ; `string'
PUBLIC	??_C@_0CE@IMLLBKBG@Examples?1Manipulating?5window?5tit@ ; `string'
PUBLIC	??_C@_0FB@NGKGAEMM@This?5is?5window?51?4?6My?5title?5is?5th@ ; `string'
PUBLIC	??_C@_0CA@DIMGPEBG@Same?5title?5as?5another?5window?$CD?$CD2?$AA@ ; `string'
PUBLIC	??_C@_0FB@MFIDPLFC@This?5is?5window?52?4?6My?5title?5is?5th@ ; `string'
PUBLIC	??_C@_04NLDFHNKP@?$HM?1?9?2?$AA@		; `string'
PUBLIC	??_C@_0CF@MMFFJKJN@Animated?5title?5?$CFc?5?$CFd?$CD?$CD?$CDAnimatedT@ ; `string'
PUBLIC	??_C@_0CC@JFOMGEPF@This?5window?5has?5a?5changing?5title@ ; `string'
PUBLIC	?__LINE__Var@?0??ShowExampleAppCustomRendering@@YAXPEA_N@Z@4JA ; `ShowExampleAppCustomRendering'::`1'::__LINE__Var
PUBLIC	??_C@_0BK@LABFKPJJ@Example?3?5Custom?5rendering?$AA@ ; `string'
PUBLIC	??_C@_0BK@JKHMHJNE@Examples?1Custom?5Rendering?$AA@ ; `string'
PUBLIC	??_C@_08EHLCCPCB@?$CD?$CDTabBar?$AA@		; `string'
PUBLIC	??_C@_0L@LLLBMLGE@Primitives?$AA@		; `string'
PUBLIC	??_C@_09CPMEGEPG@Gradients?$AA@			; `string'
PUBLIC	??_C@_0M@EKFIAEGG@?$CD?$CDgradient1?$AA@	; `string'
PUBLIC	??_C@_0M@GBHFFHKF@?$CD?$CDgradient2?$AA@	; `string'
PUBLIC	??_C@_0P@NICJPAHE@All?5primitives?$AA@		; `string'
PUBLIC	??_C@_05IDMOFOMC@?$CF?402f?$AA@			; `string'
PUBLIC	??_C@_09CEKHLCFH@Thickness?$AA@			; `string'
PUBLIC	??_C@_0M@ENJDGMDO@N?9gon?5sides?$AA@		; `string'
PUBLIC	??_C@_0BI@BDDBJMAI@?$CD?$CDcirclesegmentoverride?$AA@ ; `string'
PUBLIC	??_C@_0BJ@DMOGAKFD@Circle?5segments?5override?$AA@ ; `string'
PUBLIC	??_C@_0BI@KHAADAB@?$CD?$CDcurvessegmentoverride?$AA@ ; `string'
PUBLIC	??_C@_0BJ@MEDFNGBG@Curves?5segments?5override?$AA@ ; `string'
PUBLIC	??_C@_05PDOBBJNA@Color?$AA@			; `string'
PUBLIC	??_C@_06PBIJCONE@Canvas?$AA@			; `string'
PUBLIC	??_C@_0M@JHCNMMOE@Enable?5grid?$AA@		; `string'
PUBLIC	??_C@_0BE@IDDJEBPH@Enable?5context?5menu?$AA@	; `string'
PUBLIC	??_C@_0FE@MNMLMGAD@Mouse?5Left?3?5drag?5to?5add?5lines?0?6M@ ; `string'
PUBLIC	??_C@_06DODEBHEI@canvas?$AA@			; `string'
PUBLIC	??_C@_07JKKCBBMM@context?$AA@			; `string'
PUBLIC	??_C@_0L@IEFPLEH@Remove?5one?$AA@		; `string'
PUBLIC	??_C@_0L@DKNMODFD@Remove?5all?$AA@		; `string'
PUBLIC	??_C@_0BB@CEOBEDIK@BG?1FG?5draw?5lists?$AA@	; `string'
PUBLIC	??_C@_0BN@BHPCJJNA@Draw?5in?5Background?5draw?5list?$AA@ ; `string'
PUBLIC	??_C@_0EK@HADEKICD@The?5Background?5draw?5list?5will?5be@ ; `string'
PUBLIC	??_C@_0BN@MBHOHPNH@Draw?5in?5Foreground?5draw?5list?$AA@ ; `string'
PUBLIC	??_C@_0EJ@MJHHHC@The?5Foreground?5draw?5list?5will?5be@ ; `string'
PUBLIC	??_C@_0O@LKIEAKBN@Document?5?$CC?$CFs?$CC?$AA@	; `string'
PUBLIC	??_C@_0HM@PALHCHMO@Lorem?5ipsum?5dolor?5sit?5amet?0?5cons@ ; `string'
PUBLIC	??_C@_06CGNGJFJO@Modify?$AA@			; `string'
PUBLIC	??_C@_07HKLKIEAD@Save?5?$CFs?$AA@		; `string'
PUBLIC	??_C@_06LGPANJDM@CTRL?$CLS?$AA@			; `string'
PUBLIC	??_C@_06NCJMBMDI@CTRL?$CLW?$AA@			; `string'
PUBLIC	??_C@_07KPHKCHJL@Lettuce?$AA@			; `string'
PUBLIC	??_C@_08MEKMCLOD@Eggplant?$AA@			; `string'
PUBLIC	??_C@_06JOCEHIMN@Carrot?$AA@			; `string'
PUBLIC	??_C@_06BPAOMENE@Tomato?$AA@			; `string'
PUBLIC	??_C@_0BE@GMCEAMGE@A?5Rather?5Long?5Title?$AA@	; `string'
PUBLIC	??_C@_0O@ILMKPHFK@Some?5Document?$AA@		; `string'
PUBLIC	??_C@_0BD@BKDKPNMJ@Example?3?5Documents?$AA@	; `string'
PUBLIC	??_C@_0BE@HCFGHAAC@Close?5All?5Documents?$AA@	; `string'
PUBLIC	??_C@_07IHMOANJM@Ctrl?$CLF4?$AA@		; `string'
PUBLIC	??_C@_04LBABLPF@Exit?$AA@			; `string'
PUBLIC	??_C@_05DIODKGEP@Save?$DP?$AA@			; `string'
PUBLIC	??_C@_0CE@FLCNDGLJ@Save?5change?5to?5the?5following?5ite@ ; `string'
PUBLIC	??_C@_05MIJNFGED@frame?$AA@			; `string'
PUBLIC	??_C@_03CCLAEDDF@Yes?$AA@			; `string'
PUBLIC	??_C@_02JINPPBEP@No?$AA@			; `string'
PUBLIC	??_C@_1CG@GPMNJCJ@?$AAi?$AA?5?$AA?$DO?$AA?$DN?$AA?5?$AA0?$AA?5?$AA?$CG?$AA?$CG?$AA?5?$AAi?$AA?5?$AA?$DM?$AA?5?$AAS?$AAi?$AAz?$AAe?$AA?$AA@ ; `string'
PUBLIC	??_C@_1DO@NPHOAPAC@?$AAi?$AAt?$AA?5?$AA?$DO?$AA?$DN?$AA?5?$AAD?$AAa?$AAt?$AAa?$AA?5?$AA?$CG?$AA?$CG?$AA?5?$AAi?$AAt?$AA?5?$AA?$DM?$AA?5?$AAD?$AAa?$AAt?$AAa?$AA?5?$AA?$CL?$AA?5?$AAS?$AAi?$AAz?$AAe?$AA?$AA@ ; `string'
PUBLIC	??_C@_1BC@KCECIPDP@?$AAS?$AAi?$AAz?$AAe?$AA?5?$AA?$DO?$AA?5?$AA0?$AA?$AA@ ; `string'
PUBLIC	__real@00000000
PUBLIC	__real@0000000000000000
PUBLIC	__real@38d1b717
PUBLIC	__real@3a03126f
PUBLIC	__real@3ba3d70a
PUBLIC	__real@3c23d70a
PUBLIC	__real@3ca3d70a
PUBLIC	__real@3d4ccccd
PUBLIC	__real@3dcccccd
PUBLIC	__real@3e4ccccd
PUBLIC	__real@3e6b851f
PUBLIC	__real@3e800000
PUBLIC	__real@3e99999a
PUBLIC	__real@3eb33333
PUBLIC	__real@3ecccccd
PUBLIC	__real@3ee4e4e5
PUBLIC	__real@3f000000
PUBLIC	__real@3f109091
PUBLIC	__real@3f19999a
PUBLIC	__real@3f1a9a9b
PUBLIC	__real@3f266666
PUBLIC	__real@3f333333
PUBLIC	__real@3f48c8c9
PUBLIC	__real@3f4ccccd
PUBLIC	__real@3f666666
PUBLIC	__real@3f800000
PUBLIC	__real@3f847ae140000000
PUBLIC	__real@3f8ccccd
PUBLIC	__real@3f91111120000000
PUBLIC	__real@3fa66666
PUBLIC	__real@3fc00000
PUBLIC	__real@3fd0000000000000
PUBLIC	__real@3fe38e39
PUBLIC	__real@3ff0000000000000
PUBLIC	__real@40000000
PUBLIC	__real@40400000
PUBLIC	__real@40490e56
PUBLIC	__real@40800000
PUBLIC	__real@40a00000
PUBLIC	__real@40b00000
PUBLIC	__real@40c80000
PUBLIC	__real@40e00000
PUBLIC	__real@41000000
PUBLIC	__real@41100000
PUBLIC	__real@41200000
PUBLIC	__real@41233333
PUBLIC	__real@41400000
PUBLIC	__real@41600000
PUBLIC	__real@41700000
PUBLIC	__real@41800000
PUBLIC	__real@41900000
PUBLIC	__real@41a00000
PUBLIC	__real@41e00000
PUBLIC	__real@41f00000
PUBLIC	__real@41f80000
PUBLIC	__real@42000000
PUBLIC	__real@420c0000
PUBLIC	__real@42200000
PUBLIC	__real@42480000
PUBLIC	__real@42700000
PUBLIC	__real@42800000
PUBLIC	__real@42820000
PUBLIC	__real@428c0000
PUBLIC	__real@42a00000
PUBLIC	__real@42b40000
PUBLIC	__real@42c00000
PUBLIC	__real@42c80000
PUBLIC	__real@42f00000
PUBLIC	__real@43000000
PUBLIC	__real@430c0000
PUBLIC	__real@430c6bf526340000
PUBLIC	__real@43160000
PUBLIC	__real@43200000
PUBLIC	__real@43340000
PUBLIC	__real@43480000
PUBLIC	__real@43820000
PUBLIC	__real@43960000
PUBLIC	__real@43b40000
PUBLIC	__real@43c80000
PUBLIC	__real@43d70000
PUBLIC	__real@43dc0000
PUBLIC	__real@43e10000
PUBLIC	__real@43fa0000
PUBLIC	__real@44020000
PUBLIC	__real@44098000
PUBLIC	__real@44160000
PUBLIC	__real@44228000
PUBLIC	__real@442a0000
PUBLIC	__real@44480000
PUBLIC	__real@447a0000
PUBLIC	__real@44bb8000
PUBLIC	__real@44db2000
PUBLIC	__real@501502f9
PUBLIC	__real@7f7fffff
PUBLIC	__real@80800000
PUBLIC	__real@bdcccccd
PUBLIC	__real@bf800000
PUBLIC	__real@c1200000
PUBLIC	__real@c1400000
PUBLIC	__real@c1a00000
PUBLIC	__real@c2c80000
PUBLIC	__real@c30c6bf526340000
PUBLIC	__real@c3200000
PUBLIC	__real@c3b40000
PUBLIC	__real@d01502f9
PUBLIC	__real@ff7fffff
PUBLIC	__xmm@80000000800000008000000080000000
EXTRN	atexit:PROC
EXTRN	__report_rangecheckfailure:PROC
EXTRN	_Init_thread_header:PROC
EXTRN	_Init_thread_abort:PROC
EXTRN	_Init_thread_footer:PROC
EXTRN	__imp_memchr:PROC
EXTRN	memcmp:PROC
EXTRN	memcpy:PROC
EXTRN	__imp_memmove:PROC
EXTRN	memset:PROC
EXTRN	__imp_strchr:PROC
EXTRN	__imp_strstr:PROC
EXTRN	strcmp:PROC
EXTRN	strcpy:PROC
EXTRN	strlen:PROC
EXTRN	__imp_strncmp:PROC
EXTRN	__imp__wassert:PROC
EXTRN	?GetCurrentContext@ImGui@@YAPEAUImGuiContext@@XZ:PROC ; ImGui::GetCurrentContext
EXTRN	?GetIO@ImGui@@YAAEAUImGuiIO@@XZ:PROC		; ImGui::GetIO
EXTRN	?GetStyle@ImGui@@YAAEAUImGuiStyle@@XZ:PROC	; ImGui::GetStyle
EXTRN	?ShowMetricsWindow@ImGui@@YAXPEA_N@Z:PROC	; ImGui::ShowMetricsWindow
EXTRN	?ShowDebugLogWindow@ImGui@@YAXPEA_N@Z:PROC	; ImGui::ShowDebugLogWindow
EXTRN	?ShowStackToolWindow@ImGui@@YAXPEA_N@Z:PROC	; ImGui::ShowStackToolWindow
EXTRN	?GetVersion@ImGui@@YAPEBDXZ:PROC		; ImGui::GetVersion
EXTRN	?StyleColorsDark@ImGui@@YAXPEAUImGuiStyle@@@Z:PROC ; ImGui::StyleColorsDark
EXTRN	?StyleColorsLight@ImGui@@YAXPEAUImGuiStyle@@@Z:PROC ; ImGui::StyleColorsLight
EXTRN	?StyleColorsClassic@ImGui@@YAXPEAUImGuiStyle@@@Z:PROC ; ImGui::StyleColorsClassic
EXTRN	?Begin@ImGui@@YA_NPEBDPEA_NH@Z:PROC		; ImGui::Begin
EXTRN	?End@ImGui@@YAXXZ:PROC				; ImGui::End
EXTRN	?BeginChild@ImGui@@YA_NPEBDAEBUImVec2@@_NH@Z:PROC ; ImGui::BeginChild
EXTRN	?BeginChild@ImGui@@YA_NIAEBUImVec2@@_NH@Z:PROC	; ImGui::BeginChild
EXTRN	?EndChild@ImGui@@YAXXZ:PROC			; ImGui::EndChild
EXTRN	?IsWindowFocused@ImGui@@YA_NH@Z:PROC		; ImGui::IsWindowFocused
EXTRN	?IsWindowHovered@ImGui@@YA_NH@Z:PROC		; ImGui::IsWindowHovered
EXTRN	?GetWindowDrawList@ImGui@@YAPEAUImDrawList@@XZ:PROC ; ImGui::GetWindowDrawList
EXTRN	?GetWindowPos@ImGui@@YA?AUImVec2@@XZ:PROC	; ImGui::GetWindowPos
EXTRN	?GetWindowSize@ImGui@@YA?AUImVec2@@XZ:PROC	; ImGui::GetWindowSize
EXTRN	?GetWindowWidth@ImGui@@YAMXZ:PROC		; ImGui::GetWindowWidth
EXTRN	?SetNextWindowPos@ImGui@@YAXAEBUImVec2@@H0@Z:PROC ; ImGui::SetNextWindowPos
EXTRN	?SetNextWindowSize@ImGui@@YAXAEBUImVec2@@H@Z:PROC ; ImGui::SetNextWindowSize
EXTRN	?SetNextWindowSizeConstraints@ImGui@@YAXAEBUImVec2@@0P6AXPEAUImGuiSizeCallbackData@@@ZPEAX@Z:PROC ; ImGui::SetNextWindowSizeConstraints
EXTRN	?SetNextWindowContentSize@ImGui@@YAXAEBUImVec2@@@Z:PROC ; ImGui::SetNextWindowContentSize
EXTRN	?SetNextWindowBgAlpha@ImGui@@YAXM@Z:PROC	; ImGui::SetNextWindowBgAlpha
EXTRN	?SetWindowSize@ImGui@@YAXAEBUImVec2@@H@Z:PROC	; ImGui::SetWindowSize
EXTRN	?SetWindowFontScale@ImGui@@YAXM@Z:PROC		; ImGui::SetWindowFontScale
EXTRN	?GetContentRegionAvail@ImGui@@YA?AUImVec2@@XZ:PROC ; ImGui::GetContentRegionAvail
EXTRN	?GetWindowContentRegionMax@ImGui@@YA?AUImVec2@@XZ:PROC ; ImGui::GetWindowContentRegionMax
EXTRN	?GetScrollX@ImGui@@YAMXZ:PROC			; ImGui::GetScrollX
EXTRN	?GetScrollY@ImGui@@YAMXZ:PROC			; ImGui::GetScrollY
EXTRN	?SetScrollX@ImGui@@YAXM@Z:PROC			; ImGui::SetScrollX
EXTRN	?SetScrollY@ImGui@@YAXM@Z:PROC			; ImGui::SetScrollY
EXTRN	?GetScrollMaxX@ImGui@@YAMXZ:PROC		; ImGui::GetScrollMaxX
EXTRN	?GetScrollMaxY@ImGui@@YAMXZ:PROC		; ImGui::GetScrollMaxY
EXTRN	?SetScrollHereX@ImGui@@YAXM@Z:PROC		; ImGui::SetScrollHereX
EXTRN	?SetScrollHereY@ImGui@@YAXM@Z:PROC		; ImGui::SetScrollHereY
EXTRN	?SetScrollFromPosX@ImGui@@YAXMM@Z:PROC		; ImGui::SetScrollFromPosX
EXTRN	?SetScrollFromPosY@ImGui@@YAXMM@Z:PROC		; ImGui::SetScrollFromPosY
EXTRN	?PushStyleColor@ImGui@@YAXHI@Z:PROC		; ImGui::PushStyleColor
EXTRN	?PushStyleColor@ImGui@@YAXHAEBUImVec4@@@Z:PROC	; ImGui::PushStyleColor
EXTRN	?PopStyleColor@ImGui@@YAXH@Z:PROC		; ImGui::PopStyleColor
EXTRN	?PushStyleVar@ImGui@@YAXHM@Z:PROC		; ImGui::PushStyleVar
EXTRN	?PushStyleVar@ImGui@@YAXHAEBUImVec2@@@Z:PROC	; ImGui::PushStyleVar
EXTRN	?PopStyleVar@ImGui@@YAXH@Z:PROC			; ImGui::PopStyleVar
EXTRN	?PushAllowKeyboardFocus@ImGui@@YAX_N@Z:PROC	; ImGui::PushAllowKeyboardFocus
EXTRN	?PopAllowKeyboardFocus@ImGui@@YAXXZ:PROC	; ImGui::PopAllowKeyboardFocus
EXTRN	?PushButtonRepeat@ImGui@@YAX_N@Z:PROC		; ImGui::PushButtonRepeat
EXTRN	?PopButtonRepeat@ImGui@@YAXXZ:PROC		; ImGui::PopButtonRepeat
EXTRN	?PushItemWidth@ImGui@@YAXM@Z:PROC		; ImGui::PushItemWidth
EXTRN	?PopItemWidth@ImGui@@YAXXZ:PROC			; ImGui::PopItemWidth
EXTRN	?SetNextItemWidth@ImGui@@YAXM@Z:PROC		; ImGui::SetNextItemWidth
EXTRN	?CalcItemWidth@ImGui@@YAMXZ:PROC		; ImGui::CalcItemWidth
EXTRN	?PushTextWrapPos@ImGui@@YAXM@Z:PROC		; ImGui::PushTextWrapPos
EXTRN	?PopTextWrapPos@ImGui@@YAXXZ:PROC		; ImGui::PopTextWrapPos
EXTRN	?GetFont@ImGui@@YAPEAUImFont@@XZ:PROC		; ImGui::GetFont
EXTRN	?GetFontSize@ImGui@@YAMXZ:PROC			; ImGui::GetFontSize
EXTRN	?GetColorU32@ImGui@@YAIHM@Z:PROC		; ImGui::GetColorU32
EXTRN	?GetColorU32@ImGui@@YAIAEBUImVec4@@@Z:PROC	; ImGui::GetColorU32
EXTRN	?GetColorU32@ImGui@@YAII@Z:PROC			; ImGui::GetColorU32
EXTRN	?Separator@ImGui@@YAXXZ:PROC			; ImGui::Separator
EXTRN	?SameLine@ImGui@@YAXMM@Z:PROC			; ImGui::SameLine
EXTRN	?NewLine@ImGui@@YAXXZ:PROC			; ImGui::NewLine
EXTRN	?Spacing@ImGui@@YAXXZ:PROC			; ImGui::Spacing
EXTRN	?Dummy@ImGui@@YAXAEBUImVec2@@@Z:PROC		; ImGui::Dummy
EXTRN	?Indent@ImGui@@YAXM@Z:PROC			; ImGui::Indent
EXTRN	?Unindent@ImGui@@YAXM@Z:PROC			; ImGui::Unindent
EXTRN	?BeginGroup@ImGui@@YAXXZ:PROC			; ImGui::BeginGroup
EXTRN	?EndGroup@ImGui@@YAXXZ:PROC			; ImGui::EndGroup
EXTRN	?GetCursorPos@ImGui@@YA?AUImVec2@@XZ:PROC	; ImGui::GetCursorPos
EXTRN	?GetCursorPosX@ImGui@@YAMXZ:PROC		; ImGui::GetCursorPosX
EXTRN	?SetCursorPosX@ImGui@@YAXM@Z:PROC		; ImGui::SetCursorPosX
EXTRN	?GetCursorStartPos@ImGui@@YA?AUImVec2@@XZ:PROC	; ImGui::GetCursorStartPos
EXTRN	?GetCursorScreenPos@ImGui@@YA?AUImVec2@@XZ:PROC	; ImGui::GetCursorScreenPos
EXTRN	?SetCursorScreenPos@ImGui@@YAXAEBUImVec2@@@Z:PROC ; ImGui::SetCursorScreenPos
EXTRN	?AlignTextToFramePadding@ImGui@@YAXXZ:PROC	; ImGui::AlignTextToFramePadding
EXTRN	?GetTextLineHeight@ImGui@@YAMXZ:PROC		; ImGui::GetTextLineHeight
EXTRN	?GetTextLineHeightWithSpacing@ImGui@@YAMXZ:PROC	; ImGui::GetTextLineHeightWithSpacing
EXTRN	?GetFrameHeight@ImGui@@YAMXZ:PROC		; ImGui::GetFrameHeight
EXTRN	?GetFrameHeightWithSpacing@ImGui@@YAMXZ:PROC	; ImGui::GetFrameHeightWithSpacing
EXTRN	?PushID@ImGui@@YAXPEBD@Z:PROC			; ImGui::PushID
EXTRN	?PushID@ImGui@@YAXPEBX@Z:PROC			; ImGui::PushID
EXTRN	?PushID@ImGui@@YAXH@Z:PROC			; ImGui::PushID
EXTRN	?PopID@ImGui@@YAXXZ:PROC			; ImGui::PopID
EXTRN	?GetID@ImGui@@YAIPEBD@Z:PROC			; ImGui::GetID
EXTRN	?GetID@ImGui@@YAIPEBX@Z:PROC			; ImGui::GetID
EXTRN	?TextUnformatted@ImGui@@YAXPEBD0@Z:PROC		; ImGui::TextUnformatted
EXTRN	?Text@ImGui@@YAXPEBDZZ:PROC			; ImGui::Text
EXTRN	?TextColored@ImGui@@YAXAEBUImVec4@@PEBDZZ:PROC	; ImGui::TextColored
EXTRN	?TextDisabled@ImGui@@YAXPEBDZZ:PROC		; ImGui::TextDisabled
EXTRN	?TextWrapped@ImGui@@YAXPEBDZZ:PROC		; ImGui::TextWrapped
EXTRN	?LabelText@ImGui@@YAXPEBD0ZZ:PROC		; ImGui::LabelText
EXTRN	?BulletText@ImGui@@YAXPEBDZZ:PROC		; ImGui::BulletText
EXTRN	?Button@ImGui@@YA_NPEBDAEBUImVec2@@@Z:PROC	; ImGui::Button
EXTRN	?SmallButton@ImGui@@YA_NPEBD@Z:PROC		; ImGui::SmallButton
EXTRN	?InvisibleButton@ImGui@@YA_NPEBDAEBUImVec2@@H@Z:PROC ; ImGui::InvisibleButton
EXTRN	?ArrowButton@ImGui@@YA_NPEBDH@Z:PROC		; ImGui::ArrowButton
EXTRN	?Checkbox@ImGui@@YA_NPEBDPEA_N@Z:PROC		; ImGui::Checkbox
EXTRN	?CheckboxFlags@ImGui@@YA_NPEBDPEAHH@Z:PROC	; ImGui::CheckboxFlags
EXTRN	?RadioButton@ImGui@@YA_NPEBD_N@Z:PROC		; ImGui::RadioButton
EXTRN	?RadioButton@ImGui@@YA_NPEBDPEAHH@Z:PROC	; ImGui::RadioButton
EXTRN	?ProgressBar@ImGui@@YAXMAEBUImVec2@@PEBD@Z:PROC	; ImGui::ProgressBar
EXTRN	?Bullet@ImGui@@YAXXZ:PROC			; ImGui::Bullet
EXTRN	?Image@ImGui@@YAXPEAXAEBUImVec2@@11AEBUImVec4@@2@Z:PROC ; ImGui::Image
EXTRN	?ImageButton@ImGui@@YA_NPEBDPEAXAEBUImVec2@@22AEBUImVec4@@3@Z:PROC ; ImGui::ImageButton
EXTRN	?BeginCombo@ImGui@@YA_NPEBD0H@Z:PROC		; ImGui::BeginCombo
EXTRN	?EndCombo@ImGui@@YAXXZ:PROC			; ImGui::EndCombo
EXTRN	?Combo@ImGui@@YA_NPEBDPEAHQEBQEBDHH@Z:PROC	; ImGui::Combo
EXTRN	?Combo@ImGui@@YA_NPEBDPEAH0H@Z:PROC		; ImGui::Combo
EXTRN	?Combo@ImGui@@YA_NPEBDPEAHP6A_NPEAXHPEAPEBD@Z2HH@Z:PROC ; ImGui::Combo
EXTRN	?DragFloat@ImGui@@YA_NPEBDPEAMMMM0H@Z:PROC	; ImGui::DragFloat
EXTRN	?DragFloat2@ImGui@@YA_NPEBDQEAMMMM0H@Z:PROC	; ImGui::DragFloat2
EXTRN	?DragFloat3@ImGui@@YA_NPEBDQEAMMMM0H@Z:PROC	; ImGui::DragFloat3
EXTRN	?DragFloat4@ImGui@@YA_NPEBDQEAMMMM0H@Z:PROC	; ImGui::DragFloat4
EXTRN	?DragFloatRange2@ImGui@@YA_NPEBDPEAM1MMM00H@Z:PROC ; ImGui::DragFloatRange2
EXTRN	?DragInt@ImGui@@YA_NPEBDPEAHMHH0H@Z:PROC	; ImGui::DragInt
EXTRN	?DragInt2@ImGui@@YA_NPEBDQEAHMHH0H@Z:PROC	; ImGui::DragInt2
EXTRN	?DragInt3@ImGui@@YA_NPEBDQEAHMHH0H@Z:PROC	; ImGui::DragInt3
EXTRN	?DragInt4@ImGui@@YA_NPEBDQEAHMHH0H@Z:PROC	; ImGui::DragInt4
EXTRN	?DragIntRange2@ImGui@@YA_NPEBDPEAH1MHH00H@Z:PROC ; ImGui::DragIntRange2
EXTRN	?DragScalar@ImGui@@YA_NPEBDHPEAXMPEBX20H@Z:PROC	; ImGui::DragScalar
EXTRN	?SliderFloat@ImGui@@YA_NPEBDPEAMMM0H@Z:PROC	; ImGui::SliderFloat
EXTRN	?SliderFloat2@ImGui@@YA_NPEBDQEAMMM0H@Z:PROC	; ImGui::SliderFloat2
EXTRN	?SliderFloat3@ImGui@@YA_NPEBDQEAMMM0H@Z:PROC	; ImGui::SliderFloat3
EXTRN	?SliderFloat4@ImGui@@YA_NPEBDQEAMMM0H@Z:PROC	; ImGui::SliderFloat4
EXTRN	?SliderAngle@ImGui@@YA_NPEBDPEAMMM0H@Z:PROC	; ImGui::SliderAngle
EXTRN	?SliderInt@ImGui@@YA_NPEBDPEAHHH0H@Z:PROC	; ImGui::SliderInt
EXTRN	?SliderInt2@ImGui@@YA_NPEBDQEAHHH0H@Z:PROC	; ImGui::SliderInt2
EXTRN	?SliderInt3@ImGui@@YA_NPEBDQEAHHH0H@Z:PROC	; ImGui::SliderInt3
EXTRN	?SliderInt4@ImGui@@YA_NPEBDQEAHHH0H@Z:PROC	; ImGui::SliderInt4
EXTRN	?SliderScalar@ImGui@@YA_NPEBDHPEAXPEBX20H@Z:PROC ; ImGui::SliderScalar
EXTRN	?VSliderFloat@ImGui@@YA_NPEBDAEBUImVec2@@PEAMMM0H@Z:PROC ; ImGui::VSliderFloat
EXTRN	?VSliderInt@ImGui@@YA_NPEBDAEBUImVec2@@PEAHHH0H@Z:PROC ; ImGui::VSliderInt
EXTRN	?InputText@ImGui@@YA_NPEBDPEAD_KHP6AHPEAUImGuiInputTextCallbackData@@@ZPEAX@Z:PROC ; ImGui::InputText
EXTRN	?InputTextMultiline@ImGui@@YA_NPEBDPEAD_KAEBUImVec2@@HP6AHPEAUImGuiInputTextCallbackData@@@ZPEAX@Z:PROC ; ImGui::InputTextMultiline
EXTRN	?InputTextWithHint@ImGui@@YA_NPEBD0PEAD_KHP6AHPEAUImGuiInputTextCallbackData@@@ZPEAX@Z:PROC ; ImGui::InputTextWithHint
EXTRN	?InputFloat@ImGui@@YA_NPEBDPEAMMM0H@Z:PROC	; ImGui::InputFloat
EXTRN	?InputFloat2@ImGui@@YA_NPEBDQEAM0H@Z:PROC	; ImGui::InputFloat2
EXTRN	?InputFloat3@ImGui@@YA_NPEBDQEAM0H@Z:PROC	; ImGui::InputFloat3
EXTRN	?InputFloat4@ImGui@@YA_NPEBDQEAM0H@Z:PROC	; ImGui::InputFloat4
EXTRN	?InputInt@ImGui@@YA_NPEBDPEAHHHH@Z:PROC		; ImGui::InputInt
EXTRN	?InputInt2@ImGui@@YA_NPEBDQEAHH@Z:PROC		; ImGui::InputInt2
EXTRN	?InputInt3@ImGui@@YA_NPEBDQEAHH@Z:PROC		; ImGui::InputInt3
EXTRN	?InputInt4@ImGui@@YA_NPEBDQEAHH@Z:PROC		; ImGui::InputInt4
EXTRN	?InputDouble@ImGui@@YA_NPEBDPEANNN0H@Z:PROC	; ImGui::InputDouble
EXTRN	?InputScalar@ImGui@@YA_NPEBDHPEAXPEBX20H@Z:PROC	; ImGui::InputScalar
EXTRN	?ColorEdit3@ImGui@@YA_NPEBDQEAMH@Z:PROC		; ImGui::ColorEdit3
EXTRN	?ColorEdit4@ImGui@@YA_NPEBDQEAMH@Z:PROC		; ImGui::ColorEdit4
EXTRN	?ColorPicker3@ImGui@@YA_NPEBDQEAMH@Z:PROC	; ImGui::ColorPicker3
EXTRN	?ColorPicker4@ImGui@@YA_NPEBDQEAMHPEBM@Z:PROC	; ImGui::ColorPicker4
EXTRN	?ColorButton@ImGui@@YA_NPEBDAEBUImVec4@@HAEBUImVec2@@@Z:PROC ; ImGui::ColorButton
EXTRN	?SetColorEditOptions@ImGui@@YAXH@Z:PROC		; ImGui::SetColorEditOptions
EXTRN	?TreeNode@ImGui@@YA_NPEBD@Z:PROC		; ImGui::TreeNode
EXTRN	?TreeNode@ImGui@@YA_NPEBD0ZZ:PROC		; ImGui::TreeNode
EXTRN	?TreeNode@ImGui@@YA_NPEBXPEBDZZ:PROC		; ImGui::TreeNode
EXTRN	?TreeNodeEx@ImGui@@YA_NPEBDH@Z:PROC		; ImGui::TreeNodeEx
EXTRN	?TreeNodeEx@ImGui@@YA_NPEBDH0ZZ:PROC		; ImGui::TreeNodeEx
EXTRN	?TreeNodeEx@ImGui@@YA_NPEBXHPEBDZZ:PROC		; ImGui::TreeNodeEx
EXTRN	?TreePop@ImGui@@YAXXZ:PROC			; ImGui::TreePop
EXTRN	?GetTreeNodeToLabelSpacing@ImGui@@YAMXZ:PROC	; ImGui::GetTreeNodeToLabelSpacing
EXTRN	?CollapsingHeader@ImGui@@YA_NPEBDH@Z:PROC	; ImGui::CollapsingHeader
EXTRN	?CollapsingHeader@ImGui@@YA_NPEBDPEA_NH@Z:PROC	; ImGui::CollapsingHeader
EXTRN	?SetNextItemOpen@ImGui@@YAX_NH@Z:PROC		; ImGui::SetNextItemOpen
EXTRN	?Selectable@ImGui@@YA_NPEBD_NHAEBUImVec2@@@Z:PROC ; ImGui::Selectable
EXTRN	?Selectable@ImGui@@YA_NPEBDPEA_NHAEBUImVec2@@@Z:PROC ; ImGui::Selectable
EXTRN	?BeginListBox@ImGui@@YA_NPEBDAEBUImVec2@@@Z:PROC ; ImGui::BeginListBox
EXTRN	?EndListBox@ImGui@@YAXXZ:PROC			; ImGui::EndListBox
EXTRN	?ListBox@ImGui@@YA_NPEBDPEAHQEBQEBDHH@Z:PROC	; ImGui::ListBox
EXTRN	?PlotLines@ImGui@@YAXPEBDPEBMHH0MMUImVec2@@H@Z:PROC ; ImGui::PlotLines
EXTRN	?PlotLines@ImGui@@YAXPEBDP6AMPEAXH@Z1HH0MMUImVec2@@@Z:PROC ; ImGui::PlotLines
EXTRN	?PlotHistogram@ImGui@@YAXPEBDPEBMHH0MMUImVec2@@H@Z:PROC ; ImGui::PlotHistogram
EXTRN	?PlotHistogram@ImGui@@YAXPEBDP6AMPEAXH@Z1HH0MMUImVec2@@@Z:PROC ; ImGui::PlotHistogram
EXTRN	?BeginMenuBar@ImGui@@YA_NXZ:PROC		; ImGui::BeginMenuBar
EXTRN	?EndMenuBar@ImGui@@YAXXZ:PROC			; ImGui::EndMenuBar
EXTRN	?BeginMainMenuBar@ImGui@@YA_NXZ:PROC		; ImGui::BeginMainMenuBar
EXTRN	?EndMainMenuBar@ImGui@@YAXXZ:PROC		; ImGui::EndMainMenuBar
EXTRN	?BeginMenu@ImGui@@YA_NPEBD_N@Z:PROC		; ImGui::BeginMenu
EXTRN	?EndMenu@ImGui@@YAXXZ:PROC			; ImGui::EndMenu
EXTRN	?MenuItem@ImGui@@YA_NPEBD0_N1@Z:PROC		; ImGui::MenuItem
EXTRN	?MenuItem@ImGui@@YA_NPEBD0PEA_N_N@Z:PROC	; ImGui::MenuItem
EXTRN	?BeginTooltip@ImGui@@YAXXZ:PROC			; ImGui::BeginTooltip
EXTRN	?EndTooltip@ImGui@@YAXXZ:PROC			; ImGui::EndTooltip
EXTRN	?SetTooltip@ImGui@@YAXPEBDZZ:PROC		; ImGui::SetTooltip
EXTRN	?BeginPopup@ImGui@@YA_NPEBDH@Z:PROC		; ImGui::BeginPopup
EXTRN	?BeginPopupModal@ImGui@@YA_NPEBDPEA_NH@Z:PROC	; ImGui::BeginPopupModal
EXTRN	?EndPopup@ImGui@@YAXXZ:PROC			; ImGui::EndPopup
EXTRN	?OpenPopup@ImGui@@YAXPEBDH@Z:PROC		; ImGui::OpenPopup
EXTRN	?OpenPopupOnItemClick@ImGui@@YAXPEBDH@Z:PROC	; ImGui::OpenPopupOnItemClick
EXTRN	?CloseCurrentPopup@ImGui@@YAXXZ:PROC		; ImGui::CloseCurrentPopup
EXTRN	?BeginPopupContextItem@ImGui@@YA_NPEBDH@Z:PROC	; ImGui::BeginPopupContextItem
EXTRN	?BeginPopupContextWindow@ImGui@@YA_NPEBDH@Z:PROC ; ImGui::BeginPopupContextWindow
EXTRN	?IsPopupOpen@ImGui@@YA_NPEBDH@Z:PROC		; ImGui::IsPopupOpen
EXTRN	?BeginTable@ImGui@@YA_NPEBDHHAEBUImVec2@@M@Z:PROC ; ImGui::BeginTable
EXTRN	?EndTable@ImGui@@YAXXZ:PROC			; ImGui::EndTable
EXTRN	?TableNextRow@ImGui@@YAXHM@Z:PROC		; ImGui::TableNextRow
EXTRN	?TableNextColumn@ImGui@@YA_NXZ:PROC		; ImGui::TableNextColumn
EXTRN	?TableSetColumnIndex@ImGui@@YA_NH@Z:PROC	; ImGui::TableSetColumnIndex
EXTRN	?TableSetupColumn@ImGui@@YAXPEBDHMI@Z:PROC	; ImGui::TableSetupColumn
EXTRN	?TableSetupScrollFreeze@ImGui@@YAXHH@Z:PROC	; ImGui::TableSetupScrollFreeze
EXTRN	?TableHeadersRow@ImGui@@YAXXZ:PROC		; ImGui::TableHeadersRow
EXTRN	?TableHeader@ImGui@@YAXPEBD@Z:PROC		; ImGui::TableHeader
EXTRN	?TableGetSortSpecs@ImGui@@YAPEAUImGuiTableSortSpecs@@XZ:PROC ; ImGui::TableGetSortSpecs
EXTRN	?TableGetColumnIndex@ImGui@@YAHXZ:PROC		; ImGui::TableGetColumnIndex
EXTRN	?TableGetRowIndex@ImGui@@YAHXZ:PROC		; ImGui::TableGetRowIndex
EXTRN	?TableGetColumnName@ImGui@@YAPEBDH@Z:PROC	; ImGui::TableGetColumnName
EXTRN	?TableGetColumnFlags@ImGui@@YAHH@Z:PROC		; ImGui::TableGetColumnFlags
EXTRN	?TableSetBgColor@ImGui@@YAXHIH@Z:PROC		; ImGui::TableSetBgColor
EXTRN	?Columns@ImGui@@YAXHPEBD_N@Z:PROC		; ImGui::Columns
EXTRN	?NextColumn@ImGui@@YAXXZ:PROC			; ImGui::NextColumn
EXTRN	?GetColumnIndex@ImGui@@YAHXZ:PROC		; ImGui::GetColumnIndex
EXTRN	?GetColumnWidth@ImGui@@YAMH@Z:PROC		; ImGui::GetColumnWidth
EXTRN	?GetColumnOffset@ImGui@@YAMH@Z:PROC		; ImGui::GetColumnOffset
EXTRN	?BeginTabBar@ImGui@@YA_NPEBDH@Z:PROC		; ImGui::BeginTabBar
EXTRN	?EndTabBar@ImGui@@YAXXZ:PROC			; ImGui::EndTabBar
EXTRN	?BeginTabItem@ImGui@@YA_NPEBDPEA_NH@Z:PROC	; ImGui::BeginTabItem
EXTRN	?EndTabItem@ImGui@@YAXXZ:PROC			; ImGui::EndTabItem
EXTRN	?TabItemButton@ImGui@@YA_NPEBDH@Z:PROC		; ImGui::TabItemButton
EXTRN	?SetTabItemClosed@ImGui@@YAXPEBD@Z:PROC		; ImGui::SetTabItemClosed
EXTRN	?LogToTTY@ImGui@@YAXH@Z:PROC			; ImGui::LogToTTY
EXTRN	?LogToClipboard@ImGui@@YAXH@Z:PROC		; ImGui::LogToClipboard
EXTRN	?LogFinish@ImGui@@YAXXZ:PROC			; ImGui::LogFinish
EXTRN	?LogButtons@ImGui@@YAXXZ:PROC			; ImGui::LogButtons
EXTRN	?LogText@ImGui@@YAXPEBDZZ:PROC			; ImGui::LogText
EXTRN	?BeginDragDropSource@ImGui@@YA_NH@Z:PROC	; ImGui::BeginDragDropSource
EXTRN	?SetDragDropPayload@ImGui@@YA_NPEBDPEBX_KH@Z:PROC ; ImGui::SetDragDropPayload
EXTRN	?EndDragDropSource@ImGui@@YAXXZ:PROC		; ImGui::EndDragDropSource
EXTRN	?BeginDragDropTarget@ImGui@@YA_NXZ:PROC		; ImGui::BeginDragDropTarget
EXTRN	?AcceptDragDropPayload@ImGui@@YAPEBUImGuiPayload@@PEBDH@Z:PROC ; ImGui::AcceptDragDropPayload
EXTRN	?EndDragDropTarget@ImGui@@YAXXZ:PROC		; ImGui::EndDragDropTarget
EXTRN	?BeginDisabled@ImGui@@YAX_N@Z:PROC		; ImGui::BeginDisabled
EXTRN	?EndDisabled@ImGui@@YAXXZ:PROC			; ImGui::EndDisabled
EXTRN	?PushClipRect@ImGui@@YAXAEBUImVec2@@0_N@Z:PROC	; ImGui::PushClipRect
EXTRN	?PopClipRect@ImGui@@YAXXZ:PROC			; ImGui::PopClipRect
EXTRN	?SetItemDefaultFocus@ImGui@@YAXXZ:PROC		; ImGui::SetItemDefaultFocus
EXTRN	?SetKeyboardFocusHere@ImGui@@YAXH@Z:PROC	; ImGui::SetKeyboardFocusHere
EXTRN	?IsItemHovered@ImGui@@YA_NH@Z:PROC		; ImGui::IsItemHovered
EXTRN	?IsItemActive@ImGui@@YA_NXZ:PROC		; ImGui::IsItemActive
EXTRN	?IsItemFocused@ImGui@@YA_NXZ:PROC		; ImGui::IsItemFocused
EXTRN	?IsItemClicked@ImGui@@YA_NH@Z:PROC		; ImGui::IsItemClicked
EXTRN	?IsItemVisible@ImGui@@YA_NXZ:PROC		; ImGui::IsItemVisible
EXTRN	?IsItemEdited@ImGui@@YA_NXZ:PROC		; ImGui::IsItemEdited
EXTRN	?IsItemActivated@ImGui@@YA_NXZ:PROC		; ImGui::IsItemActivated
EXTRN	?IsItemDeactivated@ImGui@@YA_NXZ:PROC		; ImGui::IsItemDeactivated
EXTRN	?IsItemDeactivatedAfterEdit@ImGui@@YA_NXZ:PROC	; ImGui::IsItemDeactivatedAfterEdit
EXTRN	?IsItemToggledOpen@ImGui@@YA_NXZ:PROC		; ImGui::IsItemToggledOpen
EXTRN	?IsAnyItemHovered@ImGui@@YA_NXZ:PROC		; ImGui::IsAnyItemHovered
EXTRN	?GetItemRectMin@ImGui@@YA?AUImVec2@@XZ:PROC	; ImGui::GetItemRectMin
EXTRN	?GetItemRectMax@ImGui@@YA?AUImVec2@@XZ:PROC	; ImGui::GetItemRectMax
EXTRN	?GetItemRectSize@ImGui@@YA?AUImVec2@@XZ:PROC	; ImGui::GetItemRectSize
EXTRN	?GetMainViewport@ImGui@@YAPEAUImGuiViewport@@XZ:PROC ; ImGui::GetMainViewport
EXTRN	?GetBackgroundDrawList@ImGui@@YAPEAUImDrawList@@XZ:PROC ; ImGui::GetBackgroundDrawList
EXTRN	?GetForegroundDrawList@ImGui@@YAPEAUImDrawList@@XZ:PROC ; ImGui::GetForegroundDrawList
EXTRN	?GetTime@ImGui@@YANXZ:PROC			; ImGui::GetTime
EXTRN	?GetFrameCount@ImGui@@YAHXZ:PROC		; ImGui::GetFrameCount
EXTRN	?GetStyleColorName@ImGui@@YAPEBDH@Z:PROC	; ImGui::GetStyleColorName
EXTRN	?BeginChildFrame@ImGui@@YA_NIAEBUImVec2@@H@Z:PROC ; ImGui::BeginChildFrame
EXTRN	?EndChildFrame@ImGui@@YAXXZ:PROC		; ImGui::EndChildFrame
EXTRN	?CalcTextSize@ImGui@@YA?AUImVec2@@PEBD0_NM@Z:PROC ; ImGui::CalcTextSize
EXTRN	?ColorConvertFloat4ToU32@ImGui@@YAIAEBUImVec4@@@Z:PROC ; ImGui::ColorConvertFloat4ToU32
EXTRN	?ColorConvertHSVtoRGB@ImGui@@YAXMMMAEAM00@Z:PROC ; ImGui::ColorConvertHSVtoRGB
EXTRN	?IsKeyDown@ImGui@@YA_NW4ImGuiKey@@@Z:PROC	; ImGui::IsKeyDown
EXTRN	?IsKeyPressed@ImGui@@YA_NW4ImGuiKey@@_N@Z:PROC	; ImGui::IsKeyPressed
EXTRN	?GetKeyName@ImGui@@YAPEBDW4ImGuiKey@@@Z:PROC	; ImGui::GetKeyName
EXTRN	?SetNextFrameWantCaptureKeyboard@ImGui@@YAX_N@Z:PROC ; ImGui::SetNextFrameWantCaptureKeyboard
EXTRN	?IsMouseDown@ImGui@@YA_NH@Z:PROC		; ImGui::IsMouseDown
EXTRN	?IsMouseClicked@ImGui@@YA_NH_N@Z:PROC		; ImGui::IsMouseClicked
EXTRN	?IsMouseReleased@ImGui@@YA_NH@Z:PROC		; ImGui::IsMouseReleased
EXTRN	?IsMouseDoubleClicked@ImGui@@YA_NH@Z:PROC	; ImGui::IsMouseDoubleClicked
EXTRN	?IsMousePosValid@ImGui@@YA_NPEBUImVec2@@@Z:PROC	; ImGui::IsMousePosValid
EXTRN	?IsMouseDragging@ImGui@@YA_NHM@Z:PROC		; ImGui::IsMouseDragging
EXTRN	?GetMouseDragDelta@ImGui@@YA?AUImVec2@@HM@Z:PROC ; ImGui::GetMouseDragDelta
EXTRN	?ResetMouseDragDelta@ImGui@@YAXH@Z:PROC		; ImGui::ResetMouseDragDelta
EXTRN	?GetMouseCursor@ImGui@@YAHXZ:PROC		; ImGui::GetMouseCursor
EXTRN	?SetMouseCursor@ImGui@@YAXH@Z:PROC		; ImGui::SetMouseCursor
EXTRN	?SetNextFrameWantCaptureMouse@ImGui@@YAX_N@Z:PROC ; ImGui::SetNextFrameWantCaptureMouse
EXTRN	?MemAlloc@ImGui@@YAPEAX_K@Z:PROC		; ImGui::MemAlloc
EXTRN	?MemFree@ImGui@@YAXPEAX@Z:PROC			; ImGui::MemFree
EXTRN	??0ImGuiStyle@@QEAA@XZ:PROC			; ImGuiStyle::ImGuiStyle
EXTRN	?DeleteChars@ImGuiInputTextCallbackData@@QEAAXHH@Z:PROC ; ImGuiInputTextCallbackData::DeleteChars
EXTRN	?InsertChars@ImGuiInputTextCallbackData@@QEAAXHPEBD0@Z:PROC ; ImGuiInputTextCallbackData::InsertChars
EXTRN	??0ImGuiTextFilter@@QEAA@PEBD@Z:PROC		; ImGuiTextFilter::ImGuiTextFilter
EXTRN	?Draw@ImGuiTextFilter@@QEAA_NPEBDM@Z:PROC	; ImGuiTextFilter::Draw
EXTRN	?PassFilter@ImGuiTextFilter@@QEBA_NPEBD0@Z:PROC	; ImGuiTextFilter::PassFilter
EXTRN	?appendf@ImGuiTextBuffer@@QEAAXPEBDZZ:PROC	; ImGuiTextBuffer::appendf
EXTRN	?appendfv@ImGuiTextBuffer@@QEAAXPEBDPEAD@Z:PROC	; ImGuiTextBuffer::appendfv
EXTRN	??0ImGuiListClipper@@QEAA@XZ:PROC		; ImGuiListClipper::ImGuiListClipper
EXTRN	??1ImGuiListClipper@@QEAA@XZ:PROC		; ImGuiListClipper::~ImGuiListClipper
EXTRN	?Begin@ImGuiListClipper@@QEAAXHM@Z:PROC		; ImGuiListClipper::Begin
EXTRN	?End@ImGuiListClipper@@QEAAXXZ:PROC		; ImGuiListClipper::End
EXTRN	?Step@ImGuiListClipper@@QEAA_NXZ:PROC		; ImGuiListClipper::Step
EXTRN	?PushClipRect@ImDrawList@@QEAAXAEBUImVec2@@0_N@Z:PROC ; ImDrawList::PushClipRect
EXTRN	?PopClipRect@ImDrawList@@QEAAXXZ:PROC		; ImDrawList::PopClipRect
EXTRN	?AddLine@ImDrawList@@QEAAXAEBUImVec2@@0IM@Z:PROC ; ImDrawList::AddLine
EXTRN	?AddRect@ImDrawList@@QEAAXAEBUImVec2@@0IMHM@Z:PROC ; ImDrawList::AddRect
EXTRN	?AddRectFilled@ImDrawList@@QEAAXAEBUImVec2@@0IMH@Z:PROC ; ImDrawList::AddRectFilled
EXTRN	?AddRectFilledMultiColor@ImDrawList@@QEAAXAEBUImVec2@@0IIII@Z:PROC ; ImDrawList::AddRectFilledMultiColor
EXTRN	?AddTriangle@ImDrawList@@QEAAXAEBUImVec2@@00IM@Z:PROC ; ImDrawList::AddTriangle
EXTRN	?AddTriangleFilled@ImDrawList@@QEAAXAEBUImVec2@@00I@Z:PROC ; ImDrawList::AddTriangleFilled
EXTRN	?AddCircle@ImDrawList@@QEAAXAEBUImVec2@@MIHM@Z:PROC ; ImDrawList::AddCircle
EXTRN	?AddCircleFilled@ImDrawList@@QEAAXAEBUImVec2@@MIH@Z:PROC ; ImDrawList::AddCircleFilled
EXTRN	?AddNgon@ImDrawList@@QEAAXAEBUImVec2@@MIHM@Z:PROC ; ImDrawList::AddNgon
EXTRN	?AddNgonFilled@ImDrawList@@QEAAXAEBUImVec2@@MIH@Z:PROC ; ImDrawList::AddNgonFilled
EXTRN	?AddText@ImDrawList@@QEAAXAEBUImVec2@@IPEBD1@Z:PROC ; ImDrawList::AddText
EXTRN	?AddText@ImDrawList@@QEAAXPEBUImFont@@MAEBUImVec2@@IPEBD2MPEBUImVec4@@@Z:PROC ; ImDrawList::AddText
EXTRN	?AddBezierCubic@ImDrawList@@QEAAXAEBUImVec2@@000IMH@Z:PROC ; ImDrawList::AddBezierCubic
EXTRN	?AddBezierQuadratic@ImDrawList@@QEAAXAEBUImVec2@@00IMH@Z:PROC ; ImDrawList::AddBezierQuadratic
EXTRN	?_CalcCircleAutoSegmentCount@ImDrawList@@QEBAHM@Z:PROC ; ImDrawList::_CalcCircleAutoSegmentCount
EXTRN	__imp_toupper:PROC
EXTRN	__imp_cosf:PROC
EXTRN	__imp_floorf:PROC
EXTRN	__imp_fmodf:PROC
EXTRN	__imp_sinf:PROC
EXTRN	__imp___stdio_common_vsprintf:PROC
EXTRN	__imp_free:PROC
EXTRN	__imp_malloc:PROC
EXTRN	__imp_qsort:PROC
EXTRN	?GetKeyData@ImGui@@YAPEAUImGuiKeyData@@W4ImGuiKey@@@Z:PROC ; ImGui::GetKeyData
EXTRN	?ShowFontAtlas@ImGui@@YAXPEAUImFontAtlas@@@Z:PROC ; ImGui::ShowFontAtlas
EXTRN	_RTC_CheckStackVars:PROC
EXTRN	_RTC_InitBase:PROC
EXTRN	_RTC_Shutdown:PROC
EXTRN	__CxxFrameHandler3:PROC
EXTRN	__GSHandlerCheck:PROC
EXTRN	__GSHandlerCheck_EH:PROC
EXTRN	__chkstk:PROC
EXTRN	__security_check_cookie:PROC
EXTRN	_Init_thread_epoch:DWORD
EXTRN	?EmptyString@ImGuiTextBuffer@@2PADA:BYTE	; ImGuiTextBuffer::EmptyString
EXTRN	__ImageBase:BYTE
EXTRN	__security_cookie:QWORD
EXTRN	_fltused:DWORD
EXTRN	_tls_index:DWORD
;	COMDAT ?_OptionsStorage@?1??__local_stdio_printf_options@@9@4_KA
_BSS	SEGMENT
?_OptionsStorage@?1??__local_stdio_printf_options@@9@4_KA DQ 01H DUP (?) ; `__local_stdio_printf_options'::`2'::_OptionsStorage
_BSS	ENDS
_BSS	SEGMENT
?buf1@?BMD@??ShowDemoWindowWidgets@@YAXXZ@4PADA DB 040H DUP (?) ; `ShowDemoWindowWidgets'::`451'::buf1
?buf2@?BMD@??ShowDemoWindowWidgets@@YAXXZ@4PADA DB 040H DUP (?) ; `ShowDemoWindowWidgets'::`451'::buf2
?buf3@?BMD@??ShowDemoWindowWidgets@@YAXXZ@4PADA DB 040H DUP (?) ; `ShowDemoWindowWidgets'::`451'::buf3
?my_str@?BMK@??ShowDemoWindowWidgets@@YAXXZ@4U?$ImVector@D@@A DB 010H DUP (?) ; `ShowDemoWindowWidgets'::`458'::my_str
?$TSS0@?BMK@??ShowDemoWindowWidgets@@YAXXZ@4HA DD 01H DUP (?) ; `ShowDemoWindowWidgets'::`458'::$TSS0
?active_tabs@?CAI@??ShowDemoWindowWidgets@@YAXXZ@4U?$ImVector@H@@A DB 010H DUP (?) ; `ShowDemoWindowWidgets'::`520'::active_tabs
?$TSS1@?CAI@??ShowDemoWindowWidgets@@YAXXZ@4HA DD 01H DUP (?) ; `ShowDemoWindowWidgets'::`520'::$TSS1
?color@?CEK@??ShowDemoWindowWidgets@@YAXXZ@4UImVec4@@A DB 010H DUP (?) ; `ShowDemoWindowWidgets'::`586'::color
?$TSS2@?CEK@??ShowDemoWindowWidgets@@YAXXZ@4HA DD 01H DUP (?) ; `ShowDemoWindowWidgets'::`586'::$TSS2
?saved_palette@?CEK@??ShowDemoWindowWidgets@@YAXXZ@4PAUImVec4@@A DB 0200H DUP (?) ; `ShowDemoWindowWidgets'::`586'::saved_palette
?$TSS3@?CEK@??ShowDemoWindowWidgets@@YAXXZ@4HA DD 01H DUP (?) ; `ShowDemoWindowWidgets'::`586'::$TSS3
?backup_color@?CEK@??ShowDemoWindowWidgets@@YAXXZ@4UImVec4@@A DB 010H DUP (?) ; `ShowDemoWindowWidgets'::`586'::backup_color
?$TSS4@?CEK@??ShowDemoWindowWidgets@@YAXXZ@4HA DD 01H DUP (?) ; `ShowDemoWindowWidgets'::`586'::$TSS4
?ref_color_v@?CEK@??ShowDemoWindowWidgets@@YAXXZ@4UImVec4@@A DB 010H DUP (?) ; `ShowDemoWindowWidgets'::`586'::ref_color_v
?$TSS5@?CEK@??ShowDemoWindowWidgets@@YAXXZ@4HA DD 01H DUP (?) ; `ShowDemoWindowWidgets'::`586'::$TSS5
?color_hsv@?CEK@??ShowDemoWindowWidgets@@YAXXZ@4UImVec4@@A DB 010H DUP (?) ; `ShowDemoWindowWidgets'::`586'::color_hsv
?$TSS6@?CEK@??ShowDemoWindowWidgets@@YAXXZ@4HA DD 01H DUP (?) ; `ShowDemoWindowWidgets'::`586'::$TSS6
?filter@?DIK@??ShowDemoWindowWidgets@@YAXXZ@4UImGuiTextFilter@@A DB 0118H DUP (?) ; `ShowDemoWindowWidgets'::`906'::filter
?$TSS7@?DIK@??ShowDemoWindowWidgets@@YAXXZ@4HA DD 01H DUP (?) ; `ShowDemoWindowWidgets'::`906'::$TSS7
?size@?BAG@??ShowDemoWindowLayout@@YAXXZ@4UImVec2@@A DQ 01H DUP (?) ; `ShowDemoWindowLayout'::`262'::size
?$TSS0@?BAG@??ShowDemoWindowLayout@@YAXXZ@4HA DD 01H DUP (?) ; `ShowDemoWindowLayout'::`262'::$TSS0
	ALIGN	8

?offset@?BAG@??ShowDemoWindowLayout@@YAXXZ@4UImVec2@@A DQ 01H DUP (?) ; `ShowDemoWindowLayout'::`262'::offset
?$TSS1@?BAG@??ShowDemoWindowLayout@@YAXXZ@4HA DD 01H DUP (?) ; `ShowDemoWindowLayout'::`262'::$TSS1
	ALIGN	8

?cell_padding@?JH@??ShowDemoWindowTables@@YAXXZ@4UImVec2@@A DQ 01H DUP (?) ; `ShowDemoWindowTables'::`151'::cell_padding
?$TSS0@?JH@??ShowDemoWindowTables@@YAXXZ@4HA DD 01H DUP (?) ; `ShowDemoWindowTables'::`151'::$TSS0
?text_bufs@?KJ@??ShowDemoWindowTables@@YAXXZ@4PAY0BA@DA DB 0f0H DUP (?) ; `ShowDemoWindowTables'::`169'::text_bufs
?items@?BPE@??ShowDemoWindowTables@@YAXXZ@4U?$ImVector@UMyItem@?A0x1ed25892@@@@A DB 010H DUP (?) ; `ShowDemoWindowTables'::`500'::items
?$TSS1@?BPE@??ShowDemoWindowTables@@YAXXZ@4HA DD 01H DUP (?) ; `ShowDemoWindowTables'::`500'::$TSS1
?outer_size_value@?CAP@??ShowDemoWindowTables@@YAXXZ@4UImVec2@@A DQ 01H DUP (?) ; `ShowDemoWindowTables'::`527'::outer_size_value
?$TSS2@?CAP@??ShowDemoWindowTables@@YAXXZ@4HA DD 01H DUP (?) ; `ShowDemoWindowTables'::`527'::$TSS2
?items@?CAP@??ShowDemoWindowTables@@YAXXZ@4U?$ImVector@UMyItem@?A0x1ed25892@@@@A DB 010H DUP (?) ; `ShowDemoWindowTables'::`527'::items
?$TSS3@?CAP@??ShowDemoWindowTables@@YAXXZ@4HA DD 01H DUP (?) ; `ShowDemoWindowTables'::`527'::$TSS3
?selection@?CAP@??ShowDemoWindowTables@@YAXXZ@4U?$ImVector@H@@A DB 010H DUP (?) ; `ShowDemoWindowTables'::`527'::selection
?$TSS4@?CAP@??ShowDemoWindowTables@@YAXXZ@4HA DD 01H DUP (?) ; `ShowDemoWindowTables'::`527'::$TSS4
?ref_saved_style@?1??ShowStyleEditor@ImGui@@YAXPEAUImGuiStyle@@@Z@4U3@A DB 0418H DUP (?) ; `ImGui::ShowStyleEditor'::`2'::ref_saved_style
?$TSS0@?1??ShowStyleEditor@ImGui@@YAXPEAUImGuiStyle@@@Z@4HA DD 01H DUP (?) ; `ImGui::ShowStyleEditor'::`2'::$TSS0
?filter@?CJ@??ShowStyleEditor@ImGui@@YAXPEAUImGuiStyle@@@Z@4UImGuiTextFilter@@A DB 0118H DUP (?) ; `ImGui::ShowStyleEditor'::`41'::filter
?$TSS1@?CJ@??ShowStyleEditor@ImGui@@YAXPEAUImGuiStyle@@@Z@4HA DD 01H DUP (?) ; `ImGui::ShowStyleEditor'::`41'::$TSS1
?console@?1??ShowExampleAppConsole@@YAXPEA_N@Z@4UExampleAppConsole@@A DB 0258H DUP (?) ; `ShowExampleAppConsole'::`2'::console
?$TSS0@?1??ShowExampleAppConsole@@YAXPEA_N@Z@4HA DD 01H DUP (?) ; `ShowExampleAppConsole'::`2'::$TSS0
?log@?1??ShowExampleAppLog@@YAXPEA_N@Z@4UExampleAppLog@@A DB 0140H DUP (?) ; `ShowExampleAppLog'::`2'::log
?$TSS0@?1??ShowExampleAppLog@@YAXPEA_N@Z@4HA DD 01H DUP (?) ; `ShowExampleAppLog'::`2'::$TSS0
?log@?1??ShowExampleAppLongText@@YAXPEA_N@Z@4UImGuiTextBuffer@@A DB 010H DUP (?) ; `ShowExampleAppLongText'::`2'::log
?$TSS0@?1??ShowExampleAppLongText@@YAXPEA_N@Z@4HA DD 01H DUP (?) ; `ShowExampleAppLongText'::`2'::$TSS0
?colf@?P@??ShowExampleAppCustomRendering@@YAXPEA_N@Z@4UImVec4@@A DB 010H DUP (?) ; `ShowExampleAppCustomRendering'::`15'::colf
?$TSS0@?P@??ShowExampleAppCustomRendering@@YAXPEA_N@Z@4HA DD 01H DUP (?) ; `ShowExampleAppCustomRendering'::`15'::$TSS0
?points@?BG@??ShowExampleAppCustomRendering@@YAXPEA_N@Z@4U?$ImVector@UImVec2@@@@A DB 010H DUP (?) ; `ShowExampleAppCustomRendering'::`22'::points
?$TSS1@?BG@??ShowExampleAppCustomRendering@@YAXPEA_N@Z@4HA DD 01H DUP (?) ; `ShowExampleAppCustomRendering'::`22'::$TSS1
?scrolling@?BG@??ShowExampleAppCustomRendering@@YAXPEA_N@Z@4UImVec2@@A DQ 01H DUP (?) ; `ShowExampleAppCustomRendering'::`22'::scrolling
?$TSS2@?BG@??ShowExampleAppCustomRendering@@YAXPEA_N@Z@4HA DD 01H DUP (?) ; `ShowExampleAppCustomRendering'::`22'::$TSS2
?app@?1??ShowExampleAppDocuments@@YAXPEA_N@Z@4UExampleAppDocuments@@A DB 010H DUP (?) ; `ShowExampleAppDocuments'::`2'::app
?$TSS0@?1??ShowExampleAppDocuments@@YAXPEA_N@Z@4HA DD 01H DUP (?) ; `ShowExampleAppDocuments'::`2'::$TSS0
?close_queue@?1??ShowExampleAppDocuments@@YAXPEA_N@Z@4U?$ImVector@PEAUMyDocument@@@@A DB 010H DUP (?) ; `ShowExampleAppDocuments'::`2'::close_queue
?$TSS1@?1??ShowExampleAppDocuments@@YAXPEA_N@Z@4HA DD 01H DUP (?) ; `ShowExampleAppDocuments'::`2'::$TSS1
_BSS	ENDS
;	COMDAT pdata
pdata	SEGMENT
$pdata$??_H@YAXPEAX_K1P6APEAX0@Z@Z DD imagerel $LN7
	DD	imagerel $LN7+181
	DD	imagerel $unwind$??_H@YAXPEAX_K1P6APEAX0@Z@Z
pdata	ENDS
;	COMDAT pdata
pdata	SEGMENT
$pdata$?memchr@@YAPEAXPEAXH_K@Z DD imagerel $LN3
	DD	imagerel $LN3+95
	DD	imagerel $unwind$?memchr@@YAPEAXPEAXH_K@Z
pdata	ENDS
;	COMDAT pdata
pdata	SEGMENT
$pdata$??0ImVec2@@QEAA@XZ DD imagerel $LN3
	DD	imagerel $LN3+46
	DD	imagerel $unwind$??0ImVec2@@QEAA@XZ
pdata	ENDS
;	COMDAT pdata
pdata	SEGMENT
$pdata$??0ImVec2@@QEAA@MM@Z DD imagerel $LN3
	DD	imagerel $LN3+62
	DD	imagerel $unwind$??0ImVec2@@QEAA@MM@Z
pdata	ENDS
;	COMDAT pdata
pdata	SEGMENT
$pdata$??0ImVec4@@QEAA@XZ DD imagerel $LN3
	DD	imagerel $LN3+70
	DD	imagerel $unwind$??0ImVec4@@QEAA@XZ
pdata	ENDS
;	COMDAT pdata
pdata	SEGMENT
$pdata$??0ImVec4@@QEAA@MMMM@Z DD imagerel $LN3
	DD	imagerel $LN3+96
	DD	imagerel $unwind$??0ImVec4@@QEAA@MMMM@Z
pdata	ENDS
;	COMDAT pdata
pdata	SEGMENT
$pdata$?ShowDemoWindow@ImGui@@YAXPEA_N@Z DD imagerel $LN87
	DD	imagerel $LN87+3759
	DD	imagerel $unwind$?ShowDemoWindow@ImGui@@YAXPEA_N@Z
pdata	ENDS
;	COMDAT pdata
pdata	SEGMENT
$pdata$?ShowAboutWindow@ImGui@@YAXPEA_N@Z DD imagerel $LN31
	DD	imagerel $LN31+1616
	DD	imagerel $unwind$?ShowAboutWindow@ImGui@@YAXPEA_N@Z
pdata	ENDS
;	COMDAT pdata
pdata	SEGMENT
$pdata$?ShowStyleEditor@ImGui@@YAXPEAUImGuiStyle@@@Z DD imagerel $LN70
	DD	imagerel $LN70+5937
	DD	imagerel $unwind$?ShowStyleEditor@ImGui@@YAXPEAUImGuiStyle@@@Z
pdata	ENDS
;	COMDAT pdata
pdata	SEGMENT
$pdata$?dtor$0@?0??ShowStyleEditor@ImGui@@YAXPEAUImGuiStyle@@@Z@4HA DD imagerel ?dtor$0@?0??ShowStyleEditor@ImGui@@YAXPEAUImGuiStyle@@@Z@4HA
	DD	imagerel ?dtor$0@?0??ShowStyleEditor@ImGui@@YAXPEAUImGuiStyle@@@Z@4HA+39
	DD	imagerel $unwind$?dtor$0@?0??ShowStyleEditor@ImGui@@YAXPEAUImGuiStyle@@@Z@4HA
pdata	ENDS
;	COMDAT pdata
pdata	SEGMENT
$pdata$?dtor$1@?0??ShowStyleEditor@ImGui@@YAXPEAUImGuiStyle@@@Z@4HA DD imagerel ?dtor$1@?0??ShowStyleEditor@ImGui@@YAXPEAUImGuiStyle@@@Z@4HA
	DD	imagerel ?dtor$1@?0??ShowStyleEditor@ImGui@@YAXPEAUImGuiStyle@@@Z@4HA+39
	DD	imagerel $unwind$?dtor$1@?0??ShowStyleEditor@ImGui@@YAXPEAUImGuiStyle@@@Z@4HA
pdata	ENDS
;	COMDAT pdata
pdata	SEGMENT
$pdata$?ShowStyleSelector@ImGui@@YA_NPEBD@Z DD imagerel $LN9
	DD	imagerel $LN9+163
	DD	imagerel $unwind$?ShowStyleSelector@ImGui@@YA_NPEBD@Z
pdata	ENDS
;	COMDAT pdata
pdata	SEGMENT
$pdata$?ShowFontSelector@ImGui@@YAXPEBD@Z DD imagerel $LN10
	DD	imagerel $LN10+334
	DD	imagerel $unwind$?ShowFontSelector@ImGui@@YAXPEBD@Z
pdata	ENDS
;	COMDAT pdata
pdata	SEGMENT
$pdata$?ShowUserGuide@ImGui@@YAXXZ DD imagerel $LN4
	DD	imagerel $LN4+309
	DD	imagerel $unwind$?ShowUserGuide@ImGui@@YAXXZ
pdata	ENDS
;	COMDAT pdata
pdata	SEGMENT
$pdata$??A?$ImVector@G@@QEAAAEAGH@Z DD imagerel $LN5
	DD	imagerel $LN5+132
	DD	imagerel $unwind$??A?$ImVector@G@@QEAAAEAGH@Z
pdata	ENDS
;	COMDAT pdata
pdata	SEGMENT
$pdata$?SelectAll@ImGuiInputTextCallbackData@@QEAAXXZ DD imagerel $LN3
	DD	imagerel $LN3+84
	DD	imagerel $unwind$?SelectAll@ImGuiInputTextCallbackData@@QEAAXXZ
pdata	ENDS
;	COMDAT pdata
pdata	SEGMENT
$pdata$?IsActive@ImGuiTextFilter@@QEBA_NXZ DD imagerel $LN5
	DD	imagerel $LN5+109
	DD	imagerel $unwind$?IsActive@ImGuiTextFilter@@QEBA_NXZ
pdata	ENDS
;	COMDAT pdata
pdata	SEGMENT
$pdata$??1?$ImVector@UImGuiTextRange@ImGuiTextFilter@@@@QEAA@XZ DD imagerel $LN4
	DD	imagerel $LN4+94
	DD	imagerel $unwind$??1?$ImVector@UImGuiTextRange@ImGuiTextFilter@@@@QEAA@XZ
pdata	ENDS
;	COMDAT pdata
pdata	SEGMENT
$pdata$?empty@?$ImVector@UImGuiTextRange@ImGuiTextFilter@@@@QEBA_NXZ DD imagerel $LN5
	DD	imagerel $LN5+91
	DD	imagerel $unwind$?empty@?$ImVector@UImGuiTextRange@ImGuiTextFilter@@@@QEBA_NXZ
pdata	ENDS
;	COMDAT pdata
pdata	SEGMENT
$pdata$??1ImGuiTextFilter@@QEAA@XZ DD imagerel $LN3
	DD	imagerel $LN3+73
	DD	imagerel $unwind$??1ImGuiTextFilter@@QEAA@XZ
pdata	ENDS
;	COMDAT pdata
pdata	SEGMENT
$pdata$??0?$ImVector@D@@QEAA@XZ DD imagerel $LN3
	DD	imagerel $LN3+99
	DD	imagerel $unwind$??0?$ImVector@D@@QEAA@XZ
pdata	ENDS
;	COMDAT pdata
pdata	SEGMENT
$pdata$??1?$ImVector@D@@QEAA@XZ DD imagerel $LN4
	DD	imagerel $LN4+94
	DD	imagerel $unwind$??1?$ImVector@D@@QEAA@XZ
pdata	ENDS
;	COMDAT pdata
pdata	SEGMENT
$pdata$?clear@?$ImVector@D@@QEAAXXZ DD imagerel $LN4
	DD	imagerel $LN4+124
	DD	imagerel $unwind$?clear@?$ImVector@D@@QEAAXXZ
pdata	ENDS
;	COMDAT pdata
pdata	SEGMENT
$pdata$?empty@?$ImVector@D@@QEBA_NXZ DD imagerel $LN5
	DD	imagerel $LN5+91
	DD	imagerel $unwind$?empty@?$ImVector@D@@QEBA_NXZ
pdata	ENDS
;	COMDAT pdata
pdata	SEGMENT
$pdata$?size@?$ImVector@D@@QEBAHXZ DD imagerel $LN3
	DD	imagerel $LN3+59
	DD	imagerel $unwind$?size@?$ImVector@D@@QEBAHXZ
pdata	ENDS
;	COMDAT pdata
pdata	SEGMENT
$pdata$?capacity@?$ImVector@D@@QEBAHXZ DD imagerel $LN3
	DD	imagerel $LN3+60
	DD	imagerel $unwind$?capacity@?$ImVector@D@@QEBAHXZ
pdata	ENDS
;	COMDAT pdata
pdata	SEGMENT
$pdata$?begin@?$ImVector@D@@QEAAPEADXZ DD imagerel $LN3
	DD	imagerel $LN3+61
	DD	imagerel $unwind$?begin@?$ImVector@D@@QEAAPEADXZ
pdata	ENDS
;	COMDAT pdata
pdata	SEGMENT
$pdata$?front@?$ImVector@D@@QEBAAEBDXZ DD imagerel $LN4
	DD	imagerel $LN4+112
	DD	imagerel $unwind$?front@?$ImVector@D@@QEBAAEBDXZ
pdata	ENDS
;	COMDAT pdata
pdata	SEGMENT
$pdata$?back@?$ImVector@D@@QEBAAEBDXZ DD imagerel $LN4
	DD	imagerel $LN4+122
	DD	imagerel $unwind$?back@?$ImVector@D@@QEBAAEBDXZ
pdata	ENDS
;	COMDAT pdata
pdata	SEGMENT
$pdata$?_grow_capacity@?$ImVector@D@@QEBAHH@Z DD imagerel $LN7
	DD	imagerel $LN7+159
	DD	imagerel $unwind$?_grow_capacity@?$ImVector@D@@QEBAHH@Z
pdata	ENDS
;	COMDAT pdata
pdata	SEGMENT
$pdata$?resize@?$ImVector@D@@QEAAXH@Z DD imagerel $LN4
	DD	imagerel $LN4+121
	DD	imagerel $unwind$?resize@?$ImVector@D@@QEAAXH@Z
pdata	ENDS
;	COMDAT pdata
pdata	SEGMENT
$pdata$?reserve@?$ImVector@D@@QEAAXH@Z DD imagerel $LN5
	DD	imagerel $LN5+189
	DD	imagerel $unwind$?reserve@?$ImVector@D@@QEAAXH@Z
pdata	ENDS
;	COMDAT pdata
pdata	SEGMENT
$pdata$?push_back@?$ImVector@D@@QEAAXAEBD@Z DD imagerel $LN4
	DD	imagerel $LN4+185
	DD	imagerel $unwind$?push_back@?$ImVector@D@@QEAAXAEBD@Z
pdata	ENDS
;	COMDAT pdata
pdata	SEGMENT
$pdata$??0ImGuiTextBuffer@@QEAA@XZ DD imagerel $LN4
	DD	imagerel $LN4+74
	DD	imagerel $unwind$??0ImGuiTextBuffer@@QEAA@XZ
pdata	ENDS
;	COMDAT pdata
pdata	SEGMENT
$pdata$??AImGuiTextBuffer@@QEBADH@Z DD imagerel $LN4
	DD	imagerel $LN4+120
	DD	imagerel $unwind$??AImGuiTextBuffer@@QEBADH@Z
pdata	ENDS
;	COMDAT pdata
pdata	SEGMENT
$pdata$?begin@ImGuiTextBuffer@@QEBAPEBDXZ DD imagerel $LN5
	DD	imagerel $LN5+111
	DD	imagerel $unwind$?begin@ImGuiTextBuffer@@QEBAPEBDXZ
pdata	ENDS
;	COMDAT pdata
pdata	SEGMENT
$pdata$?end@ImGuiTextBuffer@@QEBAPEBDXZ DD imagerel $LN5
	DD	imagerel $LN5+111
	DD	imagerel $unwind$?end@ImGuiTextBuffer@@QEBAPEBDXZ
pdata	ENDS
;	COMDAT pdata
pdata	SEGMENT
$pdata$?size@ImGuiTextBuffer@@QEBAHXZ DD imagerel $LN5
	DD	imagerel $LN5+97
	DD	imagerel $unwind$?size@ImGuiTextBuffer@@QEBAHXZ
pdata	ENDS
;	COMDAT pdata
pdata	SEGMENT
$pdata$?clear@ImGuiTextBuffer@@QEAAXXZ DD imagerel $LN3
	DD	imagerel $LN3+67
	DD	imagerel $unwind$?clear@ImGuiTextBuffer@@QEAAXXZ
pdata	ENDS
;	COMDAT pdata
pdata	SEGMENT
$pdata$??1ImGuiTextBuffer@@QEAA@XZ DD imagerel $LN3
	DD	imagerel $LN3+67
	DD	imagerel $unwind$??1ImGuiTextBuffer@@QEAA@XZ
pdata	ENDS
;	COMDAT pdata
pdata	SEGMENT
$pdata$??0ImColor@@QEAA@MMMM@Z DD imagerel $LN3
	DD	imagerel $LN3+130
	DD	imagerel $unwind$??0ImColor@@QEAA@MMMM@Z
pdata	ENDS
;	COMDAT pdata
pdata	SEGMENT
$pdata$??0ImColor@@QEAA@AEBUImVec4@@@Z DD imagerel $LN3
	DD	imagerel $LN3+85
	DD	imagerel $unwind$??0ImColor@@QEAA@AEBUImVec4@@@Z
pdata	ENDS
;	COMDAT pdata
pdata	SEGMENT
$pdata$??BImColor@@QEBAIXZ DD imagerel $LN3
	DD	imagerel $LN3+67
	DD	imagerel $unwind$??BImColor@@QEBAIXZ
pdata	ENDS
;	COMDAT pdata
pdata	SEGMENT
$pdata$??BImColor@@QEBA?AUImVec4@@XZ DD imagerel $LN3
	DD	imagerel $LN3+85
	DD	imagerel $unwind$??BImColor@@QEBA?AUImVec4@@XZ
pdata	ENDS
;	COMDAT pdata
pdata	SEGMENT
$pdata$?HSV@ImColor@@SA?AU1@MMMM@Z DD imagerel $LN3
	DD	imagerel $LN3+223
	DD	imagerel $unwind$?HSV@ImColor@@SA?AU1@MMMM@Z
pdata	ENDS
;	COMDAT pdata
pdata	SEGMENT
$pdata$??0?$ImVector@UImVec2@@@@QEAA@XZ DD imagerel $LN3
	DD	imagerel $LN3+99
	DD	imagerel $unwind$??0?$ImVector@UImVec2@@@@QEAA@XZ
pdata	ENDS
;	COMDAT pdata
pdata	SEGMENT
$pdata$??1?$ImVector@UImVec2@@@@QEAA@XZ DD imagerel $LN4
	DD	imagerel $LN4+94
	DD	imagerel $unwind$??1?$ImVector@UImVec2@@@@QEAA@XZ
pdata	ENDS
;	COMDAT pdata
pdata	SEGMENT
$pdata$?clear@?$ImVector@UImVec2@@@@QEAAXXZ DD imagerel $LN4
	DD	imagerel $LN4+124
	DD	imagerel $unwind$?clear@?$ImVector@UImVec2@@@@QEAAXXZ
pdata	ENDS
;	COMDAT pdata
pdata	SEGMENT
$pdata$?size@?$ImVector@UImVec2@@@@QEBAHXZ DD imagerel $LN3
	DD	imagerel $LN3+59
	DD	imagerel $unwind$?size@?$ImVector@UImVec2@@@@QEBAHXZ
pdata	ENDS
;	COMDAT pdata
pdata	SEGMENT
$pdata$??A?$ImVector@UImVec2@@@@QEAAAEAUImVec2@@H@Z DD imagerel $LN5
	DD	imagerel $LN5+132
	DD	imagerel $unwind$??A?$ImVector@UImVec2@@@@QEAAAEAUImVec2@@H@Z
pdata	ENDS
;	COMDAT pdata
pdata	SEGMENT
$pdata$?back@?$ImVector@UImVec2@@@@QEAAAEAUImVec2@@XZ DD imagerel $LN4
	DD	imagerel $LN4+120
	DD	imagerel $unwind$?back@?$ImVector@UImVec2@@@@QEAAAEAUImVec2@@XZ
pdata	ENDS
;	COMDAT pdata
pdata	SEGMENT
$pdata$?_grow_capacity@?$ImVector@UImVec2@@@@QEBAHH@Z DD imagerel $LN7
	DD	imagerel $LN7+159
	DD	imagerel $unwind$?_grow_capacity@?$ImVector@UImVec2@@@@QEBAHH@Z
pdata	ENDS
;	COMDAT pdata
pdata	SEGMENT
$pdata$?resize@?$ImVector@UImVec2@@@@QEAAXH@Z DD imagerel $LN4
	DD	imagerel $LN4+121
	DD	imagerel $unwind$?resize@?$ImVector@UImVec2@@@@QEAAXH@Z
pdata	ENDS
;	COMDAT pdata
pdata	SEGMENT
$pdata$?reserve@?$ImVector@UImVec2@@@@QEAAXH@Z DD imagerel $LN5
	DD	imagerel $LN5+197
	DD	imagerel $unwind$?reserve@?$ImVector@UImVec2@@@@QEAAXH@Z
pdata	ENDS
;	COMDAT pdata
pdata	SEGMENT
$pdata$?push_back@?$ImVector@UImVec2@@@@QEAAXAEBUImVec2@@@Z DD imagerel $LN4
	DD	imagerel $LN4+183
	DD	imagerel $unwind$?push_back@?$ImVector@UImVec2@@@@QEAAXAEBUImVec2@@@Z
pdata	ENDS
;	COMDAT pdata
pdata	SEGMENT
$pdata$??A?$ImVector@PEAUImFont@@@@QEAAAEAPEAUImFont@@H@Z DD imagerel $LN5
	DD	imagerel $LN5+132
	DD	imagerel $unwind$??A?$ImVector@PEAUImFont@@@@QEAAAEAPEAUImFont@@H@Z
pdata	ENDS
;	COMDAT pdata
pdata	SEGMENT
$pdata$?GetDebugName@ImFont@@QEBAPEBDXZ DD imagerel $LN5
	DD	imagerel $LN5+109
	DD	imagerel $unwind$?GetDebugName@ImFont@@QEBAPEBDXZ
pdata	ENDS
;	COMDAT pdata
pdata	SEGMENT
$pdata$?GetCenter@ImGuiViewport@@QEBA?AUImVec2@@XZ DD imagerel $LN3
	DD	imagerel $LN3+157
	DD	imagerel $unwind$?GetCenter@ImGuiViewport@@QEBA?AUImVec2@@XZ
pdata	ENDS
;	COMDAT pdata
pdata	SEGMENT
$pdata$__local_stdio_printf_options DD imagerel $LN3
	DD	imagerel $LN3+45
	DD	imagerel $unwind$__local_stdio_printf_options
pdata	ENDS
;	COMDAT pdata
pdata	SEGMENT
$pdata$??$__vcrt_va_start_verify_argument_type@QEBD@@YAXXZ DD imagerel $LN3
	DD	imagerel $LN3+38
	DD	imagerel $unwind$??$__vcrt_va_start_verify_argument_type@QEBD@@YAXXZ
pdata	ENDS
;	COMDAT pdata
pdata	SEGMENT
$pdata$_vsnprintf_l DD imagerel $LN5
	DD	imagerel $LN5+169
	DD	imagerel $unwind$_vsnprintf_l
pdata	ENDS
;	COMDAT pdata
pdata	SEGMENT
$pdata$_vsnprintf DD imagerel $LN3
	DD	imagerel $LN3+108
	DD	imagerel $unwind$_vsnprintf
pdata	ENDS
;	COMDAT pdata
pdata	SEGMENT
$pdata$_vsprintf_l DD imagerel $LN3
	DD	imagerel $LN3+112
	DD	imagerel $unwind$_vsprintf_l
pdata	ENDS
;	COMDAT pdata
pdata	SEGMENT
$pdata$sprintf DD imagerel $LN3
	DD	imagerel $LN3+175
	DD	imagerel $unwind$sprintf
pdata	ENDS
;	COMDAT pdata
pdata	SEGMENT
$pdata$_snprintf DD imagerel $LN3
	DD	imagerel $LN3+179
	DD	imagerel $unwind$_snprintf
pdata	ENDS
;	COMDAT pdata
pdata	SEGMENT
$pdata$?ShowExampleAppDocuments@@YAXPEA_N@Z DD imagerel ?ShowExampleAppDocuments@@YAXPEA_N@Z
	DD	imagerel ?ShowExampleAppDocuments@@YAXPEA_N@Z+2436
	DD	imagerel $unwind$?ShowExampleAppDocuments@@YAXPEA_N@Z
pdata	ENDS
;	COMDAT pdata
pdata	SEGMENT
$pdata$?dtor$0@?0??ShowExampleAppDocuments@@YAXPEA_N@Z@4HA DD imagerel ?dtor$0@?0??ShowExampleAppDocuments@@YAXPEA_N@Z@4HA
	DD	imagerel ?dtor$0@?0??ShowExampleAppDocuments@@YAXPEA_N@Z@4HA+39
	DD	imagerel $unwind$?dtor$0@?0??ShowExampleAppDocuments@@YAXPEA_N@Z@4HA
pdata	ENDS
;	COMDAT pdata
pdata	SEGMENT
$pdata$?dtor$1@?0??ShowExampleAppDocuments@@YAXPEA_N@Z@4HA DD imagerel ?dtor$1@?0??ShowExampleAppDocuments@@YAXPEA_N@Z@4HA
	DD	imagerel ?dtor$1@?0??ShowExampleAppDocuments@@YAXPEA_N@Z@4HA+39
	DD	imagerel $unwind$?dtor$1@?0??ShowExampleAppDocuments@@YAXPEA_N@Z@4HA
pdata	ENDS
;	COMDAT pdata
pdata	SEGMENT
$pdata$?ShowExampleAppMainMenuBar@@YAXXZ DD imagerel ?ShowExampleAppMainMenuBar@@YAXXZ
	DD	imagerel ?ShowExampleAppMainMenuBar@@YAXXZ+267
	DD	imagerel $unwind$?ShowExampleAppMainMenuBar@@YAXXZ
pdata	ENDS
;	COMDAT pdata
pdata	SEGMENT
$pdata$?ShowExampleAppConsole@@YAXPEA_N@Z DD imagerel ?ShowExampleAppConsole@@YAXPEA_N@Z
	DD	imagerel ?ShowExampleAppConsole@@YAXPEA_N@Z+184
	DD	imagerel $unwind$?ShowExampleAppConsole@@YAXPEA_N@Z
pdata	ENDS
;	COMDAT pdata
pdata	SEGMENT
$pdata$?dtor$0@?0??ShowExampleAppConsole@@YAXPEA_N@Z@4HA DD imagerel ?dtor$0@?0??ShowExampleAppConsole@@YAXPEA_N@Z@4HA
	DD	imagerel ?dtor$0@?0??ShowExampleAppConsole@@YAXPEA_N@Z@4HA+39
	DD	imagerel $unwind$?dtor$0@?0??ShowExampleAppConsole@@YAXPEA_N@Z@4HA
pdata	ENDS
;	COMDAT pdata
pdata	SEGMENT
$pdata$?ShowExampleAppLog@@YAXPEA_N@Z DD imagerel ?ShowExampleAppLog@@YAXPEA_N@Z
	DD	imagerel ?ShowExampleAppLog@@YAXPEA_N@Z+646
	DD	imagerel $unwind$?ShowExampleAppLog@@YAXPEA_N@Z
pdata	ENDS
;	COMDAT pdata
pdata	SEGMENT
$pdata$?dtor$0@?0??ShowExampleAppLog@@YAXPEA_N@Z@4HA DD imagerel ?dtor$0@?0??ShowExampleAppLog@@YAXPEA_N@Z@4HA
	DD	imagerel ?dtor$0@?0??ShowExampleAppLog@@YAXPEA_N@Z@4HA+39
	DD	imagerel $unwind$?dtor$0@?0??ShowExampleAppLog@@YAXPEA_N@Z@4HA
pdata	ENDS
;	COMDAT pdata
pdata	SEGMENT
$pdata$?ShowExampleAppLayout@@YAXPEA_N@Z DD imagerel ?ShowExampleAppLayout@@YAXPEA_N@Z
	DD	imagerel ?ShowExampleAppLayout@@YAXPEA_N@Z+799
	DD	imagerel $unwind$?ShowExampleAppLayout@@YAXPEA_N@Z
pdata	ENDS
;	COMDAT pdata
pdata	SEGMENT
$pdata$?ShowExampleAppPropertyEditor@@YAXPEA_N@Z DD imagerel ?ShowExampleAppPropertyEditor@@YAXPEA_N@Z
	DD	imagerel ?ShowExampleAppPropertyEditor@@YAXPEA_N@Z+359
	DD	imagerel $unwind$?ShowExampleAppPropertyEditor@@YAXPEA_N@Z
pdata	ENDS
;	COMDAT pdata
pdata	SEGMENT
$pdata$?ShowExampleAppLongText@@YAXPEA_N@Z DD imagerel ?ShowExampleAppLongText@@YAXPEA_N@Z
	DD	imagerel ?ShowExampleAppLongText@@YAXPEA_N@Z+1022
	DD	imagerel $unwind$?ShowExampleAppLongText@@YAXPEA_N@Z
pdata	ENDS
;	COMDAT pdata
pdata	SEGMENT
$pdata$?dtor$0@?0??ShowExampleAppLongText@@YAXPEA_N@Z@4HA DD imagerel ?dtor$0@?0??ShowExampleAppLongText@@YAXPEA_N@Z@4HA
	DD	imagerel ?dtor$0@?0??ShowExampleAppLongText@@YAXPEA_N@Z@4HA+39
	DD	imagerel $unwind$?dtor$0@?0??ShowExampleAppLongText@@YAXPEA_N@Z@4HA
pdata	ENDS
;	COMDAT pdata
pdata	SEGMENT
$pdata$?dtor$1@?0??ShowExampleAppLongText@@YAXPEA_N@Z@4HA DD imagerel ?dtor$1@?0??ShowExampleAppLongText@@YAXPEA_N@Z@4HA
	DD	imagerel ?dtor$1@?0??ShowExampleAppLongText@@YAXPEA_N@Z@4HA+36
	DD	imagerel $unwind$?dtor$1@?0??ShowExampleAppLongText@@YAXPEA_N@Z@4HA
pdata	ENDS
;	COMDAT pdata
pdata	SEGMENT
$pdata$?ShowExampleAppAutoResize@@YAXPEA_N@Z DD imagerel ?ShowExampleAppAutoResize@@YAXPEA_N@Z
	DD	imagerel ?ShowExampleAppAutoResize@@YAXPEA_N@Z+279
	DD	imagerel $unwind$?ShowExampleAppAutoResize@@YAXPEA_N@Z
pdata	ENDS
;	COMDAT pdata
pdata	SEGMENT
$pdata$?ShowExampleAppConstrainedResize@@YAXPEA_N@Z DD imagerel ?ShowExampleAppConstrainedResize@@YAXPEA_N@Z
	DD	imagerel ?ShowExampleAppConstrainedResize@@YAXPEA_N@Z+1921
	DD	imagerel $unwind$?ShowExampleAppConstrainedResize@@YAXPEA_N@Z
pdata	ENDS
;	COMDAT pdata
pdata	SEGMENT
$pdata$?ShowExampleAppSimpleOverlay@@YAXPEA_N@Z DD imagerel ?ShowExampleAppSimpleOverlay@@YAXPEA_N@Z
	DD	imagerel ?ShowExampleAppSimpleOverlay@@YAXPEA_N@Z+1303
	DD	imagerel $unwind$?ShowExampleAppSimpleOverlay@@YAXPEA_N@Z
pdata	ENDS
;	COMDAT pdata
pdata	SEGMENT
$pdata$?ShowExampleAppFullscreen@@YAXPEA_N@Z DD imagerel ?ShowExampleAppFullscreen@@YAXPEA_N@Z
	DD	imagerel ?ShowExampleAppFullscreen@@YAXPEA_N@Z+514
	DD	imagerel $unwind$?ShowExampleAppFullscreen@@YAXPEA_N@Z
pdata	ENDS
;	COMDAT pdata
pdata	SEGMENT
$pdata$?ShowExampleAppWindowTitles@@YAXPEA_N@Z DD imagerel ?ShowExampleAppWindowTitles@@YAXPEA_N@Z
	DD	imagerel ?ShowExampleAppWindowTitles@@YAXPEA_N@Z+613
	DD	imagerel $unwind$?ShowExampleAppWindowTitles@@YAXPEA_N@Z
pdata	ENDS
;	COMDAT pdata
pdata	SEGMENT
$pdata$?ShowExampleAppCustomRendering@@YAXPEA_N@Z DD imagerel ?ShowExampleAppCustomRendering@@YAXPEA_N@Z
	DD	imagerel ?ShowExampleAppCustomRendering@@YAXPEA_N@Z+8417
	DD	imagerel $unwind$?ShowExampleAppCustomRendering@@YAXPEA_N@Z
pdata	ENDS
;	COMDAT pdata
pdata	SEGMENT
$pdata$?dtor$0@?0??ShowExampleAppCustomRendering@@YAXPEA_N@Z@4HA DD imagerel ?dtor$0@?0??ShowExampleAppCustomRendering@@YAXPEA_N@Z@4HA
	DD	imagerel ?dtor$0@?0??ShowExampleAppCustomRendering@@YAXPEA_N@Z@4HA+39
	DD	imagerel $unwind$?dtor$0@?0??ShowExampleAppCustomRendering@@YAXPEA_N@Z@4HA
pdata	ENDS
;	COMDAT pdata
pdata	SEGMENT
$pdata$?dtor$1@?0??ShowExampleAppCustomRendering@@YAXPEA_N@Z@4HA DD imagerel ?dtor$1@?0??ShowExampleAppCustomRendering@@YAXPEA_N@Z@4HA
	DD	imagerel ?dtor$1@?0??ShowExampleAppCustomRendering@@YAXPEA_N@Z@4HA+39
	DD	imagerel $unwind$?dtor$1@?0??ShowExampleAppCustomRendering@@YAXPEA_N@Z@4HA
pdata	ENDS
;	COMDAT pdata
pdata	SEGMENT
$pdata$?dtor$2@?0??ShowExampleAppCustomRendering@@YAXPEA_N@Z@4HA DD imagerel ?dtor$2@?0??ShowExampleAppCustomRendering@@YAXPEA_N@Z@4HA
	DD	imagerel ?dtor$2@?0??ShowExampleAppCustomRendering@@YAXPEA_N@Z@4HA+39
	DD	imagerel $unwind$?dtor$2@?0??ShowExampleAppCustomRendering@@YAXPEA_N@Z@4HA
pdata	ENDS
;	COMDAT pdata
pdata	SEGMENT
$pdata$?ShowExampleMenuFile@@YAXXZ DD imagerel ?ShowExampleMenuFile@@YAXXZ
	DD	imagerel ?ShowExampleMenuFile@@YAXXZ+1339
	DD	imagerel $unwind$?ShowExampleMenuFile@@YAXXZ
pdata	ENDS
;	COMDAT pdata
pdata	SEGMENT
$pdata$?ShowDemoWindowWidgets@@YAXXZ DD imagerel ?ShowDemoWindowWidgets@@YAXXZ
	DD	imagerel ?ShowDemoWindowWidgets@@YAXXZ+36871
	DD	imagerel $unwind$?ShowDemoWindowWidgets@@YAXXZ
pdata	ENDS
;	COMDAT pdata
pdata	SEGMENT
$pdata$?dtor$0@?0??ShowDemoWindowWidgets@@YAXXZ@4HA DD imagerel ?dtor$0@?0??ShowDemoWindowWidgets@@YAXXZ@4HA
	DD	imagerel ?dtor$0@?0??ShowDemoWindowWidgets@@YAXXZ@4HA+42
	DD	imagerel $unwind$?dtor$0@?0??ShowDemoWindowWidgets@@YAXXZ@4HA
pdata	ENDS
;	COMDAT pdata
pdata	SEGMENT
$pdata$?dtor$1@?0??ShowDemoWindowWidgets@@YAXXZ@4HA DD imagerel ?dtor$1@?0??ShowDemoWindowWidgets@@YAXXZ@4HA
	DD	imagerel ?dtor$1@?0??ShowDemoWindowWidgets@@YAXXZ@4HA+42
	DD	imagerel $unwind$?dtor$1@?0??ShowDemoWindowWidgets@@YAXXZ@4HA
pdata	ENDS
;	COMDAT pdata
pdata	SEGMENT
$pdata$?dtor$2@?0??ShowDemoWindowWidgets@@YAXXZ@4HA DD imagerel ?dtor$2@?0??ShowDemoWindowWidgets@@YAXXZ@4HA
	DD	imagerel ?dtor$2@?0??ShowDemoWindowWidgets@@YAXXZ@4HA+42
	DD	imagerel $unwind$?dtor$2@?0??ShowDemoWindowWidgets@@YAXXZ@4HA
pdata	ENDS
;	COMDAT pdata
pdata	SEGMENT
$pdata$?dtor$3@?0??ShowDemoWindowWidgets@@YAXXZ@4HA DD imagerel ?dtor$3@?0??ShowDemoWindowWidgets@@YAXXZ@4HA
	DD	imagerel ?dtor$3@?0??ShowDemoWindowWidgets@@YAXXZ@4HA+42
	DD	imagerel $unwind$?dtor$3@?0??ShowDemoWindowWidgets@@YAXXZ@4HA
pdata	ENDS
;	COMDAT pdata
pdata	SEGMENT
$pdata$?dtor$4@?0??ShowDemoWindowWidgets@@YAXXZ@4HA DD imagerel ?dtor$4@?0??ShowDemoWindowWidgets@@YAXXZ@4HA
	DD	imagerel ?dtor$4@?0??ShowDemoWindowWidgets@@YAXXZ@4HA+42
	DD	imagerel $unwind$?dtor$4@?0??ShowDemoWindowWidgets@@YAXXZ@4HA
pdata	ENDS
;	COMDAT pdata
pdata	SEGMENT
$pdata$?dtor$5@?0??ShowDemoWindowWidgets@@YAXXZ@4HA DD imagerel ?dtor$5@?0??ShowDemoWindowWidgets@@YAXXZ@4HA
	DD	imagerel ?dtor$5@?0??ShowDemoWindowWidgets@@YAXXZ@4HA+42
	DD	imagerel $unwind$?dtor$5@?0??ShowDemoWindowWidgets@@YAXXZ@4HA
pdata	ENDS
;	COMDAT pdata
pdata	SEGMENT
$pdata$?dtor$6@?0??ShowDemoWindowWidgets@@YAXXZ@4HA DD imagerel ?dtor$6@?0??ShowDemoWindowWidgets@@YAXXZ@4HA
	DD	imagerel ?dtor$6@?0??ShowDemoWindowWidgets@@YAXXZ@4HA+42
	DD	imagerel $unwind$?dtor$6@?0??ShowDemoWindowWidgets@@YAXXZ@4HA
pdata	ENDS
;	COMDAT pdata
pdata	SEGMENT
$pdata$?ShowDemoWindowLayout@@YAXXZ DD imagerel ?ShowDemoWindowLayout@@YAXXZ
	DD	imagerel ?ShowDemoWindowLayout@@YAXXZ+13188
	DD	imagerel $unwind$?ShowDemoWindowLayout@@YAXXZ
pdata	ENDS
;	COMDAT pdata
pdata	SEGMENT
$pdata$?dtor$0@?0??ShowDemoWindowLayout@@YAXXZ@4HA DD imagerel ?dtor$0@?0??ShowDemoWindowLayout@@YAXXZ@4HA
	DD	imagerel ?dtor$0@?0??ShowDemoWindowLayout@@YAXXZ@4HA+39
	DD	imagerel $unwind$?dtor$0@?0??ShowDemoWindowLayout@@YAXXZ@4HA
pdata	ENDS
;	COMDAT pdata
pdata	SEGMENT
$pdata$?dtor$1@?0??ShowDemoWindowLayout@@YAXXZ@4HA DD imagerel ?dtor$1@?0??ShowDemoWindowLayout@@YAXXZ@4HA
	DD	imagerel ?dtor$1@?0??ShowDemoWindowLayout@@YAXXZ@4HA+39
	DD	imagerel $unwind$?dtor$1@?0??ShowDemoWindowLayout@@YAXXZ@4HA
pdata	ENDS
;	COMDAT pdata
pdata	SEGMENT
$pdata$?ShowDemoWindowPopups@@YAXXZ DD imagerel ?ShowDemoWindowPopups@@YAXXZ
	DD	imagerel ?ShowDemoWindowPopups@@YAXXZ+3387
	DD	imagerel $unwind$?ShowDemoWindowPopups@@YAXXZ
pdata	ENDS
;	COMDAT pdata
pdata	SEGMENT
$pdata$?ShowDemoWindowTables@@YAXXZ DD imagerel ?ShowDemoWindowTables@@YAXXZ
	DD	imagerel ?ShowDemoWindowTables@@YAXXZ+23228
	DD	imagerel $unwind$?ShowDemoWindowTables@@YAXXZ
pdata	ENDS
;	COMDAT pdata
pdata	SEGMENT
$pdata$?dtor$0@?0??ShowDemoWindowTables@@YAXXZ@4HA DD imagerel ?dtor$0@?0??ShowDemoWindowTables@@YAXXZ@4HA
	DD	imagerel ?dtor$0@?0??ShowDemoWindowTables@@YAXXZ@4HA+39
	DD	imagerel $unwind$?dtor$0@?0??ShowDemoWindowTables@@YAXXZ@4HA
pdata	ENDS
;	COMDAT pdata
pdata	SEGMENT
$pdata$?dtor$1@?0??ShowDemoWindowTables@@YAXXZ@4HA DD imagerel ?dtor$1@?0??ShowDemoWindowTables@@YAXXZ@4HA
	DD	imagerel ?dtor$1@?0??ShowDemoWindowTables@@YAXXZ@4HA+39
	DD	imagerel $unwind$?dtor$1@?0??ShowDemoWindowTables@@YAXXZ@4HA
pdata	ENDS
;	COMDAT pdata
pdata	SEGMENT
$pdata$?dtor$2@?0??ShowDemoWindowTables@@YAXXZ@4HA DD imagerel ?dtor$2@?0??ShowDemoWindowTables@@YAXXZ@4HA
	DD	imagerel ?dtor$2@?0??ShowDemoWindowTables@@YAXXZ@4HA+39
	DD	imagerel $unwind$?dtor$2@?0??ShowDemoWindowTables@@YAXXZ@4HA
pdata	ENDS
;	COMDAT pdata
pdata	SEGMENT
$pdata$?dtor$3@?0??ShowDemoWindowTables@@YAXXZ@4HA DD imagerel ?dtor$3@?0??ShowDemoWindowTables@@YAXXZ@4HA
	DD	imagerel ?dtor$3@?0??ShowDemoWindowTables@@YAXXZ@4HA+39
	DD	imagerel $unwind$?dtor$3@?0??ShowDemoWindowTables@@YAXXZ@4HA
pdata	ENDS
;	COMDAT pdata
pdata	SEGMENT
$pdata$?dtor$4@?0??ShowDemoWindowTables@@YAXXZ@4HA DD imagerel ?dtor$4@?0??ShowDemoWindowTables@@YAXXZ@4HA
	DD	imagerel ?dtor$4@?0??ShowDemoWindowTables@@YAXXZ@4HA+39
	DD	imagerel $unwind$?dtor$4@?0??ShowDemoWindowTables@@YAXXZ@4HA
pdata	ENDS
;	COMDAT pdata
pdata	SEGMENT
$pdata$?dtor$5@?0??ShowDemoWindowTables@@YAXXZ@4HA DD imagerel ?dtor$5@?0??ShowDemoWindowTables@@YAXXZ@4HA
	DD	imagerel ?dtor$5@?0??ShowDemoWindowTables@@YAXXZ@4HA+39
	DD	imagerel $unwind$?dtor$5@?0??ShowDemoWindowTables@@YAXXZ@4HA
pdata	ENDS
;	COMDAT pdata
pdata	SEGMENT
$pdata$?dtor$6@?0??ShowDemoWindowTables@@YAXXZ@4HA DD imagerel ?dtor$6@?0??ShowDemoWindowTables@@YAXXZ@4HA
	DD	imagerel ?dtor$6@?0??ShowDemoWindowTables@@YAXXZ@4HA+39
	DD	imagerel $unwind$?dtor$6@?0??ShowDemoWindowTables@@YAXXZ@4HA
pdata	ENDS
;	COMDAT pdata
pdata	SEGMENT
$pdata$?dtor$7@?0??ShowDemoWindowTables@@YAXXZ@4HA DD imagerel ?dtor$7@?0??ShowDemoWindowTables@@YAXXZ@4HA
	DD	imagerel ?dtor$7@?0??ShowDemoWindowTables@@YAXXZ@4HA+39
	DD	imagerel $unwind$?dtor$7@?0??ShowDemoWindowTables@@YAXXZ@4HA
pdata	ENDS
;	COMDAT pdata
pdata	SEGMENT
$pdata$?ShowDemoWindowColumns@@YAXXZ DD imagerel ?ShowDemoWindowColumns@@YAXXZ
	DD	imagerel ?ShowDemoWindowColumns@@YAXXZ+3012
	DD	imagerel $unwind$?ShowDemoWindowColumns@@YAXXZ
pdata	ENDS
;	COMDAT pdata
pdata	SEGMENT
$pdata$?dtor$0@?0??ShowDemoWindowColumns@@YAXXZ@4HA DD imagerel ?dtor$0@?0??ShowDemoWindowColumns@@YAXXZ@4HA
	DD	imagerel ?dtor$0@?0??ShowDemoWindowColumns@@YAXXZ@4HA+39
	DD	imagerel $unwind$?dtor$0@?0??ShowDemoWindowColumns@@YAXXZ@4HA
pdata	ENDS
;	COMDAT pdata
pdata	SEGMENT
$pdata$?ShowDemoWindowInputs@@YAXXZ DD imagerel ?ShowDemoWindowInputs@@YAXXZ
	DD	imagerel ?ShowDemoWindowInputs@@YAXXZ+4301
	DD	imagerel $unwind$?ShowDemoWindowInputs@@YAXXZ
pdata	ENDS
;	COMDAT pdata
pdata	SEGMENT
$pdata$?HelpMarker@@YAXPEBD@Z DD imagerel ?HelpMarker@@YAXPEBD@Z
	DD	imagerel ?HelpMarker@@YAXPEBD@Z+128
	DD	imagerel $unwind$?HelpMarker@@YAXPEBD@Z
pdata	ENDS
;	COMDAT pdata
pdata	SEGMENT
$pdata$?ItemGetter@Funcs@?BAP@??ShowDemoWindowWidgets@@YAXXZ@SA_NPEAXHPEAPEBD@Z DD imagerel ?ItemGetter@Funcs@?BAP@??ShowDemoWindowWidgets@@YAXXZ@SA_NPEAXHPEAPEBD@Z
	DD	imagerel ?ItemGetter@Funcs@?BAP@??ShowDemoWindowWidgets@@YAXXZ@SA_NPEAXHPEAPEBD@Z+89
	DD	imagerel $unwind$?ItemGetter@Funcs@?BAP@??ShowDemoWindowWidgets@@YAXXZ@SA_NPEAXHPEAPEBD@Z
pdata	ENDS
;	COMDAT pdata
pdata	SEGMENT
$pdata$?FilterImGuiLetters@TextFilters@?BLJ@??ShowDemoWindowWidgets@@YAXXZ@SAHPEAUImGuiInputTextCallbackData@@@Z DD imagerel ?FilterImGuiLetters@TextFilters@?BLJ@??ShowDemoWindowWidgets@@YAXXZ@SAHPEAUImGuiInputTextCallbackData@@@Z
	DD	imagerel ?FilterImGuiLetters@TextFilters@?BLJ@??ShowDemoWindowWidgets@@YAXXZ@SAHPEAUImGuiInputTextCallbackData@@@Z+110
	DD	imagerel $unwind$?FilterImGuiLetters@TextFilters@?BLJ@??ShowDemoWindowWidgets@@YAXXZ@SAHPEAUImGuiInputTextCallbackData@@@Z
pdata	ENDS
;	COMDAT pdata
pdata	SEGMENT
$pdata$?MyCallback@Funcs@?BMD@??ShowDemoWindowWidgets@@YAXXZ@SAHPEAUImGuiInputTextCallbackData@@@Z DD imagerel ?MyCallback@Funcs@?BMD@??ShowDemoWindowWidgets@@YAXXZ@SAHPEAUImGuiInputTextCallbackData@@@Z
	DD	imagerel ?MyCallback@Funcs@?BMD@??ShowDemoWindowWidgets@@YAXXZ@SAHPEAUImGuiInputTextCallbackData@@@Z+455
	DD	imagerel $unwind$?MyCallback@Funcs@?BMD@??ShowDemoWindowWidgets@@YAXXZ@SAHPEAUImGuiInputTextCallbackData@@@Z
pdata	ENDS
;	COMDAT pdata
pdata	SEGMENT
$pdata$?MyResizeCallback@Funcs@?BMK@??ShowDemoWindowWidgets@@YAXXZ@SAHPEAUImGuiInputTextCallbackData@@@Z DD imagerel ?MyResizeCallback@Funcs@?BMK@??ShowDemoWindowWidgets@@YAXXZ@SAHPEAUImGuiInputTextCallbackData@@@Z
	DD	imagerel ?MyResizeCallback@Funcs@?BMK@??ShowDemoWindowWidgets@@YAXXZ@SAHPEAUImGuiInputTextCallbackData@@@Z+173
	DD	imagerel $unwind$?MyResizeCallback@Funcs@?BMK@??ShowDemoWindowWidgets@@YAXXZ@SAHPEAUImGuiInputTextCallbackData@@@Z
pdata	ENDS
;	COMDAT pdata
pdata	SEGMENT
$pdata$?MyInputTextMultiline@Funcs@?BMK@??ShowDemoWindowWidgets@@YAXXZ@SA_NPEBDPEAU?$ImVector@D@@AEBUImVec2@@H@Z DD imagerel ?MyInputTextMultiline@Funcs@?BMK@??ShowDemoWindowWidgets@@YAXXZ@SA_NPEBDPEAU?$ImVector@D@@AEBUImVec2@@H@Z
	DD	imagerel ?MyInputTextMultiline@Funcs@?BMK@??ShowDemoWindowWidgets@@YAXXZ@SA_NPEBDPEAU?$ImVector@D@@AEBUImVec2@@H@Z+225
	DD	imagerel $unwind$?MyInputTextMultiline@Funcs@?BMK@??ShowDemoWindowWidgets@@YAXXZ@SA_NPEBDPEAU?$ImVector@D@@AEBUImVec2@@H@Z
pdata	ENDS
;	COMDAT pdata
pdata	SEGMENT
$pdata$??__Fmy_str@?BMK@??ShowDemoWindowWidgets@@YAXXZ@YAXXZ DD imagerel ??__Fmy_str@?BMK@??ShowDemoWindowWidgets@@YAXXZ@YAXXZ
	DD	imagerel ??__Fmy_str@?BMK@??ShowDemoWindowWidgets@@YAXXZ@YAXXZ+52
	DD	imagerel $unwind$??__Fmy_str@?BMK@??ShowDemoWindowWidgets@@YAXXZ@YAXXZ
pdata	ENDS
;	COMDAT pdata
pdata	SEGMENT
$pdata$??0?$ImVector@H@@QEAA@XZ DD imagerel $LN3
	DD	imagerel $LN3+99
	DD	imagerel $unwind$??0?$ImVector@H@@QEAA@XZ
pdata	ENDS
;	COMDAT pdata
pdata	SEGMENT
$pdata$??1?$ImVector@H@@QEAA@XZ DD imagerel $LN4
	DD	imagerel $LN4+94
	DD	imagerel $unwind$??1?$ImVector@H@@QEAA@XZ
pdata	ENDS
;	COMDAT pdata
pdata	SEGMENT
$pdata$?clear@?$ImVector@H@@QEAAXXZ DD imagerel $LN4
	DD	imagerel $LN4+124
	DD	imagerel $unwind$?clear@?$ImVector@H@@QEAAXXZ
pdata	ENDS
;	COMDAT pdata
pdata	SEGMENT
$pdata$??A?$ImVector@H@@QEAAAEAHH@Z DD imagerel $LN5
	DD	imagerel $LN5+132
	DD	imagerel $unwind$??A?$ImVector@H@@QEAAAEAHH@Z
pdata	ENDS
;	COMDAT pdata
pdata	SEGMENT
$pdata$?_grow_capacity@?$ImVector@H@@QEBAHH@Z DD imagerel $LN7
	DD	imagerel $LN7+159
	DD	imagerel $unwind$?_grow_capacity@?$ImVector@H@@QEBAHH@Z
pdata	ENDS
;	COMDAT pdata
pdata	SEGMENT
$pdata$?reserve@?$ImVector@H@@QEAAXH@Z DD imagerel $LN5
	DD	imagerel $LN5+197
	DD	imagerel $unwind$?reserve@?$ImVector@H@@QEAAXH@Z
pdata	ENDS
;	COMDAT pdata
pdata	SEGMENT
$pdata$?push_back@?$ImVector@H@@QEAAXAEBH@Z DD imagerel $LN4
	DD	imagerel $LN4+183
	DD	imagerel $unwind$?push_back@?$ImVector@H@@QEAAXAEBH@Z
pdata	ENDS
;	COMDAT pdata
pdata	SEGMENT
$pdata$?erase@?$ImVector@H@@QEAAPEAHPEBH@Z DD imagerel $LN5
	DD	imagerel $LN5+300
	DD	imagerel $unwind$?erase@?$ImVector@H@@QEAAPEAHPEBH@Z
pdata	ENDS
;	COMDAT pdata
pdata	SEGMENT
$pdata$?erase_unsorted@?$ImVector@H@@QEAAPEAHPEBH@Z DD imagerel $LN6
	DD	imagerel $LN6+304
	DD	imagerel $unwind$?erase_unsorted@?$ImVector@H@@QEAAPEAHPEBH@Z
pdata	ENDS
;	COMDAT pdata
pdata	SEGMENT
$pdata$?contains@?$ImVector@H@@QEBA_NAEBH@Z DD imagerel $LN8
	DD	imagerel $LN8+201
	DD	imagerel $unwind$?contains@?$ImVector@H@@QEBA_NAEBH@Z
pdata	ENDS
;	COMDAT pdata
pdata	SEGMENT
$pdata$?find@?$ImVector@H@@QEAAPEAHAEBH@Z DD imagerel $LN7
	DD	imagerel $LN7+148
	DD	imagerel $unwind$?find@?$ImVector@H@@QEAAPEAHAEBH@Z
pdata	ENDS
;	COMDAT pdata
pdata	SEGMENT
$pdata$?find_erase_unsorted@?$ImVector@H@@QEAA_NAEBH@Z DD imagerel $LN4
	DD	imagerel $LN4+133
	DD	imagerel $unwind$?find_erase_unsorted@?$ImVector@H@@QEAA_NAEBH@Z
pdata	ENDS
;	COMDAT pdata
pdata	SEGMENT
$pdata$??__Factive_tabs@?CAI@??ShowDemoWindowWidgets@@YAXXZ@YAXXZ DD imagerel ??__Factive_tabs@?CAI@??ShowDemoWindowWidgets@@YAXXZ@YAXXZ
	DD	imagerel ??__Factive_tabs@?CAI@??ShowDemoWindowWidgets@@YAXXZ@YAXXZ+52
	DD	imagerel $unwind$??__Factive_tabs@?CAI@??ShowDemoWindowWidgets@@YAXXZ@YAXXZ
pdata	ENDS
;	COMDAT pdata
pdata	SEGMENT
$pdata$?Sin@Funcs@?CCM@??ShowDemoWindowWidgets@@YAXXZ@SAMPEAXH@Z DD imagerel ?Sin@Funcs@?CCM@??ShowDemoWindowWidgets@@YAXXZ@SAMPEAXH@Z
	DD	imagerel ?Sin@Funcs@?CCM@??ShowDemoWindowWidgets@@YAXXZ@SAMPEAXH@Z+78
	DD	imagerel $unwind$?Sin@Funcs@?CCM@??ShowDemoWindowWidgets@@YAXXZ@SAMPEAXH@Z
pdata	ENDS
;	COMDAT pdata
pdata	SEGMENT
$pdata$?Saw@Funcs@?CCM@??ShowDemoWindowWidgets@@YAXXZ@SAMPEAXH@Z DD imagerel ?Saw@Funcs@?CCM@??ShowDemoWindowWidgets@@YAXXZ@SAMPEAXH@Z
	DD	imagerel ?Saw@Funcs@?CCM@??ShowDemoWindowWidgets@@YAXXZ@SAMPEAXH@Z+111
	DD	imagerel $unwind$?Saw@Funcs@?CCM@??ShowDemoWindowWidgets@@YAXXZ@SAMPEAXH@Z
pdata	ENDS
;	COMDAT pdata
pdata	SEGMENT
$pdata$??__Ffilter@?DIK@??ShowDemoWindowWidgets@@YAXXZ@YAXXZ DD imagerel ??__Ffilter@?DIK@??ShowDemoWindowWidgets@@YAXXZ@YAXXZ
	DD	imagerel ??__Ffilter@?DIK@??ShowDemoWindowWidgets@@YAXXZ@YAXXZ+52
	DD	imagerel $unwind$??__Ffilter@?DIK@??ShowDemoWindowWidgets@@YAXXZ@YAXXZ
pdata	ENDS
;	COMDAT pdata
pdata	SEGMENT
$pdata$?CompareWithSortSpecs@MyItem@?A0x1ed25892@@SAHPEBX0@Z DD imagerel ?CompareWithSortSpecs@MyItem@?A0x1ed25892@@SAHPEBX0@Z
	DD	imagerel ?CompareWithSortSpecs@MyItem@?A0x1ed25892@@SAHPEBX0@Z+468
	DD	imagerel $unwind$?CompareWithSortSpecs@MyItem@?A0x1ed25892@@SAHPEBX0@Z
pdata	ENDS
;	COMDAT pdata
pdata	SEGMENT
$pdata$?PushStyleCompact@@YAXXZ DD imagerel ?PushStyleCompact@@YAXXZ
	DD	imagerel ?PushStyleCompact@@YAXXZ+173
	DD	imagerel $unwind$?PushStyleCompact@@YAXXZ
pdata	ENDS
;	COMDAT pdata
pdata	SEGMENT
$pdata$?PopStyleCompact@@YAXXZ DD imagerel ?PopStyleCompact@@YAXXZ
	DD	imagerel ?PopStyleCompact@@YAXXZ+50
	DD	imagerel $unwind$?PopStyleCompact@@YAXXZ
pdata	ENDS
;	COMDAT pdata
pdata	SEGMENT
$pdata$?EditTableSizingFlags@@YAXPEAH@Z DD imagerel ?EditTableSizingFlags@@YAXPEAH@Z
	DD	imagerel ?EditTableSizingFlags@@YAXPEAH@Z+655
	DD	imagerel $unwind$?EditTableSizingFlags@@YAXPEAH@Z
pdata	ENDS
;	COMDAT pdata
pdata	SEGMENT
$pdata$?EditTableColumnsFlags@@YAXPEAH@Z DD imagerel ?EditTableColumnsFlags@@YAXPEAH@Z
	DD	imagerel ?EditTableColumnsFlags@@YAXPEAH@Z+642
	DD	imagerel $unwind$?EditTableColumnsFlags@@YAXPEAH@Z
pdata	ENDS
;	COMDAT pdata
pdata	SEGMENT
$pdata$?ShowTableColumnsStatusFlags@@YAXH@Z DD imagerel ?ShowTableColumnsStatusFlags@@YAXH@Z
	DD	imagerel ?ShowTableColumnsStatusFlags@@YAXH@Z+150
	DD	imagerel $unwind$?ShowTableColumnsStatusFlags@@YAXH@Z
pdata	ENDS
;	COMDAT pdata
pdata	SEGMENT
$pdata$?DisplayNode@MyTreeNode@?BIO@??ShowDemoWindowTables@@YAXXZ@SAXPEBU1?BIO@??2@YAXXZ@0@Z DD imagerel ?DisplayNode@MyTreeNode@?BIO@??ShowDemoWindowTables@@YAXXZ@SAXPEBU1?BIO@??2@YAXXZ@0@Z
	DD	imagerel ?DisplayNode@MyTreeNode@?BIO@??ShowDemoWindowTables@@YAXXZ@SAXPEBU1?BIO@??2@YAXXZ@0@Z+352
	DD	imagerel $unwind$?DisplayNode@MyTreeNode@?BIO@??ShowDemoWindowTables@@YAXXZ@SAXPEBU1?BIO@??2@YAXXZ@0@Z
pdata	ENDS
;	COMDAT pdata
pdata	SEGMENT
$pdata$??0?$ImVector@UMyItem@?A0x1ed25892@@@@QEAA@XZ DD imagerel $LN3
	DD	imagerel $LN3+99
	DD	imagerel $unwind$??0?$ImVector@UMyItem@?A0x1ed25892@@@@QEAA@XZ
pdata	ENDS
;	COMDAT pdata
pdata	SEGMENT
$pdata$??1?$ImVector@UMyItem@?A0x1ed25892@@@@QEAA@XZ DD imagerel $LN4
	DD	imagerel $LN4+94
	DD	imagerel $unwind$??1?$ImVector@UMyItem@?A0x1ed25892@@@@QEAA@XZ
pdata	ENDS
;	COMDAT pdata
pdata	SEGMENT
$pdata$??A?$ImVector@UMyItem@?A0x1ed25892@@@@QEAAAEAUMyItem@?A0x1ed25892@@H@Z DD imagerel $LN5
	DD	imagerel $LN5+132
	DD	imagerel $unwind$??A?$ImVector@UMyItem@?A0x1ed25892@@@@QEAAAEAUMyItem@?A0x1ed25892@@H@Z
pdata	ENDS
;	COMDAT pdata
pdata	SEGMENT
$pdata$?_grow_capacity@?$ImVector@UMyItem@?A0x1ed25892@@@@QEBAHH@Z DD imagerel $LN7
	DD	imagerel $LN7+159
	DD	imagerel $unwind$?_grow_capacity@?$ImVector@UMyItem@?A0x1ed25892@@@@QEBAHH@Z
pdata	ENDS
;	COMDAT pdata
pdata	SEGMENT
$pdata$?resize@?$ImVector@UMyItem@?A0x1ed25892@@@@QEAAXHAEBUMyItem@?A0x1ed25892@@@Z DD imagerel $LN8
	DD	imagerel $LN8+218
	DD	imagerel $unwind$?resize@?$ImVector@UMyItem@?A0x1ed25892@@@@QEAAXHAEBUMyItem@?A0x1ed25892@@@Z
pdata	ENDS
;	COMDAT pdata
pdata	SEGMENT
$pdata$?reserve@?$ImVector@UMyItem@?A0x1ed25892@@@@QEAAXH@Z DD imagerel $LN5
	DD	imagerel $LN5+197
	DD	imagerel $unwind$?reserve@?$ImVector@UMyItem@?A0x1ed25892@@@@QEAAXH@Z
pdata	ENDS
;	COMDAT pdata
pdata	SEGMENT
$pdata$??__Fitems@?BPE@??ShowDemoWindowTables@@YAXXZ@YAXXZ DD imagerel ??__Fitems@?BPE@??ShowDemoWindowTables@@YAXXZ@YAXXZ
	DD	imagerel ??__Fitems@?BPE@??ShowDemoWindowTables@@YAXXZ@YAXXZ+52
	DD	imagerel $unwind$??__Fitems@?BPE@??ShowDemoWindowTables@@YAXXZ@YAXXZ
pdata	ENDS
;	COMDAT pdata
pdata	SEGMENT
$pdata$??__Fitems@?CAP@??ShowDemoWindowTables@@YAXXZ@YAXXZ DD imagerel ??__Fitems@?CAP@??ShowDemoWindowTables@@YAXXZ@YAXXZ
	DD	imagerel ??__Fitems@?CAP@??ShowDemoWindowTables@@YAXXZ@YAXXZ+52
	DD	imagerel $unwind$??__Fitems@?CAP@??ShowDemoWindowTables@@YAXXZ@YAXXZ
pdata	ENDS
;	COMDAT pdata
pdata	SEGMENT
$pdata$??__Fselection@?CAP@??ShowDemoWindowTables@@YAXXZ@YAXXZ DD imagerel ??__Fselection@?CAP@??ShowDemoWindowTables@@YAXXZ@YAXXZ
	DD	imagerel ??__Fselection@?CAP@??ShowDemoWindowTables@@YAXXZ@YAXXZ+52
	DD	imagerel $unwind$??__Fselection@?CAP@??ShowDemoWindowTables@@YAXXZ@YAXXZ
pdata	ENDS
;	COMDAT pdata
pdata	SEGMENT
$pdata$?IsLegacyNativeDupe@funcs@?BA@??ShowDemoWindowInputs@@YAXXZ@SA_NW4ImGuiKey@@@Z DD imagerel ?IsLegacyNativeDupe@funcs@?BA@??ShowDemoWindowInputs@@YAXXZ@SA_NW4ImGuiKey@@@Z
	DD	imagerel ?IsLegacyNativeDupe@funcs@?BA@??ShowDemoWindowInputs@@YAXXZ@SA_NW4ImGuiKey@@@Z+113
	DD	imagerel $unwind$?IsLegacyNativeDupe@funcs@?BA@??ShowDemoWindowInputs@@YAXXZ@SA_NW4ImGuiKey@@@Z
pdata	ENDS
;	COMDAT pdata
pdata	SEGMENT
$pdata$??__Ffilter@?CJ@??ShowStyleEditor@ImGui@@YAXPEAUImGuiStyle@@@Z@YAXXZ DD imagerel ??__Ffilter@?CJ@??ShowStyleEditor@ImGui@@YAXPEAUImGuiStyle@@@Z@YAXXZ
	DD	imagerel ??__Ffilter@?CJ@??ShowStyleEditor@ImGui@@YAXPEAUImGuiStyle@@@Z@YAXXZ+52
	DD	imagerel $unwind$??__Ffilter@?CJ@??ShowStyleEditor@ImGui@@YAXPEAUImGuiStyle@@@Z@YAXXZ
pdata	ENDS
;	COMDAT pdata
pdata	SEGMENT
$pdata$??0?$ImVector@PEAD@@QEAA@XZ DD imagerel $LN3
	DD	imagerel $LN3+99
	DD	imagerel $unwind$??0?$ImVector@PEAD@@QEAA@XZ
pdata	ENDS
;	COMDAT pdata
pdata	SEGMENT
$pdata$??1?$ImVector@PEAD@@QEAA@XZ DD imagerel $LN4
	DD	imagerel $LN4+94
	DD	imagerel $unwind$??1?$ImVector@PEAD@@QEAA@XZ
pdata	ENDS
;	COMDAT pdata
pdata	SEGMENT
$pdata$?clear@?$ImVector@PEAD@@QEAAXXZ DD imagerel $LN4
	DD	imagerel $LN4+124
	DD	imagerel $unwind$?clear@?$ImVector@PEAD@@QEAAXXZ
pdata	ENDS
;	COMDAT pdata
pdata	SEGMENT
$pdata$??A?$ImVector@PEAD@@QEAAAEAPEADH@Z DD imagerel $LN5
	DD	imagerel $LN5+132
	DD	imagerel $unwind$??A?$ImVector@PEAD@@QEAAAEAPEADH@Z
pdata	ENDS
;	COMDAT pdata
pdata	SEGMENT
$pdata$?begin@?$ImVector@PEAD@@QEAAPEAPEADXZ DD imagerel $LN3
	DD	imagerel $LN3+61
	DD	imagerel $unwind$?begin@?$ImVector@PEAD@@QEAAPEAPEADXZ
pdata	ENDS
;	COMDAT pdata
pdata	SEGMENT
$pdata$?_grow_capacity@?$ImVector@PEAD@@QEBAHH@Z DD imagerel $LN7
	DD	imagerel $LN7+159
	DD	imagerel $unwind$?_grow_capacity@?$ImVector@PEAD@@QEBAHH@Z
pdata	ENDS
;	COMDAT pdata
pdata	SEGMENT
$pdata$?reserve@?$ImVector@PEAD@@QEAAXH@Z DD imagerel $LN5
	DD	imagerel $LN5+197
	DD	imagerel $unwind$?reserve@?$ImVector@PEAD@@QEAAXH@Z
pdata	ENDS
;	COMDAT pdata
pdata	SEGMENT
$pdata$?push_back@?$ImVector@PEAD@@QEAAXAEBQEAD@Z DD imagerel $LN4
	DD	imagerel $LN4+183
	DD	imagerel $unwind$?push_back@?$ImVector@PEAD@@QEAAXAEBQEAD@Z
pdata	ENDS
;	COMDAT pdata
pdata	SEGMENT
$pdata$?erase@?$ImVector@PEAD@@QEAAPEAPEADPEBQEAD@Z DD imagerel $LN5
	DD	imagerel $LN5+300
	DD	imagerel $unwind$?erase@?$ImVector@PEAD@@QEAAPEAPEADPEBQEAD@Z
pdata	ENDS
;	COMDAT pdata
pdata	SEGMENT
$pdata$??0?$ImVector@PEBD@@QEAA@XZ DD imagerel $LN3
	DD	imagerel $LN3+99
	DD	imagerel $unwind$??0?$ImVector@PEBD@@QEAA@XZ
pdata	ENDS
;	COMDAT pdata
pdata	SEGMENT
$pdata$??1?$ImVector@PEBD@@QEAA@XZ DD imagerel $LN4
	DD	imagerel $LN4+94
	DD	imagerel $unwind$??1?$ImVector@PEBD@@QEAA@XZ
pdata	ENDS
;	COMDAT pdata
pdata	SEGMENT
$pdata$??A?$ImVector@PEBD@@QEAAAEAPEBDH@Z DD imagerel $LN5
	DD	imagerel $LN5+132
	DD	imagerel $unwind$??A?$ImVector@PEBD@@QEAAAEAPEBDH@Z
pdata	ENDS
;	COMDAT pdata
pdata	SEGMENT
$pdata$?_grow_capacity@?$ImVector@PEBD@@QEBAHH@Z DD imagerel $LN7
	DD	imagerel $LN7+159
	DD	imagerel $unwind$?_grow_capacity@?$ImVector@PEBD@@QEBAHH@Z
pdata	ENDS
;	COMDAT pdata
pdata	SEGMENT
$pdata$?reserve@?$ImVector@PEBD@@QEAAXH@Z DD imagerel $LN5
	DD	imagerel $LN5+197
	DD	imagerel $unwind$?reserve@?$ImVector@PEBD@@QEAAXH@Z
pdata	ENDS
;	COMDAT pdata
pdata	SEGMENT
$pdata$?push_back@?$ImVector@PEBD@@QEAAXAEBQEBD@Z DD imagerel $LN4
	DD	imagerel $LN4+183
	DD	imagerel $unwind$?push_back@?$ImVector@PEBD@@QEAAXAEBQEBD@Z
pdata	ENDS
;	COMDAT pdata
pdata	SEGMENT
$pdata$??0ExampleAppConsole@@QEAA@XZ DD imagerel $LN11
	DD	imagerel $LN11+481
	DD	imagerel $unwind$??0ExampleAppConsole@@QEAA@XZ
pdata	ENDS
;	COMDAT pdata
pdata	SEGMENT
$pdata$?dtor$0@?0???0ExampleAppConsole@@QEAA@XZ@4HA DD imagerel ?dtor$0@?0???0ExampleAppConsole@@QEAA@XZ@4HA
	DD	imagerel ?dtor$0@?0???0ExampleAppConsole@@QEAA@XZ@4HA+46
	DD	imagerel $unwind$?dtor$0@?0???0ExampleAppConsole@@QEAA@XZ@4HA
pdata	ENDS
;	COMDAT pdata
pdata	SEGMENT
$pdata$?dtor$1@?0???0ExampleAppConsole@@QEAA@XZ@4HA DD imagerel ?dtor$1@?0???0ExampleAppConsole@@QEAA@XZ@4HA
	DD	imagerel ?dtor$1@?0???0ExampleAppConsole@@QEAA@XZ@4HA+46
	DD	imagerel $unwind$?dtor$1@?0???0ExampleAppConsole@@QEAA@XZ@4HA
pdata	ENDS
;	COMDAT pdata
pdata	SEGMENT
$pdata$?dtor$2@?0???0ExampleAppConsole@@QEAA@XZ@4HA DD imagerel ?dtor$2@?0???0ExampleAppConsole@@QEAA@XZ@4HA
	DD	imagerel ?dtor$2@?0???0ExampleAppConsole@@QEAA@XZ@4HA+46
	DD	imagerel $unwind$?dtor$2@?0???0ExampleAppConsole@@QEAA@XZ@4HA
pdata	ENDS
;	COMDAT pdata
pdata	SEGMENT
$pdata$?dtor$3@?0???0ExampleAppConsole@@QEAA@XZ@4HA DD imagerel ?dtor$3@?0???0ExampleAppConsole@@QEAA@XZ@4HA
	DD	imagerel ?dtor$3@?0???0ExampleAppConsole@@QEAA@XZ@4HA+46
	DD	imagerel $unwind$?dtor$3@?0???0ExampleAppConsole@@QEAA@XZ@4HA
pdata	ENDS
;	COMDAT pdata
pdata	SEGMENT
$pdata$??1ExampleAppConsole@@QEAA@XZ DD imagerel $LN6
	DD	imagerel $LN6+236
	DD	imagerel $unwind$??1ExampleAppConsole@@QEAA@XZ
pdata	ENDS
;	COMDAT pdata
pdata	SEGMENT
$pdata$?Stricmp@ExampleAppConsole@@SAHPEBD0@Z DD imagerel $LN5
	DD	imagerel $LN5+169
	DD	imagerel $unwind$?Stricmp@ExampleAppConsole@@SAHPEBD0@Z
pdata	ENDS
;	COMDAT pdata
pdata	SEGMENT
$pdata$?Strnicmp@ExampleAppConsole@@SAHPEBD0H@Z DD imagerel $LN5
	DD	imagerel $LN5+207
	DD	imagerel $unwind$?Strnicmp@ExampleAppConsole@@SAHPEBD0H@Z
pdata	ENDS
;	COMDAT pdata
pdata	SEGMENT
$pdata$?Strdup@ExampleAppConsole@@SAPEADPEBD@Z DD imagerel $LN5
	DD	imagerel $LN5+178
	DD	imagerel $unwind$?Strdup@ExampleAppConsole@@SAPEADPEBD@Z
pdata	ENDS
;	COMDAT pdata
pdata	SEGMENT
$pdata$?Strtrim@ExampleAppConsole@@SAXPEAD@Z DD imagerel $LN5
	DD	imagerel $LN5+136
	DD	imagerel $unwind$?Strtrim@ExampleAppConsole@@SAXPEAD@Z
pdata	ENDS
;	COMDAT pdata
pdata	SEGMENT
$pdata$?ClearLog@ExampleAppConsole@@QEAAXXZ DD imagerel $LN6
	DD	imagerel $LN6+143
	DD	imagerel $unwind$?ClearLog@ExampleAppConsole@@QEAAXXZ
pdata	ENDS
;	COMDAT pdata
pdata	SEGMENT
$pdata$?AddLog@ExampleAppConsole@@QEAAXPEBDZZ DD imagerel $LN5
	DD	imagerel $LN5+268
	DD	imagerel $unwind$?AddLog@ExampleAppConsole@@QEAAXPEBDZZ
pdata	ENDS
;	COMDAT pdata
pdata	SEGMENT
$pdata$?Draw@ExampleAppConsole@@QEAAXPEBDPEA_N@Z DD imagerel $LN30
	DD	imagerel $LN30+1644
	DD	imagerel $unwind$?Draw@ExampleAppConsole@@QEAAXPEBDPEA_N@Z
pdata	ENDS
;	COMDAT pdata
pdata	SEGMENT
$pdata$?ExecCommand@ExampleAppConsole@@QEAAXPEBD@Z DD imagerel $LN21
	DD	imagerel $LN21+693
	DD	imagerel $unwind$?ExecCommand@ExampleAppConsole@@QEAAXPEBD@Z
pdata	ENDS
;	COMDAT pdata
pdata	SEGMENT
$pdata$?TextEditCallbackStub@ExampleAppConsole@@SAHPEAUImGuiInputTextCallbackData@@@Z DD imagerel $LN3
	DD	imagerel $LN3+83
	DD	imagerel $unwind$?TextEditCallbackStub@ExampleAppConsole@@SAHPEAUImGuiInputTextCallbackData@@@Z
pdata	ENDS
;	COMDAT pdata
pdata	SEGMENT
$pdata$?TextEditCallback@ExampleAppConsole@@QEAAHPEAUImGuiInputTextCallbackData@@@Z DD imagerel $LN46
	DD	imagerel $LN46+1554
	DD	imagerel $unwind$?TextEditCallback@ExampleAppConsole@@QEAAHPEAUImGuiInputTextCallbackData@@@Z
pdata	ENDS
;	COMDAT pdata
pdata	SEGMENT
$pdata$?dtor$0@?0??TextEditCallback@ExampleAppConsole@@QEAAHPEAUImGuiInputTextCallbackData@@@Z@4HA DD imagerel ?dtor$0@?0??TextEditCallback@ExampleAppConsole@@QEAAHPEAUImGuiInputTextCallbackData@@@Z@4HA
	DD	imagerel ?dtor$0@?0??TextEditCallback@ExampleAppConsole@@QEAAHPEAUImGuiInputTextCallbackData@@@Z@4HA+36
	DD	imagerel $unwind$?dtor$0@?0??TextEditCallback@ExampleAppConsole@@QEAAHPEAUImGuiInputTextCallbackData@@@Z@4HA
pdata	ENDS
;	COMDAT pdata
pdata	SEGMENT
$pdata$??$__vcrt_va_start_verify_argument_type@PEBD@@YAXXZ DD imagerel $LN3
	DD	imagerel $LN3+38
	DD	imagerel $unwind$??$__vcrt_va_start_verify_argument_type@PEBD@@YAXXZ
pdata	ENDS
;	COMDAT pdata
pdata	SEGMENT
$pdata$??__Fconsole@?1??ShowExampleAppConsole@@YAXPEA_N@Z@YAXXZ DD imagerel ??__Fconsole@?1??ShowExampleAppConsole@@YAXPEA_N@Z@YAXXZ
	DD	imagerel ??__Fconsole@?1??ShowExampleAppConsole@@YAXPEA_N@Z@YAXXZ+52
	DD	imagerel $unwind$??__Fconsole@?1??ShowExampleAppConsole@@YAXPEA_N@Z@YAXXZ
pdata	ENDS
;	COMDAT pdata
pdata	SEGMENT
$pdata$??0ExampleAppLog@@QEAA@XZ DD imagerel $LN6
	DD	imagerel $LN6+162
	DD	imagerel $unwind$??0ExampleAppLog@@QEAA@XZ
pdata	ENDS
;	COMDAT pdata
pdata	SEGMENT
$pdata$?dtor$0@?0???0ExampleAppLog@@QEAA@XZ@4HA DD imagerel ?dtor$0@?0???0ExampleAppLog@@QEAA@XZ@4HA
	DD	imagerel ?dtor$0@?0???0ExampleAppLog@@QEAA@XZ@4HA+39
	DD	imagerel $unwind$?dtor$0@?0???0ExampleAppLog@@QEAA@XZ@4HA
pdata	ENDS
;	COMDAT pdata
pdata	SEGMENT
$pdata$?dtor$1@?0???0ExampleAppLog@@QEAA@XZ@4HA DD imagerel ?dtor$1@?0???0ExampleAppLog@@QEAA@XZ@4HA
	DD	imagerel ?dtor$1@?0???0ExampleAppLog@@QEAA@XZ@4HA+43
	DD	imagerel $unwind$?dtor$1@?0???0ExampleAppLog@@QEAA@XZ@4HA
pdata	ENDS
;	COMDAT pdata
pdata	SEGMENT
$pdata$?dtor$2@?0???0ExampleAppLog@@QEAA@XZ@4HA DD imagerel ?dtor$2@?0???0ExampleAppLog@@QEAA@XZ@4HA
	DD	imagerel ?dtor$2@?0???0ExampleAppLog@@QEAA@XZ@4HA+46
	DD	imagerel $unwind$?dtor$2@?0???0ExampleAppLog@@QEAA@XZ@4HA
pdata	ENDS
;	COMDAT pdata
pdata	SEGMENT
$pdata$?Clear@ExampleAppLog@@QEAAXXZ DD imagerel $LN3
	DD	imagerel $LN3+126
	DD	imagerel $unwind$?Clear@ExampleAppLog@@QEAAXXZ
pdata	ENDS
;	COMDAT pdata
pdata	SEGMENT
$pdata$?AddLog@ExampleAppLog@@QEAAXPEBDZZ DD imagerel $LN7
	DD	imagerel $LN7+286
	DD	imagerel $unwind$?AddLog@ExampleAppLog@@QEAAXPEBDZZ
pdata	ENDS
;	COMDAT pdata
