; Listing generated by Microsoft (R) Optimizing Compiler Version 19.00.24245.0 

include listing.inc

INCLUDELIB MSVCRTD
INCLUDELIB OLDNAMES

PUBLIC	?g_BoxOffset@DirectX@@3QBUXMVECTORF32@1@B	; DirectX::g_BoxOffset
PUBLIC	?g_RayEpsilon@DirectX@@3UXMVECTORF32@1@B	; DirectX::g_RayEpsilon
PUBLIC	?g_RayNegEpsilon@DirectX@@3UXMVECTORF32@1@B	; DirectX::g_RayNegEpsilon
PUBLIC	?g_FltMin@DirectX@@3UXMVECTORF32@1@B		; DirectX::g_FltMin
PUBLIC	?g_FltMax@DirectX@@3UXMVECTORF32@1@B		; DirectX::g_FltMax
PUBLIC	?g_UnitVectorEpsilon@Internal@DirectX@@3UXMVECTORF32@2@B ; DirectX::Internal::g_UnitVectorEpsilon
PUBLIC	?g_UnitQuaternionEpsilon@Internal@DirectX@@3UXMVECTORF32@2@B ; DirectX::Internal::g_UnitQuaternionEpsilon
PUBLIC	?g_UnitPlaneEpsilon@Internal@DirectX@@3UXMVECTORF32@2@B ; DirectX::Internal::g_UnitPlaneEpsilon
PUBLIC	?g_XMSinCoefficients0@DirectX@@3UXMVECTORF32@1@B ; DirectX::g_XMSinCoefficients0
PUBLIC	?g_XMSinCoefficients1@DirectX@@3UXMVECTORF32@1@B ; DirectX::g_XMSinCoefficients1
PUBLIC	?g_XMCosCoefficients0@DirectX@@3UXMVECTORF32@1@B ; DirectX::g_XMCosCoefficients0
PUBLIC	?g_XMCosCoefficients1@DirectX@@3UXMVECTORF32@1@B ; DirectX::g_XMCosCoefficients1
PUBLIC	?g_XMTanCoefficients0@DirectX@@3UXMVECTORF32@1@B ; DirectX::g_XMTanCoefficients0
PUBLIC	?g_XMTanCoefficients1@DirectX@@3UXMVECTORF32@1@B ; DirectX::g_XMTanCoefficients1
PUBLIC	?g_XMTanCoefficients2@DirectX@@3UXMVECTORF32@1@B ; DirectX::g_XMTanCoefficients2
PUBLIC	?g_XMArcCoefficients0@DirectX@@3UXMVECTORF32@1@B ; DirectX::g_XMArcCoefficients0
PUBLIC	?g_XMArcCoefficients1@DirectX@@3UXMVECTORF32@1@B ; DirectX::g_XMArcCoefficients1
PUBLIC	?g_XMATanCoefficients0@DirectX@@3UXMVECTORF32@1@B ; DirectX::g_XMATanCoefficients0
PUBLIC	?g_XMATanCoefficients1@DirectX@@3UXMVECTORF32@1@B ; DirectX::g_XMATanCoefficients1
PUBLIC	?g_XMATanEstCoefficients0@DirectX@@3UXMVECTORF32@1@B ; DirectX::g_XMATanEstCoefficients0
PUBLIC	?g_XMATanEstCoefficients1@DirectX@@3UXMVECTORF32@1@B ; DirectX::g_XMATanEstCoefficients1
PUBLIC	?g_XMTanEstCoefficients@DirectX@@3UXMVECTORF32@1@B ; DirectX::g_XMTanEstCoefficients
PUBLIC	?g_XMArcEstCoefficients@DirectX@@3UXMVECTORF32@1@B ; DirectX::g_XMArcEstCoefficients
PUBLIC	?g_XMPiConstants0@DirectX@@3UXMVECTORF32@1@B	; DirectX::g_XMPiConstants0
PUBLIC	?g_XMIdentityR0@DirectX@@3UXMVECTORF32@1@B	; DirectX::g_XMIdentityR0
PUBLIC	?g_XMIdentityR1@DirectX@@3UXMVECTORF32@1@B	; DirectX::g_XMIdentityR1
PUBLIC	?g_XMIdentityR2@DirectX@@3UXMVECTORF32@1@B	; DirectX::g_XMIdentityR2
PUBLIC	?g_XMIdentityR3@DirectX@@3UXMVECTORF32@1@B	; DirectX::g_XMIdentityR3
PUBLIC	?g_XMNegIdentityR0@DirectX@@3UXMVECTORF32@1@B	; DirectX::g_XMNegIdentityR0
PUBLIC	?g_XMNegIdentityR1@DirectX@@3UXMVECTORF32@1@B	; DirectX::g_XMNegIdentityR1
PUBLIC	?g_XMNegIdentityR2@DirectX@@3UXMVECTORF32@1@B	; DirectX::g_XMNegIdentityR2
PUBLIC	?g_XMNegIdentityR3@DirectX@@3UXMVECTORF32@1@B	; DirectX::g_XMNegIdentityR3
PUBLIC	?g_XMNegativeZero@DirectX@@3UXMVECTORU32@1@B	; DirectX::g_XMNegativeZero
PUBLIC	?g_XMNegate3@DirectX@@3UXMVECTORU32@1@B		; DirectX::g_XMNegate3
PUBLIC	?g_XMMask3@DirectX@@3UXMVECTORU32@1@B		; DirectX::g_XMMask3
PUBLIC	?g_XMMaskX@DirectX@@3UXMVECTORU32@1@B		; DirectX::g_XMMaskX
PUBLIC	?g_XMMaskY@DirectX@@3UXMVECTORU32@1@B		; DirectX::g_XMMaskY
PUBLIC	?g_XMMaskZ@DirectX@@3UXMVECTORU32@1@B		; DirectX::g_XMMaskZ
PUBLIC	?g_XMMaskW@DirectX@@3UXMVECTORU32@1@B		; DirectX::g_XMMaskW
PUBLIC	?g_XMOne@DirectX@@3UXMVECTORF32@1@B		; DirectX::g_XMOne
PUBLIC	?g_XMOne3@DirectX@@3UXMVECTORF32@1@B		; DirectX::g_XMOne3
PUBLIC	?g_XMZero@DirectX@@3UXMVECTORF32@1@B		; DirectX::g_XMZero
PUBLIC	?g_XMTwo@DirectX@@3UXMVECTORF32@1@B		; DirectX::g_XMTwo
PUBLIC	?g_XMFour@DirectX@@3UXMVECTORF32@1@B		; DirectX::g_XMFour
PUBLIC	?g_XMSix@DirectX@@3UXMVECTORF32@1@B		; DirectX::g_XMSix
PUBLIC	?g_XMNegativeOne@DirectX@@3UXMVECTORF32@1@B	; DirectX::g_XMNegativeOne
PUBLIC	?g_XMOneHalf@DirectX@@3UXMVECTORF32@1@B		; DirectX::g_XMOneHalf
PUBLIC	?g_XMNegativeOneHalf@DirectX@@3UXMVECTORF32@1@B	; DirectX::g_XMNegativeOneHalf
PUBLIC	?g_XMNegativeTwoPi@DirectX@@3UXMVECTORF32@1@B	; DirectX::g_XMNegativeTwoPi
PUBLIC	?g_XMNegativePi@DirectX@@3UXMVECTORF32@1@B	; DirectX::g_XMNegativePi
PUBLIC	?g_XMHalfPi@DirectX@@3UXMVECTORF32@1@B		; DirectX::g_XMHalfPi
PUBLIC	?g_XMPi@DirectX@@3UXMVECTORF32@1@B		; DirectX::g_XMPi
PUBLIC	?g_XMReciprocalPi@DirectX@@3UXMVECTORF32@1@B	; DirectX::g_XMReciprocalPi
PUBLIC	?g_XMTwoPi@DirectX@@3UXMVECTORF32@1@B		; DirectX::g_XMTwoPi
PUBLIC	?g_XMReciprocalTwoPi@DirectX@@3UXMVECTORF32@1@B	; DirectX::g_XMReciprocalTwoPi
PUBLIC	?g_XMEpsilon@DirectX@@3UXMVECTORF32@1@B		; DirectX::g_XMEpsilon
PUBLIC	?g_XMInfinity@DirectX@@3UXMVECTORI32@1@B	; DirectX::g_XMInfinity
PUBLIC	?g_XMQNaN@DirectX@@3UXMVECTORI32@1@B		; DirectX::g_XMQNaN
PUBLIC	?g_XMQNaNTest@DirectX@@3UXMVECTORI32@1@B	; DirectX::g_XMQNaNTest
PUBLIC	?g_XMAbsMask@DirectX@@3UXMVECTORI32@1@B		; DirectX::g_XMAbsMask
PUBLIC	?g_XMFltMin@DirectX@@3UXMVECTORI32@1@B		; DirectX::g_XMFltMin
PUBLIC	?g_XMFltMax@DirectX@@3UXMVECTORI32@1@B		; DirectX::g_XMFltMax
PUBLIC	?g_XMNegOneMask@DirectX@@3UXMVECTORU32@1@B	; DirectX::g_XMNegOneMask
PUBLIC	?g_XMMaskA8R8G8B8@DirectX@@3UXMVECTORU32@1@B	; DirectX::g_XMMaskA8R8G8B8
PUBLIC	?g_XMFlipA8R8G8B8@DirectX@@3UXMVECTORU32@1@B	; DirectX::g_XMFlipA8R8G8B8
PUBLIC	?g_XMFixAA8R8G8B8@DirectX@@3UXMVECTORF32@1@B	; DirectX::g_XMFixAA8R8G8B8
PUBLIC	?g_XMNormalizeA8R8G8B8@DirectX@@3UXMVECTORF32@1@B ; DirectX::g_XMNormalizeA8R8G8B8
PUBLIC	?g_XMMaskA2B10G10R10@DirectX@@3UXMVECTORU32@1@B	; DirectX::g_XMMaskA2B10G10R10
PUBLIC	?g_XMFlipA2B10G10R10@DirectX@@3UXMVECTORU32@1@B	; DirectX::g_XMFlipA2B10G10R10
PUBLIC	?g_XMFixAA2B10G10R10@DirectX@@3UXMVECTORF32@1@B	; DirectX::g_XMFixAA2B10G10R10
PUBLIC	?g_XMNormalizeA2B10G10R10@DirectX@@3UXMVECTORF32@1@B ; DirectX::g_XMNormalizeA2B10G10R10
PUBLIC	?g_XMMaskX16Y16@DirectX@@3UXMVECTORU32@1@B	; DirectX::g_XMMaskX16Y16
PUBLIC	?g_XMFlipX16Y16@DirectX@@3UXMVECTORI32@1@B	; DirectX::g_XMFlipX16Y16
PUBLIC	?g_XMFixX16Y16@DirectX@@3UXMVECTORF32@1@B	; DirectX::g_XMFixX16Y16
PUBLIC	?g_XMNormalizeX16Y16@DirectX@@3UXMVECTORF32@1@B	; DirectX::g_XMNormalizeX16Y16
PUBLIC	?g_XMMaskX16Y16Z16W16@DirectX@@3UXMVECTORU32@1@B ; DirectX::g_XMMaskX16Y16Z16W16
PUBLIC	?g_XMFlipX16Y16Z16W16@DirectX@@3UXMVECTORI32@1@B ; DirectX::g_XMFlipX16Y16Z16W16
PUBLIC	?g_XMFixX16Y16Z16W16@DirectX@@3UXMVECTORF32@1@B	; DirectX::g_XMFixX16Y16Z16W16
PUBLIC	?g_XMNormalizeX16Y16Z16W16@DirectX@@3UXMVECTORF32@1@B ; DirectX::g_XMNormalizeX16Y16Z16W16
PUBLIC	?g_XMNoFraction@DirectX@@3UXMVECTORF32@1@B	; DirectX::g_XMNoFraction
PUBLIC	?g_XMMaskByte@DirectX@@3UXMVECTORI32@1@B	; DirectX::g_XMMaskByte
PUBLIC	?g_XMNegateX@DirectX@@3UXMVECTORF32@1@B		; DirectX::g_XMNegateX
PUBLIC	?g_XMNegateY@DirectX@@3UXMVECTORF32@1@B		; DirectX::g_XMNegateY
PUBLIC	?g_XMNegateZ@DirectX@@3UXMVECTORF32@1@B		; DirectX::g_XMNegateZ
PUBLIC	?g_XMNegateW@DirectX@@3UXMVECTORF32@1@B		; DirectX::g_XMNegateW
PUBLIC	?g_XMSelect0101@DirectX@@3UXMVECTORU32@1@B	; DirectX::g_XMSelect0101
PUBLIC	?g_XMSelect1010@DirectX@@3UXMVECTORU32@1@B	; DirectX::g_XMSelect1010
PUBLIC	?g_XMOneHalfMinusEpsilon@DirectX@@3UXMVECTORI32@1@B ; DirectX::g_XMOneHalfMinusEpsilon
PUBLIC	?g_XMSelect1000@DirectX@@3UXMVECTORU32@1@B	; DirectX::g_XMSelect1000
PUBLIC	?g_XMSelect1100@DirectX@@3UXMVECTORU32@1@B	; DirectX::g_XMSelect1100
PUBLIC	?g_XMSelect1110@DirectX@@3UXMVECTORU32@1@B	; DirectX::g_XMSelect1110
PUBLIC	?g_XMSelect1011@DirectX@@3UXMVECTORU32@1@B	; DirectX::g_XMSelect1011
PUBLIC	?g_XMFixupY16@DirectX@@3UXMVECTORF32@1@B	; DirectX::g_XMFixupY16
PUBLIC	?g_XMFixupY16W16@DirectX@@3UXMVECTORF32@1@B	; DirectX::g_XMFixupY16W16
PUBLIC	?g_XMFlipY@DirectX@@3UXMVECTORU32@1@B		; DirectX::g_XMFlipY
PUBLIC	?g_XMFlipZ@DirectX@@3UXMVECTORU32@1@B		; DirectX::g_XMFlipZ
PUBLIC	?g_XMFlipW@DirectX@@3UXMVECTORU32@1@B		; DirectX::g_XMFlipW
PUBLIC	?g_XMFlipYZ@DirectX@@3UXMVECTORU32@1@B		; DirectX::g_XMFlipYZ
PUBLIC	?g_XMFlipZW@DirectX@@3UXMVECTORU32@1@B		; DirectX::g_XMFlipZW
PUBLIC	?g_XMFlipYW@DirectX@@3UXMVECTORU32@1@B		; DirectX::g_XMFlipYW
PUBLIC	?g_XMMaskDec4@DirectX@@3UXMVECTORI32@1@B	; DirectX::g_XMMaskDec4
PUBLIC	?g_XMXorDec4@DirectX@@3UXMVECTORI32@1@B		; DirectX::g_XMXorDec4
PUBLIC	?g_XMAddUDec4@DirectX@@3UXMVECTORF32@1@B	; DirectX::g_XMAddUDec4
PUBLIC	?g_XMAddDec4@DirectX@@3UXMVECTORF32@1@B		; DirectX::g_XMAddDec4
PUBLIC	?g_XMMulDec4@DirectX@@3UXMVECTORF32@1@B		; DirectX::g_XMMulDec4
PUBLIC	?g_XMMaskByte4@DirectX@@3UXMVECTORU32@1@B	; DirectX::g_XMMaskByte4
PUBLIC	?g_XMXorByte4@DirectX@@3UXMVECTORI32@1@B	; DirectX::g_XMXorByte4
PUBLIC	?g_XMAddByte4@DirectX@@3UXMVECTORF32@1@B	; DirectX::g_XMAddByte4
PUBLIC	?g_XMFixUnsigned@DirectX@@3UXMVECTORF32@1@B	; DirectX::g_XMFixUnsigned
PUBLIC	?g_XMMaxInt@DirectX@@3UXMVECTORF32@1@B		; DirectX::g_XMMaxInt
PUBLIC	?g_XMMaxUInt@DirectX@@3UXMVECTORF32@1@B		; DirectX::g_XMMaxUInt
PUBLIC	?g_XMUnsignedFix@DirectX@@3UXMVECTORF32@1@B	; DirectX::g_XMUnsignedFix
PUBLIC	?g_XMsrgbScale@DirectX@@3UXMVECTORF32@1@B	; DirectX::g_XMsrgbScale
PUBLIC	?g_XMsrgbA@DirectX@@3UXMVECTORF32@1@B		; DirectX::g_XMsrgbA
PUBLIC	?g_XMsrgbA1@DirectX@@3UXMVECTORF32@1@B		; DirectX::g_XMsrgbA1
PUBLIC	?g_XMExponentBias@DirectX@@3UXMVECTORI32@1@B	; DirectX::g_XMExponentBias
PUBLIC	?g_XMSubnormalExponent@DirectX@@3UXMVECTORI32@1@B ; DirectX::g_XMSubnormalExponent
PUBLIC	?g_XMNumTrailing@DirectX@@3UXMVECTORI32@1@B	; DirectX::g_XMNumTrailing
PUBLIC	?g_XMMinNormal@DirectX@@3UXMVECTORI32@1@B	; DirectX::g_XMMinNormal
PUBLIC	?g_XMNegInfinity@DirectX@@3UXMVECTORU32@1@B	; DirectX::g_XMNegInfinity
PUBLIC	?g_XMNegQNaN@DirectX@@3UXMVECTORU32@1@B		; DirectX::g_XMNegQNaN
PUBLIC	?g_XMBin128@DirectX@@3UXMVECTORI32@1@B		; DirectX::g_XMBin128
PUBLIC	?g_XMBinNeg150@DirectX@@3UXMVECTORU32@1@B	; DirectX::g_XMBinNeg150
PUBLIC	?g_XM253@DirectX@@3UXMVECTORI32@1@B		; DirectX::g_XM253
PUBLIC	?g_XMExpEst1@DirectX@@3UXMVECTORF32@1@B		; DirectX::g_XMExpEst1
PUBLIC	?g_XMExpEst2@DirectX@@3UXMVECTORF32@1@B		; DirectX::g_XMExpEst2
PUBLIC	?g_XMExpEst3@DirectX@@3UXMVECTORF32@1@B		; DirectX::g_XMExpEst3
PUBLIC	?g_XMExpEst4@DirectX@@3UXMVECTORF32@1@B		; DirectX::g_XMExpEst4
PUBLIC	?g_XMExpEst5@DirectX@@3UXMVECTORF32@1@B		; DirectX::g_XMExpEst5
PUBLIC	?g_XMExpEst6@DirectX@@3UXMVECTORF32@1@B		; DirectX::g_XMExpEst6
PUBLIC	?g_XMExpEst7@DirectX@@3UXMVECTORF32@1@B		; DirectX::g_XMExpEst7
PUBLIC	?g_XMLogEst0@DirectX@@3UXMVECTORF32@1@B		; DirectX::g_XMLogEst0
PUBLIC	?g_XMLogEst1@DirectX@@3UXMVECTORF32@1@B		; DirectX::g_XMLogEst1
PUBLIC	?g_XMLogEst2@DirectX@@3UXMVECTORF32@1@B		; DirectX::g_XMLogEst2
PUBLIC	?g_XMLogEst3@DirectX@@3UXMVECTORF32@1@B		; DirectX::g_XMLogEst3
PUBLIC	?g_XMLogEst4@DirectX@@3UXMVECTORF32@1@B		; DirectX::g_XMLogEst4
PUBLIC	?g_XMLogEst5@DirectX@@3UXMVECTORF32@1@B		; DirectX::g_XMLogEst5
PUBLIC	?g_XMLogEst6@DirectX@@3UXMVECTORF32@1@B		; DirectX::g_XMLogEst6
PUBLIC	?g_XMLogEst7@DirectX@@3UXMVECTORF32@1@B		; DirectX::g_XMLogEst7
PUBLIC	?g_XMLgE@DirectX@@3UXMVECTORF32@1@B		; DirectX::g_XMLgE
PUBLIC	?g_XMInvLgE@DirectX@@3UXMVECTORF32@1@B		; DirectX::g_XMInvLgE
;	COMDAT ?g_XMInvLgE@DirectX@@3UXMVECTORF32@1@B
CONST	SEGMENT
?g_XMInvLgE@DirectX@@3UXMVECTORF32@1@B DD 03f317218r ; 0.693147 ; DirectX::g_XMInvLgE
	DD	03f317218r			; 0.693147
	DD	03f317218r			; 0.693147
	DD	03f317218r			; 0.693147
CONST	ENDS
;	COMDAT ?g_XMLgE@DirectX@@3UXMVECTORF32@1@B
CONST	SEGMENT
?g_XMLgE@DirectX@@3UXMVECTORF32@1@B DD 03fb8aa3br ; 1.4427 ; DirectX::g_XMLgE
	DD	03fb8aa3br			; 1.4427
	DD	03fb8aa3br			; 1.4427
	DD	03fb8aa3br			; 1.4427
CONST	ENDS
;	COMDAT ?g_XMLogEst7@DirectX@@3UXMVECTORF32@1@B
CONST	SEGMENT
?g_XMLogEst7@DirectX@@3UXMVECTORF32@1@B DD 0bc2d4f59r ; -0.010578 ; DirectX::g_XMLogEst7
	DD	0bc2d4f59r			; -0.010578
	DD	0bc2d4f59r			; -0.010578
	DD	0bc2d4f59r			; -0.010578
CONST	ENDS
;	COMDAT ?g_XMLogEst6@DirectX@@3UXMVECTORF32@1@B
CONST	SEGMENT
?g_XMLogEst6@DirectX@@3UXMVECTORF32@1@B DD 03d6a1405r ; 0.057148 ; DirectX::g_XMLogEst6
	DD	03d6a1405r			; 0.057148
	DD	03d6a1405r			; 0.057148
	DD	03d6a1405r			; 0.057148
CONST	ENDS
;	COMDAT ?g_XMLogEst5@DirectX@@3UXMVECTORF32@1@B
CONST	SEGMENT
?g_XMLogEst5@DirectX@@3UXMVECTORF32@1@B DD 0be153261r ; -0.1457 ; DirectX::g_XMLogEst5
	DD	0be153261r			; -0.1457
	DD	0be153261r			; -0.1457
	DD	0be153261r			; -0.1457
CONST	ENDS
;	COMDAT ?g_XMLogEst4@DirectX@@3UXMVECTORF32@1@B
CONST	SEGMENT
?g_XMLogEst4@DirectX@@3UXMVECTORF32@1@B DD 03e7e8e61r ; 0.24859 ; DirectX::g_XMLogEst4
	DD	03e7e8e61r			; 0.24859
	DD	03e7e8e61r			; 0.24859
	DD	03e7e8e61r			; 0.24859
CONST	ENDS
;	COMDAT ?g_XMLogEst3@DirectX@@3UXMVECTORF32@1@B
CONST	SEGMENT
?g_XMLogEst3@DirectX@@3UXMVECTORF32@1@B DD 0beb359der ; -0.350295 ; DirectX::g_XMLogEst3
	DD	0beb359der			; -0.350295
	DD	0beb359der			; -0.350295
	DD	0beb359der			; -0.350295
CONST	ENDS
;	COMDAT ?g_XMLogEst2@DirectX@@3UXMVECTORF32@1@B
CONST	SEGMENT
?g_XMLogEst2@DirectX@@3UXMVECTORF32@1@B DD 03ef571d2r ; 0.479384 ; DirectX::g_XMLogEst2
	DD	03ef571d2r			; 0.479384
	DD	03ef571d2r			; 0.479384
	DD	03ef571d2r			; 0.479384
CONST	ENDS
;	COMDAT ?g_XMLogEst1@DirectX@@3UXMVECTORF32@1@B
CONST	SEGMENT
?g_XMLogEst1@DirectX@@3UXMVECTORF32@1@B DD 0bf38a351r ; -0.721242 ; DirectX::g_XMLogEst1
	DD	0bf38a351r			; -0.721242
	DD	0bf38a351r			; -0.721242
	DD	0bf38a351r			; -0.721242
CONST	ENDS
;	COMDAT ?g_XMLogEst0@DirectX@@3UXMVECTORF32@1@B
CONST	SEGMENT
?g_XMLogEst0@DirectX@@3UXMVECTORF32@1@B DD 03fb8aa2ar ; 1.44269 ; DirectX::g_XMLogEst0
	DD	03fb8aa2ar			; 1.44269
	DD	03fb8aa2ar			; 1.44269
	DD	03fb8aa2ar			; 1.44269
CONST	ENDS
;	COMDAT ?g_XMExpEst7@DirectX@@3UXMVECTORF32@1@B
CONST	SEGMENT
?g_XMExpEst7@DirectX@@3UXMVECTORF32@1@B DD 0b7364261r ; -1.08635e-05 ; DirectX::g_XMExpEst7
	DD	0b7364261r			; -1.08635e-05
	DD	0b7364261r			; -1.08635e-05
	DD	0b7364261r			; -1.08635e-05
CONST	ENDS
;	COMDAT ?g_XMExpEst6@DirectX@@3UXMVECTORF32@1@B
CONST	SEGMENT
?g_XMExpEst6@DirectX@@3UXMVECTORF32@1@B DD 0391aa7d7r ; 0.000147491 ; DirectX::g_XMExpEst6
	DD	0391aa7d7r			; 0.000147491
	DD	0391aa7d7r			; 0.000147491
	DD	0391aa7d7r			; 0.000147491
CONST	ENDS
;	COMDAT ?g_XMExpEst5@DirectX@@3UXMVECTORF32@1@B
CONST	SEGMENT
?g_XMExpEst5@DirectX@@3UXMVECTORF32@1@B DD 0baae1854r ; -0.00132824 ; DirectX::g_XMExpEst5
	DD	0baae1854r			; -0.00132824
	DD	0baae1854r			; -0.00132824
	DD	0baae1854r			; -0.00132824
CONST	ENDS
;	COMDAT ?g_XMExpEst4@DirectX@@3UXMVECTORF32@1@B
CONST	SEGMENT
?g_XMExpEst4@DirectX@@3UXMVECTORF32@1@B DD 03c1d8c54r ; 0.00961598 ; DirectX::g_XMExpEst4
	DD	03c1d8c54r			; 0.00961598
	DD	03c1d8c54r			; 0.00961598
	DD	03c1d8c54r			; 0.00961598
CONST	ENDS
;	COMDAT ?g_XMExpEst3@DirectX@@3UXMVECTORF32@1@B
CONST	SEGMENT
?g_XMExpEst3@DirectX@@3UXMVECTORF32@1@B DD 0bd6357car ; -0.0555036 ; DirectX::g_XMExpEst3
	DD	0bd6357car			; -0.0555036
	DD	0bd6357car			; -0.0555036
	DD	0bd6357car			; -0.0555036
CONST	ENDS
;	COMDAT ?g_XMExpEst2@DirectX@@3UXMVECTORF32@1@B
CONST	SEGMENT
?g_XMExpEst2@DirectX@@3UXMVECTORF32@1@B DD 03e75fdedr ; 0.240226 ; DirectX::g_XMExpEst2
	DD	03e75fdedr			; 0.240226
	DD	03e75fdedr			; 0.240226
	DD	03e75fdedr			; 0.240226
CONST	ENDS
;	COMDAT ?g_XMExpEst1@DirectX@@3UXMVECTORF32@1@B
CONST	SEGMENT
?g_XMExpEst1@DirectX@@3UXMVECTORF32@1@B DD 0bf317218r ; -0.693147 ; DirectX::g_XMExpEst1
	DD	0bf317218r			; -0.693147
	DD	0bf317218r			; -0.693147
	DD	0bf317218r			; -0.693147
CONST	ENDS
;	COMDAT ?g_XM253@DirectX@@3UXMVECTORI32@1@B
CONST	SEGMENT
?g_XM253@DirectX@@3UXMVECTORI32@1@B DD 0fdH		; DirectX::g_XM253
	DD	0fdH
	DD	0fdH
	DD	0fdH
CONST	ENDS
;	COMDAT ?g_XMBinNeg150@DirectX@@3UXMVECTORU32@1@B
CONST	SEGMENT
?g_XMBinNeg150@DirectX@@3UXMVECTORU32@1@B DD 0c3160000H	; DirectX::g_XMBinNeg150
	DD	0c3160000H
	DD	0c3160000H
	DD	0c3160000H
CONST	ENDS
;	COMDAT ?g_XMBin128@DirectX@@3UXMVECTORI32@1@B
CONST	SEGMENT
?g_XMBin128@DirectX@@3UXMVECTORI32@1@B DD 043000000H	; DirectX::g_XMBin128
	DD	043000000H
	DD	043000000H
	DD	043000000H
CONST	ENDS
;	COMDAT ?g_XMNegQNaN@DirectX@@3UXMVECTORU32@1@B
CONST	SEGMENT
?g_XMNegQNaN@DirectX@@3UXMVECTORU32@1@B DD 0ffc00000H	; DirectX::g_XMNegQNaN
	DD	0ffc00000H
	DD	0ffc00000H
	DD	0ffc00000H
CONST	ENDS
;	COMDAT ?g_XMNegInfinity@DirectX@@3UXMVECTORU32@1@B
CONST	SEGMENT
?g_XMNegInfinity@DirectX@@3UXMVECTORU32@1@B DD 0ff800000H ; DirectX::g_XMNegInfinity
	DD	0ff800000H
	DD	0ff800000H
	DD	0ff800000H
CONST	ENDS
;	COMDAT ?g_XMMinNormal@DirectX@@3UXMVECTORI32@1@B
CONST	SEGMENT
?g_XMMinNormal@DirectX@@3UXMVECTORI32@1@B DD 0800000H	; DirectX::g_XMMinNormal
	DD	0800000H
	DD	0800000H
	DD	0800000H
CONST	ENDS
;	COMDAT ?g_XMNumTrailing@DirectX@@3UXMVECTORI32@1@B
CONST	SEGMENT
?g_XMNumTrailing@DirectX@@3UXMVECTORI32@1@B DD 017H	; DirectX::g_XMNumTrailing
	DD	017H
	DD	017H
	DD	017H
CONST	ENDS
;	COMDAT ?g_XMSubnormalExponent@DirectX@@3UXMVECTORI32@1@B
CONST	SEGMENT
?g_XMSubnormalExponent@DirectX@@3UXMVECTORI32@1@B DD 0ffffff82H ; DirectX::g_XMSubnormalExponent
	DD	0ffffff82H
	DD	0ffffff82H
	DD	0ffffff82H
CONST	ENDS
;	COMDAT ?g_XMExponentBias@DirectX@@3UXMVECTORI32@1@B
CONST	SEGMENT
?g_XMExponentBias@DirectX@@3UXMVECTORI32@1@B DD 07fH	; DirectX::g_XMExponentBias
	DD	07fH
	DD	07fH
	DD	07fH
CONST	ENDS
;	COMDAT ?g_XMsrgbA1@DirectX@@3UXMVECTORF32@1@B
CONST	SEGMENT
?g_XMsrgbA1@DirectX@@3UXMVECTORF32@1@B DD 03f870a3dr ; 1.055 ; DirectX::g_XMsrgbA1
	DD	03f870a3dr			; 1.055
	DD	03f870a3dr			; 1.055
	DD	03f800000r			; 1
CONST	ENDS
;	COMDAT ?g_XMsrgbA@DirectX@@3UXMVECTORF32@1@B
CONST	SEGMENT
?g_XMsrgbA@DirectX@@3UXMVECTORF32@1@B DD 03d6147aer ; 0.055 ; DirectX::g_XMsrgbA
	DD	03d6147aer			; 0.055
	DD	03d6147aer			; 0.055
	DD	000000000r			; 0
CONST	ENDS
;	COMDAT ?g_XMsrgbScale@DirectX@@3UXMVECTORF32@1@B
CONST	SEGMENT
?g_XMsrgbScale@DirectX@@3UXMVECTORF32@1@B DD 0414eb852r ; 12.92 ; DirectX::g_XMsrgbScale
	DD	0414eb852r			; 12.92
	DD	0414eb852r			; 12.92
	DD	03f800000r			; 1
CONST	ENDS
;	COMDAT ?g_XMUnsignedFix@DirectX@@3UXMVECTORF32@1@B
CONST	SEGMENT
?g_XMUnsignedFix@DirectX@@3UXMVECTORF32@1@B DD 04f000000r ; 2.14748e+09 ; DirectX::g_XMUnsignedFix
	DD	04f000000r			; 2.14748e+09
	DD	04f000000r			; 2.14748e+09
	DD	04f000000r			; 2.14748e+09
CONST	ENDS
;	COMDAT ?g_XMMaxUInt@DirectX@@3UXMVECTORF32@1@B
CONST	SEGMENT
?g_XMMaxUInt@DirectX@@3UXMVECTORF32@1@B DD 04f7fffffr ; 4.29497e+09 ; DirectX::g_XMMaxUInt
	DD	04f7fffffr			; 4.29497e+09
	DD	04f7fffffr			; 4.29497e+09
	DD	04f7fffffr			; 4.29497e+09
CONST	ENDS
;	COMDAT ?g_XMMaxInt@DirectX@@3UXMVECTORF32@1@B
CONST	SEGMENT
?g_XMMaxInt@DirectX@@3UXMVECTORF32@1@B DD 04effffffr ; 2.14748e+09 ; DirectX::g_XMMaxInt
	DD	04effffffr			; 2.14748e+09
	DD	04effffffr			; 2.14748e+09
	DD	04effffffr			; 2.14748e+09
CONST	ENDS
;	COMDAT ?g_XMFixUnsigned@DirectX@@3UXMVECTORF32@1@B
CONST	SEGMENT
?g_XMFixUnsigned@DirectX@@3UXMVECTORF32@1@B DD 04f000000r ; 2.14748e+09 ; DirectX::g_XMFixUnsigned
	DD	04f000000r			; 2.14748e+09
	DD	04f000000r			; 2.14748e+09
	DD	04f000000r			; 2.14748e+09
CONST	ENDS
;	COMDAT ?g_XMAddByte4@DirectX@@3UXMVECTORF32@1@B
CONST	SEGMENT
?g_XMAddByte4@DirectX@@3UXMVECTORF32@1@B DD 0c3000000r ; -128 ; DirectX::g_XMAddByte4
	DD	0c7000000r			; -32768
	DD	0cb000000r			; -8.38861e+06
	DD	000000000r			; 0
CONST	ENDS
;	COMDAT ?g_XMXorByte4@DirectX@@3UXMVECTORI32@1@B
CONST	SEGMENT
?g_XMXorByte4@DirectX@@3UXMVECTORI32@1@B DD 080H	; DirectX::g_XMXorByte4
	DD	08000H
	DD	0800000H
	DD	00H
CONST	ENDS
;	COMDAT ?g_XMMaskByte4@DirectX@@3UXMVECTORU32@1@B
CONST	SEGMENT
?g_XMMaskByte4@DirectX@@3UXMVECTORU32@1@B DD 0ffH	; DirectX::g_XMMaskByte4
	DD	0ff00H
	DD	0ff0000H
	DD	0ff000000H
CONST	ENDS
;	COMDAT ?g_XMMulDec4@DirectX@@3UXMVECTORF32@1@B
CONST	SEGMENT
?g_XMMulDec4@DirectX@@3UXMVECTORF32@1@B DD 03f800000r ; 1 ; DirectX::g_XMMulDec4
	DD	03a800000r			; 0.000976563
	DD	035800000r			; 9.53674e-07
	DD	030800000r			; 9.31323e-10
CONST	ENDS
;	COMDAT ?g_XMAddDec4@DirectX@@3UXMVECTORF32@1@B
CONST	SEGMENT
?g_XMAddDec4@DirectX@@3UXMVECTORF32@1@B DD 0c4000000r ; -512 ; DirectX::g_XMAddDec4
	DD	0c9000000r			; -524288
	DD	0ce000000r			; -5.36871e+08
	DD	000000000r			; 0
CONST	ENDS
;	COMDAT ?g_XMAddUDec4@DirectX@@3UXMVECTORF32@1@B
CONST	SEGMENT
?g_XMAddUDec4@DirectX@@3UXMVECTORF32@1@B DD 000000000r ; 0 ; DirectX::g_XMAddUDec4
	DD	000000000r			; 0
	DD	000000000r			; 0
	DD	04f000000r			; 2.14748e+09
CONST	ENDS
;	COMDAT ?g_XMXorDec4@DirectX@@3UXMVECTORI32@1@B
CONST	SEGMENT
?g_XMXorDec4@DirectX@@3UXMVECTORI32@1@B DD 0200H	; DirectX::g_XMXorDec4
	DD	080000H
	DD	020000000H
	DD	00H
CONST	ENDS
;	COMDAT ?g_XMMaskDec4@DirectX@@3UXMVECTORI32@1@B
CONST	SEGMENT
?g_XMMaskDec4@DirectX@@3UXMVECTORI32@1@B DD 03ffH	; DirectX::g_XMMaskDec4
	DD	0ffc00H
	DD	03ff00000H
	DD	0c0000000H
CONST	ENDS
;	COMDAT ?g_XMFlipYW@DirectX@@3UXMVECTORU32@1@B
CONST	SEGMENT
?g_XMFlipYW@DirectX@@3UXMVECTORU32@1@B DD 00H		; DirectX::g_XMFlipYW
	DD	080000000H
	DD	00H
	DD	080000000H
CONST	ENDS
;	COMDAT ?g_XMFlipZW@DirectX@@3UXMVECTORU32@1@B
CONST	SEGMENT
?g_XMFlipZW@DirectX@@3UXMVECTORU32@1@B DD 00H		; DirectX::g_XMFlipZW
	DD	00H
	DD	080000000H
	DD	080000000H
CONST	ENDS
;	COMDAT ?g_XMFlipYZ@DirectX@@3UXMVECTORU32@1@B
CONST	SEGMENT
?g_XMFlipYZ@DirectX@@3UXMVECTORU32@1@B DD 00H		; DirectX::g_XMFlipYZ
	DD	080000000H
	DD	080000000H
	DD	00H
CONST	ENDS
;	COMDAT ?g_XMFlipW@DirectX@@3UXMVECTORU32@1@B
CONST	SEGMENT
?g_XMFlipW@DirectX@@3UXMVECTORU32@1@B DD 00H		; DirectX::g_XMFlipW
	DD	00H
	DD	00H
	DD	080000000H
CONST	ENDS
;	COMDAT ?g_XMFlipZ@DirectX@@3UXMVECTORU32@1@B
CONST	SEGMENT
?g_XMFlipZ@DirectX@@3UXMVECTORU32@1@B DD 00H		; DirectX::g_XMFlipZ
	DD	00H
	DD	080000000H
	DD	00H
CONST	ENDS
;	COMDAT ?g_XMFlipY@DirectX@@3UXMVECTORU32@1@B
CONST	SEGMENT
?g_XMFlipY@DirectX@@3UXMVECTORU32@1@B DD 00H		; DirectX::g_XMFlipY
	DD	080000000H
	DD	00H
	DD	00H
CONST	ENDS
;	COMDAT ?g_XMFixupY16W16@DirectX@@3UXMVECTORF32@1@B
CONST	SEGMENT
?g_XMFixupY16W16@DirectX@@3UXMVECTORF32@1@B DD 03f800000r ; 1 ; DirectX::g_XMFixupY16W16
	DD	03f800000r			; 1
	DD	037800000r			; 1.52588e-05
	DD	037800000r			; 1.52588e-05
CONST	ENDS
;	COMDAT ?g_XMFixupY16@DirectX@@3UXMVECTORF32@1@B
CONST	SEGMENT
?g_XMFixupY16@DirectX@@3UXMVECTORF32@1@B DD 03f800000r ; 1 ; DirectX::g_XMFixupY16
	DD	037800000r			; 1.52588e-05
	DD	000000000r			; 0
	DD	000000000r			; 0
CONST	ENDS
;	COMDAT ?g_XMSelect1011@DirectX@@3UXMVECTORU32@1@B
CONST	SEGMENT
?g_XMSelect1011@DirectX@@3UXMVECTORU32@1@B DD 0ffffffffH ; DirectX::g_XMSelect1011
	DD	00H
	DD	0ffffffffH
	DD	0ffffffffH
CONST	ENDS
;	COMDAT ?g_XMSelect1110@DirectX@@3UXMVECTORU32@1@B
CONST	SEGMENT
?g_XMSelect1110@DirectX@@3UXMVECTORU32@1@B DD 0ffffffffH ; DirectX::g_XMSelect1110
	DD	0ffffffffH
	DD	0ffffffffH
	DD	00H
CONST	ENDS
;	COMDAT ?g_XMSelect1100@DirectX@@3UXMVECTORU32@1@B
CONST	SEGMENT
?g_XMSelect1100@DirectX@@3UXMVECTORU32@1@B DD 0ffffffffH ; DirectX::g_XMSelect1100
	DD	0ffffffffH
	DD	00H
	DD	00H
CONST	ENDS
;	COMDAT ?g_XMSelect1000@DirectX@@3UXMVECTORU32@1@B
CONST	SEGMENT
?g_XMSelect1000@DirectX@@3UXMVECTORU32@1@B DD 0ffffffffH ; DirectX::g_XMSelect1000
	DD	00H
	DD	00H
	DD	00H
CONST	ENDS
;	COMDAT ?g_XMOneHalfMinusEpsilon@DirectX@@3UXMVECTORI32@1@B
CONST	SEGMENT
?g_XMOneHalfMinusEpsilon@DirectX@@3UXMVECTORI32@1@B DD 03efffffdH ; DirectX::g_XMOneHalfMinusEpsilon
	DD	03efffffdH
	DD	03efffffdH
	DD	03efffffdH
CONST	ENDS
;	COMDAT ?g_XMSelect1010@DirectX@@3UXMVECTORU32@1@B
CONST	SEGMENT
?g_XMSelect1010@DirectX@@3UXMVECTORU32@1@B DD 0ffffffffH ; DirectX::g_XMSelect1010
	DD	00H
	DD	0ffffffffH
	DD	00H
CONST	ENDS
;	COMDAT ?g_XMSelect0101@DirectX@@3UXMVECTORU32@1@B
CONST	SEGMENT
?g_XMSelect0101@DirectX@@3UXMVECTORU32@1@B DD 00H	; DirectX::g_XMSelect0101
	DD	0ffffffffH
	DD	00H
	DD	0ffffffffH
CONST	ENDS
;	COMDAT ?g_XMNegateW@DirectX@@3UXMVECTORF32@1@B
CONST	SEGMENT
?g_XMNegateW@DirectX@@3UXMVECTORF32@1@B DD 03f800000r ; 1 ; DirectX::g_XMNegateW
	DD	03f800000r			; 1
	DD	03f800000r			; 1
	DD	0bf800000r			; -1
CONST	ENDS
;	COMDAT ?g_XMNegateZ@DirectX@@3UXMVECTORF32@1@B
CONST	SEGMENT
?g_XMNegateZ@DirectX@@3UXMVECTORF32@1@B DD 03f800000r ; 1 ; DirectX::g_XMNegateZ
	DD	03f800000r			; 1
	DD	0bf800000r			; -1
	DD	03f800000r			; 1
CONST	ENDS
;	COMDAT ?g_XMNegateY@DirectX@@3UXMVECTORF32@1@B
CONST	SEGMENT
?g_XMNegateY@DirectX@@3UXMVECTORF32@1@B DD 03f800000r ; 1 ; DirectX::g_XMNegateY
	DD	0bf800000r			; -1
	DD	03f800000r			; 1
	DD	03f800000r			; 1
CONST	ENDS
;	COMDAT ?g_XMNegateX@DirectX@@3UXMVECTORF32@1@B
CONST	SEGMENT
?g_XMNegateX@DirectX@@3UXMVECTORF32@1@B DD 0bf800000r ; -1 ; DirectX::g_XMNegateX
	DD	03f800000r			; 1
	DD	03f800000r			; 1
	DD	03f800000r			; 1
CONST	ENDS
;	COMDAT ?g_XMMaskByte@DirectX@@3UXMVECTORI32@1@B
CONST	SEGMENT
?g_XMMaskByte@DirectX@@3UXMVECTORI32@1@B DD 0ffH	; DirectX::g_XMMaskByte
	DD	0ffH
	DD	0ffH
	DD	0ffH
CONST	ENDS
;	COMDAT ?g_XMNoFraction@DirectX@@3UXMVECTORF32@1@B
CONST	SEGMENT
?g_XMNoFraction@DirectX@@3UXMVECTORF32@1@B DD 04b000000r ; 8.38861e+06 ; DirectX::g_XMNoFraction
	DD	04b000000r			; 8.38861e+06
	DD	04b000000r			; 8.38861e+06
	DD	04b000000r			; 8.38861e+06
CONST	ENDS
;	COMDAT ?g_XMNormalizeX16Y16Z16W16@DirectX@@3UXMVECTORF32@1@B
CONST	SEGMENT
?g_XMNormalizeX16Y16Z16W16@DirectX@@3UXMVECTORF32@1@B DD 038000100r ; 3.05185e-05 ; DirectX::g_XMNormalizeX16Y16Z16W16
	DD	038000100r			; 3.05185e-05
	DD	030000100r			; 4.65675e-10
	DD	030000100r			; 4.65675e-10
CONST	ENDS
;	COMDAT ?g_XMFixX16Y16Z16W16@DirectX@@3UXMVECTORF32@1@B
CONST	SEGMENT
?g_XMFixX16Y16Z16W16@DirectX@@3UXMVECTORF32@1@B DD 0c7000000r ; -32768 ; DirectX::g_XMFixX16Y16Z16W16
	DD	0c7000000r			; -32768
	DD	000000000r			; 0
	DD	000000000r			; 0
CONST	ENDS
;	COMDAT ?g_XMFlipX16Y16Z16W16@DirectX@@3UXMVECTORI32@1@B
CONST	SEGMENT
?g_XMFlipX16Y16Z16W16@DirectX@@3UXMVECTORI32@1@B DD 08000H ; DirectX::g_XMFlipX16Y16Z16W16
	DD	08000H
	DD	00H
	DD	00H
CONST	ENDS
;	COMDAT ?g_XMMaskX16Y16Z16W16@DirectX@@3UXMVECTORU32@1@B
CONST	SEGMENT
?g_XMMaskX16Y16Z16W16@DirectX@@3UXMVECTORU32@1@B DD 0ffffH ; DirectX::g_XMMaskX16Y16Z16W16
	DD	0ffffH
	DD	0ffff0000H
	DD	0ffff0000H
CONST	ENDS
;	COMDAT ?g_XMNormalizeX16Y16@DirectX@@3UXMVECTORF32@1@B
CONST	SEGMENT
?g_XMNormalizeX16Y16@DirectX@@3UXMVECTORF32@1@B DD 038000100r ; 3.05185e-05 ; DirectX::g_XMNormalizeX16Y16
	DD	030000100r			; 4.65675e-10
	DD	000000000r			; 0
	DD	000000000r			; 0
CONST	ENDS
;	COMDAT ?g_XMFixX16Y16@DirectX@@3UXMVECTORF32@1@B
CONST	SEGMENT
?g_XMFixX16Y16@DirectX@@3UXMVECTORF32@1@B DD 0c7000000r ; -32768 ; DirectX::g_XMFixX16Y16
	DD	000000000r			; 0
	DD	000000000r			; 0
	DD	000000000r			; 0
CONST	ENDS
;	COMDAT ?g_XMFlipX16Y16@DirectX@@3UXMVECTORI32@1@B
CONST	SEGMENT
?g_XMFlipX16Y16@DirectX@@3UXMVECTORI32@1@B DD 08000H	; DirectX::g_XMFlipX16Y16
	DD	00H
	DD	00H
	DD	00H
CONST	ENDS
;	COMDAT ?g_XMMaskX16Y16@DirectX@@3UXMVECTORU32@1@B
CONST	SEGMENT
?g_XMMaskX16Y16@DirectX@@3UXMVECTORU32@1@B DD 0ffffH	; DirectX::g_XMMaskX16Y16
	DD	0ffff0000H
	DD	00H
	DD	00H
CONST	ENDS
;	COMDAT ?g_XMNormalizeA2B10G10R10@DirectX@@3UXMVECTORF32@1@B
CONST	SEGMENT
?g_XMNormalizeA2B10G10R10@DirectX@@3UXMVECTORF32@1@B DD 03b004020r ; 0.00195695 ; DirectX::g_XMNormalizeA2B10G10R10
	DD	036004020r			; 1.91108e-06
	DD	031004020r			; 1.86629e-09
	DD	02faaaaabr			; 3.10441e-10
CONST	ENDS
;	COMDAT ?g_XMFixAA2B10G10R10@DirectX@@3UXMVECTORF32@1@B
CONST	SEGMENT
?g_XMFixAA2B10G10R10@DirectX@@3UXMVECTORF32@1@B DD 0c4000000r ; -512 ; DirectX::g_XMFixAA2B10G10R10
	DD	0c9000000r			; -524288
	DD	0ce000000r			; -5.36871e+08
	DD	04f000000r			; 2.14748e+09
CONST	ENDS
;	COMDAT ?g_XMFlipA2B10G10R10@DirectX@@3UXMVECTORU32@1@B
CONST	SEGMENT
?g_XMFlipA2B10G10R10@DirectX@@3UXMVECTORU32@1@B DD 0200H ; DirectX::g_XMFlipA2B10G10R10
	DD	080000H
	DD	020000000H
	DD	080000000H
CONST	ENDS
;	COMDAT ?g_XMMaskA2B10G10R10@DirectX@@3UXMVECTORU32@1@B
CONST	SEGMENT
?g_XMMaskA2B10G10R10@DirectX@@3UXMVECTORU32@1@B DD 03ffH ; DirectX::g_XMMaskA2B10G10R10
	DD	0ffc00H
	DD	03ff00000H
	DD	0c0000000H
CONST	ENDS
;	COMDAT ?g_XMNormalizeA8R8G8B8@DirectX@@3UXMVECTORF32@1@B
CONST	SEGMENT
?g_XMNormalizeA8R8G8B8@DirectX@@3UXMVECTORF32@1@B DD 033808081r ; 5.98384e-08 ; DirectX::g_XMNormalizeA8R8G8B8
	DD	037808081r			; 1.53186e-05
	DD	03b808081r			; 0.00392157
	DD	02f808081r			; 2.33744e-10
CONST	ENDS
;	COMDAT ?g_XMFixAA8R8G8B8@DirectX@@3UXMVECTORF32@1@B
CONST	SEGMENT
?g_XMFixAA8R8G8B8@DirectX@@3UXMVECTORF32@1@B DD 000000000r ; 0 ; DirectX::g_XMFixAA8R8G8B8
	DD	000000000r			; 0
	DD	000000000r			; 0
	DD	04f000000r			; 2.14748e+09
CONST	ENDS
;	COMDAT ?g_XMFlipA8R8G8B8@DirectX@@3UXMVECTORU32@1@B
CONST	SEGMENT
?g_XMFlipA8R8G8B8@DirectX@@3UXMVECTORU32@1@B DD 00H	; DirectX::g_XMFlipA8R8G8B8
	DD	00H
	DD	00H
	DD	080000000H
CONST	ENDS
;	COMDAT ?g_XMMaskA8R8G8B8@DirectX@@3UXMVECTORU32@1@B
CONST	SEGMENT
?g_XMMaskA8R8G8B8@DirectX@@3UXMVECTORU32@1@B DD 0ff0000H ; DirectX::g_XMMaskA8R8G8B8
	DD	0ff00H
	DD	0ffH
	DD	0ff000000H
CONST	ENDS
;	COMDAT ?g_XMNegOneMask@DirectX@@3UXMVECTORU32@1@B
CONST	SEGMENT
?g_XMNegOneMask@DirectX@@3UXMVECTORU32@1@B DD 0ffffffffH ; DirectX::g_XMNegOneMask
	DD	0ffffffffH
	DD	0ffffffffH
	DD	0ffffffffH
CONST	ENDS
;	COMDAT ?g_XMFltMax@DirectX@@3UXMVECTORI32@1@B
CONST	SEGMENT
?g_XMFltMax@DirectX@@3UXMVECTORI32@1@B DD 07f7fffffH	; DirectX::g_XMFltMax
	DD	07f7fffffH
	DD	07f7fffffH
	DD	07f7fffffH
CONST	ENDS
;	COMDAT ?g_XMFltMin@DirectX@@3UXMVECTORI32@1@B
CONST	SEGMENT
?g_XMFltMin@DirectX@@3UXMVECTORI32@1@B DD 0800000H	; DirectX::g_XMFltMin
	DD	0800000H
	DD	0800000H
	DD	0800000H
CONST	ENDS
;	COMDAT ?g_XMAbsMask@DirectX@@3UXMVECTORI32@1@B
CONST	SEGMENT
?g_XMAbsMask@DirectX@@3UXMVECTORI32@1@B DD 07fffffffH	; DirectX::g_XMAbsMask
	DD	07fffffffH
	DD	07fffffffH
	DD	07fffffffH
CONST	ENDS
;	COMDAT ?g_XMQNaNTest@DirectX@@3UXMVECTORI32@1@B
CONST	SEGMENT
?g_XMQNaNTest@DirectX@@3UXMVECTORI32@1@B DD 07fffffH	; DirectX::g_XMQNaNTest
	DD	07fffffH
	DD	07fffffH
	DD	07fffffH
CONST	ENDS
;	COMDAT ?g_XMQNaN@DirectX@@3UXMVECTORI32@1@B
CONST	SEGMENT
?g_XMQNaN@DirectX@@3UXMVECTORI32@1@B DD 07fc00000H	; DirectX::g_XMQNaN
	DD	07fc00000H
	DD	07fc00000H
	DD	07fc00000H
CONST	ENDS
;	COMDAT ?g_XMInfinity@DirectX@@3UXMVECTORI32@1@B
CONST	SEGMENT
?g_XMInfinity@DirectX@@3UXMVECTORI32@1@B DD 07f800000H	; DirectX::g_XMInfinity
	DD	07f800000H
	DD	07f800000H
	DD	07f800000H
CONST	ENDS
;	COMDAT ?g_XMEpsilon@DirectX@@3UXMVECTORF32@1@B
CONST	SEGMENT
?g_XMEpsilon@DirectX@@3UXMVECTORF32@1@B DD 034000000r ; 1.19209e-07 ; DirectX::g_XMEpsilon
	DD	034000000r			; 1.19209e-07
	DD	034000000r			; 1.19209e-07
	DD	034000000r			; 1.19209e-07
CONST	ENDS
;	COMDAT ?g_XMReciprocalTwoPi@DirectX@@3UXMVECTORF32@1@B
CONST	SEGMENT
?g_XMReciprocalTwoPi@DirectX@@3UXMVECTORF32@1@B DD 03e22f983r ; 0.159155 ; DirectX::g_XMReciprocalTwoPi
	DD	03e22f983r			; 0.159155
	DD	03e22f983r			; 0.159155
	DD	03e22f983r			; 0.159155
CONST	ENDS
;	COMDAT ?g_XMTwoPi@DirectX@@3UXMVECTORF32@1@B
CONST	SEGMENT
?g_XMTwoPi@DirectX@@3UXMVECTORF32@1@B DD 040c90fdbr ; 6.28319 ; DirectX::g_XMTwoPi
	DD	040c90fdbr			; 6.28319
	DD	040c90fdbr			; 6.28319
	DD	040c90fdbr			; 6.28319
CONST	ENDS
;	COMDAT ?g_XMReciprocalPi@DirectX@@3UXMVECTORF32@1@B
CONST	SEGMENT
?g_XMReciprocalPi@DirectX@@3UXMVECTORF32@1@B DD 03ea2f983r ; 0.31831 ; DirectX::g_XMReciprocalPi
	DD	03ea2f983r			; 0.31831
	DD	03ea2f983r			; 0.31831
	DD	03ea2f983r			; 0.31831
CONST	ENDS
;	COMDAT ?g_XMPi@DirectX@@3UXMVECTORF32@1@B
CONST	SEGMENT
?g_XMPi@DirectX@@3UXMVECTORF32@1@B DD 040490fdbr ; 3.14159 ; DirectX::g_XMPi
	DD	040490fdbr			; 3.14159
	DD	040490fdbr			; 3.14159
	DD	040490fdbr			; 3.14159
CONST	ENDS
;	COMDAT ?g_XMHalfPi@DirectX@@3UXMVECTORF32@1@B
CONST	SEGMENT
?g_XMHalfPi@DirectX@@3UXMVECTORF32@1@B DD 03fc90fdbr ; 1.5708 ; DirectX::g_XMHalfPi
	DD	03fc90fdbr			; 1.5708
	DD	03fc90fdbr			; 1.5708
	DD	03fc90fdbr			; 1.5708
CONST	ENDS
;	COMDAT ?g_XMNegativePi@DirectX@@3UXMVECTORF32@1@B
CONST	SEGMENT
?g_XMNegativePi@DirectX@@3UXMVECTORF32@1@B DD 0c0490fdbr ; -3.14159 ; DirectX::g_XMNegativePi
	DD	0c0490fdbr			; -3.14159
	DD	0c0490fdbr			; -3.14159
	DD	0c0490fdbr			; -3.14159
CONST	ENDS
;	COMDAT ?g_XMNegativeTwoPi@DirectX@@3UXMVECTORF32@1@B
CONST	SEGMENT
?g_XMNegativeTwoPi@DirectX@@3UXMVECTORF32@1@B DD 0c0c90fdbr ; -6.28319 ; DirectX::g_XMNegativeTwoPi
	DD	0c0c90fdbr			; -6.28319
	DD	0c0c90fdbr			; -6.28319
	DD	0c0c90fdbr			; -6.28319
CONST	ENDS
;	COMDAT ?g_XMNegativeOneHalf@DirectX@@3UXMVECTORF32@1@B
CONST	SEGMENT
?g_XMNegativeOneHalf@DirectX@@3UXMVECTORF32@1@B DD 0bf000000r ; -0.5 ; DirectX::g_XMNegativeOneHalf
	DD	0bf000000r			; -0.5
	DD	0bf000000r			; -0.5
	DD	0bf000000r			; -0.5
CONST	ENDS
;	COMDAT ?g_XMOneHalf@DirectX@@3UXMVECTORF32@1@B
CONST	SEGMENT
?g_XMOneHalf@DirectX@@3UXMVECTORF32@1@B DD 03f000000r ; 0.5 ; DirectX::g_XMOneHalf
	DD	03f000000r			; 0.5
	DD	03f000000r			; 0.5
	DD	03f000000r			; 0.5
CONST	ENDS
;	COMDAT ?g_XMNegativeOne@DirectX@@3UXMVECTORF32@1@B
CONST	SEGMENT
?g_XMNegativeOne@DirectX@@3UXMVECTORF32@1@B DD 0bf800000r ; -1 ; DirectX::g_XMNegativeOne
	DD	0bf800000r			; -1
	DD	0bf800000r			; -1
	DD	0bf800000r			; -1
CONST	ENDS
;	COMDAT ?g_XMSix@DirectX@@3UXMVECTORF32@1@B
CONST	SEGMENT
?g_XMSix@DirectX@@3UXMVECTORF32@1@B DD 040c00000r ; 6	; DirectX::g_XMSix
	DD	040c00000r			; 6
	DD	040c00000r			; 6
	DD	040c00000r			; 6
CONST	ENDS
;	COMDAT ?g_XMFour@DirectX@@3UXMVECTORF32@1@B
CONST	SEGMENT
?g_XMFour@DirectX@@3UXMVECTORF32@1@B DD 040800000r ; 4	; DirectX::g_XMFour
	DD	040800000r			; 4
	DD	040800000r			; 4
	DD	040800000r			; 4
CONST	ENDS
;	COMDAT ?g_XMTwo@DirectX@@3UXMVECTORF32@1@B
CONST	SEGMENT
?g_XMTwo@DirectX@@3UXMVECTORF32@1@B DD 040000000r ; 2	; DirectX::g_XMTwo
	DD	040000000r			; 2
	DD	040000000r			; 2
	DD	040000000r			; 2
CONST	ENDS
;	COMDAT ?g_XMZero@DirectX@@3UXMVECTORF32@1@B
CONST	SEGMENT
?g_XMZero@DirectX@@3UXMVECTORF32@1@B DD 000000000r ; 0	; DirectX::g_XMZero
	DD	000000000r			; 0
	DD	000000000r			; 0
	DD	000000000r			; 0
CONST	ENDS
;	COMDAT ?g_XMOne3@DirectX@@3UXMVECTORF32@1@B
CONST	SEGMENT
?g_XMOne3@DirectX@@3UXMVECTORF32@1@B DD 03f800000r ; 1	; DirectX::g_XMOne3
	DD	03f800000r			; 1
	DD	03f800000r			; 1
	DD	000000000r			; 0
CONST	ENDS
;	COMDAT ?g_XMOne@DirectX@@3UXMVECTORF32@1@B
CONST	SEGMENT
?g_XMOne@DirectX@@3UXMVECTORF32@1@B DD 03f800000r ; 1	; DirectX::g_XMOne
	DD	03f800000r			; 1
	DD	03f800000r			; 1
	DD	03f800000r			; 1
CONST	ENDS
;	COMDAT ?g_XMMaskW@DirectX@@3UXMVECTORU32@1@B
CONST	SEGMENT
?g_XMMaskW@DirectX@@3UXMVECTORU32@1@B DD 00H		; DirectX::g_XMMaskW
	DD	00H
	DD	00H
	DD	0ffffffffH
CONST	ENDS
;	COMDAT ?g_XMMaskZ@DirectX@@3UXMVECTORU32@1@B
CONST	SEGMENT
?g_XMMaskZ@DirectX@@3UXMVECTORU32@1@B DD 00H		; DirectX::g_XMMaskZ
	DD	00H
	DD	0ffffffffH
	DD	00H
CONST	ENDS
;	COMDAT ?g_XMMaskY@DirectX@@3UXMVECTORU32@1@B
CONST	SEGMENT
?g_XMMaskY@DirectX@@3UXMVECTORU32@1@B DD 00H		; DirectX::g_XMMaskY
	DD	0ffffffffH
	DD	00H
	DD	00H
CONST	ENDS
;	COMDAT ?g_XMMaskX@DirectX@@3UXMVECTORU32@1@B
CONST	SEGMENT
?g_XMMaskX@DirectX@@3UXMVECTORU32@1@B DD 0ffffffffH	; DirectX::g_XMMaskX
	DD	00H
	DD	00H
	DD	00H
CONST	ENDS
;	COMDAT ?g_XMMask3@DirectX@@3UXMVECTORU32@1@B
CONST	SEGMENT
?g_XMMask3@DirectX@@3UXMVECTORU32@1@B DD 0ffffffffH	; DirectX::g_XMMask3
	DD	0ffffffffH
	DD	0ffffffffH
	DD	00H
CONST	ENDS
;	COMDAT ?g_XMNegate3@DirectX@@3UXMVECTORU32@1@B
CONST	SEGMENT
?g_XMNegate3@DirectX@@3UXMVECTORU32@1@B DD 080000000H	; DirectX::g_XMNegate3
	DD	080000000H
	DD	080000000H
	DD	00H
CONST	ENDS
;	COMDAT ?g_XMNegativeZero@DirectX@@3UXMVECTORU32@1@B
CONST	SEGMENT
?g_XMNegativeZero@DirectX@@3UXMVECTORU32@1@B DD 080000000H ; DirectX::g_XMNegativeZero
	DD	080000000H
	DD	080000000H
	DD	080000000H
CONST	ENDS
;	COMDAT ?g_XMNegIdentityR3@DirectX@@3UXMVECTORF32@1@B
CONST	SEGMENT
?g_XMNegIdentityR3@DirectX@@3UXMVECTORF32@1@B DD 000000000r ; 0 ; DirectX::g_XMNegIdentityR3
	DD	000000000r			; 0
	DD	000000000r			; 0
	DD	0bf800000r			; -1
CONST	ENDS
;	COMDAT ?g_XMNegIdentityR2@DirectX@@3UXMVECTORF32@1@B
CONST	SEGMENT
?g_XMNegIdentityR2@DirectX@@3UXMVECTORF32@1@B DD 000000000r ; 0 ; DirectX::g_XMNegIdentityR2
	DD	000000000r			; 0
	DD	0bf800000r			; -1
	DD	000000000r			; 0
CONST	ENDS
;	COMDAT ?g_XMNegIdentityR1@DirectX@@3UXMVECTORF32@1@B
CONST	SEGMENT
?g_XMNegIdentityR1@DirectX@@3UXMVECTORF32@1@B DD 000000000r ; 0 ; DirectX::g_XMNegIdentityR1
	DD	0bf800000r			; -1
	DD	000000000r			; 0
	DD	000000000r			; 0
CONST	ENDS
;	COMDAT ?g_XMNegIdentityR0@DirectX@@3UXMVECTORF32@1@B
CONST	SEGMENT
?g_XMNegIdentityR0@DirectX@@3UXMVECTORF32@1@B DD 0bf800000r ; -1 ; DirectX::g_XMNegIdentityR0
	DD	000000000r			; 0
	DD	000000000r			; 0
	DD	000000000r			; 0
CONST	ENDS
;	COMDAT ?g_XMIdentityR3@DirectX@@3UXMVECTORF32@1@B
CONST	SEGMENT
?g_XMIdentityR3@DirectX@@3UXMVECTORF32@1@B DD 000000000r ; 0 ; DirectX::g_XMIdentityR3
	DD	000000000r			; 0
	DD	000000000r			; 0
	DD	03f800000r			; 1
CONST	ENDS
;	COMDAT ?g_XMIdentityR2@DirectX@@3UXMVECTORF32@1@B
CONST	SEGMENT
?g_XMIdentityR2@DirectX@@3UXMVECTORF32@1@B DD 000000000r ; 0 ; DirectX::g_XMIdentityR2
	DD	000000000r			; 0
	DD	03f800000r			; 1
	DD	000000000r			; 0
CONST	ENDS
;	COMDAT ?g_XMIdentityR1@DirectX@@3UXMVECTORF32@1@B
CONST	SEGMENT
?g_XMIdentityR1@DirectX@@3UXMVECTORF32@1@B DD 000000000r ; 0 ; DirectX::g_XMIdentityR1
	DD	03f800000r			; 1
	DD	000000000r			; 0
	DD	000000000r			; 0
CONST	ENDS
;	COMDAT ?g_XMIdentityR0@DirectX@@3UXMVECTORF32@1@B
CONST	SEGMENT
?g_XMIdentityR0@DirectX@@3UXMVECTORF32@1@B DD 03f800000r ; 1 ; DirectX::g_XMIdentityR0
	DD	000000000r			; 0
	DD	000000000r			; 0
	DD	000000000r			; 0
CONST	ENDS
;	COMDAT ?g_XMPiConstants0@DirectX@@3UXMVECTORF32@1@B
CONST	SEGMENT
?g_XMPiConstants0@DirectX@@3UXMVECTORF32@1@B DD 040490fdbr ; 3.14159 ; DirectX::g_XMPiConstants0
	DD	040c90fdbr			; 6.28319
	DD	03ea2f983r			; 0.31831
	DD	03e22f983r			; 0.159155
CONST	ENDS
;	COMDAT ?g_XMArcEstCoefficients@DirectX@@3UXMVECTORF32@1@B
CONST	SEGMENT
?g_XMArcEstCoefficients@DirectX@@3UXMVECTORF32@1@B DD 03fc90da4r ; 1.57073 ; DirectX::g_XMArcEstCoefficients
	DD	0be593484r			; -0.212114
	DD	03d981627r			; 0.074261
	DD	0bc996e30r			; -0.0187293
CONST	ENDS
;	COMDAT ?g_XMTanEstCoefficients@DirectX@@3UXMVECTORF32@1@B
CONST	SEGMENT
?g_XMTanEstCoefficients@DirectX@@3UXMVECTORF32@1@B DD 0401ef9dbr ; 2.484 ; DirectX::g_XMTanEstCoefficients
	DD	0be482f23r			; -0.195492
	DD	0401de9e6r			; 2.4674
	DD	03ea2f983r			; 0.31831
CONST	ENDS
;	COMDAT ?g_XMATanEstCoefficients1@DirectX@@3UXMVECTORF32@1@B
CONST	SEGMENT
?g_XMATanEstCoefficients1@DirectX@@3UXMVECTORF32@1@B DD 0bea91d04r ; -0.330299 ; DirectX::g_XMATanEstCoefficients1
	DD	03e3876e2r			; 0.180141
	DD	0bdae5a36r			; -0.085133
	DD	03caaae5fr			; 0.0208351
CONST	ENDS
;	COMDAT ?g_XMATanEstCoefficients0@DirectX@@3UXMVECTORF32@1@B
CONST	SEGMENT
?g_XMATanEstCoefficients0@DirectX@@3UXMVECTORF32@1@B DD 03f7ff738r ; 0.999866 ; DirectX::g_XMATanEstCoefficients0
	DD	03f7ff738r			; 0.999866
	DD	03f7ff738r			; 0.999866
	DD	03f7ff738r			; 0.999866
CONST	ENDS
;	COMDAT ?g_XMATanCoefficients1@DirectX@@3UXMVECTORF32@1@B
CONST	SEGMENT
?g_XMATanCoefficients1@DirectX@@3UXMVECTORF32@1@B DD 0bd9a3174r ; -0.0752896 ; DirectX::g_XMATanCoefficients1
	DD	03d2fc1fer			; 0.0429096
	DD	0bc846e02r			; -0.0161657
	DD	03b3bd74ar			; 0.00286623
CONST	ENDS
;	COMDAT ?g_XMATanCoefficients0@DirectX@@3UXMVECTORF32@1@B
CONST	SEGMENT
?g_XMATanCoefficients0@DirectX@@3UXMVECTORF32@1@B DD 0beaaaa6cr ; -0.333331 ; DirectX::g_XMATanCoefficients0
	DD	03e4cbbe5r			; 0.199936
	DD	0be117fc7r			; -0.142089
	DD	03dda3d83r			; 0.106563
CONST	ENDS
;	COMDAT ?g_XMArcCoefficients1@DirectX@@3UXMVECTORF32@1@B
CONST	SEGMENT
?g_XMArcCoefficients1@DirectX@@3UXMVECTORF32@1@B DD 03cfd10f8r ; 0.0308919 ; DirectX::g_XMArcCoefficients1
	DD	0bc8bfc66r			; -0.0170881
	DD	03bda90c5r			; 0.00667009
	DD	0baa57a2cr			; -0.00126249
CONST	ENDS
;	COMDAT ?g_XMArcCoefficients0@DirectX@@3UXMVECTORF32@1@B
CONST	SEGMENT
?g_XMArcCoefficients0@DirectX@@3UXMVECTORF32@1@B DD 03fc90fdar ; 1.5708 ; DirectX::g_XMArcCoefficients0
	DD	0be5bbfcar			; -0.214599
	DD	03db63a9er			; 0.088979
	DD	0bd4d8392r			; -0.0501743
CONST	ENDS
;	COMDAT ?g_XMTanCoefficients2@DirectX@@3UXMVECTORF32@1@B
CONST	SEGMENT
?g_XMTanCoefficients2@DirectX@@3UXMVECTORF32@1@B DD 03a1aac12r ; 0.000590027 ; DirectX::g_XMTanCoefficients2
	DD	0397abeb9r			; 0.000239129
	DD	038cb3f0cr			; 9.69154e-05
	DD	03824bec9r			; 3.92783e-05
CONST	ENDS
;	COMDAT ?g_XMTanCoefficients1@DirectX@@3UXMVECTORF32@1@B
CONST	SEGMENT
?g_XMTanCoefficients1@DirectX@@3UXMVECTORF32@1@B DD 03cb327a4r ; 0.0218695 ; DirectX::g_XMTanCoefficients1
	DD	03c11371br			; 0.00886324
	DD	03b6b69e9r			; 0.00359213
	DD	03abed1b3r			; 0.00145583
CONST	ENDS
;	COMDAT ?g_XMTanCoefficients0@DirectX@@3UXMVECTORF32@1@B
CONST	SEGMENT
?g_XMTanCoefficients0@DirectX@@3UXMVECTORF32@1@B DD 03f800000r ; 1 ; DirectX::g_XMTanCoefficients0
	DD	03eaaaaabr			; 0.333333
	DD	03e088889r			; 0.133333
	DD	03d5d0dd1r			; 0.0539683
CONST	ENDS
;	COMDAT ?g_XMCosCoefficients1@DirectX@@3UXMVECTORF32@1@B
CONST	SEGMENT
?g_XMCosCoefficients1@DirectX@@3UXMVECTORF32@1@B DD 0b48bdd11r ; -2.60516e-07 ; DirectX::g_XMCosCoefficients1
	DD	0befff67er			; -0.499927
	DD	03d29f587r			; 0.0414939
	DD	0baa69fdbr			; -0.00127124
CONST	ENDS
;	COMDAT ?g_XMCosCoefficients0@DirectX@@3UXMVECTORF32@1@B
CONST	SEGMENT
?g_XMCosCoefficients0@DirectX@@3UXMVECTORF32@1@B DD 0bf000000r ; -0.5 ; DirectX::g_XMCosCoefficients0
	DD	03d2aaaa3r			; 0.0416666
	DD	0bab609aar			; -0.00138884
	DD	037cfb4c2r			; 2.47605e-05
CONST	ENDS
;	COMDAT ?g_XMSinCoefficients1@DirectX@@3UXMVECTORF32@1@B
CONST	SEGMENT
?g_XMSinCoefficients1@DirectX@@3UXMVECTORF32@1@B DD 0b2cd365br ; -2.38899e-08 ; DirectX::g_XMSinCoefficients1
	DD	0be2aa888r			; -0.166659
	DD	03c08373cr			; 0.00831395
	DD	0b9423ec8r			; -0.000185247
CONST	ENDS
;	COMDAT ?g_XMSinCoefficients0@DirectX@@3UXMVECTORF32@1@B
CONST	SEGMENT
?g_XMSinCoefficients0@DirectX@@3UXMVECTORF32@1@B DD 0be2aaaabr ; -0.166667 ; DirectX::g_XMSinCoefficients0
	DD	03c088886r			; 0.00833333
	DD	0b9500bf1r			; -0.000198409
	DD	03638b88er			; 2.75256e-06
CONST	ENDS
;	COMDAT ?g_UnitPlaneEpsilon@Internal@DirectX@@3UXMVECTORF32@2@B
CONST	SEGMENT
?g_UnitPlaneEpsilon@Internal@DirectX@@3UXMVECTORF32@2@B DD 038d1b717r ; 0.0001 ; DirectX::Internal::g_UnitPlaneEpsilon
	DD	038d1b717r			; 0.0001
	DD	038d1b717r			; 0.0001
	DD	038d1b717r			; 0.0001
CONST	ENDS
;	COMDAT ?g_UnitQuaternionEpsilon@Internal@DirectX@@3UXMVECTORF32@2@B
CONST	SEGMENT
?g_UnitQuaternionEpsilon@Internal@DirectX@@3UXMVECTORF32@2@B DD 038d1b717r ; 0.0001 ; DirectX::Internal::g_UnitQuaternionEpsilon
	DD	038d1b717r			; 0.0001
	DD	038d1b717r			; 0.0001
	DD	038d1b717r			; 0.0001
CONST	ENDS
;	COMDAT ?g_UnitVectorEpsilon@Internal@DirectX@@3UXMVECTORF32@2@B
CONST	SEGMENT
?g_UnitVectorEpsilon@Internal@DirectX@@3UXMVECTORF32@2@B DD 038d1b717r ; 0.0001 ; DirectX::Internal::g_UnitVectorEpsilon
	DD	038d1b717r			; 0.0001
	DD	038d1b717r			; 0.0001
	DD	038d1b717r			; 0.0001
CONST	ENDS
;	COMDAT ?g_FltMax@DirectX@@3UXMVECTORF32@1@B
CONST	SEGMENT
?g_FltMax@DirectX@@3UXMVECTORF32@1@B DD 07f7fffffr ; 3.40282e+38 ; DirectX::g_FltMax
	DD	07f7fffffr			; 3.40282e+38
	DD	07f7fffffr			; 3.40282e+38
	DD	07f7fffffr			; 3.40282e+38
CONST	ENDS
;	COMDAT ?g_FltMin@DirectX@@3UXMVECTORF32@1@B
CONST	SEGMENT
?g_FltMin@DirectX@@3UXMVECTORF32@1@B DD 0ff7fffffr ; -3.40282e+38 ; DirectX::g_FltMin
	DD	0ff7fffffr			; -3.40282e+38
	DD	0ff7fffffr			; -3.40282e+38
	DD	0ff7fffffr			; -3.40282e+38
CONST	ENDS
;	COMDAT ?g_RayNegEpsilon@DirectX@@3UXMVECTORF32@1@B
CONST	SEGMENT
?g_RayNegEpsilon@DirectX@@3UXMVECTORF32@1@B DD 09e3ce508r ; -1e-20 ; DirectX::g_RayNegEpsilon
	DD	09e3ce508r			; -1e-20
	DD	09e3ce508r			; -1e-20
	DD	09e3ce508r			; -1e-20
CONST	ENDS
;	COMDAT ?g_RayEpsilon@DirectX@@3UXMVECTORF32@1@B
CONST	SEGMENT
?g_RayEpsilon@DirectX@@3UXMVECTORF32@1@B DD 01e3ce508r ; 1e-20 ; DirectX::g_RayEpsilon
	DD	01e3ce508r			; 1e-20
	DD	01e3ce508r			; 1e-20
	DD	01e3ce508r			; 1e-20
CONST	ENDS
;	COMDAT ?g_BoxOffset@DirectX@@3QBUXMVECTORF32@1@B
CONST	SEGMENT
?g_BoxOffset@DirectX@@3QBUXMVECTORF32@1@B DD 0bf800000r ; -1 ; DirectX::g_BoxOffset
	DD	0bf800000r			; -1
	DD	03f800000r			; 1
	DD	000000000r			; 0
	DD	03f800000r			; 1
	DD	0bf800000r			; -1
	DD	03f800000r			; 1
	DD	000000000r			; 0
	DD	03f800000r			; 1
	DD	03f800000r			; 1
	DD	03f800000r			; 1
	DD	000000000r			; 0
	DD	0bf800000r			; -1
	DD	03f800000r			; 1
	DD	03f800000r			; 1
	DD	000000000r			; 0
	DD	0bf800000r			; -1
	DD	0bf800000r			; -1
	DD	0bf800000r			; -1
	DD	000000000r			; 0
	DD	03f800000r			; 1
	DD	0bf800000r			; -1
	DD	0bf800000r			; -1
	DD	000000000r			; 0
	DD	03f800000r			; 1
	DD	03f800000r			; 1
	DD	0bf800000r			; -1
	DD	000000000r			; 0
	DD	0bf800000r			; -1
	DD	03f800000r			; 1
	DD	0bf800000r			; -1
	DD	000000000r			; 0
CONST	ENDS
PUBLIC	??_H@YAXPEAX_K1P6APEAX0@Z@Z			; `vector constructor iterator'
PUBLIC	?__empty_global_delete@@YAXPEAX@Z		; __empty_global_delete
PUBLIC	?__empty_global_delete@@YAXPEAX_K@Z		; __empty_global_delete
PUBLIC	wmemcpy
PUBLIC	wmemmove
PUBLIC	?acos@@YAMM@Z					; acos
PUBLIC	??2@YAPEAX_KPEAX@Z				; operator new
PUBLIC	?length@?$char_traits@_W@std@@SA_KPEB_W@Z	; std::char_traits<wchar_t>::length
PUBLIC	?copy@?$char_traits@_W@std@@SAPEA_WPEA_WPEB_W_K@Z ; std::char_traits<wchar_t>::copy
PUBLIC	?move@?$char_traits@_W@std@@SAPEA_WPEA_WPEB_W_K@Z ; std::char_traits<wchar_t>::move
PUBLIC	?assign@?$char_traits@_W@std@@SAXAEA_WAEB_W@Z	; std::char_traits<wchar_t>::assign
PUBLIC	??0_Container_proxy@std@@QEAA@XZ		; std::_Container_proxy::_Container_proxy
PUBLIC	??0_Container_base12@std@@QEAA@XZ		; std::_Container_base12::_Container_base12
PUBLIC	??1_Container_base12@std@@QEAA@XZ		; std::_Container_base12::~_Container_base12
PUBLIC	?_Orphan_all@_Container_base12@std@@QEAAXXZ	; std::_Container_base12::_Orphan_all
PUBLIC	?_Allocate@std@@YAPEAX_K0_N@Z			; std::_Allocate
PUBLIC	?_Deallocate@std@@YAXPEAX_K1@Z			; std::_Deallocate
PUBLIC	??0?$allocator@_W@std@@QEAA@XZ			; std::allocator<wchar_t>::allocator<wchar_t>
PUBLIC	?deallocate@?$allocator@_W@std@@QEAAXPEA_W_K@Z	; std::allocator<wchar_t>::deallocate
PUBLIC	?allocate@?$allocator@_W@std@@QEAAPEA_W_K@Z	; std::allocator<wchar_t>::allocate
PUBLIC	?max_size@?$allocator@_W@std@@QEBA_KXZ		; std::allocator<wchar_t>::max_size
PUBLIC	?max_size@?$allocator_traits@V?$allocator@_W@std@@@std@@SA_KAEBV?$allocator@_W@2@@Z ; std::allocator_traits<std::allocator<wchar_t> >::max_size
PUBLIC	??0?$_Wrap_alloc@V?$allocator@_W@std@@@std@@QEAA@XZ ; std::_Wrap_alloc<std::allocator<wchar_t> >::_Wrap_alloc<std::allocator<wchar_t> >
PUBLIC	?allocate@?$_Wrap_alloc@V?$allocator@_W@std@@@std@@QEAAPEA_W_K@Z ; std::_Wrap_alloc<std::allocator<wchar_t> >::allocate
PUBLIC	?deallocate@?$_Wrap_alloc@V?$allocator@_W@std@@@std@@QEAAXPEA_W_K@Z ; std::_Wrap_alloc<std::allocator<wchar_t> >::deallocate
PUBLIC	?max_size@?$_Wrap_alloc@V?$allocator@_W@std@@@std@@QEBA_KU_Nil@2@@Z ; std::_Wrap_alloc<std::allocator<wchar_t> >::max_size
PUBLIC	??0?$_String_val@U?$_Simple_types@_W@std@@@std@@QEAA@XZ ; std::_String_val<std::_Simple_types<wchar_t> >::_String_val<std::_Simple_types<wchar_t> >
PUBLIC	?_Myptr@?$_String_val@U?$_Simple_types@_W@std@@@std@@QEAAPEA_WXZ ; std::_String_val<std::_Simple_types<wchar_t> >::_Myptr
PUBLIC	?_Myptr@?$_String_val@U?$_Simple_types@_W@std@@@std@@QEBAPEB_WXZ ; std::_String_val<std::_Simple_types<wchar_t> >::_Myptr
PUBLIC	??0_Bxty@?$_String_val@U?$_Simple_types@_W@std@@@std@@QEAA@XZ ; std::_String_val<std::_Simple_types<wchar_t> >::_Bxty::_Bxty
PUBLIC	??1_Bxty@?$_String_val@U?$_Simple_types@_W@std@@@std@@QEAA@XZ ; std::_String_val<std::_Simple_types<wchar_t> >::_Bxty::~_Bxty
PUBLIC	??1?$_String_val@U?$_Simple_types@_W@std@@@std@@QEAA@XZ ; std::_String_val<std::_Simple_types<wchar_t> >::~_String_val<std::_Simple_types<wchar_t> >
PUBLIC	?_Myptr@?$_String_alloc@U?$_String_base_types@_WV?$allocator@_W@std@@@std@@@std@@QEAAPEA_WXZ ; std::_String_alloc<std::_String_base_types<wchar_t,std::allocator<wchar_t> > >::_Myptr
PUBLIC	?_Myptr@?$_String_alloc@U?$_String_base_types@_WV?$allocator@_W@std@@@std@@@std@@QEBAPEB_WXZ ; std::_String_alloc<std::_String_base_types<wchar_t,std::allocator<wchar_t> > >::_Myptr
PUBLIC	??0?$_String_alloc@U?$_String_base_types@_WV?$allocator@_W@std@@@std@@@std@@QEAA@XZ ; std::_String_alloc<std::_String_base_types<wchar_t,std::allocator<wchar_t> > >::_String_alloc<std::_String_base_types<wchar_t,std::allocator<wchar_t> > >
PUBLIC	??1?$_String_alloc@U?$_String_base_types@_WV?$allocator@_W@std@@@std@@@std@@QEAA@XZ ; std::_String_alloc<std::_String_base_types<wchar_t,std::allocator<wchar_t> > >::~_String_alloc<std::_String_base_types<wchar_t,std::allocator<wchar_t> > >
PUBLIC	?_Alloc_proxy@?$_String_alloc@U?$_String_base_types@_WV?$allocator@_W@std@@@std@@@std@@QEAAXXZ ; std::_String_alloc<std::_String_base_types<wchar_t,std::allocator<wchar_t> > >::_Alloc_proxy
PUBLIC	?_Free_proxy@?$_String_alloc@U?$_String_base_types@_WV?$allocator@_W@std@@@std@@@std@@QEAAXXZ ; std::_String_alloc<std::_String_base_types<wchar_t,std::allocator<wchar_t> > >::_Free_proxy
PUBLIC	?_Myproxy@?$_String_alloc@U?$_String_base_types@_WV?$allocator@_W@std@@@std@@@std@@QEAAAEAPEAU_Container_proxy@2@XZ ; std::_String_alloc<std::_String_base_types<wchar_t,std::allocator<wchar_t> > >::_Myproxy
PUBLIC	?_Orphan_all@?$_String_alloc@U?$_String_base_types@_WV?$allocator@_W@std@@@std@@@std@@QEAAXXZ ; std::_String_alloc<std::_String_base_types<wchar_t,std::allocator<wchar_t> > >::_Orphan_all
PUBLIC	?_Getal@?$_String_alloc@U?$_String_base_types@_WV?$allocator@_W@std@@@std@@@std@@QEAAAEAU?$_Wrap_alloc@V?$allocator@_W@std@@@2@XZ ; std::_String_alloc<std::_String_base_types<wchar_t,std::allocator<wchar_t> > >::_Getal
PUBLIC	?_Getal@?$_String_alloc@U?$_String_base_types@_WV?$allocator@_W@std@@@std@@@std@@QEBAAEBU?$_Wrap_alloc@V?$allocator@_W@std@@@2@XZ ; std::_String_alloc<std::_String_base_types<wchar_t,std::allocator<wchar_t> > >::_Getal
PUBLIC	?_Get_data@?$_String_alloc@U?$_String_base_types@_WV?$allocator@_W@std@@@std@@@std@@QEAAAEAV?$_String_val@U?$_Simple_types@_W@std@@@2@XZ ; std::_String_alloc<std::_String_base_types<wchar_t,std::allocator<wchar_t> > >::_Get_data
PUBLIC	?_Get_data@?$_String_alloc@U?$_String_base_types@_WV?$allocator@_W@std@@@std@@@std@@QEBAAEBV?$_String_val@U?$_Simple_types@_W@std@@@2@XZ ; std::_String_alloc<std::_String_base_types<wchar_t,std::allocator<wchar_t> > >::_Get_data
PUBLIC	?_Bx@?$_String_alloc@U?$_String_base_types@_WV?$allocator@_W@std@@@std@@@std@@QEAAAEAT_Bxty@?$_String_val@U?$_Simple_types@_W@std@@@2@XZ ; std::_String_alloc<std::_String_base_types<wchar_t,std::allocator<wchar_t> > >::_Bx
PUBLIC	?_Mysize@?$_String_alloc@U?$_String_base_types@_WV?$allocator@_W@std@@@std@@@std@@QEAAAEA_KXZ ; std::_String_alloc<std::_String_base_types<wchar_t,std::allocator<wchar_t> > >::_Mysize
PUBLIC	?_Mysize@?$_String_alloc@U?$_String_base_types@_WV?$allocator@_W@std@@@std@@@std@@QEBAAEB_KXZ ; std::_String_alloc<std::_String_base_types<wchar_t,std::allocator<wchar_t> > >::_Mysize
PUBLIC	?_Myres@?$_String_alloc@U?$_String_base_types@_WV?$allocator@_W@std@@@std@@@std@@QEAAAEA_KXZ ; std::_String_alloc<std::_String_base_types<wchar_t,std::allocator<wchar_t> > >::_Myres
PUBLIC	?_Get_first@?$_Compressed_pair@U?$_Wrap_alloc@V?$allocator@_W@std@@@std@@V?$_String_val@U?$_Simple_types@_W@std@@@2@$00@std@@QEAAAEAU?$_Wrap_alloc@V?$allocator@_W@std@@@2@XZ ; std::_Compressed_pair<std::_Wrap_alloc<std::allocator<wchar_t> >,std::_String_val<std::_Simple_types<wchar_t> >,1>::_Get_first
PUBLIC	?_Get_first@?$_Compressed_pair@U?$_Wrap_alloc@V?$allocator@_W@std@@@std@@V?$_String_val@U?$_Simple_types@_W@std@@@2@$00@std@@QEBAAEBU?$_Wrap_alloc@V?$allocator@_W@std@@@2@XZ ; std::_Compressed_pair<std::_Wrap_alloc<std::allocator<wchar_t> >,std::_String_val<std::_Simple_types<wchar_t> >,1>::_Get_first
PUBLIC	?_Get_second@?$_Compressed_pair@U?$_Wrap_alloc@V?$allocator@_W@std@@@std@@V?$_String_val@U?$_Simple_types@_W@std@@@2@$00@std@@QEAAAEAV?$_String_val@U?$_Simple_types@_W@std@@@2@XZ ; std::_Compressed_pair<std::_Wrap_alloc<std::allocator<wchar_t> >,std::_String_val<std::_Simple_types<wchar_t> >,1>::_Get_second
PUBLIC	?_Get_second@?$_Compressed_pair@U?$_Wrap_alloc@V?$allocator@_W@std@@@std@@V?$_String_val@U?$_Simple_types@_W@std@@@2@$00@std@@QEBAAEBV?$_String_val@U?$_Simple_types@_W@std@@@2@XZ ; std::_Compressed_pair<std::_Wrap_alloc<std::allocator<wchar_t> >,std::_String_val<std::_Simple_types<wchar_t> >,1>::_Get_second
PUBLIC	??1?$_Compressed_pair@U?$_Wrap_alloc@V?$allocator@_W@std@@@std@@V?$_String_val@U?$_Simple_types@_W@std@@@2@$00@std@@QEAA@XZ ; std::_Compressed_pair<std::_Wrap_alloc<std::allocator<wchar_t> >,std::_String_val<std::_Simple_types<wchar_t> >,1>::~_Compressed_pair<std::_Wrap_alloc<std::allocator<wchar_t> >,std::_String_val<std::_Simple_types<wchar_t> >,1>
PUBLIC	??0?$basic_string@_WU?$char_traits@_W@std@@V?$allocator@_W@2@@std@@QEAA@PEB_W@Z ; std::basic_string<wchar_t,std::char_traits<wchar_t>,std::allocator<wchar_t> >::basic_string<wchar_t,std::char_traits<wchar_t>,std::allocator<wchar_t> >
PUBLIC	?assign@?$basic_string@_WU?$char_traits@_W@std@@V?$allocator@_W@2@@std@@QEAAAEAV12@AEBV12@_K1@Z ; std::basic_string<wchar_t,std::char_traits<wchar_t>,std::allocator<wchar_t> >::assign
PUBLIC	?assign@?$basic_string@_WU?$char_traits@_W@std@@V?$allocator@_W@2@@std@@QEAAAEAV12@PEB_W_K@Z ; std::basic_string<wchar_t,std::char_traits<wchar_t>,std::allocator<wchar_t> >::assign
PUBLIC	?assign@?$basic_string@_WU?$char_traits@_W@std@@V?$allocator@_W@2@@std@@QEAAAEAV12@PEB_W@Z ; std::basic_string<wchar_t,std::char_traits<wchar_t>,std::allocator<wchar_t> >::assign
PUBLIC	?erase@?$basic_string@_WU?$char_traits@_W@std@@V?$allocator@_W@2@@std@@QEAAAEAV12@_K@Z ; std::basic_string<wchar_t,std::char_traits<wchar_t>,std::allocator<wchar_t> >::erase
PUBLIC	?erase@?$basic_string@_WU?$char_traits@_W@std@@V?$allocator@_W@2@@std@@QEAAAEAV12@_K0@Z ; std::basic_string<wchar_t,std::char_traits<wchar_t>,std::allocator<wchar_t> >::erase
PUBLIC	?max_size@?$basic_string@_WU?$char_traits@_W@std@@V?$allocator@_W@2@@std@@QEBA_KXZ ; std::basic_string<wchar_t,std::char_traits<wchar_t>,std::allocator<wchar_t> >::max_size
PUBLIC	?_Clamp_suffix_size@?$basic_string@_WU?$char_traits@_W@std@@V?$allocator@_W@2@@std@@QEBA_K_K0@Z ; std::basic_string<wchar_t,std::char_traits<wchar_t>,std::allocator<wchar_t> >::_Clamp_suffix_size
PUBLIC	?_Copy@?$basic_string@_WU?$char_traits@_W@std@@V?$allocator@_W@2@@std@@QEAAX_K0@Z ; std::basic_string<wchar_t,std::char_traits<wchar_t>,std::allocator<wchar_t> >::_Copy
PUBLIC	?_Eos@?$basic_string@_WU?$char_traits@_W@std@@V?$allocator@_W@2@@std@@QEAAX_K@Z ; std::basic_string<wchar_t,std::char_traits<wchar_t>,std::allocator<wchar_t> >::_Eos
PUBLIC	?_Grow@?$basic_string@_WU?$char_traits@_W@std@@V?$allocator@_W@2@@std@@QEAA_N_K_N@Z ; std::basic_string<wchar_t,std::char_traits<wchar_t>,std::allocator<wchar_t> >::_Grow
PUBLIC	?_Inside@?$basic_string@_WU?$char_traits@_W@std@@V?$allocator@_W@2@@std@@QEAA_NPEB_W@Z ; std::basic_string<wchar_t,std::char_traits<wchar_t>,std::allocator<wchar_t> >::_Inside
PUBLIC	?_Tidy@?$basic_string@_WU?$char_traits@_W@std@@V?$allocator@_W@2@@std@@QEAAX_N_K@Z ; std::basic_string<wchar_t,std::char_traits<wchar_t>,std::allocator<wchar_t> >::_Tidy
PUBLIC	?_Xlen@?$basic_string@_WU?$char_traits@_W@std@@V?$allocator@_W@2@@std@@QEBAXXZ ; std::basic_string<wchar_t,std::char_traits<wchar_t>,std::allocator<wchar_t> >::_Xlen
PUBLIC	?_Check_offset@?$basic_string@_WU?$char_traits@_W@std@@V?$allocator@_W@2@@std@@QEBAX_K@Z ; std::basic_string<wchar_t,std::char_traits<wchar_t>,std::allocator<wchar_t> >::_Check_offset
PUBLIC	?_Xran@?$basic_string@_WU?$char_traits@_W@std@@V?$allocator@_W@2@@std@@QEBAXXZ ; std::basic_string<wchar_t,std::char_traits<wchar_t>,std::allocator<wchar_t> >::_Xran
PUBLIC	?XMConvertToRadians@DirectX@@YAMM@Z		; DirectX::XMConvertToRadians
PUBLIC	??BXMVECTORI32@DirectX@@QEBA?AT__m128@@XZ	; DirectX::XMVECTORI32::operator __m128
PUBLIC	??BXMVECTORU32@DirectX@@QEBA?AT__m128@@XZ	; DirectX::XMVECTORU32::operator __m128
PUBLIC	??GDirectX@@YQ?AT__m128@@T1@@Z			; DirectX::operator-
PUBLIC	??0XMMATRIX@DirectX@@QEAA@XZ			; DirectX::XMMATRIX::XMMATRIX
PUBLIC	??0XMFLOAT3@DirectX@@QEAA@XZ			; DirectX::XMFLOAT3::XMFLOAT3
PUBLIC	??0XMFLOAT4X4@DirectX@@QEAA@XZ			; DirectX::XMFLOAT4X4::XMFLOAT4X4
PUBLIC	?XMStoreFloat3@DirectX@@YQXPEAUXMFLOAT3@1@T__m128@@@Z ; DirectX::XMStoreFloat3
PUBLIC	?XMStoreFloat4x4@DirectX@@YQXPEAUXMFLOAT4X4@1@UXMMATRIX@1@@Z ; DirectX::XMStoreFloat4x4
PUBLIC	?XMVectorSet@DirectX@@YQ?AT__m128@@MMMM@Z	; DirectX::XMVectorSet
PUBLIC	?XMVectorGetX@DirectX@@YQMT__m128@@@Z		; DirectX::XMVectorGetX
PUBLIC	?XMVectorGetY@DirectX@@YQMT__m128@@@Z		; DirectX::XMVectorGetY
PUBLIC	?XMVectorSetY@DirectX@@YQ?AT__m128@@T2@M@Z	; DirectX::XMVectorSetY
PUBLIC	?XMVectorNegate@DirectX@@YQ?AT__m128@@T2@@Z	; DirectX::XMVectorNegate
PUBLIC	?XMVector3Dot@DirectX@@YQ?AT__m128@@T2@0@Z	; DirectX::XMVector3Dot
PUBLIC	?XMVector3Cross@DirectX@@YQ?AT__m128@@T2@0@Z	; DirectX::XMVector3Cross
PUBLIC	?XMVector3Normalize@DirectX@@YQ?AT__m128@@T2@@Z	; DirectX::XMVector3Normalize
PUBLIC	?XMMatrixIdentity@DirectX@@YQ?AUXMMATRIX@1@XZ	; DirectX::XMMatrixIdentity
PUBLIC	??0CKalienina@Client@@AEAA@PEAUID3D11Device@@PEAUID3D11DeviceContext@@@Z ; Client::CKalienina::CKalienina
PUBLIC	??0CKalienina@Client@@AEAA@AEBV01@@Z		; Client::CKalienina::CKalienina
PUBLIC	??1CKalienina@Client@@EEAA@XZ			; Client::CKalienina::~CKalienina
PUBLIC	?Initialize_Prototype@CKalienina@Client@@UEAAJXZ ; Client::CKalienina::Initialize_Prototype
PUBLIC	?Initialize@CKalienina@Client@@UEAAJPEAX@Z	; Client::CKalienina::Initialize
PUBLIC	?Tick@CKalienina@Client@@UEAAXN@Z		; Client::CKalienina::Tick
PUBLIC	?LateTick@CKalienina@Client@@UEAAXN@Z		; Client::CKalienina::LateTick
PUBLIC	?Render@CKalienina@Client@@UEAAJXZ		; Client::CKalienina::Render
PUBLIC	?RenderGUI@CKalienina@Client@@UEAAXXZ		; Client::CKalienina::RenderGUI
PUBLIC	?GetBone@CKalienina@Client@@QEBAPEBVCBone@Engine@@PEBD@Z ; Client::CKalienina::GetBone
PUBLIC	?AddWeapon@CKalienina@Client@@AEAAJXZ		; Client::CKalienina::AddWeapon
PUBLIC	?AddComponents@CKalienina@Client@@AEAAJXZ	; Client::CKalienina::AddComponents
PUBLIC	?SetupShaderResources@CKalienina@Client@@AEAAJXZ ; Client::CKalienina::SetupShaderResources
PUBLIC	?AnimationCompare@CKalienina@Client@@AEAA_NW4CLIP@12@@Z ; Client::CKalienina::AnimationCompare
PUBLIC	?FinishCheckPlay@CKalienina@Client@@AEAA_NW4CLIP@12@W4TYPE@CAnimation@Engine@@@Z ; Client::CKalienina::FinishCheckPlay
PUBLIC	?SetAnimation@CKalienina@Client@@AEAAXW4CLIP@12@W4TYPE@CAnimation@Engine@@@Z ; Client::CKalienina::SetAnimation
PUBLIC	?AnimationControl@CKalienina@Client@@AEAAXN@Z	; Client::CKalienina::AnimationControl
PUBLIC	?CameraSocketUpdate@CKalienina@Client@@AEAAXXZ	; Client::CKalienina::CameraSocketUpdate
PUBLIC	?ForwardRotaion@CKalienina@Client@@AEAAXN@Z	; Client::CKalienina::ForwardRotaion
PUBLIC	?BackwardRotaion@CKalienina@Client@@AEAAXN@Z	; Client::CKalienina::BackwardRotaion
PUBLIC	?RigthRotation@CKalienina@Client@@AEAAXN@Z	; Client::CKalienina::RigthRotation
PUBLIC	?LeftRotation@CKalienina@Client@@AEAAXN@Z	; Client::CKalienina::LeftRotation
PUBLIC	?Movement@CKalienina@Client@@AEAAXN@Z		; Client::CKalienina::Movement
PUBLIC	?InputWASD@CKalienina@Client@@AEAAXN@Z		; Client::CKalienina::InputWASD
PUBLIC	?KeyInput@CKalienina@Client@@AEAAXN@Z		; Client::CKalienina::KeyInput
PUBLIC	?Idle@CKalienina@Client@@AEAAXXZ		; Client::CKalienina::Idle
PUBLIC	?MoveForward@CKalienina@Client@@AEAAXN@Z	; Client::CKalienina::MoveForward
PUBLIC	?MoveBackward@CKalienina@Client@@AEAAXN@Z	; Client::CKalienina::MoveBackward
PUBLIC	?MoveRight@CKalienina@Client@@AEAAXN@Z		; Client::CKalienina::MoveRight
PUBLIC	?MoveLeft@CKalienina@Client@@AEAAXN@Z		; Client::CKalienina::MoveLeft
PUBLIC	?MoveStop@CKalienina@Client@@AEAAXXZ		; Client::CKalienina::MoveStop
PUBLIC	?Attack@CKalienina@Client@@AEAAXXZ		; Client::CKalienina::Attack
PUBLIC	?Create@CKalienina@Client@@SAPEAV12@PEAUID3D11Device@@PEAUID3D11DeviceContext@@@Z ; Client::CKalienina::Create
PUBLIC	?Clone@CKalienina@Client@@UEAAPEAVCGameObject@Engine@@PEAX@Z ; Client::CKalienina::Clone
PUBLIC	?Free@CKalienina@Client@@UEAAXXZ		; Client::CKalienina::Free
PUBLIC	??_GCKalienina@Client@@EEAAPEAXI@Z		; Client::CKalienina::`scalar deleting destructor'
PUBLIC	??$Safe_Release@PEAVCKalienina@Client@@@Engine@@YAKAEAPEAVCKalienina@Client@@@Z ; Engine::Safe_Release<Client::CKalienina * __ptr64>
PUBLIC	??$Safe_Release@PEAVCRenderer@Engine@@@Engine@@YAKAEAPEAVCRenderer@0@@Z ; Engine::Safe_Release<Engine::CRenderer * __ptr64>
PUBLIC	??$Safe_Release@PEAVCTransform@Engine@@@Engine@@YAKAEAPEAVCTransform@0@@Z ; Engine::Safe_Release<Engine::CTransform * __ptr64>
PUBLIC	??$Safe_Release@PEAVCModel@Engine@@@Engine@@YAKAEAPEAVCModel@0@@Z ; Engine::Safe_Release<Engine::CModel * __ptr64>
PUBLIC	??$Safe_Release@PEAVCShader@Engine@@@Engine@@YAKAEAPEAVCShader@0@@Z ; Engine::Safe_Release<Engine::CShader * __ptr64>
PUBLIC	??$?0$$V@?$_Compressed_pair@U?$_Wrap_alloc@V?$allocator@_W@std@@@std@@V?$_String_val@U?$_Simple_types@_W@std@@@2@$00@std@@QEAA@U_Zero_then_variadic_args_t@1@@Z ; std::_Compressed_pair<std::_Wrap_alloc<std::allocator<wchar_t> >,std::_String_val<std::_Simple_types<wchar_t> >,1>::_Compressed_pair<std::_Wrap_alloc<std::allocator<wchar_t> >,std::_String_val<std::_Simple_types<wchar_t> >,1><>
PUBLIC	??$addressof@PEA_W@std@@YAPEAPEA_WAEAPEA_W@Z	; std::addressof<wchar_t * __ptr64>
PUBLIC	??$destroy@PEA_W@?$_Wrap_alloc@V?$allocator@_W@std@@@std@@QEAAXPEAPEA_W@Z ; std::_Wrap_alloc<std::allocator<wchar_t> >::destroy<wchar_t * __ptr64>
PUBLIC	??$_Unfancy@_W@std@@YAPEA_WPEA_W@Z		; std::_Unfancy<wchar_t>
PUBLIC	??$_Debug_pointer@$$CB_W@std@@YAXPEB_W0I@Z	; std::_Debug_pointer<wchar_t const >
PUBLIC	??$_Debug_pointer_if@$$CB_W@std@@YAX_NPEB_W1I@Z	; std::_Debug_pointer_if<wchar_t const >
PUBLIC	?deallocate@?$allocator@U_Container_proxy@std@@@std@@QEAAXPEAU_Container_proxy@2@_K@Z ; std::allocator<std::_Container_proxy>::deallocate
PUBLIC	?allocate@?$allocator@U_Container_proxy@std@@@std@@QEAAPEAU_Container_proxy@2@_K@Z ; std::allocator<std::_Container_proxy>::allocate
PUBLIC	?address@?$_Wrap_alloc@V?$allocator@U_Container_proxy@std@@@std@@@std@@QEBAPEAU_Container_proxy@2@AEAU32@@Z ; std::_Wrap_alloc<std::allocator<std::_Container_proxy> >::address
PUBLIC	?allocate@?$_Wrap_alloc@V?$allocator@U_Container_proxy@std@@@std@@@std@@QEAAPEAU_Container_proxy@2@_K@Z ; std::_Wrap_alloc<std::allocator<std::_Container_proxy> >::allocate
PUBLIC	?deallocate@?$_Wrap_alloc@V?$allocator@U_Container_proxy@std@@@std@@@std@@QEAAXPEAU_Container_proxy@2@_K@Z ; std::_Wrap_alloc<std::allocator<std::_Container_proxy> >::deallocate
PUBLIC	??$destroy@U_Container_proxy@std@@@?$_Wrap_alloc@V?$allocator@U_Container_proxy@std@@@std@@@std@@QEAAXPEAU_Container_proxy@1@@Z ; std::_Wrap_alloc<std::allocator<std::_Container_proxy> >::destroy<std::_Container_proxy>
PUBLIC	??$_Unfancy@U_Container_proxy@std@@@std@@YAPEAU_Container_proxy@0@PEAU10@@Z ; std::_Unfancy<std::_Container_proxy>
PUBLIC	??$construct@U_Container_proxy@std@@U12@@?$_Wrap_alloc@V?$allocator@U_Container_proxy@std@@@std@@@std@@QEAAXPEAU_Container_proxy@1@$$QEAU21@@Z ; std::_Wrap_alloc<std::allocator<std::_Container_proxy> >::construct<std::_Container_proxy,std::_Container_proxy>
PUBLIC	??$?0AEAU?$_Wrap_alloc@V?$allocator@_W@std@@@std@@@?$_Wrap_alloc@V?$allocator@U_Container_proxy@std@@@std@@@std@@QEAA@AEAU?$_Wrap_alloc@V?$allocator@_W@std@@@1@@Z ; std::_Wrap_alloc<std::allocator<std::_Container_proxy> >::_Wrap_alloc<std::allocator<std::_Container_proxy> ><std::_Wrap_alloc<std::allocator<wchar_t> > & __ptr64>
PUBLIC	??$construct@PEA_WAEAPEA_W@?$_Wrap_alloc@V?$allocator@_W@std@@@std@@QEAAXPEAPEA_WAEAPEA_W@Z ; std::_Wrap_alloc<std::allocator<wchar_t> >::construct<wchar_t * __ptr64,wchar_t * __ptr64 & __ptr64>
PUBLIC	?pointer_to@?$pointer_traits@PEAU_Container_proxy@std@@@std@@SAPEAU_Container_proxy@2@AEAU32@@Z ; std::pointer_traits<std::_Container_proxy * __ptr64>::pointer_to
PUBLIC	??$addressof@U_Container_proxy@std@@@std@@YAPEAU_Container_proxy@0@AEAU10@@Z ; std::addressof<std::_Container_proxy>
PUBLIC	??$destroy@PEA_W@?$allocator_traits@V?$allocator@_W@std@@@std@@SAXAEAV?$allocator@_W@1@PEAPEA_W@Z ; std::allocator_traits<std::allocator<wchar_t> >::destroy<wchar_t * __ptr64>
PUBLIC	??$destroy@U_Container_proxy@std@@@?$allocator_traits@V?$allocator@U_Container_proxy@std@@@std@@@std@@SAXAEAV?$allocator@U_Container_proxy@std@@@1@PEAU_Container_proxy@1@@Z ; std::allocator_traits<std::allocator<std::_Container_proxy> >::destroy<std::_Container_proxy>
PUBLIC	??$forward@U_Container_proxy@std@@@std@@YA$$QEAU_Container_proxy@0@AEAU10@@Z ; std::forward<std::_Container_proxy>
PUBLIC	??$construct@U_Container_proxy@std@@U12@@?$allocator_traits@V?$allocator@U_Container_proxy@std@@@std@@@std@@SAXAEAV?$allocator@U_Container_proxy@std@@@1@PEAU_Container_proxy@1@$$QEAU31@@Z ; std::allocator_traits<std::allocator<std::_Container_proxy> >::construct<std::_Container_proxy,std::_Container_proxy>
PUBLIC	??$forward@AEAU?$_Wrap_alloc@V?$allocator@_W@std@@@std@@@std@@YAAEAU?$_Wrap_alloc@V?$allocator@_W@std@@@0@AEAU10@@Z ; std::forward<std::_Wrap_alloc<std::allocator<wchar_t> > & __ptr64>
PUBLIC	??$?0_W@?$allocator@U_Container_proxy@std@@@std@@QEAA@AEBV?$allocator@_W@1@@Z ; std::allocator<std::_Container_proxy>::allocator<std::_Container_proxy><wchar_t>
PUBLIC	??$forward@AEAPEA_W@std@@YAAEAPEA_WAEAPEA_W@Z	; std::forward<wchar_t * __ptr64 & __ptr64>
PUBLIC	??$construct@PEA_WAEAPEA_W@?$allocator_traits@V?$allocator@_W@std@@@std@@SAXAEAV?$allocator@_W@1@PEAPEA_WAEAPEA_W@Z ; std::allocator_traits<std::allocator<wchar_t> >::construct<wchar_t * __ptr64,wchar_t * __ptr64 & __ptr64>
PUBLIC	??$destroy@PEA_W@?$allocator@_W@std@@QEAAXPEAPEA_W@Z ; std::allocator<wchar_t>::destroy<wchar_t * __ptr64>
PUBLIC	??$destroy@U_Container_proxy@std@@@?$allocator@U_Container_proxy@std@@@std@@QEAAXPEAU_Container_proxy@1@@Z ; std::allocator<std::_Container_proxy>::destroy<std::_Container_proxy>
PUBLIC	??$construct@U_Container_proxy@std@@U12@@?$allocator@U_Container_proxy@std@@@std@@QEAAXPEAU_Container_proxy@1@$$QEAU21@@Z ; std::allocator<std::_Container_proxy>::construct<std::_Container_proxy,std::_Container_proxy>
PUBLIC	??$construct@PEA_WAEAPEA_W@?$allocator@_W@std@@QEAAXPEAPEA_WAEAPEA_W@Z ; std::allocator<wchar_t>::construct<wchar_t * __ptr64,wchar_t * __ptr64 & __ptr64>
PUBLIC	?__LINE__Var@?0??_Allocate@std@@YAPEAX_K0_N@Z@4JA ; `std::_Allocate'::`1'::__LINE__Var
PUBLIC	??_C@_0BE@LMNLACIC@_Ptr_container?5?$CB?$DN?50?$AA@ ; `string'
PUBLIC	??_C@_1DG@HGDKEBPG@?$AA?$CC?$AA_?$AAP?$AAt?$AAr?$AA_?$AAc?$AAo?$AAn?$AAt?$AAa?$AAi?$AAn?$AAe?$AAr?$AA?5?$AA?$CB?$AA?$DN?$AA?5?$AA0?$AA?$CC?$AA?5?$AA?$CG?$AA?$CG?$AA?5?$AA0?$AA?$AA@ ; `string'
PUBLIC	??_C@_17CNPHIMPH@?$AA?$CF?$AAl?$AAs?$AA?$AA@	; `string'
PUBLIC	??_C@_1JA@DKOIEICI@?$AAc?$AA?3?$AA?2?$AAp?$AAr?$AAo?$AAg?$AAr?$AAa?$AAm?$AA?5?$AAf?$AAi?$AAl?$AAe?$AAs?$AA?5?$AA?$CI?$AAx?$AA8?$AA6?$AA?$CJ?$AA?2?$AAm?$AAi?$AAc?$AAr?$AAo?$AAs?$AAo?$AAf?$AAt@ ; `string'
PUBLIC	??_C@_1BO@NKFMJPA@?$AAs?$AAt?$AAd?$AA?3?$AA?3?$AA_?$AAA?$AAl?$AAl?$AAo?$AAc?$AAa?$AAt?$AAe?$AA?$AA@ ; `string'
PUBLIC	??_C@_1CG@JNLFBNGN@?$AA?$CC?$AAi?$AAn?$AAv?$AAa?$AAl?$AAi?$AAd?$AA?5?$AAa?$AAr?$AAg?$AAu?$AAm?$AAe?$AAn?$AAt?$AA?$CC?$AA?$AA@ ; `string'
PUBLIC	??_C@_09GLJCAGLP@_Ptr?5?$CB?$DN?50?$AA@		; `string'
PUBLIC	??_C@_1CC@GKJLLHIM@?$AA?$CC?$AA_?$AAP?$AAt?$AAr?$AA?5?$AA?$CB?$AA?$DN?$AA?5?$AA0?$AA?$CC?$AA?5?$AA?$CG?$AA?$CG?$AA?5?$AA0?$AA?$AA@ ; `string'
PUBLIC	?__LINE__Var@?0??_Deallocate@std@@YAXPEAX_K1@Z@4JA ; `std::_Deallocate'::`1'::__LINE__Var
PUBLIC	??_C@_0BN@HMCJOMKN@_Count?5?$DM?$DN?5?$CIsize_t?$CJ?$CI?91?$CJ?5?1?5_Sz?$AA@ ; `string'
PUBLIC	??_C@_1EI@MLOBABC@?$AA?$CC?$AA_?$AAC?$AAo?$AAu?$AAn?$AAt?$AA?5?$AA?$DM?$AA?$DN?$AA?5?$AA?$CI?$AAs?$AAi?$AAz?$AAe?$AA_?$AAt?$AA?$CJ?$AA?$CI?$AA?9?$AA1?$AA?$CJ?$AA?5?$AA?1?$AA?5?$AA_?$AAS?$AAz?$AA?$CC?$AA?5?$AA?$CG@ ; `string'
PUBLIC	??_C@_1CC@LOFJFFDB@?$AAs?$AAt?$AAd?$AA?3?$AA?3?$AA_?$AAD?$AAe?$AAa?$AAl?$AAl?$AAo?$AAc?$AAa?$AAt?$AAe?$AA?$AA@ ; `string'
PUBLIC	??_C@_0DD@GBGGGKGG@?$CI_Ptr_user?5?$CG?5?$CI_BIG_ALLOCATION_AL@ ; `string'
PUBLIC	??_C@_1HE@CDMBFOKC@?$AA?$CC?$AA?$CI?$AA_?$AAP?$AAt?$AAr?$AA_?$AAu?$AAs?$AAe?$AAr?$AA?5?$AA?$CG?$AA?5?$AA?$CI?$AA_?$AAB?$AAI?$AAG?$AA_?$AAA?$AAL?$AAL?$AAO?$AAC?$AAA?$AAT?$AAI?$AAO?$AAN?$AA_?$AAA@ ; `string'
PUBLIC	??_C@_0EI@NOJHEJCJ@reinterpret_cast?$DMuintptr_t?5?$CK?$DO?$CI_P@ ; `string'
PUBLIC	??_C@_1JO@EKLKIEHP@?$AA?$CC?$AAr?$AAe?$AAi?$AAn?$AAt?$AAe?$AAr?$AAp?$AAr?$AAe?$AAt?$AA_?$AAc?$AAa?$AAs?$AAt?$AA?$DM?$AAu?$AAi?$AAn?$AAt?$AAp?$AAt?$AAr?$AA_?$AAt?$AA?5?$AA?$CK?$AA?$DO?$AA?$CI?$AA_@ ; `string'
PUBLIC	??_C@_0BL@OCKMEJON@_Ptr_container?5?$DM?5_Ptr_user?$AA@ ; `string'
PUBLIC	??_C@_1EE@PDHAHDDC@?$AA?$CC?$AA_?$AAP?$AAt?$AAr?$AA_?$AAc?$AAo?$AAn?$AAt?$AAa?$AAi?$AAn?$AAe?$AAr?$AA?5?$AA?$DM?$AA?5?$AA_?$AAP?$AAt?$AAr?$AA_?$AAu?$AAs?$AAe?$AAr?$AA?$CC?$AA?5?$AA?$CG?$AA?$CG?$AA?5@ ; `string'
PUBLIC	??_C@_0DB@GLFJLNCE@2?5?$CK?5sizeof?$CIvoid?5?$CK?$CJ?5?$DM?$DN?5_Ptr_user?5@ ; `string'
PUBLIC	??_C@_1HA@NAPGMHAO@?$AA?$CC?$AA2?$AA?5?$AA?$CK?$AA?5?$AAs?$AAi?$AAz?$AAe?$AAo?$AAf?$AA?$CI?$AAv?$AAo?$AAi?$AAd?$AA?5?$AA?$CK?$AA?$CJ?$AA?5?$AA?$DM?$AA?$DN?$AA?5?$AA_?$AAP?$AAt?$AAr?$AA_?$AAu?$AAs?$AAe?$AAr@ ; `string'
PUBLIC	??_C@_0CN@BLHJCAL@_Ptr_user?5?9?5_Ptr_container?5?$DM?$DN?5_N@ ; `string'
PUBLIC	??_C@_1GI@DHJGPFNI@?$AA?$CC?$AA_?$AAP?$AAt?$AAr?$AA_?$AAu?$AAs?$AAe?$AAr?$AA?5?$AA?9?$AA?5?$AA_?$AAP?$AAt?$AAr?$AA_?$AAc?$AAo?$AAn?$AAt?$AAa?$AAi?$AAn?$AAe?$AAr?$AA?5?$AA?$DM?$AA?$DN?$AA?5?$AA_@ ; `string'
PUBLIC	??_C@_1JE@DMOBBMDE@?$AAc?$AA?3?$AA?2?$AAp?$AAr?$AAo?$AAg?$AAr?$AAa?$AAm?$AA?5?$AAf?$AAi?$AAl?$AAe?$AAs?$AA?5?$AA?$CI?$AAx?$AA8?$AA6?$AA?$CJ?$AA?2?$AAw?$AAi?$AAn?$AAd?$AAo?$AAw?$AAs?$AA?5?$AAk@ ; `string'
PUBLIC	??_C@_1BK@FHLBGAOP@?$AAp?$AAD?$AAe?$AAs?$AAt?$AAi?$AAn?$AAa?$AAt?$AAi?$AAo?$AAn?$AA?$AA@ ; `string'
PUBLIC	?__LINE__Var@?0??XMStoreFloat3@DirectX@@YQXPEAUXMFLOAT3@2@T__m128@@@Z@4JA ; `DirectX::XMStoreFloat3'::`1'::__LINE__Var
PUBLIC	?__LINE__Var@?0??XMStoreFloat4x4@DirectX@@YQXPEAUXMFLOAT4X4@2@UXMMATRIX@2@@Z@4JA ; `DirectX::XMStoreFloat4x4'::`1'::__LINE__Var
PUBLIC	??_7CKalienina@Client@@6B@			; Client::CKalienina::`vftable'
PUBLIC	??_C@_1M@IOKMPPAD@?$AAC?$AAo?$AAm?$AAb?$AAo?$AA?$AA@ ; `string'
PUBLIC	??_C@_0BB@FMIBAICL@g_DiffuseTexture?$AA@	; `string'
PUBLIC	??_C@_0N@OEHGEODD@g_BoneMatrix?$AA@		; `string'
PUBLIC	??_C@_09MKLAHOHG@Transform?$AA@			; `string'
PUBLIC	??_C@_04GFJLOHHD@?$CF?43f?$AA@			; `string'
PUBLIC	??_C@_08GCJNLIKG@Position?$AA@			; `string'
PUBLIC	??_C@_0M@CNNLLOGJ@WeaponCase1?$AA@		; `string'
PUBLIC	??_C@_1O@KBDJEHME@?$AAw?$AAe?$AAa?$AAp?$AAo?$AAn?$AA?$AA@ ; `string'
PUBLIC	??_C@_1BM@BGDMLINA@?$AAp?$AAl?$AAa?$AAy?$AAe?$AAr?$AA_?$AAw?$AAe?$AAa?$AAp?$AAo?$AAn?$AA?$AA@ ; `string'
PUBLIC	??_C@_1DG@OGOFKAOF@?$AAp?$AAr?$AAo?$AAt?$AAo?$AA_?$AAo?$AAb?$AAj?$AA_?$AAk?$AAa?$AAl?$AAi?$AAe?$AAn?$AAi?$AAn?$AAa?$AA_?$AAw?$AAe?$AAa?$AAp?$AAo?$AAn?$AA?$AA@ ; `string'
PUBLIC	??_C@_1BK@GIOMOCNE@?$AAc?$AAo?$AAm?$AA_?$AAr?$AAe?$AAn?$AAd?$AAe?$AAr?$AAe?$AAr?$AA?$AA@ ; `string'
PUBLIC	??_C@_1CG@COFFFCLL@?$AAp?$AAr?$AAo?$AAt?$AAo?$AA_?$AAc?$AAo?$AAm?$AA_?$AAr?$AAe?$AAn?$AAd?$AAe?$AAr?$AAe?$AAr?$AA?$AA@ ; `string'
PUBLIC	??_C@_1BM@CJMPMHDD@?$AAc?$AAo?$AAm?$AA_?$AAt?$AAr?$AAa?$AAn?$AAs?$AAf?$AAo?$AAr?$AAm?$AA?$AA@ ; `string'
PUBLIC	??_C@_1CI@MLEFGO@?$AAp?$AAr?$AAo?$AAt?$AAo?$AA_?$AAc?$AAo?$AAm?$AA_?$AAt?$AAr?$AAa?$AAn?$AAs?$AAf?$AAo?$AAr?$AAm?$AA?$AA@ ; `string'
PUBLIC	??_C@_1DI@OLGFHDLM@?$AAc?$AAo?$AAm?$AA_?$AAc?$AAa?$AAm?$AAe?$AAr?$AAa?$AA_?$AAs?$AAo?$AAc?$AAk?$AAe?$AAt?$AA_?$AAt?$AAr?$AAa?$AAn?$AAs?$AAf?$AAo?$AAr?$AAm?$AA?$AA@ ; `string'
PUBLIC	??_C@_1BG@GGOMMBBL@?$AAc?$AAo?$AAm?$AA_?$AAs?$AAh?$AAa?$AAd?$AAe?$AAr?$AA?$AA@ ; `string'
PUBLIC	??_C@_1DM@OGMOEMJ@?$AAp?$AAr?$AAo?$AAt?$AAo?$AA_?$AAc?$AAo?$AAm?$AA_?$AAs?$AAh?$AAa?$AAd?$AAe?$AAr?$AA_?$AAv?$AAt?$AAx?$AAa?$AAn?$AAi?$AAm?$AAm?$AAo?$AAd?$AAe?$AAl?$AA?$AA@ ; `string'
PUBLIC	??_C@_1BE@MLNOEPCA@?$AAc?$AAo?$AAm?$AA_?$AAm?$AAo?$AAd?$AAe?$AAl?$AA?$AA@ ; `string'
PUBLIC	??_C@_1DE@NIJICLJG@?$AAp?$AAr?$AAo?$AAt?$AAo?$AA_?$AAc?$AAo?$AAm?$AA_?$AAm?$AAo?$AAd?$AAe?$AAl?$AA_?$AAk?$AAa?$AAl?$AAi?$AAe?$AAn?$AAi?$AAn?$AAa?$AA?$AA@ ; `string'
PUBLIC	??_C@_0O@PFNLPMLD@g_WorldMatrix?$AA@		; `string'
PUBLIC	??_C@_0N@ELIMCBLG@g_ViewMatrix?$AA@		; `string'
PUBLIC	??_C@_0N@OOHDPIO@g_ProjMatrix?$AA@		; `string'
PUBLIC	??_C@_0P@BDEIJKBM@g_vCamPosition?$AA@		; `string'
PUBLIC	??_C@_0M@NHGOLGEL@g_vLightDir?$AA@		; `string'
PUBLIC	??_C@_0BA@PCOGIHOF@g_vLightDiffuse?$AA@		; `string'
PUBLIC	??_C@_0BB@IJIIKIH@g_vLightSpecular?$AA@		; `string'
PUBLIC	??_C@_0BA@EALGDMPJ@g_vLightAmbient?$AA@		; `string'
PUBLIC	?__LINE__Var@?0??Create@CKalienina@Client@@SAPEAV23@PEAUID3D11Device@@PEAUID3D11DeviceContext@@@Z@4JA ; `Client::CKalienina::Create'::`1'::__LINE__Var
PUBLIC	??_C@_0DB@JLKHCEHN@c?3?2github?2framework?2client?2priva@ ; `string'
PUBLIC	??_C@_1BA@HHOMBECE@?$AAM?$AAe?$AAs?$AAs?$AAa?$AAg?$AAe?$AA?$AA@ ; `string'
PUBLIC	??_C@_1DM@ICLKDEHF@?$AAF?$AAa?$AAi?$AAl?$AAe?$AAd?$AA?5?$AAt?$AAo?$AA?5?$AAC?$AAr?$AAe?$AAa?$AAt?$AAe?$AA?5?$AA?3?$AA?5?$AAC?$AAK?$AAa?$AAl?$AAi?$AAe?$AAn?$AAi?$AAn?$AAa?$AA?$AA@ ; `string'
PUBLIC	?__LINE__Var@?0??Clone@CKalienina@Client@@UEAAPEAVCGameObject@Engine@@PEAX@Z@4JA ; `Client::CKalienina::Clone'::`1'::__LINE__Var
PUBLIC	??_C@_1DK@JKHCCMHF@?$AAF?$AAa?$AAi?$AAl?$AAe?$AAd?$AA?5?$AAt?$AAo?$AA?5?$AAC?$AAl?$AAo?$AAn?$AAe?$AA?5?$AA?3?$AA?5?$AAC?$AAK?$AAa?$AAl?$AAi?$AAe?$AAn?$AAi?$AAn?$AAa?$AA?$AA@ ; `string'
PUBLIC	??_C@_1IO@EADHKMNI@?$AAc?$AA?3?$AA?2?$AAp?$AAr?$AAo?$AAg?$AAr?$AAa?$AAm?$AA?5?$AAf?$AAi?$AAl?$AAe?$AAs?$AA?5?$AA?$CI?$AAx?$AA8?$AA6?$AA?$CJ?$AA?2?$AAm?$AAi?$AAc?$AAr?$AAo?$AAs?$AAo?$AAf?$AAt@ ; `string'
PUBLIC	??_C@_0BA@JFNIOLAK@string?5too?5long?$AA@	; `string'
PUBLIC	??_C@_0BI@CFPLBAOH@invalid?5string?5position?$AA@ ; `string'
PUBLIC	??_C@_1CK@EOPGIILJ@?$AAi?$AAn?$AAv?$AAa?$AAl?$AAi?$AAd?$AA?5?$AAn?$AAu?$AAl?$AAl?$AA?5?$AAp?$AAo?$AAi?$AAn?$AAt?$AAe?$AAr?$AA?$AA@ ; `string'
PUBLIC	??_R4CKalienina@Client@@6B@			; Client::CKalienina::`RTTI Complete Object Locator'
PUBLIC	??_R0?AVCKalienina@Client@@@8			; Client::CKalienina `RTTI Type Descriptor'
PUBLIC	??_R3CKalienina@Client@@8			; Client::CKalienina::`RTTI Class Hierarchy Descriptor'
PUBLIC	??_R2CKalienina@Client@@8			; Client::CKalienina::`RTTI Base Class Array'
PUBLIC	??_R1A@?0A@EA@CKalienina@Client@@8		; Client::CKalienina::`RTTI Base Class Descriptor at (0,-1,0,64)'
PUBLIC	??_R1A@?0A@EA@CGameObject@Engine@@8		; Engine::CGameObject::`RTTI Base Class Descriptor at (0,-1,0,64)'
PUBLIC	??_R0?AVCGameObject@Engine@@@8			; Engine::CGameObject `RTTI Type Descriptor'
PUBLIC	??_R3CGameObject@Engine@@8			; Engine::CGameObject::`RTTI Class Hierarchy Descriptor'
PUBLIC	??_R2CGameObject@Engine@@8			; Engine::CGameObject::`RTTI Base Class Array'
PUBLIC	??_R1A@?0A@EA@CBase@Engine@@8			; Engine::CBase::`RTTI Base Class Descriptor at (0,-1,0,64)'
PUBLIC	??_R0?AVCBase@Engine@@@8			; Engine::CBase `RTTI Type Descriptor'
PUBLIC	??_R3CBase@Engine@@8				; Engine::CBase::`RTTI Class Hierarchy Descriptor'
PUBLIC	??_R2CBase@Engine@@8				; Engine::CBase::`RTTI Base Class Array'
PUBLIC	__real@00000000
PUBLIC	__real@3c8efa35
PUBLIC	__real@3f800000
PUBLIC	__real@40a00000
PUBLIC	__real@43700000
PUBLIC	__xmm@80000000800000008000000080000000
EXTRN	??2@YAPEAX_K@Z:PROC				; operator new
EXTRN	??3@YAXPEAX@Z:PROC				; operator delete
EXTRN	??3@YAXPEAX_K@Z:PROC				; operator delete
EXTRN	__imp__invalid_parameter:PROC
EXTRN	memcpy:PROC
EXTRN	__imp_memmove:PROC
EXTRN	memset:PROC
EXTRN	__imp_wcslen:PROC
EXTRN	__imp_MessageBoxW:PROC
EXTRN	__imp__wassert:PROC
EXTRN	?Begin@ImGui@@YA_NPEBDPEA_NH@Z:PROC		; ImGui::Begin
EXTRN	?End@ImGui@@YAXXZ:PROC				; ImGui::End
EXTRN	?InputFloat3@ImGui@@YA_NPEBDQEAM0H@Z:PROC	; ImGui::InputFloat3
EXTRN	__imp_??0_Lockit@std@@QEAA@H@Z:PROC
EXTRN	__imp_??1_Lockit@std@@QEAA@XZ:PROC
EXTRN	__imp_acosf:PROC
EXTRN	??2@YAPEAX_KHPEBDH@Z:PROC			; operator new
EXTRN	??3@YAXPEAXHPEBDH@Z:PROC			; operator delete
EXTRN	__imp__CrtDbgReportW:PROC
EXTRN	__imp_?_Debug_message@std@@YAXPEB_W0I@Z:PROC
EXTRN	__imp_?_Xbad_alloc@std@@YAXXZ:PROC
EXTRN	__imp_?_Xlength_error@std@@YAXPEBD@Z:PROC
EXTRN	__imp_?_Xout_of_range@std@@YAXPEBD@Z:PROC
EXTRN	__imp_?Release@CBase@Engine@@QEAAKXZ:PROC
EXTRN	__imp_??0CGameObject@Engine@@IEAA@PEAUID3D11Device@@PEAUID3D11DeviceContext@@@Z:PROC
EXTRN	__imp_??0CGameObject@Engine@@IEAA@AEBV01@@Z:PROC
EXTRN	__imp_??1CGameObject@Engine@@MEAA@XZ:PROC
EXTRN	__imp_?Initialize_Prototype@CGameObject@Engine@@UEAAJXZ:PROC
EXTRN	__imp_?Initialize@CGameObject@Engine@@UEAAJPEAX@Z:PROC
EXTRN	__imp_?Tick@CGameObject@Engine@@UEAAXN@Z:PROC
EXTRN	__imp_?LateTick@CGameObject@Engine@@UEAAXN@Z:PROC
EXTRN	__imp_?Render@CGameObject@Engine@@UEAAJXZ:PROC
EXTRN	__imp_?Add_Component@CGameObject@Engine@@IEAAJIPEB_W0PEAPEAVCComponent@2@PEAX@Z:PROC
EXTRN	__imp_?Free@CGameObject@Engine@@UEAAXXZ:PROC
EXTRN	??_ECKalienina@Client@@EEAAPEAXI@Z:PROC		; Client::CKalienina::`vector deleting destructor'
EXTRN	__imp_?Setup_ShaderMaterialResource@CModel@Engine@@QEAAJPEAVCShader@2@PEBDIW4aiTextureType@@@Z:PROC
EXTRN	__imp_?Setup_BoneMatrices@CModel@Engine@@QEAAJPEAVCShader@2@PEBDI@Z:PROC
EXTRN	__imp_?Setup_Animation@CModel@Engine@@QEAAJI@Z:PROC
EXTRN	__imp_?Play_Animation@CModel@Engine@@QEAAJNPEAVCTransform@2@W4TYPE@CAnimation@2@@Z:PROC
EXTRN	__imp_?Render@CModel@Engine@@QEAAJI@Z:PROC
EXTRN	__imp_?Get_MeshCount@CModel@Engine@@QEAAIXZ:PROC
EXTRN	__imp_?GetBonePtr@CModel@Engine@@QEAAPEAVCBone@2@PEBD@Z:PROC
EXTRN	__imp_?AnimationIsFinish@CModel@Engine@@QEAA_NXZ:PROC
EXTRN	__imp_?AnimationIsPreFinish@CModel@Engine@@QEAA_NXZ:PROC
EXTRN	__imp_?Get_State@CTransform@Engine@@QEAA?AT__m128@@W4STATE@12@@Z:PROC
EXTRN	__imp_?Set_WorldMatrix@CTransform@Engine@@QEAAXUXMFLOAT4X4@DirectX@@@Z:PROC
EXTRN	__imp_?Set_State@CTransform@Engine@@QEAAXW4STATE@12@T__m128@@@Z:PROC
EXTRN	__imp_?MoveForward@CTransform@Engine@@QEAAXN@Z:PROC
EXTRN	__imp_?Rotate@CTransform@Engine@@QEAAXT__m128@@N@Z:PROC
EXTRN	__imp_?Setup_ShaderResource@CTransform@Engine@@QEAAJPEAVCShader@2@PEBD@Z:PROC
EXTRN	__imp_?Add_RenderGroup@CRenderer@Engine@@QEAAJW4RENDER_GROUP@12@PEAVCGameObject@2@@Z:PROC
EXTRN	__imp_?Begin@CShader@Engine@@QEAAJI@Z:PROC
EXTRN	__imp_?SetMatrix@CShader@Engine@@QEAAJPEBDPEBUXMFLOAT4X4@DirectX@@@Z:PROC
EXTRN	__imp_?SetRawValue@CShader@Engine@@QEAAJPEBDPEBXI@Z:PROC
EXTRN	__imp_?GetInstance@CGameInstance@Engine@@SAPEAV12@XZ:PROC
EXTRN	__imp_?Add_GameObject@CGameInstance@Engine@@QEAAPEAVCGameObject@2@IPEB_W0V?$basic_string@_WU?$char_traits@_W@std@@V?$allocator@_W@2@@std@@PEAX@Z:PROC
EXTRN	__imp_?Get_Transform_float4x4@CGameInstance@Engine@@QEAA?AUXMFLOAT4X4@DirectX@@W4TRANSFORM_STATE@CPipeLine@2@@Z:PROC
EXTRN	__imp_?Get_Transform_Matrix_Inverse@CGameInstance@Engine@@QEAA?AUXMMATRIX@DirectX@@W4TRANSFORM_STATE@CPipeLine@2@@Z:PROC
EXTRN	__imp_?Get_CamPosition@CGameInstance@Engine@@QEAA?AUXMFLOAT4@DirectX@@XZ:PROC
EXTRN	__imp_?Input_KeyState_Custom@CGameInstance@Engine@@QEAA?AW4KEY_STATE@2@H@Z:PROC
EXTRN	__imp_?Input_MouseState_Custom@CGameInstance@Engine@@QEAA?AW4KEY_STATE@2@W4MOUSE_KEYSTATE@2@@Z:PROC
EXTRN	__imp_?CreateTimer@CGameInstance@Engine@@QEAAJPEB_W@Z:PROC
EXTRN	__imp_?GetLightDesc@CGameInstance@Engine@@QEAAPEBUtagLight_Desc@2@I@Z:PROC
EXTRN	_CxxThrowException:PROC
EXTRN	_RTC_CheckStackVars:PROC
EXTRN	_RTC_InitBase:PROC
EXTRN	_RTC_Shutdown:PROC
EXTRN	__CxxFrameHandler3:PROC
EXTRN	__GSHandlerCheck:PROC
EXTRN	__GSHandlerCheck_EH:PROC
EXTRN	__security_check_cookie:PROC
EXTRN	??_7type_info@@6B@:BYTE				; type_info::`vftable'
EXTRN	__security_cookie:QWORD
EXTRN	_fltused:DWORD
;	COMDAT pdata
pdata	SEGMENT
$pdata$??_H@YAXPEAX_K1P6APEAX0@Z@Z DD imagerel $LN7
	DD	imagerel $LN7+181
	DD	imagerel $unwind$??_H@YAXPEAX_K1P6APEAX0@Z@Z
pdata	ENDS
;	COMDAT pdata
pdata	SEGMENT
$pdata$?__empty_global_delete@@YAXPEAX@Z DD imagerel $LN3
	DD	imagerel $LN3+50
	DD	imagerel $unwind$?__empty_global_delete@@YAXPEAX@Z
pdata	ENDS
;	COMDAT pdata
pdata	SEGMENT
$pdata$?__empty_global_delete@@YAXPEAX_K@Z DD imagerel $LN3
	DD	imagerel $LN3+55
	DD	imagerel $unwind$?__empty_global_delete@@YAXPEAX_K@Z
pdata	ENDS
;	COMDAT pdata
pdata	SEGMENT
$pdata$wmemcpy DD imagerel $LN3
	DD	imagerel $LN3+94
	DD	imagerel $unwind$wmemcpy
pdata	ENDS
;	COMDAT pdata
pdata	SEGMENT
$pdata$wmemmove DD imagerel $LN3
	DD	imagerel $LN3+95
	DD	imagerel $unwind$wmemmove
pdata	ENDS
;	COMDAT pdata
pdata	SEGMENT
$pdata$?acos@@YAMM@Z DD imagerel $LN3
	DD	imagerel $LN3+59
	DD	imagerel $unwind$?acos@@YAMM@Z
pdata	ENDS
;	COMDAT pdata
pdata	SEGMENT
$pdata$??2@YAPEAX_KPEAX@Z DD imagerel $LN3
	DD	imagerel $LN3+62
	DD	imagerel $unwind$??2@YAPEAX_KPEAX@Z
pdata	ENDS
;	COMDAT pdata
pdata	SEGMENT
$pdata$?length@?$char_traits@_W@std@@SA_KPEB_W@Z DD imagerel $LN5
	DD	imagerel $LN5+106
	DD	imagerel $unwind$?length@?$char_traits@_W@std@@SA_KPEB_W@Z
pdata	ENDS
;	COMDAT pdata
pdata	SEGMENT
$pdata$?copy@?$char_traits@_W@std@@SAPEA_WPEA_WPEB_W_K@Z DD imagerel $LN5
	DD	imagerel $LN5+128
	DD	imagerel $unwind$?copy@?$char_traits@_W@std@@SAPEA_WPEA_WPEB_W_K@Z
pdata	ENDS
;	COMDAT pdata
pdata	SEGMENT
$pdata$?move@?$char_traits@_W@std@@SAPEA_WPEA_WPEB_W_K@Z DD imagerel $LN5
	DD	imagerel $LN5+128
	DD	imagerel $unwind$?move@?$char_traits@_W@std@@SAPEA_WPEA_WPEB_W_K@Z
pdata	ENDS
;	COMDAT pdata
pdata	SEGMENT
$pdata$?assign@?$char_traits@_W@std@@SAXAEA_WAEB_W@Z DD imagerel $LN3
	DD	imagerel $LN3+75
	DD	imagerel $unwind$?assign@?$char_traits@_W@std@@SAXAEA_WAEB_W@Z
pdata	ENDS
;	COMDAT pdata
pdata	SEGMENT
$pdata$??0_Container_proxy@std@@QEAA@XZ DD imagerel $LN3
	DD	imagerel $LN3+86
	DD	imagerel $unwind$??0_Container_proxy@std@@QEAA@XZ
pdata	ENDS
;	COMDAT pdata
pdata	SEGMENT
$pdata$??0_Container_base12@std@@QEAA@XZ DD imagerel $LN3
	DD	imagerel $LN3+71
	DD	imagerel $unwind$??0_Container_base12@std@@QEAA@XZ
pdata	ENDS
;	COMDAT pdata
pdata	SEGMENT
$pdata$??1_Container_base12@std@@QEAA@XZ DD imagerel $LN3
	DD	imagerel $LN3+76
	DD	imagerel $unwind$??1_Container_base12@std@@QEAA@XZ
pdata	ENDS
;	COMDAT pdata
pdata	SEGMENT
$pdata$?_Orphan_all@_Container_base12@std@@QEAAXXZ DD imagerel $LN8
	DD	imagerel $LN8+220
	DD	imagerel $unwind$?_Orphan_all@_Container_base12@std@@QEAAXXZ
pdata	ENDS
;	COMDAT pdata
pdata	SEGMENT
$pdata$?_Allocate@std@@YAPEAX_K0_N@Z DD imagerel $LN14
	DD	imagerel $LN14+579
	DD	imagerel $unwind$?_Allocate@std@@YAPEAX_K0_N@Z
pdata	ENDS
;	COMDAT pdata
pdata	SEGMENT
$pdata$?_Deallocate@std@@YAXPEAX_K1@Z DD imagerel $LN22
	DD	imagerel $LN22+1079
	DD	imagerel $unwind$?_Deallocate@std@@YAXPEAX_K1@Z
pdata	ENDS
;	COMDAT pdata
pdata	SEGMENT
$pdata$??0?$allocator@_W@std@@QEAA@XZ DD imagerel $LN3
	DD	imagerel $LN3+57
	DD	imagerel $unwind$??0?$allocator@_W@std@@QEAA@XZ
pdata	ENDS
;	COMDAT pdata
pdata	SEGMENT
$pdata$?deallocate@?$allocator@_W@std@@QEAAXPEA_W_K@Z DD imagerel $LN3
	DD	imagerel $LN3+87
	DD	imagerel $unwind$?deallocate@?$allocator@_W@std@@QEAAXPEA_W_K@Z
pdata	ENDS
;	COMDAT pdata
pdata	SEGMENT
$pdata$?allocate@?$allocator@_W@std@@QEAAPEA_W_K@Z DD imagerel $LN3
	DD	imagerel $LN3+77
	DD	imagerel $unwind$?allocate@?$allocator@_W@std@@QEAAPEA_W_K@Z
pdata	ENDS
;	COMDAT pdata
pdata	SEGMENT
$pdata$?max_size@?$allocator@_W@std@@QEBA_KXZ DD imagerel $LN3
	DD	imagerel $LN3+60
	DD	imagerel $unwind$?max_size@?$allocator@_W@std@@QEBA_KXZ
pdata	ENDS
;	COMDAT pdata
pdata	SEGMENT
$pdata$?max_size@?$allocator_traits@V?$allocator@_W@std@@@std@@SA_KAEBV?$allocator@_W@2@@Z DD imagerel $LN3
	DD	imagerel $LN3+64
	DD	imagerel $unwind$?max_size@?$allocator_traits@V?$allocator@_W@std@@@std@@SA_KAEBV?$allocator@_W@2@@Z
pdata	ENDS
;	COMDAT pdata
pdata	SEGMENT
$pdata$??0?$_Wrap_alloc@V?$allocator@_W@std@@@std@@QEAA@XZ DD imagerel $LN3
	DD	imagerel $LN3+71
	DD	imagerel $unwind$??0?$_Wrap_alloc@V?$allocator@_W@std@@@std@@QEAA@XZ
pdata	ENDS
;	COMDAT pdata
pdata	SEGMENT
$pdata$?allocate@?$_Wrap_alloc@V?$allocator@_W@std@@@std@@QEAAPEA_W_K@Z DD imagerel $LN3
	DD	imagerel $LN3+76
	DD	imagerel $unwind$?allocate@?$_Wrap_alloc@V?$allocator@_W@std@@@std@@QEAAPEA_W_K@Z
pdata	ENDS
;	COMDAT pdata
pdata	SEGMENT
$pdata$?deallocate@?$_Wrap_alloc@V?$allocator@_W@std@@@std@@QEAAXPEA_W_K@Z DD imagerel $LN3
	DD	imagerel $LN3+88
	DD	imagerel $unwind$?deallocate@?$_Wrap_alloc@V?$allocator@_W@std@@@std@@QEAAXPEA_W_K@Z
pdata	ENDS
;	COMDAT pdata
pdata	SEGMENT
$pdata$?max_size@?$_Wrap_alloc@V?$allocator@_W@std@@@std@@QEBA_KU_Nil@2@@Z DD imagerel $LN3
	DD	imagerel $LN3+68
	DD	imagerel $unwind$?max_size@?$_Wrap_alloc@V?$allocator@_W@std@@@std@@QEBA_KU_Nil@2@@Z
pdata	ENDS
;	COMDAT pdata
pdata	SEGMENT
$pdata$??0?$_String_val@U?$_Simple_types@_W@std@@@std@@QEAA@XZ DD imagerel $LN5
	DD	imagerel $LN5+132
	DD	imagerel $unwind$??0?$_String_val@U?$_Simple_types@_W@std@@@std@@QEAA@XZ
pdata	ENDS
;	COMDAT pdata
pdata	SEGMENT
$pdata$?dtor$0@?0???0?$_String_val@U?$_Simple_types@_W@std@@@std@@QEAA@XZ@4HA DD imagerel ?dtor$0@?0???0?$_String_val@U?$_Simple_types@_W@std@@@std@@QEAA@XZ@4HA
	DD	imagerel ?dtor$0@?0???0?$_String_val@U?$_Simple_types@_W@std@@@std@@QEAA@XZ@4HA+39
	DD	imagerel $unwind$?dtor$0@?0???0?$_String_val@U?$_Simple_types@_W@std@@@std@@QEAA@XZ@4HA
pdata	ENDS
;	COMDAT pdata
pdata	SEGMENT
$pdata$?_Myptr@?$_String_val@U?$_Simple_types@_W@std@@@std@@QEAAPEA_WXZ DD imagerel $LN5
	DD	imagerel $LN5+116
	DD	imagerel $unwind$?_Myptr@?$_String_val@U?$_Simple_types@_W@std@@@std@@QEAAPEA_WXZ
pdata	ENDS
;	COMDAT pdata
pdata	SEGMENT
$pdata$?_Myptr@?$_String_val@U?$_Simple_types@_W@std@@@std@@QEBAPEB_WXZ DD imagerel $LN5
	DD	imagerel $LN5+116
	DD	imagerel $unwind$?_Myptr@?$_String_val@U?$_Simple_types@_W@std@@@std@@QEBAPEB_WXZ
pdata	ENDS
;	COMDAT pdata
pdata	SEGMENT
$pdata$??0_Bxty@?$_String_val@U?$_Simple_types@_W@std@@@std@@QEAA@XZ DD imagerel $LN3
	DD	imagerel $LN3+57
	DD	imagerel $unwind$??0_Bxty@?$_String_val@U?$_Simple_types@_W@std@@@std@@QEAA@XZ
pdata	ENDS
;	COMDAT pdata
pdata	SEGMENT
$pdata$??1_Bxty@?$_String_val@U?$_Simple_types@_W@std@@@std@@QEAA@XZ DD imagerel $LN3
	DD	imagerel $LN3+50
	DD	imagerel $unwind$??1_Bxty@?$_String_val@U?$_Simple_types@_W@std@@@std@@QEAA@XZ
pdata	ENDS
;	COMDAT pdata
pdata	SEGMENT
$pdata$??1?$_String_val@U?$_Simple_types@_W@std@@@std@@QEAA@XZ DD imagerel $LN3
	DD	imagerel $LN3+83
	DD	imagerel $unwind$??1?$_String_val@U?$_Simple_types@_W@std@@@std@@QEAA@XZ
pdata	ENDS
;	COMDAT pdata
pdata	SEGMENT
$pdata$?_Myptr@?$_String_alloc@U?$_String_base_types@_WV?$allocator@_W@std@@@std@@@std@@QEAAPEA_WXZ DD imagerel $LN3
	DD	imagerel $LN3+72
	DD	imagerel $unwind$?_Myptr@?$_String_alloc@U?$_String_base_types@_WV?$allocator@_W@std@@@std@@@std@@QEAAPEA_WXZ
pdata	ENDS
;	COMDAT pdata
pdata	SEGMENT
$pdata$?_Myptr@?$_String_alloc@U?$_String_base_types@_WV?$allocator@_W@std@@@std@@@std@@QEBAPEB_WXZ DD imagerel $LN3
	DD	imagerel $LN3+72
	DD	imagerel $unwind$?_Myptr@?$_String_alloc@U?$_String_base_types@_WV?$allocator@_W@std@@@std@@@std@@QEBAPEB_WXZ
pdata	ENDS
;	COMDAT pdata
pdata	SEGMENT
$pdata$??0?$_String_alloc@U?$_String_base_types@_WV?$allocator@_W@std@@@std@@@std@@QEAA@XZ DD imagerel $LN4
	DD	imagerel $LN4+106
	DD	imagerel $unwind$??0?$_String_alloc@U?$_String_base_types@_WV?$allocator@_W@std@@@std@@@std@@QEAA@XZ
pdata	ENDS
;	COMDAT pdata
pdata	SEGMENT
$pdata$?dtor$0@?0???0?$_String_alloc@U?$_String_base_types@_WV?$allocator@_W@std@@@std@@@std@@QEAA@XZ@4HA DD imagerel ?dtor$0@?0???0?$_String_alloc@U?$_String_base_types@_WV?$allocator@_W@std@@@std@@@std@@QEAA@XZ@4HA
	DD	imagerel ?dtor$0@?0???0?$_String_alloc@U?$_String_base_types@_WV?$allocator@_W@std@@@std@@@std@@QEAA@XZ@4HA+39
	DD	imagerel $unwind$?dtor$0@?0???0?$_String_alloc@U?$_String_base_types@_WV?$allocator@_W@std@@@std@@@std@@QEAA@XZ@4HA
pdata	ENDS
;	COMDAT pdata
pdata	SEGMENT
$pdata$??1?$_String_alloc@U?$_String_base_types@_WV?$allocator@_W@std@@@std@@@std@@QEAA@XZ DD imagerel $LN3
	DD	imagerel $LN3+92
	DD	imagerel $unwind$??1?$_String_alloc@U?$_String_base_types@_WV?$allocator@_W@std@@@std@@@std@@QEAA@XZ
pdata	ENDS
;	COMDAT pdata
pdata	SEGMENT
$pdata$?_Alloc_proxy@?$_String_alloc@U?$_String_base_types@_WV?$allocator@_W@std@@@std@@@std@@QEAAXXZ DD imagerel $LN3
	DD	imagerel $LN3+272
	DD	imagerel $unwind$?_Alloc_proxy@?$_String_alloc@U?$_String_base_types@_WV?$allocator@_W@std@@@std@@@std@@QEAAXXZ
pdata	ENDS
;	COMDAT pdata
pdata	SEGMENT
$pdata$?_Free_proxy@?$_String_alloc@U?$_String_base_types@_WV?$allocator@_W@std@@@std@@@std@@QEAAXXZ DD imagerel $LN3
	DD	imagerel $LN3+221
	DD	imagerel $unwind$?_Free_proxy@?$_String_alloc@U?$_String_base_types@_WV?$allocator@_W@std@@@std@@@std@@QEAAXXZ
pdata	ENDS
;	COMDAT pdata
pdata	SEGMENT
$pdata$?_Myproxy@?$_String_alloc@U?$_String_base_types@_WV?$allocator@_W@std@@@std@@@std@@QEAAAEAPEAU_Container_proxy@2@XZ DD imagerel $LN3
	DD	imagerel $LN3+64
	DD	imagerel $unwind$?_Myproxy@?$_String_alloc@U?$_String_base_types@_WV?$allocator@_W@std@@@std@@@std@@QEAAAEAPEAU_Container_proxy@2@XZ
pdata	ENDS
;	COMDAT pdata
pdata	SEGMENT
$pdata$?_Orphan_all@?$_String_alloc@U?$_String_base_types@_WV?$allocator@_W@std@@@std@@@std@@QEAAXXZ DD imagerel $LN3
	DD	imagerel $LN3+72
	DD	imagerel $unwind$?_Orphan_all@?$_String_alloc@U?$_String_base_types@_WV?$allocator@_W@std@@@std@@@std@@QEAAXXZ
pdata	ENDS
;	COMDAT pdata
pdata	SEGMENT
$pdata$?_Getal@?$_String_alloc@U?$_String_base_types@_WV?$allocator@_W@std@@@std@@@std@@QEAAAEAU?$_Wrap_alloc@V?$allocator@_W@std@@@2@XZ DD imagerel $LN3
	DD	imagerel $LN3+67
	DD	imagerel $unwind$?_Getal@?$_String_alloc@U?$_String_base_types@_WV?$allocator@_W@std@@@std@@@std@@QEAAAEAU?$_Wrap_alloc@V?$allocator@_W@std@@@2@XZ
pdata	ENDS
;	COMDAT pdata
pdata	SEGMENT
$pdata$?_Getal@?$_String_alloc@U?$_String_base_types@_WV?$allocator@_W@std@@@std@@@std@@QEBAAEBU?$_Wrap_alloc@V?$allocator@_W@std@@@2@XZ DD imagerel $LN3
	DD	imagerel $LN3+67
	DD	imagerel $unwind$?_Getal@?$_String_alloc@U?$_String_base_types@_WV?$allocator@_W@std@@@std@@@std@@QEBAAEBU?$_Wrap_alloc@V?$allocator@_W@std@@@2@XZ
pdata	ENDS
;	COMDAT pdata
pdata	SEGMENT
$pdata$?_Get_data@?$_String_alloc@U?$_String_base_types@_WV?$allocator@_W@std@@@std@@@std@@QEAAAEAV?$_String_val@U?$_Simple_types@_W@std@@@2@XZ DD imagerel $LN3
	DD	imagerel $LN3+67
	DD	imagerel $unwind$?_Get_data@?$_String_alloc@U?$_String_base_types@_WV?$allocator@_W@std@@@std@@@std@@QEAAAEAV?$_String_val@U?$_Simple_types@_W@std@@@2@XZ
pdata	ENDS
;	COMDAT pdata
pdata	SEGMENT
$pdata$?_Get_data@?$_String_alloc@U?$_String_base_types@_WV?$allocator@_W@std@@@std@@@std@@QEBAAEBV?$_String_val@U?$_Simple_types@_W@std@@@2@XZ DD imagerel $LN3
	DD	imagerel $LN3+67
	DD	imagerel $unwind$?_Get_data@?$_String_alloc@U?$_String_base_types@_WV?$allocator@_W@std@@@std@@@std@@QEBAAEBV?$_String_val@U?$_Simple_types@_W@std@@@2@XZ
pdata	ENDS
;	COMDAT pdata
pdata	SEGMENT
$pdata$?_Bx@?$_String_alloc@U?$_String_base_types@_WV?$allocator@_W@std@@@std@@@std@@QEAAAEAT_Bxty@?$_String_val@U?$_Simple_types@_W@std@@@2@XZ DD imagerel $LN3
	DD	imagerel $LN3+68
	DD	imagerel $unwind$?_Bx@?$_String_alloc@U?$_String_base_types@_WV?$allocator@_W@std@@@std@@@std@@QEAAAEAT_Bxty@?$_String_val@U?$_Simple_types@_W@std@@@2@XZ
pdata	ENDS
;	COMDAT pdata
pdata	SEGMENT
$pdata$?_Mysize@?$_String_alloc@U?$_String_base_types@_WV?$allocator@_W@std@@@std@@@std@@QEAAAEA_KXZ DD imagerel $LN3
	DD	imagerel $LN3+68
	DD	imagerel $unwind$?_Mysize@?$_String_alloc@U?$_String_base_types@_WV?$allocator@_W@std@@@std@@@std@@QEAAAEA_KXZ
pdata	ENDS
;	COMDAT pdata
pdata	SEGMENT
$pdata$?_Mysize@?$_String_alloc@U?$_String_base_types@_WV?$allocator@_W@std@@@std@@@std@@QEBAAEB_KXZ DD imagerel $LN3
	DD	imagerel $LN3+68
	DD	imagerel $unwind$?_Mysize@?$_String_alloc@U?$_String_base_types@_WV?$allocator@_W@std@@@std@@@std@@QEBAAEB_KXZ
pdata	ENDS
;	COMDAT pdata
pdata	SEGMENT
$pdata$?_Myres@?$_String_alloc@U?$_String_base_types@_WV?$allocator@_W@std@@@std@@@std@@QEAAAEA_KXZ DD imagerel $LN3
	DD	imagerel $LN3+68
	DD	imagerel $unwind$?_Myres@?$_String_alloc@U?$_String_base_types@_WV?$allocator@_W@std@@@std@@@std@@QEAAAEA_KXZ
pdata	ENDS
;	COMDAT pdata
pdata	SEGMENT
$pdata$?_Get_first@?$_Compressed_pair@U?$_Wrap_alloc@V?$allocator@_W@std@@@std@@V?$_String_val@U?$_Simple_types@_W@std@@@2@$00@std@@QEAAAEAU?$_Wrap_alloc@V?$allocator@_W@std@@@2@XZ DD imagerel $LN3
	DD	imagerel $LN3+57
	DD	imagerel $unwind$?_Get_first@?$_Compressed_pair@U?$_Wrap_alloc@V?$allocator@_W@std@@@std@@V?$_String_val@U?$_Simple_types@_W@std@@@2@$00@std@@QEAAAEAU?$_Wrap_alloc@V?$allocator@_W@std@@@2@XZ
pdata	ENDS
;	COMDAT pdata
pdata	SEGMENT
$pdata$?_Get_first@?$_Compressed_pair@U?$_Wrap_alloc@V?$allocator@_W@std@@@std@@V?$_String_val@U?$_Simple_types@_W@std@@@2@$00@std@@QEBAAEBU?$_Wrap_alloc@V?$allocator@_W@std@@@2@XZ DD imagerel $LN3
	DD	imagerel $LN3+57
	DD	imagerel $unwind$?_Get_first@?$_Compressed_pair@U?$_Wrap_alloc@V?$allocator@_W@std@@@std@@V?$_String_val@U?$_Simple_types@_W@std@@@2@$00@std@@QEBAAEBU?$_Wrap_alloc@V?$allocator@_W@std@@@2@XZ
pdata	ENDS
;	COMDAT pdata
pdata	SEGMENT
$pdata$?_Get_second@?$_Compressed_pair@U?$_Wrap_alloc@V?$allocator@_W@std@@@std@@V?$_String_val@U?$_Simple_types@_W@std@@@2@$00@std@@QEAAAEAV?$_String_val@U?$_Simple_types@_W@std@@@2@XZ DD imagerel $LN3
	DD	imagerel $LN3+57
	DD	imagerel $unwind$?_Get_second@?$_Compressed_pair@U?$_Wrap_alloc@V?$allocator@_W@std@@@std@@V?$_String_val@U?$_Simple_types@_W@std@@@2@$00@std@@QEAAAEAV?$_String_val@U?$_Simple_types@_W@std@@@2@XZ
pdata	ENDS
;	COMDAT pdata
pdata	SEGMENT
$pdata$?_Get_second@?$_Compressed_pair@U?$_Wrap_alloc@V?$allocator@_W@std@@@std@@V?$_String_val@U?$_Simple_types@_W@std@@@2@$00@std@@QEBAAEBV?$_String_val@U?$_Simple_types@_W@std@@@2@XZ DD imagerel $LN3
	DD	imagerel $LN3+57
	DD	imagerel $unwind$?_Get_second@?$_Compressed_pair@U?$_Wrap_alloc@V?$allocator@_W@std@@@std@@V?$_String_val@U?$_Simple_types@_W@std@@@2@$00@std@@QEBAAEBV?$_String_val@U?$_Simple_types@_W@std@@@2@XZ
pdata	ENDS
;	COMDAT pdata
pdata	SEGMENT
$pdata$??1?$_Compressed_pair@U?$_Wrap_alloc@V?$allocator@_W@std@@@std@@V?$_String_val@U?$_Simple_types@_W@std@@@2@$00@std@@QEAA@XZ DD imagerel $LN3
	DD	imagerel $LN3+67
	DD	imagerel $unwind$??1?$_Compressed_pair@U?$_Wrap_alloc@V?$allocator@_W@std@@@std@@V?$_String_val@U?$_Simple_types@_W@std@@@2@$00@std@@QEAA@XZ
pdata	ENDS
;	COMDAT pdata
pdata	SEGMENT
$pdata$??0?$basic_string@_WU?$char_traits@_W@std@@V?$allocator@_W@2@@std@@QEAA@PEB_W@Z DD imagerel $LN4
	DD	imagerel $LN4+125
	DD	imagerel $unwind$??0?$basic_string@_WU?$char_traits@_W@std@@V?$allocator@_W@2@@std@@QEAA@PEB_W@Z
pdata	ENDS
;	COMDAT pdata
pdata	SEGMENT
$pdata$?dtor$0@?0???0?$basic_string@_WU?$char_traits@_W@std@@V?$allocator@_W@2@@std@@QEAA@PEB_W@Z@4HA DD imagerel ?dtor$0@?0???0?$basic_string@_WU?$char_traits@_W@std@@V?$allocator@_W@2@@std@@QEAA@PEB_W@Z@4HA
	DD	imagerel ?dtor$0@?0???0?$basic_string@_WU?$char_traits@_W@std@@V?$allocator@_W@2@@std@@QEAA@PEB_W@Z@4HA+39
	DD	imagerel $unwind$?dtor$0@?0???0?$basic_string@_WU?$char_traits@_W@std@@V?$allocator@_W@2@@std@@QEAA@PEB_W@Z@4HA
pdata	ENDS
;	COMDAT pdata
pdata	SEGMENT
$pdata$?assign@?$basic_string@_WU?$char_traits@_W@std@@V?$allocator@_W@2@@std@@QEAAAEAV12@AEBV12@_K1@Z DD imagerel $LN6
	DD	imagerel $LN6+315
	DD	imagerel $unwind$?assign@?$basic_string@_WU?$char_traits@_W@std@@V?$allocator@_W@2@@std@@QEAAAEAV12@AEBV12@_K1@Z
pdata	ENDS
;	COMDAT pdata
pdata	SEGMENT
$pdata$?assign@?$basic_string@_WU?$char_traits@_W@std@@V?$allocator@_W@2@@std@@QEAAAEAV12@PEB_W_K@Z DD imagerel $LN7
	DD	imagerel $LN7+294
	DD	imagerel $unwind$?assign@?$basic_string@_WU?$char_traits@_W@std@@V?$allocator@_W@2@@std@@QEAAAEAV12@PEB_W_K@Z
pdata	ENDS
;	COMDAT pdata
pdata	SEGMENT
$pdata$?assign@?$basic_string@_WU?$char_traits@_W@std@@V?$allocator@_W@2@@std@@QEAAAEAV12@PEB_W@Z DD imagerel $LN3
	DD	imagerel $LN3+116
	DD	imagerel $unwind$?assign@?$basic_string@_WU?$char_traits@_W@std@@V?$allocator@_W@2@@std@@QEAAAEAV12@PEB_W@Z
pdata	ENDS
;	COMDAT pdata
pdata	SEGMENT
$pdata$?erase@?$basic_string@_WU?$char_traits@_W@std@@V?$allocator@_W@2@@std@@QEAAAEAV12@_K@Z DD imagerel $LN3
	DD	imagerel $LN3+102
	DD	imagerel $unwind$?erase@?$basic_string@_WU?$char_traits@_W@std@@V?$allocator@_W@2@@std@@QEAAAEAV12@_K@Z
pdata	ENDS
;	COMDAT pdata
pdata	SEGMENT
$pdata$?erase@?$basic_string@_WU?$char_traits@_W@std@@V?$allocator@_W@2@@std@@QEAAAEAV12@_K0@Z DD imagerel $LN6
	DD	imagerel $LN6+275
	DD	imagerel $unwind$?erase@?$basic_string@_WU?$char_traits@_W@std@@V?$allocator@_W@2@@std@@QEAAAEAV12@_K0@Z
pdata	ENDS
;	COMDAT pdata
pdata	SEGMENT
$pdata$?max_size@?$basic_string@_WU?$char_traits@_W@std@@V?$allocator@_W@2@@std@@QEBA_KXZ DD imagerel $LN5
	DD	imagerel $LN5+124
	DD	imagerel $unwind$?max_size@?$basic_string@_WU?$char_traits@_W@std@@V?$allocator@_W@2@@std@@QEBA_KXZ
pdata	ENDS
;	COMDAT pdata
pdata	SEGMENT
$pdata$?_Clamp_suffix_size@?$basic_string@_WU?$char_traits@_W@std@@V?$allocator@_W@2@@std@@QEBA_K_K0@Z DD imagerel $LN5
	DD	imagerel $LN5+119
	DD	imagerel $unwind$?_Clamp_suffix_size@?$basic_string@_WU?$char_traits@_W@std@@V?$allocator@_W@2@@std@@QEBA_K_K0@Z
pdata	ENDS
;	COMDAT pdata
pdata	SEGMENT
$pdata$?_Copy@?$basic_string@_WU?$char_traits@_W@std@@V?$allocator@_W@2@@std@@QEAAX_K0@Z DD imagerel $LN23
	DD	imagerel $LN23+640
	DD	imagerel $unwind$?_Copy@?$basic_string@_WU?$char_traits@_W@std@@V?$allocator@_W@2@@std@@QEAAX_K0@Z
pdata	ENDS
;	COMDAT pdata
pdata	SEGMENT
$pdata$?catch$1@?0??_Copy@?$basic_string@_WU?$char_traits@_W@std@@V?$allocator@_W@2@@std@@QEAAX_K0@Z@4HA DD imagerel ?catch$1@?0??_Copy@?$basic_string@_WU?$char_traits@_W@std@@V?$allocator@_W@2@@std@@QEAAX_K0@Z@4HA
	DD	imagerel ?catch$1@?0??_Copy@?$basic_string@_WU?$char_traits@_W@std@@V?$allocator@_W@2@@std@@QEAAX_K0@Z@4HA+110
	DD	imagerel $unwind$?catch$1@?0??_Copy@?$basic_string@_WU?$char_traits@_W@std@@V?$allocator@_W@2@@std@@QEAAX_K0@Z@4HA
pdata	ENDS
;	COMDAT pdata
pdata	SEGMENT
$pdata$?catch$0@?0??_Copy@?$basic_string@_WU?$char_traits@_W@std@@V?$allocator@_W@2@@std@@QEAAX_K0@Z@4HA DD imagerel ?catch$0@?0??_Copy@?$basic_string@_WU?$char_traits@_W@std@@V?$allocator@_W@2@@std@@QEAAX_K0@Z@4HA
	DD	imagerel ?catch$0@?0??_Copy@?$basic_string@_WU?$char_traits@_W@std@@V?$allocator@_W@2@@std@@QEAAX_K0@Z@4HA+62
	DD	imagerel $unwind$?catch$0@?0??_Copy@?$basic_string@_WU?$char_traits@_W@std@@V?$allocator@_W@2@@std@@QEAAX_K0@Z@4HA
pdata	ENDS
;	COMDAT pdata
pdata	SEGMENT
$pdata$?_Eos@?$basic_string@_WU?$char_traits@_W@std@@V?$allocator@_W@2@@std@@QEAAX_K@Z DD imagerel $LN3
	DD	imagerel $LN3+132
	DD	imagerel $unwind$?_Eos@?$basic_string@_WU?$char_traits@_W@std@@V?$allocator@_W@2@@std@@QEAAX_K@Z
pdata	ENDS
;	COMDAT pdata
pdata	SEGMENT
$pdata$?_Grow@?$basic_string@_WU?$char_traits@_W@std@@V?$allocator@_W@2@@std@@QEAA_N_K_N@Z DD imagerel $LN13
	DD	imagerel $LN13+327
	DD	imagerel $unwind$?_Grow@?$basic_string@_WU?$char_traits@_W@std@@V?$allocator@_W@2@@std@@QEAA_N_K_N@Z
pdata	ENDS
;	COMDAT pdata
pdata	SEGMENT
$pdata$?_Inside@?$basic_string@_WU?$char_traits@_W@std@@V?$allocator@_W@2@@std@@QEAA_NPEB_W@Z DD imagerel $LN6
	DD	imagerel $LN6+150
	DD	imagerel $unwind$?_Inside@?$basic_string@_WU?$char_traits@_W@std@@V?$allocator@_W@2@@std@@QEAA_NPEB_W@Z
pdata	ENDS
;	COMDAT pdata
pdata	SEGMENT
$pdata$?_Tidy@?$basic_string@_WU?$char_traits@_W@std@@V?$allocator@_W@2@@std@@QEAAX_N_K@Z DD imagerel $LN7
	DD	imagerel $LN7+335
	DD	imagerel $unwind$?_Tidy@?$basic_string@_WU?$char_traits@_W@std@@V?$allocator@_W@2@@std@@QEAAX_N_K@Z
pdata	ENDS
;	COMDAT pdata
pdata	SEGMENT
$pdata$?_Xlen@?$basic_string@_WU?$char_traits@_W@std@@V?$allocator@_W@2@@std@@QEBAXXZ DD imagerel $LN3
	DD	imagerel $LN3+65
	DD	imagerel $unwind$?_Xlen@?$basic_string@_WU?$char_traits@_W@std@@V?$allocator@_W@2@@std@@QEBAXXZ
pdata	ENDS
;	COMDAT pdata
pdata	SEGMENT
$pdata$?_Check_offset@?$basic_string@_WU?$char_traits@_W@std@@V?$allocator@_W@2@@std@@QEBAX_K@Z DD imagerel $LN4
	DD	imagerel $LN4+93
	DD	imagerel $unwind$?_Check_offset@?$basic_string@_WU?$char_traits@_W@std@@V?$allocator@_W@2@@std@@QEBAX_K@Z
pdata	ENDS
;	COMDAT pdata
pdata	SEGMENT
$pdata$?_Xran@?$basic_string@_WU?$char_traits@_W@std@@V?$allocator@_W@2@@std@@QEBAXXZ DD imagerel $LN3
	DD	imagerel $LN3+65
	DD	imagerel $unwind$?_Xran@?$basic_string@_WU?$char_traits@_W@std@@V?$allocator@_W@2@@std@@QEBAXXZ
pdata	ENDS
;	COMDAT pdata
pdata	SEGMENT
$pdata$?XMConvertToRadians@DirectX@@YAMM@Z DD imagerel $LN3
	DD	imagerel $LN3+61
	DD	imagerel $unwind$?XMConvertToRadians@DirectX@@YAMM@Z
pdata	ENDS
;	COMDAT pdata
pdata	SEGMENT
$pdata$??BXMVECTORI32@DirectX@@QEBA?AT__m128@@XZ DD imagerel $LN3
	DD	imagerel $LN3+82
	DD	imagerel $unwind$??BXMVECTORI32@DirectX@@QEBA?AT__m128@@XZ
pdata	ENDS
;	COMDAT pdata
pdata	SEGMENT
$pdata$??BXMVECTORU32@DirectX@@QEBA?AT__m128@@XZ DD imagerel $LN3
	DD	imagerel $LN3+82
	DD	imagerel $unwind$??BXMVECTORU32@DirectX@@QEBA?AT__m128@@XZ
pdata	ENDS
;	COMDAT pdata
pdata	SEGMENT
$pdata$??GDirectX@@YQ?AT__m128@@T1@@Z DD imagerel $LN3
	DD	imagerel $LN3+79
	DD	imagerel $unwind$??GDirectX@@YQ?AT__m128@@T1@@Z
pdata	ENDS
;	COMDAT pdata
pdata	SEGMENT
$pdata$??0XMMATRIX@DirectX@@QEAA@XZ DD imagerel $LN3
	DD	imagerel $LN3+57
	DD	imagerel $unwind$??0XMMATRIX@DirectX@@QEAA@XZ
pdata	ENDS
;	COMDAT pdata
pdata	SEGMENT
$pdata$??0XMFLOAT3@DirectX@@QEAA@XZ DD imagerel $LN3
	DD	imagerel $LN3+57
	DD	imagerel $unwind$??0XMFLOAT3@DirectX@@QEAA@XZ
pdata	ENDS
;	COMDAT pdata
pdata	SEGMENT
$pdata$??0XMFLOAT4X4@DirectX@@QEAA@XZ DD imagerel $LN3
	DD	imagerel $LN3+57
	DD	imagerel $unwind$??0XMFLOAT4X4@DirectX@@QEAA@XZ
pdata	ENDS
;	COMDAT pdata
pdata	SEGMENT
$pdata$?XMStoreFloat3@DirectX@@YQXPEAUXMFLOAT3@1@T__m128@@@Z DD imagerel $LN4
	DD	imagerel $LN4+218
	DD	imagerel $unwind$?XMStoreFloat3@DirectX@@YQXPEAUXMFLOAT3@1@T__m128@@@Z
pdata	ENDS
;	COMDAT pdata
pdata	SEGMENT
$pdata$?XMStoreFloat4x4@DirectX@@YQXPEAUXMFLOAT4X4@1@UXMMATRIX@1@@Z DD imagerel $LN4
	DD	imagerel $LN4+247
	DD	imagerel $unwind$?XMStoreFloat4x4@DirectX@@YQXPEAUXMFLOAT4X4@1@UXMMATRIX@1@@Z
pdata	ENDS
;	COMDAT pdata
pdata	SEGMENT
$pdata$?XMVectorSet@DirectX@@YQ?AT__m128@@MMMM@Z DD imagerel $LN3
	DD	imagerel $LN3+121
	DD	imagerel $unwind$?XMVectorSet@DirectX@@YQ?AT__m128@@MMMM@Z
pdata	ENDS
;	COMDAT pdata
pdata	SEGMENT
$pdata$?XMVectorGetX@DirectX@@YQMT__m128@@@Z DD imagerel $LN3
	DD	imagerel $LN3+76
	DD	imagerel $unwind$?XMVectorGetX@DirectX@@YQMT__m128@@@Z
pdata	ENDS
;	COMDAT pdata
pdata	SEGMENT
$pdata$?XMVectorGetY@DirectX@@YQMT__m128@@@Z DD imagerel $LN3
	DD	imagerel $LN3+103
	DD	imagerel $unwind$?XMVectorGetY@DirectX@@YQMT__m128@@@Z
pdata	ENDS
;	COMDAT pdata
pdata	SEGMENT
$pdata$?XMVectorSetY@DirectX@@YQ?AT__m128@@T2@M@Z DD imagerel $LN3
	DD	imagerel $LN3+185
	DD	imagerel $unwind$?XMVectorSetY@DirectX@@YQ?AT__m128@@T2@M@Z
pdata	ENDS
;	COMDAT pdata
pdata	SEGMENT
$pdata$?XMVectorNegate@DirectX@@YQ?AT__m128@@T2@@Z DD imagerel $LN3
	DD	imagerel $LN3+99
	DD	imagerel $unwind$?XMVectorNegate@DirectX@@YQ?AT__m128@@T2@@Z
pdata	ENDS
;	COMDAT pdata
pdata	SEGMENT
$pdata$?XMVector3Dot@DirectX@@YQ?AT__m128@@T2@0@Z DD imagerel $LN3
	DD	imagerel $LN3+247
	DD	imagerel $unwind$?XMVector3Dot@DirectX@@YQ?AT__m128@@T2@0@Z
pdata	ENDS
;	COMDAT pdata
pdata	SEGMENT
$pdata$?XMVector3Cross@DirectX@@YQ?AT__m128@@T2@0@Z DD imagerel $LN3
	DD	imagerel $LN3+328
	DD	imagerel $unwind$?XMVector3Cross@DirectX@@YQ?AT__m128@@T2@0@Z
pdata	ENDS
;	COMDAT pdata
pdata	SEGMENT
$pdata$?XMVector3Normalize@DirectX@@YQ?AT__m128@@T2@@Z DD imagerel $LN3
	DD	imagerel $LN3+535
	DD	imagerel $unwind$?XMVector3Normalize@DirectX@@YQ?AT__m128@@T2@@Z
pdata	ENDS
;	COMDAT pdata
pdata	SEGMENT
$pdata$?XMMatrixIdentity@DirectX@@YQ?AUXMMATRIX@1@XZ DD imagerel $LN3
	DD	imagerel $LN3+209
	DD	imagerel $unwind$?XMMatrixIdentity@DirectX@@YQ?AUXMMATRIX@1@XZ
pdata	ENDS
;	COMDAT pdata
pdata	SEGMENT
$pdata$??0CKalienina@Client@@AEAA@PEAUID3D11Device@@PEAUID3D11DeviceContext@@@Z DD imagerel $LN4
	DD	imagerel $LN4+436
	DD	imagerel $unwind$??0CKalienina@Client@@AEAA@PEAUID3D11Device@@PEAUID3D11DeviceContext@@@Z
pdata	ENDS
;	COMDAT pdata
pdata	SEGMENT
$pdata$??0CKalienina@Client@@AEAA@AEBV01@@Z DD imagerel $LN4
	DD	imagerel $LN4+452
	DD	imagerel $unwind$??0CKalienina@Client@@AEAA@AEBV01@@Z
pdata	ENDS
;	COMDAT pdata
pdata	SEGMENT
$pdata$??1CKalienina@Client@@EEAA@XZ DD imagerel $LN3
	DD	imagerel $LN3+65
	DD	imagerel $unwind$??1CKalienina@Client@@EEAA@XZ
pdata	ENDS
;	COMDAT pdata
pdata	SEGMENT
$pdata$?Initialize_Prototype@CKalienina@Client@@UEAAJXZ DD imagerel $LN4
	DD	imagerel $LN4+152
	DD	imagerel $unwind$?Initialize_Prototype@CKalienina@Client@@UEAAJXZ
pdata	ENDS
;	COMDAT pdata
pdata	SEGMENT
$pdata$?Initialize@CKalienina@Client@@UEAAJPEAX@Z DD imagerel $LN6
	DD	imagerel $LN6+433
	DD	imagerel $unwind$?Initialize@CKalienina@Client@@UEAAJPEAX@Z
pdata	ENDS
;	COMDAT pdata
pdata	SEGMENT
$pdata$?Tick@CKalienina@Client@@UEAAXN@Z DD imagerel $LN3
	DD	imagerel $LN3+109
	DD	imagerel $unwind$?Tick@CKalienina@Client@@UEAAXN@Z
pdata	ENDS
;	COMDAT pdata
pdata	SEGMENT
$pdata$?LateTick@CKalienina@Client@@UEAAXN@Z DD imagerel $LN5
	DD	imagerel $LN5+323
	DD	imagerel $unwind$?LateTick@CKalienina@Client@@UEAAXN@Z
pdata	ENDS
;	COMDAT pdata
pdata	SEGMENT
$pdata$?Render@CKalienina@Client@@UEAAJXZ DD imagerel $LN8
	DD	imagerel $LN8+307
	DD	imagerel $unwind$?Render@CKalienina@Client@@UEAAJXZ
pdata	ENDS
;	COMDAT pdata
pdata	SEGMENT
$pdata$?RenderGUI@CKalienina@Client@@UEAAXXZ DD imagerel $LN3
	DD	imagerel $LN3+202
	DD	imagerel $unwind$?RenderGUI@CKalienina@Client@@UEAAXXZ
pdata	ENDS
;	COMDAT pdata
pdata	SEGMENT
$pdata$?GetBone@CKalienina@Client@@QEBAPEBVCBone@Engine@@PEBD@Z DD imagerel $LN3
	DD	imagerel $LN3+84
	DD	imagerel $unwind$?GetBone@CKalienina@Client@@QEBAPEBVCBone@Engine@@PEBD@Z
pdata	ENDS
;	COMDAT pdata
pdata	SEGMENT
$pdata$?AddWeapon@CKalienina@Client@@AEAAJXZ DD imagerel $LN5
	DD	imagerel $LN5+287
	DD	imagerel $unwind$?AddWeapon@CKalienina@Client@@AEAAJXZ
pdata	ENDS
;	COMDAT pdata
pdata	SEGMENT
$pdata$?AddComponents@CKalienina@Client@@AEAAJXZ DD imagerel $LN8
	DD	imagerel $LN8+518
	DD	imagerel $unwind$?AddComponents@CKalienina@Client@@AEAAJXZ
pdata	ENDS
;	COMDAT pdata
pdata	SEGMENT
$pdata$?SetupShaderResources@CKalienina@Client@@AEAAJXZ DD imagerel $LN13
	DD	imagerel $LN13+600
	DD	imagerel $unwind$?SetupShaderResources@CKalienina@Client@@AEAAJXZ
pdata	ENDS
;	COMDAT pdata
pdata	SEGMENT
$pdata$?AnimationCompare@CKalienina@Client@@AEAA_NW4CLIP@12@@Z DD imagerel $LN5
	DD	imagerel $LN5+104
	DD	imagerel $unwind$?AnimationCompare@CKalienina@Client@@AEAA_NW4CLIP@12@@Z
pdata	ENDS
;	COMDAT pdata
pdata	SEGMENT
$pdata$?FinishCheckPlay@CKalienina@Client@@AEAA_NW4CLIP@12@W4TYPE@CAnimation@Engine@@@Z DD imagerel $LN4
	DD	imagerel $LN4+119
	DD	imagerel $unwind$?FinishCheckPlay@CKalienina@Client@@AEAA_NW4CLIP@12@W4TYPE@CAnimation@Engine@@@Z
pdata	ENDS
;	COMDAT pdata
pdata	SEGMENT
$pdata$?SetAnimation@CKalienina@Client@@AEAAXW4CLIP@12@W4TYPE@CAnimation@Engine@@@Z DD imagerel $LN3
	DD	imagerel $LN3+97
	DD	imagerel $unwind$?SetAnimation@CKalienina@Client@@AEAAXW4CLIP@12@W4TYPE@CAnimation@Engine@@@Z
pdata	ENDS
;	COMDAT pdata
pdata	SEGMENT
$pdata$?AnimationControl@CKalienina@Client@@AEAAXN@Z DD imagerel $LN3
	DD	imagerel $LN3+157
	DD	imagerel $unwind$?AnimationControl@CKalienina@Client@@AEAAXN@Z
pdata	ENDS
;	COMDAT pdata
pdata	SEGMENT
$pdata$?CameraSocketUpdate@CKalienina@Client@@AEAAXXZ DD imagerel $LN3
	DD	imagerel $LN3+220
	DD	imagerel $unwind$?CameraSocketUpdate@CKalienina@Client@@AEAAXXZ
pdata	ENDS
;	COMDAT pdata
pdata	SEGMENT
$pdata$?ForwardRotaion@CKalienina@Client@@AEAAXN@Z DD imagerel $LN5
	DD	imagerel $LN5+623
	DD	imagerel $unwind$?ForwardRotaion@CKalienina@Client@@AEAAXN@Z
pdata	ENDS
;	COMDAT pdata
pdata	SEGMENT
$pdata$?BackwardRotaion@CKalienina@Client@@AEAAXN@Z DD imagerel $LN5
	DD	imagerel $LN5+642
	DD	imagerel $unwind$?BackwardRotaion@CKalienina@Client@@AEAAXN@Z
pdata	ENDS
;	COMDAT pdata
pdata	SEGMENT
$pdata$?RigthRotation@CKalienina@Client@@AEAAXN@Z DD imagerel $LN5
	DD	imagerel $LN5+639
	DD	imagerel $unwind$?RigthRotation@CKalienina@Client@@AEAAXN@Z
pdata	ENDS
;	COMDAT pdata
pdata	SEGMENT
$pdata$?LeftRotation@CKalienina@Client@@AEAAXN@Z DD imagerel $LN5
	DD	imagerel $LN5+620
	DD	imagerel $unwind$?LeftRotation@CKalienina@Client@@AEAAXN@Z
pdata	ENDS
;	COMDAT pdata
pdata	SEGMENT
$pdata$?Movement@CKalienina@Client@@AEAAXN@Z DD imagerel $LN11
	DD	imagerel $LN11+337
	DD	imagerel $unwind$?Movement@CKalienina@Client@@AEAAXN@Z
pdata	ENDS
;	COMDAT pdata
pdata	SEGMENT
$pdata$?InputWASD@CKalienina@Client@@AEAAXN@Z DD imagerel $LN20
	DD	imagerel $LN20+760
	DD	imagerel $unwind$?InputWASD@CKalienina@Client@@AEAAXN@Z
pdata	ENDS
;	COMDAT pdata
pdata	SEGMENT
$pdata$?KeyInput@CKalienina@Client@@AEAAXN@Z DD imagerel $LN6
	DD	imagerel $LN6+194
	DD	imagerel $unwind$?KeyInput@CKalienina@Client@@AEAAXN@Z
pdata	ENDS
;	COMDAT pdata
pdata	SEGMENT
$pdata$?Idle@CKalienina@Client@@AEAAXXZ DD imagerel $LN3
	DD	imagerel $LN3+103
	DD	imagerel $unwind$?Idle@CKalienina@Client@@AEAAXXZ
pdata	ENDS
;	COMDAT pdata
pdata	SEGMENT
$pdata$?MoveForward@CKalienina@Client@@AEAAXN@Z DD imagerel $LN4
	DD	imagerel $LN4+118
	DD	imagerel $unwind$?MoveForward@CKalienina@Client@@AEAAXN@Z
pdata	ENDS
;	COMDAT pdata
pdata	SEGMENT
$pdata$?MoveBackward@CKalienina@Client@@AEAAXN@Z DD imagerel $LN4
	DD	imagerel $LN4+118
	DD	imagerel $unwind$?MoveBackward@CKalienina@Client@@AEAAXN@Z
pdata	ENDS
;	COMDAT pdata
pdata	SEGMENT
$pdata$?MoveRight@CKalienina@Client@@AEAAXN@Z DD imagerel $LN4
	DD	imagerel $LN4+118
	DD	imagerel $unwind$?MoveRight@CKalienina@Client@@AEAAXN@Z
pdata	ENDS
;	COMDAT pdata
pdata	SEGMENT
$pdata$?MoveLeft@CKalienina@Client@@AEAAXN@Z DD imagerel $LN4
	DD	imagerel $LN4+118
	DD	imagerel $unwind$?MoveLeft@CKalienina@Client@@AEAAXN@Z
pdata	ENDS
;	COMDAT pdata
pdata	SEGMENT
$pdata$?MoveStop@CKalienina@Client@@AEAAXXZ DD imagerel $LN5
	DD	imagerel $LN5+162
	DD	imagerel $unwind$?MoveStop@CKalienina@Client@@AEAAXXZ
pdata	ENDS
;	COMDAT pdata
pdata	SEGMENT
$pdata$?Attack@CKalienina@Client@@AEAAXXZ DD imagerel $LN12
	DD	imagerel $LN12+331
	DD	imagerel $unwind$?Attack@CKalienina@Client@@AEAAXXZ
pdata	ENDS
;	COMDAT pdata
pdata	SEGMENT
$pdata$?Create@CKalienina@Client@@SAPEAV12@PEAUID3D11Device@@PEAUID3D11DeviceContext@@@Z DD imagerel $LN7
	DD	imagerel $LN7+294
	DD	imagerel $unwind$?Create@CKalienina@Client@@SAPEAV12@PEAUID3D11Device@@PEAUID3D11DeviceContext@@@Z
pdata	ENDS
;	COMDAT pdata
pdata	SEGMENT
$pdata$?dtor$0@?0??Create@CKalienina@Client@@SAPEAV12@PEAUID3D11Device@@PEAUID3D11DeviceContext@@@Z@4HA DD imagerel ?dtor$0@?0??Create@CKalienina@Client@@SAPEAV12@PEAUID3D11Device@@PEAUID3D11DeviceContext@@@Z@4HA
	DD	imagerel ?dtor$0@?0??Create@CKalienina@Client@@SAPEAV12@PEAUID3D11Device@@PEAUID3D11DeviceContext@@@Z@4HA+61
	DD	imagerel $unwind$?dtor$0@?0??Create@CKalienina@Client@@SAPEAV12@PEAUID3D11Device@@PEAUID3D11DeviceContext@@@Z@4HA
pdata	ENDS
;	COMDAT pdata
pdata	SEGMENT
$pdata$?Clone@CKalienina@Client@@UEAAPEAVCGameObject@Engine@@PEAX@Z DD imagerel $LN7
	DD	imagerel $LN7+294
	DD	imagerel $unwind$?Clone@CKalienina@Client@@UEAAPEAVCGameObject@Engine@@PEAX@Z
pdata	ENDS
;	COMDAT pdata
pdata	SEGMENT
$pdata$?dtor$0@?0??Clone@CKalienina@Client@@UEAAPEAVCGameObject@Engine@@PEAX@Z@4HA DD imagerel ?dtor$0@?0??Clone@CKalienina@Client@@UEAAPEAVCGameObject@Engine@@PEAX@Z@4HA
	DD	imagerel ?dtor$0@?0??Clone@CKalienina@Client@@UEAAPEAVCGameObject@Engine@@PEAX@Z@4HA+61
	DD	imagerel $unwind$?dtor$0@?0??Clone@CKalienina@Client@@UEAAPEAVCGameObject@Engine@@PEAX@Z@4HA
pdata	ENDS
;	COMDAT pdata
pdata	SEGMENT
$pdata$?Free@CKalienina@Client@@UEAAXXZ DD imagerel $LN3
	DD	imagerel $LN3+168
	DD	imagerel $unwind$?Free@CKalienina@Client@@UEAAXXZ
pdata	ENDS
;	COMDAT pdata
pdata	SEGMENT
$pdata$??_GCKalienina@Client@@EEAAPEAXI@Z DD imagerel $LN4
	DD	imagerel $LN4+105
	DD	imagerel $unwind$??_GCKalienina@Client@@EEAAPEAXI@Z
pdata	ENDS
;	COMDAT pdata
pdata	SEGMENT
$pdata$??$Safe_Release@PEAVCKalienina@Client@@@Engine@@YAKAEAPEAVCKalienina@Client@@@Z DD imagerel $LN5
	DD	imagerel $LN5+114
	DD	imagerel $unwind$??$Safe_Release@PEAVCKalienina@Client@@@Engine@@YAKAEAPEAVCKalienina@Client@@@Z
pdata	ENDS
;	COMDAT pdata
pdata	SEGMENT
$pdata$??$Safe_Release@PEAVCRenderer@Engine@@@Engine@@YAKAEAPEAVCRenderer@0@@Z DD imagerel $LN5
	DD	imagerel $LN5+114
	DD	imagerel $unwind$??$Safe_Release@PEAVCRenderer@Engine@@@Engine@@YAKAEAPEAVCRenderer@0@@Z
pdata	ENDS
;	COMDAT pdata
pdata	SEGMENT
$pdata$??$Safe_Release@PEAVCTransform@Engine@@@Engine@@YAKAEAPEAVCTransform@0@@Z DD imagerel $LN5
	DD	imagerel $LN5+114
	DD	imagerel $unwind$??$Safe_Release@PEAVCTransform@Engine@@@Engine@@YAKAEAPEAVCTransform@0@@Z
pdata	ENDS
;	COMDAT pdata
pdata	SEGMENT
$pdata$??$Safe_Release@PEAVCModel@Engine@@@Engine@@YAKAEAPEAVCModel@0@@Z DD imagerel $LN5
	DD	imagerel $LN5+114
	DD	imagerel $unwind$??$Safe_Release@PEAVCModel@Engine@@@Engine@@YAKAEAPEAVCModel@0@@Z
pdata	ENDS
;	COMDAT pdata
pdata	SEGMENT
$pdata$??$Safe_Release@PEAVCShader@Engine@@@Engine@@YAKAEAPEAVCShader@0@@Z DD imagerel $LN5
	DD	imagerel $LN5+114
	DD	imagerel $unwind$??$Safe_Release@PEAVCShader@Engine@@@Engine@@YAKAEAPEAVCShader@0@@Z
pdata	ENDS
;	COMDAT pdata
pdata	SEGMENT
$pdata$??$?0$$V@?$_Compressed_pair@U?$_Wrap_alloc@V?$allocator@_W@std@@@std@@V?$_String_val@U?$_Simple_types@_W@std@@@2@$00@std@@QEAA@U_Zero_then_variadic_args_t@1@@Z DD imagerel $LN4
	DD	imagerel $LN4+90
	DD	imagerel $unwind$??$?0$$V@?$_Compressed_pair@U?$_Wrap_alloc@V?$allocator@_W@std@@@std@@V?$_String_val@U?$_Simple_types@_W@std@@@2@$00@std@@QEAA@U_Zero_then_variadic_args_t@1@@Z
pdata	ENDS
;	COMDAT pdata
pdata	SEGMENT
$pdata$??$addressof@PEA_W@std@@YAPEAPEA_WAEAPEA_W@Z DD imagerel $LN3
	DD	imagerel $LN3+57
	DD	imagerel $unwind$??$addressof@PEA_W@std@@YAPEAPEA_WAEAPEA_W@Z
pdata	ENDS
;	COMDAT pdata
pdata	SEGMENT
$pdata$??$destroy@PEA_W@?$_Wrap_alloc@V?$allocator@_W@std@@@std@@QEAAXPEAPEA_W@Z DD imagerel $LN3
	DD	imagerel $LN3+76
	DD	imagerel $unwind$??$destroy@PEA_W@?$_Wrap_alloc@V?$allocator@_W@std@@@std@@QEAAXPEAPEA_W@Z
pdata	ENDS
;	COMDAT pdata
pdata	SEGMENT
$pdata$??$_Unfancy@_W@std@@YAPEA_WPEA_W@Z DD imagerel $LN3
	DD	imagerel $LN3+57
	DD	imagerel $unwind$??$_Unfancy@_W@std@@YAPEA_WPEA_W@Z
pdata	ENDS
;	COMDAT pdata
pdata	SEGMENT
$pdata$??$_Debug_pointer@$$CB_W@std@@YAXPEB_W0I@Z DD imagerel $LN4
	DD	imagerel $LN4+99
	DD	imagerel $unwind$??$_Debug_pointer@$$CB_W@std@@YAXPEB_W0I@Z
pdata	ENDS
;	COMDAT pdata
pdata	SEGMENT
$pdata$??$_Debug_pointer_if@$$CB_W@std@@YAX_NPEB_W1I@Z DD imagerel $LN4
	DD	imagerel $LN4+114
	DD	imagerel $unwind$??$_Debug_pointer_if@$$CB_W@std@@YAX_NPEB_W1I@Z
pdata	ENDS
;	COMDAT pdata
pdata	SEGMENT
$pdata$?deallocate@?$allocator@U_Container_proxy@std@@@std@@QEAAXPEAU_Container_proxy@2@_K@Z DD imagerel $LN3
	DD	imagerel $LN3+87
	DD	imagerel $unwind$?deallocate@?$allocator@U_Container_proxy@std@@@std@@QEAAXPEAU_Container_proxy@2@_K@Z
pdata	ENDS
;	COMDAT pdata
pdata	SEGMENT
$pdata$?allocate@?$allocator@U_Container_proxy@std@@@std@@QEAAPEAU_Container_proxy@2@_K@Z DD imagerel $LN3
	DD	imagerel $LN3+77
	DD	imagerel $unwind$?allocate@?$allocator@U_Container_proxy@std@@@std@@QEAAPEAU_Container_proxy@2@_K@Z
pdata	ENDS
;	COMDAT pdata
pdata	SEGMENT
$pdata$?address@?$_Wrap_alloc@V?$allocator@U_Container_proxy@std@@@std@@@std@@QEBAPEAU_Container_proxy@2@AEAU32@@Z DD imagerel $LN3
	DD	imagerel $LN3+69
	DD	imagerel $unwind$?address@?$_Wrap_alloc@V?$allocator@U_Container_proxy@std@@@std@@@std@@QEBAPEAU_Container_proxy@2@AEAU32@@Z
pdata	ENDS
;	COMDAT pdata
pdata	SEGMENT
$pdata$?allocate@?$_Wrap_alloc@V?$allocator@U_Container_proxy@std@@@std@@@std@@QEAAPEAU_Container_proxy@2@_K@Z DD imagerel $LN3
	DD	imagerel $LN3+76
	DD	imagerel $unwind$?allocate@?$_Wrap_alloc@V?$allocator@U_Container_proxy@std@@@std@@@std@@QEAAPEAU_Container_proxy@2@_K@Z
pdata	ENDS
;	COMDAT pdata
pdata	SEGMENT
$pdata$?deallocate@?$_Wrap_alloc@V?$allocator@U_Container_proxy@std@@@std@@@std@@QEAAXPEAU_Container_proxy@2@_K@Z DD imagerel $LN3
	DD	imagerel $LN3+88
	DD	imagerel $unwind$?deallocate@?$_Wrap_alloc@V?$allocator@U_Container_proxy@std@@@std@@@std@@QEAAXPEAU_Container_proxy@2@_K@Z
pdata	ENDS
;	COMDAT pdata
pdata	SEGMENT
$pdata$??$destroy@U_Container_proxy@std@@@?$_Wrap_alloc@V?$allocator@U_Container_proxy@std@@@std@@@std@@QEAAXPEAU_Container_proxy@1@@Z DD imagerel $LN3
	DD	imagerel $LN3+76
	DD	imagerel $unwind$??$destroy@U_Container_proxy@std@@@?$_Wrap_alloc@V?$allocator@U_Container_proxy@std@@@std@@@std@@QEAAXPEAU_Container_proxy@1@@Z
pdata	ENDS
;	COMDAT pdata
pdata	SEGMENT
$pdata$??$_Unfancy@U_Container_proxy@std@@@std@@YAPEAU_Container_proxy@0@PEAU10@@Z DD imagerel $LN3
	DD	imagerel $LN3+57
	DD	imagerel $unwind$??$_Unfancy@U_Container_proxy@std@@@std@@YAPEAU_Container_proxy@0@PEAU10@@Z
pdata	ENDS
;	COMDAT pdata
pdata	SEGMENT
$pdata$??$construct@U_Container_proxy@std@@U12@@?$_Wrap_alloc@V?$allocator@U_Container_proxy@std@@@std@@@std@@QEAAXPEAU_Container_proxy@1@$$QEAU21@@Z DD imagerel $LN3
	DD	imagerel $LN3+96
	DD	imagerel $unwind$??$construct@U_Container_proxy@std@@U12@@?$_Wrap_alloc@V?$allocator@U_Container_proxy@std@@@std@@@std@@QEAAXPEAU_Container_proxy@1@$$QEAU21@@Z
pdata	ENDS
;	COMDAT pdata
pdata	SEGMENT
$pdata$??$?0AEAU?$_Wrap_alloc@V?$allocator@_W@std@@@std@@@?$_Wrap_alloc@V?$allocator@U_Container_proxy@std@@@std@@@std@@QEAA@AEAU?$_Wrap_alloc@V?$allocator@_W@std@@@1@@Z DD imagerel $LN3
	DD	imagerel $LN3+91
	DD	imagerel $unwind$??$?0AEAU?$_Wrap_alloc@V?$allocator@_W@std@@@std@@@?$_Wrap_alloc@V?$allocator@U_Container_proxy@std@@@std@@@std@@QEAA@AEAU?$_Wrap_alloc@V?$allocator@_W@std@@@1@@Z
pdata	ENDS
;	COMDAT pdata
pdata	SEGMENT
$pdata$??$construct@PEA_WAEAPEA_W@?$_Wrap_alloc@V?$allocator@_W@std@@@std@@QEAAXPEAPEA_WAEAPEA_W@Z DD imagerel $LN3
	DD	imagerel $LN3+96
	DD	imagerel $unwind$??$construct@PEA_WAEAPEA_W@?$_Wrap_alloc@V?$allocator@_W@std@@@std@@QEAAXPEAPEA_WAEAPEA_W@Z
pdata	ENDS
;	COMDAT pdata
pdata	SEGMENT
$pdata$?pointer_to@?$pointer_traits@PEAU_Container_proxy@std@@@std@@SAPEAU_Container_proxy@2@AEAU32@@Z DD imagerel $LN3
	DD	imagerel $LN3+64
	DD	imagerel $unwind$?pointer_to@?$pointer_traits@PEAU_Container_proxy@std@@@std@@SAPEAU_Container_proxy@2@AEAU32@@Z
pdata	ENDS
;	COMDAT pdata
pdata	SEGMENT
$pdata$??$addressof@U_Container_proxy@std@@@std@@YAPEAU_Container_proxy@0@AEAU10@@Z DD imagerel $LN3
	DD	imagerel $LN3+57
	DD	imagerel $unwind$??$addressof@U_Container_proxy@std@@@std@@YAPEAU_Container_proxy@0@AEAU10@@Z
pdata	ENDS
;	COMDAT pdata
pdata	SEGMENT
$pdata$??$destroy@PEA_W@?$allocator_traits@V?$allocator@_W@std@@@std@@SAXAEAV?$allocator@_W@1@PEAPEA_W@Z DD imagerel $LN3
	DD	imagerel $LN3+76
	DD	imagerel $unwind$??$destroy@PEA_W@?$allocator_traits@V?$allocator@_W@std@@@std@@SAXAEAV?$allocator@_W@1@PEAPEA_W@Z
pdata	ENDS
;	COMDAT pdata
pdata	SEGMENT
$pdata$??$destroy@U_Container_proxy@std@@@?$allocator_traits@V?$allocator@U_Container_proxy@std@@@std@@@std@@SAXAEAV?$allocator@U_Container_proxy@std@@@1@PEAU_Container_proxy@1@@Z DD imagerel $LN3
	DD	imagerel $LN3+76
	DD	imagerel $unwind$??$destroy@U_Container_proxy@std@@@?$allocator_traits@V?$allocator@U_Container_proxy@std@@@std@@@std@@SAXAEAV?$allocator@U_Container_proxy@std@@@1@PEAU_Container_proxy@1@@Z
pdata	ENDS
;	COMDAT pdata
pdata	SEGMENT
$pdata$??$forward@U_Container_proxy@std@@@std@@YA$$QEAU_Container_proxy@0@AEAU10@@Z DD imagerel $LN3
	DD	imagerel $LN3+57
	DD	imagerel $unwind$??$forward@U_Container_proxy@std@@@std@@YA$$QEAU_Container_proxy@0@AEAU10@@Z
pdata	ENDS
;	COMDAT pdata
pdata	SEGMENT
$pdata$??$construct@U_Container_proxy@std@@U12@@?$allocator_traits@V?$allocator@U_Container_proxy@std@@@std@@@std@@SAXAEAV?$allocator@U_Container_proxy@std@@@1@PEAU_Container_proxy@1@$$QEAU31@@Z DD imagerel $LN3
	DD	imagerel $LN3+96
	DD	imagerel $unwind$??$construct@U_Container_proxy@std@@U12@@?$allocator_traits@V?$allocator@U_Container_proxy@std@@@std@@@std@@SAXAEAV?$allocator@U_Container_proxy@std@@@1@PEAU_Container_proxy@1@$$QEAU31@@Z
pdata	ENDS
;	COMDAT pdata
pdata	SEGMENT
$pdata$??$forward@AEAU?$_Wrap_alloc@V?$allocator@_W@std@@@std@@@std@@YAAEAU?$_Wrap_alloc@V?$allocator@_W@std@@@0@AEAU10@@Z DD imagerel $LN3
	DD	imagerel $LN3+57
	DD	imagerel $unwind$??$forward@AEAU?$_Wrap_alloc@V?$allocator@_W@std@@@std@@@std@@YAAEAU?$_Wrap_alloc@V?$allocator@_W@std@@@0@AEAU10@@Z
pdata	ENDS
;	COMDAT pdata
pdata	SEGMENT
$pdata$??$?0_W@?$allocator@U_Container_proxy@std@@@std@@QEAA@AEBV?$allocator@_W@1@@Z DD imagerel $LN3
	DD	imagerel $LN3+62
	DD	imagerel $unwind$??$?0_W@?$allocator@U_Container_proxy@std@@@std@@QEAA@AEBV?$allocator@_W@1@@Z
pdata	ENDS
;	COMDAT pdata
pdata	SEGMENT
$pdata$??$forward@AEAPEA_W@std@@YAAEAPEA_WAEAPEA_W@Z DD imagerel $LN3
	DD	imagerel $LN3+57
	DD	imagerel $unwind$??$forward@AEAPEA_W@std@@YAAEAPEA_WAEAPEA_W@Z
pdata	ENDS
;	COMDAT pdata
pdata	SEGMENT
$pdata$??$construct@PEA_WAEAPEA_W@?$allocator_traits@V?$allocator@_W@std@@@std@@SAXAEAV?$allocator@_W@1@PEAPEA_WAEAPEA_W@Z DD imagerel $LN3
	DD	imagerel $LN3+96
	DD	imagerel $unwind$??$construct@PEA_WAEAPEA_W@?$allocator_traits@V?$allocator@_W@std@@@std@@SAXAEAV?$allocator@_W@1@PEAPEA_WAEAPEA_W@Z
pdata	ENDS
;	COMDAT pdata
pdata	SEGMENT
$pdata$??$destroy@PEA_W@?$allocator@_W@std@@QEAAXPEAPEA_W@Z DD imagerel $LN3
	DD	imagerel $LN3+55
	DD	imagerel $unwind$??$destroy@PEA_W@?$allocator@_W@std@@QEAAXPEAPEA_W@Z
pdata	ENDS
;	COMDAT pdata
pdata	SEGMENT
$pdata$??$destroy@U_Container_proxy@std@@@?$allocator@U_Container_proxy@std@@@std@@QEAAXPEAU_Container_proxy@1@@Z DD imagerel $LN3
	DD	imagerel $LN3+55
	DD	imagerel $unwind$??$destroy@U_Container_proxy@std@@@?$allocator@U_Container_proxy@std@@@std@@QEAAXPEAU_Container_proxy@1@@Z
pdata	ENDS
;	COMDAT pdata
pdata	SEGMENT
$pdata$??$construct@U_Container_proxy@std@@U12@@?$allocator@U_Container_proxy@std@@@std@@QEAAXPEAU_Container_proxy@1@$$QEAU21@@Z DD imagerel $LN5
	DD	imagerel $LN5+154
	DD	imagerel $unwind$??$construct@U_Container_proxy@std@@U12@@?$allocator@U_Container_proxy@std@@@std@@QEAAXPEAU_Container_proxy@1@$$QEAU21@@Z
pdata	ENDS
;	COMDAT pdata
pdata	SEGMENT
$pdata$??$construct@PEA_WAEAPEA_W@?$allocator@_W@std@@QEAAXPEAPEA_WAEAPEA_W@Z DD imagerel $LN5
	DD	imagerel $LN5+148
	DD	imagerel $unwind$??$construct@PEA_WAEAPEA_W@?$allocator@_W@std@@QEAAXPEAPEA_WAEAPEA_W@Z
pdata	ENDS
;	COMDAT __xmm@80000000800000008000000080000000
CONST	SEGMENT
__xmm@80000000800000008000000080000000 DB 00H, 00H, 00H, 080H, 00H, 00H, 00H
	DB	080H, 00H, 00H, 00H, 080H, 00H, 00H, 00H, 080H
CONST	ENDS
;	COMDAT __real@43700000
CONST	SEGMENT
__real@43700000 DD 043700000r			; 240
CONST	ENDS
;	COMDAT __real@40a00000
CONST	SEGMENT
__real@40a00000 DD 040a00000r			; 5
CONST	ENDS
;	COMDAT __real@3f800000
CONST	SEGMENT
__real@3f800000 DD 03f800000r			; 1
CONST	ENDS
;	COMDAT __real@3c8efa35
CONST	SEGMENT
__real@3c8efa35 DD 03c8efa35r			; 0.0174533
CONST	ENDS
;	COMDAT __real@00000000
CONST	SEGMENT
__real@00000000 DD 000000000r			; 0
CONST	ENDS
;	COMDAT rtc$TMZ
rtc$TMZ	SEGMENT
_RTC_Shutdown.rtc$TMZ DQ FLAT:_RTC_Shutdown
rtc$TMZ	ENDS
;	COMDAT rtc$IMZ
rtc$IMZ	SEGMENT
_RTC_InitBase.rtc$IMZ DQ FLAT:_RTC_InitBase
rtc$IMZ	ENDS
;	COMDAT ??_R2CBase@Engine@@8
rdata$r	SEGMENT
??_R2CBase@Engine@@8 DD imagerel ??_R1A@?0A@EA@CBase@Engine@@8 ; Engine::CBase::`RTTI Base Class Array'
	ORG $+3
rdata$r	ENDS
;	COMDAT ??_R3CBase@Engine@@8
rdata$r	SEGMENT
??_R3CBase@Engine@@8 DD 00H				; Engine::CBase::`RTTI Class Hierarchy Descriptor'
	DD	00H
	DD	01H
	DD	imagerel ??_R2CBase@Engine@@8
rdata$r	ENDS
;	COMDAT ??_R0?AVCBase@Engine@@@8
data$r	SEGMENT
??_R0?AVCBase@Engine@@@8 DQ FLAT:??_7type_info@@6B@	; Engine::CBase `RTTI Type Descriptor'
	DQ	0000000000000000H
	DB	'.?AVCBase@Engine@@', 00H
data$r	ENDS
;	COMDAT ??_R1A@?0A@EA@CBase@Engine@@8
rdata$r	SEGMENT
??_R1A@?0A@EA@CBase@Engine@@8 DD imagerel ??_R0?AVCBase@Engine@@@8 ; Engine::CBase::`RTTI Base Class Descriptor at (0,-1,0,64)'
	DD	00H
	DD	00H
	DD	0ffffffffH
	DD	00H
	DD	040H
	DD	imagerel ??_R3CBase@Engine@@8
rdata$r	ENDS
;	COMDAT ??_R2CGameObject@Engine@@8
rdata$r	SEGMENT
??_R2CGameObject@Engine@@8 DD imagerel ??_R1A@?0A@EA@CGameObject@Engine@@8 ; Engine::CGameObject::`RTTI Base Class Array'
	DD	imagerel ??_R1A@?0A@EA@CBase@Engine@@8
	ORG $+3
rdata$r	ENDS
;	COMDAT ??_R3CGameObject@Engine@@8
rdata$r	SEGMENT
??_R3CGameObject@Engine@@8 DD 00H			; Engine::CGameObject::`RTTI Class Hierarchy Descriptor'
	DD	00H
	DD	02H
	DD	imagerel ??_R2CGameObject@Engine@@8
rdata$r	ENDS
;	COMDAT ??_R0?AVCGameObject@Engine@@@8
data$r	SEGMENT
??_R0?AVCGameObject@Engine@@@8 DQ FLAT:??_7type_info@@6B@ ; Engine::CGameObject `RTTI Type Descriptor'
	DQ	0000000000000000H
	DB	'.?AVCGameObject@Engine@@', 00H
data$r	ENDS
;	COMDAT ??_R1A@?0A@EA@CGameObject@Engine@@8
rdata$r	SEGMENT
??_R1A@?0A@EA@CGameObject@Engine@@8 DD imagerel ??_R0?AVCGameObject@Engine@@@8 ; Engine::CGameObject::`RTTI Base Class Descriptor at (0,-1,0,64)'
	DD	01H
	DD	00H
	DD	0ffffffffH
	DD	00H
	DD	040H
	DD	imagerel ??_R3CGameObject@Engine@@8
rdata$r	ENDS
;	COMDAT ??_R1A@?0A@EA@CKalienina@Client@@8
rdata$r	SEGMENT
??_R1A@?0A@EA@CKalienina@Client@@8 DD imagerel ??_R0?AVCKalienina@Client@@@8 ; Client::CKalienina::`RTTI Base Class Descriptor at (0,-1,0,64)'
	DD	02H
	DD	00H
	DD	0ffffffffH
	DD	00H
	DD	040H
	DD	imagerel ??_R3CKalienina@Client@@8
rdata$r	ENDS
;	COMDAT ??_R2CKalienina@Client@@8
rdata$r	SEGMENT
??_R2CKalienina@Client@@8 DD imagerel ??_R1A@?0A@EA@CKalienina@Client@@8 ; Client::CKalienina::`RTTI Base Class Array'
	DD	imagerel ??_R1A@?0A@EA@CGameObject@Engine@@8
	DD	imagerel ??_R1A@?0A@EA@CBase@Engine@@8
	ORG $+3
rdata$r	ENDS
;	COMDAT ??_R3CKalienina@Client@@8
rdata$r	SEGMENT
??_R3CKalienina@Client@@8 DD 00H			; Client::CKalienina::`RTTI Class Hierarchy Descriptor'
	DD	00H
	DD	03H
	DD	imagerel ??_R2CKalienina@Client@@8
rdata$r	ENDS
;	COMDAT ??_R0?AVCKalienina@Client@@@8
data$r	SEGMENT
??_R0?AVCKalienina@Client@@@8 DQ FLAT:??_7type_info@@6B@ ; Client::CKalienina `RTTI Type Descriptor'
	DQ	0000000000000000H
	DB	'.?AVCKalienina@Client@@', 00H
data$r	ENDS
;	COMDAT ??_R4CKalienina@Client@@6B@
rdata$r	SEGMENT
??_R4CKalienina@Client@@6B@ DD 01H			; Client::CKalienina::`RTTI Complete Object Locator'
	DD	00H
	DD	00H
	DD	imagerel ??_R0?AVCKalienina@Client@@@8
	DD	imagerel ??_R3CKalienina@Client@@8
	DD	imagerel ??_R4CKalienina@Client@@6B@
rdata$r	ENDS
;	COMDAT ??_C@_1CK@EOPGIILJ@?$AAi?$AAn?$AAv?$AAa?$AAl?$AAi?$AAd?$AA?5?$AAn?$AAu?$AAl?$AAl?$AA?5?$AAp?$AAo?$AAi?$AAn?$AAt?$AAe?$AAr?$AA?$AA@
CONST	SEGMENT
??_C@_1CK@EOPGIILJ@?$AAi?$AAn?$AAv?$AAa?$AAl?$AAi?$AAd?$AA?5?$AAn?$AAu?$AAl?$AAl?$AA?5?$AAp?$AAo?$AAi?$AAn?$AAt?$AAe?$AAr?$AA?$AA@ DB 'i'
	DB	00H, 'n', 00H, 'v', 00H, 'a', 00H, 'l', 00H, 'i', 00H, 'd', 00H
	DB	' ', 00H, 'n', 00H, 'u', 00H, 'l', 00H, 'l', 00H, ' ', 00H, 'p'
	DB	00H, 'o', 00H, 'i', 00H, 'n', 00H, 't', 00H, 'e', 00H, 'r', 00H
	DB	00H, 00H					; `string'
CONST	ENDS
;	COMDAT ??_C@_0BI@CFPLBAOH@invalid?5string?5position?$AA@
CONST	SEGMENT
??_C@_0BI@CFPLBAOH@invalid?5string?5position?$AA@ DB 'invalid string posi'
	DB	'tion', 00H					; `string'
CONST	ENDS
;	COMDAT ??_C@_0BA@JFNIOLAK@string?5too?5long?$AA@
CONST	SEGMENT
??_C@_0BA@JFNIOLAK@string?5too?5long?$AA@ DB 'string too long', 00H ; `string'
CONST	ENDS
;	COMDAT ??_C@_1IO@EADHKMNI@?$AAc?$AA?3?$AA?2?$AAp?$AAr?$AAo?$AAg?$AAr?$AAa?$AAm?$AA?5?$AAf?$AAi?$AAl?$AAe?$AAs?$AA?5?$AA?$CI?$AAx?$AA8?$AA6?$AA?$CJ?$AA?2?$AAm?$AAi?$AAc?$AAr?$AAo?$AAs?$AAo?$AAf?$AAt@
CONST	SEGMENT
??_C@_1IO@EADHKMNI@?$AAc?$AA?3?$AA?2?$AAp?$AAr?$AAo?$AAg?$AAr?$AAa?$AAm?$AA?5?$AAf?$AAi?$AAl?$AAe?$AAs?$AA?5?$AA?$CI?$AAx?$AA8?$AA6?$AA?$CJ?$AA?2?$AAm?$AAi?$AAc?$AAr?$AAo?$AAs?$AAo?$AAf?$AAt@ DB 'c'
	DB	00H, ':', 00H, '\', 00H, 'p', 00H, 'r', 00H, 'o', 00H, 'g', 00H
	DB	'r', 00H, 'a', 00H, 'm', 00H, ' ', 00H, 'f', 00H, 'i', 00H, 'l'
	DB	00H, 'e', 00H, 's', 00H, ' ', 00H, '(', 00H, 'x', 00H, '8', 00H
	DB	'6', 00H, ')', 00H, '\', 00H, 'm', 00H, 'i', 00H, 'c', 00H, 'r'
	DB	00H, 'o', 00H, 's', 00H, 'o', 00H, 'f', 00H, 't', 00H, ' ', 00H
	DB	'v', 00H, 'i', 00H, 's', 00H, 'u', 00H, 'a', 00H, 'l', 00H, ' '
	DB	00H, 's', 00H, 't', 00H, 'u', 00H, 'd', 00H, 'i', 00H, 'o', 00H
	DB	' ', 00H, '1', 00H, '4', 00H, '.', 00H, '0', 00H, '\', 00H, 'v'
	DB	00H, 'c', 00H, '\', 00H, 'i', 00H, 'n', 00H, 'c', 00H, 'l', 00H
	DB	'u', 00H, 'd', 00H, 'e', 00H, '\', 00H, 'x', 00H, 's', 00H, 't'
	DB	00H, 'r', 00H, 'i', 00H, 'n', 00H, 'g', 00H, 00H, 00H ; `string'
CONST	ENDS
;	COMDAT ??_C@_1DK@JKHCCMHF@?$AAF?$AAa?$AAi?$AAl?$AAe?$AAd?$AA?5?$AAt?$AAo?$AA?5?$AAC?$AAl?$AAo?$AAn?$AAe?$AA?5?$AA?3?$AA?5?$AAC?$AAK?$AAa?$AAl?$AAi?$AAe?$AAn?$AAi?$AAn?$AAa?$AA?$AA@
CONST	SEGMENT
??_C@_1DK@JKHCCMHF@?$AAF?$AAa?$AAi?$AAl?$AAe?$AAd?$AA?5?$AAt?$AAo?$AA?5?$AAC?$AAl?$AAo?$AAn?$AAe?$AA?5?$AA?3?$AA?5?$AAC?$AAK?$AAa?$AAl?$AAi?$AAe?$AAn?$AAi?$AAn?$AAa?$AA?$AA@ DB 'F'
	DB	00H, 'a', 00H, 'i', 00H, 'l', 00H, 'e', 00H, 'd', 00H, ' ', 00H
	DB	't', 00H, 'o', 00H, ' ', 00H, 'C', 00H, 'l', 00H, 'o', 00H, 'n'
	DB	00H, 'e', 00H, ' ', 00H, ':', 00H, ' ', 00H, 'C', 00H, 'K', 00H
	DB	'a', 00H, 'l', 00H, 'i', 00H, 'e', 00H, 'n', 00H, 'i', 00H, 'n'
	DB	00H, 'a', 00H, 00H, 00H			; `string'
CONST	ENDS
;	COMDAT ?__LINE__Var@?0??Clone@CKalienina@Client@@UEAAPEAVCGameObject@Engine@@PEAX@Z@4JA
_DATA	SEGMENT
?__LINE__Var@?0??Clone@CKalienina@Client@@UEAAPEAVCGameObject@Engine@@PEAX@Z@4JA DD 0213H ; `Client::CKalienina::Clone'::`1'::__LINE__Var
_DATA	ENDS
;	COMDAT ??_C@_1DM@ICLKDEHF@?$AAF?$AAa?$AAi?$AAl?$AAe?$AAd?$AA?5?$AAt?$AAo?$AA?5?$AAC?$AAr?$AAe?$AAa?$AAt?$AAe?$AA?5?$AA?3?$AA?5?$AAC?$AAK?$AAa?$AAl?$AAi?$AAe?$AAn?$AAi?$AAn?$AAa?$AA?$AA@
CONST	SEGMENT
??_C@_1DM@ICLKDEHF@?$AAF?$AAa?$AAi?$AAl?$AAe?$AAd?$AA?5?$AAt?$AAo?$AA?5?$AAC?$AAr?$AAe?$AAa?$AAt?$AAe?$AA?5?$AA?3?$AA?5?$AAC?$AAK?$AAa?$AAl?$AAi?$AAe?$AAn?$AAi?$AAn?$AAa?$AA?$AA@ DB 'F'
	DB	00H, 'a', 00H, 'i', 00H, 'l', 00H, 'e', 00H, 'd', 00H, ' ', 00H
	DB	't', 00H, 'o', 00H, ' ', 00H, 'C', 00H, 'r', 00H, 'e', 00H, 'a'
	DB	00H, 't', 00H, 'e', 00H, ' ', 00H, ':', 00H, ' ', 00H, 'C', 00H
	DB	'K', 00H, 'a', 00H, 'l', 00H, 'i', 00H, 'e', 00H, 'n', 00H, 'i'
	DB	00H, 'n', 00H, 'a', 00H, 00H, 00H		; `string'
CONST	ENDS
;	COMDAT ??_C@_1BA@HHOMBECE@?$AAM?$AAe?$AAs?$AAs?$AAa?$AAg?$AAe?$AA?$AA@
CONST	SEGMENT
??_C@_1BA@HHOMBECE@?$AAM?$AAe?$AAs?$AAs?$AAa?$AAg?$AAe?$AA?$AA@ DB 'M', 00H
	DB	'e', 00H, 's', 00H, 's', 00H, 'a', 00H, 'g', 00H, 'e', 00H, 00H
	DB	00H						; `string'
CONST	ENDS
;	COMDAT ??_C@_0DB@JLKHCEHN@c?3?2github?2framework?2client?2priva@
CONST	SEGMENT
??_C@_0DB@JLKHCEHN@c?3?2github?2framework?2client?2priva@ DB 'c:\github\f'
	DB	'ramework\client\private\kalienina.cpp', 00H	; `string'
CONST	ENDS
;	COMDAT ?__LINE__Var@?0??Create@CKalienina@Client@@SAPEAV23@PEAUID3D11Device@@PEAUID3D11DeviceContext@@@Z@4JA
_DATA	SEGMENT
?__LINE__Var@?0??Create@CKalienina@Client@@SAPEAV23@PEAUID3D11Device@@PEAUID3D11DeviceContext@@@Z@4JA DD 0207H ; `Client::CKalienina::Create'::`1'::__LINE__Var
_DATA	ENDS
;	COMDAT ??_C@_0BA@EALGDMPJ@g_vLightAmbient?$AA@
CONST	SEGMENT
??_C@_0BA@EALGDMPJ@g_vLightAmbient?$AA@ DB 'g_vLightAmbient', 00H ; `string'
CONST	ENDS
;	COMDAT ??_C@_0BB@IJIIKIH@g_vLightSpecular?$AA@
CONST	SEGMENT
??_C@_0BB@IJIIKIH@g_vLightSpecular?$AA@ DB 'g_vLightSpecular', 00H ; `string'
CONST	ENDS
;	COMDAT ??_C@_0BA@PCOGIHOF@g_vLightDiffuse?$AA@
CONST	SEGMENT
??_C@_0BA@PCOGIHOF@g_vLightDiffuse?$AA@ DB 'g_vLightDiffuse', 00H ; `string'
CONST	ENDS
;	COMDAT ??_C@_0M@NHGOLGEL@g_vLightDir?$AA@
CONST	SEGMENT
??_C@_0M@NHGOLGEL@g_vLightDir?$AA@ DB 'g_vLightDir', 00H ; `string'
CONST	ENDS
;	COMDAT ??_C@_0P@BDEIJKBM@g_vCamPosition?$AA@
CONST	SEGMENT
??_C@_0P@BDEIJKBM@g_vCamPosition?$AA@ DB 'g_vCamPosition', 00H ; `string'
CONST	ENDS
;	COMDAT ??_C@_0N@OOHDPIO@g_ProjMatrix?$AA@
CONST	SEGMENT
??_C@_0N@OOHDPIO@g_ProjMatrix?$AA@ DB 'g_ProjMatrix', 00H ; `string'
CONST	ENDS
;	COMDAT ??_C@_0N@ELIMCBLG@g_ViewMatrix?$AA@
CONST	SEGMENT
??_C@_0N@ELIMCBLG@g_ViewMatrix?$AA@ DB 'g_ViewMatrix', 00H ; `string'
CONST	ENDS
;	COMDAT ??_C@_0O@PFNLPMLD@g_WorldMatrix?$AA@
CONST	SEGMENT
??_C@_0O@PFNLPMLD@g_WorldMatrix?$AA@ DB 'g_WorldMatrix', 00H ; `string'
CONST	ENDS
;	COMDAT ??_C@_1DE@NIJICLJG@?$AAp?$AAr?$AAo?$AAt?$AAo?$AA_?$AAc?$AAo?$AAm?$AA_?$AAm?$AAo?$AAd?$AAe?$AAl?$AA_?$AAk?$AAa?$AAl?$AAi?$AAe?$AAn?$AAi?$AAn?$AAa?$AA?$AA@
CONST	SEGMENT
??_C@_1DE@NIJICLJG@?$AAp?$AAr?$AAo?$AAt?$AAo?$AA_?$AAc?$AAo?$AAm?$AA_?$AAm?$AAo?$AAd?$AAe?$AAl?$AA_?$AAk?$AAa?$AAl?$AAi?$AAe?$AAn?$AAi?$AAn?$AAa?$AA?$AA@ DB 'p'
	DB	00H, 'r', 00H, 'o', 00H, 't', 00H, 'o', 00H, '_', 00H, 'c', 00H
	DB	'o', 00H, 'm', 00H, '_', 00H, 'm', 00H, 'o', 00H, 'd', 00H, 'e'
	DB	00H, 'l', 00H, '_', 00H, 'k', 00H, 'a', 00H, 'l', 00H, 'i', 00H
	DB	'e', 00H, 'n', 00H, 'i', 00H, 'n', 00H, 'a', 00H, 00H, 00H ; `string'
CONST	ENDS
;	COMDAT ??_C@_1BE@MLNOEPCA@?$AAc?$AAo?$AAm?$AA_?$AAm?$AAo?$AAd?$AAe?$AAl?$AA?$AA@
CONST	SEGMENT
??_C@_1BE@MLNOEPCA@?$AAc?$AAo?$AAm?$AA_?$AAm?$AAo?$AAd?$AAe?$AAl?$AA?$AA@ DB 'c'
	DB	00H, 'o', 00H, 'm', 00H, '_', 00H, 'm', 00H, 'o', 00H, 'd', 00H
	DB	'e', 00H, 'l', 00H, 00H, 00H			; `string'
CONST	ENDS
;	COMDAT ??_C@_1DM@OGMOEMJ@?$AAp?$AAr?$AAo?$AAt?$AAo?$AA_?$AAc?$AAo?$AAm?$AA_?$AAs?$AAh?$AAa?$AAd?$AAe?$AAr?$AA_?$AAv?$AAt?$AAx?$AAa?$AAn?$AAi?$AAm?$AAm?$AAo?$AAd?$AAe?$AAl?$AA?$AA@
CONST	SEGMENT
??_C@_1DM@OGMOEMJ@?$AAp?$AAr?$AAo?$AAt?$AAo?$AA_?$AAc?$AAo?$AAm?$AA_?$AAs?$AAh?$AAa?$AAd?$AAe?$AAr?$AA_?$AAv?$AAt?$AAx?$AAa?$AAn?$AAi?$AAm?$AAm?$AAo?$AAd?$AAe?$AAl?$AA?$AA@ DB 'p'
	DB	00H, 'r', 00H, 'o', 00H, 't', 00H, 'o', 00H, '_', 00H, 'c', 00H
	DB	'o', 00H, 'm', 00H, '_', 00H, 's', 00H, 'h', 00H, 'a', 00H, 'd'
	DB	00H, 'e', 00H, 'r', 00H, '_', 00H, 'v', 00H, 't', 00H, 'x', 00H
	DB	'a', 00H, 'n', 00H, 'i', 00H, 'm', 00H, 'm', 00H, 'o', 00H, 'd'
	DB	00H, 'e', 00H, 'l', 00H, 00H, 00H		; `string'
CONST	ENDS
;	COMDAT ??_C@_1BG@GGOMMBBL@?$AAc?$AAo?$AAm?$AA_?$AAs?$AAh?$AAa?$AAd?$AAe?$AAr?$AA?$AA@
CONST	SEGMENT
??_C@_1BG@GGOMMBBL@?$AAc?$AAo?$AAm?$AA_?$AAs?$AAh?$AAa?$AAd?$AAe?$AAr?$AA?$AA@ DB 'c'
	DB	00H, 'o', 00H, 'm', 00H, '_', 00H, 's', 00H, 'h', 00H, 'a', 00H
	DB	'd', 00H, 'e', 00H, 'r', 00H, 00H, 00H	; `string'
CONST	ENDS
;	COMDAT ??_C@_1DI@OLGFHDLM@?$AAc?$AAo?$AAm?$AA_?$AAc?$AAa?$AAm?$AAe?$AAr?$AAa?$AA_?$AAs?$AAo?$AAc?$AAk?$AAe?$AAt?$AA_?$AAt?$AAr?$AAa?$AAn?$AAs?$AAf?$AAo?$AAr?$AAm?$AA?$AA@
CONST	SEGMENT
??_C@_1DI@OLGFHDLM@?$AAc?$AAo?$AAm?$AA_?$AAc?$AAa?$AAm?$AAe?$AAr?$AAa?$AA_?$AAs?$AAo?$AAc?$AAk?$AAe?$AAt?$AA_?$AAt?$AAr?$AAa?$AAn?$AAs?$AAf?$AAo?$AAr?$AAm?$AA?$AA@ DB 'c'
	DB	00H, 'o', 00H, 'm', 00H, '_', 00H, 'c', 00H, 'a', 00H, 'm', 00H
	DB	'e', 00H, 'r', 00H, 'a', 00H, '_', 00H, 's', 00H, 'o', 00H, 'c'
	DB	00H, 'k', 00H, 'e', 00H, 't', 00H, '_', 00H, 't', 00H, 'r', 00H
	DB	'a', 00H, 'n', 00H, 's', 00H, 'f', 00H, 'o', 00H, 'r', 00H, 'm'
	DB	00H, 00H, 00H				; `string'
CONST	ENDS
;	COMDAT ??_C@_1CI@MLEFGO@?$AAp?$AAr?$AAo?$AAt?$AAo?$AA_?$AAc?$AAo?$AAm?$AA_?$AAt?$AAr?$AAa?$AAn?$AAs?$AAf?$AAo?$AAr?$AAm?$AA?$AA@
CONST	SEGMENT
??_C@_1CI@MLEFGO@?$AAp?$AAr?$AAo?$AAt?$AAo?$AA_?$AAc?$AAo?$AAm?$AA_?$AAt?$AAr?$AAa?$AAn?$AAs?$AAf?$AAo?$AAr?$AAm?$AA?$AA@ DB 'p'
	DB	00H, 'r', 00H, 'o', 00H, 't', 00H, 'o', 00H, '_', 00H, 'c', 00H
	DB	'o', 00H, 'm', 00H, '_', 00H, 't', 00H, 'r', 00H, 'a', 00H, 'n'
	DB	00H, 's', 00H, 'f', 00H, 'o', 00H, 'r', 00H, 'm', 00H, 00H, 00H ; `string'
CONST	ENDS
;	COMDAT ??_C@_1BM@CJMPMHDD@?$AAc?$AAo?$AAm?$AA_?$AAt?$AAr?$AAa?$AAn?$AAs?$AAf?$AAo?$AAr?$AAm?$AA?$AA@
CONST	SEGMENT
??_C@_1BM@CJMPMHDD@?$AAc?$AAo?$AAm?$AA_?$AAt?$AAr?$AAa?$AAn?$AAs?$AAf?$AAo?$AAr?$AAm?$AA?$AA@ DB 'c'
	DB	00H, 'o', 00H, 'm', 00H, '_', 00H, 't', 00H, 'r', 00H, 'a', 00H
	DB	'n', 00H, 's', 00H, 'f', 00H, 'o', 00H, 'r', 00H, 'm', 00H, 00H
	DB	00H						; `string'
CONST	ENDS
;	COMDAT ??_C@_1CG@COFFFCLL@?$AAp?$AAr?$AAo?$AAt?$AAo?$AA_?$AAc?$AAo?$AAm?$AA_?$AAr?$AAe?$AAn?$AAd?$AAe?$AAr?$AAe?$AAr?$AA?$AA@
CONST	SEGMENT
??_C@_1CG@COFFFCLL@?$AAp?$AAr?$AAo?$AAt?$AAo?$AA_?$AAc?$AAo?$AAm?$AA_?$AAr?$AAe?$AAn?$AAd?$AAe?$AAr?$AAe?$AAr?$AA?$AA@ DB 'p'
	DB	00H, 'r', 00H, 'o', 00H, 't', 00H, 'o', 00H, '_', 00H, 'c', 00H
	DB	'o', 00H, 'm', 00H, '_', 00H, 'r', 00H, 'e', 00H, 'n', 00H, 'd'
	DB	00H, 'e', 00H, 'r', 00H, 'e', 00H, 'r', 00H, 00H, 00H ; `string'
CONST	ENDS
;	COMDAT ??_C@_1BK@GIOMOCNE@?$AAc?$AAo?$AAm?$AA_?$AAr?$AAe?$AAn?$AAd?$AAe?$AAr?$AAe?$AAr?$AA?$AA@
CONST	SEGMENT
??_C@_1BK@GIOMOCNE@?$AAc?$AAo?$AAm?$AA_?$AAr?$AAe?$AAn?$AAd?$AAe?$AAr?$AAe?$AAr?$AA?$AA@ DB 'c'
	DB	00H, 'o', 00H, 'm', 00H, '_', 00H, 'r', 00H, 'e', 00H, 'n', 00H
	DB	'd', 00H, 'e', 00H, 'r', 00H, 'e', 00H, 'r', 00H, 00H, 00H ; `string'
CONST	ENDS
;	COMDAT ??_C@_1DG@OGOFKAOF@?$AAp?$AAr?$AAo?$AAt?$AAo?$AA_?$AAo?$AAb?$AAj?$AA_?$AAk?$AAa?$AAl?$AAi?$AAe?$AAn?$AAi?$AAn?$AAa?$AA_?$AAw?$AAe?$AAa?$AAp?$AAo?$AAn?$AA?$AA@
CONST	SEGMENT
??_C@_1DG@OGOFKAOF@?$AAp?$AAr?$AAo?$AAt?$AAo?$AA_?$AAo?$AAb?$AAj?$AA_?$AAk?$AAa?$AAl?$AAi?$AAe?$AAn?$AAi?$AAn?$AAa?$AA_?$AAw?$AAe?$AAa?$AAp?$AAo?$AAn?$AA?$AA@ DB 'p'
	DB	00H, 'r', 00H, 'o', 00H, 't', 00H, 'o', 00H, '_', 00H, 'o', 00H
	DB	'b', 00H, 'j', 00H, '_', 00H, 'k', 00H, 'a', 00H, 'l', 00H, 'i'
	DB	00H, 'e', 00H, 'n', 00H, 'i', 00H, 'n', 00H, 'a', 00H, '_', 00H
	DB	'w', 00H, 'e', 00H, 'a', 00H, 'p', 00H, 'o', 00H, 'n', 00H, 00H
	DB	00H						; `string'
CONST	ENDS
;	COMDAT ??_C@_1BM@BGDMLINA@?$AAp?$AAl?$AAa?$AAy?$AAe?$AAr?$AA_?$AAw?$AAe?$AAa?$AAp?$AAo?$AAn?$AA?$AA@
CONST	SEGMENT
??_C@_1BM@BGDMLINA@?$AAp?$AAl?$AAa?$AAy?$AAe?$AAr?$AA_?$AAw?$AAe?$AAa?$AAp?$AAo?$AAn?$AA?$AA@ DB 'p'
	DB	00H, 'l', 00H, 'a', 00H, 'y', 00H, 'e', 00H, 'r', 00H, '_', 00H
	DB	'w', 00H, 'e', 00H, 'a', 00H, 'p', 00H, 'o', 00H, 'n', 00H, 00H
	DB	00H						; `string'
CONST	ENDS
;	COMDAT ??_C@_1O@KBDJEHME@?$AAw?$AAe?$AAa?$AAp?$AAo?$AAn?$AA?$AA@
CONST	SEGMENT
??_C@_1O@KBDJEHME@?$AAw?$AAe?$AAa?$AAp?$AAo?$AAn?$AA?$AA@ DB 'w', 00H, 'e'
	DB	00H, 'a', 00H, 'p', 00H, 'o', 00H, 'n', 00H, 00H, 00H ; `string'
CONST	ENDS
;	COMDAT ??_C@_0M@CNNLLOGJ@WeaponCase1?$AA@
CONST	SEGMENT
??_C@_0M@CNNLLOGJ@WeaponCase1?$AA@ DB 'WeaponCase1', 00H ; `string'
CONST	ENDS
;	COMDAT ??_C@_08GCJNLIKG@Position?$AA@
CONST	SEGMENT
??_C@_08GCJNLIKG@Position?$AA@ DB 'Position', 00H	; `string'
CONST	ENDS
;	COMDAT ??_C@_04GFJLOHHD@?$CF?43f?$AA@
CONST	SEGMENT
??_C@_04GFJLOHHD@?$CF?43f?$AA@ DB '%.3f', 00H		; `string'
CONST	ENDS
;	COMDAT ??_C@_09MKLAHOHG@Transform?$AA@
CONST	SEGMENT
??_C@_09MKLAHOHG@Transform?$AA@ DB 'Transform', 00H	; `string'
CONST	ENDS
;	COMDAT ??_C@_0N@OEHGEODD@g_BoneMatrix?$AA@
CONST	SEGMENT
??_C@_0N@OEHGEODD@g_BoneMatrix?$AA@ DB 'g_BoneMatrix', 00H ; `string'
CONST	ENDS
;	COMDAT ??_C@_0BB@FMIBAICL@g_DiffuseTexture?$AA@
CONST	SEGMENT
??_C@_0BB@FMIBAICL@g_DiffuseTexture?$AA@ DB 'g_DiffuseTexture', 00H ; `string'
CONST	ENDS
;	COMDAT ??_C@_1M@IOKMPPAD@?$AAC?$AAo?$AAm?$AAb?$AAo?$AA?$AA@
CONST	SEGMENT
??_C@_1M@IOKMPPAD@?$AAC?$AAo?$AAm?$AAb?$AAo?$AA?$AA@ DB 'C', 00H, 'o', 00H
	DB	'm', 00H, 'b', 00H, 'o', 00H, 00H, 00H	; `string'
CONST	ENDS
;	COMDAT ??_7CKalienina@Client@@6B@
CONST	SEGMENT
??_7CKalienina@Client@@6B@ DQ FLAT:??_R4CKalienina@Client@@6B@ ; Client::CKalienina::`vftable'
	DQ	FLAT:??_ECKalienina@Client@@EEAAPEAXI@Z
	DQ	FLAT:?Free@CKalienina@Client@@UEAAXXZ
	DQ	FLAT:?Initialize_Prototype@CKalienina@Client@@UEAAJXZ
	DQ	FLAT:?Initialize@CKalienina@Client@@UEAAJPEAX@Z
	DQ	FLAT:?Tick@CKalienina@Client@@UEAAXN@Z
	DQ	FLAT:?LateTick@CKalienina@Client@@UEAAXN@Z
	DQ	FLAT:?Render@CKalienina@Client@@UEAAJXZ
	DQ	FLAT:?RenderGUI@CKalienina@Client@@UEAAXXZ
	DQ	FLAT:?Clone@CKalienina@Client@@UEAAPEAVCGameObject@Engine@@PEAX@Z
CONST	ENDS
;	COMDAT ?__LINE__Var@?0??XMStoreFloat4x4@DirectX@@YQXPEAUXMFLOAT4X4@2@UXMMATRIX@2@@Z@4JA
_DATA	SEGMENT
?__LINE__Var@?0??XMStoreFloat4x4@DirectX@@YQXPEAUXMFLOAT4X4@2@UXMMATRIX@2@@Z@4JA DD 071aH ; `DirectX::XMStoreFloat4x4'::`1'::__LINE__Var
_DATA	ENDS
;	COMDAT ?__LINE__Var@?0??XMStoreFloat3@DirectX@@YQXPEAUXMFLOAT3@2@T__m128@@@Z@4JA
_DATA	SEGMENT
?__LINE__Var@?0??XMStoreFloat3@DirectX@@YQXPEAUXMFLOAT3@2@T__m128@@@Z@4JA DD 0553H ; `DirectX::XMStoreFloat3'::`1'::__LINE__Var
_DATA	ENDS
;	COMDAT ??_C@_1BK@FHLBGAOP@?$AAp?$AAD?$AAe?$AAs?$AAt?$AAi?$AAn?$AAa?$AAt?$AAi?$AAo?$AAn?$AA?$AA@
CONST	SEGMENT
??_C@_1BK@FHLBGAOP@?$AAp?$AAD?$AAe?$AAs?$AAt?$AAi?$AAn?$AAa?$AAt?$AAi?$AAo?$AAn?$AA?$AA@ DB 'p'
	DB	00H, 'D', 00H, 'e', 00H, 's', 00H, 't', 00H, 'i', 00H, 'n', 00H
	DB	'a', 00H, 't', 00H, 'i', 00H, 'o', 00H, 'n', 00H, 00H, 00H ; `string'
CONST	ENDS
;	COMDAT ??_C@_1JE@DMOBBMDE@?$AAc?$AA?3?$AA?2?$AAp?$AAr?$AAo?$AAg?$AAr?$AAa?$AAm?$AA?5?$AAf?$AAi?$AAl?$AAe?$AAs?$AA?5?$AA?$CI?$AAx?$AA8?$AA6?$AA?$CJ?$AA?2?$AAw?$AAi?$AAn?$AAd?$AAo?$AAw?$AAs?$AA?5?$AAk@
CONST	SEGMENT
??_C@_1JE@DMOBBMDE@?$AAc?$AA?3?$AA?2?$AAp?$AAr?$AAo?$AAg?$AAr?$AAa?$AAm?$AA?5?$AAf?$AAi?$AAl?$AAe?$AAs?$AA?5?$AA?$CI?$AAx?$AA8?$AA6?$AA?$CJ?$AA?2?$AAw?$AAi?$AAn?$AAd?$AAo?$AAw?$AAs?$AA?5?$AAk@ DB 'c'
	DB	00H, ':', 00H, '\', 00H, 'p', 00H, 'r', 00H, 'o', 00H, 'g', 00H
	DB	'r', 00H, 'a', 00H, 'm', 00H, ' ', 00H, 'f', 00H, 'i', 00H, 'l'
	DB	00H, 'e', 00H, 's', 00H, ' ', 00H, '(', 00H, 'x', 00H, '8', 00H
	DB	'6', 00H, ')', 00H, '\', 00H, 'w', 00H, 'i', 00H, 'n', 00H, 'd'
	DB	00H, 'o', 00H, 'w', 00H, 's', 00H, ' ', 00H, 'k', 00H, 'i', 00H
	DB	't', 00H, 's', 00H, '\', 00H, '8', 00H, '.', 00H, '1', 00H, '\'
	DB	00H, 'i', 00H, 'n', 00H, 'c', 00H, 'l', 00H, 'u', 00H, 'd', 00H
	DB	'e', 00H, '\', 00H, 'u', 00H, 'm', 00H, '\', 00H, 'd', 00H, 'i'
	DB	00H, 'r', 00H, 'e', 00H, 'c', 00H, 't', 00H, 'x', 00H, 'm', 00H
	DB	'a', 00H, 't', 00H, 'h', 00H, 'c', 00H, 'o', 00H, 'n', 00H, 'v'
	DB	00H, 'e', 00H, 'r', 00H, 't', 00H, '.', 00H, 'i', 00H, 'n', 00H
	DB	'l', 00H, 00H, 00H				; `string'
CONST	ENDS
;	COMDAT ??_C@_1GI@DHJGPFNI@?$AA?$CC?$AA_?$AAP?$AAt?$AAr?$AA_?$AAu?$AAs?$AAe?$AAr?$AA?5?$AA?9?$AA?5?$AA_?$AAP?$AAt?$AAr?$AA_?$AAc?$AAo?$AAn?$AAt?$AAa?$AAi?$AAn?$AAe?$AAr?$AA?5?$AA?$DM?$AA?$DN?$AA?5?$AA_@
CONST	SEGMENT
??_C@_1GI@DHJGPFNI@?$AA?$CC?$AA_?$AAP?$AAt?$AAr?$AA_?$AAu?$AAs?$AAe?$AAr?$AA?5?$AA?9?$AA?5?$AA_?$AAP?$AAt?$AAr?$AA_?$AAc?$AAo?$AAn?$AAt?$AAa?$AAi?$AAn?$AAe?$AAr?$AA?5?$AA?$DM?$AA?$DN?$AA?5?$AA_@ DB '"'
	DB	00H, '_', 00H, 'P', 00H, 't', 00H, 'r', 00H, '_', 00H, 'u', 00H
	DB	's', 00H, 'e', 00H, 'r', 00H, ' ', 00H, '-', 00H, ' ', 00H, '_'
	DB	00H, 'P', 00H, 't', 00H, 'r', 00H, '_', 00H, 'c', 00H, 'o', 00H
	DB	'n', 00H, 't', 00H, 'a', 00H, 'i', 00H, 'n', 00H, 'e', 00H, 'r'
	DB	00H, ' ', 00H, '<', 00H, '=', 00H, ' ', 00H, '_', 00H, 'N', 00H
	DB	'O', 00H, 'N', 00H, '_', 00H, 'U', 00H, 'S', 00H, 'E', 00H, 'R'
	DB	00H, '_', 00H, 'S', 00H, 'I', 00H, 'Z', 00H, 'E', 00H, '"', 00H
	DB	' ', 00H, '&', 00H, '&', 00H, ' ', 00H, '0', 00H, 00H, 00H ; `string'
CONST	ENDS
;	COMDAT ??_C@_0CN@BLHJCAL@_Ptr_user?5?9?5_Ptr_container?5?$DM?$DN?5_N@
CONST	SEGMENT
??_C@_0CN@BLHJCAL@_Ptr_user?5?9?5_Ptr_container?5?$DM?$DN?5_N@ DB '_Ptr_u'
	DB	'ser - _Ptr_container <= _NON_USER_SIZE', 00H ; `string'
CONST	ENDS
;	COMDAT ??_C@_1HA@NAPGMHAO@?$AA?$CC?$AA2?$AA?5?$AA?$CK?$AA?5?$AAs?$AAi?$AAz?$AAe?$AAo?$AAf?$AA?$CI?$AAv?$AAo?$AAi?$AAd?$AA?5?$AA?$CK?$AA?$CJ?$AA?5?$AA?$DM?$AA?$DN?$AA?5?$AA_?$AAP?$AAt?$AAr?$AA_?$AAu?$AAs?$AAe?$AAr@
CONST	SEGMENT
??_C@_1HA@NAPGMHAO@?$AA?$CC?$AA2?$AA?5?$AA?$CK?$AA?5?$AAs?$AAi?$AAz?$AAe?$AAo?$AAf?$AA?$CI?$AAv?$AAo?$AAi?$AAd?$AA?5?$AA?$CK?$AA?$CJ?$AA?5?$AA?$DM?$AA?$DN?$AA?5?$AA_?$AAP?$AAt?$AAr?$AA_?$AAu?$AAs?$AAe?$AAr@ DB '"'
	DB	00H, '2', 00H, ' ', 00H, '*', 00H, ' ', 00H, 's', 00H, 'i', 00H
	DB	'z', 00H, 'e', 00H, 'o', 00H, 'f', 00H, '(', 00H, 'v', 00H, 'o'
	DB	00H, 'i', 00H, 'd', 00H, ' ', 00H, '*', 00H, ')', 00H, ' ', 00H
	DB	'<', 00H, '=', 00H, ' ', 00H, '_', 00H, 'P', 00H, 't', 00H, 'r'
	DB	00H, '_', 00H, 'u', 00H, 's', 00H, 'e', 00H, 'r', 00H, ' ', 00H
	DB	'-', 00H, ' ', 00H, '_', 00H, 'P', 00H, 't', 00H, 'r', 00H, '_'
	DB	00H, 'c', 00H, 'o', 00H, 'n', 00H, 't', 00H, 'a', 00H, 'i', 00H
	DB	'n', 00H, 'e', 00H, 'r', 00H, '"', 00H, ' ', 00H, '&', 00H, '&'
	DB	00H, ' ', 00H, '0', 00H, 00H, 00H		; `string'
CONST	ENDS
;	COMDAT ??_C@_0DB@GLFJLNCE@2?5?$CK?5sizeof?$CIvoid?5?$CK?$CJ?5?$DM?$DN?5_Ptr_user?5@
CONST	SEGMENT
??_C@_0DB@GLFJLNCE@2?5?$CK?5sizeof?$CIvoid?5?$CK?$CJ?5?$DM?$DN?5_Ptr_user?5@ DB '2'
	DB	' * sizeof(void *) <= _Ptr_user - _Ptr_container', 00H ; `string'
CONST	ENDS
;	COMDAT ??_C@_1EE@PDHAHDDC@?$AA?$CC?$AA_?$AAP?$AAt?$AAr?$AA_?$AAc?$AAo?$AAn?$AAt?$AAa?$AAi?$AAn?$AAe?$AAr?$AA?5?$AA?$DM?$AA?5?$AA_?$AAP?$AAt?$AAr?$AA_?$AAu?$AAs?$AAe?$AAr?$AA?$CC?$AA?5?$AA?$CG?$AA?$CG?$AA?5@
CONST	SEGMENT
??_C@_1EE@PDHAHDDC@?$AA?$CC?$AA_?$AAP?$AAt?$AAr?$AA_?$AAc?$AAo?$AAn?$AAt?$AAa?$AAi?$AAn?$AAe?$AAr?$AA?5?$AA?$DM?$AA?5?$AA_?$AAP?$AAt?$AAr?$AA_?$AAu?$AAs?$AAe?$AAr?$AA?$CC?$AA?5?$AA?$CG?$AA?$CG?$AA?5@ DB '"'
	DB	00H, '_', 00H, 'P', 00H, 't', 00H, 'r', 00H, '_', 00H, 'c', 00H
	DB	'o', 00H, 'n', 00H, 't', 00H, 'a', 00H, 'i', 00H, 'n', 00H, 'e'
	DB	00H, 'r', 00H, ' ', 00H, '<', 00H, ' ', 00H, '_', 00H, 'P', 00H
	DB	't', 00H, 'r', 00H, '_', 00H, 'u', 00H, 's', 00H, 'e', 00H, 'r'
	DB	00H, '"', 00H, ' ', 00H, '&', 00H, '&', 00H, ' ', 00H, '0', 00H
	DB	00H, 00H					; `string'
CONST	ENDS
;	COMDAT ??_C@_0BL@OCKMEJON@_Ptr_container?5?$DM?5_Ptr_user?$AA@
CONST	SEGMENT
??_C@_0BL@OCKMEJON@_Ptr_container?5?$DM?5_Ptr_user?$AA@ DB '_Ptr_containe'
	DB	'r < _Ptr_user', 00H				; `string'
CONST	ENDS
;	COMDAT ??_C@_1JO@EKLKIEHP@?$AA?$CC?$AAr?$AAe?$AAi?$AAn?$AAt?$AAe?$AAr?$AAp?$AAr?$AAe?$AAt?$AA_?$AAc?$AAa?$AAs?$AAt?$AA?$DM?$AAu?$AAi?$AAn?$AAt?$AAp?$AAt?$AAr?$AA_?$AAt?$AA?5?$AA?$CK?$AA?$DO?$AA?$CI?$AA_@
CONST	SEGMENT
??_C@_1JO@EKLKIEHP@?$AA?$CC?$AAr?$AAe?$AAi?$AAn?$AAt?$AAe?$AAr?$AAp?$AAr?$AAe?$AAt?$AA_?$AAc?$AAa?$AAs?$AAt?$AA?$DM?$AAu?$AAi?$AAn?$AAt?$AAp?$AAt?$AAr?$AA_?$AAt?$AA?5?$AA?$CK?$AA?$DO?$AA?$CI?$AA_@ DB '"'
	DB	00H, 'r', 00H, 'e', 00H, 'i', 00H, 'n', 00H, 't', 00H, 'e', 00H
	DB	'r', 00H, 'p', 00H, 'r', 00H, 'e', 00H, 't', 00H, '_', 00H, 'c'
	DB	00H, 'a', 00H, 's', 00H, 't', 00H, '<', 00H, 'u', 00H, 'i', 00H
	DB	'n', 00H, 't', 00H, 'p', 00H, 't', 00H, 'r', 00H, '_', 00H, 't'
	DB	00H, ' ', 00H, '*', 00H, '>', 00H, '(', 00H, '_', 00H, 'P', 00H
	DB	't', 00H, 'r', 00H, '_', 00H, 'p', 00H, 't', 00H, 'r', 00H, ')'
	DB	00H, '[', 00H, '-', 00H, '1', 00H, ']', 00H, ' ', 00H, '=', 00H
	DB	'=', 00H, ' ', 00H, '_', 00H, 'B', 00H, 'I', 00H, 'G', 00H, '_'
	DB	00H, 'A', 00H, 'L', 00H, 'L', 00H, 'O', 00H, 'C', 00H, 'A', 00H
	DB	'T', 00H, 'I', 00H, 'O', 00H, 'N', 00H, '_', 00H, 'S', 00H, 'E'
	DB	00H, 'N', 00H, 'T', 00H, 'I', 00H, 'N', 00H, 'E', 00H, 'L', 00H
	DB	'"', 00H, ' ', 00H, '&', 00H, '&', 00H, ' ', 00H, '0', 00H, 00H
	DB	00H						; `string'
CONST	ENDS
;	COMDAT ??_C@_0EI@NOJHEJCJ@reinterpret_cast?$DMuintptr_t?5?$CK?$DO?$CI_P@
CONST	SEGMENT
??_C@_0EI@NOJHEJCJ@reinterpret_cast?$DMuintptr_t?5?$CK?$DO?$CI_P@ DB 'rei'
	DB	'nterpret_cast<uintptr_t *>(_Ptr_ptr)[-1] == _BIG_ALLOCATION_S'
	DB	'ENTINEL', 00H				; `string'
CONST	ENDS
;	COMDAT ??_C@_1HE@CDMBFOKC@?$AA?$CC?$AA?$CI?$AA_?$AAP?$AAt?$AAr?$AA_?$AAu?$AAs?$AAe?$AAr?$AA?5?$AA?$CG?$AA?5?$AA?$CI?$AA_?$AAB?$AAI?$AAG?$AA_?$AAA?$AAL?$AAL?$AAO?$AAC?$AAA?$AAT?$AAI?$AAO?$AAN?$AA_?$AAA@
CONST	SEGMENT
??_C@_1HE@CDMBFOKC@?$AA?$CC?$AA?$CI?$AA_?$AAP?$AAt?$AAr?$AA_?$AAu?$AAs?$AAe?$AAr?$AA?5?$AA?$CG?$AA?5?$AA?$CI?$AA_?$AAB?$AAI?$AAG?$AA_?$AAA?$AAL?$AAL?$AAO?$AAC?$AAA?$AAT?$AAI?$AAO?$AAN?$AA_?$AAA@ DB '"'
	DB	00H, '(', 00H, '_', 00H, 'P', 00H, 't', 00H, 'r', 00H, '_', 00H
	DB	'u', 00H, 's', 00H, 'e', 00H, 'r', 00H, ' ', 00H, '&', 00H, ' '
	DB	00H, '(', 00H, '_', 00H, 'B', 00H, 'I', 00H, 'G', 00H, '_', 00H
	DB	'A', 00H, 'L', 00H, 'L', 00H, 'O', 00H, 'C', 00H, 'A', 00H, 'T'
	DB	00H, 'I', 00H, 'O', 00H, 'N', 00H, '_', 00H, 'A', 00H, 'L', 00H
	DB	'I', 00H, 'G', 00H, 'N', 00H, 'M', 00H, 'E', 00H, 'N', 00H, 'T'
	DB	00H, ' ', 00H, '-', 00H, ' ', 00H, '1', 00H, ')', 00H, ')', 00H
	DB	' ', 00H, '=', 00H, '=', 00H, ' ', 00H, '0', 00H, '"', 00H, ' '
	DB	00H, '&', 00H, '&', 00H, ' ', 00H, '0', 00H, 00H, 00H ; `string'
CONST	ENDS
;	COMDAT ??_C@_0DD@GBGGGKGG@?$CI_Ptr_user?5?$CG?5?$CI_BIG_ALLOCATION_AL@
CONST	SEGMENT
??_C@_0DD@GBGGGKGG@?$CI_Ptr_user?5?$CG?5?$CI_BIG_ALLOCATION_AL@ DB '(_Ptr'
	DB	'_user & (_BIG_ALLOCATION_ALIGNMENT - 1)) == 0', 00H ; `string'
CONST	ENDS
;	COMDAT ??_C@_1CC@LOFJFFDB@?$AAs?$AAt?$AAd?$AA?3?$AA?3?$AA_?$AAD?$AAe?$AAa?$AAl?$AAl?$AAo?$AAc?$AAa?$AAt?$AAe?$AA?$AA@
CONST	SEGMENT
??_C@_1CC@LOFJFFDB@?$AAs?$AAt?$AAd?$AA?3?$AA?3?$AA_?$AAD?$AAe?$AAa?$AAl?$AAl?$AAo?$AAc?$AAa?$AAt?$AAe?$AA?$AA@ DB 's'
	DB	00H, 't', 00H, 'd', 00H, ':', 00H, ':', 00H, '_', 00H, 'D', 00H
	DB	'e', 00H, 'a', 00H, 'l', 00H, 'l', 00H, 'o', 00H, 'c', 00H, 'a'
	DB	00H, 't', 00H, 'e', 00H, 00H, 00H		; `string'
CONST	ENDS
;	COMDAT ??_C@_1EI@MLOBABC@?$AA?$CC?$AA_?$AAC?$AAo?$AAu?$AAn?$AAt?$AA?5?$AA?$DM?$AA?$DN?$AA?5?$AA?$CI?$AAs?$AAi?$AAz?$AAe?$AA_?$AAt?$AA?$CJ?$AA?$CI?$AA?9?$AA1?$AA?$CJ?$AA?5?$AA?1?$AA?5?$AA_?$AAS?$AAz?$AA?$CC?$AA?5?$AA?$CG@
CONST	SEGMENT
??_C@_1EI@MLOBABC@?$AA?$CC?$AA_?$AAC?$AAo?$AAu?$AAn?$AAt?$AA?5?$AA?$DM?$AA?$DN?$AA?5?$AA?$CI?$AAs?$AAi?$AAz?$AAe?$AA_?$AAt?$AA?$CJ?$AA?$CI?$AA?9?$AA1?$AA?$CJ?$AA?5?$AA?1?$AA?5?$AA_?$AAS?$AAz?$AA?$CC?$AA?5?$AA?$CG@ DB '"'
	DB	00H, '_', 00H, 'C', 00H, 'o', 00H, 'u', 00H, 'n', 00H, 't', 00H
	DB	' ', 00H, '<', 00H, '=', 00H, ' ', 00H, '(', 00H, 's', 00H, 'i'
	DB	00H, 'z', 00H, 'e', 00H, '_', 00H, 't', 00H, ')', 00H, '(', 00H
	DB	'-', 00H, '1', 00H, ')', 00H, ' ', 00H, '/', 00H, ' ', 00H, '_'
	DB	00H, 'S', 00H, 'z', 00H, '"', 00H, ' ', 00H, '&', 00H, '&', 00H
	DB	' ', 00H, '0', 00H, 00H, 00H			; `string'
CONST	ENDS
;	COMDAT ??_C@_0BN@HMCJOMKN@_Count?5?$DM?$DN?5?$CIsize_t?$CJ?$CI?91?$CJ?5?1?5_Sz?$AA@
CONST	SEGMENT
??_C@_0BN@HMCJOMKN@_Count?5?$DM?$DN?5?$CIsize_t?$CJ?$CI?91?$CJ?5?1?5_Sz?$AA@ DB '_'
	DB	'Count <= (size_t)(-1) / _Sz', 00H		; `string'
CONST	ENDS
;	COMDAT ?__LINE__Var@?0??_Deallocate@std@@YAXPEAX_K1@Z@4JA
_DATA	SEGMENT
?__LINE__Var@?0??_Deallocate@std@@YAXPEAX_K1@Z@4JA DD 05cH ; `std::_Deallocate'::`1'::__LINE__Var
_DATA	ENDS
;	COMDAT ??_C@_1CC@GKJLLHIM@?$AA?$CC?$AA_?$AAP?$AAt?$AAr?$AA?5?$AA?$CB?$AA?$DN?$AA?5?$AA0?$AA?$CC?$AA?5?$AA?$CG?$AA?$CG?$AA?5?$AA0?$AA?$AA@
CONST	SEGMENT
??_C@_1CC@GKJLLHIM@?$AA?$CC?$AA_?$AAP?$AAt?$AAr?$AA?5?$AA?$CB?$AA?$DN?$AA?5?$AA0?$AA?$CC?$AA?5?$AA?$CG?$AA?$CG?$AA?5?$AA0?$AA?$AA@ DB '"'
	DB	00H, '_', 00H, 'P', 00H, 't', 00H, 'r', 00H, ' ', 00H, '!', 00H
	DB	'=', 00H, ' ', 00H, '0', 00H, '"', 00H, ' ', 00H, '&', 00H, '&'
	DB	00H, ' ', 00H, '0', 00H, 00H, 00H		; `string'
CONST	ENDS
;	COMDAT ??_C@_09GLJCAGLP@_Ptr?5?$CB?$DN?50?$AA@
CONST	SEGMENT
??_C@_09GLJCAGLP@_Ptr?5?$CB?$DN?50?$AA@ DB '_Ptr != 0', 00H ; `string'
CONST	ENDS
;	COMDAT ??_C@_1CG@JNLFBNGN@?$AA?$CC?$AAi?$AAn?$AAv?$AAa?$AAl?$AAi?$AAd?$AA?5?$AAa?$AAr?$AAg?$AAu?$AAm?$AAe?$AAn?$AAt?$AA?$CC?$AA?$AA@
CONST	SEGMENT
??_C@_1CG@JNLFBNGN@?$AA?$CC?$AAi?$AAn?$AAv?$AAa?$AAl?$AAi?$AAd?$AA?5?$AAa?$AAr?$AAg?$AAu?$AAm?$AAe?$AAn?$AAt?$AA?$CC?$AA?$AA@ DB '"'
	DB	00H, 'i', 00H, 'n', 00H, 'v', 00H, 'a', 00H, 'l', 00H, 'i', 00H
	DB	'd', 00H, ' ', 00H, 'a', 00H, 'r', 00H, 'g', 00H, 'u', 00H, 'm'
	DB	00H, 'e', 00H, 'n', 00H, 't', 00H, '"', 00H, 00H, 00H ; `string'
CONST	ENDS
;	COMDAT ??_C@_1BO@NKFMJPA@?$AAs?$AAt?$AAd?$AA?3?$AA?3?$AA_?$AAA?$AAl?$AAl?$AAo?$AAc?$AAa?$AAt?$AAe?$AA?$AA@
CONST	SEGMENT
??_C@_1BO@NKFMJPA@?$AAs?$AAt?$AAd?$AA?3?$AA?3?$AA_?$AAA?$AAl?$AAl?$AAo?$AAc?$AAa?$AAt?$AAe?$AA?$AA@ DB 's'
	DB	00H, 't', 00H, 'd', 00H, ':', 00H, ':', 00H, '_', 00H, 'A', 00H
	DB	'l', 00H, 'l', 00H, 'o', 00H, 'c', 00H, 'a', 00H, 't', 00H, 'e'
	DB	00H, 00H, 00H				; `string'
CONST	ENDS
;	COMDAT ??_C@_1JA@DKOIEICI@?$AAc?$AA?3?$AA?2?$AAp?$AAr?$AAo?$AAg?$AAr?$AAa?$AAm?$AA?5?$AAf?$AAi?$AAl?$AAe?$AAs?$AA?5?$AA?$CI?$AAx?$AA8?$AA6?$AA?$CJ?$AA?2?$AAm?$AAi?$AAc?$AAr?$AAo?$AAs?$AAo?$AAf?$AAt@
CONST	SEGMENT
??_C@_1JA@DKOIEICI@?$AAc?$AA?3?$AA?2?$AAp?$AAr?$AAo?$AAg?$AAr?$AAa?$AAm?$AA?5?$AAf?$AAi?$AAl?$AAe?$AAs?$AA?5?$AA?$CI?$AAx?$AA8?$AA6?$AA?$CJ?$AA?2?$AAm?$AAi?$AAc?$AAr?$AAo?$AAs?$AAo?$AAf?$AAt@ DB 'c'
	DB	00H, ':', 00H, '\', 00H, 'p', 00H, 'r', 00H, 'o', 00H, 'g', 00H
	DB	'r', 00H, 'a', 00H, 'm', 00H, ' ', 00H, 'f', 00H, 'i', 00H, 'l'
	DB	00H, 'e', 00H, 's', 00H, ' ', 00H, '(', 00H, 'x', 00H, '8', 00H
	DB	'6', 00H, ')', 00H, '\', 00H, 'm', 00H, 'i', 00H, 'c', 00H, 'r'
	DB	00H, 'o', 00H, 's', 00H, 'o', 00H, 'f', 00H, 't', 00H, ' ', 00H
	DB	'v', 00H, 'i', 00H, 's', 00H, 'u', 00H, 'a', 00H, 'l', 00H, ' '
	DB	00H, 's', 00H, 't', 00H, 'u', 00H, 'd', 00H, 'i', 00H, 'o', 00H
	DB	' ', 00H, '1', 00H, '4', 00H, '.', 00H, '0', 00H, '\', 00H, 'v'
	DB	00H, 'c', 00H, '\', 00H, 'i', 00H, 'n', 00H, 'c', 00H, 'l', 00H
	DB	'u', 00H, 'd', 00H, 'e', 00H, '\', 00H, 'x', 00H, 'm', 00H, 'e'
	DB	00H, 'm', 00H, 'o', 00H, 'r', 00H, 'y', 00H, '0', 00H, 00H, 00H ; `string'
CONST	ENDS
;	COMDAT ??_C@_17CNPHIMPH@?$AA?$CF?$AAl?$AAs?$AA?$AA@
CONST	SEGMENT
??_C@_17CNPHIMPH@?$AA?$CF?$AAl?$AAs?$AA?$AA@ DB '%', 00H, 'l', 00H, 's', 00H
	DB	00H, 00H					; `string'
CONST	ENDS
;	COMDAT ??_C@_1DG@HGDKEBPG@?$AA?$CC?$AA_?$AAP?$AAt?$AAr?$AA_?$AAc?$AAo?$AAn?$AAt?$AAa?$AAi?$AAn?$AAe?$AAr?$AA?5?$AA?$CB?$AA?$DN?$AA?5?$AA0?$AA?$CC?$AA?5?$AA?$CG?$AA?$CG?$AA?5?$AA0?$AA?$AA@
CONST	SEGMENT
??_C@_1DG@HGDKEBPG@?$AA?$CC?$AA_?$AAP?$AAt?$AAr?$AA_?$AAc?$AAo?$AAn?$AAt?$AAa?$AAi?$AAn?$AAe?$AAr?$AA?5?$AA?$CB?$AA?$DN?$AA?5?$AA0?$AA?$CC?$AA?5?$AA?$CG?$AA?$CG?$AA?5?$AA0?$AA?$AA@ DB '"'
	DB	00H, '_', 00H, 'P', 00H, 't', 00H, 'r', 00H, '_', 00H, 'c', 00H
	DB	'o', 00H, 'n', 00H, 't', 00H, 'a', 00H, 'i', 00H, 'n', 00H, 'e'
	DB	00H, 'r', 00H, ' ', 00H, '!', 00H, '=', 00H, ' ', 00H, '0', 00H
	DB	'"', 00H, ' ', 00H, '&', 00H, '&', 00H, ' ', 00H, '0', 00H, 00H
	DB	00H						; `string'
CONST	ENDS
;	COMDAT ??_C@_0BE@LMNLACIC@_Ptr_container?5?$CB?$DN?50?$AA@
CONST	SEGMENT
??_C@_0BE@LMNLACIC@_Ptr_container?5?$CB?$DN?50?$AA@ DB '_Ptr_container !='
	DB	' 0', 00H					; `string'
CONST	ENDS
;	COMDAT ?__LINE__Var@?0??_Allocate@std@@YAPEAX_K0_N@Z@4JA
_DATA	SEGMENT
?__LINE__Var@?0??_Allocate@std@@YAPEAX_K0_N@Z@4JA DD 030H ; `std::_Allocate'::`1'::__LINE__Var
_DATA	ENDS
;	COMDAT xdata
xdata	SEGMENT
$unwind$??$construct@PEA_WAEAPEA_W@?$allocator@_W@std@@QEAAXPEAPEA_WAEAPEA_W@Z DD 025053401H
	DD	0118231dH
	DD	070110021H
	DD	05010H
xdata	ENDS
;	COMDAT xdata
xdata	SEGMENT
$unwind$??$construct@U_Container_proxy@std@@U12@@?$allocator@U_Container_proxy@std@@@std@@QEAAXPEAU_Container_proxy@1@$$QEAU21@@Z DD 025063501H
	DD	0119231eH
	DD	070120020H
	DD	050106011H
xdata	ENDS
;	COMDAT xdata
xdata	SEGMENT
$unwind$??$destroy@U_Container_proxy@std@@@?$allocator@U_Container_proxy@std@@@std@@QEAAXPEAU_Container_proxy@1@@Z DD 05052d01H
	DD	01130316H
	DD	0700c0019H
	DD	0500bH
xdata	ENDS
;	COMDAT xdata
xdata	SEGMENT
$unwind$??$destroy@PEA_W@?$allocator@_W@std@@QEAAXPEAPEA_W@Z DD 05052d01H
	DD	01130316H
	DD	0700c0019H
	DD	0500bH
xdata	ENDS
;	COMDAT xdata
xdata	SEGMENT
$unwind$??$construct@PEA_WAEAPEA_W@?$allocator_traits@V?$allocator@_W@std@@@std@@SAXAEAV?$allocator@_W@1@PEAPEA_WAEAPEA_W@Z DD 025053401H
	DD	0118231dH
	DD	07011001dH
	DD	05010H
xdata	ENDS
;	COMDAT xdata
xdata	SEGMENT
$unwind$??$forward@AEAPEA_W@std@@YAAEAPEA_WAEAPEA_W@Z DD 05052801H
	DD	010e0311H
	DD	070070019H
	DD	05006H
xdata	ENDS
;	COMDAT xdata
xdata	SEGMENT
$unwind$??$?0_W@?$allocator@U_Container_proxy@std@@@std@@QEAA@AEBV?$allocator@_W@1@@Z DD 05052d01H
	DD	01130316H
	DD	0700c0019H
	DD	0500bH
xdata	ENDS
;	COMDAT xdata
xdata	SEGMENT
$unwind$??$forward@AEAU?$_Wrap_alloc@V?$allocator@_W@std@@@std@@@std@@YAAEAU?$_Wrap_alloc@V?$allocator@_W@std@@@0@AEAU10@@Z DD 05052801H
	DD	010e0311H
	DD	070070019H
	DD	05006H
xdata	ENDS
;	COMDAT xdata
xdata	SEGMENT
$unwind$??$construct@U_Container_proxy@std@@U12@@?$allocator_traits@V?$allocator@U_Container_proxy@std@@@std@@@std@@SAXAEAV?$allocator@U_Container_proxy@std@@@1@PEAU_Container_proxy@1@$$QEAU31@@Z DD 025053401H
	DD	0118231dH
	DD	07011001dH
	DD	05010H
xdata	ENDS
;	COMDAT xdata
xdata	SEGMENT
$unwind$??$forward@U_Container_proxy@std@@@std@@YA$$QEAU_Container_proxy@0@AEAU10@@Z DD 05052801H
	DD	010e0311H
	DD	070070019H
	DD	05006H
xdata	ENDS
;	COMDAT xdata
xdata	SEGMENT
$unwind$??$destroy@U_Container_proxy@std@@@?$allocator_traits@V?$allocator@U_Container_proxy@std@@@std@@@std@@SAXAEAV?$allocator@U_Container_proxy@std@@@1@PEAU_Container_proxy@1@@Z DD 025052f01H
	DD	01132318H
	DD	0700c001dH
	DD	0500bH
xdata	ENDS
;	COMDAT xdata
xdata	SEGMENT
$unwind$??$destroy@PEA_W@?$allocator_traits@V?$allocator@_W@std@@@std@@SAXAEAV?$allocator@_W@1@PEAPEA_W@Z DD 025052f01H
	DD	01132318H
	DD	0700c001dH
	DD	0500bH
xdata	ENDS
;	COMDAT xdata
xdata	SEGMENT
$unwind$??$addressof@U_Container_proxy@std@@@std@@YAPEAU_Container_proxy@0@AEAU10@@Z DD 05052801H
	DD	010e0311H
	DD	070070019H
	DD	05006H
xdata	ENDS
;	COMDAT xdata
xdata	SEGMENT
$unwind$?pointer_to@?$pointer_traits@PEAU_Container_proxy@std@@@std@@SAPEAU_Container_proxy@2@AEAU32@@Z DD 025052a01H
	DD	010e2313H
	DD	07007001dH
	DD	05006H
xdata	ENDS
;	COMDAT xdata
xdata	SEGMENT
$unwind$??$construct@PEA_WAEAPEA_W@?$_Wrap_alloc@V?$allocator@_W@std@@@std@@QEAAXPEAPEA_WAEAPEA_W@Z DD 025053401H
	DD	0118231dH
	DD	07011001dH
	DD	05010H
xdata	ENDS
;	COMDAT xdata
xdata	SEGMENT
$unwind$??$?0AEAU?$_Wrap_alloc@V?$allocator@_W@std@@@std@@@?$_Wrap_alloc@V?$allocator@U_Container_proxy@std@@@std@@@std@@QEAA@AEAU?$_Wrap_alloc@V?$allocator@_W@std@@@1@@Z DD 025052f01H
	DD	01132318H
	DD	0700c001dH
	DD	0500bH
xdata	ENDS
;	COMDAT xdata
xdata	SEGMENT
$unwind$??$construct@U_Container_proxy@std@@U12@@?$_Wrap_alloc@V?$allocator@U_Container_proxy@std@@@std@@@std@@QEAAXPEAU_Container_proxy@1@$$QEAU21@@Z DD 025053401H
	DD	0118231dH
	DD	07011001dH
	DD	05010H
xdata	ENDS
;	COMDAT xdata
xdata	SEGMENT
$unwind$??$_Unfancy@U_Container_proxy@std@@@std@@YAPEAU_Container_proxy@0@PEAU10@@Z DD 05052801H
	DD	010e0311H
	DD	070070019H
	DD	05006H
xdata	ENDS
;	COMDAT xdata
xdata	SEGMENT
$unwind$??$destroy@U_Container_proxy@std@@@?$_Wrap_alloc@V?$allocator@U_Container_proxy@std@@@std@@@std@@QEAAXPEAU_Container_proxy@1@@Z DD 025052f01H
	DD	01132318H
	DD	0700c001dH
	DD	0500bH
xdata	ENDS
;	COMDAT xdata
xdata	SEGMENT
$unwind$?deallocate@?$_Wrap_alloc@V?$allocator@U_Container_proxy@std@@@std@@@std@@QEAAXPEAU_Container_proxy@2@_K@Z DD 025053401H
	DD	0118231dH
	DD	07011001dH
	DD	05010H
xdata	ENDS
;	COMDAT xdata
xdata	SEGMENT
$unwind$?allocate@?$_Wrap_alloc@V?$allocator@U_Container_proxy@std@@@std@@@std@@QEAAPEAU_Container_proxy@2@_K@Z DD 025052f01H
	DD	01132318H
	DD	0700c001dH
	DD	0500bH
xdata	ENDS
;	COMDAT xdata
xdata	SEGMENT
$unwind$?address@?$_Wrap_alloc@V?$allocator@U_Container_proxy@std@@@std@@@std@@QEBAPEAU_Container_proxy@2@AEAU32@@Z DD 025052f01H
	DD	01132318H
	DD	0700c001dH
	DD	0500bH
xdata	ENDS
;	COMDAT xdata
xdata	SEGMENT
$unwind$?allocate@?$allocator@U_Container_proxy@std@@@std@@QEAAPEAU_Container_proxy@2@_K@Z DD 025052f01H
	DD	01132318H
	DD	0700c001dH
	DD	0500bH
xdata	ENDS
;	COMDAT xdata
xdata	SEGMENT
$unwind$?deallocate@?$allocator@U_Container_proxy@std@@@std@@QEAAXPEAU_Container_proxy@2@_K@Z DD 025053401H
	DD	0118231dH
	DD	07011001dH
	DD	05010H
xdata	ENDS
;	COMDAT xdata
xdata	SEGMENT
$unwind$??$_Debug_pointer_if@$$CB_W@std@@YAX_NPEB_W1I@Z DD 025053801H
	DD	011c2321H
	DD	07015001dH
	DD	05014H
xdata	ENDS
;	COMDAT xdata
xdata	SEGMENT
$unwind$??$_Debug_pointer@$$CB_W@std@@YAXPEB_W0I@Z DD 025053401H
	DD	0118231dH
	DD	07011001dH
	DD	05010H
xdata	ENDS
;	COMDAT xdata
xdata	SEGMENT
$unwind$??$_Unfancy@_W@std@@YAPEA_WPEA_W@Z DD 05052801H
	DD	010e0311H
	DD	070070019H
	DD	05006H
xdata	ENDS
;	COMDAT xdata
xdata	SEGMENT
$unwind$??$destroy@PEA_W@?$_Wrap_alloc@V?$allocator@_W@std@@@std@@QEAAXPEAPEA_W@Z DD 025052f01H
	DD	01132318H
	DD	0700c001dH
	DD	0500bH
xdata	ENDS
;	COMDAT xdata
xdata	SEGMENT
$unwind$??$addressof@PEA_W@std@@YAPEAPEA_WAEAPEA_W@Z DD 05052801H
	DD	010e0311H
	DD	070070019H
	DD	05006H
xdata	ENDS
;	COMDAT xdata
xdata	SEGMENT
$unwind$??$?0$$V@?$_Compressed_pair@U?$_Wrap_alloc@V?$allocator@_W@std@@@std@@V?$_String_val@U?$_Simple_types@_W@std@@@2@$00@std@@QEAA@U_Zero_then_variadic_args_t@1@@Z DD 025052e01H
	DD	01122317H
	DD	0700b001dH
	DD	0500aH
xdata	ENDS
;	COMDAT xdata
xdata	SEGMENT
$unwind$??$Safe_Release@PEAVCShader@Engine@@@Engine@@YAKAEAPEAVCShader@0@@Z DD 025052a01H
	DD	010e2313H
	DD	070070021H
	DD	05006H
xdata	ENDS
;	COMDAT xdata
xdata	SEGMENT
$unwind$??$Safe_Release@PEAVCModel@Engine@@@Engine@@YAKAEAPEAVCModel@0@@Z DD 025052a01H
	DD	010e2313H
	DD	070070021H
	DD	05006H
xdata	ENDS
;	COMDAT xdata
xdata	SEGMENT
$unwind$??$Safe_Release@PEAVCTransform@Engine@@@Engine@@YAKAEAPEAVCTransform@0@@Z DD 025052a01H
	DD	010e2313H
	DD	070070021H
	DD	05006H
xdata	ENDS
;	COMDAT xdata
xdata	SEGMENT
$unwind$??$Safe_Release@PEAVCRenderer@Engine@@@Engine@@YAKAEAPEAVCRenderer@0@@Z DD 025052a01H
	DD	010e2313H
	DD	070070021H
	DD	05006H
xdata	ENDS
;	COMDAT xdata
xdata	SEGMENT
$unwind$??$Safe_Release@PEAVCKalienina@Client@@@Engine@@YAKAEAPEAVCKalienina@Client@@@Z DD 025052a01H
	DD	010e2313H
	DD	070070021H
	DD	05006H
xdata	ENDS
;	COMDAT xdata
xdata	SEGMENT
$unwind$??_GCKalienina@Client@@EEAAPEAXI@Z DD 025052e01H
	DD	01122317H
	DD	0700b001dH
	DD	0500aH
xdata	ENDS
;	COMDAT xdata
xdata	SEGMENT
$unwind$?Free@CKalienina@Client@@UEAAXXZ DD 025052a01H
	DD	010e2313H
	DD	07007001dH
	DD	05006H
xdata	ENDS
;	COMDAT xdata
xdata	SEGMENT
$unwind$?dtor$0@?0??Clone@CKalienina@Client@@UEAAPEAVCGameObject@Engine@@PEAX@Z@4HA DD 031001H
	DD	0700c4210H
	DD	0500bH
xdata	ENDS
;	COMDAT xdata
xdata	SEGMENT
$ip2state$?Clone@CKalienina@Client@@UEAAPEAVCGameObject@Engine@@PEAX@Z DD imagerel ?Clone@CKalienina@Client@@UEAAPEAVCGameObject@Engine@@PEAX@Z
	DD	0ffffffffH
	DD	imagerel ?Clone@CKalienina@Client@@UEAAPEAVCGameObject@Engine@@PEAX@Z+115
	DD	00H
	DD	imagerel ?Clone@CKalienina@Client@@UEAAPEAVCGameObject@Engine@@PEAX@Z+178
	DD	0ffffffffH
xdata	ENDS
;	COMDAT xdata
xdata	SEGMENT
$stateUnwindMap$?Clone@CKalienina@Client@@UEAAPEAVCGameObject@Engine@@PEAX@Z DD 0ffffffffH
	DD	imagerel ?dtor$0@?0??Clone@CKalienina@Client@@UEAAPEAVCGameObject@Engine@@PEAX@Z@4HA
xdata	ENDS
;	COMDAT xdata
xdata	SEGMENT
$unwind$?Clone@CKalienina@Client@@UEAAPEAVCGameObject@Engine@@PEAX@Z DD 025054b19H
	DD	01132318H
	DD	0700c002fH
	DD	0500bH
	DD	imagerel __GSHandlerCheck_EH
	DD	imagerel $cppxdata$?Clone@CKalienina@Client@@UEAAPEAVCGameObject@Engine@@PEAX@Z
	DD	0162H
xdata	ENDS
;	COMDAT CONST
CONST	SEGMENT
?Clone@CKalienina@Client@@UEAAPEAVCGameObject@Engine@@PEAX@Z$rtcName$0 DB 070H ; Client::CKalienina::Clone
	DB	049H
	DB	06eH
	DB	073H
	DB	074H
	DB	061H
	DB	06eH
	DB	063H
	DB	065H
	DB	00H
	ORG $+6
?Clone@CKalienina@Client@@UEAAPEAVCGameObject@Engine@@PEAX@Z$rtcVarDesc DD 028H ; Client::CKalienina::Clone
	DD	08H
	DQ	FLAT:?Clone@CKalienina@Client@@UEAAPEAVCGameObject@Engine@@PEAX@Z$rtcName$0
	ORG $+48
?Clone@CKalienina@Client@@UEAAPEAVCGameObject@Engine@@PEAX@Z$rtcFrameData DD 01H ; Client::CKalienina::Clone
	DD	00H
	DQ	FLAT:?Clone@CKalienina@Client@@UEAAPEAVCGameObject@Engine@@PEAX@Z$rtcVarDesc
$cppxdata$?Clone@CKalienina@Client@@UEAAPEAVCGameObject@Engine@@PEAX@Z DD 019930522H
	DD	01H
	DD	imagerel $stateUnwindMap$?Clone@CKalienina@Client@@UEAAPEAVCGameObject@Engine@@PEAX@Z
	DD	00H
	DD	00H
	DD	03H
	DD	imagerel $ip2state$?Clone@CKalienina@Client@@UEAAPEAVCGameObject@Engine@@PEAX@Z
	DD	0148H
	DD	00H
	DD	01H
CONST	ENDS
;	COMDAT xdata
xdata	SEGMENT
$unwind$?dtor$0@?0??Create@CKalienina@Client@@SAPEAV12@PEAUID3D11Device@@PEAUID3D11DeviceContext@@@Z@4HA DD 031001H
	DD	0700c4210H
	DD	0500bH
xdata	ENDS
;	COMDAT xdata
xdata	SEGMENT
$ip2state$?Create@CKalienina@Client@@SAPEAV12@PEAUID3D11Device@@PEAUID3D11DeviceContext@@@Z DD imagerel ?Create@CKalienina@Client@@SAPEAV12@PEAUID3D11Device@@PEAUID3D11DeviceContext@@@Z
	DD	0ffffffffH
	DD	imagerel ?Create@CKalienina@Client@@SAPEAV12@PEAUID3D11Device@@PEAUID3D11DeviceContext@@@Z+115
	DD	00H
	DD	imagerel ?Create@CKalienina@Client@@SAPEAV12@PEAUID3D11Device@@PEAUID3D11DeviceContext@@@Z+185
	DD	0ffffffffH
xdata	ENDS
;	COMDAT xdata
xdata	SEGMENT
$stateUnwindMap$?Create@CKalienina@Client@@SAPEAV12@PEAUID3D11Device@@PEAUID3D11DeviceContext@@@Z DD 0ffffffffH
	DD	imagerel ?dtor$0@?0??Create@CKalienina@Client@@SAPEAV12@PEAUID3D11Device@@PEAUID3D11DeviceContext@@@Z@4HA
xdata	ENDS
;	COMDAT xdata
xdata	SEGMENT
$unwind$?Create@CKalienina@Client@@SAPEAV12@PEAUID3D11Device@@PEAUID3D11DeviceContext@@@Z DD 025054b19H
	DD	01132318H
	DD	0700c002fH
	DD	0500bH
	DD	imagerel __GSHandlerCheck_EH
	DD	imagerel $cppxdata$?Create@CKalienina@Client@@SAPEAV12@PEAUID3D11Device@@PEAUID3D11DeviceContext@@@Z
	DD	0162H
xdata	ENDS
;	COMDAT CONST
CONST	SEGMENT
?Create@CKalienina@Client@@SAPEAV12@PEAUID3D11Device@@PEAUID3D11DeviceContext@@@Z$rtcName$0 DB 070H ; Client::CKalienina::Create
	DB	049H
	DB	06eH
	DB	073H
	DB	074H
	DB	061H
	DB	06eH
	DB	063H
	DB	065H
	DB	00H
	ORG $+6
?Create@CKalienina@Client@@SAPEAV12@PEAUID3D11Device@@PEAUID3D11DeviceContext@@@Z$rtcVarDesc DD 028H ; Client::CKalienina::Create
	DD	08H
	DQ	FLAT:?Create@CKalienina@Client@@SAPEAV12@PEAUID3D11Device@@PEAUID3D11DeviceContext@@@Z$rtcName$0
	ORG $+48
?Create@CKalienina@Client@@SAPEAV12@PEAUID3D11Device@@PEAUID3D11DeviceContext@@@Z$rtcFrameData DD 01H ; Client::CKalienina::Create
	DD	00H
	DQ	FLAT:?Create@CKalienina@Client@@SAPEAV12@PEAUID3D11Device@@PEAUID3D11DeviceContext@@@Z$rtcVarDesc
$cppxdata$?Create@CKalienina@Client@@SAPEAV12@PEAUID3D11Device@@PEAUID3D11DeviceContext@@@Z DD 019930522H
	DD	01H
	DD	imagerel $stateUnwindMap$?Create@CKalienina@Client@@SAPEAV12@PEAUID3D11Device@@PEAUID3D11DeviceContext@@@Z
	DD	00H
	DD	00H
	DD	03H
	DD	imagerel $ip2state$?Create@CKalienina@Client@@SAPEAV12@PEAUID3D11Device@@PEAUID3D11DeviceContext@@@Z
	DD	0148H
	DD	00H
	DD	01H
CONST	ENDS
;	COMDAT xdata
xdata	SEGMENT
$unwind$?Attack@CKalienina@Client@@AEAAXXZ DD 025052a01H
	DD	010e2313H
	DD	070070021H
	DD	05006H
xdata	ENDS
;	COMDAT xdata
xdata	SEGMENT
$unwind$?MoveStop@CKalienina@Client@@AEAAXXZ DD 025052a01H
	DD	010e2313H
	DD	07007001dH
	DD	05006H
xdata	ENDS
;	COMDAT xdata
xdata	SEGMENT
$unwind$?MoveLeft@CKalienina@Client@@AEAAXN@Z DD 025053001H
	DD	01142319H
	DD	0700d001dH
	DD	0500cH
xdata	ENDS
;	COMDAT xdata
xdata	SEGMENT
$unwind$?MoveRight@CKalienina@Client@@AEAAXN@Z DD 025053001H
	DD	01142319H
	DD	0700d001dH
	DD	0500cH
xdata	ENDS
;	COMDAT xdata
xdata	SEGMENT
$unwind$?MoveBackward@CKalienina@Client@@AEAAXN@Z DD 025053001H
	DD	01142319H
	DD	0700d001dH
	DD	0500cH
xdata	ENDS
;	COMDAT xdata
xdata	SEGMENT
$unwind$?MoveForward@CKalienina@Client@@AEAAXN@Z DD 025053001H
	DD	01142319H
	DD	0700d001dH
	DD	0500cH
xdata	ENDS
;	COMDAT xdata
xdata	SEGMENT
$unwind$?Idle@CKalienina@Client@@AEAAXXZ DD 025052a01H
	DD	010e2313H
	DD	07007001dH
	DD	05006H
xdata	ENDS
;	COMDAT xdata
xdata	SEGMENT
$unwind$?KeyInput@CKalienina@Client@@AEAAXN@Z DD 025053001H
	DD	01142319H
	DD	0700d0021H
	DD	0500cH
xdata	ENDS
;	COMDAT xdata
xdata	SEGMENT
$unwind$?InputWASD@CKalienina@Client@@AEAAXN@Z DD 025053001H
	DD	01142319H
	DD	0700d0021H
	DD	0500cH
xdata	ENDS
;	COMDAT xdata
xdata	SEGMENT
$unwind$?Movement@CKalienina@Client@@AEAAXN@Z DD 025053001H
	DD	01142319H
	DD	0700d001dH
	DD	0500cH
xdata	ENDS
;	COMDAT xdata
xdata	SEGMENT
$unwind$?LeftRotation@CKalienina@Client@@AEAAXN@Z DD 025054119H
	DD	01142319H
	DD	0700d00a1H
	DD	0500cH
	DD	imagerel __GSHandlerCheck
	DD	04f8H
xdata	ENDS
;	COMDAT CONST
CONST	SEGMENT
?LeftRotation@CKalienina@Client@@AEAAXN@Z$rtcName$0 DB 063H ; Client::CKalienina::LeftRotation
	DB	061H
	DB	06dH
	DB	065H
	DB	072H
	DB	061H
	DB	04dH
	DB	061H
	DB	074H
	DB	072H
	DB	069H
	DB	078H
	DB	00H
	ORG $+3
?LeftRotation@CKalienina@Client@@AEAAXN@Z$rtcVarDesc DD 050H ; Client::CKalienina::LeftRotation
	DD	040H
	DQ	FLAT:?LeftRotation@CKalienina@Client@@AEAAXN@Z$rtcName$0
	ORG $+48
?LeftRotation@CKalienina@Client@@AEAAXN@Z$rtcFrameData DD 01H ; Client::CKalienina::LeftRotation
	DD	00H
	DQ	FLAT:?LeftRotation@CKalienina@Client@@AEAAXN@Z$rtcVarDesc
CONST	ENDS
;	COMDAT xdata
xdata	SEGMENT
$unwind$?RigthRotation@CKalienina@Client@@AEAAXN@Z DD 025054119H
	DD	01142319H
	DD	0700d00a7H
	DD	0500cH
	DD	imagerel __GSHandlerCheck
	DD	0528H
xdata	ENDS
;	COMDAT CONST
CONST	SEGMENT
?RigthRotation@CKalienina@Client@@AEAAXN@Z$rtcName$0 DB 063H ; Client::CKalienina::RigthRotation
	DB	061H
	DB	06dH
	DB	065H
	DB	072H
	DB	061H
	DB	04dH
	DB	061H
	DB	074H
	DB	072H
	DB	069H
	DB	078H
	DB	00H
	ORG $+3
?RigthRotation@CKalienina@Client@@AEAAXN@Z$rtcVarDesc DD 050H ; Client::CKalienina::RigthRotation
	DD	040H
	DQ	FLAT:?RigthRotation@CKalienina@Client@@AEAAXN@Z$rtcName$0
	ORG $+48
?RigthRotation@CKalienina@Client@@AEAAXN@Z$rtcFrameData DD 01H ; Client::CKalienina::RigthRotation
	DD	00H
	DQ	FLAT:?RigthRotation@CKalienina@Client@@AEAAXN@Z$rtcVarDesc
CONST	ENDS
;	COMDAT xdata
xdata	SEGMENT
$unwind$?BackwardRotaion@CKalienina@Client@@AEAAXN@Z DD 025054119H
	DD	01142319H
	DD	0700d00a7H
	DD	0500cH
	DD	imagerel __GSHandlerCheck
	DD	0528H
xdata	ENDS
;	COMDAT CONST
CONST	SEGMENT
?BackwardRotaion@CKalienina@Client@@AEAAXN@Z$rtcName$0 DB 063H ; Client::CKalienina::BackwardRotaion
	DB	061H
	DB	06dH
	DB	065H
	DB	072H
	DB	061H
	DB	04dH
	DB	061H
	DB	074H
	DB	072H
	DB	069H
	DB	078H
	DB	00H
	ORG $+3
?BackwardRotaion@CKalienina@Client@@AEAAXN@Z$rtcVarDesc DD 050H ; Client::CKalienina::BackwardRotaion
	DD	040H
	DQ	FLAT:?BackwardRotaion@CKalienina@Client@@AEAAXN@Z$rtcName$0
	ORG $+48
?BackwardRotaion@CKalienina@Client@@AEAAXN@Z$rtcFrameData DD 01H ; Client::CKalienina::BackwardRotaion
	DD	00H
	DQ	FLAT:?BackwardRotaion@CKalienina@Client@@AEAAXN@Z$rtcVarDesc
CONST	ENDS
;	COMDAT xdata
xdata	SEGMENT
$unwind$?ForwardRotaion@CKalienina@Client@@AEAAXN@Z DD 025054119H
	DD	01142319H
	DD	0700d00a1H
	DD	0500cH
	DD	imagerel __GSHandlerCheck
	DD	04f8H
xdata	ENDS
;	COMDAT CONST
CONST	SEGMENT
?ForwardRotaion@CKalienina@Client@@AEAAXN@Z$rtcName$0 DB 063H ; Client::CKalienina::ForwardRotaion
	DB	061H
	DB	06dH
	DB	065H
	DB	072H
	DB	061H
	DB	04dH
	DB	061H
	DB	074H
	DB	072H
	DB	069H
	DB	078H
	DB	00H
	ORG $+3
?ForwardRotaion@CKalienina@Client@@AEAAXN@Z$rtcVarDesc DD 050H ; Client::CKalienina::ForwardRotaion
	DD	040H
	DQ	FLAT:?ForwardRotaion@CKalienina@Client@@AEAAXN@Z$rtcName$0
	ORG $+48
?ForwardRotaion@CKalienina@Client@@AEAAXN@Z$rtcFrameData DD 01H ; Client::CKalienina::ForwardRotaion
	DD	00H
	DQ	FLAT:?ForwardRotaion@CKalienina@Client@@AEAAXN@Z$rtcVarDesc
CONST	ENDS
;	COMDAT xdata
xdata	SEGMENT
$unwind$?CameraSocketUpdate@CKalienina@Client@@AEAAXXZ DD 025053b19H
	DD	010e2313H
	DD	07007002fH
	DD	05006H
	DD	imagerel __GSHandlerCheck
	DD	0168H
xdata	ENDS
;	COMDAT CONST
CONST	SEGMENT
?CameraSocketUpdate@CKalienina@Client@@AEAAXXZ$rtcName$0 DB 063H ; Client::CKalienina::CameraSocketUpdate
	DB	061H
	DB	06dH
	DB	065H
	DB	072H
	DB	061H
	DB	050H
	DB	06fH
	DB	073H
	DB	00H
	ORG $+6
?CameraSocketUpdate@CKalienina@Client@@AEAAXXZ$rtcVarDesc DD 030H ; Client::CKalienina::CameraSocketUpdate
	DD	010H
	DQ	FLAT:?CameraSocketUpdate@CKalienina@Client@@AEAAXXZ$rtcName$0
	ORG $+48
?CameraSocketUpdate@CKalienina@Client@@AEAAXXZ$rtcFrameData DD 01H ; Client::CKalienina::CameraSocketUpdate
	DD	00H
	DQ	FLAT:?CameraSocketUpdate@CKalienina@Client@@AEAAXXZ$rtcVarDesc
CONST	ENDS
;	COMDAT xdata
xdata	SEGMENT
$unwind$?AnimationControl@CKalienina@Client@@AEAAXN@Z DD 025053001H
	DD	01142319H
	DD	0700d0021H
	DD	0500cH
xdata	ENDS
;	COMDAT xdata
xdata	SEGMENT
$unwind$?SetAnimation@CKalienina@Client@@AEAAXW4CLIP@12@W4TYPE@CAnimation@Engine@@@Z DD 05053101H
	DD	0117031aH
	DD	070100019H
	DD	0500fH
xdata	ENDS
;	COMDAT xdata
xdata	SEGMENT
$unwind$?FinishCheckPlay@CKalienina@Client@@AEAA_NW4CLIP@12@W4TYPE@CAnimation@Engine@@@Z DD 025053301H
	DD	0117231cH
	DD	07010001dH
	DD	0500fH
xdata	ENDS
;	COMDAT xdata
xdata	SEGMENT
$unwind$?AnimationCompare@CKalienina@Client@@AEAA_NW4CLIP@12@@Z DD 05052c01H
	DD	01120315H
	DD	0700b001bH
	DD	0500aH
xdata	ENDS
;	COMDAT xdata
xdata	SEGMENT
$unwind$?SetupShaderResources@CKalienina@Client@@AEAAJXZ DD 025052a01H
	DD	010e2313H
	DD	070070043H
	DD	05006H
xdata	ENDS
;	COMDAT xdata
xdata	SEGMENT
$unwind$?AddComponents@CKalienina@Client@@AEAAJXZ DD 035053b19H
	DD	010e3313H
	DD	070070023H
	DD	05006H
	DD	imagerel __GSHandlerCheck
	DD	0108H
xdata	ENDS
;	COMDAT CONST
CONST	SEGMENT
?AddComponents@CKalienina@Client@@AEAAJXZ$rtcName$0 DB 054H ; Client::CKalienina::AddComponents
	DB	072H
	DB	061H
	DB	06eH
	DB	073H
	DB	066H
	DB	06fH
	DB	072H
	DB	06dH
	DB	044H
	DB	065H
	DB	073H
	DB	063H
	DB	00H
	ORG $+2
?AddComponents@CKalienina@Client@@AEAAJXZ$rtcVarDesc DD 038H ; Client::CKalienina::AddComponents
	DD	08H
	DQ	FLAT:?AddComponents@CKalienina@Client@@AEAAJXZ$rtcName$0
	ORG $+48
?AddComponents@CKalienina@Client@@AEAAJXZ$rtcFrameData DD 01H ; Client::CKalienina::AddComponents
	DD	00H
	DQ	FLAT:?AddComponents@CKalienina@Client@@AEAAJXZ$rtcVarDesc
CONST	ENDS
;	COMDAT xdata
xdata	SEGMENT
$unwind$?AddWeapon@CKalienina@Client@@AEAAJXZ DD 035053b19H
	DD	010e3313H
	DD	070070037H
	DD	05006H
	DD	imagerel __GSHandlerCheck
	DD	01a0H
xdata	ENDS
;	COMDAT CONST
CONST	SEGMENT
?AddWeapon@CKalienina@Client@@AEAAJXZ$rtcName$0 DB 064H	; Client::CKalienina::AddWeapon
	DB	065H
	DB	073H
	DB	063H
	DB	04fH
	DB	077H
	DB	06eH
	DB	065H
	DB	072H
	DB	00H
	ORG $+6
?AddWeapon@CKalienina@Client@@AEAAJXZ$rtcVarDesc DD 058H ; Client::CKalienina::AddWeapon
	DD	018H
	DQ	FLAT:?AddWeapon@CKalienina@Client@@AEAAJXZ$rtcName$0
	ORG $+48
?AddWeapon@CKalienina@Client@@AEAAJXZ$rtcFrameData DD 01H ; Client::CKalienina::AddWeapon
	DD	00H
	DQ	FLAT:?AddWeapon@CKalienina@Client@@AEAAJXZ$rtcVarDesc
CONST	ENDS
;	COMDAT xdata
xdata	SEGMENT
$unwind$?GetBone@CKalienina@Client@@QEBAPEBVCBone@Engine@@PEBD@Z DD 025052f01H
	DD	01132318H
	DD	0700c001dH
	DD	0500bH
xdata	ENDS
;	COMDAT xdata
xdata	SEGMENT
$unwind$?RenderGUI@CKalienina@Client@@UEAAXXZ DD 025053b19H
	DD	010e2313H
	DD	070070029H
	DD	05006H
	DD	imagerel __GSHandlerCheck
	DD	0138H
xdata	ENDS
;	COMDAT CONST
CONST	SEGMENT
?RenderGUI@CKalienina@Client@@UEAAXXZ$rtcName$0 DB 076H	; Client::CKalienina::RenderGUI
	DB	050H
	DB	06fH
	DB	073H
	DB	00H
	ORG $+11
?RenderGUI@CKalienina@Client@@UEAAXXZ$rtcVarDesc DD 028H ; Client::CKalienina::RenderGUI
	DD	0cH
	DQ	FLAT:?RenderGUI@CKalienina@Client@@UEAAXXZ$rtcName$0
	ORG $+48
?RenderGUI@CKalienina@Client@@UEAAXXZ$rtcFrameData DD 01H ; Client::CKalienina::RenderGUI
	DD	00H
	DQ	FLAT:?RenderGUI@CKalienina@Client@@UEAAXXZ$rtcVarDesc
CONST	ENDS
;	COMDAT xdata
xdata	SEGMENT
$unwind$?Render@CKalienina@Client@@UEAAJXZ DD 035052a01H
	DD	010e3313H
	DD	070070027H
	DD	05006H
xdata	ENDS
;	COMDAT xdata
xdata	SEGMENT
$unwind$?LateTick@CKalienina@Client@@UEAAXN@Z DD 025054119H
	DD	01142319H
	DD	0700d002fH
	DD	0500cH
	DD	imagerel __GSHandlerCheck
	DD	0168H
xdata	ENDS
;	COMDAT CONST
CONST	SEGMENT
?LateTick@CKalienina@Client@@UEAAXN@Z$rtcName$0 DB 076H	; Client::CKalienina::LateTick
	DB	050H
	DB	06fH
	DB	073H
	DB	069H
	DB	074H
	DB	069H
	DB	06fH
	DB	06eH
	DB	00H
	ORG $+6
?LateTick@CKalienina@Client@@UEAAXN@Z$rtcVarDesc DD 030H ; Client::CKalienina::LateTick
	DD	010H
	DQ	FLAT:?LateTick@CKalienina@Client@@UEAAXN@Z$rtcName$0
	ORG $+48
?LateTick@CKalienina@Client@@UEAAXN@Z$rtcFrameData DD 01H ; Client::CKalienina::LateTick
	DD	00H
	DQ	FLAT:?LateTick@CKalienina@Client@@UEAAXN@Z$rtcVarDesc
CONST	ENDS
;	COMDAT xdata
xdata	SEGMENT
$unwind$?Tick@CKalienina@Client@@UEAAXN@Z DD 025053001H
	DD	01142319H
	DD	0700d0021H
	DD	0500cH
xdata	ENDS
;	COMDAT xdata
xdata	SEGMENT
$unwind$?Initialize@CKalienina@Client@@UEAAJPEAX@Z DD 025064119H
	DD	01142319H
	DD	0700d0058H
	DD	0500b600cH
	DD	imagerel __GSHandlerCheck
	DD	02b8H
xdata	ENDS
;	COMDAT CONST
CONST	SEGMENT
?Initialize@CKalienina@Client@@UEAAJPEAX@Z$rtcName$0 DB 063H ; Client::CKalienina::Initialize
	DB	061H
	DB	06dH
	DB	04dH
	DB	061H
	DB	074H
	DB	072H
	DB	069H
	DB	078H
	DB	00H
	ORG $+6
?Initialize@CKalienina@Client@@UEAAJPEAX@Z$rtcVarDesc DD 030H ; Client::CKalienina::Initialize
	DD	040H
	DQ	FLAT:?Initialize@CKalienina@Client@@UEAAJPEAX@Z$rtcName$0
	ORG $+48
?Initialize@CKalienina@Client@@UEAAJPEAX@Z$rtcFrameData DD 01H ; Client::CKalienina::Initialize
	DD	00H
	DQ	FLAT:?Initialize@CKalienina@Client@@UEAAJPEAX@Z$rtcVarDesc
CONST	ENDS
;	COMDAT xdata
xdata	SEGMENT
$unwind$?Initialize_Prototype@CKalienina@Client@@UEAAJXZ DD 025052a01H
	DD	010e2313H
	DD	07007001dH
	DD	05006H
xdata	ENDS
;	COMDAT xdata
xdata	SEGMENT
$unwind$??1CKalienina@Client@@EEAA@XZ DD 025052a01H
	DD	010e2313H
	DD	07007001dH
	DD	05006H
xdata	ENDS
;	COMDAT xdata
xdata	SEGMENT
$unwind$??0CKalienina@Client@@AEAA@AEBV01@@Z DD 025052f01H
	DD	01132318H
	DD	0700c001dH
	DD	0500bH
xdata	ENDS
;	COMDAT xdata
xdata	SEGMENT
$unwind$??0CKalienina@Client@@AEAA@PEAUID3D11Device@@PEAUID3D11DeviceContext@@@Z DD 025053401H
	DD	0118231dH
	DD	07011001dH
	DD	05010H
xdata	ENDS
;	COMDAT xdata
xdata	SEGMENT
$unwind$?XMMatrixIdentity@DirectX@@YQ?AUXMMATRIX@1@XZ DD 035052f19H
	DD	010a330fH
	DD	07003002bH
	DD	05002H
	DD	imagerel __GSHandlerCheck
	DD	0148H
xdata	ENDS
;	COMDAT CONST
CONST	SEGMENT
?XMMatrixIdentity@DirectX@@YQ?AUXMMATRIX@1@XZ$rtcName$0 DB 04dH ; DirectX::XMMatrixIdentity
	DB	00H
	ORG $+14
?XMMatrixIdentity@DirectX@@YQ?AUXMMATRIX@1@XZ$rtcVarDesc DD 040H ; DirectX::XMMatrixIdentity
	DD	040H
	DQ	FLAT:?XMMatrixIdentity@DirectX@@YQ?AUXMMATRIX@1@XZ$rtcName$0
	ORG $+48
?XMMatrixIdentity@DirectX@@YQ?AUXMMATRIX@1@XZ$rtcFrameData DD 01H ; DirectX::XMMatrixIdentity
	DD	00H
	DQ	FLAT:?XMMatrixIdentity@DirectX@@YQ?AUXMMATRIX@1@XZ$rtcVarDesc
CONST	ENDS
;	COMDAT xdata
xdata	SEGMENT
$unwind$?XMVector3Normalize@DirectX@@YQ?AT__m128@@T2@@Z DD 035052a01H
	DD	010a330fH
	DD	0700300dfH
	DD	05002H
xdata	ENDS
;	COMDAT xdata
xdata	SEGMENT
$unwind$?XMVector3Cross@DirectX@@YQ?AT__m128@@T2@0@Z DD 035053601H
	DD	010a330fH
	DD	07003008bH
	DD	05002H
xdata	ENDS
;	COMDAT xdata
xdata	SEGMENT
$unwind$?XMVector3Dot@DirectX@@YQ?AT__m128@@T2@0@Z DD 015053601H
	DD	010a130fH
	DD	070030057H
	DD	05002H
xdata	ENDS
;	COMDAT xdata
xdata	SEGMENT
$unwind$?XMVectorNegate@DirectX@@YQ?AT__m128@@T2@@Z DD 015052a01H
	DD	010a130fH
	DD	070030033H
	DD	05002H
xdata	ENDS
;	COMDAT xdata
xdata	SEGMENT
$unwind$?XMVectorSetY@DirectX@@YQ?AT__m128@@T2@M@Z DD 015052f01H
	DD	010f1314H
	DD	070080045H
	DD	05007H
xdata	ENDS
;	COMDAT xdata
xdata	SEGMENT
$unwind$?XMVectorGetY@DirectX@@YQMT__m128@@@Z DD 015052a01H
	DD	010a130fH
	DD	07003002dH
	DD	05002H
xdata	ENDS
;	COMDAT xdata
xdata	SEGMENT
$unwind$?XMVectorGetX@DirectX@@YQMT__m128@@@Z DD 015052a01H
	DD	010a130fH
	DD	070030021H
	DD	05002H
xdata	ENDS
;	COMDAT xdata
xdata	SEGMENT
$unwind$?XMVectorSet@DirectX@@YQ?AT__m128@@MMMM@Z DD 015053501H
	DD	01211326H
	DD	0701a0021H
	DD	05019H
xdata	ENDS
;	COMDAT xdata
xdata	SEGMENT
$unwind$?XMStoreFloat4x4@DirectX@@YQXPEAUXMFLOAT4X4@1@UXMMATRIX@1@@Z DD 025053601H
	DD	010e2313H
	DD	070070029H
	DD	05006H
xdata	ENDS
;	COMDAT CONST
CONST	SEGMENT
?XMStoreFloat4x4@DirectX@@YQXPEAUXMFLOAT4X4@1@UXMMATRIX@1@@Z$rtcName$0 DB 04dH ; DirectX::XMStoreFloat4x4
	DB	00H
	ORG $+14
?XMStoreFloat4x4@DirectX@@YQXPEAUXMFLOAT4X4@1@UXMMATRIX@1@@Z$rtcVarDesc DD 030H ; DirectX::XMStoreFloat4x4
	DD	040H
	DQ	FLAT:?XMStoreFloat4x4@DirectX@@YQXPEAUXMFLOAT4X4@1@UXMMATRIX@1@@Z$rtcName$0
	ORG $+48
?XMStoreFloat4x4@DirectX@@YQXPEAUXMFLOAT4X4@1@UXMMATRIX@1@@Z$rtcFrameData DD 01H ; DirectX::XMStoreFloat4x4
	DD	00H
	DQ	FLAT:?XMStoreFloat4x4@DirectX@@YQXPEAUXMFLOAT4X4@1@UXMMATRIX@1@@Z$rtcVarDesc
CONST	ENDS
;	COMDAT xdata
xdata	SEGMENT
$unwind$?XMStoreFloat3@DirectX@@YQXPEAUXMFLOAT3@1@T__m128@@@Z DD 025053601H
	DD	010e2313H
	DD	07007003bH
	DD	05006H
xdata	ENDS
;	COMDAT xdata
xdata	SEGMENT
$unwind$??0XMFLOAT4X4@DirectX@@QEAA@XZ DD 05052801H
	DD	010e0311H
	DD	070070019H
	DD	05006H
xdata	ENDS
;	COMDAT xdata
xdata	SEGMENT
$unwind$??0XMFLOAT3@DirectX@@QEAA@XZ DD 05052801H
	DD	010e0311H
	DD	070070019H
	DD	05006H
xdata	ENDS
;	COMDAT xdata
xdata	SEGMENT
$unwind$??0XMMATRIX@DirectX@@QEAA@XZ DD 05052801H
	DD	010e0311H
	DD	070070019H
	DD	05006H
xdata	ENDS
;	COMDAT xdata
xdata	SEGMENT
$unwind$??GDirectX@@YQ?AT__m128@@T1@@Z DD 035052a01H
	DD	010a330fH
	DD	07003002bH
	DD	05002H
xdata	ENDS
;	COMDAT xdata
xdata	SEGMENT
$unwind$??BXMVECTORU32@DirectX@@QEBA?AT__m128@@XZ DD 05052d01H
	DD	01130316H
	DD	0700c0019H
	DD	0500bH
xdata	ENDS
;	COMDAT xdata
xdata	SEGMENT
$unwind$??BXMVECTORI32@DirectX@@QEBA?AT__m128@@XZ DD 05052d01H
	DD	01130316H
	DD	0700c0019H
	DD	0500bH
xdata	ENDS
;	COMDAT xdata
xdata	SEGMENT
$unwind$?XMConvertToRadians@DirectX@@YAMM@Z DD 015052301H
	DD	010f1314H
	DD	07008001bH
	DD	05007H
xdata	ENDS
;	COMDAT xdata
xdata	SEGMENT
$unwind$?_Xran@?$basic_string@_WU?$char_traits@_W@std@@V?$allocator@_W@2@@std@@QEBAXXZ DD 025052a01H
	DD	010e2313H
	DD	07007001dH
	DD	05006H
xdata	ENDS
;	COMDAT xdata
xdata	SEGMENT
$unwind$?_Check_offset@?$basic_string@_WU?$char_traits@_W@std@@V?$allocator@_W@2@@std@@QEBAX_K@Z DD 025052f01H
	DD	01132318H
	DD	0700c001dH
	DD	0500bH
xdata	ENDS
;	COMDAT xdata
xdata	SEGMENT
$unwind$?_Xlen@?$basic_string@_WU?$char_traits@_W@std@@V?$allocator@_W@2@@std@@QEBAXXZ DD 025052a01H
	DD	010e2313H
	DD	07007001dH
	DD	05006H
xdata	ENDS
;	COMDAT xdata
xdata	SEGMENT
$unwind$?_Tidy@?$basic_string@_WU?$char_traits@_W@std@@V?$allocator@_W@2@@std@@QEAAX_N_K@Z DD 025053301H
	DD	0117231cH
	DD	070100021H
	DD	0500fH
xdata	ENDS
;	COMDAT xdata
xdata	SEGMENT
$unwind$?_Inside@?$basic_string@_WU?$char_traits@_W@std@@V?$allocator@_W@2@@std@@QEAA_NPEB_W@Z DD 025052f01H
	DD	01132318H
	DD	0700c001fH
	DD	0500bH
xdata	ENDS
;	COMDAT xdata
xdata	SEGMENT
$unwind$?_Grow@?$basic_string@_WU?$char_traits@_W@std@@V?$allocator@_W@2@@std@@QEAA_N_K_N@Z DD 025053401H
	DD	0118231dH
	DD	07011001fH
	DD	05010H
xdata	ENDS
;	COMDAT xdata
xdata	SEGMENT
$unwind$?_Eos@?$basic_string@_WU?$char_traits@_W@std@@V?$allocator@_W@2@@std@@QEAAX_K@Z DD 025052f01H
	DD	01132318H
	DD	0700c0025H
	DD	0500bH
xdata	ENDS
;	COMDAT xdata
xdata	SEGMENT
$unwind$?catch$0@?0??_Copy@?$basic_string@_WU?$char_traits@_W@std@@V?$allocator@_W@2@@std@@QEAAX_K0@Z@4HA DD 031019H
	DD	0700c4210H
	DD	0500bH
	DD	imagerel __CxxFrameHandler3
	DD	imagerel $cppxdata$?_Copy@?$basic_string@_WU?$char_traits@_W@std@@V?$allocator@_W@2@@std@@QEAAX_K0@Z
xdata	ENDS
;	COMDAT xdata
xdata	SEGMENT
$unwind$?catch$1@?0??_Copy@?$basic_string@_WU?$char_traits@_W@std@@V?$allocator@_W@2@@std@@QEAAX_K0@Z@4HA DD 031019H
	DD	0700c4210H
	DD	0500bH
	DD	imagerel __CxxFrameHandler3
	DD	imagerel $cppxdata$?_Copy@?$basic_string@_WU?$char_traits@_W@std@@V?$allocator@_W@2@@std@@QEAAX_K0@Z
xdata	ENDS
;	COMDAT xdata
xdata	SEGMENT
$ip2state$?_Copy@?$basic_string@_WU?$char_traits@_W@std@@V?$allocator@_W@2@@std@@QEAAX_K0@Z DD imagerel ?_Copy@?$basic_string@_WU?$char_traits@_W@std@@V?$allocator@_W@2@@std@@QEAAX_K0@Z
	DD	0ffffffffH
	DD	imagerel ?_Copy@?$basic_string@_WU?$char_traits@_W@std@@V?$allocator@_W@2@@std@@QEAAX_K0@Z+356
	DD	00H
	DD	imagerel ?_Copy@?$basic_string@_WU?$char_traits@_W@std@@V?$allocator@_W@2@@std@@QEAAX_K0@Z+418
	DD	0ffffffffH
	DD	imagerel ?catch$1@?0??_Copy@?$basic_string@_WU?$char_traits@_W@std@@V?$allocator@_W@2@@std@@QEAAX_K0@Z@4HA
	DD	00H
	DD	imagerel ?catch$1@?0??_Copy@?$basic_string@_WU?$char_traits@_W@std@@V?$allocator@_W@2@@std@@QEAAX_K0@Z@4HA+20
	DD	01H
	DD	imagerel ?catch$1@?0??_Copy@?$basic_string@_WU?$char_traits@_W@std@@V?$allocator@_W@2@@std@@QEAAX_K0@Z@4HA+31
	DD	02H
	DD	imagerel ?catch$1@?0??_Copy@?$basic_string@_WU?$char_traits@_W@std@@V?$allocator@_W@2@@std@@QEAAX_K0@Z@4HA+93
	DD	01H
	DD	imagerel ?catch$1@?0??_Copy@?$basic_string@_WU?$char_traits@_W@std@@V?$allocator@_W@2@@std@@QEAAX_K0@Z@4HA+95
	DD	00H
	DD	imagerel ?catch$0@?0??_Copy@?$basic_string@_WU?$char_traits@_W@std@@V?$allocator@_W@2@@std@@QEAAX_K0@Z@4HA+20
	DD	03H
	DD	imagerel ?catch$0@?0??_Copy@?$basic_string@_WU?$char_traits@_W@std@@V?$allocator@_W@2@@std@@QEAAX_K0@Z@4HA+47
	DD	00H
xdata	ENDS
;	COMDAT xdata
xdata	SEGMENT
$handlerMap$1$?_Copy@?$basic_string@_WU?$char_traits@_W@std@@V?$allocator@_W@2@@std@@QEAAX_K0@Z DD 040H
	DD	00H
	DD	00H
	DD	imagerel ?catch$0@?0??_Copy@?$basic_string@_WU?$char_traits@_W@std@@V?$allocator@_W@2@@std@@QEAAX_K0@Z@4HA
	DD	048H
xdata	ENDS
;	COMDAT xdata
xdata	SEGMENT
$handlerMap$0$?_Copy@?$basic_string@_WU?$char_traits@_W@std@@V?$allocator@_W@2@@std@@QEAAX_K0@Z DD 040H
	DD	00H
	DD	00H
	DD	imagerel ?catch$1@?0??_Copy@?$basic_string@_WU?$char_traits@_W@std@@V?$allocator@_W@2@@std@@QEAAX_K0@Z@4HA
	DD	048H
xdata	ENDS
;	COMDAT xdata
xdata	SEGMENT
$tryMap$?_Copy@?$basic_string@_WU?$char_traits@_W@std@@V?$allocator@_W@2@@std@@QEAAX_K0@Z DD 00H
	DD	00H
	DD	03H
	DD	01H
	DD	imagerel $handlerMap$0$?_Copy@?$basic_string@_WU?$char_traits@_W@std@@V?$allocator@_W@2@@std@@QEAAX_K0@Z
	DD	02H
	DD	02H
	DD	03H
	DD	01H
	DD	imagerel $handlerMap$1$?_Copy@?$basic_string@_WU?$char_traits@_W@std@@V?$allocator@_W@2@@std@@QEAAX_K0@Z
xdata	ENDS
;	COMDAT xdata
xdata	SEGMENT
$stateUnwindMap$?_Copy@?$basic_string@_WU?$char_traits@_W@std@@V?$allocator@_W@2@@std@@QEAAX_K0@Z DD 0ffffffffH
	DD	00H
	DD	0ffffffffH
	DD	00H
	DD	01H
	DD	00H
	DD	01H
	DD	00H
xdata	ENDS
;	COMDAT xdata
xdata	SEGMENT
$unwind$?_Copy@?$basic_string@_WU?$char_traits@_W@std@@V?$allocator@_W@2@@std@@QEAAX_K0@Z DD 025055019H
	DD	0118231dH
	DD	07011002bH
	DD	05010H
	DD	imagerel __GSHandlerCheck_EH
	DD	imagerel $cppxdata$?_Copy@?$basic_string@_WU?$char_traits@_W@std@@V?$allocator@_W@2@@std@@QEAAX_K0@Z
	DD	014bH
xdata	ENDS
;	COMDAT CONST
CONST	SEGMENT
?_Copy@?$basic_string@_WU?$char_traits@_W@std@@V?$allocator@_W@2@@std@@QEAAX_K0@Z$rtcName$0 DB 05fH ; std::basic_string<wchar_t,std::char_traits<wchar_t>,std::allocator<wchar_t> >::_Copy
	DB	050H
	DB	074H
	DB	072H
	DB	00H
	ORG $+11
?_Copy@?$basic_string@_WU?$char_traits@_W@std@@V?$allocator@_W@2@@std@@QEAAX_K0@Z$rtcVarDesc DD 048H ; std::basic_string<wchar_t,std::char_traits<wchar_t>,std::allocator<wchar_t> >::_Copy
	DD	08H
	DQ	FLAT:?_Copy@?$basic_string@_WU?$char_traits@_W@std@@V?$allocator@_W@2@@std@@QEAAX_K0@Z$rtcName$0
	ORG $+48
?_Copy@?$basic_string@_WU?$char_traits@_W@std@@V?$allocator@_W@2@@std@@QEAAX_K0@Z$rtcFrameData DD 01H ; std::basic_string<wchar_t,std::char_traits<wchar_t>,std::allocator<wchar_t> >::_Copy
	DD	00H
	DQ	FLAT:?_Copy@?$basic_string@_WU?$char_traits@_W@std@@V?$allocator@_W@2@@std@@QEAAX_K0@Z$rtcVarDesc
$cppxdata$?_Copy@?$basic_string@_WU?$char_traits@_W@std@@V?$allocator@_W@2@@std@@QEAAX_K0@Z DD 019930522H
	DD	04H
	DD	imagerel $stateUnwindMap$?_Copy@?$basic_string@_WU?$char_traits@_W@std@@V?$allocator@_W@2@@std@@QEAAX_K0@Z
	DD	02H
	DD	imagerel $tryMap$?_Copy@?$basic_string@_WU?$char_traits@_W@std@@V?$allocator@_W@2@@std@@QEAAX_K0@Z
	DD	0aH
	DD	imagerel $ip2state$?_Copy@?$basic_string@_WU?$char_traits@_W@std@@V?$allocator@_W@2@@std@@QEAAX_K0@Z
	DD	0128H
	DD	00H
	DD	01H
CONST	ENDS
;	COMDAT xdata
xdata	SEGMENT
$unwind$?_Clamp_suffix_size@?$basic_string@_WU?$char_traits@_W@std@@V?$allocator@_W@2@@std@@QEBA_K_K0@Z DD 025053401H
	DD	0118231dH
	DD	070110021H
	DD	05010H
xdata	ENDS
;	COMDAT xdata
xdata	SEGMENT
$unwind$?max_size@?$basic_string@_WU?$char_traits@_W@std@@V?$allocator@_W@2@@std@@QEBA_KXZ DD 025052a01H
	DD	010e2313H
	DD	070070025H
	DD	05006H
xdata	ENDS
;	COMDAT xdata
xdata	SEGMENT
$unwind$?erase@?$basic_string@_WU?$char_traits@_W@std@@V?$allocator@_W@2@@std@@QEAAAEAV12@_K0@Z DD 025053401H
	DD	0118231dH
	DD	070110025H
	DD	05010H
xdata	ENDS
;	COMDAT xdata
xdata	SEGMENT
$unwind$?erase@?$basic_string@_WU?$char_traits@_W@std@@V?$allocator@_W@2@@std@@QEAAAEAV12@_K@Z DD 025052f01H
	DD	01132318H
	DD	0700c001dH
	DD	0500bH
xdata	ENDS
;	COMDAT xdata
xdata	SEGMENT
$unwind$?assign@?$basic_string@_WU?$char_traits@_W@std@@V?$allocator@_W@2@@std@@QEAAAEAV12@PEB_W@Z DD 025052f01H
	DD	01132318H
	DD	0700c001dH
	DD	0500bH
xdata	ENDS
;	COMDAT xdata
xdata	SEGMENT
$unwind$?assign@?$basic_string@_WU?$char_traits@_W@std@@V?$allocator@_W@2@@std@@QEAAAEAV12@PEB_W_K@Z DD 025053401H
	DD	0118231dH
	DD	07011001fH
	DD	05010H
xdata	ENDS
;	COMDAT xdata
xdata	SEGMENT
$unwind$?assign@?$basic_string@_WU?$char_traits@_W@std@@V?$allocator@_W@2@@std@@QEAAAEAV12@AEBV12@_K1@Z DD 025053901H
	DD	011d2322H
	DD	07016001fH
	DD	05015H
xdata	ENDS
;	COMDAT xdata
xdata	SEGMENT
$unwind$?dtor$0@?0???0?$basic_string@_WU?$char_traits@_W@std@@V?$allocator@_W@2@@std@@QEAA@PEB_W@Z@4HA DD 031001H
	DD	0700c4210H
	DD	0500bH
xdata	ENDS
;	COMDAT xdata
xdata	SEGMENT
$ip2state$??0?$basic_string@_WU?$char_traits@_W@std@@V?$allocator@_W@2@@std@@QEAA@PEB_W@Z DD imagerel ??0?$basic_string@_WU?$char_traits@_W@std@@V?$allocator@_W@2@@std@@QEAA@PEB_W@Z
	DD	0ffffffffH
	DD	imagerel ??0?$basic_string@_WU?$char_traits@_W@std@@V?$allocator@_W@2@@std@@QEAA@PEB_W@Z+71
	DD	00H
	DD	imagerel ??0?$basic_string@_WU?$char_traits@_W@std@@V?$allocator@_W@2@@std@@QEAA@PEB_W@Z+108
	DD	0ffffffffH
xdata	ENDS
;	COMDAT xdata
xdata	SEGMENT
$stateUnwindMap$??0?$basic_string@_WU?$char_traits@_W@std@@V?$allocator@_W@2@@std@@QEAA@PEB_W@Z DD 0ffffffffH
	DD	imagerel ?dtor$0@?0???0?$basic_string@_WU?$char_traits@_W@std@@V?$allocator@_W@2@@std@@QEAA@PEB_W@Z@4HA
xdata	ENDS
;	COMDAT CONST
CONST	SEGMENT
$cppxdata$??0?$basic_string@_WU?$char_traits@_W@std@@V?$allocator@_W@2@@std@@QEAA@PEB_W@Z DD 019930522H
	DD	01H
	DD	imagerel $stateUnwindMap$??0?$basic_string@_WU?$char_traits@_W@std@@V?$allocator@_W@2@@std@@QEAA@PEB_W@Z
	DD	00H
	DD	00H
	DD	03H
	DD	imagerel $ip2state$??0?$basic_string@_WU?$char_traits@_W@std@@V?$allocator@_W@2@@std@@QEAA@PEB_W@Z
	DD	0e8H
	DD	00H
	DD	01H
CONST	ENDS
;	COMDAT xdata
xdata	SEGMENT
$unwind$??0?$basic_string@_WU?$char_traits@_W@std@@V?$allocator@_W@2@@std@@QEAA@PEB_W@Z DD 025053a11H
	DD	01132318H
	DD	0700c0021H
	DD	0500bH
	DD	imagerel __CxxFrameHandler3
	DD	imagerel $cppxdata$??0?$basic_string@_WU?$char_traits@_W@std@@V?$allocator@_W@2@@std@@QEAA@PEB_W@Z
xdata	ENDS
;	COMDAT xdata
xdata	SEGMENT
$unwind$??1?$_Compressed_pair@U?$_Wrap_alloc@V?$allocator@_W@std@@@std@@V?$_String_val@U?$_Simple_types@_W@std@@@2@$00@std@@QEAA@XZ DD 025052a01H
	DD	010e2313H
	DD	07007001dH
	DD	05006H
xdata	ENDS
;	COMDAT xdata
xdata	SEGMENT
$unwind$?_Get_second@?$_Compressed_pair@U?$_Wrap_alloc@V?$allocator@_W@std@@@std@@V?$_String_val@U?$_Simple_types@_W@std@@@2@$00@std@@QEBAAEBV?$_String_val@U?$_Simple_types@_W@std@@@2@XZ DD 05052801H
	DD	010e0311H
	DD	070070019H
	DD	05006H
xdata	ENDS
;	COMDAT xdata
xdata	SEGMENT
$unwind$?_Get_second@?$_Compressed_pair@U?$_Wrap_alloc@V?$allocator@_W@std@@@std@@V?$_String_val@U?$_Simple_types@_W@std@@@2@$00@std@@QEAAAEAV?$_String_val@U?$_Simple_types@_W@std@@@2@XZ DD 05052801H
	DD	010e0311H
	DD	070070019H
	DD	05006H
xdata	ENDS
;	COMDAT xdata
xdata	SEGMENT
$unwind$?_Get_first@?$_Compressed_pair@U?$_Wrap_alloc@V?$allocator@_W@std@@@std@@V?$_String_val@U?$_Simple_types@_W@std@@@2@$00@std@@QEBAAEBU?$_Wrap_alloc@V?$allocator@_W@std@@@2@XZ DD 05052801H
	DD	010e0311H
	DD	070070019H
	DD	05006H
xdata	ENDS
;	COMDAT xdata
xdata	SEGMENT
$unwind$?_Get_first@?$_Compressed_pair@U?$_Wrap_alloc@V?$allocator@_W@std@@@std@@V?$_String_val@U?$_Simple_types@_W@std@@@2@$00@std@@QEAAAEAU?$_Wrap_alloc@V?$allocator@_W@std@@@2@XZ DD 05052801H
	DD	010e0311H
	DD	070070019H
	DD	05006H
xdata	ENDS
;	COMDAT xdata
xdata	SEGMENT
$unwind$?_Myres@?$_String_alloc@U?$_String_base_types@_WV?$allocator@_W@std@@@std@@@std@@QEAAAEA_KXZ DD 025052a01H
	DD	010e2313H
	DD	07007001dH
	DD	05006H
xdata	ENDS
;	COMDAT xdata
xdata	SEGMENT
$unwind$?_Mysize@?$_String_alloc@U?$_String_base_types@_WV?$allocator@_W@std@@@std@@@std@@QEBAAEB_KXZ DD 025052a01H
	DD	010e2313H
	DD	07007001dH
	DD	05006H
xdata	ENDS
;	COMDAT xdata
xdata	SEGMENT
$unwind$?_Mysize@?$_String_alloc@U?$_String_base_types@_WV?$allocator@_W@std@@@std@@@std@@QEAAAEA_KXZ DD 025052a01H
	DD	010e2313H
	DD	07007001dH
	DD	05006H
xdata	ENDS
;	COMDAT xdata
xdata	SEGMENT
$unwind$?_Bx@?$_String_alloc@U?$_String_base_types@_WV?$allocator@_W@std@@@std@@@std@@QEAAAEAT_Bxty@?$_String_val@U?$_Simple_types@_W@std@@@2@XZ DD 025052a01H
	DD	010e2313H
	DD	07007001dH
	DD	05006H
xdata	ENDS
;	COMDAT xdata
xdata	SEGMENT
$unwind$?_Get_data@?$_String_alloc@U?$_String_base_types@_WV?$allocator@_W@std@@@std@@@std@@QEBAAEBV?$_String_val@U?$_Simple_types@_W@std@@@2@XZ DD 025052a01H
	DD	010e2313H
	DD	07007001dH
	DD	05006H
xdata	ENDS
;	COMDAT xdata
xdata	SEGMENT
$unwind$?_Get_data@?$_String_alloc@U?$_String_base_types@_WV?$allocator@_W@std@@@std@@@std@@QEAAAEAV?$_String_val@U?$_Simple_types@_W@std@@@2@XZ DD 025052a01H
	DD	010e2313H
	DD	07007001dH
	DD	05006H
xdata	ENDS
;	COMDAT xdata
xdata	SEGMENT
$unwind$?_Getal@?$_String_alloc@U?$_String_base_types@_WV?$allocator@_W@std@@@std@@@std@@QEBAAEBU?$_Wrap_alloc@V?$allocator@_W@std@@@2@XZ DD 025052a01H
	DD	010e2313H
	DD	07007001dH
	DD	05006H
xdata	ENDS
;	COMDAT xdata
xdata	SEGMENT
$unwind$?_Getal@?$_String_alloc@U?$_String_base_types@_WV?$allocator@_W@std@@@std@@@std@@QEAAAEAU?$_Wrap_alloc@V?$allocator@_W@std@@@2@XZ DD 025052a01H
	DD	010e2313H
	DD	07007001dH
	DD	05006H
xdata	ENDS
;	COMDAT xdata
xdata	SEGMENT
$unwind$?_Orphan_all@?$_String_alloc@U?$_String_base_types@_WV?$allocator@_W@std@@@std@@@std@@QEAAXXZ DD 025052a01H
	DD	010e2313H
	DD	07007001dH
	DD	05006H
xdata	ENDS
;	COMDAT xdata
xdata	SEGMENT
$unwind$?_Myproxy@?$_String_alloc@U?$_String_base_types@_WV?$allocator@_W@std@@@std@@@std@@QEAAAEAPEAU_Container_proxy@2@XZ DD 025052a01H
	DD	010e2313H
	DD	07007001dH
	DD	05006H
xdata	ENDS
;	COMDAT xdata
xdata	SEGMENT
$unwind$?_Free_proxy@?$_String_alloc@U?$_String_base_types@_WV?$allocator@_W@std@@@std@@@std@@QEAAXXZ DD 025053b19H
	DD	010e2313H
	DD	070070021H
	DD	05006H
	DD	imagerel __GSHandlerCheck
	DD	0f8H
xdata	ENDS
;	COMDAT CONST
CONST	SEGMENT
?_Free_proxy@?$_String_alloc@U?$_String_base_types@_WV?$allocator@_W@std@@@std@@@std@@QEAAXXZ$rtcName$0 DB 05fH ; std::_String_alloc<std::_String_base_types<wchar_t,std::allocator<wchar_t> > >::_Free_proxy
	DB	041H
	DB	06cH
	DB	070H
	DB	072H
	DB	06fH
	DB	078H
	DB	079H
	DB	00H
	ORG $+7
?_Free_proxy@?$_String_alloc@U?$_String_base_types@_WV?$allocator@_W@std@@@std@@@std@@QEAAXXZ$rtcVarDesc DD 024H ; std::_String_alloc<std::_String_base_types<wchar_t,std::allocator<wchar_t> > >::_Free_proxy
	DD	01H
	DQ	FLAT:?_Free_proxy@?$_String_alloc@U?$_String_base_types@_WV?$allocator@_W@std@@@std@@@std@@QEAAXXZ$rtcName$0
	ORG $+48
?_Free_proxy@?$_String_alloc@U?$_String_base_types@_WV?$allocator@_W@std@@@std@@@std@@QEAAXXZ$rtcFrameData DD 01H ; std::_String_alloc<std::_String_base_types<wchar_t,std::allocator<wchar_t> > >::_Free_proxy
	DD	00H
	DQ	FLAT:?_Free_proxy@?$_String_alloc@U?$_String_base_types@_WV?$allocator@_W@std@@@std@@@std@@QEAAXXZ$rtcVarDesc
CONST	ENDS
;	COMDAT xdata
xdata	SEGMENT
$unwind$?_Alloc_proxy@?$_String_alloc@U?$_String_base_types@_WV?$allocator@_W@std@@@std@@@std@@QEAAXXZ DD 025053b19H
	DD	010e2313H
	DD	070070029H
	DD	05006H
	DD	imagerel __GSHandlerCheck
	DD	0130H
xdata	ENDS
;	COMDAT CONST
CONST	SEGMENT
?_Alloc_proxy@?$_String_alloc@U?$_String_base_types@_WV?$allocator@_W@std@@@std@@@std@@QEAAXXZ$rtcName$0 DB 05fH ; std::_String_alloc<std::_String_base_types<wchar_t,std::allocator<wchar_t> > >::_Alloc_proxy
	DB	041H
	DB	06cH
	DB	070H
	DB	072H
	DB	06fH
	DB	078H
	DB	079H
	DB	00H
	ORG $+7
?_Alloc_proxy@?$_String_alloc@U?$_String_base_types@_WV?$allocator@_W@std@@@std@@@std@@QEAAXXZ$rtcVarDesc DD 024H ; std::_String_alloc<std::_String_base_types<wchar_t,std::allocator<wchar_t> > >::_Alloc_proxy
	DD	01H
	DQ	FLAT:?_Alloc_proxy@?$_String_alloc@U?$_String_base_types@_WV?$allocator@_W@std@@@std@@@std@@QEAAXXZ$rtcName$0
	ORG $+48
?_Alloc_proxy@?$_String_alloc@U?$_String_base_types@_WV?$allocator@_W@std@@@std@@@std@@QEAAXXZ$rtcFrameData DD 01H ; std::_String_alloc<std::_String_base_types<wchar_t,std::allocator<wchar_t> > >::_Alloc_proxy
	DD	00H
	DQ	FLAT:?_Alloc_proxy@?$_String_alloc@U?$_String_base_types@_WV?$allocator@_W@std@@@std@@@std@@QEAAXXZ$rtcVarDesc
CONST	ENDS
;	COMDAT xdata
xdata	SEGMENT
$ip2state$??1?$_String_alloc@U?$_String_base_types@_WV?$allocator@_W@std@@@std@@@std@@QEAA@XZ DD imagerel ??1?$_String_alloc@U?$_String_base_types@_WV?$allocator@_W@std@@@std@@@std@@QEAA@XZ
	DD	0ffffffffH
xdata	ENDS
;	COMDAT CONST
CONST	SEGMENT
$cppxdata$??1?$_String_alloc@U?$_String_base_types@_WV?$allocator@_W@std@@@std@@@std@@QEAA@XZ DD 019930522H
	DD	00H
	DD	00H
	DD	00H
	DD	00H
	DD	01H
	DD	imagerel $ip2state$??1?$_String_alloc@U?$_String_base_types@_WV?$allocator@_W@std@@@std@@@std@@QEAA@XZ
	DD	0e8H
	DD	00H
	DD	05H
CONST	ENDS
;	COMDAT xdata
xdata	SEGMENT
$unwind$??1?$_String_alloc@U?$_String_base_types@_WV?$allocator@_W@std@@@std@@@std@@QEAA@XZ DD 025053519H
	DD	010e2313H
	DD	070070021H
	DD	05006H
	DD	imagerel __CxxFrameHandler3
	DD	imagerel $cppxdata$??1?$_String_alloc@U?$_String_base_types@_WV?$allocator@_W@std@@@std@@@std@@QEAA@XZ
xdata	ENDS
;	COMDAT xdata
xdata	SEGMENT
$unwind$?dtor$0@?0???0?$_String_alloc@U?$_String_base_types@_WV?$allocator@_W@std@@@std@@@std@@QEAA@XZ@4HA DD 031001H
	DD	0700c4210H
	DD	0500bH
xdata	ENDS
;	COMDAT xdata
xdata	SEGMENT
$ip2state$??0?$_String_alloc@U?$_String_base_types@_WV?$allocator@_W@std@@@std@@@std@@QEAA@XZ DD imagerel ??0?$_String_alloc@U?$_String_base_types@_WV?$allocator@_W@std@@@std@@@std@@QEAA@XZ
	DD	0ffffffffH
	DD	imagerel ??0?$_String_alloc@U?$_String_base_types@_WV?$allocator@_W@std@@@std@@@std@@QEAA@XZ+76
	DD	00H
	DD	imagerel ??0?$_String_alloc@U?$_String_base_types@_WV?$allocator@_W@std@@@std@@@std@@QEAA@XZ+89
	DD	0ffffffffH
xdata	ENDS
;	COMDAT xdata
xdata	SEGMENT
$stateUnwindMap$??0?$_String_alloc@U?$_String_base_types@_WV?$allocator@_W@std@@@std@@@std@@QEAA@XZ DD 0ffffffffH
	DD	imagerel ?dtor$0@?0???0?$_String_alloc@U?$_String_base_types@_WV?$allocator@_W@std@@@std@@@std@@QEAA@XZ@4HA
xdata	ENDS
;	COMDAT CONST
CONST	SEGMENT
$cppxdata$??0?$_String_alloc@U?$_String_base_types@_WV?$allocator@_W@std@@@std@@@std@@QEAA@XZ DD 019930522H
	DD	01H
	DD	imagerel $stateUnwindMap$??0?$_String_alloc@U?$_String_base_types@_WV?$allocator@_W@std@@@std@@@std@@QEAA@XZ
	DD	00H
	DD	00H
	DD	03H
	DD	imagerel $ip2state$??0?$_String_alloc@U?$_String_base_types@_WV?$allocator@_W@std@@@std@@@std@@QEAA@XZ
	DD	0108H
	DD	00H
	DD	01H
CONST	ENDS
;	COMDAT xdata
xdata	SEGMENT
$unwind$??0?$_String_alloc@U?$_String_base_types@_WV?$allocator@_W@std@@@std@@@std@@QEAA@XZ DD 025053511H
	DD	010e2313H
	DD	070070025H
	DD	05006H
	DD	imagerel __CxxFrameHandler3
	DD	imagerel $cppxdata$??0?$_String_alloc@U?$_String_base_types@_WV?$allocator@_W@std@@@std@@@std@@QEAA@XZ
xdata	ENDS
;	COMDAT xdata
xdata	SEGMENT
$unwind$?_Myptr@?$_String_alloc@U?$_String_base_types@_WV?$allocator@_W@std@@@std@@@std@@QEBAPEB_WXZ DD 025052a01H
	DD	010e2313H
	DD	07007001dH
	DD	05006H
xdata	ENDS
;	COMDAT xdata
xdata	SEGMENT
$unwind$?_Myptr@?$_String_alloc@U?$_String_base_types@_WV?$allocator@_W@std@@@std@@@std@@QEAAPEA_WXZ DD 025052a01H
	DD	010e2313H
	DD	07007001dH
	DD	05006H
xdata	ENDS
;	COMDAT xdata
xdata	SEGMENT
$unwind$??1?$_String_val@U?$_Simple_types@_W@std@@@std@@QEAA@XZ DD 025052a01H
	DD	010e2313H
	DD	07007001dH
	DD	05006H
xdata	ENDS
;	COMDAT xdata
xdata	SEGMENT
$unwind$??1_Bxty@?$_String_val@U?$_Simple_types@_W@std@@@std@@QEAA@XZ DD 05052801H
	DD	010e0311H
	DD	070070019H
	DD	05006H
xdata	ENDS
;	COMDAT xdata
xdata	SEGMENT
$unwind$??0_Bxty@?$_String_val@U?$_Simple_types@_W@std@@@std@@QEAA@XZ DD 05052801H
	DD	010e0311H
	DD	070070019H
	DD	05006H
xdata	ENDS
;	COMDAT xdata
xdata	SEGMENT
$unwind$?_Myptr@?$_String_val@U?$_Simple_types@_W@std@@@std@@QEBAPEB_WXZ DD 025052a01H
	DD	010e2313H
	DD	07007001fH
	DD	05006H
xdata	ENDS
;	COMDAT xdata
xdata	SEGMENT
$unwind$?_Myptr@?$_String_val@U?$_Simple_types@_W@std@@@std@@QEAAPEA_WXZ DD 025052a01H
	DD	010e2313H
	DD	07007001fH
	DD	05006H
xdata	ENDS
;	COMDAT xdata
xdata	SEGMENT
$unwind$?dtor$0@?0???0?$_String_val@U?$_Simple_types@_W@std@@@std@@QEAA@XZ@4HA DD 031001H
	DD	0700c4210H
	DD	0500bH
xdata	ENDS
;	COMDAT xdata
xdata	SEGMENT
$ip2state$??0?$_String_val@U?$_Simple_types@_W@std@@@std@@QEAA@XZ DD imagerel ??0?$_String_val@U?$_Simple_types@_W@std@@@std@@QEAA@XZ
	DD	0ffffffffH
	DD	imagerel ??0?$_String_val@U?$_Simple_types@_W@std@@@std@@QEAA@XZ+66
	DD	00H
	DD	imagerel ??0?$_String_val@U?$_Simple_types@_W@std@@@std@@QEAA@XZ+115
	DD	0ffffffffH
xdata	ENDS
;	COMDAT xdata
xdata	SEGMENT
$stateUnwindMap$??0?$_String_val@U?$_Simple_types@_W@std@@@std@@QEAA@XZ DD 0ffffffffH
	DD	imagerel ?dtor$0@?0???0?$_String_val@U?$_Simple_types@_W@std@@@std@@QEAA@XZ@4HA
xdata	ENDS
;	COMDAT CONST
CONST	SEGMENT
$cppxdata$??0?$_String_val@U?$_Simple_types@_W@std@@@std@@QEAA@XZ DD 019930522H
	DD	01H
	DD	imagerel $stateUnwindMap$??0?$_String_val@U?$_Simple_types@_W@std@@@std@@QEAA@XZ
	DD	00H
	DD	00H
	DD	03H
	DD	imagerel $ip2state$??0?$_String_val@U?$_Simple_types@_W@std@@@std@@QEAA@XZ
	DD	0e8H
	DD	00H
	DD	01H
CONST	ENDS
;	COMDAT xdata
xdata	SEGMENT
$unwind$??0?$_String_val@U?$_Simple_types@_W@std@@@std@@QEAA@XZ DD 025053511H
	DD	010e2313H
	DD	070070021H
	DD	05006H
	DD	imagerel __CxxFrameHandler3
	DD	imagerel $cppxdata$??0?$_String_val@U?$_Simple_types@_W@std@@@std@@QEAA@XZ
xdata	ENDS
;	COMDAT xdata
xdata	SEGMENT
$unwind$?max_size@?$_Wrap_alloc@V?$allocator@_W@std@@@std@@QEBA_KU_Nil@2@@Z DD 025052e01H
	DD	01122317H
	DD	0700b001dH
	DD	0500aH
xdata	ENDS
;	COMDAT xdata
xdata	SEGMENT
$unwind$?deallocate@?$_Wrap_alloc@V?$allocator@_W@std@@@std@@QEAAXPEA_W_K@Z DD 025053401H
	DD	0118231dH
	DD	07011001dH
	DD	05010H
xdata	ENDS
;	COMDAT xdata
xdata	SEGMENT
$unwind$?allocate@?$_Wrap_alloc@V?$allocator@_W@std@@@std@@QEAAPEA_W_K@Z DD 025052f01H
	DD	01132318H
	DD	0700c001dH
	DD	0500bH
xdata	ENDS
;	COMDAT xdata
xdata	SEGMENT
$unwind$??0?$_Wrap_alloc@V?$allocator@_W@std@@@std@@QEAA@XZ DD 025052a01H
	DD	010e2313H
	DD	07007001dH
	DD	05006H
xdata	ENDS
;	COMDAT xdata
xdata	SEGMENT
$unwind$?max_size@?$allocator_traits@V?$allocator@_W@std@@@std@@SA_KAEBV?$allocator@_W@2@@Z DD 025052a01H
	DD	010e2313H
	DD	07007001dH
	DD	05006H
xdata	ENDS
;	COMDAT xdata
xdata	SEGMENT
$unwind$?max_size@?$allocator@_W@std@@QEBA_KXZ DD 05052801H
	DD	010e0311H
	DD	070070019H
	DD	05006H
xdata	ENDS
;	COMDAT xdata
xdata	SEGMENT
$unwind$?allocate@?$allocator@_W@std@@QEAAPEA_W_K@Z DD 025052f01H
	DD	01132318H
	DD	0700c001dH
	DD	0500bH
xdata	ENDS
;	COMDAT xdata
xdata	SEGMENT
$unwind$?deallocate@?$allocator@_W@std@@QEAAXPEA_W_K@Z DD 025053401H
	DD	0118231dH
	DD	07011001dH
	DD	05010H
xdata	ENDS
;	COMDAT xdata
xdata	SEGMENT
$unwind$??0?$allocator@_W@std@@QEAA@XZ DD 05052801H
	DD	010e0311H
	DD	070070019H
	DD	05006H
xdata	ENDS
;	COMDAT xdata
xdata	SEGMENT
$unwind$?_Deallocate@std@@YAXPEAX_K1@Z DD 035053401H
	DD	0118331dH
	DD	07011002fH
	DD	05010H
xdata	ENDS
;	COMDAT xdata
xdata	SEGMENT
$unwind$?_Allocate@std@@YAPEAX_K0_N@Z DD 035053401H
	DD	0118331dH
	DD	07011002fH
	DD	05010H
xdata	ENDS
;	COMDAT xdata
xdata	SEGMENT
$unwind$?_Orphan_all@_Container_base12@std@@QEAAXXZ DD 025053b19H
	DD	010e2313H
	DD	070070025H
	DD	05006H
	DD	imagerel __GSHandlerCheck
	DD	0118H
xdata	ENDS
;	COMDAT CONST
CONST	SEGMENT
?_Orphan_all@_Container_base12@std@@QEAAXXZ$rtcName$0 DB 05fH ; std::_Container_base12::_Orphan_all
	DB	04cH
	DB	06fH
	DB	063H
	DB	06bH
	DB	00H
	ORG $+10
?_Orphan_all@_Container_base12@std@@QEAAXXZ$rtcVarDesc DD 024H ; std::_Container_base12::_Orphan_all
	DD	04H
	DQ	FLAT:?_Orphan_all@_Container_base12@std@@QEAAXXZ$rtcName$0
	ORG $+48
?_Orphan_all@_Container_base12@std@@QEAAXXZ$rtcFrameData DD 01H ; std::_Container_base12::_Orphan_all
	DD	00H
	DQ	FLAT:?_Orphan_all@_Container_base12@std@@QEAAXXZ$rtcVarDesc
CONST	ENDS
;	COMDAT xdata
xdata	SEGMENT
$ip2state$??1_Container_base12@std@@QEAA@XZ DD imagerel ??1_Container_base12@std@@QEAA@XZ
	DD	0ffffffffH
xdata	ENDS
;	COMDAT CONST
CONST	SEGMENT
$cppxdata$??1_Container_base12@std@@QEAA@XZ DD 019930522H
	DD	00H
	DD	00H
	DD	00H
	DD	00H
	DD	01H
	DD	imagerel $ip2state$??1_Container_base12@std@@QEAA@XZ
	DD	0e8H
	DD	00H
	DD	05H
CONST	ENDS
;	COMDAT xdata
xdata	SEGMENT
$unwind$??1_Container_base12@std@@QEAA@XZ DD 025053519H
	DD	010e2313H
	DD	070070021H
	DD	05006H
	DD	imagerel __CxxFrameHandler3
	DD	imagerel $cppxdata$??1_Container_base12@std@@QEAA@XZ
xdata	ENDS
;	COMDAT xdata
xdata	SEGMENT
$unwind$??0_Container_base12@std@@QEAA@XZ DD 05052801H
	DD	010e0311H
	DD	070070019H
	DD	05006H
xdata	ENDS
;	COMDAT xdata
xdata	SEGMENT
$unwind$??0_Container_proxy@std@@QEAA@XZ DD 05052801H
	DD	010e0311H
	DD	070070019H
	DD	05006H
xdata	ENDS
;	COMDAT xdata
xdata	SEGMENT
$unwind$?assign@?$char_traits@_W@std@@SAXAEA_WAEB_W@Z DD 05052d01H
	DD	01130316H
	DD	0700c0019H
	DD	0500bH
xdata	ENDS
;	COMDAT xdata
xdata	SEGMENT
$unwind$?move@?$char_traits@_W@std@@SAPEA_WPEA_WPEB_W_K@Z DD 025053401H
	DD	0118231dH
	DD	07011001fH
	DD	05010H
xdata	ENDS
;	COMDAT xdata
xdata	SEGMENT
$unwind$?copy@?$char_traits@_W@std@@SAPEA_WPEA_WPEB_W_K@Z DD 025053401H
	DD	0118231dH
	DD	07011001fH
	DD	05010H
xdata	ENDS
;	COMDAT xdata
xdata	SEGMENT
$unwind$?length@?$char_traits@_W@std@@SA_KPEB_W@Z DD 025052a01H
	DD	010e2313H
	DD	07007001fH
	DD	05006H
xdata	ENDS
;	COMDAT xdata
xdata	SEGMENT
$unwind$??2@YAPEAX_KPEAX@Z DD 05052d01H
	DD	01130316H
	DD	0700c0019H
	DD	0500bH
xdata	ENDS
;	COMDAT xdata
xdata	SEGMENT
$unwind$?acos@@YAMM@Z DD 035052301H
	DD	010f3314H
	DD	07008001fH
	DD	05007H
xdata	ENDS
;	COMDAT xdata
xdata	SEGMENT
$unwind$wmemmove DD 025053401H
	DD	0118231dH
	DD	07011001dH
	DD	05010H
xdata	ENDS
;	COMDAT xdata
xdata	SEGMENT
$unwind$wmemcpy DD 025053401H
	DD	0118231dH
	DD	07011001dH
	DD	05010H
xdata	ENDS
;	COMDAT xdata
xdata	SEGMENT
$unwind$?__empty_global_delete@@YAXPEAX_K@Z DD 05052d01H
	DD	01130316H
	DD	0700c0019H
	DD	0500bH
xdata	ENDS
;	COMDAT xdata
xdata	SEGMENT
$unwind$?__empty_global_delete@@YAXPEAX@Z DD 05052801H
	DD	010e0311H
	DD	070070019H
	DD	05006H
xdata	ENDS
;	COMDAT xdata
xdata	SEGMENT
$unwind$??_H@YAXPEAX_K1P6APEAX0@Z@Z DD 025053901H
	DD	011d2322H
	DD	07016001fH
	DD	05015H
xdata	ENDS
; Function compile flags: /Odtp /RTCsu /ZI
; File c:\program files (x86)\microsoft visual studio 14.0\vc\include\xmemory0
;	COMDAT ??$construct@PEA_WAEAPEA_W@?$allocator@_W@std@@QEAAXPEAPEA_WAEAPEA_W@Z
_TEXT	SEGMENT
$T1 = 200
tv73 = 216
this$ = 256
_Ptr$ = 264
<_Args_0>$ = 272
??$construct@PEA_WAEAPEA_W@?$allocator@_W@std@@QEAAXPEAPEA_WAEAPEA_W@Z PROC ; std::allocator<wchar_t>::construct<wchar_t * __ptr64,wchar_t * __ptr64 & __ptr64>, COMDAT

; 736  : 		{	// construct _Objty(_Types...) at _Ptr

$LN5:
  00000	4c 89 44 24 18	 mov	 QWORD PTR [rsp+24], r8
  00005	48 89 54 24 10	 mov	 QWORD PTR [rsp+16], rdx
  0000a	48 89 4c 24 08	 mov	 QWORD PTR [rsp+8], rcx
  0000f	55		 push	 rbp
  00010	57		 push	 rdi
  00011	48 81 ec 08 01
	00 00		 sub	 rsp, 264		; 00000108H
  00018	48 8d 6c 24 20	 lea	 rbp, QWORD PTR [rsp+32]
  0001d	48 8b fc	 mov	 rdi, rsp
  00020	b9 42 00 00 00	 mov	 ecx, 66			; 00000042H
  00025	b8 cc cc cc cc	 mov	 eax, -858993460		; ccccccccH
  0002a	f3 ab		 rep stosd
  0002c	48 8b 8c 24 28
	01 00 00	 mov	 rcx, QWORD PTR [rsp+296]

; 737  : 		::new ((void *)_Ptr) _Objty(_STD forward<_Types>(_Args)...);

  00034	48 8b 95 08 01
	00 00		 mov	 rdx, QWORD PTR _Ptr$[rbp]
  0003b	b9 08 00 00 00	 mov	 ecx, 8
  00040	e8 00 00 00 00	 call	 ??2@YAPEAX_KPEAX@Z	; operator new
  00045	48 89 85 c8 00
	00 00		 mov	 QWORD PTR $T1[rbp], rax
  0004c	48 83 bd c8 00
	00 00 00	 cmp	 QWORD PTR $T1[rbp], 0
  00054	74 29		 je	 SHORT $LN3@construct
  00056	48 8b 8d 10 01
	00 00		 mov	 rcx, QWORD PTR <_Args_0>$[rbp]
  0005d	e8 00 00 00 00	 call	 ??$forward@AEAPEA_W@std@@YAAEAPEA_WAEAPEA_W@Z ; std::forward<wchar_t * __ptr64 & __ptr64>
  00062	48 8b 8d c8 00
	00 00		 mov	 rcx, QWORD PTR $T1[rbp]
  00069	48 8b 00	 mov	 rax, QWORD PTR [rax]
  0006c	48 89 01	 mov	 QWORD PTR [rcx], rax
  0006f	48 8b 85 c8 00
	00 00		 mov	 rax, QWORD PTR $T1[rbp]
  00076	48 89 85 d8 00
	00 00		 mov	 QWORD PTR tv73[rbp], rax
  0007d	eb 0b		 jmp	 SHORT $LN4@construct
$LN3@construct:
  0007f	48 c7 85 d8 00
	00 00 00 00 00
	00		 mov	 QWORD PTR tv73[rbp], 0
$LN4@construct:

; 738  : 		}

  0008a	48 8d a5 e8 00
	00 00		 lea	 rsp, QWORD PTR [rbp+232]
  00091	5f		 pop	 rdi
  00092	5d		 pop	 rbp
  00093	c3		 ret	 0
??$construct@PEA_WAEAPEA_W@?$allocator@_W@std@@QEAAXPEAPEA_WAEAPEA_W@Z ENDP ; std::allocator<wchar_t>::construct<wchar_t * __ptr64,wchar_t * __ptr64 & __ptr64>
_TEXT	ENDS
; Function compile flags: /Odtp /RTCsu /ZI
; File c:\program files (x86)\microsoft visual studio 14.0\vc\include\xmemory0
;	COMDAT ??$construct@U_Container_proxy@std@@U12@@?$allocator@U_Container_proxy@std@@@std@@QEAAXPEAU_Container_proxy@1@$$QEAU21@@Z
_TEXT	SEGMENT
$T1 = 200
tv74 = 216
this$ = 256
_Ptr$ = 264
<_Args_0>$ = 272
??$construct@U_Container_proxy@std@@U12@@?$allocator@U_Container_proxy@std@@@std@@QEAAXPEAU_Container_proxy@1@$$QEAU21@@Z PROC ; std::allocator<std::_Container_proxy>::construct<std::_Container_proxy,std::_Container_proxy>, COMDAT

; 736  : 		{	// construct _Objty(_Types...) at _Ptr

$LN5:
  00000	4c 89 44 24 18	 mov	 QWORD PTR [rsp+24], r8
  00005	48 89 54 24 10	 mov	 QWORD PTR [rsp+16], rdx
  0000a	48 89 4c 24 08	 mov	 QWORD PTR [rsp+8], rcx
  0000f	55		 push	 rbp
  00010	56		 push	 rsi
  00011	57		 push	 rdi
  00012	48 81 ec 00 01
	00 00		 sub	 rsp, 256		; 00000100H
  00019	48 8d 6c 24 20	 lea	 rbp, QWORD PTR [rsp+32]
  0001e	48 8b fc	 mov	 rdi, rsp
  00021	b9 40 00 00 00	 mov	 ecx, 64			; 00000040H
  00026	b8 cc cc cc cc	 mov	 eax, -858993460		; ccccccccH
  0002b	f3 ab		 rep stosd
  0002d	48 8b 8c 24 28
	01 00 00	 mov	 rcx, QWORD PTR [rsp+296]

; 737  : 		::new ((void *)_Ptr) _Objty(_STD forward<_Types>(_Args)...);

  00035	48 8b 95 08 01
	00 00		 mov	 rdx, QWORD PTR _Ptr$[rbp]
  0003c	b9 10 00 00 00	 mov	 ecx, 16
  00041	e8 00 00 00 00	 call	 ??2@YAPEAX_KPEAX@Z	; operator new
  00046	48 89 85 c8 00
	00 00		 mov	 QWORD PTR $T1[rbp], rax
  0004d	48 83 bd c8 00
	00 00 00	 cmp	 QWORD PTR $T1[rbp], 0
  00055	74 2d		 je	 SHORT $LN3@construct
  00057	48 8b 8d 10 01
	00 00		 mov	 rcx, QWORD PTR <_Args_0>$[rbp]
  0005e	e8 00 00 00 00	 call	 ??$forward@U_Container_proxy@std@@@std@@YA$$QEAU_Container_proxy@0@AEAU10@@Z ; std::forward<std::_Container_proxy>
  00063	48 8b bd c8 00
	00 00		 mov	 rdi, QWORD PTR $T1[rbp]
  0006a	48 8b f0	 mov	 rsi, rax
  0006d	b9 10 00 00 00	 mov	 ecx, 16
  00072	f3 a4		 rep movsb
  00074	48 8b 85 c8 00
	00 00		 mov	 rax, QWORD PTR $T1[rbp]
  0007b	48 89 85 d8 00
	00 00		 mov	 QWORD PTR tv74[rbp], rax
  00082	eb 0b		 jmp	 SHORT $LN4@construct
$LN3@construct:
  00084	48 c7 85 d8 00
	00 00 00 00 00
	00		 mov	 QWORD PTR tv74[rbp], 0
$LN4@construct:

; 738  : 		}

  0008f	48 8d a5 e0 00
	00 00		 lea	 rsp, QWORD PTR [rbp+224]
  00096	5f		 pop	 rdi
  00097	5e		 pop	 rsi
  00098	5d		 pop	 rbp
  00099	c3		 ret	 0
??$construct@U_Container_proxy@std@@U12@@?$allocator@U_Container_proxy@std@@@std@@QEAAXPEAU_Container_proxy@1@$$QEAU21@@Z ENDP ; std::allocator<std::_Container_proxy>::construct<std::_Container_proxy,std::_Container_proxy>
_TEXT	ENDS
; Function compile flags: /Odtp /RTCsu /ZI
; File c:\program files (x86)\microsoft visual studio 14.0\vc\include\xmemory0
;	COMDAT ??$destroy@U_Container_proxy@std@@@?$allocator@U_Container_proxy@std@@@std@@QEAAXPEAU_Container_proxy@1@@Z
_TEXT	SEGMENT
this$ = 224
_Ptr$ = 232
??$destroy@U_Container_proxy@std@@@?$allocator@U_Container_proxy@std@@@std@@QEAAXPEAU_Container_proxy@1@@Z PROC ; std::allocator<std::_Container_proxy>::destroy<std::_Container_proxy>, COMDAT

; 743  : 		{	// destroy object at _Ptr

$LN3:
  00000	48 89 54 24 10	 mov	 QWORD PTR [rsp+16], rdx
  00005	48 89 4c 24 08	 mov	 QWORD PTR [rsp+8], rcx
  0000a	55		 push	 rbp
  0000b	57		 push	 rdi
  0000c	48 81 ec c8 00
	00 00		 sub	 rsp, 200		; 000000c8H
  00013	48 8b ec	 mov	 rbp, rsp
  00016	48 8b fc	 mov	 rdi, rsp
  00019	b9 32 00 00 00	 mov	 ecx, 50			; 00000032H
  0001e	b8 cc cc cc cc	 mov	 eax, -858993460		; ccccccccH
  00023	f3 ab		 rep stosd
  00025	48 8b 8c 24 e8
	00 00 00	 mov	 rcx, QWORD PTR [rsp+232]

; 744  : 		_Ptr->~_Uty();
; 745  : 		}

  0002d	48 8d a5 c8 00
	00 00		 lea	 rsp, QWORD PTR [rbp+200]
  00034	5f		 pop	 rdi
  00035	5d		 pop	 rbp
  00036	c3		 ret	 0
??$destroy@U_Container_proxy@std@@@?$allocator@U_Container_proxy@std@@@std@@QEAAXPEAU_Container_proxy@1@@Z ENDP ; std::allocator<std::_Container_proxy>::destroy<std::_Container_proxy>
_TEXT	ENDS
; Function compile flags: /Odtp /RTCsu /ZI
; File c:\program files (x86)\microsoft visual studio 14.0\vc\include\xmemory0
;	COMDAT ??$destroy@PEA_W@?$allocator@_W@std@@QEAAXPEAPEA_W@Z
_TEXT	SEGMENT
this$ = 224
_Ptr$ = 232
??$destroy@PEA_W@?$allocator@_W@std@@QEAAXPEAPEA_W@Z PROC ; std::allocator<wchar_t>::destroy<wchar_t * __ptr64>, COMDAT

; 743  : 		{	// destroy object at _Ptr

$LN3:
  00000	48 89 54 24 10	 mov	 QWORD PTR [rsp+16], rdx
  00005	48 89 4c 24 08	 mov	 QWORD PTR [rsp+8], rcx
  0000a	55		 push	 rbp
  0000b	57		 push	 rdi
  0000c	48 81 ec c8 00
	00 00		 sub	 rsp, 200		; 000000c8H
  00013	48 8b ec	 mov	 rbp, rsp
  00016	48 8b fc	 mov	 rdi, rsp
  00019	b9 32 00 00 00	 mov	 ecx, 50			; 00000032H
  0001e	b8 cc cc cc cc	 mov	 eax, -858993460		; ccccccccH
  00023	f3 ab		 rep stosd
  00025	48 8b 8c 24 e8
	00 00 00	 mov	 rcx, QWORD PTR [rsp+232]

; 744  : 		_Ptr->~_Uty();
; 745  : 		}

  0002d	48 8d a5 c8 00
	00 00		 lea	 rsp, QWORD PTR [rbp+200]
  00034	5f		 pop	 rdi
  00035	5d		 pop	 rbp
  00036	c3		 ret	 0
??$destroy@PEA_W@?$allocator@_W@std@@QEAAXPEAPEA_W@Z ENDP ; std::allocator<wchar_t>::destroy<wchar_t * __ptr64>
_TEXT	ENDS
; Function compile flags: /Odtp /RTCsu /ZI
; File c:\program files (x86)\microsoft visual studio 14.0\vc\include\xmemory0
;	COMDAT ??$construct@PEA_WAEAPEA_W@?$allocator_traits@V?$allocator@_W@std@@@std@@SAXAEAV?$allocator@_W@1@PEAPEA_WAEAPEA_W@Z
_TEXT	SEGMENT
_Al$ = 224
_Ptr$ = 232
<_Args_0>$ = 240
??$construct@PEA_WAEAPEA_W@?$allocator_traits@V?$allocator@_W@std@@@std@@SAXAEAV?$allocator@_W@1@PEAPEA_WAEAPEA_W@Z PROC ; std::allocator_traits<std::allocator<wchar_t> >::construct<wchar_t * __ptr64,wchar_t * __ptr64 & __ptr64>, COMDAT

; 856  : 		{	// construct _Objty(_Types...) at _Ptr

$LN3:
  00000	4c 89 44 24 18	 mov	 QWORD PTR [rsp+24], r8
  00005	48 89 54 24 10	 mov	 QWORD PTR [rsp+16], rdx
  0000a	48 89 4c 24 08	 mov	 QWORD PTR [rsp+8], rcx
  0000f	55		 push	 rbp
  00010	57		 push	 rdi
  00011	48 81 ec e8 00
	00 00		 sub	 rsp, 232		; 000000e8H
  00018	48 8d 6c 24 20	 lea	 rbp, QWORD PTR [rsp+32]
  0001d	48 8b fc	 mov	 rdi, rsp
  00020	b9 3a 00 00 00	 mov	 ecx, 58			; 0000003aH
  00025	b8 cc cc cc cc	 mov	 eax, -858993460		; ccccccccH
  0002a	f3 ab		 rep stosd
  0002c	48 8b 8c 24 08
	01 00 00	 mov	 rcx, QWORD PTR [rsp+264]

; 857  : 		_Al.construct(_Ptr, _STD forward<_Types>(_Args)...);

  00034	48 8b 8d f0 00
	00 00		 mov	 rcx, QWORD PTR <_Args_0>$[rbp]
  0003b	e8 00 00 00 00	 call	 ??$forward@AEAPEA_W@std@@YAAEAPEA_WAEAPEA_W@Z ; std::forward<wchar_t * __ptr64 & __ptr64>
  00040	4c 8b c0	 mov	 r8, rax
  00043	48 8b 95 e8 00
	00 00		 mov	 rdx, QWORD PTR _Ptr$[rbp]
  0004a	48 8b 8d e0 00
	00 00		 mov	 rcx, QWORD PTR _Al$[rbp]
  00051	e8 00 00 00 00	 call	 ??$construct@PEA_WAEAPEA_W@?$allocator@_W@std@@QEAAXPEAPEA_WAEAPEA_W@Z ; std::allocator<wchar_t>::construct<wchar_t * __ptr64,wchar_t * __ptr64 & __ptr64>

; 858  : 		}

  00056	48 8d a5 c8 00
	00 00		 lea	 rsp, QWORD PTR [rbp+200]
  0005d	5f		 pop	 rdi
  0005e	5d		 pop	 rbp
  0005f	c3		 ret	 0
??$construct@PEA_WAEAPEA_W@?$allocator_traits@V?$allocator@_W@std@@@std@@SAXAEAV?$allocator@_W@1@PEAPEA_WAEAPEA_W@Z ENDP ; std::allocator_traits<std::allocator<wchar_t> >::construct<wchar_t * __ptr64,wchar_t * __ptr64 & __ptr64>
_TEXT	ENDS
; Function compile flags: /Odtp /RTCsu /ZI
; File c:\program files (x86)\microsoft visual studio 14.0\vc\include\type_traits
;	COMDAT ??$forward@AEAPEA_W@std@@YAAEAPEA_WAEAPEA_W@Z
_TEXT	SEGMENT
_Arg$ = 224
??$forward@AEAPEA_W@std@@YAAEAPEA_WAEAPEA_W@Z PROC	; std::forward<wchar_t * __ptr64 & __ptr64>, COMDAT

; 1275 : 	{	// forward an lvalue as either an lvalue or an rvalue

$LN3:
  00000	48 89 4c 24 08	 mov	 QWORD PTR [rsp+8], rcx
  00005	55		 push	 rbp
  00006	57		 push	 rdi
  00007	48 81 ec c8 00
	00 00		 sub	 rsp, 200		; 000000c8H
  0000e	48 8b ec	 mov	 rbp, rsp
  00011	48 8b fc	 mov	 rdi, rsp
  00014	b9 32 00 00 00	 mov	 ecx, 50			; 00000032H
  00019	b8 cc cc cc cc	 mov	 eax, -858993460		; ccccccccH
  0001e	f3 ab		 rep stosd
  00020	48 8b 8c 24 e8
	00 00 00	 mov	 rcx, QWORD PTR [rsp+232]

; 1276 : 	return (static_cast<_Ty&&>(_Arg));

  00028	48 8b 85 e0 00
	00 00		 mov	 rax, QWORD PTR _Arg$[rbp]

; 1277 : 	}

  0002f	48 8d a5 c8 00
	00 00		 lea	 rsp, QWORD PTR [rbp+200]
  00036	5f		 pop	 rdi
  00037	5d		 pop	 rbp
  00038	c3		 ret	 0
??$forward@AEAPEA_W@std@@YAAEAPEA_WAEAPEA_W@Z ENDP	; std::forward<wchar_t * __ptr64 & __ptr64>
_TEXT	ENDS
; Function compile flags: /Odtp /RTCsu /ZI
; File c:\program files (x86)\microsoft visual studio 14.0\vc\include\xmemory0
;	COMDAT ??$?0_W@?$allocator@U_Container_proxy@std@@@std@@QEAA@AEBV?$allocator@_W@1@@Z
_TEXT	SEGMENT
this$ = 224
__formal$ = 232
??$?0_W@?$allocator@U_Container_proxy@std@@@std@@QEAA@AEBV?$allocator@_W@1@@Z PROC ; std::allocator<std::_Container_proxy>::allocator<std::_Container_proxy><wchar_t>, COMDAT

; 709  : 		{	// construct from a related allocator (do nothing)

$LN3:
  00000	48 89 54 24 10	 mov	 QWORD PTR [rsp+16], rdx
  00005	48 89 4c 24 08	 mov	 QWORD PTR [rsp+8], rcx
  0000a	55		 push	 rbp
  0000b	57		 push	 rdi
  0000c	48 81 ec c8 00
	00 00		 sub	 rsp, 200		; 000000c8H
  00013	48 8b ec	 mov	 rbp, rsp
  00016	48 8b fc	 mov	 rdi, rsp
  00019	b9 32 00 00 00	 mov	 ecx, 50			; 00000032H
  0001e	b8 cc cc cc cc	 mov	 eax, -858993460		; ccccccccH
  00023	f3 ab		 rep stosd
  00025	48 8b 8c 24 e8
	00 00 00	 mov	 rcx, QWORD PTR [rsp+232]

; 710  : 		}

  0002d	48 8b 85 e0 00
	00 00		 mov	 rax, QWORD PTR this$[rbp]
  00034	48 8d a5 c8 00
	00 00		 lea	 rsp, QWORD PTR [rbp+200]
  0003b	5f		 pop	 rdi
  0003c	5d		 pop	 rbp
  0003d	c3		 ret	 0
??$?0_W@?$allocator@U_Container_proxy@std@@@std@@QEAA@AEBV?$allocator@_W@1@@Z ENDP ; std::allocator<std::_Container_proxy>::allocator<std::_Container_proxy><wchar_t>
_TEXT	ENDS
; Function compile flags: /Odtp /RTCsu /ZI
; File c:\program files (x86)\microsoft visual studio 14.0\vc\include\type_traits
;	COMDAT ??$forward@AEAU?$_Wrap_alloc@V?$allocator@_W@std@@@std@@@std@@YAAEAU?$_Wrap_alloc@V?$allocator@_W@std@@@0@AEAU10@@Z
_TEXT	SEGMENT
_Arg$ = 224
??$forward@AEAU?$_Wrap_alloc@V?$allocator@_W@std@@@std@@@std@@YAAEAU?$_Wrap_alloc@V?$allocator@_W@std@@@0@AEAU10@@Z PROC ; std::forward<std::_Wrap_alloc<std::allocator<wchar_t> > & __ptr64>, COMDAT

; 1275 : 	{	// forward an lvalue as either an lvalue or an rvalue

$LN3:
  00000	48 89 4c 24 08	 mov	 QWORD PTR [rsp+8], rcx
  00005	55		 push	 rbp
  00006	57		 push	 rdi
  00007	48 81 ec c8 00
	00 00		 sub	 rsp, 200		; 000000c8H
  0000e	48 8b ec	 mov	 rbp, rsp
  00011	48 8b fc	 mov	 rdi, rsp
  00014	b9 32 00 00 00	 mov	 ecx, 50			; 00000032H
  00019	b8 cc cc cc cc	 mov	 eax, -858993460		; ccccccccH
  0001e	f3 ab		 rep stosd
  00020	48 8b 8c 24 e8
	00 00 00	 mov	 rcx, QWORD PTR [rsp+232]

; 1276 : 	return (static_cast<_Ty&&>(_Arg));

  00028	48 8b 85 e0 00
	00 00		 mov	 rax, QWORD PTR _Arg$[rbp]

; 1277 : 	}

  0002f	48 8d a5 c8 00
	00 00		 lea	 rsp, QWORD PTR [rbp+200]
  00036	5f		 pop	 rdi
  00037	5d		 pop	 rbp
  00038	c3		 ret	 0
??$forward@AEAU?$_Wrap_alloc@V?$allocator@_W@std@@@std@@@std@@YAAEAU?$_Wrap_alloc@V?$allocator@_W@std@@@0@AEAU10@@Z ENDP ; std::forward<std::_Wrap_alloc<std::allocator<wchar_t> > & __ptr64>
_TEXT	ENDS
; Function compile flags: /Odtp /RTCsu /ZI
; File c:\program files (x86)\microsoft visual studio 14.0\vc\include\xmemory0
;	COMDAT ??$construct@U_Container_proxy@std@@U12@@?$allocator_traits@V?$allocator@U_Container_proxy@std@@@std@@@std@@SAXAEAV?$allocator@U_Container_proxy@std@@@1@PEAU_Container_proxy@1@$$QEAU31@@Z
_TEXT	SEGMENT
_Al$ = 224
_Ptr$ = 232
<_Args_0>$ = 240
??$construct@U_Container_proxy@std@@U12@@?$allocator_traits@V?$allocator@U_Container_proxy@std@@@std@@@std@@SAXAEAV?$allocator@U_Container_proxy@std@@@1@PEAU_Container_proxy@1@$$QEAU31@@Z PROC ; std::allocator_traits<std::allocator<std::_Container_proxy> >::construct<std::_Container_proxy,std::_Container_proxy>, COMDAT

; 856  : 		{	// construct _Objty(_Types...) at _Ptr

$LN3:
  00000	4c 89 44 24 18	 mov	 QWORD PTR [rsp+24], r8
  00005	48 89 54 24 10	 mov	 QWORD PTR [rsp+16], rdx
  0000a	48 89 4c 24 08	 mov	 QWORD PTR [rsp+8], rcx
  0000f	55		 push	 rbp
  00010	57		 push	 rdi
  00011	48 81 ec e8 00
	00 00		 sub	 rsp, 232		; 000000e8H
  00018	48 8d 6c 24 20	 lea	 rbp, QWORD PTR [rsp+32]
  0001d	48 8b fc	 mov	 rdi, rsp
  00020	b9 3a 00 00 00	 mov	 ecx, 58			; 0000003aH
  00025	b8 cc cc cc cc	 mov	 eax, -858993460		; ccccccccH
  0002a	f3 ab		 rep stosd
  0002c	48 8b 8c 24 08
	01 00 00	 mov	 rcx, QWORD PTR [rsp+264]

; 857  : 		_Al.construct(_Ptr, _STD forward<_Types>(_Args)...);

  00034	48 8b 8d f0 00
	00 00		 mov	 rcx, QWORD PTR <_Args_0>$[rbp]
  0003b	e8 00 00 00 00	 call	 ??$forward@U_Container_proxy@std@@@std@@YA$$QEAU_Container_proxy@0@AEAU10@@Z ; std::forward<std::_Container_proxy>
  00040	4c 8b c0	 mov	 r8, rax
  00043	48 8b 95 e8 00
	00 00		 mov	 rdx, QWORD PTR _Ptr$[rbp]
  0004a	48 8b 8d e0 00
	00 00		 mov	 rcx, QWORD PTR _Al$[rbp]
  00051	e8 00 00 00 00	 call	 ??$construct@U_Container_proxy@std@@U12@@?$allocator@U_Container_proxy@std@@@std@@QEAAXPEAU_Container_proxy@1@$$QEAU21@@Z ; std::allocator<std::_Container_proxy>::construct<std::_Container_proxy,std::_Container_proxy>

; 858  : 		}

  00056	48 8d a5 c8 00
	00 00		 lea	 rsp, QWORD PTR [rbp+200]
  0005d	5f		 pop	 rdi
  0005e	5d		 pop	 rbp
  0005f	c3		 ret	 0
??$construct@U_Container_proxy@std@@U12@@?$allocator_traits@V?$allocator@U_Container_proxy@std@@@std@@@std@@SAXAEAV?$allocator@U_Container_proxy@std@@@1@PEAU_Container_proxy@1@$$QEAU31@@Z ENDP ; std::allocator_traits<std::allocator<std::_Container_proxy> >::construct<std::_Container_proxy,std::_Container_proxy>
_TEXT	ENDS
; Function compile flags: /Odtp /RTCsu /ZI
; File c:\program files (x86)\microsoft visual studio 14.0\vc\include\type_traits
;	COMDAT ??$forward@U_Container_proxy@std@@@std@@YA$$QEAU_Container_proxy@0@AEAU10@@Z
_TEXT	SEGMENT
_Arg$ = 224
??$forward@U_Container_proxy@std@@@std@@YA$$QEAU_Container_proxy@0@AEAU10@@Z PROC ; std::forward<std::_Container_proxy>, COMDAT

; 1275 : 	{	// forward an lvalue as either an lvalue or an rvalue

$LN3:
  00000	48 89 4c 24 08	 mov	 QWORD PTR [rsp+8], rcx
  00005	55		 push	 rbp
  00006	57		 push	 rdi
  00007	48 81 ec c8 00
	00 00		 sub	 rsp, 200		; 000000c8H
  0000e	48 8b ec	 mov	 rbp, rsp
  00011	48 8b fc	 mov	 rdi, rsp
  00014	b9 32 00 00 00	 mov	 ecx, 50			; 00000032H
  00019	b8 cc cc cc cc	 mov	 eax, -858993460		; ccccccccH
  0001e	f3 ab		 rep stosd
  00020	48 8b 8c 24 e8
	00 00 00	 mov	 rcx, QWORD PTR [rsp+232]

; 1276 : 	return (static_cast<_Ty&&>(_Arg));

  00028	48 8b 85 e0 00
	00 00		 mov	 rax, QWORD PTR _Arg$[rbp]

; 1277 : 	}

  0002f	48 8d a5 c8 00
	00 00		 lea	 rsp, QWORD PTR [rbp+200]
  00036	5f		 pop	 rdi
  00037	5d		 pop	 rbp
  00038	c3		 ret	 0
??$forward@U_Container_proxy@std@@@std@@YA$$QEAU_Container_proxy@0@AEAU10@@Z ENDP ; std::forward<std::_Container_proxy>
_TEXT	ENDS
; Function compile flags: /Odtp /RTCsu /ZI
; File c:\program files (x86)\microsoft visual studio 14.0\vc\include\xmemory0
;	COMDAT ??$destroy@U_Container_proxy@std@@@?$allocator_traits@V?$allocator@U_Container_proxy@std@@@std@@@std@@SAXAEAV?$allocator@U_Container_proxy@std@@@1@PEAU_Container_proxy@1@@Z
_TEXT	SEGMENT
_Al$ = 224
_Ptr$ = 232
??$destroy@U_Container_proxy@std@@@?$allocator_traits@V?$allocator@U_Container_proxy@std@@@std@@@std@@SAXAEAV?$allocator@U_Container_proxy@std@@@1@PEAU_Container_proxy@1@@Z PROC ; std::allocator_traits<std::allocator<std::_Container_proxy> >::destroy<std::_Container_proxy>, COMDAT

; 863  : 		{	// destroy object at _Ptr

$LN3:
  00000	48 89 54 24 10	 mov	 QWORD PTR [rsp+16], rdx
  00005	48 89 4c 24 08	 mov	 QWORD PTR [rsp+8], rcx
  0000a	55		 push	 rbp
  0000b	57		 push	 rdi
  0000c	48 81 ec e8 00
	00 00		 sub	 rsp, 232		; 000000e8H
  00013	48 8d 6c 24 20	 lea	 rbp, QWORD PTR [rsp+32]
  00018	48 8b fc	 mov	 rdi, rsp
  0001b	b9 3a 00 00 00	 mov	 ecx, 58			; 0000003aH
  00020	b8 cc cc cc cc	 mov	 eax, -858993460		; ccccccccH
  00025	f3 ab		 rep stosd
  00027	48 8b 8c 24 08
	01 00 00	 mov	 rcx, QWORD PTR [rsp+264]

; 864  : 		_Al.destroy(_Ptr);

  0002f	48 8b 95 e8 00
	00 00		 mov	 rdx, QWORD PTR _Ptr$[rbp]
  00036	48 8b 8d e0 00
	00 00		 mov	 rcx, QWORD PTR _Al$[rbp]
  0003d	e8 00 00 00 00	 call	 ??$destroy@U_Container_proxy@std@@@?$allocator@U_Container_proxy@std@@@std@@QEAAXPEAU_Container_proxy@1@@Z ; std::allocator<std::_Container_proxy>::destroy<std::_Container_proxy>

; 865  : 		}

  00042	48 8d a5 c8 00
	00 00		 lea	 rsp, QWORD PTR [rbp+200]
  00049	5f		 pop	 rdi
  0004a	5d		 pop	 rbp
  0004b	c3		 ret	 0
??$destroy@U_Container_proxy@std@@@?$allocator_traits@V?$allocator@U_Container_proxy@std@@@std@@@std@@SAXAEAV?$allocator@U_Container_proxy@std@@@1@PEAU_Container_proxy@1@@Z ENDP ; std::allocator_traits<std::allocator<std::_Container_proxy> >::destroy<std::_Container_proxy>
_TEXT	ENDS
; Function compile flags: /Odtp /RTCsu /ZI
; File c:\program files (x86)\microsoft visual studio 14.0\vc\include\xmemory0
;	COMDAT ??$destroy@PEA_W@?$allocator_traits@V?$allocator@_W@std@@@std@@SAXAEAV?$allocator@_W@1@PEAPEA_W@Z
_TEXT	SEGMENT
_Al$ = 224
_Ptr$ = 232
??$destroy@PEA_W@?$allocator_traits@V?$allocator@_W@std@@@std@@SAXAEAV?$allocator@_W@1@PEAPEA_W@Z PROC ; std::allocator_traits<std::allocator<wchar_t> >::destroy<wchar_t * __ptr64>, COMDAT

; 863  : 		{	// destroy object at _Ptr

$LN3:
  00000	48 89 54 24 10	 mov	 QWORD PTR [rsp+16], rdx
  00005	48 89 4c 24 08	 mov	 QWORD PTR [rsp+8], rcx
  0000a	55		 push	 rbp
  0000b	57		 push	 rdi
  0000c	48 81 ec e8 00
	00 00		 sub	 rsp, 232		; 000000e8H
  00013	48 8d 6c 24 20	 lea	 rbp, QWORD PTR [rsp+32]
  00018	48 8b fc	 mov	 rdi, rsp
  0001b	b9 3a 00 00 00	 mov	 ecx, 58			; 0000003aH
  00020	b8 cc cc cc cc	 mov	 eax, -858993460		; ccccccccH
  00025	f3 ab		 rep stosd
  00027	48 8b 8c 24 08
	01 00 00	 mov	 rcx, QWORD PTR [rsp+264]

; 864  : 		_Al.destroy(_Ptr);

  0002f	48 8b 95 e8 00
	00 00		 mov	 rdx, QWORD PTR _Ptr$[rbp]
  00036	48 8b 8d e0 00
	00 00		 mov	 rcx, QWORD PTR _Al$[rbp]
  0003d	e8 00 00 00 00	 call	 ??$destroy@PEA_W@?$allocator@_W@std@@QEAAXPEAPEA_W@Z ; std::allocator<wchar_t>::destroy<wchar_t * __ptr64>

; 865  : 		}

  00042	48 8d a5 c8 00
	00 00		 lea	 rsp, QWORD PTR [rbp+200]
  00049	5f		 pop	 rdi
  0004a	5d		 pop	 rbp
  0004b	c3		 ret	 0
??$destroy@PEA_W@?$allocator_traits@V?$allocator@_W@std@@@std@@SAXAEAV?$allocator@_W@1@PEAPEA_W@Z ENDP ; std::allocator_traits<std::allocator<wchar_t> >::destroy<wchar_t * __ptr64>
_TEXT	ENDS
; Function compile flags: /Odtp /RTCsu /ZI
; File c:\program files (x86)\microsoft visual studio 14.0\vc\include\xstddef
;	COMDAT ??$addressof@U_Container_proxy@std@@@std@@YAPEAU_Container_proxy@0@AEAU10@@Z
_TEXT	SEGMENT
_Val$ = 224
??$addressof@U_Container_proxy@std@@@std@@YAPEAU_Container_proxy@0@AEAU10@@Z PROC ; std::addressof<std::_Container_proxy>, COMDAT

; 724  : 	{	// return address of _Val

$LN3:
  00000	48 89 4c 24 08	 mov	 QWORD PTR [rsp+8], rcx
  00005	55		 push	 rbp
  00006	57		 push	 rdi
  00007	48 81 ec c8 00
	00 00		 sub	 rsp, 200		; 000000c8H
  0000e	48 8b ec	 mov	 rbp, rsp
  00011	48 8b fc	 mov	 rdi, rsp
  00014	b9 32 00 00 00	 mov	 ecx, 50			; 00000032H
  00019	b8 cc cc cc cc	 mov	 eax, -858993460		; ccccccccH
  0001e	f3 ab		 rep stosd
  00020	48 8b 8c 24 e8
	00 00 00	 mov	 rcx, QWORD PTR [rsp+232]

; 725  : 	return (__builtin_addressof(_Val));

  00028	48 8b 85 e0 00
	00 00		 mov	 rax, QWORD PTR _Val$[rbp]

; 726  : 	}

  0002f	48 8d a5 c8 00
	00 00		 lea	 rsp, QWORD PTR [rbp+200]
  00036	5f		 pop	 rdi
  00037	5d		 pop	 rbp
  00038	c3		 ret	 0
??$addressof@U_Container_proxy@std@@@std@@YAPEAU_Container_proxy@0@AEAU10@@Z ENDP ; std::addressof<std::_Container_proxy>
_TEXT	ENDS
; Function compile flags: /Odtp /RTCsu /ZI
; File c:\program files (x86)\microsoft visual studio 14.0\vc\include\xmemory0
;	COMDAT ?pointer_to@?$pointer_traits@PEAU_Container_proxy@std@@@std@@SAPEAU_Container_proxy@2@AEAU32@@Z
_TEXT	SEGMENT
_Val$ = 224
?pointer_to@?$pointer_traits@PEAU_Container_proxy@std@@@std@@SAPEAU_Container_proxy@2@AEAU32@@Z PROC ; std::pointer_traits<std::_Container_proxy * __ptr64>::pointer_to, COMDAT

; 279  : 		{	// convert raw reference to pointer

$LN3:
  00000	48 89 4c 24 08	 mov	 QWORD PTR [rsp+8], rcx
  00005	55		 push	 rbp
  00006	57		 push	 rdi
  00007	48 81 ec e8 00
	00 00		 sub	 rsp, 232		; 000000e8H
  0000e	48 8d 6c 24 20	 lea	 rbp, QWORD PTR [rsp+32]
  00013	48 8b fc	 mov	 rdi, rsp
  00016	b9 3a 00 00 00	 mov	 ecx, 58			; 0000003aH
  0001b	b8 cc cc cc cc	 mov	 eax, -858993460		; ccccccccH
  00020	f3 ab		 rep stosd
  00022	48 8b 8c 24 08
	01 00 00	 mov	 rcx, QWORD PTR [rsp+264]

; 280  : 		return (_STD addressof(_Val));

  0002a	48 8b 8d e0 00
	00 00		 mov	 rcx, QWORD PTR _Val$[rbp]
  00031	e8 00 00 00 00	 call	 ??$addressof@U_Container_proxy@std@@@std@@YAPEAU_Container_proxy@0@AEAU10@@Z ; std::addressof<std::_Container_proxy>

; 281  : 		}

  00036	48 8d a5 c8 00
	00 00		 lea	 rsp, QWORD PTR [rbp+200]
  0003d	5f		 pop	 rdi
  0003e	5d		 pop	 rbp
  0003f	c3		 ret	 0
?pointer_to@?$pointer_traits@PEAU_Container_proxy@std@@@std@@SAPEAU_Container_proxy@2@AEAU32@@Z ENDP ; std::pointer_traits<std::_Container_proxy * __ptr64>::pointer_to
_TEXT	ENDS
; Function compile flags: /Odtp /RTCsu /ZI
; File c:\program files (x86)\microsoft visual studio 14.0\vc\include\xmemory0
;	COMDAT ??$construct@PEA_WAEAPEA_W@?$_Wrap_alloc@V?$allocator@_W@std@@@std@@QEAAXPEAPEA_WAEAPEA_W@Z
_TEXT	SEGMENT
this$ = 224
_Ptr$ = 232
<_Args_0>$ = 240
??$construct@PEA_WAEAPEA_W@?$_Wrap_alloc@V?$allocator@_W@std@@@std@@QEAAXPEAPEA_WAEAPEA_W@Z PROC ; std::_Wrap_alloc<std::allocator<wchar_t> >::construct<wchar_t * __ptr64,wchar_t * __ptr64 & __ptr64>, COMDAT

; 994  : 		{	// construct _Ty(_Types...) at _Ptr

$LN3:
  00000	4c 89 44 24 18	 mov	 QWORD PTR [rsp+24], r8
  00005	48 89 54 24 10	 mov	 QWORD PTR [rsp+16], rdx
  0000a	48 89 4c 24 08	 mov	 QWORD PTR [rsp+8], rcx
  0000f	55		 push	 rbp
  00010	57		 push	 rdi
  00011	48 81 ec e8 00
	00 00		 sub	 rsp, 232		; 000000e8H
  00018	48 8d 6c 24 20	 lea	 rbp, QWORD PTR [rsp+32]
  0001d	48 8b fc	 mov	 rdi, rsp
  00020	b9 3a 00 00 00	 mov	 ecx, 58			; 0000003aH
  00025	b8 cc cc cc cc	 mov	 eax, -858993460		; ccccccccH
  0002a	f3 ab		 rep stosd
  0002c	48 8b 8c 24 08
	01 00 00	 mov	 rcx, QWORD PTR [rsp+264]

; 995  : 		_Mytraits::construct(*this, _Ptr,

  00034	48 8b 8d f0 00
	00 00		 mov	 rcx, QWORD PTR <_Args_0>$[rbp]
  0003b	e8 00 00 00 00	 call	 ??$forward@AEAPEA_W@std@@YAAEAPEA_WAEAPEA_W@Z ; std::forward<wchar_t * __ptr64 & __ptr64>
  00040	4c 8b c0	 mov	 r8, rax
  00043	48 8b 95 e8 00
	00 00		 mov	 rdx, QWORD PTR _Ptr$[rbp]
  0004a	48 8b 8d e0 00
	00 00		 mov	 rcx, QWORD PTR this$[rbp]
  00051	e8 00 00 00 00	 call	 ??$construct@PEA_WAEAPEA_W@?$allocator_traits@V?$allocator@_W@std@@@std@@SAXAEAV?$allocator@_W@1@PEAPEA_WAEAPEA_W@Z ; std::allocator_traits<std::allocator<wchar_t> >::construct<wchar_t * __ptr64,wchar_t * __ptr64 & __ptr64>

; 996  : 			_STD forward<_Types>(_Args)...);
; 997  : 		}

  00056	48 8d a5 c8 00
	00 00		 lea	 rsp, QWORD PTR [rbp+200]
  0005d	5f		 pop	 rdi
  0005e	5d		 pop	 rbp
  0005f	c3		 ret	 0
??$construct@PEA_WAEAPEA_W@?$_Wrap_alloc@V?$allocator@_W@std@@@std@@QEAAXPEAPEA_WAEAPEA_W@Z ENDP ; std::_Wrap_alloc<std::allocator<wchar_t> >::construct<wchar_t * __ptr64,wchar_t * __ptr64 & __ptr64>
_TEXT	ENDS
; Function compile flags: /Odtp /RTCsu /ZI
; File c:\program files (x86)\microsoft visual studio 14.0\vc\include\xmemory0
;	COMDAT ??$?0AEAU?$_Wrap_alloc@V?$allocator@_W@std@@@std@@@?$_Wrap_alloc@V?$allocator@U_Container_proxy@std@@@std@@@std@@QEAA@AEAU?$_Wrap_alloc@V?$allocator@_W@std@@@1@@Z
_TEXT	SEGMENT
this$ = 224
_Right$ = 232
??$?0AEAU?$_Wrap_alloc@V?$allocator@_W@std@@@std@@@?$_Wrap_alloc@V?$allocator@U_Container_proxy@std@@@std@@@std@@QEAA@AEAU?$_Wrap_alloc@V?$allocator@_W@std@@@1@@Z PROC ; std::_Wrap_alloc<std::allocator<std::_Container_proxy> >::_Wrap_alloc<std::allocator<std::_Container_proxy> ><std::_Wrap_alloc<std::allocator<wchar_t> > & __ptr64>, COMDAT

; 952  : 		{	// construct from a related allocator

$LN3:
  00000	48 89 54 24 10	 mov	 QWORD PTR [rsp+16], rdx
  00005	48 89 4c 24 08	 mov	 QWORD PTR [rsp+8], rcx
  0000a	55		 push	 rbp
  0000b	57		 push	 rdi
  0000c	48 81 ec e8 00
	00 00		 sub	 rsp, 232		; 000000e8H
  00013	48 8d 6c 24 20	 lea	 rbp, QWORD PTR [rsp+32]
  00018	48 8b fc	 mov	 rdi, rsp
  0001b	b9 3a 00 00 00	 mov	 ecx, 58			; 0000003aH
  00020	b8 cc cc cc cc	 mov	 eax, -858993460		; ccccccccH
  00025	f3 ab		 rep stosd
  00027	48 8b 8c 24 08
	01 00 00	 mov	 rcx, QWORD PTR [rsp+264]

; 951  : 		: _Mybase(_STD forward<_Other>(_Right))

  0002f	48 8b 8d e8 00
	00 00		 mov	 rcx, QWORD PTR _Right$[rbp]
  00036	e8 00 00 00 00	 call	 ??$forward@AEAU?$_Wrap_alloc@V?$allocator@_W@std@@@std@@@std@@YAAEAU?$_Wrap_alloc@V?$allocator@_W@std@@@0@AEAU10@@Z ; std::forward<std::_Wrap_alloc<std::allocator<wchar_t> > & __ptr64>
  0003b	48 8b d0	 mov	 rdx, rax
  0003e	48 8b 8d e0 00
	00 00		 mov	 rcx, QWORD PTR this$[rbp]
  00045	e8 00 00 00 00	 call	 ??$?0_W@?$allocator@U_Container_proxy@std@@@std@@QEAA@AEBV?$allocator@_W@1@@Z ; std::allocator<std::_Container_proxy>::allocator<std::_Container_proxy><wchar_t>

; 953  : 		}

  0004a	48 8b 85 e0 00
	00 00		 mov	 rax, QWORD PTR this$[rbp]
  00051	48 8d a5 c8 00
	00 00		 lea	 rsp, QWORD PTR [rbp+200]
  00058	5f		 pop	 rdi
  00059	5d		 pop	 rbp
  0005a	c3		 ret	 0
??$?0AEAU?$_Wrap_alloc@V?$allocator@_W@std@@@std@@@?$_Wrap_alloc@V?$allocator@U_Container_proxy@std@@@std@@@std@@QEAA@AEAU?$_Wrap_alloc@V?$allocator@_W@std@@@1@@Z ENDP ; std::_Wrap_alloc<std::allocator<std::_Container_proxy> >::_Wrap_alloc<std::allocator<std::_Container_proxy> ><std::_Wrap_alloc<std::allocator<wchar_t> > & __ptr64>
_TEXT	ENDS
; Function compile flags: /Odtp /RTCsu /ZI
; File c:\program files (x86)\microsoft visual studio 14.0\vc\include\xmemory0
;	COMDAT ??$construct@U_Container_proxy@std@@U12@@?$_Wrap_alloc@V?$allocator@U_Container_proxy@std@@@std@@@std@@QEAAXPEAU_Container_proxy@1@$$QEAU21@@Z
_TEXT	SEGMENT
this$ = 224
_Ptr$ = 232
<_Args_0>$ = 240
??$construct@U_Container_proxy@std@@U12@@?$_Wrap_alloc@V?$allocator@U_Container_proxy@std@@@std@@@std@@QEAAXPEAU_Container_proxy@1@$$QEAU21@@Z PROC ; std::_Wrap_alloc<std::allocator<std::_Container_proxy> >::construct<std::_Container_proxy,std::_Container_proxy>, COMDAT

; 994  : 		{	// construct _Ty(_Types...) at _Ptr

$LN3:
  00000	4c 89 44 24 18	 mov	 QWORD PTR [rsp+24], r8
  00005	48 89 54 24 10	 mov	 QWORD PTR [rsp+16], rdx
  0000a	48 89 4c 24 08	 mov	 QWORD PTR [rsp+8], rcx
  0000f	55		 push	 rbp
  00010	57		 push	 rdi
  00011	48 81 ec e8 00
	00 00		 sub	 rsp, 232		; 000000e8H
  00018	48 8d 6c 24 20	 lea	 rbp, QWORD PTR [rsp+32]
  0001d	48 8b fc	 mov	 rdi, rsp
  00020	b9 3a 00 00 00	 mov	 ecx, 58			; 0000003aH
  00025	b8 cc cc cc cc	 mov	 eax, -858993460		; ccccccccH
  0002a	f3 ab		 rep stosd
  0002c	48 8b 8c 24 08
	01 00 00	 mov	 rcx, QWORD PTR [rsp+264]

; 995  : 		_Mytraits::construct(*this, _Ptr,

  00034	48 8b 8d f0 00
	00 00		 mov	 rcx, QWORD PTR <_Args_0>$[rbp]
  0003b	e8 00 00 00 00	 call	 ??$forward@U_Container_proxy@std@@@std@@YA$$QEAU_Container_proxy@0@AEAU10@@Z ; std::forward<std::_Container_proxy>
  00040	4c 8b c0	 mov	 r8, rax
  00043	48 8b 95 e8 00
	00 00		 mov	 rdx, QWORD PTR _Ptr$[rbp]
  0004a	48 8b 8d e0 00
	00 00		 mov	 rcx, QWORD PTR this$[rbp]
  00051	e8 00 00 00 00	 call	 ??$construct@U_Container_proxy@std@@U12@@?$allocator_traits@V?$allocator@U_Container_proxy@std@@@std@@@std@@SAXAEAV?$allocator@U_Container_proxy@std@@@1@PEAU_Container_proxy@1@$$QEAU31@@Z ; std::allocator_traits<std::allocator<std::_Container_proxy> >::construct<std::_Container_proxy,std::_Container_proxy>

; 996  : 			_STD forward<_Types>(_Args)...);
; 997  : 		}

  00056	48 8d a5 c8 00
	00 00		 lea	 rsp, QWORD PTR [rbp+200]
  0005d	5f		 pop	 rdi
  0005e	5d		 pop	 rbp
  0005f	c3		 ret	 0
??$construct@U_Container_proxy@std@@U12@@?$_Wrap_alloc@V?$allocator@U_Container_proxy@std@@@std@@@std@@QEAAXPEAU_Container_proxy@1@$$QEAU21@@Z ENDP ; std::_Wrap_alloc<std::allocator<std::_Container_proxy> >::construct<std::_Container_proxy,std::_Container_proxy>
_TEXT	ENDS
; Function compile flags: /Odtp /RTCsu /ZI
; File c:\program files (x86)\microsoft visual studio 14.0\vc\include\xstddef
;	COMDAT ??$_Unfancy@U_Container_proxy@std@@@std@@YAPEAU_Container_proxy@0@PEAU10@@Z
_TEXT	SEGMENT
_Ptr$ = 224
??$_Unfancy@U_Container_proxy@std@@@std@@YAPEAU_Container_proxy@0@PEAU10@@Z PROC ; std::_Unfancy<std::_Container_proxy>, COMDAT

; 739  : 	{	// do nothing for plain pointers

$LN3:
  00000	48 89 4c 24 08	 mov	 QWORD PTR [rsp+8], rcx
  00005	55		 push	 rbp
  00006	57		 push	 rdi
  00007	48 81 ec c8 00
	00 00		 sub	 rsp, 200		; 000000c8H
  0000e	48 8b ec	 mov	 rbp, rsp
  00011	48 8b fc	 mov	 rdi, rsp
  00014	b9 32 00 00 00	 mov	 ecx, 50			; 00000032H
  00019	b8 cc cc cc cc	 mov	 eax, -858993460		; ccccccccH
  0001e	f3 ab		 rep stosd
  00020	48 8b 8c 24 e8
	00 00 00	 mov	 rcx, QWORD PTR [rsp+232]

; 740  : 	return (_Ptr);

  00028	48 8b 85 e0 00
	00 00		 mov	 rax, QWORD PTR _Ptr$[rbp]

; 741  : 	}

  0002f	48 8d a5 c8 00
	00 00		 lea	 rsp, QWORD PTR [rbp+200]
  00036	5f		 pop	 rdi
  00037	5d		 pop	 rbp
  00038	c3		 ret	 0
??$_Unfancy@U_Container_proxy@std@@@std@@YAPEAU_Container_proxy@0@PEAU10@@Z ENDP ; std::_Unfancy<std::_Container_proxy>
_TEXT	ENDS
; Function compile flags: /Odtp /RTCsu /ZI
; File c:\program files (x86)\microsoft visual studio 14.0\vc\include\xmemory0
;	COMDAT ??$destroy@U_Container_proxy@std@@@?$_Wrap_alloc@V?$allocator@U_Container_proxy@std@@@std@@@std@@QEAAXPEAU_Container_proxy@1@@Z
_TEXT	SEGMENT
this$ = 224
_Ptr$ = 232
??$destroy@U_Container_proxy@std@@@?$_Wrap_alloc@V?$allocator@U_Container_proxy@std@@@std@@@std@@QEAAXPEAU_Container_proxy@1@@Z PROC ; std::_Wrap_alloc<std::allocator<std::_Container_proxy> >::destroy<std::_Container_proxy>, COMDAT

; 1002 : 		{	// destroy object at _Ptr

$LN3:
  00000	48 89 54 24 10	 mov	 QWORD PTR [rsp+16], rdx
  00005	48 89 4c 24 08	 mov	 QWORD PTR [rsp+8], rcx
  0000a	55		 push	 rbp
  0000b	57		 push	 rdi
  0000c	48 81 ec e8 00
	00 00		 sub	 rsp, 232		; 000000e8H
  00013	48 8d 6c 24 20	 lea	 rbp, QWORD PTR [rsp+32]
  00018	48 8b fc	 mov	 rdi, rsp
  0001b	b9 3a 00 00 00	 mov	 ecx, 58			; 0000003aH
  00020	b8 cc cc cc cc	 mov	 eax, -858993460		; ccccccccH
  00025	f3 ab		 rep stosd
  00027	48 8b 8c 24 08
	01 00 00	 mov	 rcx, QWORD PTR [rsp+264]

; 1003 : 		_Mytraits::destroy(*this, _Ptr);

  0002f	48 8b 95 e8 00
	00 00		 mov	 rdx, QWORD PTR _Ptr$[rbp]
  00036	48 8b 8d e0 00
	00 00		 mov	 rcx, QWORD PTR this$[rbp]
  0003d	e8 00 00 00 00	 call	 ??$destroy@U_Container_proxy@std@@@?$allocator_traits@V?$allocator@U_Container_proxy@std@@@std@@@std@@SAXAEAV?$allocator@U_Container_proxy@std@@@1@PEAU_Container_proxy@1@@Z ; std::allocator_traits<std::allocator<std::_Container_proxy> >::destroy<std::_Container_proxy>

; 1004 : 		}

  00042	48 8d a5 c8 00
	00 00		 lea	 rsp, QWORD PTR [rbp+200]
  00049	5f		 pop	 rdi
  0004a	5d		 pop	 rbp
  0004b	c3		 ret	 0
??$destroy@U_Container_proxy@std@@@?$_Wrap_alloc@V?$allocator@U_Container_proxy@std@@@std@@@std@@QEAAXPEAU_Container_proxy@1@@Z ENDP ; std::_Wrap_alloc<std::allocator<std::_Container_proxy> >::destroy<std::_Container_proxy>
_TEXT	ENDS
; Function compile flags: /Odtp /RTCsu /ZI
; File c:\program files (x86)\microsoft visual studio 14.0\vc\include\xmemory0
;	COMDAT ?deallocate@?$_Wrap_alloc@V?$allocator@U_Container_proxy@std@@@std@@@std@@QEAAXPEAU_Container_proxy@2@_K@Z
_TEXT	SEGMENT
this$ = 224
_Ptr$ = 232
_Count$ = 240
?deallocate@?$_Wrap_alloc@V?$allocator@U_Container_proxy@std@@@std@@@std@@QEAAXPEAU_Container_proxy@2@_K@Z PROC ; std::_Wrap_alloc<std::allocator<std::_Container_proxy> >::deallocate, COMDAT

; 986  : 		{	// deallocate object at _Ptr, ignore size

$LN3:
  00000	4c 89 44 24 18	 mov	 QWORD PTR [rsp+24], r8
  00005	48 89 54 24 10	 mov	 QWORD PTR [rsp+16], rdx
  0000a	48 89 4c 24 08	 mov	 QWORD PTR [rsp+8], rcx
  0000f	55		 push	 rbp
  00010	57		 push	 rdi
  00011	48 81 ec e8 00
	00 00		 sub	 rsp, 232		; 000000e8H
  00018	48 8d 6c 24 20	 lea	 rbp, QWORD PTR [rsp+32]
  0001d	48 8b fc	 mov	 rdi, rsp
  00020	b9 3a 00 00 00	 mov	 ecx, 58			; 0000003aH
  00025	b8 cc cc cc cc	 mov	 eax, -858993460		; ccccccccH
  0002a	f3 ab		 rep stosd
  0002c	48 8b 8c 24 08
	01 00 00	 mov	 rcx, QWORD PTR [rsp+264]

; 987  : 		_Mybase::deallocate(_Ptr, _Count);

  00034	4c 8b 85 f0 00
	00 00		 mov	 r8, QWORD PTR _Count$[rbp]
  0003b	48 8b 95 e8 00
	00 00		 mov	 rdx, QWORD PTR _Ptr$[rbp]
  00042	48 8b 8d e0 00
	00 00		 mov	 rcx, QWORD PTR this$[rbp]
  00049	e8 00 00 00 00	 call	 ?deallocate@?$allocator@U_Container_proxy@std@@@std@@QEAAXPEAU_Container_proxy@2@_K@Z ; std::allocator<std::_Container_proxy>::deallocate

; 988  : 		}

  0004e	48 8d a5 c8 00
	00 00		 lea	 rsp, QWORD PTR [rbp+200]
  00055	5f		 pop	 rdi
  00056	5d		 pop	 rbp
  00057	c3		 ret	 0
?deallocate@?$_Wrap_alloc@V?$allocator@U_Container_proxy@std@@@std@@@std@@QEAAXPEAU_Container_proxy@2@_K@Z ENDP ; std::_Wrap_alloc<std::allocator<std::_Container_proxy> >::deallocate
_TEXT	ENDS
; Function compile flags: /Odtp /RTCsu /ZI
; File c:\program files (x86)\microsoft visual studio 14.0\vc\include\xmemory0
;	COMDAT ?allocate@?$_Wrap_alloc@V?$allocator@U_Container_proxy@std@@@std@@@std@@QEAAPEAU_Container_proxy@2@_K@Z
_TEXT	SEGMENT
this$ = 224
_Count$ = 232
?allocate@?$_Wrap_alloc@V?$allocator@U_Container_proxy@std@@@std@@@std@@QEAAPEAU_Container_proxy@2@_K@Z PROC ; std::_Wrap_alloc<std::allocator<std::_Container_proxy> >::allocate, COMDAT

; 975  : 		{	// allocate array of _Count elements

$LN3:
  00000	48 89 54 24 10	 mov	 QWORD PTR [rsp+16], rdx
  00005	48 89 4c 24 08	 mov	 QWORD PTR [rsp+8], rcx
  0000a	55		 push	 rbp
  0000b	57		 push	 rdi
  0000c	48 81 ec e8 00
	00 00		 sub	 rsp, 232		; 000000e8H
  00013	48 8d 6c 24 20	 lea	 rbp, QWORD PTR [rsp+32]
  00018	48 8b fc	 mov	 rdi, rsp
  0001b	b9 3a 00 00 00	 mov	 ecx, 58			; 0000003aH
  00020	b8 cc cc cc cc	 mov	 eax, -858993460		; ccccccccH
  00025	f3 ab		 rep stosd
  00027	48 8b 8c 24 08
	01 00 00	 mov	 rcx, QWORD PTR [rsp+264]

; 976  : 		return (_Mybase::allocate(_Count));

  0002f	48 8b 95 e8 00
	00 00		 mov	 rdx, QWORD PTR _Count$[rbp]
  00036	48 8b 8d e0 00
	00 00		 mov	 rcx, QWORD PTR this$[rbp]
  0003d	e8 00 00 00 00	 call	 ?allocate@?$allocator@U_Container_proxy@std@@@std@@QEAAPEAU_Container_proxy@2@_K@Z ; std::allocator<std::_Container_proxy>::allocate

; 977  : 		}

  00042	48 8d a5 c8 00
	00 00		 lea	 rsp, QWORD PTR [rbp+200]
  00049	5f		 pop	 rdi
  0004a	5d		 pop	 rbp
  0004b	c3		 ret	 0
?allocate@?$_Wrap_alloc@V?$allocator@U_Container_proxy@std@@@std@@@std@@QEAAPEAU_Container_proxy@2@_K@Z ENDP ; std::_Wrap_alloc<std::allocator<std::_Container_proxy> >::allocate
_TEXT	ENDS
; Function compile flags: /Odtp /RTCsu /ZI
; File c:\program files (x86)\microsoft visual studio 14.0\vc\include\xmemory0
;	COMDAT ?address@?$_Wrap_alloc@V?$allocator@U_Container_proxy@std@@@std@@@std@@QEBAPEAU_Container_proxy@2@AEAU32@@Z
_TEXT	SEGMENT
this$ = 224
_Val$ = 232
?address@?$_Wrap_alloc@V?$allocator@U_Container_proxy@std@@@std@@@std@@QEBAPEAU_Container_proxy@2@AEAU32@@Z PROC ; std::_Wrap_alloc<std::allocator<std::_Container_proxy> >::address, COMDAT

; 925  : 		{	// return address of mutable _Val

$LN3:
  00000	48 89 54 24 10	 mov	 QWORD PTR [rsp+16], rdx
  00005	48 89 4c 24 08	 mov	 QWORD PTR [rsp+8], rcx
  0000a	55		 push	 rbp
  0000b	57		 push	 rdi
  0000c	48 81 ec e8 00
	00 00		 sub	 rsp, 232		; 000000e8H
  00013	48 8d 6c 24 20	 lea	 rbp, QWORD PTR [rsp+32]
  00018	48 8b fc	 mov	 rdi, rsp
  0001b	b9 3a 00 00 00	 mov	 ecx, 58			; 0000003aH
  00020	b8 cc cc cc cc	 mov	 eax, -858993460		; ccccccccH
  00025	f3 ab		 rep stosd
  00027	48 8b 8c 24 08
	01 00 00	 mov	 rcx, QWORD PTR [rsp+264]

; 926  : 		return (pointer_traits<pointer>::pointer_to(_Val));

  0002f	48 8b 8d e8 00
	00 00		 mov	 rcx, QWORD PTR _Val$[rbp]
  00036	e8 00 00 00 00	 call	 ?pointer_to@?$pointer_traits@PEAU_Container_proxy@std@@@std@@SAPEAU_Container_proxy@2@AEAU32@@Z ; std::pointer_traits<std::_Container_proxy * __ptr64>::pointer_to

; 927  : 		}

  0003b	48 8d a5 c8 00
	00 00		 lea	 rsp, QWORD PTR [rbp+200]
  00042	5f		 pop	 rdi
  00043	5d		 pop	 rbp
  00044	c3		 ret	 0
?address@?$_Wrap_alloc@V?$allocator@U_Container_proxy@std@@@std@@@std@@QEBAPEAU_Container_proxy@2@AEAU32@@Z ENDP ; std::_Wrap_alloc<std::allocator<std::_Container_proxy> >::address
_TEXT	ENDS
; Function compile flags: /Odtp /RTCsu /ZI
; File c:\program files (x86)\microsoft visual studio 14.0\vc\include\xmemory0
;	COMDAT ?allocate@?$allocator@U_Container_proxy@std@@@std@@QEAAPEAU_Container_proxy@2@_K@Z
_TEXT	SEGMENT
this$ = 224
_Count$ = 232
?allocate@?$allocator@U_Container_proxy@std@@@std@@QEAAPEAU_Container_proxy@2@_K@Z PROC ; std::allocator<std::_Container_proxy>::allocate, COMDAT

; 724  : 		{	// allocate array of _Count elements

$LN3:
  00000	48 89 54 24 10	 mov	 QWORD PTR [rsp+16], rdx
  00005	48 89 4c 24 08	 mov	 QWORD PTR [rsp+8], rcx
  0000a	55		 push	 rbp
  0000b	57		 push	 rdi
  0000c	48 81 ec e8 00
	00 00		 sub	 rsp, 232		; 000000e8H
  00013	48 8d 6c 24 20	 lea	 rbp, QWORD PTR [rsp+32]
  00018	48 8b fc	 mov	 rdi, rsp
  0001b	b9 3a 00 00 00	 mov	 ecx, 58			; 0000003aH
  00020	b8 cc cc cc cc	 mov	 eax, -858993460		; ccccccccH
  00025	f3 ab		 rep stosd
  00027	48 8b 8c 24 08
	01 00 00	 mov	 rcx, QWORD PTR [rsp+264]

; 725  : 		return (static_cast<pointer>(_Allocate(_Count, sizeof (_Ty))));

  0002f	41 b0 01	 mov	 r8b, 1
  00032	ba 10 00 00 00	 mov	 edx, 16
  00037	48 8b 8d e8 00
	00 00		 mov	 rcx, QWORD PTR _Count$[rbp]
  0003e	e8 00 00 00 00	 call	 ?_Allocate@std@@YAPEAX_K0_N@Z ; std::_Allocate

; 726  : 		}

  00043	48 8d a5 c8 00
	00 00		 lea	 rsp, QWORD PTR [rbp+200]
  0004a	5f		 pop	 rdi
  0004b	5d		 pop	 rbp
  0004c	c3		 ret	 0
?allocate@?$allocator@U_Container_proxy@std@@@std@@QEAAPEAU_Container_proxy@2@_K@Z ENDP ; std::allocator<std::_Container_proxy>::allocate
_TEXT	ENDS
; Function compile flags: /Odtp /RTCsu /ZI
; File c:\program files (x86)\microsoft visual studio 14.0\vc\include\xmemory0
;	COMDAT ?deallocate@?$allocator@U_Container_proxy@std@@@std@@QEAAXPEAU_Container_proxy@2@_K@Z
_TEXT	SEGMENT
this$ = 224
_Ptr$ = 232
_Count$ = 240
?deallocate@?$allocator@U_Container_proxy@std@@@std@@QEAAXPEAU_Container_proxy@2@_K@Z PROC ; std::allocator<std::_Container_proxy>::deallocate, COMDAT

; 719  : 		{	// deallocate object at _Ptr

$LN3:
  00000	4c 89 44 24 18	 mov	 QWORD PTR [rsp+24], r8
  00005	48 89 54 24 10	 mov	 QWORD PTR [rsp+16], rdx
  0000a	48 89 4c 24 08	 mov	 QWORD PTR [rsp+8], rcx
  0000f	55		 push	 rbp
  00010	57		 push	 rdi
  00011	48 81 ec e8 00
	00 00		 sub	 rsp, 232		; 000000e8H
  00018	48 8d 6c 24 20	 lea	 rbp, QWORD PTR [rsp+32]
  0001d	48 8b fc	 mov	 rdi, rsp
  00020	b9 3a 00 00 00	 mov	 ecx, 58			; 0000003aH
  00025	b8 cc cc cc cc	 mov	 eax, -858993460		; ccccccccH
  0002a	f3 ab		 rep stosd
  0002c	48 8b 8c 24 08
	01 00 00	 mov	 rcx, QWORD PTR [rsp+264]

; 720  : 		_Deallocate(_Ptr, _Count, sizeof (_Ty));

  00034	41 b8 10 00 00
	00		 mov	 r8d, 16
  0003a	48 8b 95 f0 00
	00 00		 mov	 rdx, QWORD PTR _Count$[rbp]
  00041	48 8b 8d e8 00
	00 00		 mov	 rcx, QWORD PTR _Ptr$[rbp]
  00048	e8 00 00 00 00	 call	 ?_Deallocate@std@@YAXPEAX_K1@Z ; std::_Deallocate

; 721  : 		}

  0004d	48 8d a5 c8 00
	00 00		 lea	 rsp, QWORD PTR [rbp+200]
  00054	5f		 pop	 rdi
  00055	5d		 pop	 rbp
  00056	c3		 ret	 0
?deallocate@?$allocator@U_Container_proxy@std@@@std@@QEAAXPEAU_Container_proxy@2@_K@Z ENDP ; std::allocator<std::_Container_proxy>::deallocate
_TEXT	ENDS
; Function compile flags: /Odtp /RTCsu /ZI
; File c:\program files (x86)\microsoft visual studio 14.0\vc\include\xutility
;	COMDAT ??$_Debug_pointer_if@$$CB_W@std@@YAX_NPEB_W1I@Z
_TEXT	SEGMENT
_Test$ = 224
_Ptr$ = 232
_File$ = 240
_Line$ = 248
??$_Debug_pointer_if@$$CB_W@std@@YAX_NPEB_W1I@Z PROC	; std::_Debug_pointer_if<wchar_t const >, COMDAT

; 937  : 	{	// conditionally test pointer for non-singularity, pointers

$LN4:
  00000	44 89 4c 24 20	 mov	 DWORD PTR [rsp+32], r9d
  00005	4c 89 44 24 18	 mov	 QWORD PTR [rsp+24], r8
  0000a	48 89 54 24 10	 mov	 QWORD PTR [rsp+16], rdx
  0000f	88 4c 24 08	 mov	 BYTE PTR [rsp+8], cl
  00013	55		 push	 rbp
  00014	57		 push	 rdi
  00015	48 81 ec e8 00
	00 00		 sub	 rsp, 232		; 000000e8H
  0001c	48 8d 6c 24 20	 lea	 rbp, QWORD PTR [rsp+32]
  00021	48 8b fc	 mov	 rdi, rsp
  00024	b9 3a 00 00 00	 mov	 ecx, 58			; 0000003aH
  00029	b8 cc cc cc cc	 mov	 eax, -858993460		; ccccccccH
  0002e	f3 ab		 rep stosd
  00030	0f b6 8c 24 08
	01 00 00	 movzx	 ecx, BYTE PTR [rsp+264]

; 938  : 	if (_Test && _Ptr == 0)

  00038	0f b6 85 e0 00
	00 00		 movzx	 eax, BYTE PTR _Test$[rbp]
  0003f	85 c0		 test	 eax, eax
  00041	74 25		 je	 SHORT $LN2@Debug_poin
  00043	48 83 bd e8 00
	00 00 00	 cmp	 QWORD PTR _Ptr$[rbp], 0
  0004b	75 1b		 jne	 SHORT $LN2@Debug_poin

; 939  : 		_DEBUG_ERROR2("invalid null pointer", _File, _Line);

  0004d	44 8b 85 f8 00
	00 00		 mov	 r8d, DWORD PTR _Line$[rbp]
  00054	48 8b 95 f0 00
	00 00		 mov	 rdx, QWORD PTR _File$[rbp]
  0005b	48 8d 0d 00 00
	00 00		 lea	 rcx, OFFSET FLAT:??_C@_1CK@EOPGIILJ@?$AAi?$AAn?$AAv?$AAa?$AAl?$AAi?$AAd?$AA?5?$AAn?$AAu?$AAl?$AAl?$AA?5?$AAp?$AAo?$AAi?$AAn?$AAt?$AAe?$AAr?$AA?$AA@
  00062	ff 15 00 00 00
	00		 call	 QWORD PTR __imp_?_Debug_message@std@@YAXPEB_W0I@Z
$LN2@Debug_poin:

; 940  : 	}

  00068	48 8d a5 c8 00
	00 00		 lea	 rsp, QWORD PTR [rbp+200]
  0006f	5f		 pop	 rdi
  00070	5d		 pop	 rbp
  00071	c3		 ret	 0
??$_Debug_pointer_if@$$CB_W@std@@YAX_NPEB_W1I@Z ENDP	; std::_Debug_pointer_if<wchar_t const >
_TEXT	ENDS
; Function compile flags: /Odtp /RTCsu /ZI
; File c:\program files (x86)\microsoft visual studio 14.0\vc\include\xutility
;	COMDAT ??$_Debug_pointer@$$CB_W@std@@YAXPEB_W0I@Z
_TEXT	SEGMENT
_Ptr$ = 224
_File$ = 232
_Line$ = 240
??$_Debug_pointer@$$CB_W@std@@YAXPEB_W0I@Z PROC		; std::_Debug_pointer<wchar_t const >, COMDAT

; 923  : 	{	// test pointer for non-singularity, pointers

$LN4:
  00000	44 89 44 24 18	 mov	 DWORD PTR [rsp+24], r8d
  00005	48 89 54 24 10	 mov	 QWORD PTR [rsp+16], rdx
  0000a	48 89 4c 24 08	 mov	 QWORD PTR [rsp+8], rcx
  0000f	55		 push	 rbp
  00010	57		 push	 rdi
  00011	48 81 ec e8 00
	00 00		 sub	 rsp, 232		; 000000e8H
  00018	48 8d 6c 24 20	 lea	 rbp, QWORD PTR [rsp+32]
  0001d	48 8b fc	 mov	 rdi, rsp
  00020	b9 3a 00 00 00	 mov	 ecx, 58			; 0000003aH
  00025	b8 cc cc cc cc	 mov	 eax, -858993460		; ccccccccH
  0002a	f3 ab		 rep stosd
  0002c	48 8b 8c 24 08
	01 00 00	 mov	 rcx, QWORD PTR [rsp+264]

; 924  : 	if (_Ptr == 0)

  00034	48 83 bd e0 00
	00 00 00	 cmp	 QWORD PTR _Ptr$[rbp], 0
  0003c	75 1b		 jne	 SHORT $LN2@Debug_poin

; 925  : 		_DEBUG_ERROR2("invalid null pointer", _File, _Line);

  0003e	44 8b 85 f0 00
	00 00		 mov	 r8d, DWORD PTR _Line$[rbp]
  00045	48 8b 95 e8 00
	00 00		 mov	 rdx, QWORD PTR _File$[rbp]
  0004c	48 8d 0d 00 00
	00 00		 lea	 rcx, OFFSET FLAT:??_C@_1CK@EOPGIILJ@?$AAi?$AAn?$AAv?$AAa?$AAl?$AAi?$AAd?$AA?5?$AAn?$AAu?$AAl?$AAl?$AA?5?$AAp?$AAo?$AAi?$AAn?$AAt?$AAe?$AAr?$AA?$AA@
  00053	ff 15 00 00 00
	00		 call	 QWORD PTR __imp_?_Debug_message@std@@YAXPEB_W0I@Z
$LN2@Debug_poin:

; 926  : 	}

  00059	48 8d a5 c8 00
	00 00		 lea	 rsp, QWORD PTR [rbp+200]
  00060	5f		 pop	 rdi
  00061	5d		 pop	 rbp
  00062	c3		 ret	 0
??$_Debug_pointer@$$CB_W@std@@YAXPEB_W0I@Z ENDP		; std::_Debug_pointer<wchar_t const >
_TEXT	ENDS
; Function compile flags: /Odtp /RTCsu /ZI
; File c:\program files (x86)\microsoft visual studio 14.0\vc\include\xstddef
;	COMDAT ??$_Unfancy@_W@std@@YAPEA_WPEA_W@Z
_TEXT	SEGMENT
_Ptr$ = 224
??$_Unfancy@_W@std@@YAPEA_WPEA_W@Z PROC			; std::_Unfancy<wchar_t>, COMDAT

; 739  : 	{	// do nothing for plain pointers

$LN3:
  00000	48 89 4c 24 08	 mov	 QWORD PTR [rsp+8], rcx
  00005	55		 push	 rbp
  00006	57		 push	 rdi
  00007	48 81 ec c8 00
	00 00		 sub	 rsp, 200		; 000000c8H
  0000e	48 8b ec	 mov	 rbp, rsp
  00011	48 8b fc	 mov	 rdi, rsp
  00014	b9 32 00 00 00	 mov	 ecx, 50			; 00000032H
  00019	b8 cc cc cc cc	 mov	 eax, -858993460		; ccccccccH
  0001e	f3 ab		 rep stosd
  00020	48 8b 8c 24 e8
	00 00 00	 mov	 rcx, QWORD PTR [rsp+232]

; 740  : 	return (_Ptr);

  00028	48 8b 85 e0 00
	00 00		 mov	 rax, QWORD PTR _Ptr$[rbp]

; 741  : 	}

  0002f	48 8d a5 c8 00
	00 00		 lea	 rsp, QWORD PTR [rbp+200]
  00036	5f		 pop	 rdi
  00037	5d		 pop	 rbp
  00038	c3		 ret	 0
??$_Unfancy@_W@std@@YAPEA_WPEA_W@Z ENDP			; std::_Unfancy<wchar_t>
_TEXT	ENDS
; Function compile flags: /Odtp /RTCsu /ZI
; File c:\program files (x86)\microsoft visual studio 14.0\vc\include\xmemory0
;	COMDAT ??$destroy@PEA_W@?$_Wrap_alloc@V?$allocator@_W@std@@@std@@QEAAXPEAPEA_W@Z
_TEXT	SEGMENT
this$ = 224
_Ptr$ = 232
??$destroy@PEA_W@?$_Wrap_alloc@V?$allocator@_W@std@@@std@@QEAAXPEAPEA_W@Z PROC ; std::_Wrap_alloc<std::allocator<wchar_t> >::destroy<wchar_t * __ptr64>, COMDAT

; 1002 : 		{	// destroy object at _Ptr

$LN3:
  00000	48 89 54 24 10	 mov	 QWORD PTR [rsp+16], rdx
  00005	48 89 4c 24 08	 mov	 QWORD PTR [rsp+8], rcx
  0000a	55		 push	 rbp
  0000b	57		 push	 rdi
  0000c	48 81 ec e8 00
	00 00		 sub	 rsp, 232		; 000000e8H
  00013	48 8d 6c 24 20	 lea	 rbp, QWORD PTR [rsp+32]
  00018	48 8b fc	 mov	 rdi, rsp
  0001b	b9 3a 00 00 00	 mov	 ecx, 58			; 0000003aH
  00020	b8 cc cc cc cc	 mov	 eax, -858993460		; ccccccccH
  00025	f3 ab		 rep stosd
  00027	48 8b 8c 24 08
	01 00 00	 mov	 rcx, QWORD PTR [rsp+264]

; 1003 : 		_Mytraits::destroy(*this, _Ptr);

  0002f	48 8b 95 e8 00
	00 00		 mov	 rdx, QWORD PTR _Ptr$[rbp]
  00036	48 8b 8d e0 00
	00 00		 mov	 rcx, QWORD PTR this$[rbp]
  0003d	e8 00 00 00 00	 call	 ??$destroy@PEA_W@?$allocator_traits@V?$allocator@_W@std@@@std@@SAXAEAV?$allocator@_W@1@PEAPEA_W@Z ; std::allocator_traits<std::allocator<wchar_t> >::destroy<wchar_t * __ptr64>

; 1004 : 		}

  00042	48 8d a5 c8 00
	00 00		 lea	 rsp, QWORD PTR [rbp+200]
  00049	5f		 pop	 rdi
  0004a	5d		 pop	 rbp
  0004b	c3		 ret	 0
??$destroy@PEA_W@?$_Wrap_alloc@V?$allocator@_W@std@@@std@@QEAAXPEAPEA_W@Z ENDP ; std::_Wrap_alloc<std::allocator<wchar_t> >::destroy<wchar_t * __ptr64>
_TEXT	ENDS
; Function compile flags: /Odtp /RTCsu /ZI
; File c:\program files (x86)\microsoft visual studio 14.0\vc\include\xstddef
;	COMDAT ??$addressof@PEA_W@std@@YAPEAPEA_WAEAPEA_W@Z
_TEXT	SEGMENT
_Val$ = 224
??$addressof@PEA_W@std@@YAPEAPEA_WAEAPEA_W@Z PROC	; std::addressof<wchar_t * __ptr64>, COMDAT

; 724  : 	{	// return address of _Val

$LN3:
  00000	48 89 4c 24 08	 mov	 QWORD PTR [rsp+8], rcx
  00005	55		 push	 rbp
  00006	57		 push	 rdi
  00007	48 81 ec c8 00
	00 00		 sub	 rsp, 200		; 000000c8H
  0000e	48 8b ec	 mov	 rbp, rsp
  00011	48 8b fc	 mov	 rdi, rsp
  00014	b9 32 00 00 00	 mov	 ecx, 50			; 00000032H
  00019	b8 cc cc cc cc	 mov	 eax, -858993460		; ccccccccH
  0001e	f3 ab		 rep stosd
  00020	48 8b 8c 24 e8
	00 00 00	 mov	 rcx, QWORD PTR [rsp+232]

; 725  : 	return (__builtin_addressof(_Val));

  00028	48 8b 85 e0 00
	00 00		 mov	 rax, QWORD PTR _Val$[rbp]

; 726  : 	}

  0002f	48 8d a5 c8 00
	00 00		 lea	 rsp, QWORD PTR [rbp+200]
  00036	5f		 pop	 rdi
  00037	5d		 pop	 rbp
  00038	c3		 ret	 0
??$addressof@PEA_W@std@@YAPEAPEA_WAEAPEA_W@Z ENDP	; std::addressof<wchar_t * __ptr64>
_TEXT	ENDS
; Function compile flags: /Odtp /RTCsu /ZI
; File c:\program files (x86)\microsoft visual studio 14.0\vc\include\xutility
;	COMDAT ??$?0$$V@?$_Compressed_pair@U?$_Wrap_alloc@V?$allocator@_W@std@@@std@@V?$_String_val@U?$_Simple_types@_W@std@@@2@$00@std@@QEAA@U_Zero_then_variadic_args_t@1@@Z
_TEXT	SEGMENT
this$ = 224
__formal$ = 232
??$?0$$V@?$_Compressed_pair@U?$_Wrap_alloc@V?$allocator@_W@std@@@std@@V?$_String_val@U?$_Simple_types@_W@std@@@2@$00@std@@QEAA@U_Zero_then_variadic_args_t@1@@Z PROC ; std::_Compressed_pair<std::_Wrap_alloc<std::allocator<wchar_t> >,std::_String_val<std::_Simple_types<wchar_t> >,1>::_Compressed_pair<std::_Wrap_alloc<std::allocator<wchar_t> >,std::_String_val<std::_Simple_types<wchar_t> >,1><>, COMDAT

; 280  : 		{	// construct from forwarded values

$LN4:
  00000	88 54 24 10	 mov	 BYTE PTR [rsp+16], dl
  00004	48 89 4c 24 08	 mov	 QWORD PTR [rsp+8], rcx
  00009	55		 push	 rbp
  0000a	57		 push	 rdi
  0000b	48 81 ec e8 00
	00 00		 sub	 rsp, 232		; 000000e8H
  00012	48 8d 6c 24 20	 lea	 rbp, QWORD PTR [rsp+32]
  00017	48 8b fc	 mov	 rdi, rsp
  0001a	b9 3a 00 00 00	 mov	 ecx, 58			; 0000003aH
  0001f	b8 cc cc cc cc	 mov	 eax, -858993460		; ccccccccH
  00024	f3 ab		 rep stosd
  00026	48 8b 8c 24 08
	01 00 00	 mov	 rcx, QWORD PTR [rsp+264]

; 279  : 		: _Ty1(), _Myval2(_STD forward<_Other2>(_Val2)...)

  0002e	48 8b 8d e0 00
	00 00		 mov	 rcx, QWORD PTR this$[rbp]
  00035	e8 00 00 00 00	 call	 ??0?$_Wrap_alloc@V?$allocator@_W@std@@@std@@QEAA@XZ ; std::_Wrap_alloc<std::allocator<wchar_t> >::_Wrap_alloc<std::allocator<wchar_t> >
  0003a	48 8b 85 e0 00
	00 00		 mov	 rax, QWORD PTR this$[rbp]
  00041	48 8b c8	 mov	 rcx, rax
  00044	e8 00 00 00 00	 call	 ??0?$_String_val@U?$_Simple_types@_W@std@@@std@@QEAA@XZ ; std::_String_val<std::_Simple_types<wchar_t> >::_String_val<std::_Simple_types<wchar_t> >

; 281  : 		}

  00049	48 8b 85 e0 00
	00 00		 mov	 rax, QWORD PTR this$[rbp]
  00050	48 8d a5 c8 00
	00 00		 lea	 rsp, QWORD PTR [rbp+200]
  00057	5f		 pop	 rdi
  00058	5d		 pop	 rbp
  00059	c3		 ret	 0
??$?0$$V@?$_Compressed_pair@U?$_Wrap_alloc@V?$allocator@_W@std@@@std@@V?$_String_val@U?$_Simple_types@_W@std@@@2@$00@std@@QEAA@U_Zero_then_variadic_args_t@1@@Z ENDP ; std::_Compressed_pair<std::_Wrap_alloc<std::allocator<wchar_t> >,std::_String_val<std::_Simple_types<wchar_t> >,1>::_Compressed_pair<std::_Wrap_alloc<std::allocator<wchar_t> >,std::_String_val<std::_Simple_types<wchar_t> >,1><>
_TEXT	ENDS
; Function compile flags: /Odtp /RTCsu /ZI
; File c:\github\framework\reference\headers\engine_template.h
;	COMDAT ??$Safe_Release@PEAVCShader@Engine@@@Engine@@YAKAEAPEAVCShader@0@@Z
_TEXT	SEGMENT
dwRefCnt$ = 4
classType$ = 256
??$Safe_Release@PEAVCShader@Engine@@@Engine@@YAKAEAPEAVCShader@0@@Z PROC ; Engine::Safe_Release<Engine::CShader * __ptr64>, COMDAT

; 18   : 	{

$LN5:
  00000	48 89 4c 24 08	 mov	 QWORD PTR [rsp+8], rcx
  00005	55		 push	 rbp
  00006	57		 push	 rdi
  00007	48 81 ec 08 01
	00 00		 sub	 rsp, 264		; 00000108H
  0000e	48 8d 6c 24 20	 lea	 rbp, QWORD PTR [rsp+32]
  00013	48 8b fc	 mov	 rdi, rsp
  00016	b9 42 00 00 00	 mov	 ecx, 66			; 00000042H
  0001b	b8 cc cc cc cc	 mov	 eax, -858993460		; ccccccccH
  00020	f3 ab		 rep stosd
  00022	48 8b 8c 24 28
	01 00 00	 mov	 rcx, QWORD PTR [rsp+296]

; 19   : 		unsigned long dwRefCnt = 0;

  0002a	c7 45 04 00 00
	00 00		 mov	 DWORD PTR dwRefCnt$[rbp], 0

; 20   : 
; 21   : 		if (nullptr != classType)

  00031	48 8b 85 00 01
	00 00		 mov	 rax, QWORD PTR classType$[rbp]
  00038	48 83 38 00	 cmp	 QWORD PTR [rax], 0
  0003c	74 27		 je	 SHORT $LN2@Safe_Relea

; 22   : 		{
; 23   : 			dwRefCnt = classType->Release();

  0003e	48 8b 85 00 01
	00 00		 mov	 rax, QWORD PTR classType$[rbp]
  00045	48 8b 08	 mov	 rcx, QWORD PTR [rax]
  00048	ff 15 00 00 00
	00		 call	 QWORD PTR __imp_?Release@CBase@Engine@@QEAAKXZ
  0004e	89 45 04	 mov	 DWORD PTR dwRefCnt$[rbp], eax

; 24   : 
; 25   : 			if (0 == dwRefCnt)

  00051	83 7d 04 00	 cmp	 DWORD PTR dwRefCnt$[rbp], 0
  00055	75 0e		 jne	 SHORT $LN3@Safe_Relea

; 26   : 			{
; 27   : 				classType = nullptr;

  00057	48 8b 85 00 01
	00 00		 mov	 rax, QWORD PTR classType$[rbp]
  0005e	48 c7 00 00 00
	00 00		 mov	 QWORD PTR [rax], 0
$LN3@Safe_Relea:
$LN2@Safe_Relea:

; 28   : 			}
; 29   : 		}
; 30   : 
; 31   : 		return dwRefCnt;

  00065	8b 45 04	 mov	 eax, DWORD PTR dwRefCnt$[rbp]

; 32   : 	}

  00068	48 8d a5 e8 00
	00 00		 lea	 rsp, QWORD PTR [rbp+232]
  0006f	5f		 pop	 rdi
  00070	5d		 pop	 rbp
  00071	c3		 ret	 0
??$Safe_Release@PEAVCShader@Engine@@@Engine@@YAKAEAPEAVCShader@0@@Z ENDP ; Engine::Safe_Release<Engine::CShader * __ptr64>
_TEXT	ENDS
; Function compile flags: /Odtp /RTCsu /ZI
; File c:\github\framework\reference\headers\engine_template.h
;	COMDAT ??$Safe_Release@PEAVCModel@Engine@@@Engine@@YAKAEAPEAVCModel@0@@Z
_TEXT	SEGMENT
dwRefCnt$ = 4
classType$ = 256
??$Safe_Release@PEAVCModel@Engine@@@Engine@@YAKAEAPEAVCModel@0@@Z PROC ; Engine::Safe_Release<Engine::CModel * __ptr64>, COMDAT

; 18   : 	{

$LN5:
  00000	48 89 4c 24 08	 mov	 QWORD PTR [rsp+8], rcx
  00005	55		 push	 rbp
  00006	57		 push	 rdi
  00007	48 81 ec 08 01
	00 00		 sub	 rsp, 264		; 00000108H
  0000e	48 8d 6c 24 20	 lea	 rbp, QWORD PTR [rsp+32]
  00013	48 8b fc	 mov	 rdi, rsp
  00016	b9 42 00 00 00	 mov	 ecx, 66			; 00000042H
  0001b	b8 cc cc cc cc	 mov	 eax, -858993460		; ccccccccH
  00020	f3 ab		 rep stosd
  00022	48 8b 8c 24 28
	01 00 00	 mov	 rcx, QWORD PTR [rsp+296]

; 19   : 		unsigned long dwRefCnt = 0;

  0002a	c7 45 04 00 00
	00 00		 mov	 DWORD PTR dwRefCnt$[rbp], 0

; 20   : 
; 21   : 		if (nullptr != classType)

  00031	48 8b 85 00 01
	00 00		 mov	 rax, QWORD PTR classType$[rbp]
  00038	48 83 38 00	 cmp	 QWORD PTR [rax], 0
  0003c	74 27		 je	 SHORT $LN2@Safe_Relea

; 22   : 		{
; 23   : 			dwRefCnt = classType->Release();

  0003e	48 8b 85 00 01
	00 00		 mov	 rax, QWORD PTR classType$[rbp]
  00045	48 8b 08	 mov	 rcx, QWORD PTR [rax]
  00048	ff 15 00 00 00
	00		 call	 QWORD PTR __imp_?Release@CBase@Engine@@QEAAKXZ
  0004e	89 45 04	 mov	 DWORD PTR dwRefCnt$[rbp], eax

; 24   : 
; 25   : 			if (0 == dwRefCnt)

  00051	83 7d 04 00	 cmp	 DWORD PTR dwRefCnt$[rbp], 0
  00055	75 0e		 jne	 SHORT $LN3@Safe_Relea

; 26   : 			{
; 27   : 				classType = nullptr;

  00057	48 8b 85 00 01
	00 00		 mov	 rax, QWORD PTR classType$[rbp]
  0005e	48 c7 00 00 00
	00 00		 mov	 QWORD PTR [rax], 0
$LN3@Safe_Relea:
$LN2@Safe_Relea:

; 28   : 			}
; 29   : 		}
; 30   : 
; 31   : 		return dwRefCnt;

  00065	8b 45 04	 mov	 eax, DWORD PTR dwRefCnt$[rbp]

; 32   : 	}

  00068	48 8d a5 e8 00
	00 00		 lea	 rsp, QWORD PTR [rbp+232]
  0006f	5f		 pop	 rdi
  00070	5d		 pop	 rbp
  00071	c3		 ret	 0
??$Safe_Release@PEAVCModel@Engine@@@Engine@@YAKAEAPEAVCModel@0@@Z ENDP ; Engine::Safe_Release<Engine::CModel * __ptr64>
_TEXT	ENDS
; Function compile flags: /Odtp /RTCsu /ZI
; File c:\github\framework\reference\headers\engine_template.h
;	COMDAT ??$Safe_Release@PEAVCTransform@Engine@@@Engine@@YAKAEAPEAVCTransform@0@@Z
_TEXT	SEGMENT
dwRefCnt$ = 4
classType$ = 256
??$Safe_Release@PEAVCTransform@Engine@@@Engine@@YAKAEAPEAVCTransform@0@@Z PROC ; Engine::Safe_Release<Engine::CTransform * __ptr64>, COMDAT

; 18   : 	{

$LN5:
  00000	48 89 4c 24 08	 mov	 QWORD PTR [rsp+8], rcx
  00005	55		 push	 rbp
  00006	57		 push	 rdi
  00007	48 81 ec 08 01
	00 00		 sub	 rsp, 264		; 00000108H
  0000e	48 8d 6c 24 20	 lea	 rbp, QWORD PTR [rsp+32]
  00013	48 8b fc	 mov	 rdi, rsp
  00016	b9 42 00 00 00	 mov	 ecx, 66			; 00000042H
  0001b	b8 cc cc cc cc	 mov	 eax, -858993460		; ccccccccH
  00020	f3 ab		 rep stosd
  00022	48 8b 8c 24 28
	01 00 00	 mov	 rcx, QWORD PTR [rsp+296]

; 19   : 		unsigned long dwRefCnt = 0;

  0002a	c7 45 04 00 00
	00 00		 mov	 DWORD PTR dwRefCnt$[rbp], 0

; 20   : 
; 21   : 		if (nullptr != classType)

  00031	48 8b 85 00 01
	00 00		 mov	 rax, QWORD PTR classType$[rbp]
  00038	48 83 38 00	 cmp	 QWORD PTR [rax], 0
  0003c	74 27		 je	 SHORT $LN2@Safe_Relea

; 22   : 		{
; 23   : 			dwRefCnt = classType->Release();

  0003e	48 8b 85 00 01
	00 00		 mov	 rax, QWORD PTR classType$[rbp]
  00045	48 8b 08	 mov	 rcx, QWORD PTR [rax]
  00048	ff 15 00 00 00
	00		 call	 QWORD PTR __imp_?Release@CBase@Engine@@QEAAKXZ
  0004e	89 45 04	 mov	 DWORD PTR dwRefCnt$[rbp], eax

; 24   : 
; 25   : 			if (0 == dwRefCnt)

  00051	83 7d 04 00	 cmp	 DWORD PTR dwRefCnt$[rbp], 0
  00055	75 0e		 jne	 SHORT $LN3@Safe_Relea

; 26   : 			{
; 27   : 				classType = nullptr;

  00057	48 8b 85 00 01
	00 00		 mov	 rax, QWORD PTR classType$[rbp]
  0005e	48 c7 00 00 00
	00 00		 mov	 QWORD PTR [rax], 0
$LN3@Safe_Relea:
$LN2@Safe_Relea:

; 28   : 			}
; 29   : 		}
; 30   : 
; 31   : 		return dwRefCnt;

  00065	8b 45 04	 mov	 eax, DWORD PTR dwRefCnt$[rbp]

; 32   : 	}

  00068	48 8d a5 e8 00
	00 00		 lea	 rsp, QWORD PTR [rbp+232]
  0006f	5f		 pop	 rdi
  00070	5d		 pop	 rbp
  00071	c3		 ret	 0
??$Safe_Release@PEAVCTransform@Engine@@@Engine@@YAKAEAPEAVCTransform@0@@Z ENDP ; Engine::Safe_Release<Engine::CTransform * __ptr64>
_TEXT	ENDS
; Function compile flags: /Odtp /RTCsu /ZI
; File c:\github\framework\reference\headers\engine_template.h
;	COMDAT ??$Safe_Release@PEAVCRenderer@Engine@@@Engine@@YAKAEAPEAVCRenderer@0@@Z
_TEXT	SEGMENT
dwRefCnt$ = 4
classType$ = 256
??$Safe_Release@PEAVCRenderer@Engine@@@Engine@@YAKAEAPEAVCRenderer@0@@Z PROC ; Engine::Safe_Release<Engine::CRenderer * __ptr64>, COMDAT

; 18   : 	{

$LN5:
  00000	48 89 4c 24 08	 mov	 QWORD PTR [rsp+8], rcx
  00005	55		 push	 rbp
  00006	57		 push	 rdi
  00007	48 81 ec 08 01
	00 00		 sub	 rsp, 264		; 00000108H
  0000e	48 8d 6c 24 20	 lea	 rbp, QWORD PTR [rsp+32]
  00013	48 8b fc	 mov	 rdi, rsp
  00016	b9 42 00 00 00	 mov	 ecx, 66			; 00000042H
  0001b	b8 cc cc cc cc	 mov	 eax, -858993460		; ccccccccH
  00020	f3 ab		 rep stosd
  00022	48 8b 8c 24 28
	01 00 00	 mov	 rcx, QWORD PTR [rsp+296]

; 19   : 		unsigned long dwRefCnt = 0;

  0002a	c7 45 04 00 00
	00 00		 mov	 DWORD PTR dwRefCnt$[rbp], 0

; 20   : 
; 21   : 		if (nullptr != classType)

  00031	48 8b 85 00 01
	00 00		 mov	 rax, QWORD PTR classType$[rbp]
  00038	48 83 38 00	 cmp	 QWORD PTR [rax], 0
  0003c	74 27		 je	 SHORT $LN2@Safe_Relea

; 22   : 		{
; 23   : 			dwRefCnt = classType->Release();

  0003e	48 8b 85 00 01
	00 00		 mov	 rax, QWORD PTR classType$[rbp]
  00045	48 8b 08	 mov	 rcx, QWORD PTR [rax]
  00048	ff 15 00 00 00
	00		 call	 QWORD PTR __imp_?Release@CBase@Engine@@QEAAKXZ
  0004e	89 45 04	 mov	 DWORD PTR dwRefCnt$[rbp], eax

; 24   : 
; 25   : 			if (0 == dwRefCnt)

  00051	83 7d 04 00	 cmp	 DWORD PTR dwRefCnt$[rbp], 0
  00055	75 0e		 jne	 SHORT $LN3@Safe_Relea

; 26   : 			{
; 27   : 				classType = nullptr;

  00057	48 8b 85 00 01
	00 00		 mov	 rax, QWORD PTR classType$[rbp]
  0005e	48 c7 00 00 00
	00 00		 mov	 QWORD PTR [rax], 0
$LN3@Safe_Relea:
$LN2@Safe_Relea:

; 28   : 			}
; 29   : 		}
; 30   : 
; 31   : 		return dwRefCnt;

  00065	8b 45 04	 mov	 eax, DWORD PTR dwRefCnt$[rbp]

; 32   : 	}

  00068	48 8d a5 e8 00
	00 00		 lea	 rsp, QWORD PTR [rbp+232]
  0006f	5f		 pop	 rdi
  00070	5d		 pop	 rbp
  00071	c3		 ret	 0
??$Safe_Release@PEAVCRenderer@Engine@@@Engine@@YAKAEAPEAVCRenderer@0@@Z ENDP ; Engine::Safe_Release<Engine::CRenderer * __ptr64>
_TEXT	ENDS
; Function compile flags: /Odtp /RTCsu /ZI
; File c:\github\framework\reference\headers\engine_template.h
;	COMDAT ??$Safe_Release@PEAVCKalienina@Client@@@Engine@@YAKAEAPEAVCKalienina@Client@@@Z
_TEXT	SEGMENT
dwRefCnt$ = 4
classType$ = 256
??$Safe_Release@PEAVCKalienina@Client@@@Engine@@YAKAEAPEAVCKalienina@Client@@@Z PROC ; Engine::Safe_Release<Client::CKalienina * __ptr64>, COMDAT

; 18   : 	{

$LN5:
  00000	48 89 4c 24 08	 mov	 QWORD PTR [rsp+8], rcx
  00005	55		 push	 rbp
  00006	57		 push	 rdi
  00007	48 81 ec 08 01
	00 00		 sub	 rsp, 264		; 00000108H
  0000e	48 8d 6c 24 20	 lea	 rbp, QWORD PTR [rsp+32]
  00013	48 8b fc	 mov	 rdi, rsp
  00016	b9 42 00 00 00	 mov	 ecx, 66			; 00000042H
  0001b	b8 cc cc cc cc	 mov	 eax, -858993460		; ccccccccH
  00020	f3 ab		 rep stosd
  00022	48 8b 8c 24 28
	01 00 00	 mov	 rcx, QWORD PTR [rsp+296]

; 19   : 		unsigned long dwRefCnt = 0;

  0002a	c7 45 04 00 00
	00 00		 mov	 DWORD PTR dwRefCnt$[rbp], 0

; 20   : 
; 21   : 		if (nullptr != classType)

  00031	48 8b 85 00 01
	00 00		 mov	 rax, QWORD PTR classType$[rbp]
  00038	48 83 38 00	 cmp	 QWORD PTR [rax], 0
  0003c	74 27		 je	 SHORT $LN2@Safe_Relea

; 22   : 		{
; 23   : 			dwRefCnt = classType->Release();

  0003e	48 8b 85 00 01
	00 00		 mov	 rax, QWORD PTR classType$[rbp]
  00045	48 8b 08	 mov	 rcx, QWORD PTR [rax]
  00048	ff 15 00 00 00
	00		 call	 QWORD PTR __imp_?Release@CBase@Engine@@QEAAKXZ
  0004e	89 45 04	 mov	 DWORD PTR dwRefCnt$[rbp], eax

; 24   : 
; 25   : 			if (0 == dwRefCnt)

  00051	83 7d 04 00	 cmp	 DWORD PTR dwRefCnt$[rbp], 0
  00055	75 0e		 jne	 SHORT $LN3@Safe_Relea

; 26   : 			{
; 27   : 				classType = nullptr;

  00057	48 8b 85 00 01
	00 00		 mov	 rax, QWORD PTR classType$[rbp]
  0005e	48 c7 00 00 00
	00 00		 mov	 QWORD PTR [rax], 0
$LN3@Safe_Relea:
$LN2@Safe_Relea:

; 28   : 			}
; 29   : 		}
; 30   : 
; 31   : 		return dwRefCnt;

  00065	8b 45 04	 mov	 eax, DWORD PTR dwRefCnt$[rbp]

; 32   : 	}

  00068	48 8d a5 e8 00
	00 00		 lea	 rsp, QWORD PTR [rbp+232]
  0006f	5f		 pop	 rdi
  00070	5d		 pop	 rbp
  00071	c3		 ret	 0
??$Safe_Release@PEAVCKalienina@Client@@@Engine@@YAKAEAPEAVCKalienina@Client@@@Z ENDP ; Engine::Safe_Release<Client::CKalienina * __ptr64>
_TEXT	ENDS
; Function compile flags: /Odtp /RTCsu /ZI
;	COMDAT ??_GCKalienina@Client@@EEAAPEAXI@Z
_TEXT	SEGMENT
this$ = 224
__flags$ = 232
??_GCKalienina@Client@@EEAAPEAXI@Z PROC			; Client::CKalienina::`scalar deleting destructor', COMDAT
$LN4:
  00000	89 54 24 10	 mov	 DWORD PTR [rsp+16], edx
  00004	48 89 4c 24 08	 mov	 QWORD PTR [rsp+8], rcx
  00009	55		 push	 rbp
  0000a	57		 push	 rdi
  0000b	48 81 ec e8 00
	00 00		 sub	 rsp, 232		; 000000e8H
  00012	48 8d 6c 24 20	 lea	 rbp, QWORD PTR [rsp+32]
  00017	48 8b fc	 mov	 rdi, rsp
  0001a	b9 3a 00 00 00	 mov	 ecx, 58			; 0000003aH
  0001f	b8 cc cc cc cc	 mov	 eax, -858993460		; ccccccccH
  00024	f3 ab		 rep stosd
  00026	48 8b 8c 24 08
	01 00 00	 mov	 rcx, QWORD PTR [rsp+264]
  0002e	48 8b 8d e0 00
	00 00		 mov	 rcx, QWORD PTR this$[rbp]
  00035	e8 00 00 00 00	 call	 ??1CKalienina@Client@@EEAA@XZ ; Client::CKalienina::~CKalienina
  0003a	8b 85 e8 00 00
	00		 mov	 eax, DWORD PTR __flags$[rbp]
  00040	83 e0 01	 and	 eax, 1
  00043	85 c0		 test	 eax, eax
  00045	74 11		 je	 SHORT $LN2@scalar
  00047	ba e0 00 00 00	 mov	 edx, 224		; 000000e0H
  0004c	48 8b 8d e0 00
	00 00		 mov	 rcx, QWORD PTR this$[rbp]
  00053	e8 00 00 00 00	 call	 ??3@YAXPEAX_K@Z		; operator delete
$LN2@scalar:
  00058	48 8b 85 e0 00
	00 00		 mov	 rax, QWORD PTR this$[rbp]
  0005f	48 8d a5 c8 00
	00 00		 lea	 rsp, QWORD PTR [rbp+200]
  00066	5f		 pop	 rdi
  00067	5d		 pop	 rbp
  00068	c3		 ret	 0
??_GCKalienina@Client@@EEAAPEAXI@Z ENDP			; Client::CKalienina::`scalar deleting destructor'
_TEXT	ENDS
; Function compile flags: /Odtp /RTCsu /ZI
; File c:\github\framework\client\private\kalienina.cpp
;	COMDAT ?Free@CKalienina@Client@@UEAAXXZ
_TEXT	SEGMENT
this$ = 224
?Free@CKalienina@Client@@UEAAXXZ PROC			; Client::CKalienina::Free, COMDAT

; 543  : { 

$LN3:
  00000	48 89 4c 24 08	 mov	 QWORD PTR [rsp+8], rcx
  00005	55		 push	 rbp
  00006	57		 push	 rdi
  00007	48 81 ec e8 00
	00 00		 sub	 rsp, 232		; 000000e8H
  0000e	48 8d 6c 24 20	 lea	 rbp, QWORD PTR [rsp+32]
  00013	48 8b fc	 mov	 rdi, rsp
  00016	b9 3a 00 00 00	 mov	 ecx, 58			; 0000003aH
  0001b	b8 cc cc cc cc	 mov	 eax, -858993460		; ccccccccH
  00020	f3 ab		 rep stosd
  00022	48 8b 8c 24 08
	01 00 00	 mov	 rcx, QWORD PTR [rsp+264]

; 544  : 	__super::Free();

  0002a	48 8b 8d e0 00
	00 00		 mov	 rcx, QWORD PTR this$[rbp]
  00031	ff 15 00 00 00
	00		 call	 QWORD PTR __imp_?Free@CGameObject@Engine@@UEAAXXZ

; 545  : 
; 546  : 	Safe_Release(mRenderer);

  00037	48 8b 85 e0 00
	00 00		 mov	 rax, QWORD PTR this$[rbp]
  0003e	48 83 c0 78	 add	 rax, 120		; 00000078H
  00042	48 8b c8	 mov	 rcx, rax
  00045	e8 00 00 00 00	 call	 ??$Safe_Release@PEAVCRenderer@Engine@@@Engine@@YAKAEAPEAVCRenderer@0@@Z ; Engine::Safe_Release<Engine::CRenderer * __ptr64>

; 547  : 	Safe_Release(mTransform);

  0004a	48 8b 85 e0 00
	00 00		 mov	 rax, QWORD PTR this$[rbp]
  00051	48 05 80 00 00
	00		 add	 rax, 128		; 00000080H
  00057	48 8b c8	 mov	 rcx, rax
  0005a	e8 00 00 00 00	 call	 ??$Safe_Release@PEAVCTransform@Engine@@@Engine@@YAKAEAPEAVCTransform@0@@Z ; Engine::Safe_Release<Engine::CTransform * __ptr64>

; 548  : 	Safe_Release(mCameraSocketTransform);

  0005f	48 8b 85 e0 00
	00 00		 mov	 rax, QWORD PTR this$[rbp]
  00066	48 05 a8 00 00
	00		 add	 rax, 168		; 000000a8H
  0006c	48 8b c8	 mov	 rcx, rax
  0006f	e8 00 00 00 00	 call	 ??$Safe_Release@PEAVCTransform@Engine@@@Engine@@YAKAEAPEAVCTransform@0@@Z ; Engine::Safe_Release<Engine::CTransform * __ptr64>

; 549  : 	Safe_Release(mModel);

  00074	48 8b 85 e0 00
	00 00		 mov	 rax, QWORD PTR this$[rbp]
  0007b	48 05 88 00 00
	00		 add	 rax, 136		; 00000088H
  00081	48 8b c8	 mov	 rcx, rax
  00084	e8 00 00 00 00	 call	 ??$Safe_Release@PEAVCModel@Engine@@@Engine@@YAKAEAPEAVCModel@0@@Z ; Engine::Safe_Release<Engine::CModel * __ptr64>

; 550  : 	Safe_Release(mShader);

  00089	48 8b 85 e0 00
	00 00		 mov	 rax, QWORD PTR this$[rbp]
  00090	48 05 90 00 00
	00		 add	 rax, 144		; 00000090H
  00096	48 8b c8	 mov	 rcx, rax
  00099	e8 00 00 00 00	 call	 ??$Safe_Release@PEAVCShader@Engine@@@Engine@@YAKAEAPEAVCShader@0@@Z ; Engine::Safe_Release<Engine::CShader * __ptr64>

; 551  : }

  0009e	48 8d a5 c8 00
	00 00		 lea	 rsp, QWORD PTR [rbp+200]
  000a5	5f		 pop	 rdi
  000a6	5d		 pop	 rbp
  000a7	c3		 ret	 0
?Free@CKalienina@Client@@UEAAXXZ ENDP			; Client::CKalienina::Free
_TEXT	ENDS
; Function compile flags: /Odtp /RTCsu /ZI
; File c:\github\framework\client\private\kalienina.cpp
;	COMDAT ?Clone@CKalienina@Client@@UEAAPEAVCGameObject@Engine@@PEAX@Z
_TEXT	SEGMENT
pInstance$ = 8
$T4 = 232
$T5 = 264
$T6 = 296
tv83 = 312
__$ArrayPad$ = 320
this$ = 368
pArg$ = 376
?Clone@CKalienina@Client@@UEAAPEAVCGameObject@Engine@@PEAX@Z PROC ; Client::CKalienina::Clone, COMDAT

; 531  : {

$LN7:
  00000	48 89 54 24 10	 mov	 QWORD PTR [rsp+16], rdx
  00005	48 89 4c 24 08	 mov	 QWORD PTR [rsp+8], rcx
  0000a	55		 push	 rbp
  0000b	57		 push	 rdi
  0000c	48 81 ec 78 01
	00 00		 sub	 rsp, 376		; 00000178H
  00013	48 8d 6c 24 20	 lea	 rbp, QWORD PTR [rsp+32]
  00018	48 8b fc	 mov	 rdi, rsp
  0001b	b9 5e 00 00 00	 mov	 ecx, 94			; 0000005eH
  00020	b8 cc cc cc cc	 mov	 eax, -858993460		; ccccccccH
  00025	f3 ab		 rep stosd
  00027	48 8b 8c 24 98
	01 00 00	 mov	 rcx, QWORD PTR [rsp+408]
  0002f	48 c7 85 28 01
	00 00 fe ff ff
	ff		 mov	 QWORD PTR $T6[rbp], -2
  0003a	48 8b 05 00 00
	00 00		 mov	 rax, QWORD PTR __security_cookie
  00041	48 33 c5	 xor	 rax, rbp
  00044	48 89 85 40 01
	00 00		 mov	 QWORD PTR __$ArrayPad$[rbp], rax

; 532  :  	CKalienina* pInstance = new CKalienina(*this);

  0004b	8b 05 00 00 00
	00		 mov	 eax, DWORD PTR ?__LINE__Var@?0??Clone@CKalienina@Client@@UEAAPEAVCGameObject@Engine@@PEAX@Z@4JA
  00051	ff c0		 inc	 eax
  00053	44 8b c8	 mov	 r9d, eax
  00056	4c 8d 05 00 00
	00 00		 lea	 r8, OFFSET FLAT:??_C@_0DB@JLKHCEHN@c?3?2github?2framework?2client?2priva@
  0005d	ba 01 00 00 00	 mov	 edx, 1
  00062	b9 e0 00 00 00	 mov	 ecx, 224		; 000000e0H
  00067	e8 00 00 00 00	 call	 ??2@YAPEAX_KHPEBDH@Z	; operator new
  0006c	48 89 85 08 01
	00 00		 mov	 QWORD PTR $T5[rbp], rax
  00073	48 83 bd 08 01
	00 00 00	 cmp	 QWORD PTR $T5[rbp], 0
  0007b	74 1c		 je	 SHORT $LN4@Clone
  0007d	48 8b 95 70 01
	00 00		 mov	 rdx, QWORD PTR this$[rbp]
  00084	48 8b 8d 08 01
	00 00		 mov	 rcx, QWORD PTR $T5[rbp]
  0008b	e8 00 00 00 00	 call	 ??0CKalienina@Client@@AEAA@AEBV01@@Z ; Client::CKalienina::CKalienina
  00090	48 89 85 38 01
	00 00		 mov	 QWORD PTR tv83[rbp], rax
  00097	eb 0b		 jmp	 SHORT $LN5@Clone
$LN4@Clone:
  00099	48 c7 85 38 01
	00 00 00 00 00
	00		 mov	 QWORD PTR tv83[rbp], 0
$LN5@Clone:
  000a4	48 8b 85 38 01
	00 00		 mov	 rax, QWORD PTR tv83[rbp]
  000ab	48 89 85 e8 00
	00 00		 mov	 QWORD PTR $T4[rbp], rax
  000b2	48 8b 85 e8 00
	00 00		 mov	 rax, QWORD PTR $T4[rbp]
  000b9	48 89 45 08	 mov	 QWORD PTR pInstance$[rbp], rax

; 533  : 	if (FAILED(pInstance->Initialize(pArg)))

  000bd	48 8b 95 78 01
	00 00		 mov	 rdx, QWORD PTR pArg$[rbp]
  000c4	48 8b 4d 08	 mov	 rcx, QWORD PTR pInstance$[rbp]
  000c8	e8 00 00 00 00	 call	 ?Initialize@CKalienina@Client@@UEAAJPEAX@Z ; Client::CKalienina::Initialize
  000cd	85 c0		 test	 eax, eax
  000cf	7d 22		 jge	 SHORT $LN2@Clone

; 534  : 	{
; 535  : 		MSG_BOX("Failed to Clone : CKalienina");

  000d1	45 33 c9	 xor	 r9d, r9d
  000d4	4c 8d 05 00 00
	00 00		 lea	 r8, OFFSET FLAT:??_C@_1BA@HHOMBECE@?$AAM?$AAe?$AAs?$AAs?$AAa?$AAg?$AAe?$AA?$AA@
  000db	48 8d 15 00 00
	00 00		 lea	 rdx, OFFSET FLAT:??_C@_1DK@JKHCCMHF@?$AAF?$AAa?$AAi?$AAl?$AAe?$AAd?$AA?5?$AAt?$AAo?$AA?5?$AAC?$AAl?$AAo?$AAn?$AAe?$AA?5?$AA?3?$AA?5?$AAC?$AAK?$AAa?$AAl?$AAi?$AAe?$AAn?$AAi?$AAn?$AAa?$AA?$AA@
  000e2	33 c9		 xor	 ecx, ecx
  000e4	ff 15 00 00 00
	00		 call	 QWORD PTR __imp_MessageBoxW

; 536  : 		Safe_Release(pInstance);

  000ea	48 8d 4d 08	 lea	 rcx, QWORD PTR pInstance$[rbp]
  000ee	e8 00 00 00 00	 call	 ??$Safe_Release@PEAVCKalienina@Client@@@Engine@@YAKAEAPEAVCKalienina@Client@@@Z ; Engine::Safe_Release<Client::CKalienina * __ptr64>
$LN2@Clone:

; 537  : 	}
; 538  : 
; 539  : 	return pInstance;

  000f3	48 8b 45 08	 mov	 rax, QWORD PTR pInstance$[rbp]

; 540  : }

  000f7	48 8b f8	 mov	 rdi, rax
  000fa	48 8d 4d e0	 lea	 rcx, QWORD PTR [rbp-32]
  000fe	48 8d 15 00 00
	00 00		 lea	 rdx, OFFSET FLAT:?Clone@CKalienina@Client@@UEAAPEAVCGameObject@Engine@@PEAX@Z$rtcFrameData
  00105	e8 00 00 00 00	 call	 _RTC_CheckStackVars
  0010a	48 8b c7	 mov	 rax, rdi
  0010d	48 8b 8d 40 01
	00 00		 mov	 rcx, QWORD PTR __$ArrayPad$[rbp]
  00114	48 33 cd	 xor	 rcx, rbp
  00117	e8 00 00 00 00	 call	 __security_check_cookie
  0011c	48 8d a5 58 01
	00 00		 lea	 rsp, QWORD PTR [rbp+344]
  00123	5f		 pop	 rdi
  00124	5d		 pop	 rbp
  00125	c3		 ret	 0
?Clone@CKalienina@Client@@UEAAPEAVCGameObject@Engine@@PEAX@Z ENDP ; Client::CKalienina::Clone
_TEXT	ENDS
;	COMDAT text$x
text$x	SEGMENT
pInstance$ = 8
$T4 = 232
$T5 = 264
$T6 = 296
tv83 = 312
__$ArrayPad$ = 320
this$ = 368
pArg$ = 376
?dtor$0@?0??Clone@CKalienina@Client@@UEAAPEAVCGameObject@Engine@@PEAX@Z@4HA PROC ; `Client::CKalienina::Clone'::`1'::dtor$0
  00000	48 89 4c 24 08	 mov	 QWORD PTR [rsp+8], rcx
  00005	48 89 54 24 10	 mov	 QWORD PTR [rsp+16], rdx
  0000a	55		 push	 rbp
  0000b	57		 push	 rdi
  0000c	48 83 ec 28	 sub	 rsp, 40			; 00000028H
  00010	48 8d 6a 20	 lea	 rbp, QWORD PTR [rdx+32]
  00014	44 8b 0d 00 00
	00 00		 mov	 r9d, DWORD PTR ?__LINE__Var@?0??Clone@CKalienina@Client@@UEAAPEAVCGameObject@Engine@@PEAX@Z@4JA
  0001b	41 ff c1	 inc	 r9d
  0001e	4c 8d 05 00 00
	00 00		 lea	 r8, OFFSET FLAT:??_C@_0DB@JLKHCEHN@c?3?2github?2framework?2client?2priva@
  00025	ba 01 00 00 00	 mov	 edx, 1
  0002a	48 8b 8d 08 01
	00 00		 mov	 rcx, QWORD PTR $T5[rbp]
  00031	e8 00 00 00 00	 call	 ??3@YAXPEAXHPEBDH@Z	; operator delete
  00036	48 83 c4 28	 add	 rsp, 40			; 00000028H
  0003a	5f		 pop	 rdi
  0003b	5d		 pop	 rbp
  0003c	c3		 ret	 0
?dtor$0@?0??Clone@CKalienina@Client@@UEAAPEAVCGameObject@Engine@@PEAX@Z@4HA ENDP ; `Client::CKalienina::Clone'::`1'::dtor$0
text$x	ENDS
; Function compile flags: /Odtp /RTCsu /ZI
;	COMDAT text$x
text$x	SEGMENT
pInstance$ = 8
$T4 = 232
$T5 = 264
$T6 = 296
tv83 = 312
__$ArrayPad$ = 320
this$ = 368
pArg$ = 376
?dtor$0@?0??Clone@CKalienina@Client@@UEAAPEAVCGameObject@Engine@@PEAX@Z@4HA PROC ; `Client::CKalienina::Clone'::`1'::dtor$0
  00000	48 89 4c 24 08	 mov	 QWORD PTR [rsp+8], rcx
  00005	48 89 54 24 10	 mov	 QWORD PTR [rsp+16], rdx
  0000a	55		 push	 rbp
  0000b	57		 push	 rdi
  0000c	48 83 ec 28	 sub	 rsp, 40			; 00000028H
  00010	48 8d 6a 20	 lea	 rbp, QWORD PTR [rdx+32]
  00014	44 8b 0d 00 00
	00 00		 mov	 r9d, DWORD PTR ?__LINE__Var@?0??Clone@CKalienina@Client@@UEAAPEAVCGameObject@Engine@@PEAX@Z@4JA
  0001b	41 ff c1	 inc	 r9d
  0001e	4c 8d 05 00 00
	00 00		 lea	 r8, OFFSET FLAT:??_C@_0DB@JLKHCEHN@c?3?2github?2framework?2client?2priva@
  00025	ba 01 00 00 00	 mov	 edx, 1
  0002a	48 8b 8d 08 01
	00 00		 mov	 rcx, QWORD PTR $T5[rbp]
  00031	e8 00 00 00 00	 call	 ??3@YAXPEAXHPEBDH@Z	; operator delete
  00036	48 83 c4 28	 add	 rsp, 40			; 00000028H
  0003a	5f		 pop	 rdi
  0003b	5d		 pop	 rbp
  0003c	c3		 ret	 0
?dtor$0@?0??Clone@CKalienina@Client@@UEAAPEAVCGameObject@Engine@@PEAX@Z@4HA ENDP ; `Client::CKalienina::Clone'::`1'::dtor$0
text$x	ENDS
; Function compile flags: /Odtp /RTCsu /ZI
; File c:\github\framework\client\private\kalienina.cpp
;	COMDAT ?Create@CKalienina@Client@@SAPEAV12@PEAUID3D11Device@@PEAUID3D11DeviceContext@@@Z
_TEXT	SEGMENT
pInstance$ = 8
$T4 = 232
$T5 = 264
$T6 = 296
tv84 = 312
__$ArrayPad$ = 320
pDevice$ = 368
pContext$ = 376
?Create@CKalienina@Client@@SAPEAV12@PEAUID3D11Device@@PEAUID3D11DeviceContext@@@Z PROC ; Client::CKalienina::Create, COMDAT

; 519  : {

$LN7:
  00000	48 89 54 24 10	 mov	 QWORD PTR [rsp+16], rdx
  00005	48 89 4c 24 08	 mov	 QWORD PTR [rsp+8], rcx
  0000a	55		 push	 rbp
  0000b	57		 push	 rdi
  0000c	48 81 ec 78 01
	00 00		 sub	 rsp, 376		; 00000178H
  00013	48 8d 6c 24 20	 lea	 rbp, QWORD PTR [rsp+32]
  00018	48 8b fc	 mov	 rdi, rsp
  0001b	b9 5e 00 00 00	 mov	 ecx, 94			; 0000005eH
  00020	b8 cc cc cc cc	 mov	 eax, -858993460		; ccccccccH
  00025	f3 ab		 rep stosd
  00027	48 8b 8c 24 98
	01 00 00	 mov	 rcx, QWORD PTR [rsp+408]
  0002f	48 c7 85 28 01
	00 00 fe ff ff
	ff		 mov	 QWORD PTR $T6[rbp], -2
  0003a	48 8b 05 00 00
	00 00		 mov	 rax, QWORD PTR __security_cookie
  00041	48 33 c5	 xor	 rax, rbp
  00044	48 89 85 40 01
	00 00		 mov	 QWORD PTR __$ArrayPad$[rbp], rax

; 520  : 	CKalienina*	pInstance = new CKalienina(pDevice, pContext);

  0004b	8b 05 00 00 00
	00		 mov	 eax, DWORD PTR ?__LINE__Var@?0??Create@CKalienina@Client@@SAPEAV23@PEAUID3D11Device@@PEAUID3D11DeviceContext@@@Z@4JA
  00051	ff c0		 inc	 eax
  00053	44 8b c8	 mov	 r9d, eax
  00056	4c 8d 05 00 00
	00 00		 lea	 r8, OFFSET FLAT:??_C@_0DB@JLKHCEHN@c?3?2github?2framework?2client?2priva@
  0005d	ba 01 00 00 00	 mov	 edx, 1
  00062	b9 e0 00 00 00	 mov	 ecx, 224		; 000000e0H
  00067	e8 00 00 00 00	 call	 ??2@YAPEAX_KHPEBDH@Z	; operator new
  0006c	48 89 85 08 01
	00 00		 mov	 QWORD PTR $T5[rbp], rax
  00073	48 83 bd 08 01
	00 00 00	 cmp	 QWORD PTR $T5[rbp], 0
  0007b	74 23		 je	 SHORT $LN4@Create
  0007d	4c 8b 85 78 01
	00 00		 mov	 r8, QWORD PTR pContext$[rbp]
  00084	48 8b 95 70 01
	00 00		 mov	 rdx, QWORD PTR pDevice$[rbp]
  0008b	48 8b 8d 08 01
	00 00		 mov	 rcx, QWORD PTR $T5[rbp]
  00092	e8 00 00 00 00	 call	 ??0CKalienina@Client@@AEAA@PEAUID3D11Device@@PEAUID3D11DeviceContext@@@Z ; Client::CKalienina::CKalienina
  00097	48 89 85 38 01
	00 00		 mov	 QWORD PTR tv84[rbp], rax
  0009e	eb 0b		 jmp	 SHORT $LN5@Create
$LN4@Create:
  000a0	48 c7 85 38 01
	00 00 00 00 00
	00		 mov	 QWORD PTR tv84[rbp], 0
$LN5@Create:
  000ab	48 8b 85 38 01
	00 00		 mov	 rax, QWORD PTR tv84[rbp]
  000b2	48 89 85 e8 00
	00 00		 mov	 QWORD PTR $T4[rbp], rax
  000b9	48 8b 85 e8 00
	00 00		 mov	 rax, QWORD PTR $T4[rbp]
  000c0	48 89 45 08	 mov	 QWORD PTR pInstance$[rbp], rax

; 521  : 	if (FAILED(pInstance->Initialize_Prototype()))

  000c4	48 8b 4d 08	 mov	 rcx, QWORD PTR pInstance$[rbp]
  000c8	e8 00 00 00 00	 call	 ?Initialize_Prototype@CKalienina@Client@@UEAAJXZ ; Client::CKalienina::Initialize_Prototype
  000cd	85 c0		 test	 eax, eax
  000cf	7d 22		 jge	 SHORT $LN2@Create

; 522  : 	{
; 523  : 		MSG_BOX("Failed to Create : CKalienina");

  000d1	45 33 c9	 xor	 r9d, r9d
  000d4	4c 8d 05 00 00
	00 00		 lea	 r8, OFFSET FLAT:??_C@_1BA@HHOMBECE@?$AAM?$AAe?$AAs?$AAs?$AAa?$AAg?$AAe?$AA?$AA@
  000db	48 8d 15 00 00
	00 00		 lea	 rdx, OFFSET FLAT:??_C@_1DM@ICLKDEHF@?$AAF?$AAa?$AAi?$AAl?$AAe?$AAd?$AA?5?$AAt?$AAo?$AA?5?$AAC?$AAr?$AAe?$AAa?$AAt?$AAe?$AA?5?$AA?3?$AA?5?$AAC?$AAK?$AAa?$AAl?$AAi?$AAe?$AAn?$AAi?$AAn?$AAa?$AA?$AA@
  000e2	33 c9		 xor	 ecx, ecx
  000e4	ff 15 00 00 00
	00		 call	 QWORD PTR __imp_MessageBoxW

; 524  : 		Safe_Release(pInstance);

  000ea	48 8d 4d 08	 lea	 rcx, QWORD PTR pInstance$[rbp]
  000ee	e8 00 00 00 00	 call	 ??$Safe_Release@PEAVCKalienina@Client@@@Engine@@YAKAEAPEAVCKalienina@Client@@@Z ; Engine::Safe_Release<Client::CKalienina * __ptr64>
$LN2@Create:

; 525  : 	}
; 526  : 
; 527  : 	return pInstance;

  000f3	48 8b 45 08	 mov	 rax, QWORD PTR pInstance$[rbp]

; 528  : }

  000f7	48 8b f8	 mov	 rdi, rax
  000fa	48 8d 4d e0	 lea	 rcx, QWORD PTR [rbp-32]
  000fe	48 8d 15 00 00
	00 00		 lea	 rdx, OFFSET FLAT:?Create@CKalienina@Client@@SAPEAV12@PEAUID3D11Device@@PEAUID3D11DeviceContext@@@Z$rtcFrameData
  00105	e8 00 00 00 00	 call	 _RTC_CheckStackVars
  0010a	48 8b c7	 mov	 rax, rdi
  0010d	48 8b 8d 40 01
	00 00		 mov	 rcx, QWORD PTR __$ArrayPad$[rbp]
  00114	48 33 cd	 xor	 rcx, rbp
  00117	e8 00 00 00 00	 call	 __security_check_cookie
  0011c	48 8d a5 58 01
	00 00		 lea	 rsp, QWORD PTR [rbp+344]
  00123	5f		 pop	 rdi
  00124	5d		 pop	 rbp
  00125	c3		 ret	 0
?Create@CKalienina@Client@@SAPEAV12@PEAUID3D11Device@@PEAUID3D11DeviceContext@@@Z ENDP ; Client::CKalienina::Create
_TEXT	ENDS
;	COMDAT text$x
text$x	SEGMENT
pInstance$ = 8
$T4 = 232
$T5 = 264
$T6 = 296
tv84 = 312
__$ArrayPad$ = 320
pDevice$ = 368
pContext$ = 376
?dtor$0@?0??Create@CKalienina@Client@@SAPEAV12@PEAUID3D11Device@@PEAUID3D11DeviceContext@@@Z@4HA PROC ; `Client::CKalienina::Create'::`1'::dtor$0
  00000	48 89 4c 24 08	 mov	 QWORD PTR [rsp+8], rcx
  00005	48 89 54 24 10	 mov	 QWORD PTR [rsp+16], rdx
  0000a	55		 push	 rbp
  0000b	57		 push	 rdi
  0000c	48 83 ec 28	 sub	 rsp, 40			; 00000028H
  00010	48 8d 6a 20	 lea	 rbp, QWORD PTR [rdx+32]
  00014	44 8b 0d 00 00
	00 00		 mov	 r9d, DWORD PTR ?__LINE__Var@?0??Create@CKalienina@Client@@SAPEAV23@PEAUID3D11Device@@PEAUID3D11DeviceContext@@@Z@4JA
  0001b	41 ff c1	 inc	 r9d
  0001e	4c 8d 05 00 00
	00 00		 lea	 r8, OFFSET FLAT:??_C@_0DB@JLKHCEHN@c?3?2github?2framework?2client?2priva@
  00025	ba 01 00 00 00	 mov	 edx, 1
  0002a	48 8b 8d 08 01
	00 00		 mov	 rcx, QWORD PTR $T5[rbp]
  00031	e8 00 00 00 00	 call	 ??3@YAXPEAXHPEBDH@Z	; operator delete
  00036	48 83 c4 28	 add	 rsp, 40			; 00000028H
  0003a	5f		 pop	 rdi
  0003b	5d		 pop	 rbp
  0003c	c3		 ret	 0
?dtor$0@?0??Create@CKalienina@Client@@SAPEAV12@PEAUID3D11Device@@PEAUID3D11DeviceContext@@@Z@4HA ENDP ; `Client::CKalienina::Create'::`1'::dtor$0
text$x	ENDS
; Function compile flags: /Odtp /RTCsu /ZI
;	COMDAT text$x
text$x	SEGMENT
pInstance$ = 8
$T4 = 232
$T5 = 264
$T6 = 296
tv84 = 312
__$ArrayPad$ = 320
pDevice$ = 368
pContext$ = 376
?dtor$0@?0??Create@CKalienina@Client@@SAPEAV12@PEAUID3D11Device@@PEAUID3D11DeviceContext@@@Z@4HA PROC ; `Client::CKalienina::Create'::`1'::dtor$0
  00000	48 89 4c 24 08	 mov	 QWORD PTR [rsp+8], rcx
  00005	48 89 54 24 10	 mov	 QWORD PTR [rsp+16], rdx
  0000a	55		 push	 rbp
  0000b	57		 push	 rdi
  0000c	48 83 ec 28	 sub	 rsp, 40			; 00000028H
  00010	48 8d 6a 20	 lea	 rbp, QWORD PTR [rdx+32]
  00014	44 8b 0d 00 00
	00 00		 mov	 r9d, DWORD PTR ?__LINE__Var@?0??Create@CKalienina@Client@@SAPEAV23@PEAUID3D11Device@@PEAUID3D11DeviceContext@@@Z@4JA
  0001b	41 ff c1	 inc	 r9d
  0001e	4c 8d 05 00 00
	00 00		 lea	 r8, OFFSET FLAT:??_C@_0DB@JLKHCEHN@c?3?2github?2framework?2client?2priva@
  00025	ba 01 00 00 00	 mov	 edx, 1
  0002a	48 8b 8d 08 01
	00 00		 mov	 rcx, QWORD PTR $T5[rbp]
  00031	e8 00 00 00 00	 call	 ??3@YAXPEAXHPEBDH@Z	; operator delete
  00036	48 83 c4 28	 add	 rsp, 40			; 00000028H
  0003a	5f		 pop	 rdi
  0003b	5d		 pop	 rbp
  0003c	c3		 ret	 0
?dtor$0@?0??Create@CKalienina@Client@@SAPEAV12@PEAUID3D11Device@@PEAUID3D11DeviceContext@@@Z@4HA ENDP ; `Client::CKalienina::Create'::`1'::dtor$0
text$x	ENDS
; Function compile flags: /Odtp /RTCsu /ZI
; File c:\github\framework\client\private\kalienina.cpp
;	COMDAT ?Attack@CKalienina@Client@@AEAAXXZ
_TEXT	SEGMENT
pGameInstance$ = 8
tv82 = 212
this$ = 256
?Attack@CKalienina@Client@@AEAAXXZ PROC			; Client::CKalienina::Attack, COMDAT

; 284  : {

$LN12:
  00000	48 89 4c 24 08	 mov	 QWORD PTR [rsp+8], rcx
  00005	55		 push	 rbp
  00006	57		 push	 rdi
  00007	48 81 ec 08 01
	00 00		 sub	 rsp, 264		; 00000108H
  0000e	48 8d 6c 24 20	 lea	 rbp, QWORD PTR [rsp+32]
  00013	48 8b fc	 mov	 rdi, rsp
  00016	b9 42 00 00 00	 mov	 ecx, 66			; 00000042H
  0001b	b8 cc cc cc cc	 mov	 eax, -858993460		; ccccccccH
  00020	f3 ab		 rep stosd
  00022	48 8b 8c 24 28
	01 00 00	 mov	 rcx, QWORD PTR [rsp+296]

; 285  : 	if (!m_bAttackable)

  0002a	48 8b 85 00 01
	00 00		 mov	 rax, QWORD PTR this$[rbp]
  00031	0f b6 80 c9 00
	00 00		 movzx	 eax, BYTE PTR [rax+201]
  00038	85 c0		 test	 eax, eax
  0003a	75 05		 jne	 SHORT $LN4@Attack

; 286  : 		return;

  0003c	e9 00 01 00 00	 jmp	 $LN1@Attack
$LN4@Attack:

; 287  : 
; 288  : 	CGameInstance* pGameInstance = CGameInstance::GetInstance();

  00041	ff 15 00 00 00
	00		 call	 QWORD PTR __imp_?GetInstance@CGameInstance@Engine@@SAPEAV12@XZ
  00047	48 89 45 08	 mov	 QWORD PTR pGameInstance$[rbp], rax

; 289  : 
; 290  : 	m_bMoveable = false;

  0004b	48 8b 85 00 01
	00 00		 mov	 rax, QWORD PTR this$[rbp]
  00052	c6 80 c8 00 00
	00 00		 mov	 BYTE PTR [rax+200], 0

; 291  : 
; 292  : 	m_iCurAttackCount++;

  00059	48 8b 85 00 01
	00 00		 mov	 rax, QWORD PTR this$[rbp]
  00060	8b 80 bc 00 00
	00		 mov	 eax, DWORD PTR [rax+188]
  00066	ff c0		 inc	 eax
  00068	48 8b 8d 00 01
	00 00		 mov	 rcx, QWORD PTR this$[rbp]
  0006f	89 81 bc 00 00
	00		 mov	 DWORD PTR [rcx+188], eax

; 293  : 
; 294  : 	if(m_iCurAttackCount > 3)

  00075	48 8b 85 00 01
	00 00		 mov	 rax, QWORD PTR this$[rbp]
  0007c	83 b8 bc 00 00
	00 03		 cmp	 DWORD PTR [rax+188], 3
  00083	76 11		 jbe	 SHORT $LN5@Attack

; 295  : 		m_iCurAttackCount = 0;

  00085	48 8b 85 00 01
	00 00		 mov	 rax, QWORD PTR this$[rbp]
  0008c	c7 80 bc 00 00
	00 00 00 00 00	 mov	 DWORD PTR [rax+188], 0
$LN5@Attack:

; 296  : 
; 297  : 	if (mModel->AnimationIsPreFinish())

  00096	48 8b 85 00 01
	00 00		 mov	 rax, QWORD PTR this$[rbp]
  0009d	48 8b 88 88 00
	00 00		 mov	 rcx, QWORD PTR [rax+136]
  000a4	ff 15 00 00 00
	00		 call	 QWORD PTR __imp_?AnimationIsPreFinish@CModel@Engine@@QEAA_NXZ
  000aa	0f b6 c0	 movzx	 eax, al
  000ad	85 c0		 test	 eax, eax
  000af	0f 84 8c 00 00
	00		 je	 $LN6@Attack

; 298  : 	{
; 299  : 		switch (m_iCurAttackCount)

  000b5	48 8b 85 00 01
	00 00		 mov	 rax, QWORD PTR this$[rbp]
  000bc	8b 80 bc 00 00
	00		 mov	 eax, DWORD PTR [rax+188]
  000c2	89 85 d4 00 00
	00		 mov	 DWORD PTR tv82[rbp], eax
  000c8	83 bd d4 00 00
	00 00		 cmp	 DWORD PTR tv82[rbp], 0
  000cf	74 1d		 je	 SHORT $LN7@Attack
  000d1	83 bd d4 00 00
	00 01		 cmp	 DWORD PTR tv82[rbp], 1
  000d8	74 27		 je	 SHORT $LN8@Attack
  000da	83 bd d4 00 00
	00 02		 cmp	 DWORD PTR tv82[rbp], 2
  000e1	74 34		 je	 SHORT $LN9@Attack
  000e3	83 bd d4 00 00
	00 03		 cmp	 DWORD PTR tv82[rbp], 3
  000ea	74 41		 je	 SHORT $LN10@Attack
  000ec	eb 53		 jmp	 SHORT $LN2@Attack
$LN7@Attack:

; 300  : 		{
; 301  : 		case 0:
; 302  : 			SetAnimation(CLIP::ATTACK1, CAnimation::TYPE::ONE);

  000ee	45 33 c0	 xor	 r8d, r8d
  000f1	33 d2		 xor	 edx, edx
  000f3	48 8b 8d 00 01
	00 00		 mov	 rcx, QWORD PTR this$[rbp]
  000fa	e8 00 00 00 00	 call	 ?SetAnimation@CKalienina@Client@@AEAAXW4CLIP@12@W4TYPE@CAnimation@Engine@@@Z ; Client::CKalienina::SetAnimation

; 303  : 			break;

  000ff	eb 40		 jmp	 SHORT $LN2@Attack
$LN8@Attack:

; 304  : 		case 1:
; 305  : 			SetAnimation(CLIP::ATTACK2, CAnimation::TYPE::ONE);

  00101	45 33 c0	 xor	 r8d, r8d
  00104	ba 01 00 00 00	 mov	 edx, 1
  00109	48 8b 8d 00 01
	00 00		 mov	 rcx, QWORD PTR this$[rbp]
  00110	e8 00 00 00 00	 call	 ?SetAnimation@CKalienina@Client@@AEAAXW4CLIP@12@W4TYPE@CAnimation@Engine@@@Z ; Client::CKalienina::SetAnimation

; 306  : 			break;

  00115	eb 2a		 jmp	 SHORT $LN2@Attack
$LN9@Attack:

; 307  : 		case 2:
; 308  : 			SetAnimation(CLIP::ATTACK3, CAnimation::TYPE::ONE);

  00117	45 33 c0	 xor	 r8d, r8d
  0011a	ba 02 00 00 00	 mov	 edx, 2
  0011f	48 8b 8d 00 01
	00 00		 mov	 rcx, QWORD PTR this$[rbp]
  00126	e8 00 00 00 00	 call	 ?SetAnimation@CKalienina@Client@@AEAAXW4CLIP@12@W4TYPE@CAnimation@Engine@@@Z ; Client::CKalienina::SetAnimation

; 309  : 			break;

  0012b	eb 14		 jmp	 SHORT $LN2@Attack
$LN10@Attack:

; 310  : 		case 3:
; 311  : 			SetAnimation(CLIP::ATTACK4, CAnimation::TYPE::ONE);

  0012d	45 33 c0	 xor	 r8d, r8d
  00130	ba 03 00 00 00	 mov	 edx, 3
  00135	48 8b 8d 00 01
	00 00		 mov	 rcx, QWORD PTR this$[rbp]
  0013c	e8 00 00 00 00	 call	 ?SetAnimation@CKalienina@Client@@AEAAXW4CLIP@12@W4TYPE@CAnimation@Engine@@@Z ; Client::CKalienina::SetAnimation
$LN2@Attack:
$LN6@Attack:
$LN1@Attack:

; 312  : 			break;
; 313  : 		}
; 314  : 	}
; 315  : }

  00141	48 8d a5 e8 00
	00 00		 lea	 rsp, QWORD PTR [rbp+232]
  00148	5f		 pop	 rdi
  00149	5d		 pop	 rbp
  0014a	c3		 ret	 0
?Attack@CKalienina@Client@@AEAAXXZ ENDP			; Client::CKalienina::Attack
_TEXT	ENDS
; Function compile flags: /Odtp /RTCsu /ZI
; File c:\github\framework\client\private\kalienina.cpp
;	COMDAT ?MoveStop@CKalienina@Client@@AEAAXXZ
_TEXT	SEGMENT
this$ = 224
?MoveStop@CKalienina@Client@@AEAAXXZ PROC		; Client::CKalienina::MoveStop, COMDAT

; 273  : {

$LN5:
  00000	48 89 4c 24 08	 mov	 QWORD PTR [rsp+8], rcx
  00005	55		 push	 rbp
  00006	57		 push	 rdi
  00007	48 81 ec e8 00
	00 00		 sub	 rsp, 232		; 000000e8H
  0000e	48 8d 6c 24 20	 lea	 rbp, QWORD PTR [rsp+32]
  00013	48 8b fc	 mov	 rdi, rsp
  00016	b9 3a 00 00 00	 mov	 ecx, 58			; 0000003aH
  0001b	b8 cc cc cc cc	 mov	 eax, -858993460		; ccccccccH
  00020	f3 ab		 rep stosd
  00022	48 8b 8c 24 08
	01 00 00	 mov	 rcx, QWORD PTR [rsp+264]

; 274  : 	if (AnimationCompare(CLIP::RUN) || AnimationCompare(CLIP::RUN_START))

  0002a	ba 22 00 00 00	 mov	 edx, 34			; 00000022H
  0002f	48 8b 8d e0 00
	00 00		 mov	 rcx, QWORD PTR this$[rbp]
  00036	e8 00 00 00 00	 call	 ?AnimationCompare@CKalienina@Client@@AEAA_NW4CLIP@12@@Z ; Client::CKalienina::AnimationCompare
  0003b	0f b6 c0	 movzx	 eax, al
  0003e	85 c0		 test	 eax, eax
  00040	75 18		 jne	 SHORT $LN3@MoveStop
  00042	ba 25 00 00 00	 mov	 edx, 37			; 00000025H
  00047	48 8b 8d e0 00
	00 00		 mov	 rcx, QWORD PTR this$[rbp]
  0004e	e8 00 00 00 00	 call	 ?AnimationCompare@CKalienina@Client@@AEAA_NW4CLIP@12@@Z ; Client::CKalienina::AnimationCompare
  00053	0f b6 c0	 movzx	 eax, al
  00056	85 c0		 test	 eax, eax
  00058	74 3e		 je	 SHORT $LN2@MoveStop
$LN3@MoveStop:

; 275  : 	{
; 276  : 		m_bMove= false;

  0005a	48 8b 85 e0 00
	00 00		 mov	 rax, QWORD PTR this$[rbp]
  00061	c6 80 d0 00 00
	00 00		 mov	 BYTE PTR [rax+208], 0

; 277  : 		m_bRun = false;

  00068	48 8b 85 e0 00
	00 00		 mov	 rax, QWORD PTR this$[rbp]
  0006f	c6 80 d1 00 00
	00 00		 mov	 BYTE PTR [rax+209], 0

; 278  : 		m_bMoveable = true;

  00076	48 8b 85 e0 00
	00 00		 mov	 rax, QWORD PTR this$[rbp]
  0007d	c6 80 c8 00 00
	00 01		 mov	 BYTE PTR [rax+200], 1

; 279  : 		SetAnimation(CLIP::STOP, CAnimation::TYPE::ONE);

  00084	45 33 c0	 xor	 r8d, r8d
  00087	ba 2d 00 00 00	 mov	 edx, 45			; 0000002dH
  0008c	48 8b 8d e0 00
	00 00		 mov	 rcx, QWORD PTR this$[rbp]
  00093	e8 00 00 00 00	 call	 ?SetAnimation@CKalienina@Client@@AEAAXW4CLIP@12@W4TYPE@CAnimation@Engine@@@Z ; Client::CKalienina::SetAnimation
$LN2@MoveStop:

; 280  : 	}
; 281  : }

  00098	48 8d a5 c8 00
	00 00		 lea	 rsp, QWORD PTR [rbp+200]
  0009f	5f		 pop	 rdi
  000a0	5d		 pop	 rbp
  000a1	c3		 ret	 0
?MoveStop@CKalienina@Client@@AEAAXXZ ENDP		; Client::CKalienina::MoveStop
_TEXT	ENDS
; Function compile flags: /Odtp /RTCsu /ZI
; File c:\github\framework\client\private\kalienina.cpp
;	COMDAT ?MoveLeft@CKalienina@Client@@AEAAXN@Z
_TEXT	SEGMENT
this$ = 224
TimeDelta$ = 232
?MoveLeft@CKalienina@Client@@AEAAXN@Z PROC		; Client::CKalienina::MoveLeft, COMDAT

; 264  : {

$LN4:
  00000	f2 0f 11 4c 24
	10		 movsd	 QWORD PTR [rsp+16], xmm1
  00006	48 89 4c 24 08	 mov	 QWORD PTR [rsp+8], rcx
  0000b	55		 push	 rbp
  0000c	57		 push	 rdi
  0000d	48 81 ec e8 00
	00 00		 sub	 rsp, 232		; 000000e8H
  00014	48 8d 6c 24 20	 lea	 rbp, QWORD PTR [rsp+32]
  00019	48 8b fc	 mov	 rdi, rsp
  0001c	b9 3a 00 00 00	 mov	 ecx, 58			; 0000003aH
  00021	b8 cc cc cc cc	 mov	 eax, -858993460		; ccccccccH
  00026	f3 ab		 rep stosd
  00028	48 8b 8c 24 08
	01 00 00	 mov	 rcx, QWORD PTR [rsp+264]

; 265  : 	if (!m_bMoveable)

  00030	48 8b 85 e0 00
	00 00		 mov	 rax, QWORD PTR this$[rbp]
  00037	0f b6 80 c8 00
	00 00		 movzx	 eax, BYTE PTR [rax+200]
  0003e	85 c0		 test	 eax, eax
  00040	75 02		 jne	 SHORT $LN2@MoveLeft

; 266  : 		return;

  00042	eb 28		 jmp	 SHORT $LN1@MoveLeft
$LN2@MoveLeft:

; 267  : 
; 268  : 	LeftRotation(TimeDelta);

  00044	f2 0f 10 8d e8
	00 00 00	 movsd	 xmm1, QWORD PTR TimeDelta$[rbp]
  0004c	48 8b 8d e0 00
	00 00		 mov	 rcx, QWORD PTR this$[rbp]
  00053	e8 00 00 00 00	 call	 ?LeftRotation@CKalienina@Client@@AEAAXN@Z ; Client::CKalienina::LeftRotation

; 269  : 	Movement(TimeDelta);

  00058	f2 0f 10 8d e8
	00 00 00	 movsd	 xmm1, QWORD PTR TimeDelta$[rbp]
  00060	48 8b 8d e0 00
	00 00		 mov	 rcx, QWORD PTR this$[rbp]
  00067	e8 00 00 00 00	 call	 ?Movement@CKalienina@Client@@AEAAXN@Z ; Client::CKalienina::Movement
$LN1@MoveLeft:

; 270  : }

  0006c	48 8d a5 c8 00
	00 00		 lea	 rsp, QWORD PTR [rbp+200]
  00073	5f		 pop	 rdi
  00074	5d		 pop	 rbp
  00075	c3		 ret	 0
?MoveLeft@CKalienina@Client@@AEAAXN@Z ENDP		; Client::CKalienina::MoveLeft
_TEXT	ENDS
; Function compile flags: /Odtp /RTCsu /ZI
; File c:\github\framework\client\private\kalienina.cpp
;	COMDAT ?MoveRight@CKalienina@Client@@AEAAXN@Z
_TEXT	SEGMENT
this$ = 224
TimeDelta$ = 232
?MoveRight@CKalienina@Client@@AEAAXN@Z PROC		; Client::CKalienina::MoveRight, COMDAT

; 255  : {

$LN4:
  00000	f2 0f 11 4c 24
	10		 movsd	 QWORD PTR [rsp+16], xmm1
  00006	48 89 4c 24 08	 mov	 QWORD PTR [rsp+8], rcx
  0000b	55		 push	 rbp
  0000c	57		 push	 rdi
  0000d	48 81 ec e8 00
	00 00		 sub	 rsp, 232		; 000000e8H
  00014	48 8d 6c 24 20	 lea	 rbp, QWORD PTR [rsp+32]
  00019	48 8b fc	 mov	 rdi, rsp
  0001c	b9 3a 00 00 00	 mov	 ecx, 58			; 0000003aH
  00021	b8 cc cc cc cc	 mov	 eax, -858993460		; ccccccccH
  00026	f3 ab		 rep stosd
  00028	48 8b 8c 24 08
	01 00 00	 mov	 rcx, QWORD PTR [rsp+264]

; 256  : 	if (!m_bMoveable)

  00030	48 8b 85 e0 00
	00 00		 mov	 rax, QWORD PTR this$[rbp]
  00037	0f b6 80 c8 00
	00 00		 movzx	 eax, BYTE PTR [rax+200]
  0003e	85 c0		 test	 eax, eax
  00040	75 02		 jne	 SHORT $LN2@MoveRight

; 257  : 		return;

  00042	eb 28		 jmp	 SHORT $LN1@MoveRight
$LN2@MoveRight:

; 258  : 
; 259  : 	RigthRotation(TimeDelta);

  00044	f2 0f 10 8d e8
	00 00 00	 movsd	 xmm1, QWORD PTR TimeDelta$[rbp]
  0004c	48 8b 8d e0 00
	00 00		 mov	 rcx, QWORD PTR this$[rbp]
  00053	e8 00 00 00 00	 call	 ?RigthRotation@CKalienina@Client@@AEAAXN@Z ; Client::CKalienina::RigthRotation

; 260  : 	Movement(TimeDelta);

  00058	f2 0f 10 8d e8
	00 00 00	 movsd	 xmm1, QWORD PTR TimeDelta$[rbp]
  00060	48 8b 8d e0 00
	00 00		 mov	 rcx, QWORD PTR this$[rbp]
  00067	e8 00 00 00 00	 call	 ?Movement@CKalienina@Client@@AEAAXN@Z ; Client::CKalienina::Movement
$LN1@MoveRight:

; 261  : }

  0006c	48 8d a5 c8 00
	00 00		 lea	 rsp, QWORD PTR [rbp+200]
  00073	5f		 pop	 rdi
  00074	5d		 pop	 rbp
  00075	c3		 ret	 0
?MoveRight@CKalienina@Client@@AEAAXN@Z ENDP		; Client::CKalienina::MoveRight
_TEXT	ENDS
; Function compile flags: /Odtp /RTCsu /ZI
; File c:\github\framework\client\private\kalienina.cpp
;	COMDAT ?MoveBackward@CKalienina@Client@@AEAAXN@Z
_TEXT	SEGMENT
this$ = 224
TimeDelta$ = 232
?MoveBackward@CKalienina@Client@@AEAAXN@Z PROC		; Client::CKalienina::MoveBackward, COMDAT

; 246  : {

$LN4:
  00000	f2 0f 11 4c 24
	10		 movsd	 QWORD PTR [rsp+16], xmm1
  00006	48 89 4c 24 08	 mov	 QWORD PTR [rsp+8], rcx
  0000b	55		 push	 rbp
  0000c	57		 push	 rdi
  0000d	48 81 ec e8 00
	00 00		 sub	 rsp, 232		; 000000e8H
  00014	48 8d 6c 24 20	 lea	 rbp, QWORD PTR [rsp+32]
  00019	48 8b fc	 mov	 rdi, rsp
  0001c	b9 3a 00 00 00	 mov	 ecx, 58			; 0000003aH
  00021	b8 cc cc cc cc	 mov	 eax, -858993460		; ccccccccH
  00026	f3 ab		 rep stosd
  00028	48 8b 8c 24 08
	01 00 00	 mov	 rcx, QWORD PTR [rsp+264]

; 247  : 	if (!m_bMoveable)

  00030	48 8b 85 e0 00
	00 00		 mov	 rax, QWORD PTR this$[rbp]
  00037	0f b6 80 c8 00
	00 00		 movzx	 eax, BYTE PTR [rax+200]
  0003e	85 c0		 test	 eax, eax
  00040	75 02		 jne	 SHORT $LN2@MoveBackwa

; 248  : 		return;

  00042	eb 28		 jmp	 SHORT $LN1@MoveBackwa
$LN2@MoveBackwa:

; 249  : 
; 250  : 	BackwardRotaion(TimeDelta);

  00044	f2 0f 10 8d e8
	00 00 00	 movsd	 xmm1, QWORD PTR TimeDelta$[rbp]
  0004c	48 8b 8d e0 00
	00 00		 mov	 rcx, QWORD PTR this$[rbp]
  00053	e8 00 00 00 00	 call	 ?BackwardRotaion@CKalienina@Client@@AEAAXN@Z ; Client::CKalienina::BackwardRotaion

; 251  : 	Movement(TimeDelta);

  00058	f2 0f 10 8d e8
	00 00 00	 movsd	 xmm1, QWORD PTR TimeDelta$[rbp]
  00060	48 8b 8d e0 00
	00 00		 mov	 rcx, QWORD PTR this$[rbp]
  00067	e8 00 00 00 00	 call	 ?Movement@CKalienina@Client@@AEAAXN@Z ; Client::CKalienina::Movement
$LN1@MoveBackwa:

; 252  : }

  0006c	48 8d a5 c8 00
	00 00		 lea	 rsp, QWORD PTR [rbp+200]
  00073	5f		 pop	 rdi
  00074	5d		 pop	 rbp
  00075	c3		 ret	 0
?MoveBackward@CKalienina@Client@@AEAAXN@Z ENDP		; Client::CKalienina::MoveBackward
_TEXT	ENDS
; Function compile flags: /Odtp /RTCsu /ZI
; File c:\github\framework\client\private\kalienina.cpp
;	COMDAT ?MoveForward@CKalienina@Client@@AEAAXN@Z
_TEXT	SEGMENT
this$ = 224
TimeDelta$ = 232
?MoveForward@CKalienina@Client@@AEAAXN@Z PROC		; Client::CKalienina::MoveForward, COMDAT

; 237  : {

$LN4:
  00000	f2 0f 11 4c 24
	10		 movsd	 QWORD PTR [rsp+16], xmm1
  00006	48 89 4c 24 08	 mov	 QWORD PTR [rsp+8], rcx
  0000b	55		 push	 rbp
  0000c	57		 push	 rdi
  0000d	48 81 ec e8 00
	00 00		 sub	 rsp, 232		; 000000e8H
  00014	48 8d 6c 24 20	 lea	 rbp, QWORD PTR [rsp+32]
  00019	48 8b fc	 mov	 rdi, rsp
  0001c	b9 3a 00 00 00	 mov	 ecx, 58			; 0000003aH
  00021	b8 cc cc cc cc	 mov	 eax, -858993460		; ccccccccH
  00026	f3 ab		 rep stosd
  00028	48 8b 8c 24 08
	01 00 00	 mov	 rcx, QWORD PTR [rsp+264]

; 238  : 	if (!m_bMoveable)

  00030	48 8b 85 e0 00
	00 00		 mov	 rax, QWORD PTR this$[rbp]
  00037	0f b6 80 c8 00
	00 00		 movzx	 eax, BYTE PTR [rax+200]
  0003e	85 c0		 test	 eax, eax
  00040	75 02		 jne	 SHORT $LN2@MoveForwar

; 239  : 		return;

  00042	eb 28		 jmp	 SHORT $LN1@MoveForwar
$LN2@MoveForwar:

; 240  : 	
; 241  : 	ForwardRotaion(TimeDelta);

  00044	f2 0f 10 8d e8
	00 00 00	 movsd	 xmm1, QWORD PTR TimeDelta$[rbp]
  0004c	48 8b 8d e0 00
	00 00		 mov	 rcx, QWORD PTR this$[rbp]
  00053	e8 00 00 00 00	 call	 ?ForwardRotaion@CKalienina@Client@@AEAAXN@Z ; Client::CKalienina::ForwardRotaion

; 242  : 	Movement(TimeDelta);

  00058	f2 0f 10 8d e8
	00 00 00	 movsd	 xmm1, QWORD PTR TimeDelta$[rbp]
  00060	48 8b 8d e0 00
	00 00		 mov	 rcx, QWORD PTR this$[rbp]
  00067	e8 00 00 00 00	 call	 ?Movement@CKalienina@Client@@AEAAXN@Z ; Client::CKalienina::Movement
$LN1@MoveForwar:

; 243  : }

  0006c	48 8d a5 c8 00
	00 00		 lea	 rsp, QWORD PTR [rbp+200]
  00073	5f		 pop	 rdi
  00074	5d		 pop	 rbp
  00075	c3		 ret	 0
?MoveForward@CKalienina@Client@@AEAAXN@Z ENDP		; Client::CKalienina::MoveForward
_TEXT	ENDS
; Function compile flags: /Odtp /RTCsu /ZI
; File c:\github\framework\client\private\kalienina.cpp
;	COMDAT ?Idle@CKalienina@Client@@AEAAXXZ
_TEXT	SEGMENT
this$ = 224
?Idle@CKalienina@Client@@AEAAXXZ PROC			; Client::CKalienina::Idle, COMDAT

; 229  : {

$LN3:
  00000	48 89 4c 24 08	 mov	 QWORD PTR [rsp+8], rcx
  00005	55		 push	 rbp
  00006	57		 push	 rdi
  00007	48 81 ec e8 00
	00 00		 sub	 rsp, 232		; 000000e8H
  0000e	48 8d 6c 24 20	 lea	 rbp, QWORD PTR [rsp+32]
  00013	48 8b fc	 mov	 rdi, rsp
  00016	b9 3a 00 00 00	 mov	 ecx, 58			; 0000003aH
  0001b	b8 cc cc cc cc	 mov	 eax, -858993460		; ccccccccH
  00020	f3 ab		 rep stosd
  00022	48 8b 8c 24 08
	01 00 00	 mov	 rcx, QWORD PTR [rsp+264]

; 230  : 	m_bAttackable = true;

  0002a	48 8b 85 e0 00
	00 00		 mov	 rax, QWORD PTR this$[rbp]
  00031	c6 80 c9 00 00
	00 01		 mov	 BYTE PTR [rax+201], 1

; 231  : 	m_bMoveable = true;

  00038	48 8b 85 e0 00
	00 00		 mov	 rax, QWORD PTR this$[rbp]
  0003f	c6 80 c8 00 00
	00 01		 mov	 BYTE PTR [rax+200], 1

; 232  : 
; 233  : 	SetAnimation(CLIP::STAND2, CAnimation::TYPE::LOOP);

  00046	41 b8 01 00 00
	00		 mov	 r8d, 1
  0004c	ba 29 00 00 00	 mov	 edx, 41			; 00000029H
  00051	48 8b 8d e0 00
	00 00		 mov	 rcx, QWORD PTR this$[rbp]
  00058	e8 00 00 00 00	 call	 ?SetAnimation@CKalienina@Client@@AEAAXW4CLIP@12@W4TYPE@CAnimation@Engine@@@Z ; Client::CKalienina::SetAnimation

; 234  : }

  0005d	48 8d a5 c8 00
	00 00		 lea	 rsp, QWORD PTR [rbp+200]
  00064	5f		 pop	 rdi
  00065	5d		 pop	 rbp
  00066	c3		 ret	 0
?Idle@CKalienina@Client@@AEAAXXZ ENDP			; Client::CKalienina::Idle
_TEXT	ENDS
; Function compile flags: /Odtp /RTCsu /ZI
; File c:\github\framework\client\private\kalienina.cpp
;	COMDAT ?KeyInput@CKalienina@Client@@AEAAXN@Z
_TEXT	SEGMENT
pGameInstance$ = 8
this$ = 256
TimeDelta$ = 264
?KeyInput@CKalienina@Client@@AEAAXN@Z PROC		; Client::CKalienina::KeyInput, COMDAT

; 206  : {

$LN6:
  00000	f2 0f 11 4c 24
	10		 movsd	 QWORD PTR [rsp+16], xmm1
  00006	48 89 4c 24 08	 mov	 QWORD PTR [rsp+8], rcx
  0000b	55		 push	 rbp
  0000c	57		 push	 rdi
  0000d	48 81 ec 08 01
	00 00		 sub	 rsp, 264		; 00000108H
  00014	48 8d 6c 24 20	 lea	 rbp, QWORD PTR [rsp+32]
  00019	48 8b fc	 mov	 rdi, rsp
  0001c	b9 42 00 00 00	 mov	 ecx, 66			; 00000042H
  00021	b8 cc cc cc cc	 mov	 eax, -858993460		; ccccccccH
  00026	f3 ab		 rep stosd
  00028	48 8b 8c 24 28
	01 00 00	 mov	 rcx, QWORD PTR [rsp+296]

; 207  : 	CGameInstance* pGameInstance = CGameInstance::GetInstance();

  00030	ff 15 00 00 00
	00		 call	 QWORD PTR __imp_?GetInstance@CGameInstance@Engine@@SAPEAV12@XZ
  00036	48 89 45 08	 mov	 QWORD PTR pGameInstance$[rbp], rax

; 208  : 
; 209  : 	InputWASD(TimeDelta);

  0003a	f2 0f 10 8d 08
	01 00 00	 movsd	 xmm1, QWORD PTR TimeDelta$[rbp]
  00042	48 8b 8d 00 01
	00 00		 mov	 rcx, QWORD PTR this$[rbp]
  00049	e8 00 00 00 00	 call	 ?InputWASD@CKalienina@Client@@AEAAXN@Z ; Client::CKalienina::InputWASD

; 210  : 
; 211  : 	if (AnimationCompare(CLIP::MOVE1))

  0004e	ba 20 00 00 00	 mov	 edx, 32			; 00000020H
  00053	48 8b 8d 00 01
	00 00		 mov	 rcx, QWORD PTR this$[rbp]
  0005a	e8 00 00 00 00	 call	 ?AnimationCompare@CKalienina@Client@@AEAA_NW4CLIP@12@@Z ; Client::CKalienina::AnimationCompare
  0005f	0f b6 c0	 movzx	 eax, al
  00062	85 c0		 test	 eax, eax
  00064	74 0e		 je	 SHORT $LN2@KeyInput

; 212  : 	{
; 213  : 		m_bDashReady = false;

  00066	48 8b 85 00 01
	00 00		 mov	 rax, QWORD PTR this$[rbp]
  0006d	c6 80 d2 00 00
	00 00		 mov	 BYTE PTR [rax+210], 0
$LN2@KeyInput:

; 214  : 	}
; 215  : 
; 216  : 	if (pGameInstance->Input_MouseState_Custom(DIMK_LB) == KEY_STATE::TAP)

  00074	33 d2		 xor	 edx, edx
  00076	48 8b 4d 08	 mov	 rcx, QWORD PTR pGameInstance$[rbp]
  0007a	ff 15 00 00 00
	00		 call	 QWORD PTR __imp_?Input_MouseState_Custom@CGameInstance@Engine@@QEAA?AW4KEY_STATE@2@W4MOUSE_KEYSTATE@2@@Z
  00080	83 f8 01	 cmp	 eax, 1
  00083	75 0c		 jne	 SHORT $LN3@KeyInput

; 217  : 	{
; 218  : 		Attack();

  00085	48 8b 8d 00 01
	00 00		 mov	 rcx, QWORD PTR this$[rbp]
  0008c	e8 00 00 00 00	 call	 ?Attack@CKalienina@Client@@AEAAXXZ ; Client::CKalienina::Attack
$LN3@KeyInput:

; 219  : 	}
; 220  : 	
; 221  : 	if (mModel->AnimationIsFinish())

  00091	48 8b 85 00 01
	00 00		 mov	 rax, QWORD PTR this$[rbp]
  00098	48 8b 88 88 00
	00 00		 mov	 rcx, QWORD PTR [rax+136]
  0009f	ff 15 00 00 00
	00		 call	 QWORD PTR __imp_?AnimationIsFinish@CModel@Engine@@QEAA_NXZ
  000a5	0f b6 c0	 movzx	 eax, al
  000a8	85 c0		 test	 eax, eax
  000aa	74 0c		 je	 SHORT $LN4@KeyInput

; 222  : 	{
; 223  : 		Idle();

  000ac	48 8b 8d 00 01
	00 00		 mov	 rcx, QWORD PTR this$[rbp]
  000b3	e8 00 00 00 00	 call	 ?Idle@CKalienina@Client@@AEAAXXZ ; Client::CKalienina::Idle
$LN4@KeyInput:

; 224  : 	}
; 225  : 
; 226  : }

  000b8	48 8d a5 e8 00
	00 00		 lea	 rsp, QWORD PTR [rbp+232]
  000bf	5f		 pop	 rdi
  000c0	5d		 pop	 rbp
  000c1	c3		 ret	 0
?KeyInput@CKalienina@Client@@AEAAXN@Z ENDP		; Client::CKalienina::KeyInput
_TEXT	ENDS
; Function compile flags: /Odtp /RTCsu /ZI
; File c:\github\framework\client\private\kalienina.cpp
;	COMDAT ?InputWASD@CKalienina@Client@@AEAAXN@Z
_TEXT	SEGMENT
pGameInstance$ = 8
this$ = 256
TimeDelta$ = 264
?InputWASD@CKalienina@Client@@AEAAXN@Z PROC		; Client::CKalienina::InputWASD, COMDAT

; 431  : {

$LN20:
  00000	f2 0f 11 4c 24
	10		 movsd	 QWORD PTR [rsp+16], xmm1
  00006	48 89 4c 24 08	 mov	 QWORD PTR [rsp+8], rcx
  0000b	55		 push	 rbp
  0000c	57		 push	 rdi
  0000d	48 81 ec 08 01
	00 00		 sub	 rsp, 264		; 00000108H
  00014	48 8d 6c 24 20	 lea	 rbp, QWORD PTR [rsp+32]
  00019	48 8b fc	 mov	 rdi, rsp
  0001c	b9 42 00 00 00	 mov	 ecx, 66			; 00000042H
  00021	b8 cc cc cc cc	 mov	 eax, -858993460		; ccccccccH
  00026	f3 ab		 rep stosd
  00028	48 8b 8c 24 28
	01 00 00	 mov	 rcx, QWORD PTR [rsp+296]

; 432  : 	CGameInstance* pGameInstance = CGameInstance::GetInstance();

  00030	ff 15 00 00 00
	00		 call	 QWORD PTR __imp_?GetInstance@CGameInstance@Engine@@SAPEAV12@XZ
  00036	48 89 45 08	 mov	 QWORD PTR pGameInstance$[rbp], rax

; 433  : 
; 434  : 	//if (pGameInstance->Input_KeyState_Custom(DIK_W) == KEY_STATE::TAP)
; 435  : 	//{
; 436  : 	//	if (m_bDashReady == false)
; 437  : 	//		m_bDashReady = true;
; 438  : 	//	else
; 439  : 	//	{
; 440  : 	//		SetAnimation(CLIP::MOVE1, CAnimation::TYPE::ONE);
; 441  : 	//	}
; 442  : 	//}
; 443  : 
; 444  : 	if (pGameInstance->Input_KeyState_Custom(DIK_W) == KEY_STATE::TAP)

  0003a	ba 11 00 00 00	 mov	 edx, 17
  0003f	48 8b 4d 08	 mov	 rcx, QWORD PTR pGameInstance$[rbp]
  00043	ff 15 00 00 00
	00		 call	 QWORD PTR __imp_?Input_KeyState_Custom@CGameInstance@Engine@@QEAA?AW4KEY_STATE@2@H@Z
  00049	83 f8 01	 cmp	 eax, 1
  0004c	75 1e		 jne	 SHORT $LN2@InputWASD

; 445  : 		m_iWASDCount++;

  0004e	48 8b 85 00 01
	00 00		 mov	 rax, QWORD PTR this$[rbp]
  00055	8b 80 cc 00 00
	00		 mov	 eax, DWORD PTR [rax+204]
  0005b	ff c0		 inc	 eax
  0005d	48 8b 8d 00 01
	00 00		 mov	 rcx, QWORD PTR this$[rbp]
  00064	89 81 cc 00 00
	00		 mov	 DWORD PTR [rcx+204], eax
  0006a	eb 30		 jmp	 SHORT $LN3@InputWASD
$LN2@InputWASD:

; 446  : 	else if(pGameInstance->Input_KeyState_Custom(DIK_W) == KEY_STATE::AWAY)

  0006c	ba 11 00 00 00	 mov	 edx, 17
  00071	48 8b 4d 08	 mov	 rcx, QWORD PTR pGameInstance$[rbp]
  00075	ff 15 00 00 00
	00		 call	 QWORD PTR __imp_?Input_KeyState_Custom@CGameInstance@Engine@@QEAA?AW4KEY_STATE@2@H@Z
  0007b	83 f8 02	 cmp	 eax, 2
  0007e	75 1c		 jne	 SHORT $LN4@InputWASD

; 447  : 		m_iWASDCount--;

  00080	48 8b 85 00 01
	00 00		 mov	 rax, QWORD PTR this$[rbp]
  00087	8b 80 cc 00 00
	00		 mov	 eax, DWORD PTR [rax+204]
  0008d	ff c8		 dec	 eax
  0008f	48 8b 8d 00 01
	00 00		 mov	 rcx, QWORD PTR this$[rbp]
  00096	89 81 cc 00 00
	00		 mov	 DWORD PTR [rcx+204], eax
$LN4@InputWASD:
$LN3@InputWASD:

; 448  : 
; 449  : 	if (pGameInstance->Input_KeyState_Custom(DIK_A) == KEY_STATE::TAP)

  0009c	ba 1e 00 00 00	 mov	 edx, 30
  000a1	48 8b 4d 08	 mov	 rcx, QWORD PTR pGameInstance$[rbp]
  000a5	ff 15 00 00 00
	00		 call	 QWORD PTR __imp_?Input_KeyState_Custom@CGameInstance@Engine@@QEAA?AW4KEY_STATE@2@H@Z
  000ab	83 f8 01	 cmp	 eax, 1
  000ae	75 1e		 jne	 SHORT $LN5@InputWASD

; 450  : 		m_iWASDCount++;

  000b0	48 8b 85 00 01
	00 00		 mov	 rax, QWORD PTR this$[rbp]
  000b7	8b 80 cc 00 00
	00		 mov	 eax, DWORD PTR [rax+204]
  000bd	ff c0		 inc	 eax
  000bf	48 8b 8d 00 01
	00 00		 mov	 rcx, QWORD PTR this$[rbp]
  000c6	89 81 cc 00 00
	00		 mov	 DWORD PTR [rcx+204], eax
  000cc	eb 30		 jmp	 SHORT $LN6@InputWASD
$LN5@InputWASD:

; 451  : 	else if (pGameInstance->Input_KeyState_Custom(DIK_A) == KEY_STATE::AWAY)

  000ce	ba 1e 00 00 00	 mov	 edx, 30
  000d3	48 8b 4d 08	 mov	 rcx, QWORD PTR pGameInstance$[rbp]
  000d7	ff 15 00 00 00
	00		 call	 QWORD PTR __imp_?Input_KeyState_Custom@CGameInstance@Engine@@QEAA?AW4KEY_STATE@2@H@Z
  000dd	83 f8 02	 cmp	 eax, 2
  000e0	75 1c		 jne	 SHORT $LN7@InputWASD

; 452  : 		m_iWASDCount--;

  000e2	48 8b 85 00 01
	00 00		 mov	 rax, QWORD PTR this$[rbp]
  000e9	8b 80 cc 00 00
	00		 mov	 eax, DWORD PTR [rax+204]
  000ef	ff c8		 dec	 eax
  000f1	48 8b 8d 00 01
	00 00		 mov	 rcx, QWORD PTR this$[rbp]
  000f8	89 81 cc 00 00
	00		 mov	 DWORD PTR [rcx+204], eax
$LN7@InputWASD:
$LN6@InputWASD:

; 453  : 
; 454  : 	if (pGameInstance->Input_KeyState_Custom(DIK_S) == KEY_STATE::TAP)

  000fe	ba 1f 00 00 00	 mov	 edx, 31
  00103	48 8b 4d 08	 mov	 rcx, QWORD PTR pGameInstance$[rbp]
  00107	ff 15 00 00 00
	00		 call	 QWORD PTR __imp_?Input_KeyState_Custom@CGameInstance@Engine@@QEAA?AW4KEY_STATE@2@H@Z
  0010d	83 f8 01	 cmp	 eax, 1
  00110	75 1e		 jne	 SHORT $LN8@InputWASD

; 455  : 		m_iWASDCount++;

  00112	48 8b 85 00 01
	00 00		 mov	 rax, QWORD PTR this$[rbp]
  00119	8b 80 cc 00 00
	00		 mov	 eax, DWORD PTR [rax+204]
  0011f	ff c0		 inc	 eax
  00121	48 8b 8d 00 01
	00 00		 mov	 rcx, QWORD PTR this$[rbp]
  00128	89 81 cc 00 00
	00		 mov	 DWORD PTR [rcx+204], eax
  0012e	eb 30		 jmp	 SHORT $LN9@InputWASD
$LN8@InputWASD:

; 456  : 	else if (pGameInstance->Input_KeyState_Custom(DIK_S) == KEY_STATE::AWAY)

  00130	ba 1f 00 00 00	 mov	 edx, 31
  00135	48 8b 4d 08	 mov	 rcx, QWORD PTR pGameInstance$[rbp]
  00139	ff 15 00 00 00
	00		 call	 QWORD PTR __imp_?Input_KeyState_Custom@CGameInstance@Engine@@QEAA?AW4KEY_STATE@2@H@Z
  0013f	83 f8 02	 cmp	 eax, 2
  00142	75 1c		 jne	 SHORT $LN10@InputWASD

; 457  : 		m_iWASDCount--;

  00144	48 8b 85 00 01
	00 00		 mov	 rax, QWORD PTR this$[rbp]
  0014b	8b 80 cc 00 00
	00		 mov	 eax, DWORD PTR [rax+204]
  00151	ff c8		 dec	 eax
  00153	48 8b 8d 00 01
	00 00		 mov	 rcx, QWORD PTR this$[rbp]
  0015a	89 81 cc 00 00
	00		 mov	 DWORD PTR [rcx+204], eax
$LN10@InputWASD:
$LN9@InputWASD:

; 458  : 
; 459  : 	if (pGameInstance->Input_KeyState_Custom(DIK_D) == KEY_STATE::TAP)

  00160	ba 20 00 00 00	 mov	 edx, 32			; 00000020H
  00165	48 8b 4d 08	 mov	 rcx, QWORD PTR pGameInstance$[rbp]
  00169	ff 15 00 00 00
	00		 call	 QWORD PTR __imp_?Input_KeyState_Custom@CGameInstance@Engine@@QEAA?AW4KEY_STATE@2@H@Z
  0016f	83 f8 01	 cmp	 eax, 1
  00172	75 1e		 jne	 SHORT $LN11@InputWASD

; 460  : 		m_iWASDCount++;

  00174	48 8b 85 00 01
	00 00		 mov	 rax, QWORD PTR this$[rbp]
  0017b	8b 80 cc 00 00
	00		 mov	 eax, DWORD PTR [rax+204]
  00181	ff c0		 inc	 eax
  00183	48 8b 8d 00 01
	00 00		 mov	 rcx, QWORD PTR this$[rbp]
  0018a	89 81 cc 00 00
	00		 mov	 DWORD PTR [rcx+204], eax
  00190	eb 30		 jmp	 SHORT $LN12@InputWASD
$LN11@InputWASD:

; 461  : 	else if (pGameInstance->Input_KeyState_Custom(DIK_D) == KEY_STATE::AWAY)

  00192	ba 20 00 00 00	 mov	 edx, 32			; 00000020H
  00197	48 8b 4d 08	 mov	 rcx, QWORD PTR pGameInstance$[rbp]
  0019b	ff 15 00 00 00
	00		 call	 QWORD PTR __imp_?Input_KeyState_Custom@CGameInstance@Engine@@QEAA?AW4KEY_STATE@2@H@Z
  001a1	83 f8 02	 cmp	 eax, 2
  001a4	75 1c		 jne	 SHORT $LN13@InputWASD

; 462  : 		m_iWASDCount--;

  001a6	48 8b 85 00 01
	00 00		 mov	 rax, QWORD PTR this$[rbp]
  001ad	8b 80 cc 00 00
	00		 mov	 eax, DWORD PTR [rax+204]
  001b3	ff c8		 dec	 eax
  001b5	48 8b 8d 00 01
	00 00		 mov	 rcx, QWORD PTR this$[rbp]
  001bc	89 81 cc 00 00
	00		 mov	 DWORD PTR [rcx+204], eax
$LN13@InputWASD:
$LN12@InputWASD:

; 463  : 
; 464  : 	//
; 465  : 	//CTransform::TRANSFORM_DESC desc;
; 466  : 	//ZeroMemory(&desc, sizeof(CTransform::TRANSFORM_DESC));
; 467  : 	//desc.fMoveSpeed = m_fMoveSpeed;
; 468  : 	//desc.fRotationSpeed = XMConvertToRadians(m_fRotationSpeed);
; 469  : 
; 470  : 	TimeDelta = TimeDelta / m_iWASDCount;

  001c2	48 8b 85 00 01
	00 00		 mov	 rax, QWORD PTR this$[rbp]
  001c9	f2 0f 2a 80 cc
	00 00 00	 cvtsi2sd xmm0, DWORD PTR [rax+204]
  001d1	f2 0f 10 8d 08
	01 00 00	 movsd	 xmm1, QWORD PTR TimeDelta$[rbp]
  001d9	f2 0f 5e c8	 divsd	 xmm1, xmm0
  001dd	0f 28 c1	 movaps	 xmm0, xmm1
  001e0	f2 0f 11 85 08
	01 00 00	 movsd	 QWORD PTR TimeDelta$[rbp], xmm0

; 471  : 
; 472  : 	if (pGameInstance->Input_KeyState_Custom(DIK_W) == KEY_STATE::HOLD)

  001e8	ba 11 00 00 00	 mov	 edx, 17
  001ed	48 8b 4d 08	 mov	 rcx, QWORD PTR pGameInstance$[rbp]
  001f1	ff 15 00 00 00
	00		 call	 QWORD PTR __imp_?Input_KeyState_Custom@CGameInstance@Engine@@QEAA?AW4KEY_STATE@2@H@Z
  001f7	85 c0		 test	 eax, eax
  001f9	75 14		 jne	 SHORT $LN14@InputWASD

; 473  : 	{
; 474  : 		MoveForward(TimeDelta);

  001fb	f2 0f 10 8d 08
	01 00 00	 movsd	 xmm1, QWORD PTR TimeDelta$[rbp]
  00203	48 8b 8d 00 01
	00 00		 mov	 rcx, QWORD PTR this$[rbp]
  0020a	e8 00 00 00 00	 call	 ?MoveForward@CKalienina@Client@@AEAAXN@Z ; Client::CKalienina::MoveForward
$LN14@InputWASD:

; 475  : 	}
; 476  : 
; 477  : 	if (pGameInstance->Input_KeyState_Custom(DIK_S) == KEY_STATE::HOLD)

  0020f	ba 1f 00 00 00	 mov	 edx, 31
  00214	48 8b 4d 08	 mov	 rcx, QWORD PTR pGameInstance$[rbp]
  00218	ff 15 00 00 00
	00		 call	 QWORD PTR __imp_?Input_KeyState_Custom@CGameInstance@Engine@@QEAA?AW4KEY_STATE@2@H@Z
  0021e	85 c0		 test	 eax, eax
  00220	75 14		 jne	 SHORT $LN15@InputWASD

; 478  : 	{
; 479  : 		MoveBackward(TimeDelta);

  00222	f2 0f 10 8d 08
	01 00 00	 movsd	 xmm1, QWORD PTR TimeDelta$[rbp]
  0022a	48 8b 8d 00 01
	00 00		 mov	 rcx, QWORD PTR this$[rbp]
  00231	e8 00 00 00 00	 call	 ?MoveBackward@CKalienina@Client@@AEAAXN@Z ; Client::CKalienina::MoveBackward
$LN15@InputWASD:

; 480  : 	}
; 481  : 
; 482  : 	if (pGameInstance->Input_KeyState_Custom(DIK_A) == KEY_STATE::HOLD)

  00236	ba 1e 00 00 00	 mov	 edx, 30
  0023b	48 8b 4d 08	 mov	 rcx, QWORD PTR pGameInstance$[rbp]
  0023f	ff 15 00 00 00
	00		 call	 QWORD PTR __imp_?Input_KeyState_Custom@CGameInstance@Engine@@QEAA?AW4KEY_STATE@2@H@Z
  00245	85 c0		 test	 eax, eax
  00247	75 14		 jne	 SHORT $LN16@InputWASD

; 483  : 	{
; 484  : 		MoveLeft(TimeDelta);

  00249	f2 0f 10 8d 08
	01 00 00	 movsd	 xmm1, QWORD PTR TimeDelta$[rbp]
  00251	48 8b 8d 00 01
	00 00		 mov	 rcx, QWORD PTR this$[rbp]
  00258	e8 00 00 00 00	 call	 ?MoveLeft@CKalienina@Client@@AEAAXN@Z ; Client::CKalienina::MoveLeft
$LN16@InputWASD:

; 485  : 	}
; 486  : 
; 487  : 	if (pGameInstance->Input_KeyState_Custom(DIK_D) == KEY_STATE::HOLD)

  0025d	ba 20 00 00 00	 mov	 edx, 32			; 00000020H
  00262	48 8b 4d 08	 mov	 rcx, QWORD PTR pGameInstance$[rbp]
  00266	ff 15 00 00 00
	00		 call	 QWORD PTR __imp_?Input_KeyState_Custom@CGameInstance@Engine@@QEAA?AW4KEY_STATE@2@H@Z
  0026c	85 c0		 test	 eax, eax
  0026e	75 14		 jne	 SHORT $LN17@InputWASD

; 488  : 	{
; 489  : 		MoveRight(TimeDelta);

  00270	f2 0f 10 8d 08
	01 00 00	 movsd	 xmm1, QWORD PTR TimeDelta$[rbp]
  00278	48 8b 8d 00 01
	00 00		 mov	 rcx, QWORD PTR this$[rbp]
  0027f	e8 00 00 00 00	 call	 ?MoveRight@CKalienina@Client@@AEAAXN@Z ; Client::CKalienina::MoveRight
$LN17@InputWASD:

; 490  : 	}
; 491  : 
; 492  : 	if (m_bMove &&
; 493  : 		pGameInstance->Input_KeyState_Custom(DIK_W) != KEY_STATE::HOLD &&
; 494  : 		pGameInstance->Input_KeyState_Custom(DIK_A) != KEY_STATE::HOLD &&
; 495  : 		pGameInstance->Input_KeyState_Custom(DIK_S) != KEY_STATE::HOLD &&

  00284	48 8b 85 00 01
	00 00		 mov	 rax, QWORD PTR this$[rbp]
  0028b	0f b6 80 d0 00
	00 00		 movzx	 eax, BYTE PTR [rax+208]
  00292	85 c0		 test	 eax, eax
  00294	74 58		 je	 SHORT $LN18@InputWASD
  00296	ba 11 00 00 00	 mov	 edx, 17
  0029b	48 8b 4d 08	 mov	 rcx, QWORD PTR pGameInstance$[rbp]
  0029f	ff 15 00 00 00
	00		 call	 QWORD PTR __imp_?Input_KeyState_Custom@CGameInstance@Engine@@QEAA?AW4KEY_STATE@2@H@Z
  002a5	85 c0		 test	 eax, eax
  002a7	74 45		 je	 SHORT $LN18@InputWASD
  002a9	ba 1e 00 00 00	 mov	 edx, 30
  002ae	48 8b 4d 08	 mov	 rcx, QWORD PTR pGameInstance$[rbp]
  002b2	ff 15 00 00 00
	00		 call	 QWORD PTR __imp_?Input_KeyState_Custom@CGameInstance@Engine@@QEAA?AW4KEY_STATE@2@H@Z
  002b8	85 c0		 test	 eax, eax
  002ba	74 32		 je	 SHORT $LN18@InputWASD
  002bc	ba 1f 00 00 00	 mov	 edx, 31
  002c1	48 8b 4d 08	 mov	 rcx, QWORD PTR pGameInstance$[rbp]
  002c5	ff 15 00 00 00
	00		 call	 QWORD PTR __imp_?Input_KeyState_Custom@CGameInstance@Engine@@QEAA?AW4KEY_STATE@2@H@Z
  002cb	85 c0		 test	 eax, eax
  002cd	74 1f		 je	 SHORT $LN18@InputWASD
  002cf	ba 20 00 00 00	 mov	 edx, 32			; 00000020H
  002d4	48 8b 4d 08	 mov	 rcx, QWORD PTR pGameInstance$[rbp]
  002d8	ff 15 00 00 00
	00		 call	 QWORD PTR __imp_?Input_KeyState_Custom@CGameInstance@Engine@@QEAA?AW4KEY_STATE@2@H@Z
  002de	85 c0		 test	 eax, eax
  002e0	74 0c		 je	 SHORT $LN18@InputWASD

; 496  : 		pGameInstance->Input_KeyState_Custom(DIK_D) != KEY_STATE::HOLD)
; 497  : 	{
; 498  : 		MoveStop();

  002e2	48 8b 8d 00 01
	00 00		 mov	 rcx, QWORD PTR this$[rbp]
  002e9	e8 00 00 00 00	 call	 ?MoveStop@CKalienina@Client@@AEAAXXZ ; Client::CKalienina::MoveStop
$LN18@InputWASD:

; 499  : 	}
; 500  : }

  002ee	48 8d a5 e8 00
	00 00		 lea	 rsp, QWORD PTR [rbp+232]
  002f5	5f		 pop	 rdi
  002f6	5d		 pop	 rbp
  002f7	c3		 ret	 0
?InputWASD@CKalienina@Client@@AEAAXN@Z ENDP		; Client::CKalienina::InputWASD
_TEXT	ENDS
; Function compile flags: /Odtp /RTCsu /ZI
; File c:\github\framework\client\private\kalienina.cpp
;	COMDAT ?Movement@CKalienina@Client@@AEAAXN@Z
_TEXT	SEGMENT
this$ = 224
TimeDelta$ = 232
?Movement@CKalienina@Client@@AEAAXN@Z PROC		; Client::CKalienina::Movement, COMDAT

; 409  : {

$LN11:
  00000	f2 0f 11 4c 24
	10		 movsd	 QWORD PTR [rsp+16], xmm1
  00006	48 89 4c 24 08	 mov	 QWORD PTR [rsp+8], rcx
  0000b	55		 push	 rbp
  0000c	57		 push	 rdi
  0000d	48 81 ec e8 00
	00 00		 sub	 rsp, 232		; 000000e8H
  00014	48 8d 6c 24 20	 lea	 rbp, QWORD PTR [rsp+32]
  00019	48 8b fc	 mov	 rdi, rsp
  0001c	b9 3a 00 00 00	 mov	 ecx, 58			; 0000003aH
  00021	b8 cc cc cc cc	 mov	 eax, -858993460		; ccccccccH
  00026	f3 ab		 rep stosd
  00028	48 8b 8c 24 08
	01 00 00	 mov	 rcx, QWORD PTR [rsp+264]

; 410  : 	if (AnimationCompare(CLIP::STAND1) || AnimationCompare(CLIP::STAND2) || AnimationCompare(CLIP::RUN_START_END) || AnimationCompare(CLIP::STOP))

  00030	ba 28 00 00 00	 mov	 edx, 40			; 00000028H
  00035	48 8b 8d e0 00
	00 00		 mov	 rcx, QWORD PTR this$[rbp]
  0003c	e8 00 00 00 00	 call	 ?AnimationCompare@CKalienina@Client@@AEAA_NW4CLIP@12@@Z ; Client::CKalienina::AnimationCompare
  00041	0f b6 c0	 movzx	 eax, al
  00044	85 c0		 test	 eax, eax
  00046	75 48		 jne	 SHORT $LN4@Movement
  00048	ba 29 00 00 00	 mov	 edx, 41			; 00000029H
  0004d	48 8b 8d e0 00
	00 00		 mov	 rcx, QWORD PTR this$[rbp]
  00054	e8 00 00 00 00	 call	 ?AnimationCompare@CKalienina@Client@@AEAA_NW4CLIP@12@@Z ; Client::CKalienina::AnimationCompare
  00059	0f b6 c0	 movzx	 eax, al
  0005c	85 c0		 test	 eax, eax
  0005e	75 30		 jne	 SHORT $LN4@Movement
  00060	ba 26 00 00 00	 mov	 edx, 38			; 00000026H
  00065	48 8b 8d e0 00
	00 00		 mov	 rcx, QWORD PTR this$[rbp]
  0006c	e8 00 00 00 00	 call	 ?AnimationCompare@CKalienina@Client@@AEAA_NW4CLIP@12@@Z ; Client::CKalienina::AnimationCompare
  00071	0f b6 c0	 movzx	 eax, al
  00074	85 c0		 test	 eax, eax
  00076	75 18		 jne	 SHORT $LN4@Movement
  00078	ba 2d 00 00 00	 mov	 edx, 45			; 0000002dH
  0007d	48 8b 8d e0 00
	00 00		 mov	 rcx, QWORD PTR this$[rbp]
  00084	e8 00 00 00 00	 call	 ?AnimationCompare@CKalienina@Client@@AEAA_NW4CLIP@12@@Z ; Client::CKalienina::AnimationCompare
  00089	0f b6 c0	 movzx	 eax, al
  0008c	85 c0		 test	 eax, eax
  0008e	74 27		 je	 SHORT $LN2@Movement
$LN4@Movement:

; 411  : 	{
; 412  : 		m_bMove = true;

  00090	48 8b 85 e0 00
	00 00		 mov	 rax, QWORD PTR this$[rbp]
  00097	c6 80 d0 00 00
	00 01		 mov	 BYTE PTR [rax+208], 1

; 413  : 		SetAnimation(CLIP::RUN_START, CAnimation::TYPE::ONE);

  0009e	45 33 c0	 xor	 r8d, r8d
  000a1	ba 25 00 00 00	 mov	 edx, 37			; 00000025H
  000a6	48 8b 8d e0 00
	00 00		 mov	 rcx, QWORD PTR this$[rbp]
  000ad	e8 00 00 00 00	 call	 ?SetAnimation@CKalienina@Client@@AEAAXW4CLIP@12@W4TYPE@CAnimation@Engine@@@Z ; Client::CKalienina::SetAnimation
  000b2	e9 90 00 00 00	 jmp	 $LN3@Movement
$LN2@Movement:

; 414  : 	}
; 415  : 	else if (AnimationCompare(CLIP::RUN_START))

  000b7	ba 25 00 00 00	 mov	 edx, 37			; 00000025H
  000bc	48 8b 8d e0 00
	00 00		 mov	 rcx, QWORD PTR this$[rbp]
  000c3	e8 00 00 00 00	 call	 ?AnimationCompare@CKalienina@Client@@AEAA_NW4CLIP@12@@Z ; Client::CKalienina::AnimationCompare
  000c8	0f b6 c0	 movzx	 eax, al
  000cb	85 c0		 test	 eax, eax
  000cd	74 2e		 je	 SHORT $LN5@Movement

; 416  : 	{
; 417  : 		if (FinishCheckPlay(CLIP::RUN, CAnimation::TYPE::LOOP))

  000cf	41 b8 01 00 00
	00		 mov	 r8d, 1
  000d5	ba 22 00 00 00	 mov	 edx, 34			; 00000022H
  000da	48 8b 8d e0 00
	00 00		 mov	 rcx, QWORD PTR this$[rbp]
  000e1	e8 00 00 00 00	 call	 ?FinishCheckPlay@CKalienina@Client@@AEAA_NW4CLIP@12@W4TYPE@CAnimation@Engine@@@Z ; Client::CKalienina::FinishCheckPlay
  000e6	0f b6 c0	 movzx	 eax, al
  000e9	85 c0		 test	 eax, eax
  000eb	74 0e		 je	 SHORT $LN7@Movement

; 418  : 			m_bRun = true;

  000ed	48 8b 85 e0 00
	00 00		 mov	 rax, QWORD PTR this$[rbp]
  000f4	c6 80 d1 00 00
	00 01		 mov	 BYTE PTR [rax+209], 1
$LN7@Movement:

; 419  : 	}

  000fb	eb 4a		 jmp	 SHORT $LN6@Movement
$LN5@Movement:

; 420  : 	else if (AnimationCompare(CLIP::RUN))

  000fd	ba 22 00 00 00	 mov	 edx, 34			; 00000022H
  00102	48 8b 8d e0 00
	00 00		 mov	 rcx, QWORD PTR this$[rbp]
  00109	e8 00 00 00 00	 call	 ?AnimationCompare@CKalienina@Client@@AEAA_NW4CLIP@12@@Z ; Client::CKalienina::AnimationCompare
  0010e	0f b6 c0	 movzx	 eax, al
  00111	85 c0		 test	 eax, eax
  00113	74 1e		 je	 SHORT $LN8@Movement

; 421  : 	{
; 422  : 		mTransform->MoveForward(TimeDelta);

  00115	f2 0f 10 8d e8
	00 00 00	 movsd	 xmm1, QWORD PTR TimeDelta$[rbp]
  0011d	48 8b 85 e0 00
	00 00		 mov	 rax, QWORD PTR this$[rbp]
  00124	48 8b 88 80 00
	00 00		 mov	 rcx, QWORD PTR [rax+128]
  0012b	ff 15 00 00 00
	00		 call	 QWORD PTR __imp_?MoveForward@CTransform@Engine@@QEAAXN@Z

; 423  : 	}
; 424  : 	else

  00131	eb 14		 jmp	 SHORT $LN9@Movement
$LN8@Movement:

; 425  : 	{
; 426  : 		FinishCheckPlay(CLIP::RUN_START, CAnimation::TYPE::ONE);

  00133	45 33 c0	 xor	 r8d, r8d
  00136	ba 25 00 00 00	 mov	 edx, 37			; 00000025H
  0013b	48 8b 8d e0 00
	00 00		 mov	 rcx, QWORD PTR this$[rbp]
  00142	e8 00 00 00 00	 call	 ?FinishCheckPlay@CKalienina@Client@@AEAA_NW4CLIP@12@W4TYPE@CAnimation@Engine@@@Z ; Client::CKalienina::FinishCheckPlay
$LN9@Movement:
$LN6@Movement:
$LN3@Movement:

; 427  : 	}
; 428  : }

  00147	48 8d a5 c8 00
	00 00		 lea	 rsp, QWORD PTR [rbp+200]
  0014e	5f		 pop	 rdi
  0014f	5d		 pop	 rbp
  00150	c3		 ret	 0
?Movement@CKalienina@Client@@AEAAXN@Z ENDP		; Client::CKalienina::Movement
_TEXT	ENDS
; Function compile flags: /Odtp /RTCsu /ZI
; File c:\github\framework\client\private\kalienina.cpp
;	COMDAT ?LeftRotation@CKalienina@Client@@AEAAXN@Z
_TEXT	SEGMENT
pGameInstance$ = 8
cameraMatrix$ = 48
vCameraRight$ = 144
vCameraLook$ = 192
vPlayerRight$ = 240
fRadianAngle$ = 276
AxisY$ = 308
$T4 = 736
$T5 = 784
$T6 = 832
$T7 = 880
$T8 = 928
$T9 = 976
$T10 = 1024
$T11 = 1072
$T12 = 1120
$T13 = 1168
$T14 = 1216
__$ArrayPad$ = 1240
this$ = 1280
TimeDelta$ = 1288
?LeftRotation@CKalienina@Client@@AEAAXN@Z PROC		; Client::CKalienina::LeftRotation, COMDAT

; 392  : {

$LN5:
  00000	f2 0f 11 4c 24
	10		 movsd	 QWORD PTR [rsp+16], xmm1
  00006	48 89 4c 24 08	 mov	 QWORD PTR [rsp+8], rcx
  0000b	55		 push	 rbp
  0000c	57		 push	 rdi
  0000d	48 81 ec 08 05
	00 00		 sub	 rsp, 1288		; 00000508H
  00014	48 8d 6c 24 20	 lea	 rbp, QWORD PTR [rsp+32]
  00019	48 8b fc	 mov	 rdi, rsp
  0001c	b9 42 01 00 00	 mov	 ecx, 322		; 00000142H
  00021	b8 cc cc cc cc	 mov	 eax, -858993460		; ccccccccH
  00026	f3 ab		 rep stosd
  00028	48 8b 8c 24 28
	05 00 00	 mov	 rcx, QWORD PTR [rsp+1320]
  00030	48 8b 05 00 00
	00 00		 mov	 rax, QWORD PTR __security_cookie
  00037	48 33 c5	 xor	 rax, rbp
  0003a	48 89 85 d8 04
	00 00		 mov	 QWORD PTR __$ArrayPad$[rbp], rax

; 393  : 	CGameInstance* pGameInstance = CGameInstance::GetInstance();

  00041	ff 15 00 00 00
	00		 call	 QWORD PTR __imp_?GetInstance@CGameInstance@Engine@@SAPEAV12@XZ
  00047	48 89 45 08	 mov	 QWORD PTR pGameInstance$[rbp], rax

; 394  : 	_matrix cameraMatrix = pGameInstance->Get_Transform_Matrix_Inverse(CPipeLine::TRANSFORM_STATE::TS_VIEW);

  0004b	45 33 c0	 xor	 r8d, r8d
  0004e	48 8d 55 30	 lea	 rdx, QWORD PTR cameraMatrix$[rbp]
  00052	48 8b 4d 08	 mov	 rcx, QWORD PTR pGameInstance$[rbp]
  00056	ff 15 00 00 00
	00		 call	 QWORD PTR __imp_?Get_Transform_Matrix_Inverse@CGameInstance@Engine@@QEAA?AUXMMATRIX@DirectX@@W4TRANSFORM_STATE@CPipeLine@2@@Z

; 395  : 	_vector vCameraRight = cameraMatrix.r[0];

  0005c	b8 10 00 00 00	 mov	 eax, 16
  00061	48 6b c0 00	 imul	 rax, rax, 0
  00065	0f 10 44 05 30	 movups	 xmm0, XMMWORD PTR cameraMatrix$[rbp+rax]
  0006a	0f 11 85 90 00
	00 00		 movups	 XMMWORD PTR vCameraRight$[rbp], xmm0

; 396  : 	_vector vCameraLook = XMVector3Normalize(XMVector3Cross(vCameraRight, VECTOR_UP));

  00071	0f 57 db	 xorps	 xmm3, xmm3
  00074	0f 57 d2	 xorps	 xmm2, xmm2
  00077	f3 0f 10 0d 00
	00 00 00	 movss	 xmm1, DWORD PTR __real@3f800000
  0007f	0f 57 c0	 xorps	 xmm0, xmm0
  00082	e8 00 00 00 00	 call	 ?XMVectorSet@DirectX@@YQ?AT__m128@@MMMM@Z ; DirectX::XMVectorSet
  00087	0f 29 85 40 03
	00 00		 movaps	 XMMWORD PTR $T6[rbp], xmm0
  0008e	0f 28 8d 40 03
	00 00		 movaps	 xmm1, XMMWORD PTR $T6[rbp]
  00095	0f 28 85 90 00
	00 00		 movaps	 xmm0, XMMWORD PTR vCameraRight$[rbp]
  0009c	e8 00 00 00 00	 call	 ?XMVector3Cross@DirectX@@YQ?AT__m128@@T2@0@Z ; DirectX::XMVector3Cross
  000a1	0f 29 85 10 03
	00 00		 movaps	 XMMWORD PTR $T5[rbp], xmm0
  000a8	0f 28 85 10 03
	00 00		 movaps	 xmm0, XMMWORD PTR $T5[rbp]
  000af	e8 00 00 00 00	 call	 ?XMVector3Normalize@DirectX@@YQ?AT__m128@@T2@@Z ; DirectX::XMVector3Normalize
  000b4	0f 29 85 e0 02
	00 00		 movaps	 XMMWORD PTR $T4[rbp], xmm0
  000bb	0f 28 85 e0 02
	00 00		 movaps	 xmm0, XMMWORD PTR $T4[rbp]
  000c2	0f 29 85 c0 00
	00 00		 movaps	 XMMWORD PTR vCameraLook$[rbp], xmm0

; 397  : 	_vector vPlayerRight = XMVector3Normalize(mTransform->Get_State(CTransform::STATE_RIGHT));

  000c9	45 33 c0	 xor	 r8d, r8d
  000cc	48 8d 95 a0 03
	00 00		 lea	 rdx, QWORD PTR $T8[rbp]
  000d3	48 8b 85 00 05
	00 00		 mov	 rax, QWORD PTR this$[rbp]
  000da	48 8b 88 80 00
	00 00		 mov	 rcx, QWORD PTR [rax+128]
  000e1	ff 15 00 00 00
	00		 call	 QWORD PTR __imp_?Get_State@CTransform@Engine@@QEAA?AT__m128@@W4STATE@12@@Z
  000e7	0f 10 00	 movups	 xmm0, XMMWORD PTR [rax]
  000ea	e8 00 00 00 00	 call	 ?XMVector3Normalize@DirectX@@YQ?AT__m128@@T2@@Z ; DirectX::XMVector3Normalize
  000ef	0f 29 85 70 03
	00 00		 movaps	 XMMWORD PTR $T7[rbp], xmm0
  000f6	0f 28 85 70 03
	00 00		 movaps	 xmm0, XMMWORD PTR $T7[rbp]
  000fd	0f 29 85 f0 00
	00 00		 movaps	 XMMWORD PTR vPlayerRight$[rbp], xmm0

; 398  : 
; 399  : 	_float fRadianAngle = acos(XMVectorGetX(XMVector3Dot(vCameraLook, vPlayerRight)));

  00104	0f 28 8d f0 00
	00 00		 movaps	 xmm1, XMMWORD PTR vPlayerRight$[rbp]
  0010b	0f 28 85 c0 00
	00 00		 movaps	 xmm0, XMMWORD PTR vCameraLook$[rbp]
  00112	e8 00 00 00 00	 call	 ?XMVector3Dot@DirectX@@YQ?AT__m128@@T2@0@Z ; DirectX::XMVector3Dot
  00117	0f 29 85 d0 03
	00 00		 movaps	 XMMWORD PTR $T9[rbp], xmm0
  0011e	0f 28 85 d0 03
	00 00		 movaps	 xmm0, XMMWORD PTR $T9[rbp]
  00125	e8 00 00 00 00	 call	 ?XMVectorGetX@DirectX@@YQMT__m128@@@Z ; DirectX::XMVectorGetX
  0012a	e8 00 00 00 00	 call	 ?acos@@YAMM@Z		; acos
  0012f	f3 0f 11 85 14
	01 00 00	 movss	 DWORD PTR fRadianAngle$[rbp], xmm0

; 400  : 	_float AxisY = XMVectorGetY(XMVector3Cross(vPlayerRight, vCameraLook));

  00137	0f 28 8d c0 00
	00 00		 movaps	 xmm1, XMMWORD PTR vCameraLook$[rbp]
  0013e	0f 28 85 f0 00
	00 00		 movaps	 xmm0, XMMWORD PTR vPlayerRight$[rbp]
  00145	e8 00 00 00 00	 call	 ?XMVector3Cross@DirectX@@YQ?AT__m128@@T2@0@Z ; DirectX::XMVector3Cross
  0014a	0f 29 85 00 04
	00 00		 movaps	 XMMWORD PTR $T10[rbp], xmm0
  00151	0f 28 85 00 04
	00 00		 movaps	 xmm0, XMMWORD PTR $T10[rbp]
  00158	e8 00 00 00 00	 call	 ?XMVectorGetY@DirectX@@YQMT__m128@@@Z ; DirectX::XMVectorGetY
  0015d	f3 0f 11 85 34
	01 00 00	 movss	 DWORD PTR AxisY$[rbp], xmm0

; 401  : 
; 402  : 	if (AxisY >= 0.f)

  00165	f3 0f 10 85 34
	01 00 00	 movss	 xmm0, DWORD PTR AxisY$[rbp]
  0016d	0f 2f 05 00 00
	00 00		 comiss	 xmm0, DWORD PTR __real@00000000
  00174	72 62		 jb	 SHORT $LN2@LeftRotati

; 403  : 		mTransform->Rotate(VECTOR_UP, TimeDelta * fRadianAngle);

  00176	0f 57 db	 xorps	 xmm3, xmm3
  00179	0f 57 d2	 xorps	 xmm2, xmm2
  0017c	f3 0f 10 0d 00
	00 00 00	 movss	 xmm1, DWORD PTR __real@3f800000
  00184	0f 57 c0	 xorps	 xmm0, xmm0
  00187	e8 00 00 00 00	 call	 ?XMVectorSet@DirectX@@YQ?AT__m128@@MMMM@Z ; DirectX::XMVectorSet
  0018c	0f 29 85 30 04
	00 00		 movaps	 XMMWORD PTR $T11[rbp], xmm0
  00193	f3 0f 5a 85 14
	01 00 00	 cvtss2sd xmm0, DWORD PTR fRadianAngle$[rbp]
  0019b	f2 0f 10 8d 08
	05 00 00	 movsd	 xmm1, QWORD PTR TimeDelta$[rbp]
  001a3	f2 0f 59 c8	 mulsd	 xmm1, xmm0
  001a7	0f 28 c1	 movaps	 xmm0, xmm1
  001aa	0f 28 8d 30 04
	00 00		 movaps	 xmm1, XMMWORD PTR $T11[rbp]
  001b1	0f 29 8d 90 04
	00 00		 movaps	 XMMWORD PTR $T13[rbp], xmm1
  001b8	0f 28 d0	 movaps	 xmm2, xmm0
  001bb	48 8d 95 90 04
	00 00		 lea	 rdx, QWORD PTR $T13[rbp]
  001c2	48 8b 85 00 05
	00 00		 mov	 rax, QWORD PTR this$[rbp]
  001c9	48 8b 88 80 00
	00 00		 mov	 rcx, QWORD PTR [rax+128]
  001d0	ff 15 00 00 00
	00		 call	 QWORD PTR __imp_?Rotate@CTransform@Engine@@QEAAXT__m128@@N@Z

; 404  : 	else

  001d6	eb 6b		 jmp	 SHORT $LN3@LeftRotati
$LN2@LeftRotati:

; 405  : 		mTransform->Rotate(VECTOR_UP, TimeDelta * -fRadianAngle);

  001d8	0f 57 db	 xorps	 xmm3, xmm3
  001db	0f 57 d2	 xorps	 xmm2, xmm2
  001de	f3 0f 10 0d 00
	00 00 00	 movss	 xmm1, DWORD PTR __real@3f800000
  001e6	0f 57 c0	 xorps	 xmm0, xmm0
  001e9	e8 00 00 00 00	 call	 ?XMVectorSet@DirectX@@YQ?AT__m128@@MMMM@Z ; DirectX::XMVectorSet
  001ee	0f 29 85 60 04
	00 00		 movaps	 XMMWORD PTR $T12[rbp], xmm0
  001f5	f3 0f 10 85 14
	01 00 00	 movss	 xmm0, DWORD PTR fRadianAngle$[rbp]
  001fd	0f 57 05 00 00
	00 00		 xorps	 xmm0, DWORD PTR __xmm@80000000800000008000000080000000
  00204	f3 0f 5a c0	 cvtss2sd xmm0, xmm0
  00208	f2 0f 10 8d 08
	05 00 00	 movsd	 xmm1, QWORD PTR TimeDelta$[rbp]
  00210	f2 0f 59 c8	 mulsd	 xmm1, xmm0
  00214	0f 28 c1	 movaps	 xmm0, xmm1
  00217	0f 28 8d 60 04
	00 00		 movaps	 xmm1, XMMWORD PTR $T12[rbp]
  0021e	0f 29 8d c0 04
	00 00		 movaps	 XMMWORD PTR $T14[rbp], xmm1
  00225	0f 28 d0	 movaps	 xmm2, xmm0
  00228	48 8d 95 c0 04
	00 00		 lea	 rdx, QWORD PTR $T14[rbp]
  0022f	48 8b 85 00 05
	00 00		 mov	 rax, QWORD PTR this$[rbp]
  00236	48 8b 88 80 00
	00 00		 mov	 rcx, QWORD PTR [rax+128]
  0023d	ff 15 00 00 00
	00		 call	 QWORD PTR __imp_?Rotate@CTransform@Engine@@QEAAXT__m128@@N@Z
$LN3@LeftRotati:

; 406  : }

  00243	48 8d 4d e0	 lea	 rcx, QWORD PTR [rbp-32]
  00247	48 8d 15 00 00
	00 00		 lea	 rdx, OFFSET FLAT:?LeftRotation@CKalienina@Client@@AEAAXN@Z$rtcFrameData
  0024e	e8 00 00 00 00	 call	 _RTC_CheckStackVars
  00253	48 8b 8d d8 04
	00 00		 mov	 rcx, QWORD PTR __$ArrayPad$[rbp]
  0025a	48 33 cd	 xor	 rcx, rbp
  0025d	e8 00 00 00 00	 call	 __security_check_cookie
  00262	48 8d a5 e8 04
	00 00		 lea	 rsp, QWORD PTR [rbp+1256]
  00269	5f		 pop	 rdi
  0026a	5d		 pop	 rbp
  0026b	c3		 ret	 0
?LeftRotation@CKalienina@Client@@AEAAXN@Z ENDP		; Client::CKalienina::LeftRotation
_TEXT	ENDS
; Function compile flags: /Odtp /RTCsu /ZI
; File c:\github\framework\client\private\kalienina.cpp
;	COMDAT ?RigthRotation@CKalienina@Client@@AEAAXN@Z
_TEXT	SEGMENT
pGameInstance$ = 8
cameraMatrix$ = 48
vCameraRight$ = 144
vCameraLook$ = 192
vPlayerRight$ = 240
fRadianAngle$ = 276
AxisY$ = 308
$T4 = 736
$T5 = 784
$T6 = 832
$T7 = 880
$T8 = 928
$T9 = 976
$T10 = 1024
$T11 = 1072
$T12 = 1120
$T13 = 1168
$T14 = 1216
$T15 = 1264
__$ArrayPad$ = 1288
this$ = 1328
TimeDelta$ = 1336
?RigthRotation@CKalienina@Client@@AEAAXN@Z PROC		; Client::CKalienina::RigthRotation, COMDAT

; 375  : {

$LN5:
  00000	f2 0f 11 4c 24
	10		 movsd	 QWORD PTR [rsp+16], xmm1
  00006	48 89 4c 24 08	 mov	 QWORD PTR [rsp+8], rcx
  0000b	55		 push	 rbp
  0000c	57		 push	 rdi
  0000d	48 81 ec 38 05
	00 00		 sub	 rsp, 1336		; 00000538H
  00014	48 8d 6c 24 20	 lea	 rbp, QWORD PTR [rsp+32]
  00019	48 8b fc	 mov	 rdi, rsp
  0001c	b9 4e 01 00 00	 mov	 ecx, 334		; 0000014eH
  00021	b8 cc cc cc cc	 mov	 eax, -858993460		; ccccccccH
  00026	f3 ab		 rep stosd
  00028	48 8b 8c 24 58
	05 00 00	 mov	 rcx, QWORD PTR [rsp+1368]
  00030	48 8b 05 00 00
	00 00		 mov	 rax, QWORD PTR __security_cookie
  00037	48 33 c5	 xor	 rax, rbp
  0003a	48 89 85 08 05
	00 00		 mov	 QWORD PTR __$ArrayPad$[rbp], rax

; 376  : 	CGameInstance* pGameInstance = CGameInstance::GetInstance();

  00041	ff 15 00 00 00
	00		 call	 QWORD PTR __imp_?GetInstance@CGameInstance@Engine@@SAPEAV12@XZ
  00047	48 89 45 08	 mov	 QWORD PTR pGameInstance$[rbp], rax

; 377  : 	_matrix cameraMatrix = pGameInstance->Get_Transform_Matrix_Inverse(CPipeLine::TRANSFORM_STATE::TS_VIEW);

  0004b	45 33 c0	 xor	 r8d, r8d
  0004e	48 8d 55 30	 lea	 rdx, QWORD PTR cameraMatrix$[rbp]
  00052	48 8b 4d 08	 mov	 rcx, QWORD PTR pGameInstance$[rbp]
  00056	ff 15 00 00 00
	00		 call	 QWORD PTR __imp_?Get_Transform_Matrix_Inverse@CGameInstance@Engine@@QEAA?AUXMMATRIX@DirectX@@W4TRANSFORM_STATE@CPipeLine@2@@Z

; 378  : 	_vector vCameraRight = cameraMatrix.r[0];

  0005c	b8 10 00 00 00	 mov	 eax, 16
  00061	48 6b c0 00	 imul	 rax, rax, 0
  00065	0f 10 44 05 30	 movups	 xmm0, XMMWORD PTR cameraMatrix$[rbp+rax]
  0006a	0f 11 85 90 00
	00 00		 movups	 XMMWORD PTR vCameraRight$[rbp], xmm0

; 379  : 	_vector vCameraLook = -XMVector3Normalize(XMVector3Cross(vCameraRight, VECTOR_UP));

  00071	0f 57 db	 xorps	 xmm3, xmm3
  00074	0f 57 d2	 xorps	 xmm2, xmm2
  00077	f3 0f 10 0d 00
	00 00 00	 movss	 xmm1, DWORD PTR __real@3f800000
  0007f	0f 57 c0	 xorps	 xmm0, xmm0
  00082	e8 00 00 00 00	 call	 ?XMVectorSet@DirectX@@YQ?AT__m128@@MMMM@Z ; DirectX::XMVectorSet
  00087	0f 29 85 70 03
	00 00		 movaps	 XMMWORD PTR $T7[rbp], xmm0
  0008e	0f 28 8d 70 03
	00 00		 movaps	 xmm1, XMMWORD PTR $T7[rbp]
  00095	0f 28 85 90 00
	00 00		 movaps	 xmm0, XMMWORD PTR vCameraRight$[rbp]
  0009c	e8 00 00 00 00	 call	 ?XMVector3Cross@DirectX@@YQ?AT__m128@@T2@0@Z ; DirectX::XMVector3Cross
  000a1	0f 29 85 40 03
	00 00		 movaps	 XMMWORD PTR $T6[rbp], xmm0
  000a8	0f 28 85 40 03
	00 00		 movaps	 xmm0, XMMWORD PTR $T6[rbp]
  000af	e8 00 00 00 00	 call	 ?XMVector3Normalize@DirectX@@YQ?AT__m128@@T2@@Z ; DirectX::XMVector3Normalize
  000b4	0f 29 85 10 03
	00 00		 movaps	 XMMWORD PTR $T5[rbp], xmm0
  000bb	0f 28 85 10 03
	00 00		 movaps	 xmm0, XMMWORD PTR $T5[rbp]
  000c2	e8 00 00 00 00	 call	 ??GDirectX@@YQ?AT__m128@@T1@@Z ; DirectX::operator-
  000c7	0f 29 85 e0 02
	00 00		 movaps	 XMMWORD PTR $T4[rbp], xmm0
  000ce	0f 28 85 e0 02
	00 00		 movaps	 xmm0, XMMWORD PTR $T4[rbp]
  000d5	0f 29 85 c0 00
	00 00		 movaps	 XMMWORD PTR vCameraLook$[rbp], xmm0

; 380  : 	_vector vPlayerRight = XMVector3Normalize(mTransform->Get_State(CTransform::STATE_RIGHT));

  000dc	45 33 c0	 xor	 r8d, r8d
  000df	48 8d 95 d0 03
	00 00		 lea	 rdx, QWORD PTR $T9[rbp]
  000e6	48 8b 85 30 05
	00 00		 mov	 rax, QWORD PTR this$[rbp]
  000ed	48 8b 88 80 00
	00 00		 mov	 rcx, QWORD PTR [rax+128]
  000f4	ff 15 00 00 00
	00		 call	 QWORD PTR __imp_?Get_State@CTransform@Engine@@QEAA?AT__m128@@W4STATE@12@@Z
  000fa	0f 10 00	 movups	 xmm0, XMMWORD PTR [rax]
  000fd	e8 00 00 00 00	 call	 ?XMVector3Normalize@DirectX@@YQ?AT__m128@@T2@@Z ; DirectX::XMVector3Normalize
  00102	0f 29 85 a0 03
	00 00		 movaps	 XMMWORD PTR $T8[rbp], xmm0
  00109	0f 28 85 a0 03
	00 00		 movaps	 xmm0, XMMWORD PTR $T8[rbp]
  00110	0f 29 85 f0 00
	00 00		 movaps	 XMMWORD PTR vPlayerRight$[rbp], xmm0

; 381  : 
; 382  : 	_float fRadianAngle = acos(XMVectorGetX(XMVector3Dot(vCameraLook, vPlayerRight)));

  00117	0f 28 8d f0 00
	00 00		 movaps	 xmm1, XMMWORD PTR vPlayerRight$[rbp]
  0011e	0f 28 85 c0 00
	00 00		 movaps	 xmm0, XMMWORD PTR vCameraLook$[rbp]
  00125	e8 00 00 00 00	 call	 ?XMVector3Dot@DirectX@@YQ?AT__m128@@T2@0@Z ; DirectX::XMVector3Dot
  0012a	0f 29 85 00 04
	00 00		 movaps	 XMMWORD PTR $T10[rbp], xmm0
  00131	0f 28 85 00 04
	00 00		 movaps	 xmm0, XMMWORD PTR $T10[rbp]
  00138	e8 00 00 00 00	 call	 ?XMVectorGetX@DirectX@@YQMT__m128@@@Z ; DirectX::XMVectorGetX
  0013d	e8 00 00 00 00	 call	 ?acos@@YAMM@Z		; acos
  00142	f3 0f 11 85 14
	01 00 00	 movss	 DWORD PTR fRadianAngle$[rbp], xmm0

; 383  : 	_float AxisY = XMVectorGetY(XMVector3Cross(vPlayerRight, vCameraLook));

  0014a	0f 28 8d c0 00
	00 00		 movaps	 xmm1, XMMWORD PTR vCameraLook$[rbp]
  00151	0f 28 85 f0 00
	00 00		 movaps	 xmm0, XMMWORD PTR vPlayerRight$[rbp]
  00158	e8 00 00 00 00	 call	 ?XMVector3Cross@DirectX@@YQ?AT__m128@@T2@0@Z ; DirectX::XMVector3Cross
  0015d	0f 29 85 30 04
	00 00		 movaps	 XMMWORD PTR $T11[rbp], xmm0
  00164	0f 28 85 30 04
	00 00		 movaps	 xmm0, XMMWORD PTR $T11[rbp]
  0016b	e8 00 00 00 00	 call	 ?XMVectorGetY@DirectX@@YQMT__m128@@@Z ; DirectX::XMVectorGetY
  00170	f3 0f 11 85 34
	01 00 00	 movss	 DWORD PTR AxisY$[rbp], xmm0

; 384  :    
; 385  : 	if (AxisY >= 0.f)

  00178	f3 0f 10 85 34
	01 00 00	 movss	 xmm0, DWORD PTR AxisY$[rbp]
  00180	0f 2f 05 00 00
	00 00		 comiss	 xmm0, DWORD PTR __real@00000000
  00187	72 62		 jb	 SHORT $LN2@RigthRotat

; 386  : 		mTransform->Rotate(VECTOR_UP, TimeDelta * fRadianAngle);

  00189	0f 57 db	 xorps	 xmm3, xmm3
  0018c	0f 57 d2	 xorps	 xmm2, xmm2
  0018f	f3 0f 10 0d 00
	00 00 00	 movss	 xmm1, DWORD PTR __real@3f800000
  00197	0f 57 c0	 xorps	 xmm0, xmm0
  0019a	e8 00 00 00 00	 call	 ?XMVectorSet@DirectX@@YQ?AT__m128@@MMMM@Z ; DirectX::XMVectorSet
  0019f	0f 29 85 60 04
	00 00		 movaps	 XMMWORD PTR $T12[rbp], xmm0
  001a6	f3 0f 5a 85 14
	01 00 00	 cvtss2sd xmm0, DWORD PTR fRadianAngle$[rbp]
  001ae	f2 0f 10 8d 38
	05 00 00	 movsd	 xmm1, QWORD PTR TimeDelta$[rbp]
  001b6	f2 0f 59 c8	 mulsd	 xmm1, xmm0
  001ba	0f 28 c1	 movaps	 xmm0, xmm1
  001bd	0f 28 8d 60 04
	00 00		 movaps	 xmm1, XMMWORD PTR $T12[rbp]
  001c4	0f 29 8d c0 04
	00 00		 movaps	 XMMWORD PTR $T14[rbp], xmm1
  001cb	0f 28 d0	 movaps	 xmm2, xmm0
  001ce	48 8d 95 c0 04
	00 00		 lea	 rdx, QWORD PTR $T14[rbp]
  001d5	48 8b 85 30 05
	00 00		 mov	 rax, QWORD PTR this$[rbp]
  001dc	48 8b 88 80 00
	00 00		 mov	 rcx, QWORD PTR [rax+128]
  001e3	ff 15 00 00 00
	00		 call	 QWORD PTR __imp_?Rotate@CTransform@Engine@@QEAAXT__m128@@N@Z

; 387  : 	else

  001e9	eb 6b		 jmp	 SHORT $LN3@RigthRotat
$LN2@RigthRotat:

; 388  : 		mTransform->Rotate(VECTOR_UP, TimeDelta * -fRadianAngle);

  001eb	0f 57 db	 xorps	 xmm3, xmm3
  001ee	0f 57 d2	 xorps	 xmm2, xmm2
  001f1	f3 0f 10 0d 00
	00 00 00	 movss	 xmm1, DWORD PTR __real@3f800000
  001f9	0f 57 c0	 xorps	 xmm0, xmm0
  001fc	e8 00 00 00 00	 call	 ?XMVectorSet@DirectX@@YQ?AT__m128@@MMMM@Z ; DirectX::XMVectorSet
  00201	0f 29 85 90 04
	00 00		 movaps	 XMMWORD PTR $T13[rbp], xmm0
  00208	f3 0f 10 85 14
	01 00 00	 movss	 xmm0, DWORD PTR fRadianAngle$[rbp]
  00210	0f 57 05 00 00
	00 00		 xorps	 xmm0, DWORD PTR __xmm@80000000800000008000000080000000
  00217	f3 0f 5a c0	 cvtss2sd xmm0, xmm0
  0021b	f2 0f 10 8d 38
	05 00 00	 movsd	 xmm1, QWORD PTR TimeDelta$[rbp]
  00223	f2 0f 59 c8	 mulsd	 xmm1, xmm0
  00227	0f 28 c1	 movaps	 xmm0, xmm1
  0022a	0f 28 8d 90 04
	00 00		 movaps	 xmm1, XMMWORD PTR $T13[rbp]
  00231	0f 29 8d f0 04
	00 00		 movaps	 XMMWORD PTR $T15[rbp], xmm1
  00238	0f 28 d0	 movaps	 xmm2, xmm0
  0023b	48 8d 95 f0 04
	00 00		 lea	 rdx, QWORD PTR $T15[rbp]
  00242	48 8b 85 30 05
	00 00		 mov	 rax, QWORD PTR this$[rbp]
  00249	48 8b 88 80 00
	00 00		 mov	 rcx, QWORD PTR [rax+128]
  00250	ff 15 00 00 00
	00		 call	 QWORD PTR __imp_?Rotate@CTransform@Engine@@QEAAXT__m128@@N@Z
$LN3@RigthRotat:

; 389  : }

  00256	48 8d 4d e0	 lea	 rcx, QWORD PTR [rbp-32]
  0025a	48 8d 15 00 00
	00 00		 lea	 rdx, OFFSET FLAT:?RigthRotation@CKalienina@Client@@AEAAXN@Z$rtcFrameData
  00261	e8 00 00 00 00	 call	 _RTC_CheckStackVars
  00266	48 8b 8d 08 05
	00 00		 mov	 rcx, QWORD PTR __$ArrayPad$[rbp]
  0026d	48 33 cd	 xor	 rcx, rbp
  00270	e8 00 00 00 00	 call	 __security_check_cookie
  00275	48 8d a5 18 05
	00 00		 lea	 rsp, QWORD PTR [rbp+1304]
  0027c	5f		 pop	 rdi
  0027d	5d		 pop	 rbp
  0027e	c3		 ret	 0
?RigthRotation@CKalienina@Client@@AEAAXN@Z ENDP		; Client::CKalienina::RigthRotation
_TEXT	ENDS
; Function compile flags: /Odtp /RTCsu /ZI
; File c:\github\framework\client\private\kalienina.cpp
;	COMDAT ?BackwardRotaion@CKalienina@Client@@AEAAXN@Z
_TEXT	SEGMENT
pGameInstance$ = 8
cameraMatrix$ = 48
vCameraRight$ = 144
vCameraLook$ = 192
vPlayerLook$ = 240
fRadianAngle$ = 276
AxisY$ = 308
$T4 = 736
$T5 = 784
$T6 = 832
$T7 = 880
$T8 = 928
$T9 = 976
$T10 = 1024
$T11 = 1072
$T12 = 1120
$T13 = 1168
$T14 = 1216
$T15 = 1264
__$ArrayPad$ = 1288
this$ = 1328
TimeDelta$ = 1336
?BackwardRotaion@CKalienina@Client@@AEAAXN@Z PROC	; Client::CKalienina::BackwardRotaion, COMDAT

; 358  : {

$LN5:
  00000	f2 0f 11 4c 24
	10		 movsd	 QWORD PTR [rsp+16], xmm1
  00006	48 89 4c 24 08	 mov	 QWORD PTR [rsp+8], rcx
  0000b	55		 push	 rbp
  0000c	57		 push	 rdi
  0000d	48 81 ec 38 05
	00 00		 sub	 rsp, 1336		; 00000538H
  00014	48 8d 6c 24 20	 lea	 rbp, QWORD PTR [rsp+32]
  00019	48 8b fc	 mov	 rdi, rsp
  0001c	b9 4e 01 00 00	 mov	 ecx, 334		; 0000014eH
  00021	b8 cc cc cc cc	 mov	 eax, -858993460		; ccccccccH
  00026	f3 ab		 rep stosd
  00028	48 8b 8c 24 58
	05 00 00	 mov	 rcx, QWORD PTR [rsp+1368]
  00030	48 8b 05 00 00
	00 00		 mov	 rax, QWORD PTR __security_cookie
  00037	48 33 c5	 xor	 rax, rbp
  0003a	48 89 85 08 05
	00 00		 mov	 QWORD PTR __$ArrayPad$[rbp], rax

; 359  : 	CGameInstance* pGameInstance = CGameInstance::GetInstance();

  00041	ff 15 00 00 00
	00		 call	 QWORD PTR __imp_?GetInstance@CGameInstance@Engine@@SAPEAV12@XZ
  00047	48 89 45 08	 mov	 QWORD PTR pGameInstance$[rbp], rax

; 360  : 	_matrix cameraMatrix = pGameInstance->Get_Transform_Matrix_Inverse(CPipeLine::TRANSFORM_STATE::TS_VIEW);

  0004b	45 33 c0	 xor	 r8d, r8d
  0004e	48 8d 55 30	 lea	 rdx, QWORD PTR cameraMatrix$[rbp]
  00052	48 8b 4d 08	 mov	 rcx, QWORD PTR pGameInstance$[rbp]
  00056	ff 15 00 00 00
	00		 call	 QWORD PTR __imp_?Get_Transform_Matrix_Inverse@CGameInstance@Engine@@QEAA?AUXMMATRIX@DirectX@@W4TRANSFORM_STATE@CPipeLine@2@@Z

; 361  : 	_vector vCameraRight = cameraMatrix.r[0];

  0005c	b8 10 00 00 00	 mov	 eax, 16
  00061	48 6b c0 00	 imul	 rax, rax, 0
  00065	0f 10 44 05 30	 movups	 xmm0, XMMWORD PTR cameraMatrix$[rbp+rax]
  0006a	0f 11 85 90 00
	00 00		 movups	 XMMWORD PTR vCameraRight$[rbp], xmm0

; 362  : 	_vector vCameraLook = -XMVector3Normalize(XMVector3Cross(vCameraRight, VECTOR_UP));

  00071	0f 57 db	 xorps	 xmm3, xmm3
  00074	0f 57 d2	 xorps	 xmm2, xmm2
  00077	f3 0f 10 0d 00
	00 00 00	 movss	 xmm1, DWORD PTR __real@3f800000
  0007f	0f 57 c0	 xorps	 xmm0, xmm0
  00082	e8 00 00 00 00	 call	 ?XMVectorSet@DirectX@@YQ?AT__m128@@MMMM@Z ; DirectX::XMVectorSet
  00087	0f 29 85 70 03
	00 00		 movaps	 XMMWORD PTR $T7[rbp], xmm0
  0008e	0f 28 8d 70 03
	00 00		 movaps	 xmm1, XMMWORD PTR $T7[rbp]
  00095	0f 28 85 90 00
	00 00		 movaps	 xmm0, XMMWORD PTR vCameraRight$[rbp]
  0009c	e8 00 00 00 00	 call	 ?XMVector3Cross@DirectX@@YQ?AT__m128@@T2@0@Z ; DirectX::XMVector3Cross
  000a1	0f 29 85 40 03
	00 00		 movaps	 XMMWORD PTR $T6[rbp], xmm0
  000a8	0f 28 85 40 03
	00 00		 movaps	 xmm0, XMMWORD PTR $T6[rbp]
  000af	e8 00 00 00 00	 call	 ?XMVector3Normalize@DirectX@@YQ?AT__m128@@T2@@Z ; DirectX::XMVector3Normalize
  000b4	0f 29 85 10 03
	00 00		 movaps	 XMMWORD PTR $T5[rbp], xmm0
  000bb	0f 28 85 10 03
	00 00		 movaps	 xmm0, XMMWORD PTR $T5[rbp]
  000c2	e8 00 00 00 00	 call	 ??GDirectX@@YQ?AT__m128@@T1@@Z ; DirectX::operator-
  000c7	0f 29 85 e0 02
	00 00		 movaps	 XMMWORD PTR $T4[rbp], xmm0
  000ce	0f 28 85 e0 02
	00 00		 movaps	 xmm0, XMMWORD PTR $T4[rbp]
  000d5	0f 29 85 c0 00
	00 00		 movaps	 XMMWORD PTR vCameraLook$[rbp], xmm0

; 363  : 	_vector vPlayerLook = XMVector3Normalize(mTransform->Get_State(CTransform::STATE_LOOK));

  000dc	41 b8 02 00 00
	00		 mov	 r8d, 2
  000e2	48 8d 95 d0 03
	00 00		 lea	 rdx, QWORD PTR $T9[rbp]
  000e9	48 8b 85 30 05
	00 00		 mov	 rax, QWORD PTR this$[rbp]
  000f0	48 8b 88 80 00
	00 00		 mov	 rcx, QWORD PTR [rax+128]
  000f7	ff 15 00 00 00
	00		 call	 QWORD PTR __imp_?Get_State@CTransform@Engine@@QEAA?AT__m128@@W4STATE@12@@Z
  000fd	0f 10 00	 movups	 xmm0, XMMWORD PTR [rax]
  00100	e8 00 00 00 00	 call	 ?XMVector3Normalize@DirectX@@YQ?AT__m128@@T2@@Z ; DirectX::XMVector3Normalize
  00105	0f 29 85 a0 03
	00 00		 movaps	 XMMWORD PTR $T8[rbp], xmm0
  0010c	0f 28 85 a0 03
	00 00		 movaps	 xmm0, XMMWORD PTR $T8[rbp]
  00113	0f 29 85 f0 00
	00 00		 movaps	 XMMWORD PTR vPlayerLook$[rbp], xmm0

; 364  : 
; 365  : 	_float fRadianAngle = acos(XMVectorGetX(XMVector3Dot(vCameraLook, vPlayerLook)));

  0011a	0f 28 8d f0 00
	00 00		 movaps	 xmm1, XMMWORD PTR vPlayerLook$[rbp]
  00121	0f 28 85 c0 00
	00 00		 movaps	 xmm0, XMMWORD PTR vCameraLook$[rbp]
  00128	e8 00 00 00 00	 call	 ?XMVector3Dot@DirectX@@YQ?AT__m128@@T2@0@Z ; DirectX::XMVector3Dot
  0012d	0f 29 85 00 04
	00 00		 movaps	 XMMWORD PTR $T10[rbp], xmm0
  00134	0f 28 85 00 04
	00 00		 movaps	 xmm0, XMMWORD PTR $T10[rbp]
  0013b	e8 00 00 00 00	 call	 ?XMVectorGetX@DirectX@@YQMT__m128@@@Z ; DirectX::XMVectorGetX
  00140	e8 00 00 00 00	 call	 ?acos@@YAMM@Z		; acos
  00145	f3 0f 11 85 14
	01 00 00	 movss	 DWORD PTR fRadianAngle$[rbp], xmm0

; 366  : 	_float AxisY = XMVectorGetY(XMVector3Cross(vPlayerLook, vCameraLook));

  0014d	0f 28 8d c0 00
	00 00		 movaps	 xmm1, XMMWORD PTR vCameraLook$[rbp]
  00154	0f 28 85 f0 00
	00 00		 movaps	 xmm0, XMMWORD PTR vPlayerLook$[rbp]
  0015b	e8 00 00 00 00	 call	 ?XMVector3Cross@DirectX@@YQ?AT__m128@@T2@0@Z ; DirectX::XMVector3Cross
  00160	0f 29 85 30 04
	00 00		 movaps	 XMMWORD PTR $T11[rbp], xmm0
  00167	0f 28 85 30 04
	00 00		 movaps	 xmm0, XMMWORD PTR $T11[rbp]
  0016e	e8 00 00 00 00	 call	 ?XMVectorGetY@DirectX@@YQMT__m128@@@Z ; DirectX::XMVectorGetY
  00173	f3 0f 11 85 34
	01 00 00	 movss	 DWORD PTR AxisY$[rbp], xmm0

; 367  : 
; 368  : 	if (AxisY >= 0.f)

  0017b	f3 0f 10 85 34
	01 00 00	 movss	 xmm0, DWORD PTR AxisY$[rbp]
  00183	0f 2f 05 00 00
	00 00		 comiss	 xmm0, DWORD PTR __real@00000000
  0018a	72 62		 jb	 SHORT $LN2@BackwardRo

; 369  : 		mTransform->Rotate(VECTOR_UP, TimeDelta * fRadianAngle);

  0018c	0f 57 db	 xorps	 xmm3, xmm3
  0018f	0f 57 d2	 xorps	 xmm2, xmm2
  00192	f3 0f 10 0d 00
	00 00 00	 movss	 xmm1, DWORD PTR __real@3f800000
  0019a	0f 57 c0	 xorps	 xmm0, xmm0
  0019d	e8 00 00 00 00	 call	 ?XMVectorSet@DirectX@@YQ?AT__m128@@MMMM@Z ; DirectX::XMVectorSet
  001a2	0f 29 85 60 04
	00 00		 movaps	 XMMWORD PTR $T12[rbp], xmm0
  001a9	f3 0f 5a 85 14
	01 00 00	 cvtss2sd xmm0, DWORD PTR fRadianAngle$[rbp]
  001b1	f2 0f 10 8d 38
	05 00 00	 movsd	 xmm1, QWORD PTR TimeDelta$[rbp]
  001b9	f2 0f 59 c8	 mulsd	 xmm1, xmm0
  001bd	0f 28 c1	 movaps	 xmm0, xmm1
  001c0	0f 28 8d 60 04
	00 00		 movaps	 xmm1, XMMWORD PTR $T12[rbp]
  001c7	0f 29 8d c0 04
	00 00		 movaps	 XMMWORD PTR $T14[rbp], xmm1
  001ce	0f 28 d0	 movaps	 xmm2, xmm0
  001d1	48 8d 95 c0 04
	00 00		 lea	 rdx, QWORD PTR $T14[rbp]
  001d8	48 8b 85 30 05
	00 00		 mov	 rax, QWORD PTR this$[rbp]
  001df	48 8b 88 80 00
	00 00		 mov	 rcx, QWORD PTR [rax+128]
  001e6	ff 15 00 00 00
	00		 call	 QWORD PTR __imp_?Rotate@CTransform@Engine@@QEAAXT__m128@@N@Z

; 370  : 	else

  001ec	eb 6b		 jmp	 SHORT $LN3@BackwardRo
$LN2@BackwardRo:

; 371  : 		mTransform->Rotate(VECTOR_UP, TimeDelta * -fRadianAngle);

  001ee	0f 57 db	 xorps	 xmm3, xmm3
  001f1	0f 57 d2	 xorps	 xmm2, xmm2
  001f4	f3 0f 10 0d 00
	00 00 00	 movss	 xmm1, DWORD PTR __real@3f800000
  001fc	0f 57 c0	 xorps	 xmm0, xmm0
  001ff	e8 00 00 00 00	 call	 ?XMVectorSet@DirectX@@YQ?AT__m128@@MMMM@Z ; DirectX::XMVectorSet
  00204	0f 29 85 90 04
	00 00		 movaps	 XMMWORD PTR $T13[rbp], xmm0
  0020b	f3 0f 10 85 14
	01 00 00	 movss	 xmm0, DWORD PTR fRadianAngle$[rbp]
  00213	0f 57 05 00 00
	00 00		 xorps	 xmm0, DWORD PTR __xmm@80000000800000008000000080000000
  0021a	f3 0f 5a c0	 cvtss2sd xmm0, xmm0
  0021e	f2 0f 10 8d 38
	05 00 00	 movsd	 xmm1, QWORD PTR TimeDelta$[rbp]
  00226	f2 0f 59 c8	 mulsd	 xmm1, xmm0
  0022a	0f 28 c1	 movaps	 xmm0, xmm1
  0022d	0f 28 8d 90 04
	00 00		 movaps	 xmm1, XMMWORD PTR $T13[rbp]
  00234	0f 29 8d f0 04
	00 00		 movaps	 XMMWORD PTR $T15[rbp], xmm1
  0023b	0f 28 d0	 movaps	 xmm2, xmm0
  0023e	48 8d 95 f0 04
	00 00		 lea	 rdx, QWORD PTR $T15[rbp]
  00245	48 8b 85 30 05
	00 00		 mov	 rax, QWORD PTR this$[rbp]
  0024c	48 8b 88 80 00
	00 00		 mov	 rcx, QWORD PTR [rax+128]
  00253	ff 15 00 00 00
	00		 call	 QWORD PTR __imp_?Rotate@CTransform@Engine@@QEAAXT__m128@@N@Z
$LN3@BackwardRo:

; 372  : }

  00259	48 8d 4d e0	 lea	 rcx, QWORD PTR [rbp-32]
  0025d	48 8d 15 00 00
	00 00		 lea	 rdx, OFFSET FLAT:?BackwardRotaion@CKalienina@Client@@AEAAXN@Z$rtcFrameData
  00264	e8 00 00 00 00	 call	 _RTC_CheckStackVars
  00269	48 8b 8d 08 05
	00 00		 mov	 rcx, QWORD PTR __$ArrayPad$[rbp]
  00270	48 33 cd	 xor	 rcx, rbp
  00273	e8 00 00 00 00	 call	 __security_check_cookie
  00278	48 8d a5 18 05
	00 00		 lea	 rsp, QWORD PTR [rbp+1304]
  0027f	5f		 pop	 rdi
  00280	5d		 pop	 rbp
  00281	c3		 ret	 0
?BackwardRotaion@CKalienina@Client@@AEAAXN@Z ENDP	; Client::CKalienina::BackwardRotaion
_TEXT	ENDS
; Function compile flags: /Odtp /RTCsu /ZI
; File c:\github\framework\client\private\kalienina.cpp
;	COMDAT ?ForwardRotaion@CKalienina@Client@@AEAAXN@Z
_TEXT	SEGMENT
pGameInstance$ = 8
cameraMatrix$ = 48
vCameraRight$ = 144
vCameraLook$ = 192
vPlayerLook$ = 240
fRadianAngle$ = 276
AxisY$ = 308
$T4 = 736
$T5 = 784
$T6 = 832
$T7 = 880
$T8 = 928
$T9 = 976
$T10 = 1024
$T11 = 1072
$T12 = 1120
$T13 = 1168
$T14 = 1216
__$ArrayPad$ = 1240
this$ = 1280
TimeDelta$ = 1288
?ForwardRotaion@CKalienina@Client@@AEAAXN@Z PROC	; Client::CKalienina::ForwardRotaion, COMDAT

; 340  : {

$LN5:
  00000	f2 0f 11 4c 24
	10		 movsd	 QWORD PTR [rsp+16], xmm1
  00006	48 89 4c 24 08	 mov	 QWORD PTR [rsp+8], rcx
  0000b	55		 push	 rbp
  0000c	57		 push	 rdi
  0000d	48 81 ec 08 05
	00 00		 sub	 rsp, 1288		; 00000508H
  00014	48 8d 6c 24 20	 lea	 rbp, QWORD PTR [rsp+32]
  00019	48 8b fc	 mov	 rdi, rsp
  0001c	b9 42 01 00 00	 mov	 ecx, 322		; 00000142H
  00021	b8 cc cc cc cc	 mov	 eax, -858993460		; ccccccccH
  00026	f3 ab		 rep stosd
  00028	48 8b 8c 24 28
	05 00 00	 mov	 rcx, QWORD PTR [rsp+1320]
  00030	48 8b 05 00 00
	00 00		 mov	 rax, QWORD PTR __security_cookie
  00037	48 33 c5	 xor	 rax, rbp
  0003a	48 89 85 d8 04
	00 00		 mov	 QWORD PTR __$ArrayPad$[rbp], rax

; 341  : 	CGameInstance* pGameInstance = CGameInstance::GetInstance();

  00041	ff 15 00 00 00
	00		 call	 QWORD PTR __imp_?GetInstance@CGameInstance@Engine@@SAPEAV12@XZ
  00047	48 89 45 08	 mov	 QWORD PTR pGameInstance$[rbp], rax

; 342  : 	_matrix cameraMatrix = pGameInstance->Get_Transform_Matrix_Inverse(CPipeLine::TRANSFORM_STATE::TS_VIEW);

  0004b	45 33 c0	 xor	 r8d, r8d
  0004e	48 8d 55 30	 lea	 rdx, QWORD PTR cameraMatrix$[rbp]
  00052	48 8b 4d 08	 mov	 rcx, QWORD PTR pGameInstance$[rbp]
  00056	ff 15 00 00 00
	00		 call	 QWORD PTR __imp_?Get_Transform_Matrix_Inverse@CGameInstance@Engine@@QEAA?AUXMMATRIX@DirectX@@W4TRANSFORM_STATE@CPipeLine@2@@Z

; 343  : 	_vector vCameraRight = cameraMatrix.r[0];

  0005c	b8 10 00 00 00	 mov	 eax, 16
  00061	48 6b c0 00	 imul	 rax, rax, 0
  00065	0f 10 44 05 30	 movups	 xmm0, XMMWORD PTR cameraMatrix$[rbp+rax]
  0006a	0f 11 85 90 00
	00 00		 movups	 XMMWORD PTR vCameraRight$[rbp], xmm0

; 344  : 	_vector vCameraLook = XMVector3Normalize(XMVector3Cross(vCameraRight, VECTOR_UP));

  00071	0f 57 db	 xorps	 xmm3, xmm3
  00074	0f 57 d2	 xorps	 xmm2, xmm2
  00077	f3 0f 10 0d 00
	00 00 00	 movss	 xmm1, DWORD PTR __real@3f800000
  0007f	0f 57 c0	 xorps	 xmm0, xmm0
  00082	e8 00 00 00 00	 call	 ?XMVectorSet@DirectX@@YQ?AT__m128@@MMMM@Z ; DirectX::XMVectorSet
  00087	0f 29 85 40 03
	00 00		 movaps	 XMMWORD PTR $T6[rbp], xmm0
  0008e	0f 28 8d 40 03
	00 00		 movaps	 xmm1, XMMWORD PTR $T6[rbp]
  00095	0f 28 85 90 00
	00 00		 movaps	 xmm0, XMMWORD PTR vCameraRight$[rbp]
  0009c	e8 00 00 00 00	 call	 ?XMVector3Cross@DirectX@@YQ?AT__m128@@T2@0@Z ; DirectX::XMVector3Cross
  000a1	0f 29 85 10 03
	00 00		 movaps	 XMMWORD PTR $T5[rbp], xmm0
  000a8	0f 28 85 10 03
	00 00		 movaps	 xmm0, XMMWORD PTR $T5[rbp]
  000af	e8 00 00 00 00	 call	 ?XMVector3Normalize@DirectX@@YQ?AT__m128@@T2@@Z ; DirectX::XMVector3Normalize
  000b4	0f 29 85 e0 02
	00 00		 movaps	 XMMWORD PTR $T4[rbp], xmm0
  000bb	0f 28 85 e0 02
	00 00		 movaps	 xmm0, XMMWORD PTR $T4[rbp]
  000c2	0f 29 85 c0 00
	00 00		 movaps	 XMMWORD PTR vCameraLook$[rbp], xmm0

; 345  : 	_vector vPlayerLook = XMVector3Normalize(mTransform->Get_State(CTransform::STATE_LOOK));

  000c9	41 b8 02 00 00
	00		 mov	 r8d, 2
  000cf	48 8d 95 a0 03
	00 00		 lea	 rdx, QWORD PTR $T8[rbp]
  000d6	48 8b 85 00 05
	00 00		 mov	 rax, QWORD PTR this$[rbp]
  000dd	48 8b 88 80 00
	00 00		 mov	 rcx, QWORD PTR [rax+128]
  000e4	ff 15 00 00 00
	00		 call	 QWORD PTR __imp_?Get_State@CTransform@Engine@@QEAA?AT__m128@@W4STATE@12@@Z
  000ea	0f 10 00	 movups	 xmm0, XMMWORD PTR [rax]
  000ed	e8 00 00 00 00	 call	 ?XMVector3Normalize@DirectX@@YQ?AT__m128@@T2@@Z ; DirectX::XMVector3Normalize
  000f2	0f 29 85 70 03
	00 00		 movaps	 XMMWORD PTR $T7[rbp], xmm0
  000f9	0f 28 85 70 03
	00 00		 movaps	 xmm0, XMMWORD PTR $T7[rbp]
  00100	0f 29 85 f0 00
	00 00		 movaps	 XMMWORD PTR vPlayerLook$[rbp], xmm0

; 346  : 
; 347  : 	_float fRadianAngle = acos(XMVectorGetX(XMVector3Dot(vCameraLook, vPlayerLook)));

  00107	0f 28 8d f0 00
	00 00		 movaps	 xmm1, XMMWORD PTR vPlayerLook$[rbp]
  0010e	0f 28 85 c0 00
	00 00		 movaps	 xmm0, XMMWORD PTR vCameraLook$[rbp]
  00115	e8 00 00 00 00	 call	 ?XMVector3Dot@DirectX@@YQ?AT__m128@@T2@0@Z ; DirectX::XMVector3Dot
  0011a	0f 29 85 d0 03
	00 00		 movaps	 XMMWORD PTR $T9[rbp], xmm0
  00121	0f 28 85 d0 03
	00 00		 movaps	 xmm0, XMMWORD PTR $T9[rbp]
  00128	e8 00 00 00 00	 call	 ?XMVectorGetX@DirectX@@YQMT__m128@@@Z ; DirectX::XMVectorGetX
  0012d	e8 00 00 00 00	 call	 ?acos@@YAMM@Z		; acos
  00132	f3 0f 11 85 14
	01 00 00	 movss	 DWORD PTR fRadianAngle$[rbp], xmm0

; 348  : 	_float AxisY = XMVectorGetY(XMVector3Cross(vPlayerLook, vCameraLook));

  0013a	0f 28 8d c0 00
	00 00		 movaps	 xmm1, XMMWORD PTR vCameraLook$[rbp]
  00141	0f 28 85 f0 00
	00 00		 movaps	 xmm0, XMMWORD PTR vPlayerLook$[rbp]
  00148	e8 00 00 00 00	 call	 ?XMVector3Cross@DirectX@@YQ?AT__m128@@T2@0@Z ; DirectX::XMVector3Cross
  0014d	0f 29 85 00 04
	00 00		 movaps	 XMMWORD PTR $T10[rbp], xmm0
  00154	0f 28 85 00 04
	00 00		 movaps	 xmm0, XMMWORD PTR $T10[rbp]
  0015b	e8 00 00 00 00	 call	 ?XMVectorGetY@DirectX@@YQMT__m128@@@Z ; DirectX::XMVectorGetY
  00160	f3 0f 11 85 34
	01 00 00	 movss	 DWORD PTR AxisY$[rbp], xmm0

; 349  : 
; 350  : 	if(AxisY >= 0.f)

  00168	f3 0f 10 85 34
	01 00 00	 movss	 xmm0, DWORD PTR AxisY$[rbp]
  00170	0f 2f 05 00 00
	00 00		 comiss	 xmm0, DWORD PTR __real@00000000
  00177	72 62		 jb	 SHORT $LN2@ForwardRot

; 351  : 		mTransform->Rotate(VECTOR_UP, TimeDelta * fRadianAngle);

  00179	0f 57 db	 xorps	 xmm3, xmm3
  0017c	0f 57 d2	 xorps	 xmm2, xmm2
  0017f	f3 0f 10 0d 00
	00 00 00	 movss	 xmm1, DWORD PTR __real@3f800000
  00187	0f 57 c0	 xorps	 xmm0, xmm0
  0018a	e8 00 00 00 00	 call	 ?XMVectorSet@DirectX@@YQ?AT__m128@@MMMM@Z ; DirectX::XMVectorSet
  0018f	0f 29 85 30 04
	00 00		 movaps	 XMMWORD PTR $T11[rbp], xmm0
  00196	f3 0f 5a 85 14
	01 00 00	 cvtss2sd xmm0, DWORD PTR fRadianAngle$[rbp]
  0019e	f2 0f 10 8d 08
	05 00 00	 movsd	 xmm1, QWORD PTR TimeDelta$[rbp]
  001a6	f2 0f 59 c8	 mulsd	 xmm1, xmm0
  001aa	0f 28 c1	 movaps	 xmm0, xmm1
  001ad	0f 28 8d 30 04
	00 00		 movaps	 xmm1, XMMWORD PTR $T11[rbp]
  001b4	0f 29 8d 90 04
	00 00		 movaps	 XMMWORD PTR $T13[rbp], xmm1
  001bb	0f 28 d0	 movaps	 xmm2, xmm0
  001be	48 8d 95 90 04
	00 00		 lea	 rdx, QWORD PTR $T13[rbp]
  001c5	48 8b 85 00 05
	00 00		 mov	 rax, QWORD PTR this$[rbp]
  001cc	48 8b 88 80 00
	00 00		 mov	 rcx, QWORD PTR [rax+128]
  001d3	ff 15 00 00 00
	00		 call	 QWORD PTR __imp_?Rotate@CTransform@Engine@@QEAAXT__m128@@N@Z

; 352  : 	else

  001d9	eb 6b		 jmp	 SHORT $LN3@ForwardRot
$LN2@ForwardRot:

; 353  : 		mTransform->Rotate(VECTOR_UP, TimeDelta * -fRadianAngle);

  001db	0f 57 db	 xorps	 xmm3, xmm3
  001de	0f 57 d2	 xorps	 xmm2, xmm2
  001e1	f3 0f 10 0d 00
	00 00 00	 movss	 xmm1, DWORD PTR __real@3f800000
  001e9	0f 57 c0	 xorps	 xmm0, xmm0
  001ec	e8 00 00 00 00	 call	 ?XMVectorSet@DirectX@@YQ?AT__m128@@MMMM@Z ; DirectX::XMVectorSet
  001f1	0f 29 85 60 04
	00 00		 movaps	 XMMWORD PTR $T12[rbp], xmm0
  001f8	f3 0f 10 85 14
	01 00 00	 movss	 xmm0, DWORD PTR fRadianAngle$[rbp]
  00200	0f 57 05 00 00
	00 00		 xorps	 xmm0, DWORD PTR __xmm@80000000800000008000000080000000
  00207	f3 0f 5a c0	 cvtss2sd xmm0, xmm0
  0020b	f2 0f 10 8d 08
	05 00 00	 movsd	 xmm1, QWORD PTR TimeDelta$[rbp]
  00213	f2 0f 59 c8	 mulsd	 xmm1, xmm0
  00217	0f 28 c1	 movaps	 xmm0, xmm1
  0021a	0f 28 8d 60 04
	00 00		 movaps	 xmm1, XMMWORD PTR $T12[rbp]
  00221	0f 29 8d c0 04
	00 00		 movaps	 XMMWORD PTR $T14[rbp], xmm1
  00228	0f 28 d0	 movaps	 xmm2, xmm0
  0022b	48 8d 95 c0 04
	00 00		 lea	 rdx, QWORD PTR $T14[rbp]
  00232	48 8b 85 00 05
	00 00		 mov	 rax, QWORD PTR this$[rbp]
  00239	48 8b 88 80 00
	00 00		 mov	 rcx, QWORD PTR [rax+128]
  00240	ff 15 00 00 00
	00		 call	 QWORD PTR __imp_?Rotate@CTransform@Engine@@QEAAXT__m128@@N@Z
$LN3@ForwardRot:

; 354  : 
; 355  : }

  00246	48 8d 4d e0	 lea	 rcx, QWORD PTR [rbp-32]
  0024a	48 8d 15 00 00
	00 00		 lea	 rdx, OFFSET FLAT:?ForwardRotaion@CKalienina@Client@@AEAAXN@Z$rtcFrameData
  00251	e8 00 00 00 00	 call	 _RTC_CheckStackVars
  00256	48 8b 8d d8 04
	00 00		 mov	 rcx, QWORD PTR __$ArrayPad$[rbp]
  0025d	48 33 cd	 xor	 rcx, rbp
  00260	e8 00 00 00 00	 call	 __security_check_cookie
  00265	48 8d a5 e8 04
	00 00		 lea	 rsp, QWORD PTR [rbp+1256]
  0026c	5f		 pop	 rdi
  0026d	5d		 pop	 rbp
  0026e	c3		 ret	 0
?ForwardRotaion@CKalienina@Client@@AEAAXN@Z ENDP	; Client::CKalienina::ForwardRotaion
_TEXT	ENDS
; Function compile flags: /Odtp /RTCsu /ZI
; File c:\github\framework\client\private\kalienina.cpp
;	COMDAT ?CameraSocketUpdate@CKalienina@Client@@AEAAXXZ
_TEXT	SEGMENT
cameraPos$ = 16
$T4 = 256
$T5 = 304
__$ArrayPad$ = 328
this$ = 368
?CameraSocketUpdate@CKalienina@Client@@AEAAXXZ PROC	; Client::CKalienina::CameraSocketUpdate, COMDAT

; 332  : {

$LN3:
  00000	48 89 4c 24 08	 mov	 QWORD PTR [rsp+8], rcx
  00005	55		 push	 rbp
  00006	57		 push	 rdi
  00007	48 81 ec 78 01
	00 00		 sub	 rsp, 376		; 00000178H
  0000e	48 8d 6c 24 20	 lea	 rbp, QWORD PTR [rsp+32]
  00013	48 8b fc	 mov	 rdi, rsp
  00016	b9 5e 00 00 00	 mov	 ecx, 94			; 0000005eH
  0001b	b8 cc cc cc cc	 mov	 eax, -858993460		; ccccccccH
  00020	f3 ab		 rep stosd
  00022	48 8b 8c 24 98
	01 00 00	 mov	 rcx, QWORD PTR [rsp+408]
  0002a	48 8b 05 00 00
	00 00		 mov	 rax, QWORD PTR __security_cookie
  00031	48 33 c5	 xor	 rax, rbp
  00034	48 89 85 48 01
	00 00		 mov	 QWORD PTR __$ArrayPad$[rbp], rax

; 333  : 	_vector cameraPos = mTransform->Get_State(CTransform::STATE_POSITION);

  0003b	41 b8 03 00 00
	00		 mov	 r8d, 3
  00041	48 8d 55 10	 lea	 rdx, QWORD PTR cameraPos$[rbp]
  00045	48 8b 85 70 01
	00 00		 mov	 rax, QWORD PTR this$[rbp]
  0004c	48 8b 88 80 00
	00 00		 mov	 rcx, QWORD PTR [rax+128]
  00053	ff 15 00 00 00
	00		 call	 QWORD PTR __imp_?Get_State@CTransform@Engine@@QEAA?AT__m128@@W4STATE@12@@Z

; 334  : 	cameraPos = XMVectorSetY(cameraPos, XMVectorGetY(cameraPos) + 1);

  00059	0f 28 45 10	 movaps	 xmm0, XMMWORD PTR cameraPos$[rbp]
  0005d	e8 00 00 00 00	 call	 ?XMVectorGetY@DirectX@@YQMT__m128@@@Z ; DirectX::XMVectorGetY
  00062	f3 0f 58 05 00
	00 00 00	 addss	 xmm0, DWORD PTR __real@3f800000
  0006a	0f 28 c8	 movaps	 xmm1, xmm0
  0006d	0f 28 45 10	 movaps	 xmm0, XMMWORD PTR cameraPos$[rbp]
  00071	e8 00 00 00 00	 call	 ?XMVectorSetY@DirectX@@YQ?AT__m128@@T2@M@Z ; DirectX::XMVectorSetY
  00076	0f 29 85 00 01
	00 00		 movaps	 XMMWORD PTR $T4[rbp], xmm0
  0007d	0f 28 85 00 01
	00 00		 movaps	 xmm0, XMMWORD PTR $T4[rbp]
  00084	0f 29 45 10	 movaps	 XMMWORD PTR cameraPos$[rbp], xmm0

; 335  : 
; 336  : 	mCameraSocketTransform->Set_State(CTransform::STATE_POSITION, cameraPos);

  00088	0f 28 45 10	 movaps	 xmm0, XMMWORD PTR cameraPos$[rbp]
  0008c	0f 29 85 30 01
	00 00		 movaps	 XMMWORD PTR $T5[rbp], xmm0
  00093	4c 8d 85 30 01
	00 00		 lea	 r8, QWORD PTR $T5[rbp]
  0009a	ba 03 00 00 00	 mov	 edx, 3
  0009f	48 8b 85 70 01
	00 00		 mov	 rax, QWORD PTR this$[rbp]
  000a6	48 8b 88 a8 00
	00 00		 mov	 rcx, QWORD PTR [rax+168]
  000ad	ff 15 00 00 00
	00		 call	 QWORD PTR __imp_?Set_State@CTransform@Engine@@QEAAXW4STATE@12@T__m128@@@Z

; 337  : }

  000b3	48 8d 4d e0	 lea	 rcx, QWORD PTR [rbp-32]
  000b7	48 8d 15 00 00
	00 00		 lea	 rdx, OFFSET FLAT:?CameraSocketUpdate@CKalienina@Client@@AEAAXXZ$rtcFrameData
  000be	e8 00 00 00 00	 call	 _RTC_CheckStackVars
  000c3	48 8b 8d 48 01
	00 00		 mov	 rcx, QWORD PTR __$ArrayPad$[rbp]
  000ca	48 33 cd	 xor	 rcx, rbp
  000cd	e8 00 00 00 00	 call	 __security_check_cookie
  000d2	48 8d a5 58 01
	00 00		 lea	 rsp, QWORD PTR [rbp+344]
  000d9	5f		 pop	 rdi
  000da	5d		 pop	 rbp
  000db	c3		 ret	 0
?CameraSocketUpdate@CKalienina@Client@@AEAAXXZ ENDP	; Client::CKalienina::CameraSocketUpdate
_TEXT	ENDS
; Function compile flags: /Odtp /RTCsu /ZI
; File c:\github\framework\client\private\kalienina.cpp
;	COMDAT ?AnimationControl@CKalienina@Client@@AEAAXN@Z
_TEXT	SEGMENT
pGameInstance$ = 8
this$ = 256
TimeDelta$ = 264
?AnimationControl@CKalienina@Client@@AEAAXN@Z PROC	; Client::CKalienina::AnimationControl, COMDAT

; 324  : {

$LN3:
  00000	f2 0f 11 4c 24
	10		 movsd	 QWORD PTR [rsp+16], xmm1
  00006	48 89 4c 24 08	 mov	 QWORD PTR [rsp+8], rcx
  0000b	55		 push	 rbp
  0000c	57		 push	 rdi
  0000d	48 81 ec 08 01
	00 00		 sub	 rsp, 264		; 00000108H
  00014	48 8d 6c 24 20	 lea	 rbp, QWORD PTR [rsp+32]
  00019	48 8b fc	 mov	 rdi, rsp
  0001c	b9 42 00 00 00	 mov	 ecx, 66			; 00000042H
  00021	b8 cc cc cc cc	 mov	 eax, -858993460		; ccccccccH
  00026	f3 ab		 rep stosd
  00028	48 8b 8c 24 28
	01 00 00	 mov	 rcx, QWORD PTR [rsp+296]

; 325  : 	CGameInstance* pGameInstance = CGameInstance::GetInstance();

  00030	ff 15 00 00 00
	00		 call	 QWORD PTR __imp_?GetInstance@CGameInstance@Engine@@SAPEAV12@XZ
  00036	48 89 45 08	 mov	 QWORD PTR pGameInstance$[rbp], rax

; 326  : 
; 327  : 	mModel->Setup_Animation(ANIM_DESC.Clip);

  0003a	48 8b 85 00 01
	00 00		 mov	 rax, QWORD PTR this$[rbp]
  00041	8b 90 a0 00 00
	00		 mov	 edx, DWORD PTR [rax+160]
  00047	48 8b 85 00 01
	00 00		 mov	 rax, QWORD PTR this$[rbp]
  0004e	48 8b 88 88 00
	00 00		 mov	 rcx, QWORD PTR [rax+136]
  00055	ff 15 00 00 00
	00		 call	 QWORD PTR __imp_?Setup_Animation@CModel@Engine@@QEAAJI@Z

; 328  : 	mModel->Play_Animation(TimeDelta, mTransform, ANIM_DESC.Type);

  0005b	48 8b 85 00 01
	00 00		 mov	 rax, QWORD PTR this$[rbp]
  00062	44 8b 88 a4 00
	00 00		 mov	 r9d, DWORD PTR [rax+164]
  00069	48 8b 85 00 01
	00 00		 mov	 rax, QWORD PTR this$[rbp]
  00070	4c 8b 80 80 00
	00 00		 mov	 r8, QWORD PTR [rax+128]
  00077	f2 0f 10 8d 08
	01 00 00	 movsd	 xmm1, QWORD PTR TimeDelta$[rbp]
  0007f	48 8b 85 00 01
	00 00		 mov	 rax, QWORD PTR this$[rbp]
  00086	48 8b 88 88 00
	00 00		 mov	 rcx, QWORD PTR [rax+136]
  0008d	ff 15 00 00 00
	00		 call	 QWORD PTR __imp_?Play_Animation@CModel@Engine@@QEAAJNPEAVCTransform@2@W4TYPE@CAnimation@2@@Z

; 329  : }

  00093	48 8d a5 e8 00
	00 00		 lea	 rsp, QWORD PTR [rbp+232]
  0009a	5f		 pop	 rdi
  0009b	5d		 pop	 rbp
  0009c	c3		 ret	 0
?AnimationControl@CKalienina@Client@@AEAAXN@Z ENDP	; Client::CKalienina::AnimationControl
_TEXT	ENDS
; Function compile flags: /Odtp /RTCsu /ZI
; File c:\github\framework\client\private\kalienina.cpp
;	COMDAT ?SetAnimation@CKalienina@Client@@AEAAXW4CLIP@12@W4TYPE@CAnimation@Engine@@@Z
_TEXT	SEGMENT
this$ = 224
eClip$ = 232
eAnimationType$ = 240
?SetAnimation@CKalienina@Client@@AEAAXW4CLIP@12@W4TYPE@CAnimation@Engine@@@Z PROC ; Client::CKalienina::SetAnimation, COMDAT

; 318  : {

$LN3:
  00000	44 89 44 24 18	 mov	 DWORD PTR [rsp+24], r8d
  00005	89 54 24 10	 mov	 DWORD PTR [rsp+16], edx
  00009	48 89 4c 24 08	 mov	 QWORD PTR [rsp+8], rcx
  0000e	55		 push	 rbp
  0000f	57		 push	 rdi
  00010	48 81 ec c8 00
	00 00		 sub	 rsp, 200		; 000000c8H
  00017	48 8b ec	 mov	 rbp, rsp
  0001a	48 8b fc	 mov	 rdi, rsp
  0001d	b9 32 00 00 00	 mov	 ecx, 50			; 00000032H
  00022	b8 cc cc cc cc	 mov	 eax, -858993460		; ccccccccH
  00027	f3 ab		 rep stosd
  00029	48 8b 8c 24 e8
	00 00 00	 mov	 rcx, QWORD PTR [rsp+232]

; 319  : 	ANIM_DESC.Clip = eClip;

  00031	48 8b 85 e0 00
	00 00		 mov	 rax, QWORD PTR this$[rbp]
  00038	8b 8d e8 00 00
	00		 mov	 ecx, DWORD PTR eClip$[rbp]
  0003e	89 88 a0 00 00
	00		 mov	 DWORD PTR [rax+160], ecx

; 320  : 	ANIM_DESC.Type = eAnimationType;

  00044	48 8b 85 e0 00
	00 00		 mov	 rax, QWORD PTR this$[rbp]
  0004b	8b 8d f0 00 00
	00		 mov	 ecx, DWORD PTR eAnimationType$[rbp]
  00051	89 88 a4 00 00
	00		 mov	 DWORD PTR [rax+164], ecx

; 321  : }

  00057	48 8d a5 c8 00
	00 00		 lea	 rsp, QWORD PTR [rbp+200]
  0005e	5f		 pop	 rdi
  0005f	5d		 pop	 rbp
  00060	c3		 ret	 0
?SetAnimation@CKalienina@Client@@AEAAXW4CLIP@12@W4TYPE@CAnimation@Engine@@@Z ENDP ; Client::CKalienina::SetAnimation
_TEXT	ENDS
; Function compile flags: /Odtp /RTCsu /ZI
; File c:\github\framework\client\private\kalienina.cpp
;	COMDAT ?FinishCheckPlay@CKalienina@Client@@AEAA_NW4CLIP@12@W4TYPE@CAnimation@Engine@@@Z
_TEXT	SEGMENT
this$ = 224
eClip$ = 232
eAnimationType$ = 240
?FinishCheckPlay@CKalienina@Client@@AEAA_NW4CLIP@12@W4TYPE@CAnimation@Engine@@@Z PROC ; Client::CKalienina::FinishCheckPlay, COMDAT

; 508  : {

$LN4:
  00000	44 89 44 24 18	 mov	 DWORD PTR [rsp+24], r8d
  00005	89 54 24 10	 mov	 DWORD PTR [rsp+16], edx
  00009	48 89 4c 24 08	 mov	 QWORD PTR [rsp+8], rcx
  0000e	55		 push	 rbp
  0000f	57		 push	 rdi
  00010	48 81 ec e8 00
	00 00		 sub	 rsp, 232		; 000000e8H
  00017	48 8d 6c 24 20	 lea	 rbp, QWORD PTR [rsp+32]
  0001c	48 8b fc	 mov	 rdi, rsp
  0001f	b9 3a 00 00 00	 mov	 ecx, 58			; 0000003aH
  00024	b8 cc cc cc cc	 mov	 eax, -858993460		; ccccccccH
  00029	f3 ab		 rep stosd
  0002b	48 8b 8c 24 08
	01 00 00	 mov	 rcx, QWORD PTR [rsp+264]

; 509  : 	if (mModel->AnimationIsFinish())

  00033	48 8b 85 e0 00
	00 00		 mov	 rax, QWORD PTR this$[rbp]
  0003a	48 8b 88 88 00
	00 00		 mov	 rcx, QWORD PTR [rax+136]
  00041	ff 15 00 00 00
	00		 call	 QWORD PTR __imp_?AnimationIsFinish@CModel@Engine@@QEAA_NXZ
  00047	0f b6 c0	 movzx	 eax, al
  0004a	85 c0		 test	 eax, eax
  0004c	74 1d		 je	 SHORT $LN2@FinishChec

; 510  : 	{
; 511  : 		SetAnimation(eClip, eAnimationType);

  0004e	44 8b 85 f0 00
	00 00		 mov	 r8d, DWORD PTR eAnimationType$[rbp]
  00055	8b 95 e8 00 00
	00		 mov	 edx, DWORD PTR eClip$[rbp]
  0005b	48 8b 8d e0 00
	00 00		 mov	 rcx, QWORD PTR this$[rbp]
  00062	e8 00 00 00 00	 call	 ?SetAnimation@CKalienina@Client@@AEAAXW4CLIP@12@W4TYPE@CAnimation@Engine@@@Z ; Client::CKalienina::SetAnimation

; 512  : 		return true;

  00067	b0 01		 mov	 al, 1
  00069	eb 02		 jmp	 SHORT $LN1@FinishChec
$LN2@FinishChec:

; 513  : 	}
; 514  : 
; 515  : 	return false;

  0006b	32 c0		 xor	 al, al
$LN1@FinishChec:

; 516  : }

  0006d	48 8d a5 c8 00
	00 00		 lea	 rsp, QWORD PTR [rbp+200]
  00074	5f		 pop	 rdi
  00075	5d		 pop	 rbp
  00076	c3		 ret	 0
?FinishCheckPlay@CKalienina@Client@@AEAA_NW4CLIP@12@W4TYPE@CAnimation@Engine@@@Z ENDP ; Client::CKalienina::FinishCheckPlay
_TEXT	ENDS
; Function compile flags: /Odtp /RTCsu /ZI
; File c:\github\framework\client\private\kalienina.cpp
;	COMDAT ?AnimationCompare@CKalienina@Client@@AEAA_NW4CLIP@12@@Z
_TEXT	SEGMENT
tv67 = 192
this$ = 240
eClip$ = 248
?AnimationCompare@CKalienina@Client@@AEAA_NW4CLIP@12@@Z PROC ; Client::CKalienina::AnimationCompare, COMDAT

; 503  : {

$LN5:
  00000	89 54 24 10	 mov	 DWORD PTR [rsp+16], edx
  00004	48 89 4c 24 08	 mov	 QWORD PTR [rsp+8], rcx
  00009	55		 push	 rbp
  0000a	57		 push	 rdi
  0000b	48 81 ec d8 00
	00 00		 sub	 rsp, 216		; 000000d8H
  00012	48 8b ec	 mov	 rbp, rsp
  00015	48 8b fc	 mov	 rdi, rsp
  00018	b9 36 00 00 00	 mov	 ecx, 54			; 00000036H
  0001d	b8 cc cc cc cc	 mov	 eax, -858993460		; ccccccccH
  00022	f3 ab		 rep stosd
  00024	48 8b 8c 24 f8
	00 00 00	 mov	 rcx, QWORD PTR [rsp+248]

; 504  : 	return ANIM_DESC.Clip == eClip;

  0002c	48 8b 85 f0 00
	00 00		 mov	 rax, QWORD PTR this$[rbp]
  00033	8b 8d f8 00 00
	00		 mov	 ecx, DWORD PTR eClip$[rbp]
  00039	39 88 a0 00 00
	00		 cmp	 DWORD PTR [rax+160], ecx
  0003f	75 0c		 jne	 SHORT $LN3@AnimationC
  00041	c7 85 c0 00 00
	00 01 00 00 00	 mov	 DWORD PTR tv67[rbp], 1
  0004b	eb 0a		 jmp	 SHORT $LN4@AnimationC
$LN3@AnimationC:
  0004d	c7 85 c0 00 00
	00 00 00 00 00	 mov	 DWORD PTR tv67[rbp], 0
$LN4@AnimationC:
  00057	0f b6 85 c0 00
	00 00		 movzx	 eax, BYTE PTR tv67[rbp]

; 505  : }

  0005e	48 8d a5 d8 00
	00 00		 lea	 rsp, QWORD PTR [rbp+216]
  00065	5f		 pop	 rdi
  00066	5d		 pop	 rbp
  00067	c3		 ret	 0
?AnimationCompare@CKalienina@Client@@AEAA_NW4CLIP@12@@Z ENDP ; Client::CKalienina::AnimationCompare
_TEXT	ENDS
; Function compile flags: /Odtp /RTCsu /ZI
; File c:\github\framework\client\private\kalienina.cpp
;	COMDAT ?SetupShaderResources@CKalienina@Client@@AEAAJXZ
_TEXT	SEGMENT
pInstance$ = 8
LightDesc$ = 40
$T1 = 260
$T2 = 356
$T3 = 452
this$ = 528
?SetupShaderResources@CKalienina@Client@@AEAAJXZ PROC	; Client::CKalienina::SetupShaderResources, COMDAT

; 171  : {

$LN13:
  00000	48 89 4c 24 08	 mov	 QWORD PTR [rsp+8], rcx
  00005	55		 push	 rbp
  00006	57		 push	 rdi
  00007	48 81 ec 18 02
	00 00		 sub	 rsp, 536		; 00000218H
  0000e	48 8d 6c 24 20	 lea	 rbp, QWORD PTR [rsp+32]
  00013	48 8b fc	 mov	 rdi, rsp
  00016	b9 86 00 00 00	 mov	 ecx, 134		; 00000086H
  0001b	b8 cc cc cc cc	 mov	 eax, -858993460		; ccccccccH
  00020	f3 ab		 rep stosd
  00022	48 8b 8c 24 38
	02 00 00	 mov	 rcx, QWORD PTR [rsp+568]

; 172  : 	if (nullptr == mShader)

  0002a	48 8b 85 10 02
	00 00		 mov	 rax, QWORD PTR this$[rbp]
  00031	48 83 b8 90 00
	00 00 00	 cmp	 QWORD PTR [rax+144], 0
  00039	75 0a		 jne	 SHORT $LN2@SetupShade

; 173  : 		return E_FAIL;

  0003b	b8 05 40 00 80	 mov	 eax, -2147467259	; ffffffff80004005H
  00040	e9 09 02 00 00	 jmp	 $LN1@SetupShade
$LN2@SetupShade:

; 174  : 
; 175  : 	CGameInstance* pInstance = CGameInstance::GetInstance();

  00045	ff 15 00 00 00
	00		 call	 QWORD PTR __imp_?GetInstance@CGameInstance@Engine@@SAPEAV12@XZ
  0004b	48 89 45 08	 mov	 QWORD PTR pInstance$[rbp], rax

; 176  : 
; 177  : 	if (FAILED(mTransform->Setup_ShaderResource(mShader, "g_WorldMatrix")))

  0004f	4c 8d 05 00 00
	00 00		 lea	 r8, OFFSET FLAT:??_C@_0O@PFNLPMLD@g_WorldMatrix?$AA@
  00056	48 8b 85 10 02
	00 00		 mov	 rax, QWORD PTR this$[rbp]
  0005d	48 8b 90 90 00
	00 00		 mov	 rdx, QWORD PTR [rax+144]
  00064	48 8b 85 10 02
	00 00		 mov	 rax, QWORD PTR this$[rbp]
  0006b	48 8b 88 80 00
	00 00		 mov	 rcx, QWORD PTR [rax+128]
  00072	ff 15 00 00 00
	00		 call	 QWORD PTR __imp_?Setup_ShaderResource@CTransform@Engine@@QEAAJPEAVCShader@2@PEBD@Z
  00078	85 c0		 test	 eax, eax
  0007a	7d 0a		 jge	 SHORT $LN3@SetupShade

; 178  : 		return E_FAIL;

  0007c	b8 05 40 00 80	 mov	 eax, -2147467259	; ffffffff80004005H
  00081	e9 c8 01 00 00	 jmp	 $LN1@SetupShade
$LN3@SetupShade:

; 179  : 
; 180  : 	if (FAILED(mShader->SetMatrix("g_ViewMatrix", &pInstance->Get_Transform_float4x4(CPipeLine::TS_VIEW))))

  00086	45 33 c0	 xor	 r8d, r8d
  00089	48 8d 95 04 01
	00 00		 lea	 rdx, QWORD PTR $T1[rbp]
  00090	48 8b 4d 08	 mov	 rcx, QWORD PTR pInstance$[rbp]
  00094	ff 15 00 00 00
	00		 call	 QWORD PTR __imp_?Get_Transform_float4x4@CGameInstance@Engine@@QEAA?AUXMFLOAT4X4@DirectX@@W4TRANSFORM_STATE@CPipeLine@2@@Z
  0009a	4c 8b c0	 mov	 r8, rax
  0009d	48 8d 15 00 00
	00 00		 lea	 rdx, OFFSET FLAT:??_C@_0N@ELIMCBLG@g_ViewMatrix?$AA@
  000a4	48 8b 85 10 02
	00 00		 mov	 rax, QWORD PTR this$[rbp]
  000ab	48 8b 88 90 00
	00 00		 mov	 rcx, QWORD PTR [rax+144]
  000b2	ff 15 00 00 00
	00		 call	 QWORD PTR __imp_?SetMatrix@CShader@Engine@@QEAAJPEBDPEBUXMFLOAT4X4@DirectX@@@Z
  000b8	85 c0		 test	 eax, eax
  000ba	7d 0a		 jge	 SHORT $LN4@SetupShade

; 181  : 		return E_FAIL;

  000bc	b8 05 40 00 80	 mov	 eax, -2147467259	; ffffffff80004005H
  000c1	e9 88 01 00 00	 jmp	 $LN1@SetupShade
$LN4@SetupShade:

; 182  : 
; 183  : 	if (FAILED(mShader->SetMatrix("g_ProjMatrix", &pInstance->Get_Transform_float4x4(CPipeLine::TS_PROJ))))

  000c6	41 b8 01 00 00
	00		 mov	 r8d, 1
  000cc	48 8d 95 64 01
	00 00		 lea	 rdx, QWORD PTR $T2[rbp]
  000d3	48 8b 4d 08	 mov	 rcx, QWORD PTR pInstance$[rbp]
  000d7	ff 15 00 00 00
	00		 call	 QWORD PTR __imp_?Get_Transform_float4x4@CGameInstance@Engine@@QEAA?AUXMFLOAT4X4@DirectX@@W4TRANSFORM_STATE@CPipeLine@2@@Z
  000dd	4c 8b c0	 mov	 r8, rax
  000e0	48 8d 15 00 00
	00 00		 lea	 rdx, OFFSET FLAT:??_C@_0N@OOHDPIO@g_ProjMatrix?$AA@
  000e7	48 8b 85 10 02
	00 00		 mov	 rax, QWORD PTR this$[rbp]
  000ee	48 8b 88 90 00
	00 00		 mov	 rcx, QWORD PTR [rax+144]
  000f5	ff 15 00 00 00
	00		 call	 QWORD PTR __imp_?SetMatrix@CShader@Engine@@QEAAJPEBDPEBUXMFLOAT4X4@DirectX@@@Z
  000fb	85 c0		 test	 eax, eax
  000fd	7d 0a		 jge	 SHORT $LN5@SetupShade

; 184  : 		return E_FAIL;

  000ff	b8 05 40 00 80	 mov	 eax, -2147467259	; ffffffff80004005H
  00104	e9 45 01 00 00	 jmp	 $LN1@SetupShade
$LN5@SetupShade:

; 185  : 
; 186  : 	if (FAILED(mShader->SetRawValue("g_vCamPosition", &pInstance->Get_CamPosition(), sizeof(_float3))))

  00109	48 8d 95 c4 01
	00 00		 lea	 rdx, QWORD PTR $T3[rbp]
  00110	48 8b 4d 08	 mov	 rcx, QWORD PTR pInstance$[rbp]
  00114	ff 15 00 00 00
	00		 call	 QWORD PTR __imp_?Get_CamPosition@CGameInstance@Engine@@QEAA?AUXMFLOAT4@DirectX@@XZ
  0011a	41 b9 0c 00 00
	00		 mov	 r9d, 12
  00120	4c 8b c0	 mov	 r8, rax
  00123	48 8d 15 00 00
	00 00		 lea	 rdx, OFFSET FLAT:??_C@_0P@BDEIJKBM@g_vCamPosition?$AA@
  0012a	48 8b 85 10 02
	00 00		 mov	 rax, QWORD PTR this$[rbp]
  00131	48 8b 88 90 00
	00 00		 mov	 rcx, QWORD PTR [rax+144]
  00138	ff 15 00 00 00
	00		 call	 QWORD PTR __imp_?SetRawValue@CShader@Engine@@QEAAJPEBDPEBXI@Z
  0013e	85 c0		 test	 eax, eax
  00140	7d 0a		 jge	 SHORT $LN6@SetupShade

; 187  : 		return E_FAIL;

  00142	b8 05 40 00 80	 mov	 eax, -2147467259	; ffffffff80004005H
  00147	e9 02 01 00 00	 jmp	 $LN1@SetupShade
$LN6@SetupShade:

; 188  : 
; 189  : 	const LIGHT_DESC* LightDesc = pInstance->GetLightDesc(0);

  0014c	33 d2		 xor	 edx, edx
  0014e	48 8b 4d 08	 mov	 rcx, QWORD PTR pInstance$[rbp]
  00152	ff 15 00 00 00
	00		 call	 QWORD PTR __imp_?GetLightDesc@CGameInstance@Engine@@QEAAPEBUtagLight_Desc@2@I@Z
  00158	48 89 45 28	 mov	 QWORD PTR LightDesc$[rbp], rax

; 190  : 	if (nullptr == LightDesc)

  0015c	48 83 7d 28 00	 cmp	 QWORD PTR LightDesc$[rbp], 0
  00161	75 0a		 jne	 SHORT $LN7@SetupShade

; 191  : 		return E_FAIL;

  00163	b8 05 40 00 80	 mov	 eax, -2147467259	; ffffffff80004005H
  00168	e9 e1 00 00 00	 jmp	 $LN1@SetupShade
$LN7@SetupShade:

; 192  : 
; 193  : 	if (FAILED(mShader->SetRawValue("g_vLightDir", &LightDesc->vDirection, sizeof(_float4))))

  0016d	48 8b 45 28	 mov	 rax, QWORD PTR LightDesc$[rbp]
  00171	48 83 c0 04	 add	 rax, 4
  00175	41 b9 10 00 00
	00		 mov	 r9d, 16
  0017b	4c 8b c0	 mov	 r8, rax
  0017e	48 8d 15 00 00
	00 00		 lea	 rdx, OFFSET FLAT:??_C@_0M@NHGOLGEL@g_vLightDir?$AA@
  00185	48 8b 85 10 02
	00 00		 mov	 rax, QWORD PTR this$[rbp]
  0018c	48 8b 88 90 00
	00 00		 mov	 rcx, QWORD PTR [rax+144]
  00193	ff 15 00 00 00
	00		 call	 QWORD PTR __imp_?SetRawValue@CShader@Engine@@QEAAJPEBDPEBXI@Z
  00199	85 c0		 test	 eax, eax
  0019b	7d 0a		 jge	 SHORT $LN8@SetupShade

; 194  : 		return E_FAIL;

  0019d	b8 05 40 00 80	 mov	 eax, -2147467259	; ffffffff80004005H
  001a2	e9 a7 00 00 00	 jmp	 $LN1@SetupShade
$LN8@SetupShade:

; 195  : 	if (FAILED(mShader->SetRawValue("g_vLightDiffuse", &LightDesc->vDiffuse, sizeof(_float4))))

  001a7	48 8b 45 28	 mov	 rax, QWORD PTR LightDesc$[rbp]
  001ab	48 83 c0 28	 add	 rax, 40			; 00000028H
  001af	41 b9 10 00 00
	00		 mov	 r9d, 16
  001b5	4c 8b c0	 mov	 r8, rax
  001b8	48 8d 15 00 00
	00 00		 lea	 rdx, OFFSET FLAT:??_C@_0BA@PCOGIHOF@g_vLightDiffuse?$AA@
  001bf	48 8b 85 10 02
	00 00		 mov	 rax, QWORD PTR this$[rbp]
  001c6	48 8b 88 90 00
	00 00		 mov	 rcx, QWORD PTR [rax+144]
  001cd	ff 15 00 00 00
	00		 call	 QWORD PTR __imp_?SetRawValue@CShader@Engine@@QEAAJPEBDPEBXI@Z
  001d3	85 c0		 test	 eax, eax
  001d5	7d 07		 jge	 SHORT $LN9@SetupShade

; 196  : 		return E_FAIL;

  001d7	b8 05 40 00 80	 mov	 eax, -2147467259	; ffffffff80004005H
  001dc	eb 70		 jmp	 SHORT $LN1@SetupShade
$LN9@SetupShade:

; 197  : 	if (FAILED(mShader->SetRawValue("g_vLightSpecular", &LightDesc->vSpecular, sizeof(_float4))))

  001de	48 8b 45 28	 mov	 rax, QWORD PTR LightDesc$[rbp]
  001e2	48 83 c0 48	 add	 rax, 72			; 00000048H
  001e6	41 b9 10 00 00
	00		 mov	 r9d, 16
  001ec	4c 8b c0	 mov	 r8, rax
  001ef	48 8d 15 00 00
	00 00		 lea	 rdx, OFFSET FLAT:??_C@_0BB@IJIIKIH@g_vLightSpecular?$AA@
  001f6	48 8b 85 10 02
	00 00		 mov	 rax, QWORD PTR this$[rbp]
  001fd	48 8b 88 90 00
	00 00		 mov	 rcx, QWORD PTR [rax+144]
  00204	ff 15 00 00 00
	00		 call	 QWORD PTR __imp_?SetRawValue@CShader@Engine@@QEAAJPEBDPEBXI@Z
  0020a	85 c0		 test	 eax, eax
  0020c	7d 07		 jge	 SHORT $LN10@SetupShade

; 198  : 		return E_FAIL;

  0020e	b8 05 40 00 80	 mov	 eax, -2147467259	; ffffffff80004005H
  00213	eb 39		 jmp	 SHORT $LN1@SetupShade
$LN10@SetupShade:

; 199  : 	if (FAILED(mShader->SetRawValue("g_vLightAmbient", &LightDesc->vAmbient, sizeof(_float4))))

  00215	48 8b 45 28	 mov	 rax, QWORD PTR LightDesc$[rbp]
  00219	48 83 c0 38	 add	 rax, 56			; 00000038H
  0021d	41 b9 10 00 00
	00		 mov	 r9d, 16
  00223	4c 8b c0	 mov	 r8, rax
  00226	48 8d 15 00 00
	00 00		 lea	 rdx, OFFSET FLAT:??_C@_0BA@EALGDMPJ@g_vLightAmbient?$AA@
  0022d	48 8b 85 10 02
	00 00		 mov	 rax, QWORD PTR this$[rbp]
  00234	48 8b 88 90 00
	00 00		 mov	 rcx, QWORD PTR [rax+144]
  0023b	ff 15 00 00 00
	00		 call	 QWORD PTR __imp_?SetRawValue@CShader@Engine@@QEAAJPEBDPEBXI@Z
  00241	85 c0		 test	 eax, eax
  00243	7d 07		 jge	 SHORT $LN11@SetupShade

; 200  : 		return E_FAIL;

  00245	b8 05 40 00 80	 mov	 eax, -2147467259	; ffffffff80004005H
  0024a	eb 02		 jmp	 SHORT $LN1@SetupShade
$LN11@SetupShade:

; 201  : 
; 202  : 	return S_OK;

  0024c	33 c0		 xor	 eax, eax
$LN1@SetupShade:

; 203  : }

  0024e	48 8d a5 f8 01
	00 00		 lea	 rsp, QWORD PTR [rbp+504]
  00255	5f		 pop	 rdi
  00256	5d		 pop	 rbp
  00257	c3		 ret	 0
?SetupShaderResources@CKalienina@Client@@AEAAJXZ ENDP	; Client::CKalienina::SetupShaderResources
_TEXT	ENDS
; Function compile flags: /Odtp /RTCsu /ZI
; File c:\github\framework\client\private\kalienina.cpp
;	COMDAT ?AddComponents@CKalienina@Client@@AEAAJXZ
_TEXT	SEGMENT
TransformDesc$ = 8
__$ArrayPad$ = 216
this$ = 256
?AddComponents@CKalienina@Client@@AEAAJXZ PROC		; Client::CKalienina::AddComponents, COMDAT

; 145  : {

$LN8:
  00000	48 89 4c 24 08	 mov	 QWORD PTR [rsp+8], rcx
  00005	55		 push	 rbp
  00006	57		 push	 rdi
  00007	48 81 ec 18 01
	00 00		 sub	 rsp, 280		; 00000118H
  0000e	48 8d 6c 24 30	 lea	 rbp, QWORD PTR [rsp+48]
  00013	48 8b fc	 mov	 rdi, rsp
  00016	b9 46 00 00 00	 mov	 ecx, 70			; 00000046H
  0001b	b8 cc cc cc cc	 mov	 eax, -858993460		; ccccccccH
  00020	f3 ab		 rep stosd
  00022	48 8b 8c 24 38
	01 00 00	 mov	 rcx, QWORD PTR [rsp+312]
  0002a	48 8b 05 00 00
	00 00		 mov	 rax, QWORD PTR __security_cookie
  00031	48 33 c5	 xor	 rax, rbp
  00034	48 89 85 d8 00
	00 00		 mov	 QWORD PTR __$ArrayPad$[rbp], rax

; 146  : 	if (FAILED(CGameObject::Add_Component(LEVEL_STATIC, TEXT("proto_com_renderer"), TEXT("com_renderer"), (CComponent**)&mRenderer)))

  0003b	48 8b 85 00 01
	00 00		 mov	 rax, QWORD PTR this$[rbp]
  00042	48 83 c0 78	 add	 rax, 120		; 00000078H
  00046	48 c7 44 24 28
	00 00 00 00	 mov	 QWORD PTR [rsp+40], 0
  0004f	48 89 44 24 20	 mov	 QWORD PTR [rsp+32], rax
  00054	4c 8d 0d 00 00
	00 00		 lea	 r9, OFFSET FLAT:??_C@_1BK@GIOMOCNE@?$AAc?$AAo?$AAm?$AA_?$AAr?$AAe?$AAn?$AAd?$AAe?$AAr?$AAe?$AAr?$AA?$AA@
  0005b	4c 8d 05 00 00
	00 00		 lea	 r8, OFFSET FLAT:??_C@_1CG@COFFFCLL@?$AAp?$AAr?$AAo?$AAt?$AAo?$AA_?$AAc?$AAo?$AAm?$AA_?$AAr?$AAe?$AAn?$AAd?$AAe?$AAr?$AAe?$AAr?$AA?$AA@
  00062	33 d2		 xor	 edx, edx
  00064	48 8b 8d 00 01
	00 00		 mov	 rcx, QWORD PTR this$[rbp]
  0006b	ff 15 00 00 00
	00		 call	 QWORD PTR __imp_?Add_Component@CGameObject@Engine@@IEAAJIPEB_W0PEAPEAVCComponent@2@PEAX@Z
  00071	85 c0		 test	 eax, eax
  00073	7d 0a		 jge	 SHORT $LN2@AddCompone

; 147  : 		return E_FAIL;

  00075	b8 05 40 00 80	 mov	 eax, -2147467259	; ffffffff80004005H
  0007a	e9 58 01 00 00	 jmp	 $LN1@AddCompone
$LN2@AddCompone:

; 148  : 
; 149  : 	CTransform::TRANSFORM_DESC TransformDesc;
; 150  : 	ZeroMemory(&TransformDesc, sizeof(CTransform::TRANSFORM_DESC));

  0007f	41 b8 08 00 00
	00		 mov	 r8d, 8
  00085	33 d2		 xor	 edx, edx
  00087	48 8d 4d 08	 lea	 rcx, QWORD PTR TransformDesc$[rbp]
  0008b	e8 00 00 00 00	 call	 memset

; 151  : 
; 152  : 	TransformDesc.fMoveSpeed = m_fMoveSpeed;

  00090	48 8b 85 00 01
	00 00		 mov	 rax, QWORD PTR this$[rbp]
  00097	f3 0f 10 80 d4
	00 00 00	 movss	 xmm0, DWORD PTR [rax+212]
  0009f	f3 0f 11 45 08	 movss	 DWORD PTR TransformDesc$[rbp], xmm0

; 153  : 	TransformDesc.fRotationSpeed = XMConvertToRadians(m_fRotationSpeed);

  000a4	48 8b 85 00 01
	00 00		 mov	 rax, QWORD PTR this$[rbp]
  000ab	f3 0f 10 80 d8
	00 00 00	 movss	 xmm0, DWORD PTR [rax+216]
  000b3	e8 00 00 00 00	 call	 ?XMConvertToRadians@DirectX@@YAMM@Z ; DirectX::XMConvertToRadians
  000b8	f3 0f 11 45 0c	 movss	 DWORD PTR TransformDesc$[rbp+4], xmm0

; 154  : 
; 155  : 	if (FAILED(CGameObject::Add_Component(LEVEL_STATIC, TEXT("proto_com_transform"), TEXT("com_transform"), (CComponent**)&mTransform, &TransformDesc)))

  000bd	48 8b 85 00 01
	00 00		 mov	 rax, QWORD PTR this$[rbp]
  000c4	48 05 80 00 00
	00		 add	 rax, 128		; 00000080H
  000ca	48 8d 4d 08	 lea	 rcx, QWORD PTR TransformDesc$[rbp]
  000ce	48 89 4c 24 28	 mov	 QWORD PTR [rsp+40], rcx
  000d3	48 89 44 24 20	 mov	 QWORD PTR [rsp+32], rax
  000d8	4c 8d 0d 00 00
	00 00		 lea	 r9, OFFSET FLAT:??_C@_1BM@CJMPMHDD@?$AAc?$AAo?$AAm?$AA_?$AAt?$AAr?$AAa?$AAn?$AAs?$AAf?$AAo?$AAr?$AAm?$AA?$AA@
  000df	4c 8d 05 00 00
	00 00		 lea	 r8, OFFSET FLAT:??_C@_1CI@MLEFGO@?$AAp?$AAr?$AAo?$AAt?$AAo?$AA_?$AAc?$AAo?$AAm?$AA_?$AAt?$AAr?$AAa?$AAn?$AAs?$AAf?$AAo?$AAr?$AAm?$AA?$AA@
  000e6	33 d2		 xor	 edx, edx
  000e8	48 8b 8d 00 01
	00 00		 mov	 rcx, QWORD PTR this$[rbp]
  000ef	ff 15 00 00 00
	00		 call	 QWORD PTR __imp_?Add_Component@CGameObject@Engine@@IEAAJIPEB_W0PEAPEAVCComponent@2@PEAX@Z
  000f5	85 c0		 test	 eax, eax
  000f7	7d 0a		 jge	 SHORT $LN3@AddCompone

; 156  : 		return E_FAIL;

  000f9	b8 05 40 00 80	 mov	 eax, -2147467259	; ffffffff80004005H
  000fe	e9 d4 00 00 00	 jmp	 $LN1@AddCompone
$LN3@AddCompone:

; 157  : 
; 158  : 	if (FAILED(CGameObject::Add_Component(LEVEL_STATIC, TEXT("proto_com_transform"), TEXT("com_camera_socket_transform"), (CComponent**)&mCameraSocketTransform, &TransformDesc)))

  00103	48 8b 85 00 01
	00 00		 mov	 rax, QWORD PTR this$[rbp]
  0010a	48 05 a8 00 00
	00		 add	 rax, 168		; 000000a8H
  00110	48 8d 4d 08	 lea	 rcx, QWORD PTR TransformDesc$[rbp]
  00114	48 89 4c 24 28	 mov	 QWORD PTR [rsp+40], rcx
  00119	48 89 44 24 20	 mov	 QWORD PTR [rsp+32], rax
  0011e	4c 8d 0d 00 00
	00 00		 lea	 r9, OFFSET FLAT:??_C@_1DI@OLGFHDLM@?$AAc?$AAo?$AAm?$AA_?$AAc?$AAa?$AAm?$AAe?$AAr?$AAa?$AA_?$AAs?$AAo?$AAc?$AAk?$AAe?$AAt?$AA_?$AAt?$AAr?$AAa?$AAn?$AAs?$AAf?$AAo?$AAr?$AAm?$AA?$AA@
  00125	4c 8d 05 00 00
	00 00		 lea	 r8, OFFSET FLAT:??_C@_1CI@MLEFGO@?$AAp?$AAr?$AAo?$AAt?$AAo?$AA_?$AAc?$AAo?$AAm?$AA_?$AAt?$AAr?$AAa?$AAn?$AAs?$AAf?$AAo?$AAr?$AAm?$AA?$AA@
  0012c	33 d2		 xor	 edx, edx
  0012e	48 8b 8d 00 01
	00 00		 mov	 rcx, QWORD PTR this$[rbp]
  00135	ff 15 00 00 00
	00		 call	 QWORD PTR __imp_?Add_Component@CGameObject@Engine@@IEAAJIPEB_W0PEAPEAVCComponent@2@PEAX@Z
  0013b	85 c0		 test	 eax, eax
  0013d	7d 0a		 jge	 SHORT $LN4@AddCompone

; 159  : 		return E_FAIL;

  0013f	b8 05 40 00 80	 mov	 eax, -2147467259	; ffffffff80004005H
  00144	e9 8e 00 00 00	 jmp	 $LN1@AddCompone
$LN4@AddCompone:

; 160  : 
; 161  : 	if (FAILED(CGameObject::Add_Component(LEVEL_GAMEPLAY, TEXT("proto_com_shader_vtxanimmodel"), TEXT("com_shader"), (CComponent**)&mShader)))

  00149	48 8b 85 00 01
	00 00		 mov	 rax, QWORD PTR this$[rbp]
  00150	48 05 90 00 00
	00		 add	 rax, 144		; 00000090H
  00156	48 c7 44 24 28
	00 00 00 00	 mov	 QWORD PTR [rsp+40], 0
  0015f	48 89 44 24 20	 mov	 QWORD PTR [rsp+32], rax
  00164	4c 8d 0d 00 00
	00 00		 lea	 r9, OFFSET FLAT:??_C@_1BG@GGOMMBBL@?$AAc?$AAo?$AAm?$AA_?$AAs?$AAh?$AAa?$AAd?$AAe?$AAr?$AA?$AA@
  0016b	4c 8d 05 00 00
	00 00		 lea	 r8, OFFSET FLAT:??_C@_1DM@OGMOEMJ@?$AAp?$AAr?$AAo?$AAt?$AAo?$AA_?$AAc?$AAo?$AAm?$AA_?$AAs?$AAh?$AAa?$AAd?$AAe?$AAr?$AA_?$AAv?$AAt?$AAx?$AAa?$AAn?$AAi?$AAm?$AAm?$AAo?$AAd?$AAe?$AAl?$AA?$AA@
  00172	ba 03 00 00 00	 mov	 edx, 3
  00177	48 8b 8d 00 01
	00 00		 mov	 rcx, QWORD PTR this$[rbp]
  0017e	ff 15 00 00 00
	00		 call	 QWORD PTR __imp_?Add_Component@CGameObject@Engine@@IEAAJIPEB_W0PEAPEAVCComponent@2@PEAX@Z
  00184	85 c0		 test	 eax, eax
  00186	7d 07		 jge	 SHORT $LN5@AddCompone

; 162  : 		return E_FAIL;

  00188	b8 05 40 00 80	 mov	 eax, -2147467259	; ffffffff80004005H
  0018d	eb 48		 jmp	 SHORT $LN1@AddCompone
$LN5@AddCompone:

; 163  : 
; 164  : 	if (FAILED(CGameObject::Add_Component(LEVEL_GAMEPLAY, TEXT("proto_com_model_kalienina"), TEXT("com_model"), (CComponent**)&mModel)))

  0018f	48 8b 85 00 01
	00 00		 mov	 rax, QWORD PTR this$[rbp]
  00196	48 05 88 00 00
	00		 add	 rax, 136		; 00000088H
  0019c	48 c7 44 24 28
	00 00 00 00	 mov	 QWORD PTR [rsp+40], 0
  001a5	48 89 44 24 20	 mov	 QWORD PTR [rsp+32], rax
  001aa	4c 8d 0d 00 00
	00 00		 lea	 r9, OFFSET FLAT:??_C@_1BE@MLNOEPCA@?$AAc?$AAo?$AAm?$AA_?$AAm?$AAo?$AAd?$AAe?$AAl?$AA?$AA@
  001b1	4c 8d 05 00 00
	00 00		 lea	 r8, OFFSET FLAT:??_C@_1DE@NIJICLJG@?$AAp?$AAr?$AAo?$AAt?$AAo?$AA_?$AAc?$AAo?$AAm?$AA_?$AAm?$AAo?$AAd?$AAe?$AAl?$AA_?$AAk?$AAa?$AAl?$AAi?$AAe?$AAn?$AAi?$AAn?$AAa?$AA?$AA@
  001b8	ba 03 00 00 00	 mov	 edx, 3
  001bd	48 8b 8d 00 01
	00 00		 mov	 rcx, QWORD PTR this$[rbp]
  001c4	ff 15 00 00 00
	00		 call	 QWORD PTR __imp_?Add_Component@CGameObject@Engine@@IEAAJIPEB_W0PEAPEAVCComponent@2@PEAX@Z
  001ca	85 c0		 test	 eax, eax
  001cc	7d 07		 jge	 SHORT $LN6@AddCompone

; 165  : 		return E_FAIL;

  001ce	b8 05 40 00 80	 mov	 eax, -2147467259	; ffffffff80004005H
  001d3	eb 02		 jmp	 SHORT $LN1@AddCompone
$LN6@AddCompone:

; 166  : 
; 167  : 	return S_OK;

  001d5	33 c0		 xor	 eax, eax
$LN1@AddCompone:

; 168  : }

  001d7	48 8b f8	 mov	 rdi, rax
  001da	48 8d 4d d0	 lea	 rcx, QWORD PTR [rbp-48]
  001de	48 8d 15 00 00
	00 00		 lea	 rdx, OFFSET FLAT:?AddComponents@CKalienina@Client@@AEAAJXZ$rtcFrameData
  001e5	e8 00 00 00 00	 call	 _RTC_CheckStackVars
  001ea	48 8b c7	 mov	 rax, rdi
  001ed	48 8b 8d d8 00
	00 00		 mov	 rcx, QWORD PTR __$ArrayPad$[rbp]
  001f4	48 33 cd	 xor	 rcx, rbp
  001f7	e8 00 00 00 00	 call	 __security_check_cookie
  001fc	48 8d a5 e8 00
	00 00		 lea	 rsp, QWORD PTR [rbp+232]
  00203	5f		 pop	 rdi
  00204	5d		 pop	 rbp
  00205	c3		 ret	 0
?AddComponents@CKalienina@Client@@AEAAJXZ ENDP		; Client::CKalienina::AddComponents
_TEXT	ENDS
; Function compile flags: /Odtp /RTCsu /ZI
; File c:\github\framework\client\private\kalienina.cpp
;	COMDAT ?AddWeapon@CKalienina@Client@@AEAAJXZ
_TEXT	SEGMENT
pGameInstance$ = 8
descOwner$ = 40
$T4 = 280
$T5 = 344
tv89 = 360
__$ArrayPad$ = 368
this$ = 416
?AddWeapon@CKalienina@Client@@AEAAJXZ PROC		; Client::CKalienina::AddWeapon, COMDAT

; 129  : {

$LN5:
  00000	48 89 4c 24 08	 mov	 QWORD PTR [rsp+8], rcx
  00005	55		 push	 rbp
  00006	57		 push	 rdi
  00007	48 81 ec b8 01
	00 00		 sub	 rsp, 440		; 000001b8H
  0000e	48 8d 6c 24 30	 lea	 rbp, QWORD PTR [rsp+48]
  00013	48 8b fc	 mov	 rdi, rsp
  00016	b9 6e 00 00 00	 mov	 ecx, 110		; 0000006eH
  0001b	b8 cc cc cc cc	 mov	 eax, -858993460		; ccccccccH
  00020	f3 ab		 rep stosd
  00022	48 8b 8c 24 d8
	01 00 00	 mov	 rcx, QWORD PTR [rsp+472]
  0002a	48 8b 05 00 00
	00 00		 mov	 rax, QWORD PTR __security_cookie
  00031	48 33 c5	 xor	 rax, rbp
  00034	48 89 85 70 01
	00 00		 mov	 QWORD PTR __$ArrayPad$[rbp], rax

; 130  : 	//  
; 131  : 	CGameInstance* pGameInstance = CGameInstance::GetInstance();

  0003b	ff 15 00 00 00
	00		 call	 QWORD PTR __imp_?GetInstance@CGameInstance@Engine@@SAPEAV12@XZ
  00041	48 89 45 08	 mov	 QWORD PTR pGameInstance$[rbp], rax

; 132  : 
; 133  : 	CSleeve::OWNER_DESC descOwner;
; 134  : 	descOwner.pModel = mModel;

  00045	48 8b 85 a0 01
	00 00		 mov	 rax, QWORD PTR this$[rbp]
  0004c	48 8b 80 88 00
	00 00		 mov	 rax, QWORD PTR [rax+136]
  00053	48 89 45 28	 mov	 QWORD PTR descOwner$[rbp], rax

; 135  : 	descOwner.pWeaponCase = mModel->GetBonePtr("WeaponCase1");

  00057	48 8d 15 00 00
	00 00		 lea	 rdx, OFFSET FLAT:??_C@_0M@CNNLLOGJ@WeaponCase1?$AA@
  0005e	48 8b 85 a0 01
	00 00		 mov	 rax, QWORD PTR this$[rbp]
  00065	48 8b 88 88 00
	00 00		 mov	 rcx, QWORD PTR [rax+136]
  0006c	ff 15 00 00 00
	00		 call	 QWORD PTR __imp_?GetBonePtr@CModel@Engine@@QEAAPEAVCBone@2@PEBD@Z
  00072	48 89 45 38	 mov	 QWORD PTR descOwner$[rbp+16], rax

; 136  : 	descOwner.pTransform = mTransform;

  00076	48 8b 85 a0 01
	00 00		 mov	 rax, QWORD PTR this$[rbp]
  0007d	48 8b 80 80 00
	00 00		 mov	 rax, QWORD PTR [rax+128]
  00084	48 89 45 30	 mov	 QWORD PTR descOwner$[rbp+8], rax

; 137  : 
; 138  : 	if (nullptr == (pGameInstance->Add_GameObject(LEVEL_GAMEPLAY, TEXT("proto_obj_kalienina_weapon"), L"player_weapon", L"weapon", &descOwner)))

  00088	48 8d 85 18 01
	00 00		 lea	 rax, QWORD PTR $T4[rbp]
  0008f	48 89 85 58 01
	00 00		 mov	 QWORD PTR $T5[rbp], rax
  00096	48 8d 15 00 00
	00 00		 lea	 rdx, OFFSET FLAT:??_C@_1O@KBDJEHME@?$AAw?$AAe?$AAa?$AAp?$AAo?$AAn?$AA?$AA@
  0009d	48 8b 8d 58 01
	00 00		 mov	 rcx, QWORD PTR $T5[rbp]
  000a4	e8 00 00 00 00	 call	 ??0?$basic_string@_WU?$char_traits@_W@std@@V?$allocator@_W@2@@std@@QEAA@PEB_W@Z ; std::basic_string<wchar_t,std::char_traits<wchar_t>,std::allocator<wchar_t> >::basic_string<wchar_t,std::char_traits<wchar_t>,std::allocator<wchar_t> >
  000a9	48 89 85 68 01
	00 00		 mov	 QWORD PTR tv89[rbp], rax
  000b0	48 8d 45 28	 lea	 rax, QWORD PTR descOwner$[rbp]
  000b4	48 89 44 24 28	 mov	 QWORD PTR [rsp+40], rax
  000b9	48 8b 85 68 01
	00 00		 mov	 rax, QWORD PTR tv89[rbp]
  000c0	48 89 44 24 20	 mov	 QWORD PTR [rsp+32], rax
  000c5	4c 8d 0d 00 00
	00 00		 lea	 r9, OFFSET FLAT:??_C@_1BM@BGDMLINA@?$AAp?$AAl?$AAa?$AAy?$AAe?$AAr?$AA_?$AAw?$AAe?$AAa?$AAp?$AAo?$AAn?$AA?$AA@
  000cc	4c 8d 05 00 00
	00 00		 lea	 r8, OFFSET FLAT:??_C@_1DG@OGOFKAOF@?$AAp?$AAr?$AAo?$AAt?$AAo?$AA_?$AAo?$AAb?$AAj?$AA_?$AAk?$AAa?$AAl?$AAi?$AAe?$AAn?$AAi?$AAn?$AAa?$AA_?$AAw?$AAe?$AAa?$AAp?$AAo?$AAn?$AA?$AA@
  000d3	ba 03 00 00 00	 mov	 edx, 3
  000d8	48 8b 4d 08	 mov	 rcx, QWORD PTR pGameInstance$[rbp]
  000dc	ff 15 00 00 00
	00		 call	 QWORD PTR __imp_?Add_GameObject@CGameInstance@Engine@@QEAAPEAVCGameObject@2@IPEB_W0V?$basic_string@_WU?$char_traits@_W@std@@V?$allocator@_W@2@@std@@PEAX@Z
  000e2	48 85 c0	 test	 rax, rax
  000e5	75 07		 jne	 SHORT $LN2@AddWeapon

; 139  : 		return E_FAIL;

  000e7	b8 05 40 00 80	 mov	 eax, -2147467259	; ffffffff80004005H
  000ec	eb 02		 jmp	 SHORT $LN1@AddWeapon
$LN2@AddWeapon:

; 140  : 
; 141  : 	return S_OK;

  000ee	33 c0		 xor	 eax, eax
$LN1@AddWeapon:

; 142  : }

  000f0	48 8b f8	 mov	 rdi, rax
  000f3	48 8d 4d d0	 lea	 rcx, QWORD PTR [rbp-48]
  000f7	48 8d 15 00 00
	00 00		 lea	 rdx, OFFSET FLAT:?AddWeapon@CKalienina@Client@@AEAAJXZ$rtcFrameData
  000fe	e8 00 00 00 00	 call	 _RTC_CheckStackVars
  00103	48 8b c7	 mov	 rax, rdi
  00106	48 8b 8d 70 01
	00 00		 mov	 rcx, QWORD PTR __$ArrayPad$[rbp]
  0010d	48 33 cd	 xor	 rcx, rbp
  00110	e8 00 00 00 00	 call	 __security_check_cookie
  00115	48 8d a5 88 01
	00 00		 lea	 rsp, QWORD PTR [rbp+392]
  0011c	5f		 pop	 rdi
  0011d	5d		 pop	 rbp
  0011e	c3		 ret	 0
?AddWeapon@CKalienina@Client@@AEAAJXZ ENDP		; Client::CKalienina::AddWeapon
_TEXT	ENDS
; Function compile flags: /Odtp /RTCsu /ZI
; File c:\github\framework\client\private\kalienina.cpp
;	COMDAT ?GetBone@CKalienina@Client@@QEBAPEBVCBone@Engine@@PEBD@Z
_TEXT	SEGMENT
this$ = 224
szBoneName$ = 232
?GetBone@CKalienina@Client@@QEBAPEBVCBone@Engine@@PEBD@Z PROC ; Client::CKalienina::GetBone, COMDAT

; 124  : {

$LN3:
  00000	48 89 54 24 10	 mov	 QWORD PTR [rsp+16], rdx
  00005	48 89 4c 24 08	 mov	 QWORD PTR [rsp+8], rcx
  0000a	55		 push	 rbp
  0000b	57		 push	 rdi
  0000c	48 81 ec e8 00
	00 00		 sub	 rsp, 232		; 000000e8H
  00013	48 8d 6c 24 20	 lea	 rbp, QWORD PTR [rsp+32]
  00018	48 8b fc	 mov	 rdi, rsp
  0001b	b9 3a 00 00 00	 mov	 ecx, 58			; 0000003aH
  00020	b8 cc cc cc cc	 mov	 eax, -858993460		; ccccccccH
  00025	f3 ab		 rep stosd
  00027	48 8b 8c 24 08
	01 00 00	 mov	 rcx, QWORD PTR [rsp+264]

; 125  : 	return mModel->GetBonePtr(szBoneName);

  0002f	48 8b 95 e8 00
	00 00		 mov	 rdx, QWORD PTR szBoneName$[rbp]
  00036	48 8b 85 e0 00
	00 00		 mov	 rax, QWORD PTR this$[rbp]
  0003d	48 8b 88 88 00
	00 00		 mov	 rcx, QWORD PTR [rax+136]
  00044	ff 15 00 00 00
	00		 call	 QWORD PTR __imp_?GetBonePtr@CModel@Engine@@QEAAPEAVCBone@2@PEBD@Z

; 126  : }

  0004a	48 8d a5 c8 00
	00 00		 lea	 rsp, QWORD PTR [rbp+200]
  00051	5f		 pop	 rdi
  00052	5d		 pop	 rbp
  00053	c3		 ret	 0
?GetBone@CKalienina@Client@@QEBAPEBVCBone@Engine@@PEBD@Z ENDP ; Client::CKalienina::GetBone
_TEXT	ENDS
; Function compile flags: /Odtp /RTCsu /ZI
; File c:\github\framework\client\private\kalienina.cpp
;	COMDAT ?RenderGUI@CKalienina@Client@@UEAAXXZ
_TEXT	SEGMENT
vPos$ = 8
$T4 = 256
__$ArrayPad$ = 280
this$ = 320
?RenderGUI@CKalienina@Client@@UEAAXXZ PROC		; Client::CKalienina::RenderGUI, COMDAT

; 113  : {

$LN3:
  00000	48 89 4c 24 08	 mov	 QWORD PTR [rsp+8], rcx
  00005	55		 push	 rbp
  00006	57		 push	 rdi
  00007	48 81 ec 48 01
	00 00		 sub	 rsp, 328		; 00000148H
  0000e	48 8d 6c 24 20	 lea	 rbp, QWORD PTR [rsp+32]
  00013	48 8b fc	 mov	 rdi, rsp
  00016	b9 52 00 00 00	 mov	 ecx, 82			; 00000052H
  0001b	b8 cc cc cc cc	 mov	 eax, -858993460		; ccccccccH
  00020	f3 ab		 rep stosd
  00022	48 8b 8c 24 68
	01 00 00	 mov	 rcx, QWORD PTR [rsp+360]
  0002a	48 8b 05 00 00
	00 00		 mov	 rax, QWORD PTR __security_cookie
  00031	48 33 c5	 xor	 rax, rbp
  00034	48 89 85 18 01
	00 00		 mov	 QWORD PTR __$ArrayPad$[rbp], rax

; 114  : 	ImGui::Begin("Transform");

  0003b	45 33 c0	 xor	 r8d, r8d
  0003e	33 d2		 xor	 edx, edx
  00040	48 8d 0d 00 00
	00 00		 lea	 rcx, OFFSET FLAT:??_C@_09MKLAHOHG@Transform?$AA@
  00047	e8 00 00 00 00	 call	 ?Begin@ImGui@@YA_NPEBDPEA_NH@Z ; ImGui::Begin

; 115  : 	_float3 vPos;

  0004c	48 8d 4d 08	 lea	 rcx, QWORD PTR vPos$[rbp]
  00050	e8 00 00 00 00	 call	 ??0XMFLOAT3@DirectX@@QEAA@XZ ; DirectX::XMFLOAT3::XMFLOAT3

; 116  : 	XMStoreFloat3(&vPos, mTransform->Get_State(CTransform::STATE_POSITION));

  00055	41 b8 03 00 00
	00		 mov	 r8d, 3
  0005b	48 8d 95 00 01
	00 00		 lea	 rdx, QWORD PTR $T4[rbp]
  00062	48 8b 85 40 01
	00 00		 mov	 rax, QWORD PTR this$[rbp]
  00069	48 8b 88 80 00
	00 00		 mov	 rcx, QWORD PTR [rax+128]
  00070	ff 15 00 00 00
	00		 call	 QWORD PTR __imp_?Get_State@CTransform@Engine@@QEAA?AT__m128@@W4STATE@12@@Z
  00076	0f 10 08	 movups	 xmm1, XMMWORD PTR [rax]
  00079	48 8d 4d 08	 lea	 rcx, QWORD PTR vPos$[rbp]
  0007d	e8 00 00 00 00	 call	 ?XMStoreFloat3@DirectX@@YQXPEAUXMFLOAT3@1@T__m128@@@Z ; DirectX::XMStoreFloat3

; 117  : 
; 118  : 	ImGui::InputFloat3("Position", (_float*)&vPos);

  00082	45 33 c9	 xor	 r9d, r9d
  00085	4c 8d 05 00 00
	00 00		 lea	 r8, OFFSET FLAT:??_C@_04GFJLOHHD@?$CF?43f?$AA@
  0008c	48 8d 55 08	 lea	 rdx, QWORD PTR vPos$[rbp]
  00090	48 8d 0d 00 00
	00 00		 lea	 rcx, OFFSET FLAT:??_C@_08GCJNLIKG@Position?$AA@
  00097	e8 00 00 00 00	 call	 ?InputFloat3@ImGui@@YA_NPEBDQEAM0H@Z ; ImGui::InputFloat3

; 119  : 
; 120  : 	ImGui::End();

  0009c	e8 00 00 00 00	 call	 ?End@ImGui@@YAXXZ	; ImGui::End

; 121  : }

  000a1	48 8d 4d e0	 lea	 rcx, QWORD PTR [rbp-32]
  000a5	48 8d 15 00 00
	00 00		 lea	 rdx, OFFSET FLAT:?RenderGUI@CKalienina@Client@@UEAAXXZ$rtcFrameData
  000ac	e8 00 00 00 00	 call	 _RTC_CheckStackVars
  000b1	48 8b 8d 18 01
	00 00		 mov	 rcx, QWORD PTR __$ArrayPad$[rbp]
  000b8	48 33 cd	 xor	 rcx, rbp
  000bb	e8 00 00 00 00	 call	 __security_check_cookie
  000c0	48 8d a5 28 01
	00 00		 lea	 rsp, QWORD PTR [rbp+296]
  000c7	5f		 pop	 rdi
  000c8	5d		 pop	 rbp
  000c9	c3		 ret	 0
?RenderGUI@CKalienina@Client@@UEAAXXZ ENDP		; Client::CKalienina::RenderGUI
_TEXT	ENDS
; Function compile flags: /Odtp /RTCsu /ZI
; File c:\github\framework\client\private\kalienina.cpp
;	COMDAT ?Render@CKalienina@Client@@UEAAJXZ
_TEXT	SEGMENT
MeshCount$ = 4
i$1 = 36
this$ = 288
?Render@CKalienina@Client@@UEAAJXZ PROC			; Client::CKalienina::Render, COMDAT

; 91   : {

$LN8:
  00000	48 89 4c 24 08	 mov	 QWORD PTR [rsp+8], rcx
  00005	55		 push	 rbp
  00006	57		 push	 rdi
  00007	48 81 ec 38 01
	00 00		 sub	 rsp, 312		; 00000138H
  0000e	48 8d 6c 24 30	 lea	 rbp, QWORD PTR [rsp+48]
  00013	48 8b fc	 mov	 rdi, rsp
  00016	b9 4e 00 00 00	 mov	 ecx, 78			; 0000004eH
  0001b	b8 cc cc cc cc	 mov	 eax, -858993460		; ccccccccH
  00020	f3 ab		 rep stosd
  00022	48 8b 8c 24 58
	01 00 00	 mov	 rcx, QWORD PTR [rsp+344]

; 92   : 	if (FAILED(__super::Render()))

  0002a	48 8b 8d 20 01
	00 00		 mov	 rcx, QWORD PTR this$[rbp]
  00031	ff 15 00 00 00
	00		 call	 QWORD PTR __imp_?Render@CGameObject@Engine@@UEAAJXZ
  00037	85 c0		 test	 eax, eax
  00039	7d 0a		 jge	 SHORT $LN5@Render

; 93   : 		return E_FAIL;

  0003b	b8 05 40 00 80	 mov	 eax, -2147467259	; ffffffff80004005H
  00040	e9 e4 00 00 00	 jmp	 $LN1@Render
$LN5@Render:

; 94   : 
; 95   : 	if (FAILED(SetupShaderResources()))

  00045	48 8b 8d 20 01
	00 00		 mov	 rcx, QWORD PTR this$[rbp]
  0004c	e8 00 00 00 00	 call	 ?SetupShaderResources@CKalienina@Client@@AEAAJXZ ; Client::CKalienina::SetupShaderResources
  00051	85 c0		 test	 eax, eax
  00053	7d 0a		 jge	 SHORT $LN6@Render

; 96   : 		return E_FAIL;

  00055	b8 05 40 00 80	 mov	 eax, -2147467259	; ffffffff80004005H
  0005a	e9 ca 00 00 00	 jmp	 $LN1@Render
$LN6@Render:

; 97   : 
; 98   : 	_uint MeshCount = mModel->Get_MeshCount();

  0005f	48 8b 85 20 01
	00 00		 mov	 rax, QWORD PTR this$[rbp]
  00066	48 8b 88 88 00
	00 00		 mov	 rcx, QWORD PTR [rax+136]
  0006d	ff 15 00 00 00
	00		 call	 QWORD PTR __imp_?Get_MeshCount@CModel@Engine@@QEAAIXZ
  00073	89 45 04	 mov	 DWORD PTR MeshCount$[rbp], eax

; 99   : 	for (_uint i = 0; i < MeshCount; ++i)

  00076	c7 45 24 00 00
	00 00		 mov	 DWORD PTR i$1[rbp], 0
  0007d	eb 08		 jmp	 SHORT $LN4@Render
$LN2@Render:
  0007f	8b 45 24	 mov	 eax, DWORD PTR i$1[rbp]
  00082	ff c0		 inc	 eax
  00084	89 45 24	 mov	 DWORD PTR i$1[rbp], eax
$LN4@Render:
  00087	8b 45 04	 mov	 eax, DWORD PTR MeshCount$[rbp]
  0008a	39 45 24	 cmp	 DWORD PTR i$1[rbp], eax
  0008d	0f 83 94 00 00
	00		 jae	 $LN3@Render

; 100  : 	{
; 101  : 		mModel->Setup_ShaderMaterialResource(mShader, "g_DiffuseTexture", i, aiTextureType::aiTextureType_DIFFUSE);

  00093	c7 44 24 20 01
	00 00 00	 mov	 DWORD PTR [rsp+32], 1
  0009b	44 8b 4d 24	 mov	 r9d, DWORD PTR i$1[rbp]
  0009f	4c 8d 05 00 00
	00 00		 lea	 r8, OFFSET FLAT:??_C@_0BB@FMIBAICL@g_DiffuseTexture?$AA@
  000a6	48 8b 85 20 01
	00 00		 mov	 rax, QWORD PTR this$[rbp]
  000ad	48 8b 90 90 00
	00 00		 mov	 rdx, QWORD PTR [rax+144]
  000b4	48 8b 85 20 01
	00 00		 mov	 rax, QWORD PTR this$[rbp]
  000bb	48 8b 88 88 00
	00 00		 mov	 rcx, QWORD PTR [rax+136]
  000c2	ff 15 00 00 00
	00		 call	 QWORD PTR __imp_?Setup_ShaderMaterialResource@CModel@Engine@@QEAAJPEAVCShader@2@PEBDIW4aiTextureType@@@Z

; 102  : 		//m_pModelCom->SetUp_ShaderMaterialResource(m_pShaderCom, "g_AmbientTexture", i, aiTextureType_AMBIENT);
; 103  : 
; 104  : 		mModel->Setup_BoneMatrices(mShader, "g_BoneMatrix", i);

  000c8	44 8b 4d 24	 mov	 r9d, DWORD PTR i$1[rbp]
  000cc	4c 8d 05 00 00
	00 00		 lea	 r8, OFFSET FLAT:??_C@_0N@OEHGEODD@g_BoneMatrix?$AA@
  000d3	48 8b 85 20 01
	00 00		 mov	 rax, QWORD PTR this$[rbp]
  000da	48 8b 90 90 00
	00 00		 mov	 rdx, QWORD PTR [rax+144]
  000e1	48 8b 85 20 01
	00 00		 mov	 rax, QWORD PTR this$[rbp]
  000e8	48 8b 88 88 00
	00 00		 mov	 rcx, QWORD PTR [rax+136]
  000ef	ff 15 00 00 00
	00		 call	 QWORD PTR __imp_?Setup_BoneMatrices@CModel@Engine@@QEAAJPEAVCShader@2@PEBDI@Z

; 105  : 		mShader->Begin(0);

  000f5	33 d2		 xor	 edx, edx
  000f7	48 8b 85 20 01
	00 00		 mov	 rax, QWORD PTR this$[rbp]
  000fe	48 8b 88 90 00
	00 00		 mov	 rcx, QWORD PTR [rax+144]
  00105	ff 15 00 00 00
	00		 call	 QWORD PTR __imp_?Begin@CShader@Engine@@QEAAJI@Z

; 106  : 		mModel->Render(i);

  0010b	8b 55 24	 mov	 edx, DWORD PTR i$1[rbp]
  0010e	48 8b 85 20 01
	00 00		 mov	 rax, QWORD PTR this$[rbp]
  00115	48 8b 88 88 00
	00 00		 mov	 rcx, QWORD PTR [rax+136]
  0011c	ff 15 00 00 00
	00		 call	 QWORD PTR __imp_?Render@CModel@Engine@@QEAAJI@Z

; 107  : 	}

  00122	e9 58 ff ff ff	 jmp	 $LN2@Render
$LN3@Render:

; 108  : 	
; 109  : 	return S_OK;

  00127	33 c0		 xor	 eax, eax
$LN1@Render:

; 110  : }

  00129	48 8d a5 08 01
	00 00		 lea	 rsp, QWORD PTR [rbp+264]
  00130	5f		 pop	 rdi
  00131	5d		 pop	 rbp
  00132	c3		 ret	 0
?Render@CKalienina@Client@@UEAAJXZ ENDP			; Client::CKalienina::Render
_TEXT	ENDS
; Function compile flags: /Odtp /RTCsu /ZI
; File c:\github\framework\client\private\kalienina.cpp
;	COMDAT ?LateTick@CKalienina@Client@@UEAAXN@Z
_TEXT	SEGMENT
vPosition$4 = 16
$T5 = 256
$T6 = 304
__$ArrayPad$ = 328
this$ = 368
TimeDelta$ = 376
?LateTick@CKalienina@Client@@UEAAXN@Z PROC		; Client::CKalienina::LateTick, COMDAT

; 63   : {

$LN5:
  00000	f2 0f 11 4c 24
	10		 movsd	 QWORD PTR [rsp+16], xmm1
  00006	48 89 4c 24 08	 mov	 QWORD PTR [rsp+8], rcx
  0000b	55		 push	 rbp
  0000c	57		 push	 rdi
  0000d	48 81 ec 78 01
	00 00		 sub	 rsp, 376		; 00000178H
  00014	48 8d 6c 24 20	 lea	 rbp, QWORD PTR [rsp+32]
  00019	48 8b fc	 mov	 rdi, rsp
  0001c	b9 5e 00 00 00	 mov	 ecx, 94			; 0000005eH
  00021	b8 cc cc cc cc	 mov	 eax, -858993460		; ccccccccH
  00026	f3 ab		 rep stosd
  00028	48 8b 8c 24 98
	01 00 00	 mov	 rcx, QWORD PTR [rsp+408]
  00030	48 8b 05 00 00
	00 00		 mov	 rax, QWORD PTR __security_cookie
  00037	48 33 c5	 xor	 rax, rbp
  0003a	48 89 85 48 01
	00 00		 mov	 QWORD PTR __$ArrayPad$[rbp], rax

; 64   : 	__super::LateTick(TimeDelta);

  00041	f2 0f 10 8d 78
	01 00 00	 movsd	 xmm1, QWORD PTR TimeDelta$[rbp]
  00049	48 8b 8d 70 01
	00 00		 mov	 rcx, QWORD PTR this$[rbp]
  00050	ff 15 00 00 00
	00		 call	 QWORD PTR __imp_?LateTick@CGameObject@Engine@@UEAAXN@Z

; 65   : 
; 66   : 
; 67   : 	AnimationControl(TimeDelta);

  00056	f2 0f 10 8d 78
	01 00 00	 movsd	 xmm1, QWORD PTR TimeDelta$[rbp]
  0005e	48 8b 8d 70 01
	00 00		 mov	 rcx, QWORD PTR this$[rbp]
  00065	e8 00 00 00 00	 call	 ?AnimationControl@CKalienina@Client@@AEAAXN@Z ; Client::CKalienina::AnimationControl

; 68   : 
; 69   : 	CameraSocketUpdate();

  0006a	48 8b 8d 70 01
	00 00		 mov	 rcx, QWORD PTR this$[rbp]
  00071	e8 00 00 00 00	 call	 ?CameraSocketUpdate@CKalienina@Client@@AEAAXXZ ; Client::CKalienina::CameraSocketUpdate

; 70   : 
; 71   : 	if (m_bOnTerrain)

  00076	48 8b 85 70 01
	00 00		 mov	 rax, QWORD PTR this$[rbp]
  0007d	0f b6 80 d3 00
	00 00		 movzx	 eax, BYTE PTR [rax+211]
  00084	85 c0		 test	 eax, eax
  00086	74 67		 je	 SHORT $LN2@LateTick

; 72   : 	{
; 73   : 		//_vector vPosition = mTransform->Get_State(CTransform::STATE_POSITION);
; 74   : 		//_float fOverY = XMVectorGetY(vPosition) - 0.2f;
; 75   : 
; 76   : 		//if (fOverY < 0.f)
; 77   : 		//{
; 78   : 		//	vPosition = XMVectorSetY(vPosition, XMVectorGetY(vPosition) + abs(fOverY));
; 79   : 		//	mTransform->Set_State(CTransform::STATE_POSITION, vPosition);
; 80   : 		//}
; 81   : 		_vector vPosition = mTransform->Get_State(CTransform::STATE_POSITION);

  00088	41 b8 03 00 00
	00		 mov	 r8d, 3
  0008e	48 8d 55 10	 lea	 rdx, QWORD PTR vPosition$4[rbp]
  00092	48 8b 85 70 01
	00 00		 mov	 rax, QWORD PTR this$[rbp]
  00099	48 8b 88 80 00
	00 00		 mov	 rcx, QWORD PTR [rax+128]
  000a0	ff 15 00 00 00
	00		 call	 QWORD PTR __imp_?Get_State@CTransform@Engine@@QEAA?AT__m128@@W4STATE@12@@Z

; 82   : 		vPosition = XMVectorSetY(vPosition, 0.f);

  000a6	0f 57 c9	 xorps	 xmm1, xmm1
  000a9	0f 28 45 10	 movaps	 xmm0, XMMWORD PTR vPosition$4[rbp]
  000ad	e8 00 00 00 00	 call	 ?XMVectorSetY@DirectX@@YQ?AT__m128@@T2@M@Z ; DirectX::XMVectorSetY
  000b2	0f 29 85 00 01
	00 00		 movaps	 XMMWORD PTR $T5[rbp], xmm0
  000b9	0f 28 85 00 01
	00 00		 movaps	 xmm0, XMMWORD PTR $T5[rbp]
  000c0	0f 29 45 10	 movaps	 XMMWORD PTR vPosition$4[rbp], xmm0

; 83   : 		mTransform->Set_State(CTransform::STATE_POSITION, vPosition);

  000c4	0f 28 45 10	 movaps	 xmm0, XMMWORD PTR vPosition$4[rbp]
  000c8	0f 29 85 30 01
	00 00		 movaps	 XMMWORD PTR $T6[rbp], xmm0
  000cf	4c 8d 85 30 01
	00 00		 lea	 r8, QWORD PTR $T6[rbp]
  000d6	ba 03 00 00 00	 mov	 edx, 3
  000db	48 8b 85 70 01
	00 00		 mov	 rax, QWORD PTR this$[rbp]
  000e2	48 8b 88 80 00
	00 00		 mov	 rcx, QWORD PTR [rax+128]
  000e9	ff 15 00 00 00
	00		 call	 QWORD PTR __imp_?Set_State@CTransform@Engine@@QEAAXW4STATE@12@T__m128@@@Z
$LN2@LateTick:

; 84   : 	}
; 85   : 
; 86   : 	if (nullptr != mRenderer)

  000ef	48 8b 85 70 01
	00 00		 mov	 rax, QWORD PTR this$[rbp]
  000f6	48 83 78 78 00	 cmp	 QWORD PTR [rax+120], 0
  000fb	74 1d		 je	 SHORT $LN3@LateTick

; 87   : 		mRenderer->Add_RenderGroup(CRenderer::RENDER_NONALPHA, this);

  000fd	4c 8b 85 70 01
	00 00		 mov	 r8, QWORD PTR this$[rbp]
  00104	ba 01 00 00 00	 mov	 edx, 1
  00109	48 8b 85 70 01
	00 00		 mov	 rax, QWORD PTR this$[rbp]
  00110	48 8b 48 78	 mov	 rcx, QWORD PTR [rax+120]
  00114	ff 15 00 00 00
	00		 call	 QWORD PTR __imp_?Add_RenderGroup@CRenderer@Engine@@QEAAJW4RENDER_GROUP@12@PEAVCGameObject@2@@Z
$LN3@LateTick:

; 88   : }

  0011a	48 8d 4d e0	 lea	 rcx, QWORD PTR [rbp-32]
  0011e	48 8d 15 00 00
	00 00		 lea	 rdx, OFFSET FLAT:?LateTick@CKalienina@Client@@UEAAXN@Z$rtcFrameData
  00125	e8 00 00 00 00	 call	 _RTC_CheckStackVars
  0012a	48 8b 8d 48 01
	00 00		 mov	 rcx, QWORD PTR __$ArrayPad$[rbp]
  00131	48 33 cd	 xor	 rcx, rbp
  00134	e8 00 00 00 00	 call	 __security_check_cookie
  00139	48 8d a5 58 01
	00 00		 lea	 rsp, QWORD PTR [rbp+344]
  00140	5f		 pop	 rdi
  00141	5d		 pop	 rbp
  00142	c3		 ret	 0
?LateTick@CKalienina@Client@@UEAAXN@Z ENDP		; Client::CKalienina::LateTick
_TEXT	ENDS
; Function compile flags: /Odtp /RTCsu /ZI
; File c:\github\framework\client\private\kalienina.cpp
;	COMDAT ?Tick@CKalienina@Client@@UEAAXN@Z
_TEXT	SEGMENT
pGameInstance$ = 8
this$ = 256
TimeDelta$ = 264
?Tick@CKalienina@Client@@UEAAXN@Z PROC			; Client::CKalienina::Tick, COMDAT

; 54   : {

$LN3:
  00000	f2 0f 11 4c 24
	10		 movsd	 QWORD PTR [rsp+16], xmm1
  00006	48 89 4c 24 08	 mov	 QWORD PTR [rsp+8], rcx
  0000b	55		 push	 rbp
  0000c	57		 push	 rdi
  0000d	48 81 ec 08 01
	00 00		 sub	 rsp, 264		; 00000108H
  00014	48 8d 6c 24 20	 lea	 rbp, QWORD PTR [rsp+32]
  00019	48 8b fc	 mov	 rdi, rsp
  0001c	b9 42 00 00 00	 mov	 ecx, 66			; 00000042H
  00021	b8 cc cc cc cc	 mov	 eax, -858993460		; ccccccccH
  00026	f3 ab		 rep stosd
  00028	48 8b 8c 24 28
	01 00 00	 mov	 rcx, QWORD PTR [rsp+296]

; 55   : 	CGameInstance* pGameInstance = CGameInstance::GetInstance();

  00030	ff 15 00 00 00
	00		 call	 QWORD PTR __imp_?GetInstance@CGameInstance@Engine@@SAPEAV12@XZ
  00036	48 89 45 08	 mov	 QWORD PTR pGameInstance$[rbp], rax

; 56   : 
; 57   : 	__super::Tick(TimeDelta);

  0003a	f2 0f 10 8d 08
	01 00 00	 movsd	 xmm1, QWORD PTR TimeDelta$[rbp]
  00042	48 8b 8d 00 01
	00 00		 mov	 rcx, QWORD PTR this$[rbp]
  00049	ff 15 00 00 00
	00		 call	 QWORD PTR __imp_?Tick@CGameObject@Engine@@UEAAXN@Z

; 58   : 
; 59   : 	KeyInput(TimeDelta);

  0004f	f2 0f 10 8d 08
	01 00 00	 movsd	 xmm1, QWORD PTR TimeDelta$[rbp]
  00057	48 8b 8d 00 01
	00 00		 mov	 rcx, QWORD PTR this$[rbp]
  0005e	e8 00 00 00 00	 call	 ?KeyInput@CKalienina@Client@@AEAAXN@Z ; Client::CKalienina::KeyInput

; 60   : }

  00063	48 8d a5 e8 00
	00 00		 lea	 rsp, QWORD PTR [rbp+232]
  0006a	5f		 pop	 rdi
  0006b	5d		 pop	 rbp
  0006c	c3		 ret	 0
?Tick@CKalienina@Client@@UEAAXN@Z ENDP			; Client::CKalienina::Tick
_TEXT	ENDS
; Function compile flags: /Odtp /RTCsu /ZI
; File c:\github\framework\client\private\kalienina.cpp
;	COMDAT ?Initialize@CKalienina@Client@@UEAAJPEAX@Z
_TEXT	SEGMENT
camMatrix$ = 16
$T4 = 304
$T5 = 352
$T6 = 448
$T7 = 496
$T8 = 592
__$ArrayPad$ = 664
this$ = 704
pArg$ = 712
?Initialize@CKalienina@Client@@UEAAJPEAX@Z PROC		; Client::CKalienina::Initialize, COMDAT

; 34   : {

$LN6:
  00000	48 89 54 24 10	 mov	 QWORD PTR [rsp+16], rdx
  00005	48 89 4c 24 08	 mov	 QWORD PTR [rsp+8], rcx
  0000a	55		 push	 rbp
  0000b	56		 push	 rsi
  0000c	57		 push	 rdi
  0000d	48 81 ec c0 02
	00 00		 sub	 rsp, 704		; 000002c0H
  00014	48 8d 6c 24 20	 lea	 rbp, QWORD PTR [rsp+32]
  00019	48 8b fc	 mov	 rdi, rsp
  0001c	b9 b0 00 00 00	 mov	 ecx, 176		; 000000b0H
  00021	b8 cc cc cc cc	 mov	 eax, -858993460		; ccccccccH
  00026	f3 ab		 rep stosd
  00028	48 8b 8c 24 e8
	02 00 00	 mov	 rcx, QWORD PTR [rsp+744]
  00030	48 8b 05 00 00
	00 00		 mov	 rax, QWORD PTR __security_cookie
  00037	48 33 c5	 xor	 rax, rbp
  0003a	48 89 85 98 02
	00 00		 mov	 QWORD PTR __$ArrayPad$[rbp], rax

; 35   : 	if (FAILED(__super::Initialize(pArg)))

  00041	48 8b 95 c8 02
	00 00		 mov	 rdx, QWORD PTR pArg$[rbp]
  00048	48 8b 8d c0 02
	00 00		 mov	 rcx, QWORD PTR this$[rbp]
  0004f	ff 15 00 00 00
	00		 call	 QWORD PTR __imp_?Initialize@CGameObject@Engine@@UEAAJPEAX@Z
  00055	85 c0		 test	 eax, eax
  00057	7d 0a		 jge	 SHORT $LN2@Initialize

; 36   : 		return E_FAIL;

  00059	b8 05 40 00 80	 mov	 eax, -2147467259	; ffffffff80004005H
  0005e	e9 1e 01 00 00	 jmp	 $LN1@Initialize
$LN2@Initialize:

; 37   : 
; 38   : 	if (FAILED(AddComponents()))

  00063	48 8b 8d c0 02
	00 00		 mov	 rcx, QWORD PTR this$[rbp]
  0006a	e8 00 00 00 00	 call	 ?AddComponents@CKalienina@Client@@AEAAJXZ ; Client::CKalienina::AddComponents
  0006f	85 c0		 test	 eax, eax
  00071	7d 0a		 jge	 SHORT $LN3@Initialize

; 39   : 		return E_FAIL;

  00073	b8 05 40 00 80	 mov	 eax, -2147467259	; ffffffff80004005H
  00078	e9 04 01 00 00	 jmp	 $LN1@Initialize
$LN3@Initialize:

; 40   : 	
; 41   : 	if (FAILED(AddWeapon()))

  0007d	48 8b 8d c0 02
	00 00		 mov	 rcx, QWORD PTR this$[rbp]
  00084	e8 00 00 00 00	 call	 ?AddWeapon@CKalienina@Client@@AEAAJXZ ; Client::CKalienina::AddWeapon
  00089	85 c0		 test	 eax, eax
  0008b	7d 0a		 jge	 SHORT $LN4@Initialize

; 42   : 		return E_FAIL;

  0008d	b8 05 40 00 80	 mov	 eax, -2147467259	; ffffffff80004005H
  00092	e9 ea 00 00 00	 jmp	 $LN1@Initialize
$LN4@Initialize:

; 43   : 
; 44   : 	mTransform->Set_State(CTransform::STATE_POSITION, XMVectorSet(0.f, 0.f, 0.f, 1.f));

  00097	f3 0f 10 1d 00
	00 00 00	 movss	 xmm3, DWORD PTR __real@3f800000
  0009f	0f 57 d2	 xorps	 xmm2, xmm2
  000a2	0f 57 c9	 xorps	 xmm1, xmm1
  000a5	0f 57 c0	 xorps	 xmm0, xmm0
  000a8	e8 00 00 00 00	 call	 ?XMVectorSet@DirectX@@YQ?AT__m128@@MMMM@Z ; DirectX::XMVectorSet
  000ad	0f 29 85 30 01
	00 00		 movaps	 XMMWORD PTR $T4[rbp], xmm0
  000b4	0f 28 85 30 01
	00 00		 movaps	 xmm0, XMMWORD PTR $T4[rbp]
  000bb	0f 29 85 c0 01
	00 00		 movaps	 XMMWORD PTR $T6[rbp], xmm0
  000c2	4c 8d 85 c0 01
	00 00		 lea	 r8, QWORD PTR $T6[rbp]
  000c9	ba 03 00 00 00	 mov	 edx, 3
  000ce	48 8b 85 c0 02
	00 00		 mov	 rax, QWORD PTR this$[rbp]
  000d5	48 8b 88 80 00
	00 00		 mov	 rcx, QWORD PTR [rax+128]
  000dc	ff 15 00 00 00
	00		 call	 QWORD PTR __imp_?Set_State@CTransform@Engine@@QEAAXW4STATE@12@T__m128@@@Z

; 45   : 
; 46   : 	_float4x4 camMatrix;

  000e2	48 8d 4d 10	 lea	 rcx, QWORD PTR camMatrix$[rbp]
  000e6	e8 00 00 00 00	 call	 ??0XMFLOAT4X4@DirectX@@QEAA@XZ ; DirectX::XMFLOAT4X4::XMFLOAT4X4

; 47   : 	XMStoreFloat4x4(&camMatrix, XMMatrixIdentity());

  000eb	e8 00 00 00 00	 call	 ?XMMatrixIdentity@DirectX@@YQ?AUXMMATRIX@1@XZ ; DirectX::XMMatrixIdentity
  000f0	0f 29 9d 80 02
	00 00		 movaps	 XMMWORD PTR $T8[rbp+48], xmm3
  000f7	0f 29 95 70 02
	00 00		 movaps	 XMMWORD PTR $T8[rbp+32], xmm2
  000fe	0f 29 8d 60 02
	00 00		 movaps	 XMMWORD PTR $T8[rbp+16], xmm1
  00105	0f 29 85 50 02
	00 00		 movaps	 XMMWORD PTR $T8[rbp], xmm0
  0010c	48 8d 85 60 01
	00 00		 lea	 rax, QWORD PTR $T5[rbp]
  00113	48 8d 8d 50 02
	00 00		 lea	 rcx, QWORD PTR $T8[rbp]
  0011a	48 8b f8	 mov	 rdi, rax
  0011d	48 8b f1	 mov	 rsi, rcx
  00120	b9 40 00 00 00	 mov	 ecx, 64			; 00000040H
  00125	f3 a4		 rep movsb
  00127	0f 28 85 60 01
	00 00		 movaps	 xmm0, XMMWORD PTR $T5[rbp]
  0012e	0f 28 8d 70 01
	00 00		 movaps	 xmm1, XMMWORD PTR $T5[rbp+16]
  00135	0f 28 95 80 01
	00 00		 movaps	 xmm2, XMMWORD PTR $T5[rbp+32]
  0013c	0f 28 9d 90 01
	00 00		 movaps	 xmm3, XMMWORD PTR $T5[rbp+48]
  00143	48 8d 4d 10	 lea	 rcx, QWORD PTR camMatrix$[rbp]
  00147	e8 00 00 00 00	 call	 ?XMStoreFloat4x4@DirectX@@YQXPEAUXMFLOAT4X4@1@UXMMATRIX@1@@Z ; DirectX::XMStoreFloat4x4

; 48   : 	mCameraSocketTransform->Set_WorldMatrix(camMatrix);

  0014c	48 8d 85 f0 01
	00 00		 lea	 rax, QWORD PTR $T7[rbp]
  00153	48 8d 4d 10	 lea	 rcx, QWORD PTR camMatrix$[rbp]
  00157	48 8b f8	 mov	 rdi, rax
  0015a	48 8b f1	 mov	 rsi, rcx
  0015d	b9 40 00 00 00	 mov	 ecx, 64			; 00000040H
  00162	f3 a4		 rep movsb
  00164	48 8d 95 f0 01
	00 00		 lea	 rdx, QWORD PTR $T7[rbp]
  0016b	48 8b 85 c0 02
	00 00		 mov	 rax, QWORD PTR this$[rbp]
  00172	48 8b 88 a8 00
	00 00		 mov	 rcx, QWORD PTR [rax+168]
  00179	ff 15 00 00 00
	00		 call	 QWORD PTR __imp_?Set_WorldMatrix@CTransform@Engine@@QEAAXUXMFLOAT4X4@DirectX@@@Z

; 49   : 	
; 50   : 	return S_OK;

  0017f	33 c0		 xor	 eax, eax
$LN1@Initialize:

; 51   : }

  00181	48 8b f8	 mov	 rdi, rax
  00184	48 8d 4d e0	 lea	 rcx, QWORD PTR [rbp-32]
  00188	48 8d 15 00 00
	00 00		 lea	 rdx, OFFSET FLAT:?Initialize@CKalienina@Client@@UEAAJPEAX@Z$rtcFrameData
  0018f	e8 00 00 00 00	 call	 _RTC_CheckStackVars
  00194	48 8b c7	 mov	 rax, rdi
  00197	48 8b 8d 98 02
	00 00		 mov	 rcx, QWORD PTR __$ArrayPad$[rbp]
  0019e	48 33 cd	 xor	 rcx, rbp
  001a1	e8 00 00 00 00	 call	 __security_check_cookie
  001a6	48 8d a5 a0 02
	00 00		 lea	 rsp, QWORD PTR [rbp+672]
  001ad	5f		 pop	 rdi
  001ae	5e		 pop	 rsi
  001af	5d		 pop	 rbp
  001b0	c3		 ret	 0
?Initialize@CKalienina@Client@@UEAAJPEAX@Z ENDP		; Client::CKalienina::Initialize
_TEXT	ENDS
; Function compile flags: /Odtp /RTCsu /ZI
; File c:\github\framework\client\private\kalienina.cpp
;	COMDAT ?Initialize_Prototype@CKalienina@Client@@UEAAJXZ
_TEXT	SEGMENT
this$ = 224
?Initialize_Prototype@CKalienina@Client@@UEAAJXZ PROC	; Client::CKalienina::Initialize_Prototype, COMDAT

; 21   : {

$LN4:
  00000	48 89 4c 24 08	 mov	 QWORD PTR [rsp+8], rcx
  00005	55		 push	 rbp
  00006	57		 push	 rdi
  00007	48 81 ec e8 00
	00 00		 sub	 rsp, 232		; 000000e8H
  0000e	48 8d 6c 24 20	 lea	 rbp, QWORD PTR [rsp+32]
  00013	48 8b fc	 mov	 rdi, rsp
  00016	b9 3a 00 00 00	 mov	 ecx, 58			; 0000003aH
  0001b	b8 cc cc cc cc	 mov	 eax, -858993460		; ccccccccH
  00020	f3 ab		 rep stosd
  00022	48 8b 8c 24 08
	01 00 00	 mov	 rcx, QWORD PTR [rsp+264]

; 22   : 	if (FAILED(__super::Initialize_Prototype()))

  0002a	48 8b 8d e0 00
	00 00		 mov	 rcx, QWORD PTR this$[rbp]
  00031	ff 15 00 00 00
	00		 call	 QWORD PTR __imp_?Initialize_Prototype@CGameObject@Engine@@UEAAJXZ
  00037	85 c0		 test	 eax, eax
  00039	7d 07		 jge	 SHORT $LN2@Initialize

; 23   : 		return E_FAIL;

  0003b	b8 05 40 00 80	 mov	 eax, -2147467259	; ffffffff80004005H
  00040	eb 4c		 jmp	 SHORT $LN1@Initialize
$LN2@Initialize:

; 24   : 
; 25   : 	CGameInstance::GetInstance()->CreateTimer(L"Combo");

  00042	ff 15 00 00 00
	00		 call	 QWORD PTR __imp_?GetInstance@CGameInstance@Engine@@SAPEAV12@XZ
  00048	48 8d 15 00 00
	00 00		 lea	 rdx, OFFSET FLAT:??_C@_1M@IOKMPPAD@?$AAC?$AAo?$AAm?$AAb?$AAo?$AA?$AA@
  0004f	48 8b c8	 mov	 rcx, rax
  00052	ff 15 00 00 00
	00		 call	 QWORD PTR __imp_?CreateTimer@CGameInstance@Engine@@QEAAJPEB_W@Z

; 26   : 
; 27   : 	ZeroMemory(&ANIM_DESC, sizeof(CAnimation::ANIMATION_DESC));

  00058	48 8b 85 e0 00
	00 00		 mov	 rax, QWORD PTR this$[rbp]
  0005f	48 05 a0 00 00
	00		 add	 rax, 160		; 000000a0H
  00065	41 b8 08 00 00
	00		 mov	 r8d, 8
  0006b	33 d2		 xor	 edx, edx
  0006d	48 8b c8	 mov	 rcx, rax
  00070	e8 00 00 00 00	 call	 memset

; 28   : 	SetAnimation(CLIP::STAND2, CAnimation::TYPE::LOOP);

  00075	41 b8 01 00 00
	00		 mov	 r8d, 1
  0007b	ba 29 00 00 00	 mov	 edx, 41			; 00000029H
  00080	48 8b 8d e0 00
	00 00		 mov	 rcx, QWORD PTR this$[rbp]
  00087	e8 00 00 00 00	 call	 ?SetAnimation@CKalienina@Client@@AEAAXW4CLIP@12@W4TYPE@CAnimation@Engine@@@Z ; Client::CKalienina::SetAnimation

; 29   : 
; 30   : 	return S_OK;

  0008c	33 c0		 xor	 eax, eax
$LN1@Initialize:

; 31   : }

  0008e	48 8d a5 c8 00
	00 00		 lea	 rsp, QWORD PTR [rbp+200]
  00095	5f		 pop	 rdi
  00096	5d		 pop	 rbp
  00097	c3		 ret	 0
?Initialize_Prototype@CKalienina@Client@@UEAAJXZ ENDP	; Client::CKalienina::Initialize_Prototype
_TEXT	ENDS
; Function compile flags: /Odtp /RTCsu /ZI
; File c:\github\framework\client\private\kalienina.cpp
;	COMDAT ??1CKalienina@Client@@EEAA@XZ
_TEXT	SEGMENT
this$ = 224
??1CKalienina@Client@@EEAA@XZ PROC			; Client::CKalienina::~CKalienina, COMDAT

; 12   : }

$LN3:
  00000	48 89 4c 24 08	 mov	 QWORD PTR [rsp+8], rcx
  00005	55		 push	 rbp
  00006	57		 push	 rdi
  00007	48 81 ec e8 00
	00 00		 sub	 rsp, 232		; 000000e8H
  0000e	48 8d 6c 24 20	 lea	 rbp, QWORD PTR [rsp+32]
  00013	48 8b fc	 mov	 rdi, rsp
  00016	b9 3a 00 00 00	 mov	 ecx, 58			; 0000003aH
  0001b	b8 cc cc cc cc	 mov	 eax, -858993460		; ccccccccH
  00020	f3 ab		 rep stosd
  00022	48 8b 8c 24 08
	01 00 00	 mov	 rcx, QWORD PTR [rsp+264]
  0002a	48 8b 8d e0 00
	00 00		 mov	 rcx, QWORD PTR this$[rbp]
  00031	ff 15 00 00 00
	00		 call	 QWORD PTR __imp_??1CGameObject@Engine@@MEAA@XZ
  00037	48 8d a5 c8 00
	00 00		 lea	 rsp, QWORD PTR [rbp+200]
  0003e	5f		 pop	 rdi
  0003f	5d		 pop	 rbp
  00040	c3		 ret	 0
??1CKalienina@Client@@EEAA@XZ ENDP			; Client::CKalienina::~CKalienina
_TEXT	ENDS
; Function compile flags: /Odtp /RTCsu /ZI
; File c:\github\framework\client\private\kalienina.cpp
; File c:\github\framework\client\public\kalienina.h
; File c:\github\framework\client\private\kalienina.cpp
; File c:\github\framework\client\public\kalienina.h
; File c:\github\framework\client\private\kalienina.cpp
;	COMDAT ??0CKalienina@Client@@AEAA@AEBV01@@Z
_TEXT	SEGMENT
this$ = 224
rhs$ = 232
??0CKalienina@Client@@AEAA@AEBV01@@Z PROC		; Client::CKalienina::CKalienina, COMDAT

; 17   : {

$LN4:
  00000	48 89 54 24 10	 mov	 QWORD PTR [rsp+16], rdx
  00005	48 89 4c 24 08	 mov	 QWORD PTR [rsp+8], rcx
  0000a	55		 push	 rbp
  0000b	57		 push	 rdi
  0000c	48 81 ec e8 00
	00 00		 sub	 rsp, 232		; 000000e8H
  00013	48 8d 6c 24 20	 lea	 rbp, QWORD PTR [rsp+32]
  00018	48 8b fc	 mov	 rdi, rsp
  0001b	b9 3a 00 00 00	 mov	 ecx, 58			; 0000003aH
  00020	b8 cc cc cc cc	 mov	 eax, -858993460		; ccccccccH
  00025	f3 ab		 rep stosd
  00027	48 8b 8c 24 08
	01 00 00	 mov	 rcx, QWORD PTR [rsp+264]

; 15   : 	: CGameObject(rhs)

  0002f	48 8b 95 e8 00
	00 00		 mov	 rdx, QWORD PTR rhs$[rbp]
  00036	48 8b 8d e0 00
	00 00		 mov	 rcx, QWORD PTR this$[rbp]
  0003d	ff 15 00 00 00
	00		 call	 QWORD PTR __imp_??0CGameObject@Engine@@IEAA@AEBV01@@Z

; 17   : {

  00043	48 8b 85 e0 00
	00 00		 mov	 rax, QWORD PTR this$[rbp]
  0004a	48 8d 0d 00 00
	00 00		 lea	 rcx, OFFSET FLAT:??_7CKalienina@Client@@6B@
  00051	48 89 08	 mov	 QWORD PTR [rax], rcx
; File c:\github\framework\client\public\kalienina.h

; 173  : 	CRenderer* mRenderer = nullptr;

  00054	48 8b 85 e0 00
	00 00		 mov	 rax, QWORD PTR this$[rbp]
  0005b	48 c7 40 78 00
	00 00 00	 mov	 QWORD PTR [rax+120], 0

; 174  : 	CTransform* mTransform = nullptr;

  00063	48 8b 85 e0 00
	00 00		 mov	 rax, QWORD PTR this$[rbp]
  0006a	48 c7 80 80 00
	00 00 00 00 00
	00		 mov	 QWORD PTR [rax+128], 0

; 175  : 	CModel* mModel = nullptr;

  00075	48 8b 85 e0 00
	00 00		 mov	 rax, QWORD PTR this$[rbp]
  0007c	48 c7 80 88 00
	00 00 00 00 00
	00		 mov	 QWORD PTR [rax+136], 0

; 176  : 	CShader* mShader = nullptr;

  00087	48 8b 85 e0 00
	00 00		 mov	 rax, QWORD PTR this$[rbp]
  0008e	48 c7 80 90 00
	00 00 00 00 00
	00		 mov	 QWORD PTR [rax+144], 0
; File c:\github\framework\client\private\kalienina.cpp

; 16   : 	, ANIM_DESC(rhs.ANIM_DESC)

  00099	48 8b 85 e8 00
	00 00		 mov	 rax, QWORD PTR rhs$[rbp]
  000a0	48 8b 80 a0 00
	00 00		 mov	 rax, QWORD PTR [rax+160]
  000a7	48 8b 8d e0 00
	00 00		 mov	 rcx, QWORD PTR this$[rbp]
  000ae	48 89 81 a0 00
	00 00		 mov	 QWORD PTR [rcx+160], rax
; File c:\github\framework\client\public\kalienina.h

; 184  : 	CTransform* mCameraSocketTransform = nullptr;

  000b5	48 8b 85 e0 00
	00 00		 mov	 rax, QWORD PTR this$[rbp]
  000bc	48 c7 80 a8 00
	00 00 00 00 00
	00		 mov	 QWORD PTR [rax+168], 0

; 185  : 	CTransform* mCameraPosition = nullptr;

  000c7	48 8b 85 e0 00
	00 00		 mov	 rax, QWORD PTR this$[rbp]
  000ce	48 c7 80 b0 00
	00 00 00 00 00
	00		 mov	 QWORD PTR [rax+176], 0

; 186  : 
; 187  : private: // Command
; 188  : 	_uint m_iAttackCount = 4;

  000d9	48 8b 85 e0 00
	00 00		 mov	 rax, QWORD PTR this$[rbp]
  000e0	c7 80 b8 00 00
	00 04 00 00 00	 mov	 DWORD PTR [rax+184], 4

; 189  : 	_uint m_iCurAttackCount = 0;

  000ea	48 8b 85 e0 00
	00 00		 mov	 rax, QWORD PTR this$[rbp]
  000f1	c7 80 bc 00 00
	00 00 00 00 00	 mov	 DWORD PTR [rax+188], 0

; 190  : 	
; 191  : 	_bool m_bCombo = false;

  000fb	48 8b 85 e0 00
	00 00		 mov	 rax, QWORD PTR this$[rbp]
  00102	c6 80 c0 00 00
	00 00		 mov	 BYTE PTR [rax+192], 0

; 192  : 	const _float m_fComboTimerMax = 1.f;

  00109	48 8b 85 e0 00
	00 00		 mov	 rax, QWORD PTR this$[rbp]
  00110	f3 0f 10 05 00
	00 00 00	 movss	 xmm0, DWORD PTR __real@3f800000
  00118	f3 0f 11 80 c4
	00 00 00	 movss	 DWORD PTR [rax+196], xmm0

; 193  : 
; 194  : 	_bool m_bMoveable = true;

  00120	48 8b 85 e0 00
	00 00		 mov	 rax, QWORD PTR this$[rbp]
  00127	c6 80 c8 00 00
	00 01		 mov	 BYTE PTR [rax+200], 1

; 195  : 	_bool m_bAttackable = true;

  0012e	48 8b 85 e0 00
	00 00		 mov	 rax, QWORD PTR this$[rbp]
  00135	c6 80 c9 00 00
	00 01		 mov	 BYTE PTR [rax+201], 1

; 196  : 
; 197  : 	_int m_iWASDCount = 0;

  0013c	48 8b 85 e0 00
	00 00		 mov	 rax, QWORD PTR this$[rbp]
  00143	c7 80 cc 00 00
	00 00 00 00 00	 mov	 DWORD PTR [rax+204], 0

; 198  : 	_bool m_bMove = false;

  0014d	48 8b 85 e0 00
	00 00		 mov	 rax, QWORD PTR this$[rbp]
  00154	c6 80 d0 00 00
	00 00		 mov	 BYTE PTR [rax+208], 0

; 199  : 	_bool m_bRun = false;

  0015b	48 8b 85 e0 00
	00 00		 mov	 rax, QWORD PTR this$[rbp]
  00162	c6 80 d1 00 00
	00 00		 mov	 BYTE PTR [rax+209], 0

; 200  : 	_bool m_bDashReady = false;

  00169	48 8b 85 e0 00
	00 00		 mov	 rax, QWORD PTR this$[rbp]
  00170	c6 80 d2 00 00
	00 00		 mov	 BYTE PTR [rax+210], 0

; 201  : 	_bool m_bOnTerrain = true;

  00177	48 8b 85 e0 00
	00 00		 mov	 rax, QWORD PTR this$[rbp]
  0017e	c6 80 d3 00 00
	00 01		 mov	 BYTE PTR [rax+211], 1

; 202  : 
; 203  : 	_float m_fMoveSpeed = 5.f;

  00185	48 8b 85 e0 00
	00 00		 mov	 rax, QWORD PTR this$[rbp]
  0018c	f3 0f 10 05 00
	00 00 00	 movss	 xmm0, DWORD PTR __real@40a00000
  00194	f3 0f 11 80 d4
	00 00 00	 movss	 DWORD PTR [rax+212], xmm0

; 204  : 	_float m_fRotationSpeed = 240.f;

  0019c	48 8b 85 e0 00
	00 00		 mov	 rax, QWORD PTR this$[rbp]
  001a3	f3 0f 10 05 00
	00 00 00	 movss	 xmm0, DWORD PTR __real@43700000
  001ab	f3 0f 11 80 d8
	00 00 00	 movss	 DWORD PTR [rax+216], xmm0
; File c:\github\framework\client\private\kalienina.cpp

; 18   : }

  001b3	48 8b 85 e0 00
	00 00		 mov	 rax, QWORD PTR this$[rbp]
  001ba	48 8d a5 c8 00
	00 00		 lea	 rsp, QWORD PTR [rbp+200]
  001c1	5f		 pop	 rdi
  001c2	5d		 pop	 rbp
  001c3	c3		 ret	 0
??0CKalienina@Client@@AEAA@AEBV01@@Z ENDP		; Client::CKalienina::CKalienina
_TEXT	ENDS
; Function compile flags: /Odtp /RTCsu /ZI
; File c:\github\framework\client\private\kalienina.cpp
; File c:\github\framework\client\public\kalienina.h
; File c:\github\framework\client\private\kalienina.cpp
;	COMDAT ??0CKalienina@Client@@AEAA@PEAUID3D11Device@@PEAUID3D11DeviceContext@@@Z
_TEXT	SEGMENT
this$ = 224
pDevice$ = 232
pContext$ = 240
??0CKalienina@Client@@AEAA@PEAUID3D11Device@@PEAUID3D11DeviceContext@@@Z PROC ; Client::CKalienina::CKalienina, COMDAT

; 11   : {

$LN4:
  00000	4c 89 44 24 18	 mov	 QWORD PTR [rsp+24], r8
  00005	48 89 54 24 10	 mov	 QWORD PTR [rsp+16], rdx
  0000a	48 89 4c 24 08	 mov	 QWORD PTR [rsp+8], rcx
  0000f	55		 push	 rbp
  00010	57		 push	 rdi
  00011	48 81 ec e8 00
	00 00		 sub	 rsp, 232		; 000000e8H
  00018	48 8d 6c 24 20	 lea	 rbp, QWORD PTR [rsp+32]
  0001d	48 8b fc	 mov	 rdi, rsp
  00020	b9 3a 00 00 00	 mov	 ecx, 58			; 0000003aH
  00025	b8 cc cc cc cc	 mov	 eax, -858993460		; ccccccccH
  0002a	f3 ab		 rep stosd
  0002c	48 8b 8c 24 08
	01 00 00	 mov	 rcx, QWORD PTR [rsp+264]

; 10   : 	: CGameObject(pDevice, pContext)

  00034	4c 8b 85 f0 00
	00 00		 mov	 r8, QWORD PTR pContext$[rbp]
  0003b	48 8b 95 e8 00
	00 00		 mov	 rdx, QWORD PTR pDevice$[rbp]
  00042	48 8b 8d e0 00
	00 00		 mov	 rcx, QWORD PTR this$[rbp]
  00049	ff 15 00 00 00
	00		 call	 QWORD PTR __imp_??0CGameObject@Engine@@IEAA@PEAUID3D11Device@@PEAUID3D11DeviceContext@@@Z

; 11   : {

  0004f	48 8b 85 e0 00
	00 00		 mov	 rax, QWORD PTR this$[rbp]
  00056	48 8d 0d 00 00
	00 00		 lea	 rcx, OFFSET FLAT:??_7CKalienina@Client@@6B@
  0005d	48 89 08	 mov	 QWORD PTR [rax], rcx
; File c:\github\framework\client\public\kalienina.h

; 173  : 	CRenderer* mRenderer = nullptr;

  00060	48 8b 85 e0 00
	00 00		 mov	 rax, QWORD PTR this$[rbp]
  00067	48 c7 40 78 00
	00 00 00	 mov	 QWORD PTR [rax+120], 0

; 174  : 	CTransform* mTransform = nullptr;

  0006f	48 8b 85 e0 00
	00 00		 mov	 rax, QWORD PTR this$[rbp]
  00076	48 c7 80 80 00
	00 00 00 00 00
	00		 mov	 QWORD PTR [rax+128], 0

; 175  : 	CModel* mModel = nullptr;

  00081	48 8b 85 e0 00
	00 00		 mov	 rax, QWORD PTR this$[rbp]
  00088	48 c7 80 88 00
	00 00 00 00 00
	00		 mov	 QWORD PTR [rax+136], 0

; 176  : 	CShader* mShader = nullptr;

  00093	48 8b 85 e0 00
	00 00		 mov	 rax, QWORD PTR this$[rbp]
  0009a	48 c7 80 90 00
	00 00 00 00 00
	00		 mov	 QWORD PTR [rax+144], 0

; 177  : 
; 178  : private: //  
; 179  : 	class CSleeve* m_pWeapon;
; 180  : 
; 181  : 	CAnimation::ANIMATION_DESC ANIM_DESC;
; 182  : 
; 183  : private: // camera
; 184  : 	CTransform* mCameraSocketTransform = nullptr;

  000a5	48 8b 85 e0 00
	00 00		 mov	 rax, QWORD PTR this$[rbp]
  000ac	48 c7 80 a8 00
	00 00 00 00 00
	00		 mov	 QWORD PTR [rax+168], 0

; 185  : 	CTransform* mCameraPosition = nullptr;

  000b7	48 8b 85 e0 00
	00 00		 mov	 rax, QWORD PTR this$[rbp]
  000be	48 c7 80 b0 00
	00 00 00 00 00
	00		 mov	 QWORD PTR [rax+176], 0

; 186  : 
; 187  : private: // Command
; 188  : 	_uint m_iAttackCount = 4;

  000c9	48 8b 85 e0 00
	00 00		 mov	 rax, QWORD PTR this$[rbp]
  000d0	c7 80 b8 00 00
	00 04 00 00 00	 mov	 DWORD PTR [rax+184], 4

; 189  : 	_uint m_iCurAttackCount = 0;

  000da	48 8b 85 e0 00
	00 00		 mov	 rax, QWORD PTR this$[rbp]
  000e1	c7 80 bc 00 00
	00 00 00 00 00	 mov	 DWORD PTR [rax+188], 0

; 190  : 	
; 191  : 	_bool m_bCombo = false;

  000eb	48 8b 85 e0 00
	00 00		 mov	 rax, QWORD PTR this$[rbp]
  000f2	c6 80 c0 00 00
	00 00		 mov	 BYTE PTR [rax+192], 0

; 192  : 	const _float m_fComboTimerMax = 1.f;

  000f9	48 8b 85 e0 00
	00 00		 mov	 rax, QWORD PTR this$[rbp]
  00100	f3 0f 10 05 00
	00 00 00	 movss	 xmm0, DWORD PTR __real@3f800000
  00108	f3 0f 11 80 c4
	00 00 00	 movss	 DWORD PTR [rax+196], xmm0

; 193  : 
; 194  : 	_bool m_bMoveable = true;

  00110	48 8b 85 e0 00
	00 00		 mov	 rax, QWORD PTR this$[rbp]
  00117	c6 80 c8 00 00
	00 01		 mov	 BYTE PTR [rax+200], 1

; 195  : 	_bool m_bAttackable = true;

  0011e	48 8b 85 e0 00
	00 00		 mov	 rax, QWORD PTR this$[rbp]
  00125	c6 80 c9 00 00
	00 01		 mov	 BYTE PTR [rax+201], 1

; 196  : 
; 197  : 	_int m_iWASDCount = 0;

  0012c	48 8b 85 e0 00
	00 00		 mov	 rax, QWORD PTR this$[rbp]
  00133	c7 80 cc 00 00
	00 00 00 00 00	 mov	 DWORD PTR [rax+204], 0

; 198  : 	_bool m_bMove = false;

  0013d	48 8b 85 e0 00
	00 00		 mov	 rax, QWORD PTR this$[rbp]
  00144	c6 80 d0 00 00
	00 00		 mov	 BYTE PTR [rax+208], 0

; 199  : 	_bool m_bRun = false;

  0014b	48 8b 85 e0 00
	00 00		 mov	 rax, QWORD PTR this$[rbp]
  00152	c6 80 d1 00 00
	00 00		 mov	 BYTE PTR [rax+209], 0

; 200  : 	_bool m_bDashReady = false;

  00159	48 8b 85 e0 00
	00 00		 mov	 rax, QWORD PTR this$[rbp]
  00160	c6 80 d2 00 00
	00 00		 mov	 BYTE PTR [rax+210], 0

; 201  : 	_bool m_bOnTerrain = true;

  00167	48 8b 85 e0 00
	00 00		 mov	 rax, QWORD PTR this$[rbp]
  0016e	c6 80 d3 00 00
	00 01		 mov	 BYTE PTR [rax+211], 1

; 202  : 
; 203  : 	_float m_fMoveSpeed = 5.f;

  00175	48 8b 85 e0 00
	00 00		 mov	 rax, QWORD PTR this$[rbp]
  0017c	f3 0f 10 05 00
	00 00 00	 movss	 xmm0, DWORD PTR __real@40a00000
  00184	f3 0f 11 80 d4
	00 00 00	 movss	 DWORD PTR [rax+212], xmm0

; 204  : 	_float m_fRotationSpeed = 240.f;

  0018c	48 8b 85 e0 00
	00 00		 mov	 rax, QWORD PTR this$[rbp]
  00193	f3 0f 10 05 00
	00 00 00	 movss	 xmm0, DWORD PTR __real@43700000
  0019b	f3 0f 11 80 d8
	00 00 00	 movss	 DWORD PTR [rax+216], xmm0
; File c:\github\framework\client\private\kalienina.cpp

; 12   : }

  001a3	48 8b 85 e0 00
	00 00		 mov	 rax, QWORD PTR this$[rbp]
  001aa	48 8d a5 c8 00
	00 00		 lea	 rsp, QWORD PTR [rbp+200]
  001b1	5f		 pop	 rdi
  001b2	5d		 pop	 rbp
  001b3	c3		 ret	 0
??0CKalienina@Client@@AEAA@PEAUID3D11Device@@PEAUID3D11DeviceContext@@@Z ENDP ; Client::CKalienina::CKalienina
_TEXT	ENDS
; Function compile flags: /Odtp /RTCsu /ZI
; File c:\program files (x86)\windows kits\8.1\include\um\directxmathmatrix.inl
;	COMDAT ?XMMatrixIdentity@DirectX@@YQ?AUXMMATRIX@1@XZ
_TEXT	SEGMENT
M$ = 16
__$ArrayPad$ = 280
?XMMatrixIdentity@DirectX@@YQ?AUXMMATRIX@1@XZ PROC	; DirectX::XMMatrixIdentity, COMDAT

; 1021 : {

$LN3:
  00000	40 55		 push	 rbp
  00002	57		 push	 rdi
  00003	48 81 ec 58 01
	00 00		 sub	 rsp, 344		; 00000158H
  0000a	48 8d 6c 24 30	 lea	 rbp, QWORD PTR [rsp+48]
  0000f	48 8b fc	 mov	 rdi, rsp
  00012	b9 56 00 00 00	 mov	 ecx, 86			; 00000056H
  00017	b8 cc cc cc cc	 mov	 eax, -858993460		; ccccccccH
  0001c	f3 ab		 rep stosd
  0001e	48 8b 05 00 00
	00 00		 mov	 rax, QWORD PTR __security_cookie
  00025	48 33 c5	 xor	 rax, rbp
  00028	48 89 85 18 01
	00 00		 mov	 QWORD PTR __$ArrayPad$[rbp], rax

; 1022 :     XMMATRIX M;

  0002f	48 8d 4d 10	 lea	 rcx, QWORD PTR M$[rbp]
  00033	e8 00 00 00 00	 call	 ??0XMMATRIX@DirectX@@QEAA@XZ ; DirectX::XMMATRIX::XMMATRIX

; 1023 :     M.r[0] = g_XMIdentityR0.v;

  00038	b8 10 00 00 00	 mov	 eax, 16
  0003d	48 6b c0 00	 imul	 rax, rax, 0
  00041	0f 28 05 00 00
	00 00		 movaps	 xmm0, XMMWORD PTR ?g_XMIdentityR0@DirectX@@3UXMVECTORF32@1@B
  00048	0f 11 44 05 10	 movups	 XMMWORD PTR M$[rbp+rax], xmm0

; 1024 :     M.r[1] = g_XMIdentityR1.v;

  0004d	b8 10 00 00 00	 mov	 eax, 16
  00052	48 6b c0 01	 imul	 rax, rax, 1
  00056	0f 28 05 00 00
	00 00		 movaps	 xmm0, XMMWORD PTR ?g_XMIdentityR1@DirectX@@3UXMVECTORF32@1@B
  0005d	0f 11 44 05 10	 movups	 XMMWORD PTR M$[rbp+rax], xmm0

; 1025 :     M.r[2] = g_XMIdentityR2.v;

  00062	b8 10 00 00 00	 mov	 eax, 16
  00067	48 6b c0 02	 imul	 rax, rax, 2
  0006b	0f 28 05 00 00
	00 00		 movaps	 xmm0, XMMWORD PTR ?g_XMIdentityR2@DirectX@@3UXMVECTORF32@1@B
  00072	0f 11 44 05 10	 movups	 XMMWORD PTR M$[rbp+rax], xmm0

; 1026 :     M.r[3] = g_XMIdentityR3.v;

  00077	b8 10 00 00 00	 mov	 eax, 16
  0007c	48 6b c0 03	 imul	 rax, rax, 3
  00080	0f 28 05 00 00
	00 00		 movaps	 xmm0, XMMWORD PTR ?g_XMIdentityR3@DirectX@@3UXMVECTORF32@1@B
  00087	0f 11 44 05 10	 movups	 XMMWORD PTR M$[rbp+rax], xmm0

; 1027 :     return M;

  0008c	0f 28 5d 40	 movaps	 xmm3, XMMWORD PTR M$[rbp+48]
  00090	0f 28 55 30	 movaps	 xmm2, XMMWORD PTR M$[rbp+32]
  00094	0f 28 4d 20	 movaps	 xmm1, XMMWORD PTR M$[rbp+16]
  00098	0f 28 45 10	 movaps	 xmm0, XMMWORD PTR M$[rbp]

; 1028 : }

  0009c	f3 0f 7f 44 24
	20		 movdqu	 XMMWORD PTR [rsp+32], xmm0
  000a2	48 8d 4d d0	 lea	 rcx, QWORD PTR [rbp-48]
  000a6	48 8d 15 00 00
	00 00		 lea	 rdx, OFFSET FLAT:?XMMatrixIdentity@DirectX@@YQ?AUXMMATRIX@1@XZ$rtcFrameData
  000ad	e8 00 00 00 00	 call	 _RTC_CheckStackVars
  000b2	f3 0f 6f 44 24
	20		 movdqu	 xmm0, XMMWORD PTR [rsp+32]
  000b8	48 8b 8d 18 01
	00 00		 mov	 rcx, QWORD PTR __$ArrayPad$[rbp]
  000bf	48 33 cd	 xor	 rcx, rbp
  000c2	e8 00 00 00 00	 call	 __security_check_cookie
  000c7	48 8d a5 28 01
	00 00		 lea	 rsp, QWORD PTR [rbp+296]
  000ce	5f		 pop	 rdi
  000cf	5d		 pop	 rbp
  000d0	c3		 ret	 0
?XMMatrixIdentity@DirectX@@YQ?AUXMMATRIX@1@XZ ENDP	; DirectX::XMMatrixIdentity
_TEXT	ENDS
; Function compile flags: /Odtp /RTCsu /ZI
; File c:\program files (x86)\windows kits\8.1\include\um\directxmathvector.inl
;	COMDAT ?XMVector3Normalize@DirectX@@YQ?AT__m128@@T2@@Z
_TEXT	SEGMENT
V$ = 16
vLengthSq$ = 64
vTemp$ = 112
vResult$ = 160
vZeroMask$ = 208
vTemp1$ = 256
vTemp2$ = 304
$T1 = 928
$T2 = 976
$T3 = 1024
$T4 = 1072
$T5 = 1120
$T6 = 1168
$T7 = 1216
$T8 = 1264
$T9 = 1312
$T10 = 1360
$T11 = 1408
$T12 = 1456
$T13 = 1504
$T14 = 1552
$T15 = 1600
$T16 = 1648
$T17 = 1696
?XMVector3Normalize@DirectX@@YQ?AT__m128@@T2@@Z PROC	; DirectX::XMVector3Normalize, COMDAT

; 9238 : {

$LN3:
  00000	40 55		 push	 rbp
  00002	57		 push	 rdi
  00003	48 81 ec f8 06
	00 00		 sub	 rsp, 1784		; 000006f8H
  0000a	48 8d 6c 24 30	 lea	 rbp, QWORD PTR [rsp+48]
  0000f	48 8b fc	 mov	 rdi, rsp
  00012	b9 be 01 00 00	 mov	 ecx, 446		; 000001beH
  00017	b8 cc cc cc cc	 mov	 eax, -858993460		; ccccccccH
  0001c	f3 ab		 rep stosd
  0001e	48 8d 45 10	 lea	 rax, QWORD PTR V$[rbp]
  00022	48 89 84 24 10
	07 00 00	 mov	 QWORD PTR [rsp+1808], rax
  0002a	0f 29 45 10	 movaps	 XMMWORD PTR V$[rbp], xmm0

; 9239 : #if defined(_XM_NO_INTRINSICS_)
; 9240 :     float fLength;
; 9241 :     XMVECTOR vResult;
; 9242 : 
; 9243 :     vResult = XMVector3Length( V );
; 9244 :     fLength = vResult.vector4_f32[0];
; 9245 : 
; 9246 :     // Prevent divide by zero
; 9247 :     if (fLength > 0) {
; 9248 :         fLength = 1.0f/fLength;
; 9249 :     }
; 9250 :     
; 9251 :     vResult.vector4_f32[0] = V.vector4_f32[0]*fLength;
; 9252 :     vResult.vector4_f32[1] = V.vector4_f32[1]*fLength;
; 9253 :     vResult.vector4_f32[2] = V.vector4_f32[2]*fLength;
; 9254 :     vResult.vector4_f32[3] = V.vector4_f32[3]*fLength;
; 9255 :     return vResult;
; 9256 : 
; 9257 : #elif defined(_XM_ARM_NEON_INTRINSICS_)
; 9258 :     // Dot3
; 9259 :     float32x4_t vTemp = vmulq_f32( V, V );
; 9260 :     float32x2_t v1 = vget_low_f32( vTemp );
; 9261 :     float32x2_t v2 = vget_high_f32( vTemp );
; 9262 :     v1 = vpadd_f32( v1, v1 );
; 9263 :     v2 = vdup_lane_f32( v2, 0 );
; 9264 :     v1 = vadd_f32( v1, v2 );
; 9265 :     uint32x2_t VEqualsZero = vceq_f32( v1, vdup_n_f32(0) );
; 9266 :     uint32x2_t VEqualsInf = vceq_f32( v1, vget_low_f32(g_XMInfinity) );
; 9267 :     // Reciprocal sqrt (2 iterations of Newton-Raphson)
; 9268 :     float32x2_t S0 = vrsqrte_f32( v1 );
; 9269 :     float32x2_t P0 = vmul_f32( v1, S0 );
; 9270 :     float32x2_t R0 = vrsqrts_f32( P0, S0 );
; 9271 :     float32x2_t S1 = vmul_f32( S0, R0 );
; 9272 :     float32x2_t P1 = vmul_f32( v1, S1 );
; 9273 :     float32x2_t R1 = vrsqrts_f32( P1, S1 );
; 9274 :     v2 = vmul_f32( S1, R1 );
; 9275 :     // Normalize
; 9276 :     XMVECTOR vResult = vmulq_f32( V, vcombine_f32(v2,v2) );
; 9277 :     vResult = vbslq_f32( vcombine_f32(VEqualsZero,VEqualsZero), vdupq_n_f32(0), vResult );
; 9278 :     return vbslq_f32( vcombine_f32(VEqualsInf,VEqualsInf), g_XMQNaN, vResult );
; 9279 : #elif defined(_XM_SSE_INTRINSICS_)
; 9280 :     // Perform the dot product on x,y and z only
; 9281 :     XMVECTOR vLengthSq = _mm_mul_ps(V,V);

  0002e	0f 28 45 10	 movaps	 xmm0, XMMWORD PTR V$[rbp]
  00032	0f 59 45 10	 mulps	 xmm0, XMMWORD PTR V$[rbp]
  00036	0f 29 85 a0 03
	00 00		 movaps	 XMMWORD PTR $T1[rbp], xmm0
  0003d	0f 28 85 a0 03
	00 00		 movaps	 xmm0, XMMWORD PTR $T1[rbp]
  00044	0f 29 45 40	 movaps	 XMMWORD PTR vLengthSq$[rbp], xmm0

; 9282 :     XMVECTOR vTemp = XM_PERMUTE_PS(vLengthSq,_MM_SHUFFLE(2,1,2,1));

  00048	0f 28 45 40	 movaps	 xmm0, XMMWORD PTR vLengthSq$[rbp]
  0004c	0f c6 45 40 99	 shufps	 xmm0, XMMWORD PTR vLengthSq$[rbp], 153 ; 00000099H
  00051	0f 29 85 d0 03
	00 00		 movaps	 XMMWORD PTR $T2[rbp], xmm0
  00058	0f 28 85 d0 03
	00 00		 movaps	 xmm0, XMMWORD PTR $T2[rbp]
  0005f	0f 29 45 70	 movaps	 XMMWORD PTR vTemp$[rbp], xmm0

; 9283 :     vLengthSq = _mm_add_ss(vLengthSq,vTemp);

  00063	0f 28 45 40	 movaps	 xmm0, XMMWORD PTR vLengthSq$[rbp]
  00067	f3 0f 58 45 70	 addss	 xmm0, DWORD PTR vTemp$[rbp]
  0006c	0f 29 85 00 04
	00 00		 movaps	 XMMWORD PTR $T3[rbp], xmm0
  00073	0f 28 85 00 04
	00 00		 movaps	 xmm0, XMMWORD PTR $T3[rbp]
  0007a	0f 29 45 40	 movaps	 XMMWORD PTR vLengthSq$[rbp], xmm0

; 9284 :     vTemp = XM_PERMUTE_PS(vTemp,_MM_SHUFFLE(1,1,1,1));

  0007e	0f 28 45 70	 movaps	 xmm0, XMMWORD PTR vTemp$[rbp]
  00082	0f c6 45 70 55	 shufps	 xmm0, XMMWORD PTR vTemp$[rbp], 85 ; 00000055H
  00087	0f 29 85 30 04
	00 00		 movaps	 XMMWORD PTR $T4[rbp], xmm0
  0008e	0f 28 85 30 04
	00 00		 movaps	 xmm0, XMMWORD PTR $T4[rbp]
  00095	0f 29 45 70	 movaps	 XMMWORD PTR vTemp$[rbp], xmm0

; 9285 :     vLengthSq = _mm_add_ss(vLengthSq,vTemp);

  00099	0f 28 45 40	 movaps	 xmm0, XMMWORD PTR vLengthSq$[rbp]
  0009d	f3 0f 58 45 70	 addss	 xmm0, DWORD PTR vTemp$[rbp]
  000a2	0f 29 85 60 04
	00 00		 movaps	 XMMWORD PTR $T5[rbp], xmm0
  000a9	0f 28 85 60 04
	00 00		 movaps	 xmm0, XMMWORD PTR $T5[rbp]
  000b0	0f 29 45 40	 movaps	 XMMWORD PTR vLengthSq$[rbp], xmm0

; 9286 :     vLengthSq = XM_PERMUTE_PS(vLengthSq,_MM_SHUFFLE(0,0,0,0));

  000b4	0f 28 45 40	 movaps	 xmm0, XMMWORD PTR vLengthSq$[rbp]
  000b8	0f c6 45 40 00	 shufps	 xmm0, XMMWORD PTR vLengthSq$[rbp], 0
  000bd	0f 29 85 90 04
	00 00		 movaps	 XMMWORD PTR $T6[rbp], xmm0
  000c4	0f 28 85 90 04
	00 00		 movaps	 xmm0, XMMWORD PTR $T6[rbp]
  000cb	0f 29 45 40	 movaps	 XMMWORD PTR vLengthSq$[rbp], xmm0

; 9287 :     // Prepare for the division
; 9288 :     XMVECTOR vResult = _mm_sqrt_ps(vLengthSq);

  000cf	0f 51 45 40	 sqrtps	 xmm0, XMMWORD PTR vLengthSq$[rbp]
  000d3	0f 29 85 c0 04
	00 00		 movaps	 XMMWORD PTR $T7[rbp], xmm0
  000da	0f 28 85 c0 04
	00 00		 movaps	 xmm0, XMMWORD PTR $T7[rbp]
  000e1	0f 29 85 a0 00
	00 00		 movaps	 XMMWORD PTR vResult$[rbp], xmm0

; 9289 :     // Create zero with a single instruction
; 9290 :     XMVECTOR vZeroMask = _mm_setzero_ps();

  000e8	0f 57 c0	 xorps	 xmm0, xmm0
  000eb	0f 29 85 f0 04
	00 00		 movaps	 XMMWORD PTR $T8[rbp], xmm0
  000f2	0f 28 85 f0 04
	00 00		 movaps	 xmm0, XMMWORD PTR $T8[rbp]
  000f9	0f 29 85 d0 00
	00 00		 movaps	 XMMWORD PTR vZeroMask$[rbp], xmm0

; 9291 :     // Test for a divide by zero (Must be FP to detect -0.0)
; 9292 :     vZeroMask = _mm_cmpneq_ps(vZeroMask,vResult);

  00100	0f 28 85 d0 00
	00 00		 movaps	 xmm0, XMMWORD PTR vZeroMask$[rbp]
  00107	0f c2 85 a0 00
	00 00 04	 cmpneqps xmm0, XMMWORD PTR vResult$[rbp]
  0010f	0f 29 85 20 05
	00 00		 movaps	 XMMWORD PTR $T9[rbp], xmm0
  00116	0f 28 85 20 05
	00 00		 movaps	 xmm0, XMMWORD PTR $T9[rbp]
  0011d	0f 29 85 d0 00
	00 00		 movaps	 XMMWORD PTR vZeroMask$[rbp], xmm0

; 9293 :     // Failsafe on zero (Or epsilon) length planes
; 9294 :     // If the length is infinity, set the elements to zero
; 9295 :     vLengthSq = _mm_cmpneq_ps(vLengthSq,g_XMInfinity);

  00124	48 8d 95 80 05
	00 00		 lea	 rdx, QWORD PTR $T11[rbp]
  0012b	48 8d 0d 00 00
	00 00		 lea	 rcx, OFFSET FLAT:?g_XMInfinity@DirectX@@3UXMVECTORI32@1@B ; DirectX::g_XMInfinity
  00132	e8 00 00 00 00	 call	 ??BXMVECTORI32@DirectX@@QEBA?AT__m128@@XZ ; DirectX::XMVECTORI32::operator __m128
  00137	0f 28 45 40	 movaps	 xmm0, XMMWORD PTR vLengthSq$[rbp]
  0013b	0f c2 00 04	 cmpneqps xmm0, XMMWORD PTR [rax]
  0013f	0f 29 85 50 05
	00 00		 movaps	 XMMWORD PTR $T10[rbp], xmm0
  00146	0f 28 85 50 05
	00 00		 movaps	 xmm0, XMMWORD PTR $T10[rbp]
  0014d	0f 29 45 40	 movaps	 XMMWORD PTR vLengthSq$[rbp], xmm0

; 9296 :     // Divide to perform the normalization
; 9297 :     vResult = _mm_div_ps(V,vResult);

  00151	0f 28 45 10	 movaps	 xmm0, XMMWORD PTR V$[rbp]
  00155	0f 5e 85 a0 00
	00 00		 divps	 xmm0, XMMWORD PTR vResult$[rbp]
  0015c	0f 29 85 b0 05
	00 00		 movaps	 XMMWORD PTR $T12[rbp], xmm0
  00163	0f 28 85 b0 05
	00 00		 movaps	 xmm0, XMMWORD PTR $T12[rbp]
  0016a	0f 29 85 a0 00
	00 00		 movaps	 XMMWORD PTR vResult$[rbp], xmm0

; 9298 :     // Any that are infinity, set to zero
; 9299 :     vResult = _mm_and_ps(vResult,vZeroMask);

  00171	0f 28 85 a0 00
	00 00		 movaps	 xmm0, XMMWORD PTR vResult$[rbp]
  00178	0f 54 85 d0 00
	00 00		 andps	 xmm0, XMMWORD PTR vZeroMask$[rbp]
  0017f	0f 29 85 e0 05
	00 00		 movaps	 XMMWORD PTR $T13[rbp], xmm0
  00186	0f 28 85 e0 05
	00 00		 movaps	 xmm0, XMMWORD PTR $T13[rbp]
  0018d	0f 29 85 a0 00
	00 00		 movaps	 XMMWORD PTR vResult$[rbp], xmm0

; 9300 :     // Select qnan or result based on infinite length
; 9301 :     XMVECTOR vTemp1 = _mm_andnot_ps(vLengthSq,g_XMQNaN);

  00194	48 8d 95 40 06
	00 00		 lea	 rdx, QWORD PTR $T15[rbp]
  0019b	48 8d 0d 00 00
	00 00		 lea	 rcx, OFFSET FLAT:?g_XMQNaN@DirectX@@3UXMVECTORI32@1@B ; DirectX::g_XMQNaN
  001a2	e8 00 00 00 00	 call	 ??BXMVECTORI32@DirectX@@QEBA?AT__m128@@XZ ; DirectX::XMVECTORI32::operator __m128
  001a7	0f 28 45 40	 movaps	 xmm0, XMMWORD PTR vLengthSq$[rbp]
  001ab	0f 55 00	 andnps	 xmm0, XMMWORD PTR [rax]
  001ae	0f 29 85 10 06
	00 00		 movaps	 XMMWORD PTR $T14[rbp], xmm0
  001b5	0f 28 85 10 06
	00 00		 movaps	 xmm0, XMMWORD PTR $T14[rbp]
  001bc	0f 29 85 00 01
	00 00		 movaps	 XMMWORD PTR vTemp1$[rbp], xmm0

; 9302 :     XMVECTOR vTemp2 = _mm_and_ps(vResult,vLengthSq);

  001c3	0f 28 85 a0 00
	00 00		 movaps	 xmm0, XMMWORD PTR vResult$[rbp]
  001ca	0f 54 45 40	 andps	 xmm0, XMMWORD PTR vLengthSq$[rbp]
  001ce	0f 29 85 70 06
	00 00		 movaps	 XMMWORD PTR $T16[rbp], xmm0
  001d5	0f 28 85 70 06
	00 00		 movaps	 xmm0, XMMWORD PTR $T16[rbp]
  001dc	0f 29 85 30 01
	00 00		 movaps	 XMMWORD PTR vTemp2$[rbp], xmm0

; 9303 :     vResult = _mm_or_ps(vTemp1,vTemp2);

  001e3	0f 28 85 00 01
	00 00		 movaps	 xmm0, XMMWORD PTR vTemp1$[rbp]
  001ea	0f 56 85 30 01
	00 00		 orps	 xmm0, XMMWORD PTR vTemp2$[rbp]
  001f1	0f 29 85 a0 06
	00 00		 movaps	 XMMWORD PTR $T17[rbp], xmm0
  001f8	0f 28 85 a0 06
	00 00		 movaps	 xmm0, XMMWORD PTR $T17[rbp]
  001ff	0f 29 85 a0 00
	00 00		 movaps	 XMMWORD PTR vResult$[rbp], xmm0

; 9304 :     return vResult;

  00206	0f 28 85 a0 00
	00 00		 movaps	 xmm0, XMMWORD PTR vResult$[rbp]

; 9305 : #endif
; 9306 : }

  0020d	48 8d a5 c8 06
	00 00		 lea	 rsp, QWORD PTR [rbp+1736]
  00214	5f		 pop	 rdi
  00215	5d		 pop	 rbp
  00216	c3		 ret	 0
?XMVector3Normalize@DirectX@@YQ?AT__m128@@T2@@Z ENDP	; DirectX::XMVector3Normalize
_TEXT	ENDS
; Function compile flags: /Odtp /RTCsu /ZI
; File c:\program files (x86)\windows kits\8.1\include\um\directxmathvector.inl
;	COMDAT ?XMVector3Cross@DirectX@@YQ?AT__m128@@T2@0@Z
_TEXT	SEGMENT
V1$ = 16
V2$ = 64
vTemp1$ = 112
vTemp2$ = 160
vResult$ = 208
$T1 = 640
$T2 = 688
$T3 = 736
$T4 = 784
$T5 = 832
$T6 = 880
$T7 = 928
$T8 = 976
$T9 = 1024
?XMVector3Cross@DirectX@@YQ?AT__m128@@T2@0@Z PROC	; DirectX::XMVector3Cross, COMDAT

; 8922 : {

$LN3:
  00000	40 55		 push	 rbp
  00002	57		 push	 rdi
  00003	48 81 ec 58 04
	00 00		 sub	 rsp, 1112		; 00000458H
  0000a	48 8d 6c 24 30	 lea	 rbp, QWORD PTR [rsp+48]
  0000f	48 8b fc	 mov	 rdi, rsp
  00012	b9 16 01 00 00	 mov	 ecx, 278		; 00000116H
  00017	b8 cc cc cc cc	 mov	 eax, -858993460		; ccccccccH
  0001c	f3 ab		 rep stosd
  0001e	48 8d 45 10	 lea	 rax, QWORD PTR V1$[rbp]
  00022	48 89 84 24 70
	04 00 00	 mov	 QWORD PTR [rsp+1136], rax
  0002a	48 8d 45 40	 lea	 rax, QWORD PTR V2$[rbp]
  0002e	48 89 84 24 78
	04 00 00	 mov	 QWORD PTR [rsp+1144], rax
  00036	0f 29 4d 40	 movaps	 XMMWORD PTR V2$[rbp], xmm1
  0003a	0f 29 45 10	 movaps	 XMMWORD PTR V1$[rbp], xmm0

; 8923 :     // [ V1.y*V2.z - V1.z*V2.y, V1.z*V2.x - V1.x*V2.z, V1.x*V2.y - V1.y*V2.x ]
; 8924 : 
; 8925 : #if defined(_XM_NO_INTRINSICS_)
; 8926 :     XMVECTOR vResult = {
; 8927 :         (V1.vector4_f32[1] * V2.vector4_f32[2]) - (V1.vector4_f32[2] * V2.vector4_f32[1]),
; 8928 :         (V1.vector4_f32[2] * V2.vector4_f32[0]) - (V1.vector4_f32[0] * V2.vector4_f32[2]),
; 8929 :         (V1.vector4_f32[0] * V2.vector4_f32[1]) - (V1.vector4_f32[1] * V2.vector4_f32[0]),
; 8930 :         0.0f
; 8931 :     };
; 8932 :     return vResult;
; 8933 : #elif defined(_XM_ARM_NEON_INTRINSICS_)
; 8934 :     float32x2_t v1xy = vget_low_f32(V1);
; 8935 :     float32x2_t v2xy = vget_low_f32(V2);
; 8936 : 
; 8937 :     float32x2_t v1yx = vrev64_f32( v1xy );
; 8938 :     float32x2_t v2yx = vrev64_f32( v2xy );
; 8939 : 
; 8940 :     float32x2_t v1zz = vdup_lane_f32( vget_high_f32(V1), 0 );
; 8941 :     float32x2_t v2zz = vdup_lane_f32( vget_high_f32(V2), 0 );
; 8942 : 
; 8943 :     XMVECTOR vResult = vmulq_f32( vcombine_f32(v1yx,v1xy), vcombine_f32(v2zz,v2yx) );
; 8944 :     vResult = vmlsq_f32( vResult, vcombine_f32(v1zz,v1yx), vcombine_f32(v2yx,v2xy) );
; 8945 :     vResult = veorq_u32( vResult, g_XMFlipY );
; 8946 :     return vandq_u32( vResult, g_XMMask3 );
; 8947 : #elif defined(_XM_SSE_INTRINSICS_)
; 8948 :     // y1,z1,x1,w1
; 8949 :     XMVECTOR vTemp1 = XM_PERMUTE_PS(V1,_MM_SHUFFLE(3,0,2,1));

  0003e	0f 28 45 10	 movaps	 xmm0, XMMWORD PTR V1$[rbp]
  00042	0f c6 45 10 c9	 shufps	 xmm0, XMMWORD PTR V1$[rbp], 201 ; 000000c9H
  00047	0f 29 85 80 02
	00 00		 movaps	 XMMWORD PTR $T1[rbp], xmm0
  0004e	0f 28 85 80 02
	00 00		 movaps	 xmm0, XMMWORD PTR $T1[rbp]
  00055	0f 29 45 70	 movaps	 XMMWORD PTR vTemp1$[rbp], xmm0

; 8950 :     // z2,x2,y2,w2
; 8951 :     XMVECTOR vTemp2 = XM_PERMUTE_PS(V2,_MM_SHUFFLE(3,1,0,2));

  00059	0f 28 45 40	 movaps	 xmm0, XMMWORD PTR V2$[rbp]
  0005d	0f c6 45 40 d2	 shufps	 xmm0, XMMWORD PTR V2$[rbp], 210 ; 000000d2H
  00062	0f 29 85 b0 02
	00 00		 movaps	 XMMWORD PTR $T2[rbp], xmm0
  00069	0f 28 85 b0 02
	00 00		 movaps	 xmm0, XMMWORD PTR $T2[rbp]
  00070	0f 29 85 a0 00
	00 00		 movaps	 XMMWORD PTR vTemp2$[rbp], xmm0

; 8952 :     // Perform the left operation
; 8953 :     XMVECTOR vResult = _mm_mul_ps(vTemp1,vTemp2);

  00077	0f 28 45 70	 movaps	 xmm0, XMMWORD PTR vTemp1$[rbp]
  0007b	0f 59 85 a0 00
	00 00		 mulps	 xmm0, XMMWORD PTR vTemp2$[rbp]
  00082	0f 29 85 e0 02
	00 00		 movaps	 XMMWORD PTR $T3[rbp], xmm0
  00089	0f 28 85 e0 02
	00 00		 movaps	 xmm0, XMMWORD PTR $T3[rbp]
  00090	0f 29 85 d0 00
	00 00		 movaps	 XMMWORD PTR vResult$[rbp], xmm0

; 8954 :     // z1,x1,y1,w1
; 8955 :     vTemp1 = XM_PERMUTE_PS(vTemp1,_MM_SHUFFLE(3,0,2,1));

  00097	0f 28 45 70	 movaps	 xmm0, XMMWORD PTR vTemp1$[rbp]
  0009b	0f c6 45 70 c9	 shufps	 xmm0, XMMWORD PTR vTemp1$[rbp], 201 ; 000000c9H
  000a0	0f 29 85 10 03
	00 00		 movaps	 XMMWORD PTR $T4[rbp], xmm0
  000a7	0f 28 85 10 03
	00 00		 movaps	 xmm0, XMMWORD PTR $T4[rbp]
  000ae	0f 29 45 70	 movaps	 XMMWORD PTR vTemp1$[rbp], xmm0

; 8956 :     // y2,z2,x2,w2
; 8957 :     vTemp2 = XM_PERMUTE_PS(vTemp2,_MM_SHUFFLE(3,1,0,2));

  000b2	0f 28 85 a0 00
	00 00		 movaps	 xmm0, XMMWORD PTR vTemp2$[rbp]
  000b9	0f c6 85 a0 00
	00 00 d2	 shufps	 xmm0, XMMWORD PTR vTemp2$[rbp], 210 ; 000000d2H
  000c1	0f 29 85 40 03
	00 00		 movaps	 XMMWORD PTR $T5[rbp], xmm0
  000c8	0f 28 85 40 03
	00 00		 movaps	 xmm0, XMMWORD PTR $T5[rbp]
  000cf	0f 29 85 a0 00
	00 00		 movaps	 XMMWORD PTR vTemp2$[rbp], xmm0

; 8958 :     // Perform the right operation
; 8959 :     vTemp1 = _mm_mul_ps(vTemp1,vTemp2);

  000d6	0f 28 45 70	 movaps	 xmm0, XMMWORD PTR vTemp1$[rbp]
  000da	0f 59 85 a0 00
	00 00		 mulps	 xmm0, XMMWORD PTR vTemp2$[rbp]
  000e1	0f 29 85 70 03
	00 00		 movaps	 XMMWORD PTR $T6[rbp], xmm0
  000e8	0f 28 85 70 03
	00 00		 movaps	 xmm0, XMMWORD PTR $T6[rbp]
  000ef	0f 29 45 70	 movaps	 XMMWORD PTR vTemp1$[rbp], xmm0

; 8960 :     // Subract the right from left, and return answer
; 8961 :     vResult = _mm_sub_ps(vResult,vTemp1);

  000f3	0f 28 85 d0 00
	00 00		 movaps	 xmm0, XMMWORD PTR vResult$[rbp]
  000fa	0f 5c 45 70	 subps	 xmm0, XMMWORD PTR vTemp1$[rbp]
  000fe	0f 29 85 a0 03
	00 00		 movaps	 XMMWORD PTR $T7[rbp], xmm0
  00105	0f 28 85 a0 03
	00 00		 movaps	 xmm0, XMMWORD PTR $T7[rbp]
  0010c	0f 29 85 d0 00
	00 00		 movaps	 XMMWORD PTR vResult$[rbp], xmm0

; 8962 :     // Set w to zero
; 8963 :     return _mm_and_ps(vResult,g_XMMask3);

  00113	48 8d 95 00 04
	00 00		 lea	 rdx, QWORD PTR $T9[rbp]
  0011a	48 8d 0d 00 00
	00 00		 lea	 rcx, OFFSET FLAT:?g_XMMask3@DirectX@@3UXMVECTORU32@1@B ; DirectX::g_XMMask3
  00121	e8 00 00 00 00	 call	 ??BXMVECTORU32@DirectX@@QEBA?AT__m128@@XZ ; DirectX::XMVECTORU32::operator __m128
  00126	0f 28 85 d0 00
	00 00		 movaps	 xmm0, XMMWORD PTR vResult$[rbp]
  0012d	0f 54 00	 andps	 xmm0, XMMWORD PTR [rax]
  00130	0f 29 85 d0 03
	00 00		 movaps	 XMMWORD PTR $T8[rbp], xmm0
  00137	0f 28 85 d0 03
	00 00		 movaps	 xmm0, XMMWORD PTR $T8[rbp]

; 8964 : #endif
; 8965 : }

  0013e	48 8d a5 28 04
	00 00		 lea	 rsp, QWORD PTR [rbp+1064]
  00145	5f		 pop	 rdi
  00146	5d		 pop	 rbp
  00147	c3		 ret	 0
?XMVector3Cross@DirectX@@YQ?AT__m128@@T2@0@Z ENDP	; DirectX::XMVector3Cross
_TEXT	ENDS
; Function compile flags: /Odtp /RTCsu /ZI
; File c:\program files (x86)\windows kits\8.1\include\um\directxmathvector.inl
;	COMDAT ?XMVector3Dot@DirectX@@YQ?AT__m128@@T2@0@Z
_TEXT	SEGMENT
V1$ = 16
V2$ = 64
vDot$ = 112
vTemp$ = 160
$T1 = 400
$T2 = 448
$T3 = 496
$T4 = 544
$T5 = 592
$T6 = 640
?XMVector3Dot@DirectX@@YQ?AT__m128@@T2@0@Z PROC		; DirectX::XMVector3Dot, COMDAT

; 8882 : {

$LN3:
  00000	40 55		 push	 rbp
  00002	57		 push	 rdi
  00003	48 81 ec b8 02
	00 00		 sub	 rsp, 696		; 000002b8H
  0000a	48 8d 6c 24 10	 lea	 rbp, QWORD PTR [rsp+16]
  0000f	48 8b fc	 mov	 rdi, rsp
  00012	b9 ae 00 00 00	 mov	 ecx, 174		; 000000aeH
  00017	b8 cc cc cc cc	 mov	 eax, -858993460		; ccccccccH
  0001c	f3 ab		 rep stosd
  0001e	48 8d 45 10	 lea	 rax, QWORD PTR V1$[rbp]
  00022	48 89 84 24 d0
	02 00 00	 mov	 QWORD PTR [rsp+720], rax
  0002a	48 8d 45 40	 lea	 rax, QWORD PTR V2$[rbp]
  0002e	48 89 84 24 d8
	02 00 00	 mov	 QWORD PTR [rsp+728], rax
  00036	0f 29 4d 40	 movaps	 XMMWORD PTR V2$[rbp], xmm1
  0003a	0f 29 45 10	 movaps	 XMMWORD PTR V1$[rbp], xmm0

; 8883 : #if defined(_XM_NO_INTRINSICS_)
; 8884 :     float fValue = V1.vector4_f32[0] * V2.vector4_f32[0] + V1.vector4_f32[1] * V2.vector4_f32[1] + V1.vector4_f32[2] * V2.vector4_f32[2];
; 8885 :     XMVECTOR vResult;
; 8886 :     vResult.vector4_f32[0] = 
; 8887 :     vResult.vector4_f32[1] = 
; 8888 :     vResult.vector4_f32[2] = 
; 8889 :     vResult.vector4_f32[3] = fValue;
; 8890 :     return vResult;
; 8891 : #elif defined(_XM_ARM_NEON_INTRINSICS_)
; 8892 :     float32x4_t vTemp = vmulq_f32( V1, V2 );
; 8893 :     float32x2_t v1 = vget_low_f32( vTemp );
; 8894 :     float32x2_t v2 = vget_high_f32( vTemp );
; 8895 :     v1 = vpadd_f32( v1, v1 );
; 8896 :     v2 = vdup_lane_f32( v2, 0 );
; 8897 :     v1 = vadd_f32( v1, v2 );
; 8898 :     return vcombine_f32( v1, v1 );
; 8899 : #elif defined(_XM_SSE_INTRINSICS_)
; 8900 :     // Perform the dot product
; 8901 :     XMVECTOR vDot = _mm_mul_ps(V1,V2);

  0003e	0f 28 45 10	 movaps	 xmm0, XMMWORD PTR V1$[rbp]
  00042	0f 59 45 40	 mulps	 xmm0, XMMWORD PTR V2$[rbp]
  00046	0f 29 85 90 01
	00 00		 movaps	 XMMWORD PTR $T1[rbp], xmm0
  0004d	0f 28 85 90 01
	00 00		 movaps	 xmm0, XMMWORD PTR $T1[rbp]
  00054	0f 29 45 70	 movaps	 XMMWORD PTR vDot$[rbp], xmm0

; 8902 :     // x=Dot.vector4_f32[1], y=Dot.vector4_f32[2]
; 8903 :     XMVECTOR vTemp = XM_PERMUTE_PS(vDot,_MM_SHUFFLE(2,1,2,1));

  00058	0f 28 45 70	 movaps	 xmm0, XMMWORD PTR vDot$[rbp]
  0005c	0f c6 45 70 99	 shufps	 xmm0, XMMWORD PTR vDot$[rbp], 153 ; 00000099H
  00061	0f 29 85 c0 01
	00 00		 movaps	 XMMWORD PTR $T2[rbp], xmm0
  00068	0f 28 85 c0 01
	00 00		 movaps	 xmm0, XMMWORD PTR $T2[rbp]
  0006f	0f 29 85 a0 00
	00 00		 movaps	 XMMWORD PTR vTemp$[rbp], xmm0

; 8904 :     // Result.vector4_f32[0] = x+y
; 8905 :     vDot = _mm_add_ss(vDot,vTemp);

  00076	0f 28 45 70	 movaps	 xmm0, XMMWORD PTR vDot$[rbp]
  0007a	f3 0f 58 85 a0
	00 00 00	 addss	 xmm0, DWORD PTR vTemp$[rbp]
  00082	0f 29 85 f0 01
	00 00		 movaps	 XMMWORD PTR $T3[rbp], xmm0
  00089	0f 28 85 f0 01
	00 00		 movaps	 xmm0, XMMWORD PTR $T3[rbp]
  00090	0f 29 45 70	 movaps	 XMMWORD PTR vDot$[rbp], xmm0

; 8906 :     // x=Dot.vector4_f32[2]
; 8907 :     vTemp = XM_PERMUTE_PS(vTemp,_MM_SHUFFLE(1,1,1,1));

  00094	0f 28 85 a0 00
	00 00		 movaps	 xmm0, XMMWORD PTR vTemp$[rbp]
  0009b	0f c6 85 a0 00
	00 00 55	 shufps	 xmm0, XMMWORD PTR vTemp$[rbp], 85 ; 00000055H
  000a3	0f 29 85 20 02
	00 00		 movaps	 XMMWORD PTR $T4[rbp], xmm0
  000aa	0f 28 85 20 02
	00 00		 movaps	 xmm0, XMMWORD PTR $T4[rbp]
  000b1	0f 29 85 a0 00
	00 00		 movaps	 XMMWORD PTR vTemp$[rbp], xmm0

; 8908 :     // Result.vector4_f32[0] = (x+y)+z
; 8909 :     vDot = _mm_add_ss(vDot,vTemp);

  000b8	0f 28 45 70	 movaps	 xmm0, XMMWORD PTR vDot$[rbp]
  000bc	f3 0f 58 85 a0
	00 00 00	 addss	 xmm0, DWORD PTR vTemp$[rbp]
  000c4	0f 29 85 50 02
	00 00		 movaps	 XMMWORD PTR $T5[rbp], xmm0
  000cb	0f 28 85 50 02
	00 00		 movaps	 xmm0, XMMWORD PTR $T5[rbp]
  000d2	0f 29 45 70	 movaps	 XMMWORD PTR vDot$[rbp], xmm0

; 8910 :     // Splat x
; 8911 :     return XM_PERMUTE_PS(vDot,_MM_SHUFFLE(0,0,0,0));

  000d6	0f 28 45 70	 movaps	 xmm0, XMMWORD PTR vDot$[rbp]
  000da	0f c6 45 70 00	 shufps	 xmm0, XMMWORD PTR vDot$[rbp], 0
  000df	0f 29 85 80 02
	00 00		 movaps	 XMMWORD PTR $T6[rbp], xmm0
  000e6	0f 28 85 80 02
	00 00		 movaps	 xmm0, XMMWORD PTR $T6[rbp]

; 8912 : #endif
; 8913 : }

  000ed	48 8d a5 a8 02
	00 00		 lea	 rsp, QWORD PTR [rbp+680]
  000f4	5f		 pop	 rdi
  000f5	5d		 pop	 rbp
  000f6	c3		 ret	 0
?XMVector3Dot@DirectX@@YQ?AT__m128@@T2@0@Z ENDP		; DirectX::XMVector3Dot
_TEXT	ENDS
; Function compile flags: /Odtp /RTCsu /ZI
; File c:\program files (x86)\windows kits\8.1\include\um\directxmathvector.inl
;	COMDAT ?XMVectorNegate@DirectX@@YQ?AT__m128@@T2@@Z
_TEXT	SEGMENT
V$ = 16
Z$ = 64
$T1 = 304
$T2 = 352
?XMVectorNegate@DirectX@@YQ?AT__m128@@T2@@Z PROC	; DirectX::XMVectorNegate, COMDAT

; 2673 : {

$LN3:
  00000	40 55		 push	 rbp
  00002	57		 push	 rdi
  00003	48 81 ec 98 01
	00 00		 sub	 rsp, 408		; 00000198H
  0000a	48 8d 6c 24 10	 lea	 rbp, QWORD PTR [rsp+16]
  0000f	48 8b fc	 mov	 rdi, rsp
  00012	b9 66 00 00 00	 mov	 ecx, 102		; 00000066H
  00017	b8 cc cc cc cc	 mov	 eax, -858993460		; ccccccccH
  0001c	f3 ab		 rep stosd
  0001e	48 8d 45 10	 lea	 rax, QWORD PTR V$[rbp]
  00022	48 89 84 24 b0
	01 00 00	 mov	 QWORD PTR [rsp+432], rax
  0002a	0f 29 45 10	 movaps	 XMMWORD PTR V$[rbp], xmm0

; 2674 : #if defined(_XM_NO_INTRINSICS_)
; 2675 : 
; 2676 :     XMVECTOR Result;
; 2677 :     Result.vector4_f32[0] = -V.vector4_f32[0];
; 2678 :     Result.vector4_f32[1] = -V.vector4_f32[1];
; 2679 :     Result.vector4_f32[2] = -V.vector4_f32[2];
; 2680 :     Result.vector4_f32[3] = -V.vector4_f32[3];
; 2681 :     return Result;
; 2682 : 
; 2683 : #elif defined(_XM_ARM_NEON_INTRINSICS_)
; 2684 :     return vnegq_f32(V);
; 2685 : #elif defined(_XM_SSE_INTRINSICS_)
; 2686 :     XMVECTOR Z;
; 2687 : 
; 2688 :     Z = _mm_setzero_ps();

  0002e	0f 57 c0	 xorps	 xmm0, xmm0
  00031	0f 29 85 30 01
	00 00		 movaps	 XMMWORD PTR $T1[rbp], xmm0
  00038	0f 28 85 30 01
	00 00		 movaps	 xmm0, XMMWORD PTR $T1[rbp]
  0003f	0f 29 45 40	 movaps	 XMMWORD PTR Z$[rbp], xmm0

; 2689 : 
; 2690 :     return _mm_sub_ps( Z, V );

  00043	0f 28 45 40	 movaps	 xmm0, XMMWORD PTR Z$[rbp]
  00047	0f 5c 45 10	 subps	 xmm0, XMMWORD PTR V$[rbp]
  0004b	0f 29 85 60 01
	00 00		 movaps	 XMMWORD PTR $T2[rbp], xmm0
  00052	0f 28 85 60 01
	00 00		 movaps	 xmm0, XMMWORD PTR $T2[rbp]

; 2691 : #endif
; 2692 : }

  00059	48 8d a5 88 01
	00 00		 lea	 rsp, QWORD PTR [rbp+392]
  00060	5f		 pop	 rdi
  00061	5d		 pop	 rbp
  00062	c3		 ret	 0
?XMVectorNegate@DirectX@@YQ?AT__m128@@T2@@Z ENDP	; DirectX::XMVectorNegate
_TEXT	ENDS
; Function compile flags: /Odtp /RTCsu /ZI
; File c:\program files (x86)\windows kits\8.1\include\um\directxmathvector.inl
;	COMDAT ?XMVectorSetY@DirectX@@YQ?AT__m128@@T2@M@Z
_TEXT	SEGMENT
V$ = 16
vResult$ = 64
vTemp$ = 112
$T1 = 352
$T2 = 400
$T3 = 448
$T4 = 496
y$ = 568
?XMVectorSetY@DirectX@@YQ?AT__m128@@T2@M@Z PROC		; DirectX::XMVectorSetY, COMDAT

; 742  : {

$LN3:
  00000	f3 0f 11 4c 24
	10		 movss	 DWORD PTR [rsp+16], xmm1
  00006	55		 push	 rbp
  00007	57		 push	 rdi
  00008	48 81 ec 28 02
	00 00		 sub	 rsp, 552		; 00000228H
  0000f	48 8d 6c 24 10	 lea	 rbp, QWORD PTR [rsp+16]
  00014	48 8b fc	 mov	 rdi, rsp
  00017	b9 8a 00 00 00	 mov	 ecx, 138		; 0000008aH
  0001c	b8 cc cc cc cc	 mov	 eax, -858993460		; ccccccccH
  00021	f3 ab		 rep stosd
  00023	48 8d 45 10	 lea	 rax, QWORD PTR V$[rbp]
  00027	48 89 84 24 40
	02 00 00	 mov	 QWORD PTR [rsp+576], rax
  0002f	0f 29 45 10	 movaps	 XMMWORD PTR V$[rbp], xmm0

; 743  : #if defined(_XM_NO_INTRINSICS_)
; 744  :     XMVECTOR U;
; 745  :     U.vector4_f32[0] = V.vector4_f32[0];
; 746  :     U.vector4_f32[1] = y;
; 747  :     U.vector4_f32[2] = V.vector4_f32[2];
; 748  :     U.vector4_f32[3] = V.vector4_f32[3];
; 749  :     return U;
; 750  : #elif defined(_XM_ARM_NEON_INTRINSICS_)
; 751  :     return vsetq_lane_f32(y,V,1);
; 752  : #elif defined(_XM_SSE_INTRINSICS_)
; 753  :     // Swap y and x
; 754  :     XMVECTOR vResult = XM_PERMUTE_PS(V,_MM_SHUFFLE(3,2,0,1));

  00033	0f 28 45 10	 movaps	 xmm0, XMMWORD PTR V$[rbp]
  00037	0f c6 45 10 e1	 shufps	 xmm0, XMMWORD PTR V$[rbp], 225 ; 000000e1H
  0003c	0f 29 85 60 01
	00 00		 movaps	 XMMWORD PTR $T1[rbp], xmm0
  00043	0f 28 85 60 01
	00 00		 movaps	 xmm0, XMMWORD PTR $T1[rbp]
  0004a	0f 29 45 40	 movaps	 XMMWORD PTR vResult$[rbp], xmm0

; 755  :     // Convert input to vector
; 756  :     XMVECTOR vTemp = _mm_set_ss(y);

  0004e	f3 0f 10 85 38
	02 00 00	 movss	 xmm0, DWORD PTR y$[rbp]
  00056	0f 57 c9	 xorps	 xmm1, xmm1
  00059	f3 0f 10 c8	 movss	 xmm1, xmm0
  0005d	0f 28 c1	 movaps	 xmm0, xmm1
  00060	0f 29 85 90 01
	00 00		 movaps	 XMMWORD PTR $T2[rbp], xmm0
  00067	0f 28 85 90 01
	00 00		 movaps	 xmm0, XMMWORD PTR $T2[rbp]
  0006e	0f 29 45 70	 movaps	 XMMWORD PTR vTemp$[rbp], xmm0

; 757  :     // Replace the x component
; 758  :     vResult = _mm_move_ss(vResult,vTemp);

  00072	0f 28 45 40	 movaps	 xmm0, XMMWORD PTR vResult$[rbp]
  00076	0f 28 4d 70	 movaps	 xmm1, XMMWORD PTR vTemp$[rbp]
  0007a	f3 0f 10 c1	 movss	 xmm0, xmm1
  0007e	0f 29 85 c0 01
	00 00		 movaps	 XMMWORD PTR $T3[rbp], xmm0
  00085	0f 28 85 c0 01
	00 00		 movaps	 xmm0, XMMWORD PTR $T3[rbp]
  0008c	0f 29 45 40	 movaps	 XMMWORD PTR vResult$[rbp], xmm0

; 759  :     // Swap y and x again
; 760  :     vResult = XM_PERMUTE_PS(vResult,_MM_SHUFFLE(3,2,0,1));

  00090	0f 28 45 40	 movaps	 xmm0, XMMWORD PTR vResult$[rbp]
  00094	0f c6 45 40 e1	 shufps	 xmm0, XMMWORD PTR vResult$[rbp], 225 ; 000000e1H
  00099	0f 29 85 f0 01
	00 00		 movaps	 XMMWORD PTR $T4[rbp], xmm0
  000a0	0f 28 85 f0 01
	00 00		 movaps	 xmm0, XMMWORD PTR $T4[rbp]
  000a7	0f 29 45 40	 movaps	 XMMWORD PTR vResult$[rbp], xmm0

; 761  :     return vResult;

  000ab	0f 28 45 40	 movaps	 xmm0, XMMWORD PTR vResult$[rbp]

; 762  : #endif
; 763  : }

  000af	48 8d a5 18 02
	00 00		 lea	 rsp, QWORD PTR [rbp+536]
  000b6	5f		 pop	 rdi
  000b7	5d		 pop	 rbp
  000b8	c3		 ret	 0
?XMVectorSetY@DirectX@@YQ?AT__m128@@T2@M@Z ENDP		; DirectX::XMVectorSetY
_TEXT	ENDS
; Function compile flags: /Odtp /RTCsu /ZI
; File c:\program files (x86)\windows kits\8.1\include\um\directxmathvector.inl
;	COMDAT ?XMVectorGetY@DirectX@@YQMT__m128@@@Z
_TEXT	SEGMENT
V$ = 16
vTemp$ = 64
$T1 = 304
tv70 = 324
?XMVectorGetY@DirectX@@YQMT__m128@@@Z PROC		; DirectX::XMVectorGetY, COMDAT

; 431  : {

$LN3:
  00000	40 55		 push	 rbp
  00002	57		 push	 rdi
  00003	48 81 ec 68 01
	00 00		 sub	 rsp, 360		; 00000168H
  0000a	48 8d 6c 24 10	 lea	 rbp, QWORD PTR [rsp+16]
  0000f	48 8b fc	 mov	 rdi, rsp
  00012	b9 5a 00 00 00	 mov	 ecx, 90			; 0000005aH
  00017	b8 cc cc cc cc	 mov	 eax, -858993460		; ccccccccH
  0001c	f3 ab		 rep stosd
  0001e	48 8d 45 10	 lea	 rax, QWORD PTR V$[rbp]
  00022	48 89 84 24 80
	01 00 00	 mov	 QWORD PTR [rsp+384], rax
  0002a	0f 29 45 10	 movaps	 XMMWORD PTR V$[rbp], xmm0

; 432  : #if defined(_XM_NO_INTRINSICS_)
; 433  :     return V.vector4_f32[1];
; 434  : #elif defined(_XM_ARM_NEON_INTRINSICS_)
; 435  :     return vgetq_lane_f32(V, 1);
; 436  : #elif defined(_XM_SSE_INTRINSICS_)
; 437  :     XMVECTOR vTemp = XM_PERMUTE_PS(V,_MM_SHUFFLE(1,1,1,1));

  0002e	0f 28 45 10	 movaps	 xmm0, XMMWORD PTR V$[rbp]
  00032	0f c6 45 10 55	 shufps	 xmm0, XMMWORD PTR V$[rbp], 85 ; 00000055H
  00037	0f 29 85 30 01
	00 00		 movaps	 XMMWORD PTR $T1[rbp], xmm0
  0003e	0f 28 85 30 01
	00 00		 movaps	 xmm0, XMMWORD PTR $T1[rbp]
  00045	0f 29 45 40	 movaps	 XMMWORD PTR vTemp$[rbp], xmm0

; 438  :     return _mm_cvtss_f32(vTemp);

  00049	0f 28 45 40	 movaps	 xmm0, XMMWORD PTR vTemp$[rbp]
  0004d	f3 0f 11 85 44
	01 00 00	 movss	 DWORD PTR tv70[rbp], xmm0
  00055	f3 0f 10 85 44
	01 00 00	 movss	 xmm0, DWORD PTR tv70[rbp]

; 439  : #endif
; 440  : }

  0005d	48 8d a5 58 01
	00 00		 lea	 rsp, QWORD PTR [rbp+344]
  00064	5f		 pop	 rdi
  00065	5d		 pop	 rbp
  00066	c3		 ret	 0
?XMVectorGetY@DirectX@@YQMT__m128@@@Z ENDP		; DirectX::XMVectorGetY
_TEXT	ENDS
; Function compile flags: /Odtp /RTCsu /ZI
; File c:\program files (x86)\windows kits\8.1\include\um\directxmathvector.inl
;	COMDAT ?XMVectorGetX@DirectX@@YQMT__m128@@@Z
_TEXT	SEGMENT
V$ = 16
tv66 = 228
?XMVectorGetX@DirectX@@YQMT__m128@@@Z PROC		; DirectX::XMVectorGetX, COMDAT

; 419  : {

$LN3:
  00000	40 55		 push	 rbp
  00002	57		 push	 rdi
  00003	48 81 ec 08 01
	00 00		 sub	 rsp, 264		; 00000108H
  0000a	48 8d 6c 24 10	 lea	 rbp, QWORD PTR [rsp+16]
  0000f	48 8b fc	 mov	 rdi, rsp
  00012	b9 42 00 00 00	 mov	 ecx, 66			; 00000042H
  00017	b8 cc cc cc cc	 mov	 eax, -858993460		; ccccccccH
  0001c	f3 ab		 rep stosd
  0001e	48 8d 45 10	 lea	 rax, QWORD PTR V$[rbp]
  00022	48 89 84 24 20
	01 00 00	 mov	 QWORD PTR [rsp+288], rax
  0002a	0f 29 45 10	 movaps	 XMMWORD PTR V$[rbp], xmm0

; 420  : #if defined(_XM_NO_INTRINSICS_)
; 421  :     return V.vector4_f32[0];
; 422  : #elif defined(_XM_ARM_NEON_INTRINSICS_)
; 423  :     return vgetq_lane_f32(V, 0);
; 424  : #elif defined(_XM_SSE_INTRINSICS_)
; 425  :     return _mm_cvtss_f32(V);

  0002e	0f 28 45 10	 movaps	 xmm0, XMMWORD PTR V$[rbp]
  00032	f3 0f 11 85 e4
	00 00 00	 movss	 DWORD PTR tv66[rbp], xmm0
  0003a	f3 0f 10 85 e4
	00 00 00	 movss	 xmm0, DWORD PTR tv66[rbp]

; 426  : #endif
; 427  : }

  00042	48 8d a5 f8 00
	00 00		 lea	 rsp, QWORD PTR [rbp+248]
  00049	5f		 pop	 rdi
  0004a	5d		 pop	 rbp
  0004b	c3		 ret	 0
?XMVectorGetX@DirectX@@YQMT__m128@@@Z ENDP		; DirectX::XMVectorGetX
_TEXT	ENDS
; Function compile flags: /Odtp /RTCsu /ZI
; File c:\program files (x86)\windows kits\8.1\include\um\directxmathvector.inl
;	COMDAT ?XMVectorSet@DirectX@@YQ?AT__m128@@MMMM@Z
_TEXT	SEGMENT
$T1 = 208
x$ = 272
y$ = 280
z$ = 288
w$ = 296
?XMVectorSet@DirectX@@YQ?AT__m128@@MMMM@Z PROC		; DirectX::XMVectorSet, COMDAT

; 71   : {

$LN3:
  00000	f3 0f 11 5c 24
	20		 movss	 DWORD PTR [rsp+32], xmm3
  00006	f3 0f 11 54 24
	18		 movss	 DWORD PTR [rsp+24], xmm2
  0000c	f3 0f 11 4c 24
	10		 movss	 DWORD PTR [rsp+16], xmm1
  00012	f3 0f 11 44 24
	08		 movss	 DWORD PTR [rsp+8], xmm0
  00018	55		 push	 rbp
  00019	57		 push	 rdi
  0001a	48 81 ec 08 01
	00 00		 sub	 rsp, 264		; 00000108H
  00021	48 8d 6c 24 10	 lea	 rbp, QWORD PTR [rsp+16]
  00026	48 8b fc	 mov	 rdi, rsp
  00029	b9 42 00 00 00	 mov	 ecx, 66			; 00000042H
  0002e	b8 cc cc cc cc	 mov	 eax, -858993460		; ccccccccH
  00033	f3 ab		 rep stosd

; 72   : #if defined(_XM_NO_INTRINSICS_)
; 73   :     XMVECTORF32 vResult = {x,y,z,w};
; 74   :     return vResult.v;
; 75   : #elif defined(_XM_ARM_NEON_INTRINSICS_)
; 76   :     float32x2_t V0 = vcreate_f32(((uint64_t)*(const uint32_t *)&x) | ((uint64_t)(*(const uint32_t *)&y) << 32));
; 77   :     float32x2_t V1 = vcreate_f32(((uint64_t)*(const uint32_t *)&z) | ((uint64_t)(*(const uint32_t *)&w) << 32));
; 78   :     return vcombine_f32(V0, V1);
; 79   : #elif defined(_XM_SSE_INTRINSICS_)
; 80   :     return _mm_set_ps( w, z, y, x );

  00035	f3 0f 10 85 28
	01 00 00	 movss	 xmm0, DWORD PTR w$[rbp]
  0003d	f3 0f 10 8d 20
	01 00 00	 movss	 xmm1, DWORD PTR z$[rbp]
  00045	f3 0f 10 95 18
	01 00 00	 movss	 xmm2, DWORD PTR y$[rbp]
  0004d	f3 0f 10 9d 10
	01 00 00	 movss	 xmm3, DWORD PTR x$[rbp]
  00055	0f 14 d9	 unpcklps xmm3, xmm1
  00058	0f 14 d0	 unpcklps xmm2, xmm0
  0005b	0f 28 c3	 movaps	 xmm0, xmm3
  0005e	0f 14 c2	 unpcklps xmm0, xmm2
  00061	0f 29 85 d0 00
	00 00		 movaps	 XMMWORD PTR $T1[rbp], xmm0
  00068	0f 28 85 d0 00
	00 00		 movaps	 xmm0, XMMWORD PTR $T1[rbp]

; 81   : #endif
; 82   : }

  0006f	48 8d a5 f8 00
	00 00		 lea	 rsp, QWORD PTR [rbp+248]
  00076	5f		 pop	 rdi
  00077	5d		 pop	 rbp
  00078	c3		 ret	 0
?XMVectorSet@DirectX@@YQ?AT__m128@@MMMM@Z ENDP		; DirectX::XMVectorSet
_TEXT	ENDS
; Function compile flags: /Odtp /RTCsu /ZI
; File c:\program files (x86)\windows kits\8.1\include\um\directxmathconvert.inl
;	COMDAT ?XMStoreFloat4x4@DirectX@@YQXPEAUXMFLOAT4X4@1@UXMMATRIX@1@@Z
_TEXT	SEGMENT
M$ = 16
pDestination$ = 320
?XMStoreFloat4x4@DirectX@@YQXPEAUXMFLOAT4X4@1@UXMMATRIX@1@@Z PROC ; DirectX::XMStoreFloat4x4, COMDAT

; 1818 : {

$LN4:
  00000	48 89 4c 24 08	 mov	 QWORD PTR [rsp+8], rcx
  00005	55		 push	 rbp
  00006	57		 push	 rdi
  00007	48 81 ec 48 01
	00 00		 sub	 rsp, 328		; 00000148H
  0000e	48 8d 6c 24 20	 lea	 rbp, QWORD PTR [rsp+32]
  00013	48 8b fc	 mov	 rdi, rsp
  00016	b9 52 00 00 00	 mov	 ecx, 82			; 00000052H
  0001b	b8 cc cc cc cc	 mov	 eax, -858993460		; ccccccccH
  00020	f3 ab		 rep stosd
  00022	48 8b 8c 24 68
	01 00 00	 mov	 rcx, QWORD PTR [rsp+360]
  0002a	48 8d 45 10	 lea	 rax, QWORD PTR M$[rbp]
  0002e	48 89 84 24 68
	01 00 00	 mov	 QWORD PTR [rsp+360], rax
  00036	0f 29 5d 40	 movaps	 XMMWORD PTR M$[rbp+48], xmm3
  0003a	0f 29 55 30	 movaps	 XMMWORD PTR M$[rbp+32], xmm2
  0003e	0f 29 4d 20	 movaps	 XMMWORD PTR M$[rbp+16], xmm1
  00042	0f 29 45 10	 movaps	 XMMWORD PTR M$[rbp], xmm0

; 1819 :     assert(pDestination);

  00046	48 83 bd 40 01
	00 00 00	 cmp	 QWORD PTR pDestination$[rbp], 0
  0004e	75 21		 jne	 SHORT $LN3@XMStoreFlo
  00050	8b 05 00 00 00
	00		 mov	 eax, DWORD PTR ?__LINE__Var@?0??XMStoreFloat4x4@DirectX@@YQXPEAUXMFLOAT4X4@2@UXMMATRIX@2@@Z@4JA
  00056	ff c0		 inc	 eax
  00058	44 8b c0	 mov	 r8d, eax
  0005b	48 8d 15 00 00
	00 00		 lea	 rdx, OFFSET FLAT:??_C@_1JE@DMOBBMDE@?$AAc?$AA?3?$AA?2?$AAp?$AAr?$AAo?$AAg?$AAr?$AAa?$AAm?$AA?5?$AAf?$AAi?$AAl?$AAe?$AAs?$AA?5?$AA?$CI?$AAx?$AA8?$AA6?$AA?$CJ?$AA?2?$AAw?$AAi?$AAn?$AAd?$AAo?$AAw?$AAs?$AA?5?$AAk@
  00062	48 8d 0d 00 00
	00 00		 lea	 rcx, OFFSET FLAT:??_C@_1BK@FHLBGAOP@?$AAp?$AAD?$AAe?$AAs?$AAt?$AAi?$AAn?$AAa?$AAt?$AAi?$AAo?$AAn?$AA?$AA@
  00069	ff 15 00 00 00
	00		 call	 QWORD PTR __imp__wassert
  0006f	33 c0		 xor	 eax, eax
$LN3@XMStoreFlo:

; 1820 : #if defined(_XM_NO_INTRINSICS_)
; 1821 : 
; 1822 :     pDestination->m[0][0] = M.r[0].vector4_f32[0];
; 1823 :     pDestination->m[0][1] = M.r[0].vector4_f32[1];
; 1824 :     pDestination->m[0][2] = M.r[0].vector4_f32[2];
; 1825 :     pDestination->m[0][3] = M.r[0].vector4_f32[3];
; 1826 : 
; 1827 :     pDestination->m[1][0] = M.r[1].vector4_f32[0];
; 1828 :     pDestination->m[1][1] = M.r[1].vector4_f32[1];
; 1829 :     pDestination->m[1][2] = M.r[1].vector4_f32[2];
; 1830 :     pDestination->m[1][3] = M.r[1].vector4_f32[3];
; 1831 : 
; 1832 :     pDestination->m[2][0] = M.r[2].vector4_f32[0];
; 1833 :     pDestination->m[2][1] = M.r[2].vector4_f32[1];
; 1834 :     pDestination->m[2][2] = M.r[2].vector4_f32[2];
; 1835 :     pDestination->m[2][3] = M.r[2].vector4_f32[3];
; 1836 : 
; 1837 :     pDestination->m[3][0] = M.r[3].vector4_f32[0];
; 1838 :     pDestination->m[3][1] = M.r[3].vector4_f32[1];
; 1839 :     pDestination->m[3][2] = M.r[3].vector4_f32[2];
; 1840 :     pDestination->m[3][3] = M.r[3].vector4_f32[3];
; 1841 : 
; 1842 : #elif defined(_XM_ARM_NEON_INTRINSICS_)
; 1843 :     vst1q_f32( reinterpret_cast<float*>(&pDestination->_11), M.r[0] );
; 1844 :     vst1q_f32( reinterpret_cast<float*>(&pDestination->_21), M.r[1] );
; 1845 :     vst1q_f32( reinterpret_cast<float*>(&pDestination->_31), M.r[2] );
; 1846 :     vst1q_f32( reinterpret_cast<float*>(&pDestination->_41), M.r[3] );
; 1847 : #elif defined(_XM_SSE_INTRINSICS_)
; 1848 :     _mm_storeu_ps( &pDestination->_11, M.r[0] );

  00071	b8 10 00 00 00	 mov	 eax, 16
  00076	48 6b c0 00	 imul	 rax, rax, 0
  0007a	48 8b 8d 40 01
	00 00		 mov	 rcx, QWORD PTR pDestination$[rbp]
  00081	0f 10 44 05 10	 movups	 xmm0, XMMWORD PTR M$[rbp+rax]
  00086	0f 11 01	 movups	 XMMWORD PTR [rcx], xmm0

; 1849 :     _mm_storeu_ps( &pDestination->_21, M.r[1] );

  00089	b8 10 00 00 00	 mov	 eax, 16
  0008e	48 6b c0 01	 imul	 rax, rax, 1
  00092	48 8b 8d 40 01
	00 00		 mov	 rcx, QWORD PTR pDestination$[rbp]
  00099	48 83 c1 10	 add	 rcx, 16
  0009d	0f 10 44 05 10	 movups	 xmm0, XMMWORD PTR M$[rbp+rax]
  000a2	0f 11 01	 movups	 XMMWORD PTR [rcx], xmm0

; 1850 :     _mm_storeu_ps( &pDestination->_31, M.r[2] );

  000a5	b8 10 00 00 00	 mov	 eax, 16
  000aa	48 6b c0 02	 imul	 rax, rax, 2
  000ae	48 8b 8d 40 01
	00 00		 mov	 rcx, QWORD PTR pDestination$[rbp]
  000b5	48 83 c1 20	 add	 rcx, 32			; 00000020H
  000b9	0f 10 44 05 10	 movups	 xmm0, XMMWORD PTR M$[rbp+rax]
  000be	0f 11 01	 movups	 XMMWORD PTR [rcx], xmm0

; 1851 :     _mm_storeu_ps( &pDestination->_41, M.r[3] );

  000c1	b8 10 00 00 00	 mov	 eax, 16
  000c6	48 6b c0 03	 imul	 rax, rax, 3
  000ca	48 8b 8d 40 01
	00 00		 mov	 rcx, QWORD PTR pDestination$[rbp]
  000d1	48 83 c1 30	 add	 rcx, 48			; 00000030H
  000d5	0f 10 44 05 10	 movups	 xmm0, XMMWORD PTR M$[rbp+rax]
  000da	0f 11 01	 movups	 XMMWORD PTR [rcx], xmm0

; 1852 : #endif
; 1853 : }

  000dd	48 8d 4d e0	 lea	 rcx, QWORD PTR [rbp-32]
  000e1	48 8d 15 00 00
	00 00		 lea	 rdx, OFFSET FLAT:?XMStoreFloat4x4@DirectX@@YQXPEAUXMFLOAT4X4@1@UXMMATRIX@1@@Z$rtcFrameData
  000e8	e8 00 00 00 00	 call	 _RTC_CheckStackVars
  000ed	48 8d a5 28 01
	00 00		 lea	 rsp, QWORD PTR [rbp+296]
  000f4	5f		 pop	 rdi
  000f5	5d		 pop	 rbp
  000f6	c3		 ret	 0
?XMStoreFloat4x4@DirectX@@YQXPEAUXMFLOAT4X4@1@UXMMATRIX@1@@Z ENDP ; DirectX::XMStoreFloat4x4
_TEXT	ENDS
; Function compile flags: /Odtp /RTCsu /ZI
; File c:\program files (x86)\windows kits\8.1\include\um\directxmathconvert.inl
;	COMDAT ?XMStoreFloat3@DirectX@@YQXPEAUXMFLOAT3@1@T__m128@@@Z
_TEXT	SEGMENT
V$ = 16
T1$ = 64
T2$ = 112
$T1 = 352
$T2 = 400
pDestination$ = 464
?XMStoreFloat3@DirectX@@YQXPEAUXMFLOAT3@1@T__m128@@@Z PROC ; DirectX::XMStoreFloat3, COMDAT

; 1363 : {

$LN4:
  00000	48 89 4c 24 08	 mov	 QWORD PTR [rsp+8], rcx
  00005	55		 push	 rbp
  00006	57		 push	 rdi
  00007	48 81 ec d8 01
	00 00		 sub	 rsp, 472		; 000001d8H
  0000e	48 8d 6c 24 20	 lea	 rbp, QWORD PTR [rsp+32]
  00013	48 8b fc	 mov	 rdi, rsp
  00016	b9 76 00 00 00	 mov	 ecx, 118		; 00000076H
  0001b	b8 cc cc cc cc	 mov	 eax, -858993460		; ccccccccH
  00020	f3 ab		 rep stosd
  00022	48 8b 8c 24 f8
	01 00 00	 mov	 rcx, QWORD PTR [rsp+504]
  0002a	48 8d 45 10	 lea	 rax, QWORD PTR V$[rbp]
  0002e	48 89 84 24 f8
	01 00 00	 mov	 QWORD PTR [rsp+504], rax
  00036	0f 29 4d 10	 movaps	 XMMWORD PTR V$[rbp], xmm1

; 1364 :     assert(pDestination);

  0003a	48 83 bd d0 01
	00 00 00	 cmp	 QWORD PTR pDestination$[rbp], 0
  00042	75 21		 jne	 SHORT $LN3@XMStoreFlo
  00044	8b 05 00 00 00
	00		 mov	 eax, DWORD PTR ?__LINE__Var@?0??XMStoreFloat3@DirectX@@YQXPEAUXMFLOAT3@2@T__m128@@@Z@4JA
  0004a	ff c0		 inc	 eax
  0004c	44 8b c0	 mov	 r8d, eax
  0004f	48 8d 15 00 00
	00 00		 lea	 rdx, OFFSET FLAT:??_C@_1JE@DMOBBMDE@?$AAc?$AA?3?$AA?2?$AAp?$AAr?$AAo?$AAg?$AAr?$AAa?$AAm?$AA?5?$AAf?$AAi?$AAl?$AAe?$AAs?$AA?5?$AA?$CI?$AAx?$AA8?$AA6?$AA?$CJ?$AA?2?$AAw?$AAi?$AAn?$AAd?$AAo?$AAw?$AAs?$AA?5?$AAk@
  00056	48 8d 0d 00 00
	00 00		 lea	 rcx, OFFSET FLAT:??_C@_1BK@FHLBGAOP@?$AAp?$AAD?$AAe?$AAs?$AAt?$AAi?$AAn?$AAa?$AAt?$AAi?$AAo?$AAn?$AA?$AA@
  0005d	ff 15 00 00 00
	00		 call	 QWORD PTR __imp__wassert
  00063	33 c0		 xor	 eax, eax
$LN3@XMStoreFlo:

; 1365 : #if defined(_XM_NO_INTRINSICS_)
; 1366 :     pDestination->x = V.vector4_f32[0];
; 1367 :     pDestination->y = V.vector4_f32[1];
; 1368 :     pDestination->z = V.vector4_f32[2];
; 1369 : #elif defined(_XM_ARM_NEON_INTRINSICS_)
; 1370 :     float32x2_t VL = vget_low_f32(V);
; 1371 :     vst1_f32( reinterpret_cast<float*>(pDestination), VL );
; 1372 :     vst1q_lane_f32( reinterpret_cast<float*>(pDestination)+2, V, 2 );
; 1373 : #elif defined(_XM_SSE_INTRINSICS_)
; 1374 :     XMVECTOR T1 = XM_PERMUTE_PS(V,_MM_SHUFFLE(1,1,1,1));

  00065	0f 28 45 10	 movaps	 xmm0, XMMWORD PTR V$[rbp]
  00069	0f c6 45 10 55	 shufps	 xmm0, XMMWORD PTR V$[rbp], 85 ; 00000055H
  0006e	0f 29 85 60 01
	00 00		 movaps	 XMMWORD PTR $T1[rbp], xmm0
  00075	0f 28 85 60 01
	00 00		 movaps	 xmm0, XMMWORD PTR $T1[rbp]
  0007c	0f 29 45 40	 movaps	 XMMWORD PTR T1$[rbp], xmm0

; 1375 :     XMVECTOR T2 = XM_PERMUTE_PS(V,_MM_SHUFFLE(2,2,2,2));

  00080	0f 28 45 10	 movaps	 xmm0, XMMWORD PTR V$[rbp]
  00084	0f c6 45 10 aa	 shufps	 xmm0, XMMWORD PTR V$[rbp], 170 ; 000000aaH
  00089	0f 29 85 90 01
	00 00		 movaps	 XMMWORD PTR $T2[rbp], xmm0
  00090	0f 28 85 90 01
	00 00		 movaps	 xmm0, XMMWORD PTR $T2[rbp]
  00097	0f 29 45 70	 movaps	 XMMWORD PTR T2$[rbp], xmm0

; 1376 :     _mm_store_ss( &pDestination->x, V );

  0009b	48 8b 85 d0 01
	00 00		 mov	 rax, QWORD PTR pDestination$[rbp]
  000a2	0f 28 45 10	 movaps	 xmm0, XMMWORD PTR V$[rbp]
  000a6	f3 0f 11 00	 movss	 DWORD PTR [rax], xmm0

; 1377 :     _mm_store_ss( &pDestination->y, T1 );

  000aa	48 8b 85 d0 01
	00 00		 mov	 rax, QWORD PTR pDestination$[rbp]
  000b1	48 83 c0 04	 add	 rax, 4
  000b5	0f 28 45 40	 movaps	 xmm0, XMMWORD PTR T1$[rbp]
  000b9	f3 0f 11 00	 movss	 DWORD PTR [rax], xmm0

; 1378 :     _mm_store_ss( &pDestination->z, T2 );

  000bd	48 8b 85 d0 01
	00 00		 mov	 rax, QWORD PTR pDestination$[rbp]
  000c4	48 83 c0 08	 add	 rax, 8
  000c8	0f 28 45 70	 movaps	 xmm0, XMMWORD PTR T2$[rbp]
  000cc	f3 0f 11 00	 movss	 DWORD PTR [rax], xmm0

; 1379 : #endif
; 1380 : }

  000d0	48 8d a5 b8 01
	00 00		 lea	 rsp, QWORD PTR [rbp+440]
  000d7	5f		 pop	 rdi
  000d8	5d		 pop	 rbp
  000d9	c3		 ret	 0
?XMStoreFloat3@DirectX@@YQXPEAUXMFLOAT3@1@T__m128@@@Z ENDP ; DirectX::XMStoreFloat3
_TEXT	ENDS
; Function compile flags: /Odtp /RTCsu /ZI
; File c:\program files (x86)\windows kits\8.1\include\um\directxmath.h
;	COMDAT ??0XMFLOAT4X4@DirectX@@QEAA@XZ
_TEXT	SEGMENT
this$ = 224
??0XMFLOAT4X4@DirectX@@QEAA@XZ PROC			; DirectX::XMFLOAT4X4::XMFLOAT4X4, COMDAT

; 698  :     XMFLOAT4X4() {}

$LN3:
  00000	48 89 4c 24 08	 mov	 QWORD PTR [rsp+8], rcx
  00005	55		 push	 rbp
  00006	57		 push	 rdi
  00007	48 81 ec c8 00
	00 00		 sub	 rsp, 200		; 000000c8H
  0000e	48 8b ec	 mov	 rbp, rsp
  00011	48 8b fc	 mov	 rdi, rsp
  00014	b9 32 00 00 00	 mov	 ecx, 50			; 00000032H
  00019	b8 cc cc cc cc	 mov	 eax, -858993460		; ccccccccH
  0001e	f3 ab		 rep stosd
  00020	48 8b 8c 24 e8
	00 00 00	 mov	 rcx, QWORD PTR [rsp+232]
  00028	48 8b 85 e0 00
	00 00		 mov	 rax, QWORD PTR this$[rbp]
  0002f	48 8d a5 c8 00
	00 00		 lea	 rsp, QWORD PTR [rbp+200]
  00036	5f		 pop	 rdi
  00037	5d		 pop	 rbp
  00038	c3		 ret	 0
??0XMFLOAT4X4@DirectX@@QEAA@XZ ENDP			; DirectX::XMFLOAT4X4::XMFLOAT4X4
_TEXT	ENDS
; Function compile flags: /Odtp /RTCsu /ZI
; File c:\program files (x86)\windows kits\8.1\include\um\directxmath.h
;	COMDAT ??0XMFLOAT3@DirectX@@QEAA@XZ
_TEXT	SEGMENT
this$ = 224
??0XMFLOAT3@DirectX@@QEAA@XZ PROC			; DirectX::XMFLOAT3::XMFLOAT3, COMDAT

; 505  :     XMFLOAT3() {}

$LN3:
  00000	48 89 4c 24 08	 mov	 QWORD PTR [rsp+8], rcx
  00005	55		 push	 rbp
  00006	57		 push	 rdi
  00007	48 81 ec c8 00
	00 00		 sub	 rsp, 200		; 000000c8H
  0000e	48 8b ec	 mov	 rbp, rsp
  00011	48 8b fc	 mov	 rdi, rsp
  00014	b9 32 00 00 00	 mov	 ecx, 50			; 00000032H
  00019	b8 cc cc cc cc	 mov	 eax, -858993460		; ccccccccH
  0001e	f3 ab		 rep stosd
  00020	48 8b 8c 24 e8
	00 00 00	 mov	 rcx, QWORD PTR [rsp+232]
  00028	48 8b 85 e0 00
	00 00		 mov	 rax, QWORD PTR this$[rbp]
  0002f	48 8d a5 c8 00
	00 00		 lea	 rsp, QWORD PTR [rbp+200]
  00036	5f		 pop	 rdi
  00037	5d		 pop	 rbp
  00038	c3		 ret	 0
??0XMFLOAT3@DirectX@@QEAA@XZ ENDP			; DirectX::XMFLOAT3::XMFLOAT3
_TEXT	ENDS
; Function compile flags: /Odtp /RTCsu /ZI
; File c:\program files (x86)\windows kits\8.1\include\um\directxmath.h
;	COMDAT ??0XMMATRIX@DirectX@@QEAA@XZ
_TEXT	SEGMENT
this$ = 224
??0XMMATRIX@DirectX@@QEAA@XZ PROC			; DirectX::XMMATRIX::XMMATRIX, COMDAT

; 413  :     XMMATRIX() {}

$LN3:
  00000	48 89 4c 24 08	 mov	 QWORD PTR [rsp+8], rcx
  00005	55		 push	 rbp
  00006	57		 push	 rdi
  00007	48 81 ec c8 00
	00 00		 sub	 rsp, 200		; 000000c8H
  0000e	48 8b ec	 mov	 rbp, rsp
  00011	48 8b fc	 mov	 rdi, rsp
  00014	b9 32 00 00 00	 mov	 ecx, 50			; 00000032H
  00019	b8 cc cc cc cc	 mov	 eax, -858993460		; ccccccccH
  0001e	f3 ab		 rep stosd
  00020	48 8b 8c 24 e8
	00 00 00	 mov	 rcx, QWORD PTR [rsp+232]
  00028	48 8b 85 e0 00
	00 00		 mov	 rax, QWORD PTR this$[rbp]
  0002f	48 8d a5 c8 00
	00 00		 lea	 rsp, QWORD PTR [rbp+200]
  00036	5f		 pop	 rdi
  00037	5d		 pop	 rbp
  00038	c3		 ret	 0
??0XMMATRIX@DirectX@@QEAA@XZ ENDP			; DirectX::XMMATRIX::XMMATRIX
_TEXT	ENDS
; Function compile flags: /Odtp /RTCsu /ZI
; File c:\program files (x86)\windows kits\8.1\include\um\directxmathvector.inl
;	COMDAT ??GDirectX@@YQ?AT__m128@@T1@@Z
_TEXT	SEGMENT
V$ = 16
$T1 = 256
??GDirectX@@YQ?AT__m128@@T1@@Z PROC			; DirectX::operator-, COMDAT

; 13866: {

$LN3:
  00000	40 55		 push	 rbp
  00002	57		 push	 rdi
  00003	48 81 ec 58 01
	00 00		 sub	 rsp, 344		; 00000158H
  0000a	48 8d 6c 24 30	 lea	 rbp, QWORD PTR [rsp+48]
  0000f	48 8b fc	 mov	 rdi, rsp
  00012	b9 56 00 00 00	 mov	 ecx, 86			; 00000056H
  00017	b8 cc cc cc cc	 mov	 eax, -858993460		; ccccccccH
  0001c	f3 ab		 rep stosd
  0001e	48 8d 45 10	 lea	 rax, QWORD PTR V$[rbp]
  00022	48 89 84 24 70
	01 00 00	 mov	 QWORD PTR [rsp+368], rax
  0002a	0f 29 45 10	 movaps	 XMMWORD PTR V$[rbp], xmm0

; 13867:     return XMVectorNegate(V);

  0002e	0f 28 45 10	 movaps	 xmm0, XMMWORD PTR V$[rbp]
  00032	e8 00 00 00 00	 call	 ?XMVectorNegate@DirectX@@YQ?AT__m128@@T2@@Z ; DirectX::XMVectorNegate
  00037	0f 29 85 00 01
	00 00		 movaps	 XMMWORD PTR $T1[rbp], xmm0
  0003e	0f 28 85 00 01
	00 00		 movaps	 xmm0, XMMWORD PTR $T1[rbp]

; 13868: }

  00045	48 8d a5 28 01
	00 00		 lea	 rsp, QWORD PTR [rbp+296]
  0004c	5f		 pop	 rdi
  0004d	5d		 pop	 rbp
  0004e	c3		 ret	 0
??GDirectX@@YQ?AT__m128@@T1@@Z ENDP			; DirectX::operator-
_TEXT	ENDS
; Function compile flags: /Odtp /RTCsu /ZI
; File c:\program files (x86)\windows kits\8.1\include\um\directxmath.h
;	COMDAT ??BXMVECTORU32@DirectX@@QEBA?AT__m128@@XZ
_TEXT	SEGMENT
this$ = 224
__$ReturnUdt$ = 232
??BXMVECTORU32@DirectX@@QEBA?AT__m128@@XZ PROC		; DirectX::XMVECTORU32::operator __m128, COMDAT

; 346  :     inline operator XMVECTOR() const { return v; }

$LN3:
  00000	48 89 54 24 10	 mov	 QWORD PTR [rsp+16], rdx
  00005	48 89 4c 24 08	 mov	 QWORD PTR [rsp+8], rcx
  0000a	55		 push	 rbp
  0000b	57		 push	 rdi
  0000c	48 81 ec c8 00
	00 00		 sub	 rsp, 200		; 000000c8H
  00013	48 8b ec	 mov	 rbp, rsp
  00016	48 8b fc	 mov	 rdi, rsp
  00019	b9 32 00 00 00	 mov	 ecx, 50			; 00000032H
  0001e	b8 cc cc cc cc	 mov	 eax, -858993460		; ccccccccH
  00023	f3 ab		 rep stosd
  00025	48 8b 8c 24 e8
	00 00 00	 mov	 rcx, QWORD PTR [rsp+232]
  0002d	48 8b 85 e8 00
	00 00		 mov	 rax, QWORD PTR __$ReturnUdt$[rbp]
  00034	48 8b 8d e0 00
	00 00		 mov	 rcx, QWORD PTR this$[rbp]
  0003b	0f 10 01	 movups	 xmm0, XMMWORD PTR [rcx]
  0003e	0f 11 00	 movups	 XMMWORD PTR [rax], xmm0
  00041	48 8b 85 e8 00
	00 00		 mov	 rax, QWORD PTR __$ReturnUdt$[rbp]
  00048	48 8d a5 c8 00
	00 00		 lea	 rsp, QWORD PTR [rbp+200]
  0004f	5f		 pop	 rdi
  00050	5d		 pop	 rbp
  00051	c3		 ret	 0
??BXMVECTORU32@DirectX@@QEBA?AT__m128@@XZ ENDP		; DirectX::XMVECTORU32::operator __m128
_TEXT	ENDS
; Function compile flags: /Odtp /RTCsu /ZI
; File c:\program files (x86)\windows kits\8.1\include\um\directxmath.h
;	COMDAT ??BXMVECTORI32@DirectX@@QEBA?AT__m128@@XZ
_TEXT	SEGMENT
this$ = 224
__$ReturnUdt$ = 232
??BXMVECTORI32@DirectX@@QEBA?AT__m128@@XZ PROC		; DirectX::XMVECTORI32::operator __m128, COMDAT

; 316  :     inline operator XMVECTOR() const { return v; }

$LN3:
  00000	48 89 54 24 10	 mov	 QWORD PTR [rsp+16], rdx
  00005	48 89 4c 24 08	 mov	 QWORD PTR [rsp+8], rcx
  0000a	55		 push	 rbp
  0000b	57		 push	 rdi
  0000c	48 81 ec c8 00
	00 00		 sub	 rsp, 200		; 000000c8H
  00013	48 8b ec	 mov	 rbp, rsp
  00016	48 8b fc	 mov	 rdi, rsp
  00019	b9 32 00 00 00	 mov	 ecx, 50			; 00000032H
  0001e	b8 cc cc cc cc	 mov	 eax, -858993460		; ccccccccH
  00023	f3 ab		 rep stosd
  00025	48 8b 8c 24 e8
	00 00 00	 mov	 rcx, QWORD PTR [rsp+232]
  0002d	48 8b 85 e8 00
	00 00		 mov	 rax, QWORD PTR __$ReturnUdt$[rbp]
  00034	48 8b 8d e0 00
	00 00		 mov	 rcx, QWORD PTR this$[rbp]
  0003b	0f 10 01	 movups	 xmm0, XMMWORD PTR [rcx]
  0003e	0f 11 00	 movups	 XMMWORD PTR [rax], xmm0
  00041	48 8b 85 e8 00
	00 00		 mov	 rax, QWORD PTR __$ReturnUdt$[rbp]
  00048	48 8d a5 c8 00
	00 00		 lea	 rsp, QWORD PTR [rbp+200]
  0004f	5f		 pop	 rdi
  00050	5d		 pop	 rbp
  00051	c3		 ret	 0
??BXMVECTORI32@DirectX@@QEBA?AT__m128@@XZ ENDP		; DirectX::XMVECTORI32::operator __m128
_TEXT	ENDS
; Function compile flags: /Odtp /RTCsu /ZI
; File c:\program files (x86)\windows kits\8.1\include\um\directxmath.h
;	COMDAT ?XMConvertToRadians@DirectX@@YAMM@Z
_TEXT	SEGMENT
fDegrees$ = 224
?XMConvertToRadians@DirectX@@YAMM@Z PROC		; DirectX::XMConvertToRadians, COMDAT

; 208  : inline float XMConvertToRadians(float fDegrees) { return fDegrees * (XM_PI / 180.0f); }

$LN3:
  00000	f3 0f 11 44 24
	08		 movss	 DWORD PTR [rsp+8], xmm0
  00006	55		 push	 rbp
  00007	57		 push	 rdi
  00008	48 81 ec d8 00
	00 00		 sub	 rsp, 216		; 000000d8H
  0000f	48 8d 6c 24 10	 lea	 rbp, QWORD PTR [rsp+16]
  00014	48 8b fc	 mov	 rdi, rsp
  00017	b9 36 00 00 00	 mov	 ecx, 54			; 00000036H
  0001c	b8 cc cc cc cc	 mov	 eax, -858993460		; ccccccccH
  00021	f3 ab		 rep stosd
  00023	f3 0f 10 85 e0
	00 00 00	 movss	 xmm0, DWORD PTR fDegrees$[rbp]
  0002b	f3 0f 59 05 00
	00 00 00	 mulss	 xmm0, DWORD PTR __real@3c8efa35
  00033	48 8d a5 c8 00
	00 00		 lea	 rsp, QWORD PTR [rbp+200]
  0003a	5f		 pop	 rdi
  0003b	5d		 pop	 rbp
  0003c	c3		 ret	 0
?XMConvertToRadians@DirectX@@YAMM@Z ENDP		; DirectX::XMConvertToRadians
_TEXT	ENDS
; Function compile flags: /Odtp /RTCsu /ZI
; File c:\program files (x86)\microsoft visual studio 14.0\vc\include\xstring
;	COMDAT ?_Xran@?$basic_string@_WU?$char_traits@_W@std@@V?$allocator@_W@2@@std@@QEBAXXZ
_TEXT	SEGMENT
this$ = 224
?_Xran@?$basic_string@_WU?$char_traits@_W@std@@V?$allocator@_W@2@@std@@QEBAXXZ PROC ; std::basic_string<wchar_t,std::char_traits<wchar_t>,std::allocator<wchar_t> >::_Xran, COMDAT

; 2282 : 		{	// report an out_of_range error

$LN3:
  00000	48 89 4c 24 08	 mov	 QWORD PTR [rsp+8], rcx
  00005	55		 push	 rbp
  00006	57		 push	 rdi
  00007	48 81 ec e8 00
	00 00		 sub	 rsp, 232		; 000000e8H
  0000e	48 8d 6c 24 20	 lea	 rbp, QWORD PTR [rsp+32]
  00013	48 8b fc	 mov	 rdi, rsp
  00016	b9 3a 00 00 00	 mov	 ecx, 58			; 0000003aH
  0001b	b8 cc cc cc cc	 mov	 eax, -858993460		; ccccccccH
  00020	f3 ab		 rep stosd
  00022	48 8b 8c 24 08
	01 00 00	 mov	 rcx, QWORD PTR [rsp+264]

; 2283 : 		_Xout_of_range("invalid string position");

  0002a	48 8d 0d 00 00
	00 00		 lea	 rcx, OFFSET FLAT:??_C@_0BI@CFPLBAOH@invalid?5string?5position?$AA@
  00031	ff 15 00 00 00
	00		 call	 QWORD PTR __imp_?_Xout_of_range@std@@YAXPEBD@Z
$LN2@Xran:

; 2284 : 		}

  00037	48 8d a5 c8 00
	00 00		 lea	 rsp, QWORD PTR [rbp+200]
  0003e	5f		 pop	 rdi
  0003f	5d		 pop	 rbp
  00040	c3		 ret	 0
?_Xran@?$basic_string@_WU?$char_traits@_W@std@@V?$allocator@_W@2@@std@@QEBAXXZ ENDP ; std::basic_string<wchar_t,std::char_traits<wchar_t>,std::allocator<wchar_t> >::_Xran
_TEXT	ENDS
; Function compile flags: /Odtp /RTCsu /ZI
; File c:\program files (x86)\microsoft visual studio 14.0\vc\include\xstring
;	COMDAT ?_Check_offset@?$basic_string@_WU?$char_traits@_W@std@@V?$allocator@_W@2@@std@@QEBAX_K@Z
_TEXT	SEGMENT
this$ = 224
_Off$ = 232
?_Check_offset@?$basic_string@_WU?$char_traits@_W@std@@V?$allocator@_W@2@@std@@QEBAX_K@Z PROC ; std::basic_string<wchar_t,std::char_traits<wchar_t>,std::allocator<wchar_t> >::_Check_offset, COMDAT

; 2270 : 		{	// checks whether _Off is in the bounds of [0, this->size()]

$LN4:
  00000	48 89 54 24 10	 mov	 QWORD PTR [rsp+16], rdx
  00005	48 89 4c 24 08	 mov	 QWORD PTR [rsp+8], rcx
  0000a	55		 push	 rbp
  0000b	57		 push	 rdi
  0000c	48 81 ec e8 00
	00 00		 sub	 rsp, 232		; 000000e8H
  00013	48 8d 6c 24 20	 lea	 rbp, QWORD PTR [rsp+32]
  00018	48 8b fc	 mov	 rdi, rsp
  0001b	b9 3a 00 00 00	 mov	 ecx, 58			; 0000003aH
  00020	b8 cc cc cc cc	 mov	 eax, -858993460		; ccccccccH
  00025	f3 ab		 rep stosd
  00027	48 8b 8c 24 08
	01 00 00	 mov	 rcx, QWORD PTR [rsp+264]

; 2271 : 		if (this->_Mysize() < _Off)

  0002f	48 8b 8d e0 00
	00 00		 mov	 rcx, QWORD PTR this$[rbp]
  00036	e8 00 00 00 00	 call	 ?_Mysize@?$_String_alloc@U?$_String_base_types@_WV?$allocator@_W@std@@@std@@@std@@QEBAAEB_KXZ ; std::_String_alloc<std::_String_base_types<wchar_t,std::allocator<wchar_t> > >::_Mysize
  0003b	48 8b 8d e8 00
	00 00		 mov	 rcx, QWORD PTR _Off$[rbp]
  00042	48 39 08	 cmp	 QWORD PTR [rax], rcx
  00045	73 0c		 jae	 SHORT $LN2@Check_offs

; 2272 : 			_Xran();

  00047	48 8b 8d e0 00
	00 00		 mov	 rcx, QWORD PTR this$[rbp]
  0004e	e8 00 00 00 00	 call	 ?_Xran@?$basic_string@_WU?$char_traits@_W@std@@V?$allocator@_W@2@@std@@QEBAXXZ ; std::basic_string<wchar_t,std::char_traits<wchar_t>,std::allocator<wchar_t> >::_Xran
$LN2@Check_offs:
$LN3@Check_offs:

; 2273 : 		}

  00053	48 8d a5 c8 00
	00 00		 lea	 rsp, QWORD PTR [rbp+200]
  0005a	5f		 pop	 rdi
  0005b	5d		 pop	 rbp
  0005c	c3		 ret	 0
?_Check_offset@?$basic_string@_WU?$char_traits@_W@std@@V?$allocator@_W@2@@std@@QEBAX_K@Z ENDP ; std::basic_string<wchar_t,std::char_traits<wchar_t>,std::allocator<wchar_t> >::_Check_offset
_TEXT	ENDS
; Function compile flags: /Odtp /RTCsu /ZI
; File c:\program files (x86)\microsoft visual studio 14.0\vc\include\xstring
;	COMDAT ?_Xlen@?$basic_string@_WU?$char_traits@_W@std@@V?$allocator@_W@2@@std@@QEBAXXZ
_TEXT	SEGMENT
this$ = 224
?_Xlen@?$basic_string@_WU?$char_traits@_W@std@@V?$allocator@_W@2@@std@@QEBAXXZ PROC ; std::basic_string<wchar_t,std::char_traits<wchar_t>,std::allocator<wchar_t> >::_Xlen, COMDAT

; 2265 : 		{	// report a length_error

$LN3:
  00000	48 89 4c 24 08	 mov	 QWORD PTR [rsp+8], rcx
  00005	55		 push	 rbp
  00006	57		 push	 rdi
  00007	48 81 ec e8 00
	00 00		 sub	 rsp, 232		; 000000e8H
  0000e	48 8d 6c 24 20	 lea	 rbp, QWORD PTR [rsp+32]
  00013	48 8b fc	 mov	 rdi, rsp
  00016	b9 3a 00 00 00	 mov	 ecx, 58			; 0000003aH
  0001b	b8 cc cc cc cc	 mov	 eax, -858993460		; ccccccccH
  00020	f3 ab		 rep stosd
  00022	48 8b 8c 24 08
	01 00 00	 mov	 rcx, QWORD PTR [rsp+264]

; 2266 : 		_Xlength_error("string too long");

  0002a	48 8d 0d 00 00
	00 00		 lea	 rcx, OFFSET FLAT:??_C@_0BA@JFNIOLAK@string?5too?5long?$AA@
  00031	ff 15 00 00 00
	00		 call	 QWORD PTR __imp_?_Xlength_error@std@@YAXPEBD@Z
$LN2@Xlen:

; 2267 : 		}

  00037	48 8d a5 c8 00
	00 00		 lea	 rsp, QWORD PTR [rbp+200]
  0003e	5f		 pop	 rdi
  0003f	5d		 pop	 rbp
  00040	c3		 ret	 0
?_Xlen@?$basic_string@_WU?$char_traits@_W@std@@V?$allocator@_W@2@@std@@QEBAXXZ ENDP ; std::basic_string<wchar_t,std::char_traits<wchar_t>,std::allocator<wchar_t> >::_Xlen
_TEXT	ENDS
; Function compile flags: /Odtp /RTCsu /ZI
; File c:\program files (x86)\microsoft visual studio 14.0\vc\include\xstring
;	COMDAT ?_Tidy@?$basic_string@_WU?$char_traits@_W@std@@V?$allocator@_W@2@@std@@QEAAX_N_K@Z
_TEXT	SEGMENT
_Ptr$1 = 8
tv155 = 216
tv132 = 216
tv87 = 216
this$ = 256
_Built$ = 264
_Newsize$ = 272
?_Tidy@?$basic_string@_WU?$char_traits@_W@std@@V?$allocator@_W@2@@std@@QEAAX_N_K@Z PROC ; std::basic_string<wchar_t,std::char_traits<wchar_t>,std::allocator<wchar_t> >::_Tidy, COMDAT

; 2248 : 		{	// initialize buffer, deallocating any storage

$LN7:
  00000	4c 89 44 24 18	 mov	 QWORD PTR [rsp+24], r8
  00005	88 54 24 10	 mov	 BYTE PTR [rsp+16], dl
  00009	48 89 4c 24 08	 mov	 QWORD PTR [rsp+8], rcx
  0000e	55		 push	 rbp
  0000f	57		 push	 rdi
  00010	48 81 ec 08 01
	00 00		 sub	 rsp, 264		; 00000108H
  00017	48 8d 6c 24 20	 lea	 rbp, QWORD PTR [rsp+32]
  0001c	48 8b fc	 mov	 rdi, rsp
  0001f	b9 42 00 00 00	 mov	 ecx, 66			; 00000042H
  00024	b8 cc cc cc cc	 mov	 eax, -858993460		; ccccccccH
  00029	f3 ab		 rep stosd
  0002b	48 8b 8c 24 28
	01 00 00	 mov	 rcx, QWORD PTR [rsp+296]

; 2249 : 		if (!_Built)

  00033	0f b6 85 08 01
	00 00		 movzx	 eax, BYTE PTR _Built$[rbp]
  0003a	85 c0		 test	 eax, eax
  0003c	75 05		 jne	 SHORT $LN2@Tidy
  0003e	e9 dc 00 00 00	 jmp	 $LN3@Tidy
$LN2@Tidy:

; 2250 : 			;
; 2251 : 		else if (this->_BUF_SIZE <= this->_Myres())

  00043	48 8b 8d 00 01
	00 00		 mov	 rcx, QWORD PTR this$[rbp]
  0004a	e8 00 00 00 00	 call	 ?_Myres@?$_String_alloc@U?$_String_base_types@_WV?$allocator@_W@std@@@std@@@std@@QEAAAEA_KXZ ; std::_String_alloc<std::_String_base_types<wchar_t,std::allocator<wchar_t> > >::_Myres
  0004f	48 83 38 08	 cmp	 QWORD PTR [rax], 8
  00053	0f 82 c6 00 00
	00		 jb	 $LN4@Tidy

; 2252 : 			{	// copy any leftovers to small buffer and deallocate
; 2253 : 			pointer _Ptr = this->_Bx()._Ptr;

  00059	48 8b 8d 00 01
	00 00		 mov	 rcx, QWORD PTR this$[rbp]
  00060	e8 00 00 00 00	 call	 ?_Bx@?$_String_alloc@U?$_String_base_types@_WV?$allocator@_W@std@@@std@@@std@@QEAAAEAT_Bxty@?$_String_val@U?$_Simple_types@_W@std@@@2@XZ ; std::_String_alloc<std::_String_base_types<wchar_t,std::allocator<wchar_t> > >::_Bx
  00065	48 8b 00	 mov	 rax, QWORD PTR [rax]
  00068	48 89 45 08	 mov	 QWORD PTR _Ptr$1[rbp], rax

; 2254 : 			this->_Getal().destroy(_STD addressof(this->_Bx()._Ptr));

  0006c	48 8b 8d 00 01
	00 00		 mov	 rcx, QWORD PTR this$[rbp]
  00073	e8 00 00 00 00	 call	 ?_Bx@?$_String_alloc@U?$_String_base_types@_WV?$allocator@_W@std@@@std@@@std@@QEAAAEAT_Bxty@?$_String_val@U?$_Simple_types@_W@std@@@2@XZ ; std::_String_alloc<std::_String_base_types<wchar_t,std::allocator<wchar_t> > >::_Bx
  00078	48 8b c8	 mov	 rcx, rax
  0007b	e8 00 00 00 00	 call	 ??$addressof@PEA_W@std@@YAPEAPEA_WAEAPEA_W@Z ; std::addressof<wchar_t * __ptr64>
  00080	48 89 85 d8 00
	00 00		 mov	 QWORD PTR tv87[rbp], rax
  00087	48 8b 8d 00 01
	00 00		 mov	 rcx, QWORD PTR this$[rbp]
  0008e	e8 00 00 00 00	 call	 ?_Getal@?$_String_alloc@U?$_String_base_types@_WV?$allocator@_W@std@@@std@@@std@@QEAAAEAU?$_Wrap_alloc@V?$allocator@_W@std@@@2@XZ ; std::_String_alloc<std::_String_base_types<wchar_t,std::allocator<wchar_t> > >::_Getal
  00093	48 8b 8d d8 00
	00 00		 mov	 rcx, QWORD PTR tv87[rbp]
  0009a	48 8b d1	 mov	 rdx, rcx
  0009d	48 8b c8	 mov	 rcx, rax
  000a0	e8 00 00 00 00	 call	 ??$destroy@PEA_W@?$_Wrap_alloc@V?$allocator@_W@std@@@std@@QEAAXPEAPEA_W@Z ; std::_Wrap_alloc<std::allocator<wchar_t> >::destroy<wchar_t * __ptr64>

; 2255 : 			if (0 < _Newsize)

  000a5	48 83 bd 10 01
	00 00 00	 cmp	 QWORD PTR _Newsize$[rbp], 0
  000ad	76 35		 jbe	 SHORT $LN5@Tidy

; 2256 : 				_Traits::copy(this->_Bx()._Buf,

  000af	48 8b 4d 08	 mov	 rcx, QWORD PTR _Ptr$1[rbp]
  000b3	e8 00 00 00 00	 call	 ??$_Unfancy@_W@std@@YAPEA_WPEA_W@Z ; std::_Unfancy<wchar_t>
  000b8	48 89 85 d8 00
	00 00		 mov	 QWORD PTR tv132[rbp], rax
  000bf	48 8b 8d 00 01
	00 00		 mov	 rcx, QWORD PTR this$[rbp]
  000c6	e8 00 00 00 00	 call	 ?_Bx@?$_String_alloc@U?$_String_base_types@_WV?$allocator@_W@std@@@std@@@std@@QEAAAEAT_Bxty@?$_String_val@U?$_Simple_types@_W@std@@@2@XZ ; std::_String_alloc<std::_String_base_types<wchar_t,std::allocator<wchar_t> > >::_Bx
  000cb	4c 8b 85 10 01
	00 00		 mov	 r8, QWORD PTR _Newsize$[rbp]
  000d2	48 8b 8d d8 00
	00 00		 mov	 rcx, QWORD PTR tv132[rbp]
  000d9	48 8b d1	 mov	 rdx, rcx
  000dc	48 8b c8	 mov	 rcx, rax
  000df	e8 00 00 00 00	 call	 ?copy@?$char_traits@_W@std@@SAPEA_WPEA_WPEB_W_K@Z ; std::char_traits<wchar_t>::copy
$LN5@Tidy:

; 2257 : 					_Unfancy(_Ptr), _Newsize);
; 2258 : 			this->_Getal().deallocate(_Ptr, this->_Myres() + 1);

  000e4	48 8b 8d 00 01
	00 00		 mov	 rcx, QWORD PTR this$[rbp]
  000eb	e8 00 00 00 00	 call	 ?_Myres@?$_String_alloc@U?$_String_base_types@_WV?$allocator@_W@std@@@std@@@std@@QEAAAEA_KXZ ; std::_String_alloc<std::_String_base_types<wchar_t,std::allocator<wchar_t> > >::_Myres
  000f0	48 8b 00	 mov	 rax, QWORD PTR [rax]
  000f3	48 ff c0	 inc	 rax
  000f6	48 89 85 d8 00
	00 00		 mov	 QWORD PTR tv155[rbp], rax
  000fd	48 8b 8d 00 01
	00 00		 mov	 rcx, QWORD PTR this$[rbp]
  00104	e8 00 00 00 00	 call	 ?_Getal@?$_String_alloc@U?$_String_base_types@_WV?$allocator@_W@std@@@std@@@std@@QEAAAEAU?$_Wrap_alloc@V?$allocator@_W@std@@@2@XZ ; std::_String_alloc<std::_String_base_types<wchar_t,std::allocator<wchar_t> > >::_Getal
  00109	48 8b 8d d8 00
	00 00		 mov	 rcx, QWORD PTR tv155[rbp]
  00110	4c 8b c1	 mov	 r8, rcx
  00113	48 8b 55 08	 mov	 rdx, QWORD PTR _Ptr$1[rbp]
  00117	48 8b c8	 mov	 rcx, rax
  0011a	e8 00 00 00 00	 call	 ?deallocate@?$_Wrap_alloc@V?$allocator@_W@std@@@std@@QEAAXPEA_W_K@Z ; std::_Wrap_alloc<std::allocator<wchar_t> >::deallocate
$LN4@Tidy:
$LN3@Tidy:

; 2259 : 			}
; 2260 : 		this->_Myres() = this->_BUF_SIZE - 1;

  0011f	48 8b 8d 00 01
	00 00		 mov	 rcx, QWORD PTR this$[rbp]
  00126	e8 00 00 00 00	 call	 ?_Myres@?$_String_alloc@U?$_String_base_types@_WV?$allocator@_W@std@@@std@@@std@@QEAAAEA_KXZ ; std::_String_alloc<std::_String_base_types<wchar_t,std::allocator<wchar_t> > >::_Myres
  0012b	48 c7 00 07 00
	00 00		 mov	 QWORD PTR [rax], 7

; 2261 : 		_Eos(_Newsize);

  00132	48 8b 95 10 01
	00 00		 mov	 rdx, QWORD PTR _Newsize$[rbp]
  00139	48 8b 8d 00 01
	00 00		 mov	 rcx, QWORD PTR this$[rbp]
  00140	e8 00 00 00 00	 call	 ?_Eos@?$basic_string@_WU?$char_traits@_W@std@@V?$allocator@_W@2@@std@@QEAAX_K@Z ; std::basic_string<wchar_t,std::char_traits<wchar_t>,std::allocator<wchar_t> >::_Eos

; 2262 : 		}

  00145	48 8d a5 e8 00
	00 00		 lea	 rsp, QWORD PTR [rbp+232]
  0014c	5f		 pop	 rdi
  0014d	5d		 pop	 rbp
  0014e	c3		 ret	 0
?_Tidy@?$basic_string@_WU?$char_traits@_W@std@@V?$allocator@_W@2@@std@@QEAAX_N_K@Z ENDP ; std::basic_string<wchar_t,std::char_traits<wchar_t>,std::allocator<wchar_t> >::_Tidy
_TEXT	ENDS
; Function compile flags: /Odtp /RTCsu /ZI
; File c:\program files (x86)\microsoft visual studio 14.0\vc\include\xstring
;	COMDAT ?_Inside@?$basic_string@_WU?$char_traits@_W@std@@V?$allocator@_W@2@@std@@QEAA_NPEB_W@Z
_TEXT	SEGMENT
tv77 = 192
this$ = 240
_Ptr$ = 248
?_Inside@?$basic_string@_WU?$char_traits@_W@std@@V?$allocator@_W@2@@std@@QEAA_NPEB_W@Z PROC ; std::basic_string<wchar_t,std::char_traits<wchar_t>,std::allocator<wchar_t> >::_Inside, COMDAT

; 2238 : 		{	// test if _Ptr points inside string

$LN6:
  00000	48 89 54 24 10	 mov	 QWORD PTR [rsp+16], rdx
  00005	48 89 4c 24 08	 mov	 QWORD PTR [rsp+8], rcx
  0000a	55		 push	 rbp
  0000b	57		 push	 rdi
  0000c	48 81 ec f8 00
	00 00		 sub	 rsp, 248		; 000000f8H
  00013	48 8d 6c 24 20	 lea	 rbp, QWORD PTR [rsp+32]
  00018	48 8b fc	 mov	 rdi, rsp
  0001b	b9 3e 00 00 00	 mov	 ecx, 62			; 0000003eH
  00020	b8 cc cc cc cc	 mov	 eax, -858993460		; ccccccccH
  00025	f3 ab		 rep stosd
  00027	48 8b 8c 24 18
	01 00 00	 mov	 rcx, QWORD PTR [rsp+280]

; 2239 : 		if (_Ptr == nullptr_t{} || _Ptr < this->_Myptr()
; 2240 : 			|| this->_Myptr() + this->_Mysize() <= _Ptr)

  0002f	48 83 bd f8 00
	00 00 00	 cmp	 QWORD PTR _Ptr$[rbp], 0
  00037	74 4b		 je	 SHORT $LN4@Inside
  00039	48 8b 8d f0 00
	00 00		 mov	 rcx, QWORD PTR this$[rbp]
  00040	e8 00 00 00 00	 call	 ?_Myptr@?$_String_alloc@U?$_String_base_types@_WV?$allocator@_W@std@@@std@@@std@@QEAAPEA_WXZ ; std::_String_alloc<std::_String_base_types<wchar_t,std::allocator<wchar_t> > >::_Myptr
  00045	48 39 85 f8 00
	00 00		 cmp	 QWORD PTR _Ptr$[rbp], rax
  0004c	72 36		 jb	 SHORT $LN4@Inside
  0004e	48 8b 8d f0 00
	00 00		 mov	 rcx, QWORD PTR this$[rbp]
  00055	e8 00 00 00 00	 call	 ?_Myptr@?$_String_alloc@U?$_String_base_types@_WV?$allocator@_W@std@@@std@@@std@@QEAAPEA_WXZ ; std::_String_alloc<std::_String_base_types<wchar_t,std::allocator<wchar_t> > >::_Myptr
  0005a	48 89 85 c0 00
	00 00		 mov	 QWORD PTR tv77[rbp], rax
  00061	48 8b 8d f0 00
	00 00		 mov	 rcx, QWORD PTR this$[rbp]
  00068	e8 00 00 00 00	 call	 ?_Mysize@?$_String_alloc@U?$_String_base_types@_WV?$allocator@_W@std@@@std@@@std@@QEAAAEA_KXZ ; std::_String_alloc<std::_String_base_types<wchar_t,std::allocator<wchar_t> > >::_Mysize
  0006d	48 8b 00	 mov	 rax, QWORD PTR [rax]
  00070	48 8b 8d c0 00
	00 00		 mov	 rcx, QWORD PTR tv77[rbp]
  00077	48 8d 04 41	 lea	 rax, QWORD PTR [rcx+rax*2]
  0007b	48 3b 85 f8 00
	00 00		 cmp	 rax, QWORD PTR _Ptr$[rbp]
  00082	77 06		 ja	 SHORT $LN2@Inside
$LN4@Inside:

; 2241 : 			return (false);	// don't ask

  00084	32 c0		 xor	 al, al
  00086	eb 04		 jmp	 SHORT $LN1@Inside

; 2242 : 		else

  00088	eb 02		 jmp	 SHORT $LN3@Inside
$LN2@Inside:

; 2243 : 			return (true);

  0008a	b0 01		 mov	 al, 1
$LN3@Inside:
$LN1@Inside:

; 2244 : 		}

  0008c	48 8d a5 d8 00
	00 00		 lea	 rsp, QWORD PTR [rbp+216]
  00093	5f		 pop	 rdi
  00094	5d		 pop	 rbp
  00095	c3		 ret	 0
?_Inside@?$basic_string@_WU?$char_traits@_W@std@@V?$allocator@_W@2@@std@@QEAA_NPEB_W@Z ENDP ; std::basic_string<wchar_t,std::char_traits<wchar_t>,std::allocator<wchar_t> >::_Inside
_TEXT	ENDS
; Function compile flags: /Odtp /RTCsu /ZI
; File c:\program files (x86)\microsoft visual studio 14.0\vc\include\xstring
;	COMDAT ?_Grow@?$basic_string@_WU?$char_traits@_W@std@@V?$allocator@_W@2@@std@@QEAA_N_K_N@Z
_TEXT	SEGMENT
tv140 = 192
tv133 = 192
this$ = 240
_Newsize$ = 248
_Trim$ = 256
?_Grow@?$basic_string@_WU?$char_traits@_W@std@@V?$allocator@_W@2@@std@@QEAA_N_K_N@Z PROC ; std::basic_string<wchar_t,std::char_traits<wchar_t>,std::allocator<wchar_t> >::_Grow, COMDAT

; 2224 : 		{	// ensure buffer is big enough, trim to size if _Trim is true

$LN13:
  00000	44 88 44 24 18	 mov	 BYTE PTR [rsp+24], r8b
  00005	48 89 54 24 10	 mov	 QWORD PTR [rsp+16], rdx
  0000a	48 89 4c 24 08	 mov	 QWORD PTR [rsp+8], rcx
  0000f	55		 push	 rbp
  00010	57		 push	 rdi
  00011	48 81 ec f8 00
	00 00		 sub	 rsp, 248		; 000000f8H
  00018	48 8d 6c 24 20	 lea	 rbp, QWORD PTR [rsp+32]
  0001d	48 8b fc	 mov	 rdi, rsp
  00020	b9 3e 00 00 00	 mov	 ecx, 62			; 0000003eH
  00025	b8 cc cc cc cc	 mov	 eax, -858993460		; ccccccccH
  0002a	f3 ab		 rep stosd
  0002c	48 8b 8c 24 18
	01 00 00	 mov	 rcx, QWORD PTR [rsp+280]

; 2225 : 		if (max_size() < _Newsize)

  00034	48 8b 8d f0 00
	00 00		 mov	 rcx, QWORD PTR this$[rbp]
  0003b	e8 00 00 00 00	 call	 ?max_size@?$basic_string@_WU?$char_traits@_W@std@@V?$allocator@_W@2@@std@@QEBA_KXZ ; std::basic_string<wchar_t,std::char_traits<wchar_t>,std::allocator<wchar_t> >::max_size
  00040	48 3b 85 f8 00
	00 00		 cmp	 rax, QWORD PTR _Newsize$[rbp]
  00047	73 0c		 jae	 SHORT $LN2@Grow

; 2226 : 			_Xlen();	// result too long

  00049	48 8b 8d f0 00
	00 00		 mov	 rcx, QWORD PTR this$[rbp]
  00050	e8 00 00 00 00	 call	 ?_Xlen@?$basic_string@_WU?$char_traits@_W@std@@V?$allocator@_W@2@@std@@QEBAXXZ ; std::basic_string<wchar_t,std::char_traits<wchar_t>,std::allocator<wchar_t> >::_Xlen
$LN2@Grow:

; 2227 : 		if (this->_Myres() < _Newsize)

  00055	48 8b 8d f0 00
	00 00		 mov	 rcx, QWORD PTR this$[rbp]
  0005c	e8 00 00 00 00	 call	 ?_Myres@?$_String_alloc@U?$_String_base_types@_WV?$allocator@_W@std@@@std@@@std@@QEAAAEA_KXZ ; std::_String_alloc<std::_String_base_types<wchar_t,std::allocator<wchar_t> > >::_Myres
  00061	48 8b 8d f8 00
	00 00		 mov	 rcx, QWORD PTR _Newsize$[rbp]
  00068	48 39 08	 cmp	 QWORD PTR [rax], rcx
  0006b	73 27		 jae	 SHORT $LN3@Grow

; 2228 : 			_Copy(_Newsize, this->_Mysize());	// reallocate to grow

  0006d	48 8b 8d f0 00
	00 00		 mov	 rcx, QWORD PTR this$[rbp]
  00074	e8 00 00 00 00	 call	 ?_Mysize@?$_String_alloc@U?$_String_base_types@_WV?$allocator@_W@std@@@std@@@std@@QEAAAEA_KXZ ; std::_String_alloc<std::_String_base_types<wchar_t,std::allocator<wchar_t> > >::_Mysize
  00079	4c 8b 00	 mov	 r8, QWORD PTR [rax]
  0007c	48 8b 95 f8 00
	00 00		 mov	 rdx, QWORD PTR _Newsize$[rbp]
  00083	48 8b 8d f0 00
	00 00		 mov	 rcx, QWORD PTR this$[rbp]
  0008a	e8 00 00 00 00	 call	 ?_Copy@?$basic_string@_WU?$char_traits@_W@std@@V?$allocator@_W@2@@std@@QEAAX_K0@Z ; std::basic_string<wchar_t,std::char_traits<wchar_t>,std::allocator<wchar_t> >::_Copy
  0008f	e9 82 00 00 00	 jmp	 $LN4@Grow
$LN3@Grow:

; 2229 : 		else if (_Trim && _Newsize < this->_BUF_SIZE)

  00094	0f b6 85 00 01
	00 00		 movzx	 eax, BYTE PTR _Trim$[rbp]
  0009b	85 c0		 test	 eax, eax
  0009d	74 5f		 je	 SHORT $LN5@Grow
  0009f	48 83 bd f8 00
	00 00 08	 cmp	 QWORD PTR _Newsize$[rbp], 8
  000a7	73 55		 jae	 SHORT $LN5@Grow

; 2230 : 			_Tidy(true,	// copy and deallocate if trimming to small string

  000a9	48 8b 8d f0 00
	00 00		 mov	 rcx, QWORD PTR this$[rbp]
  000b0	e8 00 00 00 00	 call	 ?_Mysize@?$_String_alloc@U?$_String_base_types@_WV?$allocator@_W@std@@@std@@@std@@QEAAAEA_KXZ ; std::_String_alloc<std::_String_base_types<wchar_t,std::allocator<wchar_t> > >::_Mysize
  000b5	48 8b 00	 mov	 rax, QWORD PTR [rax]
  000b8	48 39 85 f8 00
	00 00		 cmp	 QWORD PTR _Newsize$[rbp], rax
  000bf	73 10		 jae	 SHORT $LN9@Grow
  000c1	48 8b 85 f8 00
	00 00		 mov	 rax, QWORD PTR _Newsize$[rbp]
  000c8	48 89 85 c0 00
	00 00		 mov	 QWORD PTR tv133[rbp], rax
  000cf	eb 16		 jmp	 SHORT $LN10@Grow
$LN9@Grow:
  000d1	48 8b 8d f0 00
	00 00		 mov	 rcx, QWORD PTR this$[rbp]
  000d8	e8 00 00 00 00	 call	 ?_Mysize@?$_String_alloc@U?$_String_base_types@_WV?$allocator@_W@std@@@std@@@std@@QEAAAEA_KXZ ; std::_String_alloc<std::_String_base_types<wchar_t,std::allocator<wchar_t> > >::_Mysize
  000dd	48 8b 00	 mov	 rax, QWORD PTR [rax]
  000e0	48 89 85 c0 00
	00 00		 mov	 QWORD PTR tv133[rbp], rax
$LN10@Grow:
  000e7	4c 8b 85 c0 00
	00 00		 mov	 r8, QWORD PTR tv133[rbp]
  000ee	b2 01		 mov	 dl, 1
  000f0	48 8b 8d f0 00
	00 00		 mov	 rcx, QWORD PTR this$[rbp]
  000f7	e8 00 00 00 00	 call	 ?_Tidy@?$basic_string@_WU?$char_traits@_W@std@@V?$allocator@_W@2@@std@@QEAAX_N_K@Z ; std::basic_string<wchar_t,std::char_traits<wchar_t>,std::allocator<wchar_t> >::_Tidy
  000fc	eb 18		 jmp	 SHORT $LN6@Grow
$LN5@Grow:

; 2231 : 				_Newsize < this->_Mysize() ? _Newsize : this->_Mysize());
; 2232 : 		else if (_Newsize == 0)

  000fe	48 83 bd f8 00
	00 00 00	 cmp	 QWORD PTR _Newsize$[rbp], 0
  00106	75 0e		 jne	 SHORT $LN7@Grow

; 2233 : 			_Eos(0);	// new size is zero, just null terminate

  00108	33 d2		 xor	 edx, edx
  0010a	48 8b 8d f0 00
	00 00		 mov	 rcx, QWORD PTR this$[rbp]
  00111	e8 00 00 00 00	 call	 ?_Eos@?$basic_string@_WU?$char_traits@_W@std@@V?$allocator@_W@2@@std@@QEAAX_K@Z ; std::basic_string<wchar_t,std::char_traits<wchar_t>,std::allocator<wchar_t> >::_Eos
$LN7@Grow:
$LN6@Grow:
$LN4@Grow:

; 2234 : 		return (0 < _Newsize);	// return true only if more work to do

  00116	48 83 bd f8 00
	00 00 00	 cmp	 QWORD PTR _Newsize$[rbp], 0
  0011e	76 0c		 jbe	 SHORT $LN11@Grow
  00120	c7 85 c0 00 00
	00 01 00 00 00	 mov	 DWORD PTR tv140[rbp], 1
  0012a	eb 0a		 jmp	 SHORT $LN12@Grow
$LN11@Grow:
  0012c	c7 85 c0 00 00
	00 00 00 00 00	 mov	 DWORD PTR tv140[rbp], 0
$LN12@Grow:
  00136	0f b6 85 c0 00
	00 00		 movzx	 eax, BYTE PTR tv140[rbp]
$LN8@Grow:

; 2235 : 		}

  0013d	48 8d a5 d8 00
	00 00		 lea	 rsp, QWORD PTR [rbp+216]
  00144	5f		 pop	 rdi
  00145	5d		 pop	 rbp
  00146	c3		 ret	 0
?_Grow@?$basic_string@_WU?$char_traits@_W@std@@V?$allocator@_W@2@@std@@QEAA_N_K_N@Z ENDP ; std::basic_string<wchar_t,std::char_traits<wchar_t>,std::allocator<wchar_t> >::_Grow
_TEXT	ENDS
; Function compile flags: /Odtp /RTCsu /ZI
; File c:\program files (x86)\microsoft visual studio 14.0\vc\include\xstring
;	COMDAT ?_Eos@?$basic_string@_WU?$char_traits@_W@std@@V?$allocator@_W@2@@std@@QEAAX_K@Z
_TEXT	SEGMENT
_Dx$ = 8
$T1 = 228
this$ = 288
_Newsize$ = 296
?_Eos@?$basic_string@_WU?$char_traits@_W@std@@V?$allocator@_W@2@@std@@QEAAX_K@Z PROC ; std::basic_string<wchar_t,std::char_traits<wchar_t>,std::allocator<wchar_t> >::_Eos, COMDAT

; 2217 : 		{	// set new length and null terminator

$LN3:
  00000	48 89 54 24 10	 mov	 QWORD PTR [rsp+16], rdx
  00005	48 89 4c 24 08	 mov	 QWORD PTR [rsp+8], rcx
  0000a	55		 push	 rbp
  0000b	57		 push	 rdi
  0000c	48 81 ec 28 01
	00 00		 sub	 rsp, 296		; 00000128H
  00013	48 8d 6c 24 20	 lea	 rbp, QWORD PTR [rsp+32]
  00018	48 8b fc	 mov	 rdi, rsp
  0001b	b9 4a 00 00 00	 mov	 ecx, 74			; 0000004aH
  00020	b8 cc cc cc cc	 mov	 eax, -858993460		; ccccccccH
  00025	f3 ab		 rep stosd
  00027	48 8b 8c 24 48
	01 00 00	 mov	 rcx, QWORD PTR [rsp+328]

; 2218 : 		auto& _Dx = this->_Get_data();

  0002f	48 8b 8d 20 01
	00 00		 mov	 rcx, QWORD PTR this$[rbp]
  00036	e8 00 00 00 00	 call	 ?_Get_data@?$_String_alloc@U?$_String_base_types@_WV?$allocator@_W@std@@@std@@@std@@QEAAAEAV?$_String_val@U?$_Simple_types@_W@std@@@2@XZ ; std::_String_alloc<std::_String_base_types<wchar_t,std::allocator<wchar_t> > >::_Get_data
  0003b	48 89 45 08	 mov	 QWORD PTR _Dx$[rbp], rax

; 2219 : 		_Traits::assign(_Dx._Myptr()[_Dx._Mysize = _Newsize], _Elem());

  0003f	33 c0		 xor	 eax, eax
  00041	66 89 85 e4 00
	00 00		 mov	 WORD PTR $T1[rbp], ax
  00048	48 8b 45 08	 mov	 rax, QWORD PTR _Dx$[rbp]
  0004c	48 8b 8d 28 01
	00 00		 mov	 rcx, QWORD PTR _Newsize$[rbp]
  00053	48 89 48 18	 mov	 QWORD PTR [rax+24], rcx
  00057	48 8b 4d 08	 mov	 rcx, QWORD PTR _Dx$[rbp]
  0005b	e8 00 00 00 00	 call	 ?_Myptr@?$_String_val@U?$_Simple_types@_W@std@@@std@@QEAAPEA_WXZ ; std::_String_val<std::_Simple_types<wchar_t> >::_Myptr
  00060	48 8b 8d 28 01
	00 00		 mov	 rcx, QWORD PTR _Newsize$[rbp]
  00067	48 8d 04 48	 lea	 rax, QWORD PTR [rax+rcx*2]
  0006b	48 8d 95 e4 00
	00 00		 lea	 rdx, QWORD PTR $T1[rbp]
  00072	48 8b c8	 mov	 rcx, rax
  00075	e8 00 00 00 00	 call	 ?assign@?$char_traits@_W@std@@SAXAEA_WAEB_W@Z ; std::char_traits<wchar_t>::assign

; 2220 : 		}

  0007a	48 8d a5 08 01
	00 00		 lea	 rsp, QWORD PTR [rbp+264]
  00081	5f		 pop	 rdi
  00082	5d		 pop	 rbp
  00083	c3		 ret	 0
?_Eos@?$basic_string@_WU?$char_traits@_W@std@@V?$allocator@_W@2@@std@@QEAAX_K@Z ENDP ; std::basic_string<wchar_t,std::char_traits<wchar_t>,std::allocator<wchar_t> >::_Eos
_TEXT	ENDS
; Function compile flags: /Odtp /RTCsu /ZI
; File c:\program files (x86)\microsoft visual studio 14.0\vc\include\xstring
;	COMDAT ?_Copy@?$basic_string@_WU?$char_traits@_W@std@@V?$allocator@_W@2@@std@@QEAAX_K0@Z
_TEXT	SEGMENT
_Newres$ = 8
_Ptr$ = 40
$T4 = 264
tv196 = 280
tv181 = 280
tv165 = 280
tv152 = 280
tv138 = 280
tv91 = 280
tv75 = 280
tv217 = 288
tv216 = 288
tv92 = 288
__$ArrayPad$ = 296
this$ = 336
_Newsize$ = 344
_Oldlen$ = 352
?_Copy@?$basic_string@_WU?$char_traits@_W@std@@V?$allocator@_W@2@@std@@QEAAX_K0@Z PROC ; std::basic_string<wchar_t,std::char_traits<wchar_t>,std::allocator<wchar_t> >::_Copy, COMDAT

; 2182 : 		{	// copy _Oldlen elements to newly allocated buffer

$LN23:
  00000	4c 89 44 24 18	 mov	 QWORD PTR [rsp+24], r8
  00005	48 89 54 24 10	 mov	 QWORD PTR [rsp+16], rdx
  0000a	48 89 4c 24 08	 mov	 QWORD PTR [rsp+8], rcx
  0000f	55		 push	 rbp
  00010	57		 push	 rdi
  00011	48 81 ec 58 01
	00 00		 sub	 rsp, 344		; 00000158H
  00018	48 8d 6c 24 20	 lea	 rbp, QWORD PTR [rsp+32]
  0001d	48 8b fc	 mov	 rdi, rsp
  00020	b9 56 00 00 00	 mov	 ecx, 86			; 00000056H
  00025	b8 cc cc cc cc	 mov	 eax, -858993460		; ccccccccH
  0002a	f3 ab		 rep stosd
  0002c	48 8b 8c 24 78
	01 00 00	 mov	 rcx, QWORD PTR [rsp+376]
  00034	48 c7 85 08 01
	00 00 fe ff ff
	ff		 mov	 QWORD PTR $T4[rbp], -2
  0003f	48 8b 05 00 00
	00 00		 mov	 rax, QWORD PTR __security_cookie
  00046	48 33 c5	 xor	 rax, rbp
  00049	48 89 85 28 01
	00 00		 mov	 QWORD PTR __$ArrayPad$[rbp], rax

; 2183 : 		size_type _Newres = _Newsize | this->_ALLOC_MASK;

  00050	48 8b 85 58 01
	00 00		 mov	 rax, QWORD PTR _Newsize$[rbp]
  00057	48 83 c8 07	 or	 rax, 7
  0005b	48 89 45 08	 mov	 QWORD PTR _Newres$[rbp], rax

; 2184 : 		if (max_size() < _Newres)

  0005f	48 8b 8d 50 01
	00 00		 mov	 rcx, QWORD PTR this$[rbp]
  00066	e8 00 00 00 00	 call	 ?max_size@?$basic_string@_WU?$char_traits@_W@std@@V?$allocator@_W@2@@std@@QEBA_KXZ ; std::basic_string<wchar_t,std::char_traits<wchar_t>,std::allocator<wchar_t> >::max_size
  0006b	48 3b 45 08	 cmp	 rax, QWORD PTR _Newres$[rbp]
  0006f	73 10		 jae	 SHORT $LN2@Copy

; 2185 : 			_Newres = _Newsize;	// undo roundup if too big

  00071	48 8b 85 58 01
	00 00		 mov	 rax, QWORD PTR _Newsize$[rbp]
  00078	48 89 45 08	 mov	 QWORD PTR _Newres$[rbp], rax
  0007c	e9 e3 00 00 00	 jmp	 $LN3@Copy
$LN2@Copy:

; 2186 : 		else if (this->_Myres() / 2 <= _Newres / 3)

  00081	33 d2		 xor	 edx, edx
  00083	48 8b 45 08	 mov	 rax, QWORD PTR _Newres$[rbp]
  00087	b9 03 00 00 00	 mov	 ecx, 3
  0008c	48 f7 f1	 div	 rcx
  0008f	48 89 85 18 01
	00 00		 mov	 QWORD PTR tv75[rbp], rax
  00096	48 8b 8d 50 01
	00 00		 mov	 rcx, QWORD PTR this$[rbp]
  0009d	e8 00 00 00 00	 call	 ?_Myres@?$_String_alloc@U?$_String_base_types@_WV?$allocator@_W@std@@@std@@@std@@QEAAAEA_KXZ ; std::_String_alloc<std::_String_base_types<wchar_t,std::allocator<wchar_t> > >::_Myres
  000a2	33 d2		 xor	 edx, edx
  000a4	48 8b 00	 mov	 rax, QWORD PTR [rax]
  000a7	b9 02 00 00 00	 mov	 ecx, 2
  000ac	48 f7 f1	 div	 rcx
  000af	48 8b 8d 18 01
	00 00		 mov	 rcx, QWORD PTR tv75[rbp]
  000b6	48 3b c1	 cmp	 rax, rcx
  000b9	77 05		 ja	 SHORT $LN4@Copy
  000bb	e9 a4 00 00 00	 jmp	 $LN3@Copy
$LN4@Copy:

; 2187 : 			;
; 2188 : 		else if (this->_Myres() <= max_size() - this->_Myres() / 2)

  000c0	48 8b 8d 50 01
	00 00		 mov	 rcx, QWORD PTR this$[rbp]
  000c7	e8 00 00 00 00	 call	 ?_Myres@?$_String_alloc@U?$_String_base_types@_WV?$allocator@_W@std@@@std@@@std@@QEAAAEA_KXZ ; std::_String_alloc<std::_String_base_types<wchar_t,std::allocator<wchar_t> > >::_Myres
  000cc	33 d2		 xor	 edx, edx
  000ce	48 8b 00	 mov	 rax, QWORD PTR [rax]
  000d1	b9 02 00 00 00	 mov	 ecx, 2
  000d6	48 f7 f1	 div	 rcx
  000d9	48 89 85 18 01
	00 00		 mov	 QWORD PTR tv91[rbp], rax
  000e0	48 8b 8d 50 01
	00 00		 mov	 rcx, QWORD PTR this$[rbp]
  000e7	e8 00 00 00 00	 call	 ?max_size@?$basic_string@_WU?$char_traits@_W@std@@V?$allocator@_W@2@@std@@QEBA_KXZ ; std::basic_string<wchar_t,std::char_traits<wchar_t>,std::allocator<wchar_t> >::max_size
  000ec	48 8b 8d 18 01
	00 00		 mov	 rcx, QWORD PTR tv91[rbp]
  000f3	48 2b c1	 sub	 rax, rcx
  000f6	48 89 85 20 01
	00 00		 mov	 QWORD PTR tv92[rbp], rax
  000fd	48 8b 8d 50 01
	00 00		 mov	 rcx, QWORD PTR this$[rbp]
  00104	e8 00 00 00 00	 call	 ?_Myres@?$_String_alloc@U?$_String_base_types@_WV?$allocator@_W@std@@@std@@@std@@QEAAAEA_KXZ ; std::_String_alloc<std::_String_base_types<wchar_t,std::allocator<wchar_t> > >::_Myres
  00109	48 8b 8d 20 01
	00 00		 mov	 rcx, QWORD PTR tv92[rbp]
  00110	48 39 08	 cmp	 QWORD PTR [rax], rcx
  00113	77 3f		 ja	 SHORT $LN6@Copy

; 2189 : 			_Newres = this->_Myres()

  00115	48 8b 8d 50 01
	00 00		 mov	 rcx, QWORD PTR this$[rbp]
  0011c	e8 00 00 00 00	 call	 ?_Myres@?$_String_alloc@U?$_String_base_types@_WV?$allocator@_W@std@@@std@@@std@@QEAAAEA_KXZ ; std::_String_alloc<std::_String_base_types<wchar_t,std::allocator<wchar_t> > >::_Myres
  00121	33 d2		 xor	 edx, edx
  00123	48 8b 00	 mov	 rax, QWORD PTR [rax]
  00126	b9 02 00 00 00	 mov	 ecx, 2
  0012b	48 f7 f1	 div	 rcx
  0012e	48 89 85 18 01
	00 00		 mov	 QWORD PTR tv138[rbp], rax
  00135	48 8b 8d 50 01
	00 00		 mov	 rcx, QWORD PTR this$[rbp]
  0013c	e8 00 00 00 00	 call	 ?_Myres@?$_String_alloc@U?$_String_base_types@_WV?$allocator@_W@std@@@std@@@std@@QEAAAEA_KXZ ; std::_String_alloc<std::_String_base_types<wchar_t,std::allocator<wchar_t> > >::_Myres
  00141	48 8b 8d 18 01
	00 00		 mov	 rcx, QWORD PTR tv138[rbp]
  00148	48 03 08	 add	 rcx, QWORD PTR [rax]
  0014b	48 8b c1	 mov	 rax, rcx
  0014e	48 89 45 08	 mov	 QWORD PTR _Newres$[rbp], rax

; 2190 : 				+ this->_Myres() / 2;	// grow exponentially if possible
; 2191 : 		else

  00152	eb 10		 jmp	 SHORT $LN3@Copy
$LN6@Copy:

; 2192 : 			_Newres = max_size();	// settle for max_size()

  00154	48 8b 8d 50 01
	00 00		 mov	 rcx, QWORD PTR this$[rbp]
  0015b	e8 00 00 00 00	 call	 ?max_size@?$basic_string@_WU?$char_traits@_W@std@@V?$allocator@_W@2@@std@@QEBA_KXZ ; std::basic_string<wchar_t,std::char_traits<wchar_t>,std::allocator<wchar_t> >::max_size
  00160	48 89 45 08	 mov	 QWORD PTR _Newres$[rbp], rax
$LN3@Copy:

; 2193 : 
; 2194 : 		pointer _Ptr;
; 2195 : 		_TRY_BEGIN
; 2196 : 			_Ptr = this->_Getal().allocate(_Newres + 1);

  00164	48 8b 45 08	 mov	 rax, QWORD PTR _Newres$[rbp]
  00168	48 ff c0	 inc	 rax
  0016b	48 89 85 18 01
	00 00		 mov	 QWORD PTR tv152[rbp], rax
  00172	48 8b 8d 50 01
	00 00		 mov	 rcx, QWORD PTR this$[rbp]
  00179	e8 00 00 00 00	 call	 ?_Getal@?$_String_alloc@U?$_String_base_types@_WV?$allocator@_W@std@@@std@@@std@@QEAAAEAU?$_Wrap_alloc@V?$allocator@_W@std@@@2@XZ ; std::_String_alloc<std::_String_base_types<wchar_t,std::allocator<wchar_t> > >::_Getal
  0017e	48 8b 8d 18 01
	00 00		 mov	 rcx, QWORD PTR tv152[rbp]
  00185	48 8b d1	 mov	 rdx, rcx
  00188	48 8b c8	 mov	 rcx, rax
  0018b	e8 00 00 00 00	 call	 ?allocate@?$_Wrap_alloc@V?$allocator@_W@std@@@std@@QEAAPEA_W_K@Z ; std::_Wrap_alloc<std::allocator<wchar_t> >::allocate
  00190	48 89 85 20 01
	00 00		 mov	 QWORD PTR tv216[rbp], rax
  00197	48 8b 85 20 01
	00 00		 mov	 rax, QWORD PTR tv216[rbp]
  0019e	48 89 45 28	 mov	 QWORD PTR _Ptr$[rbp], rax
  001a2	eb 00		 jmp	 SHORT $LN18@Copy
$LN19@Copy:
$LN18@Copy:

; 2197 : 		_CATCH_ALL
; 2198 : 			_Newres = _Newsize;	// allocation failed, undo roundup and retry
; 2199 : 			_TRY_BEGIN
; 2200 : 				_Ptr = this->_Getal().allocate(_Newres + 1);
; 2201 : 			_CATCH_ALL
; 2202 : 			_Tidy(true);	// failed again, discard storage and reraise
; 2203 : 			_RERAISE;
; 2204 : 			_CATCH_END
; 2205 : 		_CATCH_END
; 2206 : 
; 2207 : 		if (0 < _Oldlen)

  001a4	48 83 bd 60 01
	00 00 00	 cmp	 QWORD PTR _Oldlen$[rbp], 0
  001ac	76 35		 jbe	 SHORT $LN10@Copy

; 2208 : 			_Traits::copy(_Unfancy(_Ptr), this->_Myptr(),

  001ae	48 8b 8d 50 01
	00 00		 mov	 rcx, QWORD PTR this$[rbp]
  001b5	e8 00 00 00 00	 call	 ?_Myptr@?$_String_alloc@U?$_String_base_types@_WV?$allocator@_W@std@@@std@@@std@@QEAAPEA_WXZ ; std::_String_alloc<std::_String_base_types<wchar_t,std::allocator<wchar_t> > >::_Myptr
  001ba	48 89 85 18 01
	00 00		 mov	 QWORD PTR tv181[rbp], rax
  001c1	48 8b 4d 28	 mov	 rcx, QWORD PTR _Ptr$[rbp]
  001c5	e8 00 00 00 00	 call	 ??$_Unfancy@_W@std@@YAPEA_WPEA_W@Z ; std::_Unfancy<wchar_t>
  001ca	4c 8b 85 60 01
	00 00		 mov	 r8, QWORD PTR _Oldlen$[rbp]
  001d1	48 8b 8d 18 01
	00 00		 mov	 rcx, QWORD PTR tv181[rbp]
  001d8	48 8b d1	 mov	 rdx, rcx
  001db	48 8b c8	 mov	 rcx, rax
  001de	e8 00 00 00 00	 call	 ?copy@?$char_traits@_W@std@@SAPEA_WPEA_WPEB_W_K@Z ; std::char_traits<wchar_t>::copy
$LN10@Copy:

; 2209 : 				_Oldlen);	// copy existing elements
; 2210 : 		_Tidy(true);

  001e3	45 33 c0	 xor	 r8d, r8d
  001e6	b2 01		 mov	 dl, 1
  001e8	48 8b 8d 50 01
	00 00		 mov	 rcx, QWORD PTR this$[rbp]
  001ef	e8 00 00 00 00	 call	 ?_Tidy@?$basic_string@_WU?$char_traits@_W@std@@V?$allocator@_W@2@@std@@QEAAX_N_K@Z ; std::basic_string<wchar_t,std::char_traits<wchar_t>,std::allocator<wchar_t> >::_Tidy

; 2211 : 		this->_Getal().construct(_STD addressof(this->_Bx()._Ptr), _Ptr);

  001f4	48 8b 8d 50 01
	00 00		 mov	 rcx, QWORD PTR this$[rbp]
  001fb	e8 00 00 00 00	 call	 ?_Bx@?$_String_alloc@U?$_String_base_types@_WV?$allocator@_W@std@@@std@@@std@@QEAAAEAT_Bxty@?$_String_val@U?$_Simple_types@_W@std@@@2@XZ ; std::_String_alloc<std::_String_base_types<wchar_t,std::allocator<wchar_t> > >::_Bx
  00200	48 8b c8	 mov	 rcx, rax
  00203	e8 00 00 00 00	 call	 ??$addressof@PEA_W@std@@YAPEAPEA_WAEAPEA_W@Z ; std::addressof<wchar_t * __ptr64>
  00208	48 89 85 18 01
	00 00		 mov	 QWORD PTR tv196[rbp], rax
  0020f	48 8b 8d 50 01
	00 00		 mov	 rcx, QWORD PTR this$[rbp]
  00216	e8 00 00 00 00	 call	 ?_Getal@?$_String_alloc@U?$_String_base_types@_WV?$allocator@_W@std@@@std@@@std@@QEAAAEAU?$_Wrap_alloc@V?$allocator@_W@std@@@2@XZ ; std::_String_alloc<std::_String_base_types<wchar_t,std::allocator<wchar_t> > >::_Getal
  0021b	4c 8d 45 28	 lea	 r8, QWORD PTR _Ptr$[rbp]
  0021f	48 8b 8d 18 01
	00 00		 mov	 rcx, QWORD PTR tv196[rbp]
  00226	48 8b d1	 mov	 rdx, rcx
  00229	48 8b c8	 mov	 rcx, rax
  0022c	e8 00 00 00 00	 call	 ??$construct@PEA_WAEAPEA_W@?$_Wrap_alloc@V?$allocator@_W@std@@@std@@QEAAXPEAPEA_WAEAPEA_W@Z ; std::_Wrap_alloc<std::allocator<wchar_t> >::construct<wchar_t * __ptr64,wchar_t * __ptr64 & __ptr64>

; 2212 : 		this->_Myres() = _Newres;

  00231	48 8b 8d 50 01
	00 00		 mov	 rcx, QWORD PTR this$[rbp]
  00238	e8 00 00 00 00	 call	 ?_Myres@?$_String_alloc@U?$_String_base_types@_WV?$allocator@_W@std@@@std@@@std@@QEAAAEA_KXZ ; std::_String_alloc<std::_String_base_types<wchar_t,std::allocator<wchar_t> > >::_Myres
  0023d	48 8b 4d 08	 mov	 rcx, QWORD PTR _Newres$[rbp]
  00241	48 89 08	 mov	 QWORD PTR [rax], rcx

; 2213 : 		_Eos(_Oldlen);

  00244	48 8b 95 60 01
	00 00		 mov	 rdx, QWORD PTR _Oldlen$[rbp]
  0024b	48 8b 8d 50 01
	00 00		 mov	 rcx, QWORD PTR this$[rbp]
  00252	e8 00 00 00 00	 call	 ?_Eos@?$basic_string@_WU?$char_traits@_W@std@@V?$allocator@_W@2@@std@@QEAAX_K@Z ; std::basic_string<wchar_t,std::char_traits<wchar_t>,std::allocator<wchar_t> >::_Eos

; 2214 : 		}

  00257	48 8d 4d e0	 lea	 rcx, QWORD PTR [rbp-32]
  0025b	48 8d 15 00 00
	00 00		 lea	 rdx, OFFSET FLAT:?_Copy@?$basic_string@_WU?$char_traits@_W@std@@V?$allocator@_W@2@@std@@QEAAX_K0@Z$rtcFrameData
  00262	e8 00 00 00 00	 call	 _RTC_CheckStackVars
  00267	48 8b 8d 28 01
	00 00		 mov	 rcx, QWORD PTR __$ArrayPad$[rbp]
  0026e	48 33 cd	 xor	 rcx, rbp
  00271	e8 00 00 00 00	 call	 __security_check_cookie
  00276	48 8d a5 38 01
	00 00		 lea	 rsp, QWORD PTR [rbp+312]
  0027d	5f		 pop	 rdi
  0027e	5d		 pop	 rbp
  0027f	c3		 ret	 0
$LN20@Copy:
?_Copy@?$basic_string@_WU?$char_traits@_W@std@@V?$allocator@_W@2@@std@@QEAAX_K0@Z ENDP ; std::basic_string<wchar_t,std::char_traits<wchar_t>,std::allocator<wchar_t> >::_Copy
_TEXT	ENDS
;	COMDAT text$x
text$x	SEGMENT
_Newres$ = 8
_Ptr$ = 40
$T4 = 264
tv196 = 280
tv181 = 280
tv165 = 280
tv152 = 280
tv138 = 280
tv91 = 280
tv75 = 280
tv217 = 288
tv216 = 288
tv92 = 288
__$ArrayPad$ = 296
this$ = 336
_Newsize$ = 344
_Oldlen$ = 352
?catch$1@?0??_Copy@?$basic_string@_WU?$char_traits@_W@std@@V?$allocator@_W@2@@std@@QEAAX_K0@Z@4HA PROC ; `std::basic_string<wchar_t,std::char_traits<wchar_t>,std::allocator<wchar_t> >::_Copy'::`1'::catch$1

; 2197 : 		_CATCH_ALL

  00000	48 89 4c 24 08	 mov	 QWORD PTR [rsp+8], rcx
  00005	48 89 54 24 10	 mov	 QWORD PTR [rsp+16], rdx
  0000a	55		 push	 rbp
  0000b	57		 push	 rdi
  0000c	48 83 ec 28	 sub	 rsp, 40			; 00000028H
  00010	48 8d 6a 20	 lea	 rbp, QWORD PTR [rdx+32]
__catch$?_Copy@?$basic_string@_WU?$char_traits@_W@std@@V?$allocator@_W@2@@std@@QEAAX_K0@Z$0:

; 2197 : 		_CATCH_ALL
; 2198 : 			_Newres = _Newsize;	// allocation failed, undo roundup and retry

  00014	48 8b 85 58 01
	00 00		 mov	 rax, QWORD PTR _Newsize$[rbp]
  0001b	48 89 45 08	 mov	 QWORD PTR _Newres$[rbp], rax

; 2197 : 		_CATCH_ALL
; 2198 : 			_Newres = _Newsize;	// allocation failed, undo roundup and retry
; 2199 : 			_TRY_BEGIN
; 2200 : 				_Ptr = this->_Getal().allocate(_Newres + 1);

  0001f	48 8b 45 08	 mov	 rax, QWORD PTR _Newres$[rbp]
  00023	48 ff c0	 inc	 rax
  00026	48 89 85 18 01
	00 00		 mov	 QWORD PTR tv165[rbp], rax
  0002d	48 8b 8d 50 01
	00 00		 mov	 rcx, QWORD PTR this$[rbp]
  00034	e8 00 00 00 00	 call	 ?_Getal@?$_String_alloc@U?$_String_base_types@_WV?$allocator@_W@std@@@std@@@std@@QEAAAEAU?$_Wrap_alloc@V?$allocator@_W@std@@@2@XZ ; std::_String_alloc<std::_String_base_types<wchar_t,std::allocator<wchar_t> > >::_Getal
  00039	48 8b 8d 18 01
	00 00		 mov	 rcx, QWORD PTR tv165[rbp]
  00040	48 8b d1	 mov	 rdx, rcx
  00043	48 8b c8	 mov	 rcx, rax
  00046	e8 00 00 00 00	 call	 ?allocate@?$_Wrap_alloc@V?$allocator@_W@std@@@std@@QEAAPEA_W_K@Z ; std::_Wrap_alloc<std::allocator<wchar_t> >::allocate
  0004b	48 89 85 20 01
	00 00		 mov	 QWORD PTR tv217[rbp], rax
  00052	48 8b 85 20 01
	00 00		 mov	 rax, QWORD PTR tv217[rbp]
  00059	48 89 45 28	 mov	 QWORD PTR _Ptr$[rbp], rax
  0005d	eb 00		 jmp	 SHORT $LN16@catch$1
$LN17@catch$1:
$LN16@catch$1:

; 2197 : 		_CATCH_ALL
; 2198 : 			_Newres = _Newsize;	// allocation failed, undo roundup and retry
; 2199 : 			_TRY_BEGIN
; 2200 : 				_Ptr = this->_Getal().allocate(_Newres + 1);
; 2201 : 			_CATCH_ALL
; 2202 : 			_Tidy(true);	// failed again, discard storage and reraise
; 2203 : 			_RERAISE;
; 2204 : 			_CATCH_END
; 2205 : 		_CATCH_END

  0005f	48 8d 05 00 00
	00 00		 lea	 rax, $LN19@catch$1
  00066	48 83 c4 28	 add	 rsp, 40			; 00000028H
  0006a	5f		 pop	 rdi
  0006b	5d		 pop	 rbp
  0006c	c3		 ret	 0
  0006d	cc		 int	 3
?catch$1@?0??_Copy@?$basic_string@_WU?$char_traits@_W@std@@V?$allocator@_W@2@@std@@QEAAX_K0@Z@4HA ENDP ; `std::basic_string<wchar_t,std::char_traits<wchar_t>,std::allocator<wchar_t> >::_Copy'::`1'::catch$1
_Newres$ = 8
_Ptr$ = 40
$T4 = 264
tv196 = 280
tv181 = 280
tv165 = 280
tv152 = 280
tv138 = 280
tv91 = 280
tv75 = 280
tv217 = 288
tv216 = 288
tv92 = 288
__$ArrayPad$ = 296
this$ = 336
_Newsize$ = 344
_Oldlen$ = 352
?catch$0@?0??_Copy@?$basic_string@_WU?$char_traits@_W@std@@V?$allocator@_W@2@@std@@QEAAX_K0@Z@4HA PROC ; `std::basic_string<wchar_t,std::char_traits<wchar_t>,std::allocator<wchar_t> >::_Copy'::`1'::catch$0

; 2197 : 		_CATCH_ALL
; 2198 : 			_Newres = _Newsize;	// allocation failed, undo roundup and retry
; 2199 : 			_TRY_BEGIN
; 2200 : 				_Ptr = this->_Getal().allocate(_Newres + 1);
; 2201 : 			_CATCH_ALL

  0006e	48 89 4c 24 08	 mov	 QWORD PTR [rsp+8], rcx
  00073	48 89 54 24 10	 mov	 QWORD PTR [rsp+16], rdx
  00078	55		 push	 rbp
  00079	57		 push	 rdi
  0007a	48 83 ec 28	 sub	 rsp, 40			; 00000028H
  0007e	48 8d 6a 20	 lea	 rbp, QWORD PTR [rdx+32]
__catch$?_Copy@?$basic_string@_WU?$char_traits@_W@std@@V?$allocator@_W@2@@std@@QEAAX_K0@Z$1:

; 2197 : 		_CATCH_ALL
; 2198 : 			_Newres = _Newsize;	// allocation failed, undo roundup and retry
; 2199 : 			_TRY_BEGIN
; 2200 : 				_Ptr = this->_Getal().allocate(_Newres + 1);
; 2201 : 			_CATCH_ALL
; 2202 : 			_Tidy(true);	// failed again, discard storage and reraise

  00082	45 33 c0	 xor	 r8d, r8d
  00085	b2 01		 mov	 dl, 1
  00087	48 8b 8d 50 01
	00 00		 mov	 rcx, QWORD PTR this$[rbp]
  0008e	e8 00 00 00 00	 call	 ?_Tidy@?$basic_string@_WU?$char_traits@_W@std@@V?$allocator@_W@2@@std@@QEAAX_N_K@Z ; std::basic_string<wchar_t,std::char_traits<wchar_t>,std::allocator<wchar_t> >::_Tidy

; 2197 : 		_CATCH_ALL
; 2198 : 			_Newres = _Newsize;	// allocation failed, undo roundup and retry
; 2199 : 			_TRY_BEGIN
; 2200 : 				_Ptr = this->_Getal().allocate(_Newres + 1);
; 2201 : 			_CATCH_ALL
; 2202 : 			_Tidy(true);	// failed again, discard storage and reraise
; 2203 : 			_RERAISE;

  00093	33 d2		 xor	 edx, edx
  00095	33 c9		 xor	 ecx, ecx
  00097	e8 00 00 00 00	 call	 _CxxThrowException
  0009c	90		 npad	 1

; 2197 : 		_CATCH_ALL
; 2198 : 			_Newres = _Newsize;	// allocation failed, undo roundup and retry
; 2199 : 			_TRY_BEGIN
; 2200 : 				_Ptr = this->_Getal().allocate(_Newres + 1);
; 2201 : 			_CATCH_ALL
; 2202 : 			_Tidy(true);	// failed again, discard storage and reraise
; 2203 : 			_RERAISE;
; 2204 : 			_CATCH_END

  0009d	48 8d 05 00 00
	00 00		 lea	 rax, $LN17@catch$0
  000a4	48 83 c4 28	 add	 rsp, 40			; 00000028H
  000a8	5f		 pop	 rdi
  000a9	5d		 pop	 rbp
  000aa	c3		 ret	 0
  000ab	cc		 int	 3
?catch$0@?0??_Copy@?$basic_string@_WU?$char_traits@_W@std@@V?$allocator@_W@2@@std@@QEAAX_K0@Z@4HA ENDP ; `std::basic_string<wchar_t,std::char_traits<wchar_t>,std::allocator<wchar_t> >::_Copy'::`1'::catch$0
text$x	ENDS
; Function compile flags: /Odtp /RTCsu /ZI
;	COMDAT text$x
text$x	SEGMENT
_Newres$ = 8
_Ptr$ = 40
$T4 = 264
tv196 = 280
tv181 = 280
tv165 = 280
tv152 = 280
tv138 = 280
tv91 = 280
tv75 = 280
tv217 = 288
tv216 = 288
tv92 = 288
__$ArrayPad$ = 296
this$ = 336
_Newsize$ = 344
_Oldlen$ = 352
?catch$1@?0??_Copy@?$basic_string@_WU?$char_traits@_W@std@@V?$allocator@_W@2@@std@@QEAAX_K0@Z@4HA PROC ; `std::basic_string<wchar_t,std::char_traits<wchar_t>,std::allocator<wchar_t> >::_Copy'::`1'::catch$1

; 2197 : 		_CATCH_ALL

  00000	48 89 4c 24 08	 mov	 QWORD PTR [rsp+8], rcx
  00005	48 89 54 24 10	 mov	 QWORD PTR [rsp+16], rdx
  0000a	55		 push	 rbp
  0000b	57		 push	 rdi
  0000c	48 83 ec 28	 sub	 rsp, 40			; 00000028H
  00010	48 8d 6a 20	 lea	 rbp, QWORD PTR [rdx+32]
__catch$?_Copy@?$basic_string@_WU?$char_traits@_W@std@@V?$allocator@_W@2@@std@@QEAAX_K0@Z$0:

; 2198 : 			_Newres = _Newsize;	// allocation failed, undo roundup and retry

  00014	48 8b 85 58 01
	00 00		 mov	 rax, QWORD PTR _Newsize$[rbp]
  0001b	48 89 45 08	 mov	 QWORD PTR _Newres$[rbp], rax

; 2199 : 			_TRY_BEGIN
; 2200 : 				_Ptr = this->_Getal().allocate(_Newres + 1);

  0001f	48 8b 45 08	 mov	 rax, QWORD PTR _Newres$[rbp]
  00023	48 ff c0	 inc	 rax
  00026	48 89 85 18 01
	00 00		 mov	 QWORD PTR tv165[rbp], rax
  0002d	48 8b 8d 50 01
	00 00		 mov	 rcx, QWORD PTR this$[rbp]
  00034	e8 00 00 00 00	 call	 ?_Getal@?$_String_alloc@U?$_String_base_types@_WV?$allocator@_W@std@@@std@@@std@@QEAAAEAU?$_Wrap_alloc@V?$allocator@_W@std@@@2@XZ ; std::_String_alloc<std::_String_base_types<wchar_t,std::allocator<wchar_t> > >::_Getal
  00039	48 8b 8d 18 01
	00 00		 mov	 rcx, QWORD PTR tv165[rbp]
  00040	48 8b d1	 mov	 rdx, rcx
  00043	48 8b c8	 mov	 rcx, rax
  00046	e8 00 00 00 00	 call	 ?allocate@?$_Wrap_alloc@V?$allocator@_W@std@@@std@@QEAAPEA_W_K@Z ; std::_Wrap_alloc<std::allocator<wchar_t> >::allocate
  0004b	48 89 85 20 01
	00 00		 mov	 QWORD PTR tv217[rbp], rax
  00052	48 8b 85 20 01
	00 00		 mov	 rax, QWORD PTR tv217[rbp]
  00059	48 89 45 28	 mov	 QWORD PTR _Ptr$[rbp], rax
  0005d	eb 00		 jmp	 SHORT $LN16@catch$1
$LN17@catch$1:
$LN16@catch$1:

; 2201 : 			_CATCH_ALL
; 2202 : 			_Tidy(true);	// failed again, discard storage and reraise
; 2203 : 			_RERAISE;
; 2204 : 			_CATCH_END
; 2205 : 		_CATCH_END

  0005f	48 8d 05 00 00
	00 00		 lea	 rax, $LN19@catch$1
  00066	48 83 c4 28	 add	 rsp, 40			; 00000028H
  0006a	5f		 pop	 rdi
  0006b	5d		 pop	 rbp
  0006c	c3		 ret	 0
  0006d	cc		 int	 3
?catch$1@?0??_Copy@?$basic_string@_WU?$char_traits@_W@std@@V?$allocator@_W@2@@std@@QEAAX_K0@Z@4HA ENDP ; `std::basic_string<wchar_t,std::char_traits<wchar_t>,std::allocator<wchar_t> >::_Copy'::`1'::catch$1
text$x	ENDS
; Function compile flags: /Odtp /RTCsu /ZI
;	COMDAT text$x
text$x	SEGMENT
_Newres$ = 8
_Ptr$ = 40
$T4 = 264
tv196 = 280
tv181 = 280
tv165 = 280
tv152 = 280
tv138 = 280
tv91 = 280
tv75 = 280
tv217 = 288
tv216 = 288
tv92 = 288
__$ArrayPad$ = 296
this$ = 336
_Newsize$ = 344
_Oldlen$ = 352
?catch$0@?0??_Copy@?$basic_string@_WU?$char_traits@_W@std@@V?$allocator@_W@2@@std@@QEAAX_K0@Z@4HA PROC ; `std::basic_string<wchar_t,std::char_traits<wchar_t>,std::allocator<wchar_t> >::_Copy'::`1'::catch$0

; 2201 : 			_CATCH_ALL

  0006e	48 89 4c 24 08	 mov	 QWORD PTR [rsp+8], rcx
  00073	48 89 54 24 10	 mov	 QWORD PTR [rsp+16], rdx
  00078	55		 push	 rbp
  00079	57		 push	 rdi
  0007a	48 83 ec 28	 sub	 rsp, 40			; 00000028H
  0007e	48 8d 6a 20	 lea	 rbp, QWORD PTR [rdx+32]
__catch$?_Copy@?$basic_string@_WU?$char_traits@_W@std@@V?$allocator@_W@2@@std@@QEAAX_K0@Z$1:

; 2202 : 			_Tidy(true);	// failed again, discard storage and reraise

  00082	45 33 c0	 xor	 r8d, r8d
  00085	b2 01		 mov	 dl, 1
  00087	48 8b 8d 50 01
	00 00		 mov	 rcx, QWORD PTR this$[rbp]
  0008e	e8 00 00 00 00	 call	 ?_Tidy@?$basic_string@_WU?$char_traits@_W@std@@V?$allocator@_W@2@@std@@QEAAX_N_K@Z ; std::basic_string<wchar_t,std::char_traits<wchar_t>,std::allocator<wchar_t> >::_Tidy

; 2203 : 			_RERAISE;

  00093	33 d2		 xor	 edx, edx
  00095	33 c9		 xor	 ecx, ecx
  00097	e8 00 00 00 00	 call	 _CxxThrowException
  0009c	90		 npad	 1

; 2204 : 			_CATCH_END

  0009d	48 8d 05 00 00
	00 00		 lea	 rax, $LN17@catch$0
  000a4	48 83 c4 28	 add	 rsp, 40			; 00000028H
  000a8	5f		 pop	 rdi
  000a9	5d		 pop	 rbp
  000aa	c3		 ret	 0
  000ab	cc		 int	 3
?catch$0@?0??_Copy@?$basic_string@_WU?$char_traits@_W@std@@V?$allocator@_W@2@@std@@QEAAX_K0@Z@4HA ENDP ; `std::basic_string<wchar_t,std::char_traits<wchar_t>,std::allocator<wchar_t> >::_Copy'::`1'::catch$0
text$x	ENDS
; Function compile flags: /Odtp /RTCsu /ZI
; File c:\program files (x86)\microsoft visual studio 14.0\vc\include\xstring
;	COMDAT ?_Clamp_suffix_size@?$basic_string@_WU?$char_traits@_W@std@@V?$allocator@_W@2@@std@@QEBA_K_K0@Z
_TEXT	SEGMENT
_Max_effective_size$ = 8
this$ = 256
_Off$ = 264
_Size$ = 272
?_Clamp_suffix_size@?$basic_string@_WU?$char_traits@_W@std@@V?$allocator@_W@2@@std@@QEBA_K_K0@Z PROC ; std::basic_string<wchar_t,std::char_traits<wchar_t>,std::allocator<wchar_t> >::_Clamp_suffix_size, COMDAT

; 2111 : 		{	// trims _Size to the longest it can be assuming a string starting at _Off

$LN5:
  00000	4c 89 44 24 18	 mov	 QWORD PTR [rsp+24], r8
  00005	48 89 54 24 10	 mov	 QWORD PTR [rsp+16], rdx
  0000a	48 89 4c 24 08	 mov	 QWORD PTR [rsp+8], rcx
  0000f	55		 push	 rbp
  00010	57		 push	 rdi
  00011	48 81 ec 08 01
	00 00		 sub	 rsp, 264		; 00000108H
  00018	48 8d 6c 24 20	 lea	 rbp, QWORD PTR [rsp+32]
  0001d	48 8b fc	 mov	 rdi, rsp
  00020	b9 42 00 00 00	 mov	 ecx, 66			; 00000042H
  00025	b8 cc cc cc cc	 mov	 eax, -858993460		; ccccccccH
  0002a	f3 ab		 rep stosd
  0002c	48 8b 8c 24 28
	01 00 00	 mov	 rcx, QWORD PTR [rsp+296]

; 2112 : 		const size_type _Max_effective_size = this->_Mysize() - _Off;

  00034	48 8b 8d 00 01
	00 00		 mov	 rcx, QWORD PTR this$[rbp]
  0003b	e8 00 00 00 00	 call	 ?_Mysize@?$_String_alloc@U?$_String_base_types@_WV?$allocator@_W@std@@@std@@@std@@QEBAAEB_KXZ ; std::_String_alloc<std::_String_base_types<wchar_t,std::allocator<wchar_t> > >::_Mysize
  00040	48 8b 8d 08 01
	00 00		 mov	 rcx, QWORD PTR _Off$[rbp]
  00047	48 8b 00	 mov	 rax, QWORD PTR [rax]
  0004a	48 2b c1	 sub	 rax, rcx
  0004d	48 89 45 08	 mov	 QWORD PTR _Max_effective_size$[rbp], rax

; 2113 : 		if (_Size <= _Max_effective_size)

  00051	48 8b 45 08	 mov	 rax, QWORD PTR _Max_effective_size$[rbp]
  00055	48 39 85 10 01
	00 00		 cmp	 QWORD PTR _Size$[rbp], rax
  0005c	77 0b		 ja	 SHORT $LN2@Clamp_suff

; 2114 : 			return (_Size);

  0005e	48 8b 85 10 01
	00 00		 mov	 rax, QWORD PTR _Size$[rbp]
  00065	eb 06		 jmp	 SHORT $LN1@Clamp_suff

; 2115 : 		else

  00067	eb 04		 jmp	 SHORT $LN3@Clamp_suff
$LN2@Clamp_suff:

; 2116 : 			return (_Max_effective_size);

  00069	48 8b 45 08	 mov	 rax, QWORD PTR _Max_effective_size$[rbp]
$LN3@Clamp_suff:
$LN1@Clamp_suff:

; 2117 : 		}

  0006d	48 8d a5 e8 00
	00 00		 lea	 rsp, QWORD PTR [rbp+232]
  00074	5f		 pop	 rdi
  00075	5d		 pop	 rbp
  00076	c3		 ret	 0
?_Clamp_suffix_size@?$basic_string@_WU?$char_traits@_W@std@@V?$allocator@_W@2@@std@@QEBA_K_K0@Z ENDP ; std::basic_string<wchar_t,std::char_traits<wchar_t>,std::allocator<wchar_t> >::_Clamp_suffix_size
_TEXT	ENDS
; Function compile flags: /Odtp /RTCsu /ZI
; File c:\program files (x86)\microsoft visual studio 14.0\vc\include\xstring
;	COMDAT ?max_size@?$basic_string@_WU?$char_traits@_W@std@@V?$allocator@_W@2@@std@@QEBA_KXZ
_TEXT	SEGMENT
_Num$ = 8
$T1 = 228
tv75 = 248
this$ = 288
?max_size@?$basic_string@_WU?$char_traits@_W@std@@V?$allocator@_W@2@@std@@QEBA_KXZ PROC ; std::basic_string<wchar_t,std::char_traits<wchar_t>,std::allocator<wchar_t> >::max_size, COMDAT

; 1769 : 		{	// return maximum possible length of sequence

$LN5:
  00000	48 89 4c 24 08	 mov	 QWORD PTR [rsp+8], rcx
  00005	55		 push	 rbp
  00006	57		 push	 rdi
  00007	48 81 ec 28 01
	00 00		 sub	 rsp, 296		; 00000128H
  0000e	48 8d 6c 24 20	 lea	 rbp, QWORD PTR [rsp+32]
  00013	48 8b fc	 mov	 rdi, rsp
  00016	b9 4a 00 00 00	 mov	 ecx, 74			; 0000004aH
  0001b	b8 cc cc cc cc	 mov	 eax, -858993460		; ccccccccH
  00020	f3 ab		 rep stosd
  00022	48 8b 8c 24 48
	01 00 00	 mov	 rcx, QWORD PTR [rsp+328]

; 1770 : 		const size_type _Num = this->_Getal().max_size();

  0002a	48 8b 8d 20 01
	00 00		 mov	 rcx, QWORD PTR this$[rbp]
  00031	e8 00 00 00 00	 call	 ?_Getal@?$_String_alloc@U?$_String_base_types@_WV?$allocator@_W@std@@@std@@@std@@QEBAAEBU?$_Wrap_alloc@V?$allocator@_W@std@@@2@XZ ; std::_String_alloc<std::_String_base_types<wchar_t,std::allocator<wchar_t> > >::_Getal
  00036	0f b6 95 e4 00
	00 00		 movzx	 edx, BYTE PTR $T1[rbp]
  0003d	48 8b c8	 mov	 rcx, rax
  00040	e8 00 00 00 00	 call	 ?max_size@?$_Wrap_alloc@V?$allocator@_W@std@@@std@@QEBA_KU_Nil@2@@Z ; std::_Wrap_alloc<std::allocator<wchar_t> >::max_size
  00045	48 89 45 08	 mov	 QWORD PTR _Num$[rbp], rax

; 1771 : 		return (_Num <= 1 ? 1 : _Num - 1);

  00049	48 83 7d 08 01	 cmp	 QWORD PTR _Num$[rbp], 1
  0004e	77 0d		 ja	 SHORT $LN3@max_size
  00050	48 c7 85 f8 00
	00 00 01 00 00
	00		 mov	 QWORD PTR tv75[rbp], 1
  0005b	eb 0e		 jmp	 SHORT $LN4@max_size
$LN3@max_size:
  0005d	48 8b 45 08	 mov	 rax, QWORD PTR _Num$[rbp]
  00061	48 ff c8	 dec	 rax
  00064	48 89 85 f8 00
	00 00		 mov	 QWORD PTR tv75[rbp], rax
$LN4@max_size:
  0006b	48 8b 85 f8 00
	00 00		 mov	 rax, QWORD PTR tv75[rbp]

; 1772 : 		}

  00072	48 8d a5 08 01
	00 00		 lea	 rsp, QWORD PTR [rbp+264]
  00079	5f		 pop	 rdi
  0007a	5d		 pop	 rbp
  0007b	c3		 ret	 0
?max_size@?$basic_string@_WU?$char_traits@_W@std@@V?$allocator@_W@2@@std@@QEBA_KXZ ENDP ; std::basic_string<wchar_t,std::char_traits<wchar_t>,std::allocator<wchar_t> >::max_size
_TEXT	ENDS
; Function compile flags: /Odtp /RTCsu /ZI
; File c:\program files (x86)\microsoft visual studio 14.0\vc\include\xstring
;	COMDAT ?erase@?$basic_string@_WU?$char_traits@_W@std@@V?$allocator@_W@2@@std@@QEAAAEAV12@_K0@Z
_TEXT	SEGMENT
_Ptr$1 = 8
_Newsize$2 = 40
this$ = 288
_Off$ = 296
_Count$ = 304
?erase@?$basic_string@_WU?$char_traits@_W@std@@V?$allocator@_W@2@@std@@QEAAAEAV12@_K0@Z PROC ; std::basic_string<wchar_t,std::char_traits<wchar_t>,std::allocator<wchar_t> >::erase, COMDAT

; 1347 : 		{	// erase elements [_Off, _Off + _Count)

$LN6:
  00000	4c 89 44 24 18	 mov	 QWORD PTR [rsp+24], r8
  00005	48 89 54 24 10	 mov	 QWORD PTR [rsp+16], rdx
  0000a	48 89 4c 24 08	 mov	 QWORD PTR [rsp+8], rcx
  0000f	55		 push	 rbp
  00010	57		 push	 rdi
  00011	48 81 ec 28 01
	00 00		 sub	 rsp, 296		; 00000128H
  00018	48 8d 6c 24 20	 lea	 rbp, QWORD PTR [rsp+32]
  0001d	48 8b fc	 mov	 rdi, rsp
  00020	b9 4a 00 00 00	 mov	 ecx, 74			; 0000004aH
  00025	b8 cc cc cc cc	 mov	 eax, -858993460		; ccccccccH
  0002a	f3 ab		 rep stosd
  0002c	48 8b 8c 24 48
	01 00 00	 mov	 rcx, QWORD PTR [rsp+328]

; 1348 : 		_Check_offset(_Off);

  00034	48 8b 95 28 01
	00 00		 mov	 rdx, QWORD PTR _Off$[rbp]
  0003b	48 8b 8d 20 01
	00 00		 mov	 rcx, QWORD PTR this$[rbp]
  00042	e8 00 00 00 00	 call	 ?_Check_offset@?$basic_string@_WU?$char_traits@_W@std@@V?$allocator@_W@2@@std@@QEBAX_K@Z ; std::basic_string<wchar_t,std::char_traits<wchar_t>,std::allocator<wchar_t> >::_Check_offset

; 1349 : 		if (this->_Mysize() - _Off <= _Count)

  00047	48 8b 8d 20 01
	00 00		 mov	 rcx, QWORD PTR this$[rbp]
  0004e	e8 00 00 00 00	 call	 ?_Mysize@?$_String_alloc@U?$_String_base_types@_WV?$allocator@_W@std@@@std@@@std@@QEAAAEA_KXZ ; std::_String_alloc<std::_String_base_types<wchar_t,std::allocator<wchar_t> > >::_Mysize
  00053	48 8b 8d 28 01
	00 00		 mov	 rcx, QWORD PTR _Off$[rbp]
  0005a	48 8b 00	 mov	 rax, QWORD PTR [rax]
  0005d	48 2b c1	 sub	 rax, rcx
  00060	48 3b 85 30 01
	00 00		 cmp	 rax, QWORD PTR _Count$[rbp]
  00067	77 18		 ja	 SHORT $LN2@erase

; 1350 : 			_Eos(_Off);	// erase elements [_Off, ...)

  00069	48 8b 95 28 01
	00 00		 mov	 rdx, QWORD PTR _Off$[rbp]
  00070	48 8b 8d 20 01
	00 00		 mov	 rcx, QWORD PTR this$[rbp]
  00077	e8 00 00 00 00	 call	 ?_Eos@?$basic_string@_WU?$char_traits@_W@std@@V?$allocator@_W@2@@std@@QEAAX_K@Z ; std::basic_string<wchar_t,std::char_traits<wchar_t>,std::allocator<wchar_t> >::_Eos
  0007c	e9 81 00 00 00	 jmp	 $LN3@erase
$LN2@erase:

; 1351 : 		else if (0 < _Count)

  00081	48 83 bd 30 01
	00 00 00	 cmp	 QWORD PTR _Count$[rbp], 0
  00089	76 77		 jbe	 SHORT $LN4@erase

; 1352 : 			{	// move elements down
; 1353 : 			value_type *_Ptr = this->_Myptr() + _Off;

  0008b	48 8b 8d 20 01
	00 00		 mov	 rcx, QWORD PTR this$[rbp]
  00092	e8 00 00 00 00	 call	 ?_Myptr@?$_String_alloc@U?$_String_base_types@_WV?$allocator@_W@std@@@std@@@std@@QEAAPEA_WXZ ; std::_String_alloc<std::_String_base_types<wchar_t,std::allocator<wchar_t> > >::_Myptr
  00097	48 8b 8d 28 01
	00 00		 mov	 rcx, QWORD PTR _Off$[rbp]
  0009e	48 8d 04 48	 lea	 rax, QWORD PTR [rax+rcx*2]
  000a2	48 89 45 08	 mov	 QWORD PTR _Ptr$1[rbp], rax

; 1354 : 			size_type _Newsize = this->_Mysize() - _Count;

  000a6	48 8b 8d 20 01
	00 00		 mov	 rcx, QWORD PTR this$[rbp]
  000ad	e8 00 00 00 00	 call	 ?_Mysize@?$_String_alloc@U?$_String_base_types@_WV?$allocator@_W@std@@@std@@@std@@QEAAAEA_KXZ ; std::_String_alloc<std::_String_base_types<wchar_t,std::allocator<wchar_t> > >::_Mysize
  000b2	48 8b 8d 30 01
	00 00		 mov	 rcx, QWORD PTR _Count$[rbp]
  000b9	48 8b 00	 mov	 rax, QWORD PTR [rax]
  000bc	48 2b c1	 sub	 rax, rcx
  000bf	48 89 45 28	 mov	 QWORD PTR _Newsize$2[rbp], rax

; 1355 : 			_Traits::move(_Ptr, _Ptr + _Count, _Newsize - _Off);

  000c3	48 8b 85 28 01
	00 00		 mov	 rax, QWORD PTR _Off$[rbp]
  000ca	48 8b 4d 28	 mov	 rcx, QWORD PTR _Newsize$2[rbp]
  000ce	48 2b c8	 sub	 rcx, rax
  000d1	48 8b c1	 mov	 rax, rcx
  000d4	48 8b 4d 08	 mov	 rcx, QWORD PTR _Ptr$1[rbp]
  000d8	48 8b 95 30 01
	00 00		 mov	 rdx, QWORD PTR _Count$[rbp]
  000df	48 8d 0c 51	 lea	 rcx, QWORD PTR [rcx+rdx*2]
  000e3	4c 8b c0	 mov	 r8, rax
  000e6	48 8b d1	 mov	 rdx, rcx
  000e9	48 8b 4d 08	 mov	 rcx, QWORD PTR _Ptr$1[rbp]
  000ed	e8 00 00 00 00	 call	 ?move@?$char_traits@_W@std@@SAPEA_WPEA_WPEB_W_K@Z ; std::char_traits<wchar_t>::move

; 1356 : 			_Eos(_Newsize);

  000f2	48 8b 55 28	 mov	 rdx, QWORD PTR _Newsize$2[rbp]
  000f6	48 8b 8d 20 01
	00 00		 mov	 rcx, QWORD PTR this$[rbp]
  000fd	e8 00 00 00 00	 call	 ?_Eos@?$basic_string@_WU?$char_traits@_W@std@@V?$allocator@_W@2@@std@@QEAAX_K@Z ; std::basic_string<wchar_t,std::char_traits<wchar_t>,std::allocator<wchar_t> >::_Eos
$LN4@erase:
$LN3@erase:

; 1357 : 			}
; 1358 : 		return (*this);

  00102	48 8b 85 20 01
	00 00		 mov	 rax, QWORD PTR this$[rbp]

; 1359 : 		}

  00109	48 8d a5 08 01
	00 00		 lea	 rsp, QWORD PTR [rbp+264]
  00110	5f		 pop	 rdi
  00111	5d		 pop	 rbp
  00112	c3		 ret	 0
?erase@?$basic_string@_WU?$char_traits@_W@std@@V?$allocator@_W@2@@std@@QEAAAEAV12@_K0@Z ENDP ; std::basic_string<wchar_t,std::char_traits<wchar_t>,std::allocator<wchar_t> >::erase
_TEXT	ENDS
; Function compile flags: /Odtp /RTCsu /ZI
; File c:\program files (x86)\microsoft visual studio 14.0\vc\include\xstring
;	COMDAT ?erase@?$basic_string@_WU?$char_traits@_W@std@@V?$allocator@_W@2@@std@@QEAAAEAV12@_K@Z
_TEXT	SEGMENT
this$ = 224
_Off$ = 232
?erase@?$basic_string@_WU?$char_traits@_W@std@@V?$allocator@_W@2@@std@@QEAAAEAV12@_K@Z PROC ; std::basic_string<wchar_t,std::char_traits<wchar_t>,std::allocator<wchar_t> >::erase, COMDAT

; 1340 : 		{	// erase elements [_Off, ...)

$LN3:
  00000	48 89 54 24 10	 mov	 QWORD PTR [rsp+16], rdx
  00005	48 89 4c 24 08	 mov	 QWORD PTR [rsp+8], rcx
  0000a	55		 push	 rbp
  0000b	57		 push	 rdi
  0000c	48 81 ec e8 00
	00 00		 sub	 rsp, 232		; 000000e8H
  00013	48 8d 6c 24 20	 lea	 rbp, QWORD PTR [rsp+32]
  00018	48 8b fc	 mov	 rdi, rsp
  0001b	b9 3a 00 00 00	 mov	 ecx, 58			; 0000003aH
  00020	b8 cc cc cc cc	 mov	 eax, -858993460		; ccccccccH
  00025	f3 ab		 rep stosd
  00027	48 8b 8c 24 08
	01 00 00	 mov	 rcx, QWORD PTR [rsp+264]

; 1341 : 		_Check_offset(_Off);

  0002f	48 8b 95 e8 00
	00 00		 mov	 rdx, QWORD PTR _Off$[rbp]
  00036	48 8b 8d e0 00
	00 00		 mov	 rcx, QWORD PTR this$[rbp]
  0003d	e8 00 00 00 00	 call	 ?_Check_offset@?$basic_string@_WU?$char_traits@_W@std@@V?$allocator@_W@2@@std@@QEBAX_K@Z ; std::basic_string<wchar_t,std::char_traits<wchar_t>,std::allocator<wchar_t> >::_Check_offset

; 1342 : 		_Eos(_Off);

  00042	48 8b 95 e8 00
	00 00		 mov	 rdx, QWORD PTR _Off$[rbp]
  00049	48 8b 8d e0 00
	00 00		 mov	 rcx, QWORD PTR this$[rbp]
  00050	e8 00 00 00 00	 call	 ?_Eos@?$basic_string@_WU?$char_traits@_W@std@@V?$allocator@_W@2@@std@@QEAAX_K@Z ; std::basic_string<wchar_t,std::char_traits<wchar_t>,std::allocator<wchar_t> >::_Eos

; 1343 : 		return (*this);

  00055	48 8b 85 e0 00
	00 00		 mov	 rax, QWORD PTR this$[rbp]

; 1344 : 		}

  0005c	48 8d a5 c8 00
	00 00		 lea	 rsp, QWORD PTR [rbp+200]
  00063	5f		 pop	 rdi
  00064	5d		 pop	 rbp
  00065	c3		 ret	 0
?erase@?$basic_string@_WU?$char_traits@_W@std@@V?$allocator@_W@2@@std@@QEAAAEAV12@_K@Z ENDP ; std::basic_string<wchar_t,std::char_traits<wchar_t>,std::allocator<wchar_t> >::erase
_TEXT	ENDS
; Function compile flags: /Odtp /RTCsu /ZI
; File c:\program files (x86)\microsoft visual studio 14.0\vc\include\xstring
;	COMDAT ?assign@?$basic_string@_WU?$char_traits@_W@std@@V?$allocator@_W@2@@std@@QEAAAEAV12@PEB_W@Z
_TEXT	SEGMENT
this$ = 224
_Ptr$ = 232
?assign@?$basic_string@_WU?$char_traits@_W@std@@V?$allocator@_W@2@@std@@QEAAAEAV12@PEB_W@Z PROC ; std::basic_string<wchar_t,std::char_traits<wchar_t>,std::allocator<wchar_t> >::assign, COMDAT

; 1180 : 		{	// assign [_Ptr, <null>)

$LN3:
  00000	48 89 54 24 10	 mov	 QWORD PTR [rsp+16], rdx
  00005	48 89 4c 24 08	 mov	 QWORD PTR [rsp+8], rcx
  0000a	55		 push	 rbp
  0000b	57		 push	 rdi
  0000c	48 81 ec e8 00
	00 00		 sub	 rsp, 232		; 000000e8H
  00013	48 8d 6c 24 20	 lea	 rbp, QWORD PTR [rsp+32]
  00018	48 8b fc	 mov	 rdi, rsp
  0001b	b9 3a 00 00 00	 mov	 ecx, 58			; 0000003aH
  00020	b8 cc cc cc cc	 mov	 eax, -858993460		; ccccccccH
  00025	f3 ab		 rep stosd
  00027	48 8b 8c 24 08
	01 00 00	 mov	 rcx, QWORD PTR [rsp+264]

; 1181 : 		_DEBUG_POINTER(_Ptr);

  0002f	41 b8 9d 04 00
	00		 mov	 r8d, 1181		; 0000049dH
  00035	48 8d 15 00 00
	00 00		 lea	 rdx, OFFSET FLAT:??_C@_1IO@EADHKMNI@?$AAc?$AA?3?$AA?2?$AAp?$AAr?$AAo?$AAg?$AAr?$AAa?$AAm?$AA?5?$AAf?$AAi?$AAl?$AAe?$AAs?$AA?5?$AA?$CI?$AAx?$AA8?$AA6?$AA?$CJ?$AA?2?$AAm?$AAi?$AAc?$AAr?$AAo?$AAs?$AAo?$AAf?$AAt@
  0003c	48 8b 8d e8 00
	00 00		 mov	 rcx, QWORD PTR _Ptr$[rbp]
  00043	e8 00 00 00 00	 call	 ??$_Debug_pointer@$$CB_W@std@@YAXPEB_W0I@Z ; std::_Debug_pointer<wchar_t const >

; 1182 : 		return (assign(_Ptr, _Traits::length(_Ptr)));

  00048	48 8b 8d e8 00
	00 00		 mov	 rcx, QWORD PTR _Ptr$[rbp]
  0004f	e8 00 00 00 00	 call	 ?length@?$char_traits@_W@std@@SA_KPEB_W@Z ; std::char_traits<wchar_t>::length
  00054	4c 8b c0	 mov	 r8, rax
  00057	48 8b 95 e8 00
	00 00		 mov	 rdx, QWORD PTR _Ptr$[rbp]
  0005e	48 8b 8d e0 00
	00 00		 mov	 rcx, QWORD PTR this$[rbp]
  00065	e8 00 00 00 00	 call	 ?assign@?$basic_string@_WU?$char_traits@_W@std@@V?$allocator@_W@2@@std@@QEAAAEAV12@PEB_W_K@Z ; std::basic_string<wchar_t,std::char_traits<wchar_t>,std::allocator<wchar_t> >::assign

; 1183 : 		}

  0006a	48 8d a5 c8 00
	00 00		 lea	 rsp, QWORD PTR [rbp+200]
  00071	5f		 pop	 rdi
  00072	5d		 pop	 rbp
  00073	c3		 ret	 0
?assign@?$basic_string@_WU?$char_traits@_W@std@@V?$allocator@_W@2@@std@@QEAAAEAV12@PEB_W@Z ENDP ; std::basic_string<wchar_t,std::char_traits<wchar_t>,std::allocator<wchar_t> >::assign
_TEXT	ENDS
; Function compile flags: /Odtp /RTCsu /ZI
; File c:\program files (x86)\microsoft visual studio 14.0\vc\include\xstring
;	COMDAT ?assign@?$basic_string@_WU?$char_traits@_W@std@@V?$allocator@_W@2@@std@@QEAAAEAV12@PEB_W_K@Z
_TEXT	SEGMENT
tv68 = 192
this$ = 240
_Ptr$ = 248
_Count$ = 256
?assign@?$basic_string@_WU?$char_traits@_W@std@@V?$allocator@_W@2@@std@@QEAAAEAV12@PEB_W_K@Z PROC ; std::basic_string<wchar_t,std::char_traits<wchar_t>,std::allocator<wchar_t> >::assign, COMDAT

; 1165 : 		{	// assign [_Ptr, _Ptr + _Count)

$LN7:
  00000	4c 89 44 24 18	 mov	 QWORD PTR [rsp+24], r8
  00005	48 89 54 24 10	 mov	 QWORD PTR [rsp+16], rdx
  0000a	48 89 4c 24 08	 mov	 QWORD PTR [rsp+8], rcx
  0000f	55		 push	 rbp
  00010	57		 push	 rdi
  00011	48 81 ec f8 00
	00 00		 sub	 rsp, 248		; 000000f8H
  00018	48 8d 6c 24 20	 lea	 rbp, QWORD PTR [rsp+32]
  0001d	48 8b fc	 mov	 rdi, rsp
  00020	b9 3e 00 00 00	 mov	 ecx, 62			; 0000003eH
  00025	b8 cc cc cc cc	 mov	 eax, -858993460		; ccccccccH
  0002a	f3 ab		 rep stosd
  0002c	48 8b 8c 24 18
	01 00 00	 mov	 rcx, QWORD PTR [rsp+280]

; 1166 : 		_DEBUG_POINTER_IF(_Count != 0, _Ptr);

  00034	48 83 bd 00 01
	00 00 00	 cmp	 QWORD PTR _Count$[rbp], 0
  0003c	74 09		 je	 SHORT $LN5@assign
  0003e	c6 85 c0 00 00
	00 01		 mov	 BYTE PTR tv68[rbp], 1
  00045	eb 07		 jmp	 SHORT $LN6@assign
$LN5@assign:
  00047	c6 85 c0 00 00
	00 00		 mov	 BYTE PTR tv68[rbp], 0
$LN6@assign:
  0004e	41 b9 8e 04 00
	00		 mov	 r9d, 1166		; 0000048eH
  00054	4c 8d 05 00 00
	00 00		 lea	 r8, OFFSET FLAT:??_C@_1IO@EADHKMNI@?$AAc?$AA?3?$AA?2?$AAp?$AAr?$AAo?$AAg?$AAr?$AAa?$AAm?$AA?5?$AAf?$AAi?$AAl?$AAe?$AAs?$AA?5?$AA?$CI?$AAx?$AA8?$AA6?$AA?$CJ?$AA?2?$AAm?$AAi?$AAc?$AAr?$AAo?$AAs?$AAo?$AAf?$AAt@
  0005b	48 8b 95 f8 00
	00 00		 mov	 rdx, QWORD PTR _Ptr$[rbp]
  00062	0f b6 8d c0 00
	00 00		 movzx	 ecx, BYTE PTR tv68[rbp]
  00069	e8 00 00 00 00	 call	 ??$_Debug_pointer_if@$$CB_W@std@@YAX_NPEB_W1I@Z ; std::_Debug_pointer_if<wchar_t const >

; 1167 : 		if (_Inside(_Ptr))

  0006e	48 8b 95 f8 00
	00 00		 mov	 rdx, QWORD PTR _Ptr$[rbp]
  00075	48 8b 8d f0 00
	00 00		 mov	 rcx, QWORD PTR this$[rbp]
  0007c	e8 00 00 00 00	 call	 ?_Inside@?$basic_string@_WU?$char_traits@_W@std@@V?$allocator@_W@2@@std@@QEAA_NPEB_W@Z ; std::basic_string<wchar_t,std::char_traits<wchar_t>,std::allocator<wchar_t> >::_Inside
  00081	0f b6 c0	 movzx	 eax, al
  00084	85 c0		 test	 eax, eax
  00086	74 3b		 je	 SHORT $LN2@assign

; 1168 : 			return (assign(*this,

  00088	48 8b 8d f0 00
	00 00		 mov	 rcx, QWORD PTR this$[rbp]
  0008f	e8 00 00 00 00	 call	 ?_Myptr@?$_String_alloc@U?$_String_base_types@_WV?$allocator@_W@std@@@std@@@std@@QEAAPEA_WXZ ; std::_String_alloc<std::_String_base_types<wchar_t,std::allocator<wchar_t> > >::_Myptr
  00094	48 8b 8d f8 00
	00 00		 mov	 rcx, QWORD PTR _Ptr$[rbp]
  0009b	48 2b c8	 sub	 rcx, rax
  0009e	48 8b c1	 mov	 rax, rcx
  000a1	48 d1 f8	 sar	 rax, 1
  000a4	4c 8b 8d 00 01
	00 00		 mov	 r9, QWORD PTR _Count$[rbp]
  000ab	4c 8b c0	 mov	 r8, rax
  000ae	48 8b 95 f0 00
	00 00		 mov	 rdx, QWORD PTR this$[rbp]
  000b5	48 8b 8d f0 00
	00 00		 mov	 rcx, QWORD PTR this$[rbp]
  000bc	e8 00 00 00 00	 call	 ?assign@?$basic_string@_WU?$char_traits@_W@std@@V?$allocator@_W@2@@std@@QEAAAEAV12@AEBV12@_K1@Z ; std::basic_string<wchar_t,std::char_traits<wchar_t>,std::allocator<wchar_t> >::assign
  000c1	eb 59		 jmp	 SHORT $LN1@assign
$LN2@assign:

; 1169 : 				_Ptr - this->_Myptr(), _Count));	// substring
; 1170 : 
; 1171 : 		if (_Grow(_Count))

  000c3	45 33 c0	 xor	 r8d, r8d
  000c6	48 8b 95 00 01
	00 00		 mov	 rdx, QWORD PTR _Count$[rbp]
  000cd	48 8b 8d f0 00
	00 00		 mov	 rcx, QWORD PTR this$[rbp]
  000d4	e8 00 00 00 00	 call	 ?_Grow@?$basic_string@_WU?$char_traits@_W@std@@V?$allocator@_W@2@@std@@QEAA_N_K_N@Z ; std::basic_string<wchar_t,std::char_traits<wchar_t>,std::allocator<wchar_t> >::_Grow
  000d9	0f b6 c0	 movzx	 eax, al
  000dc	85 c0		 test	 eax, eax
  000de	74 35		 je	 SHORT $LN3@assign

; 1172 : 			{	// make room and assign new stuff
; 1173 : 			_Traits::copy(this->_Myptr(), _Ptr, _Count);

  000e0	48 8b 8d f0 00
	00 00		 mov	 rcx, QWORD PTR this$[rbp]
  000e7	e8 00 00 00 00	 call	 ?_Myptr@?$_String_alloc@U?$_String_base_types@_WV?$allocator@_W@std@@@std@@@std@@QEAAPEA_WXZ ; std::_String_alloc<std::_String_base_types<wchar_t,std::allocator<wchar_t> > >::_Myptr
  000ec	4c 8b 85 00 01
	00 00		 mov	 r8, QWORD PTR _Count$[rbp]
  000f3	48 8b 95 f8 00
	00 00		 mov	 rdx, QWORD PTR _Ptr$[rbp]
  000fa	48 8b c8	 mov	 rcx, rax
  000fd	e8 00 00 00 00	 call	 ?copy@?$char_traits@_W@std@@SAPEA_WPEA_WPEB_W_K@Z ; std::char_traits<wchar_t>::copy

; 1174 : 			_Eos(_Count);

  00102	48 8b 95 00 01
	00 00		 mov	 rdx, QWORD PTR _Count$[rbp]
  00109	48 8b 8d f0 00
	00 00		 mov	 rcx, QWORD PTR this$[rbp]
  00110	e8 00 00 00 00	 call	 ?_Eos@?$basic_string@_WU?$char_traits@_W@std@@V?$allocator@_W@2@@std@@QEAAX_K@Z ; std::basic_string<wchar_t,std::char_traits<wchar_t>,std::allocator<wchar_t> >::_Eos
$LN3@assign:

; 1175 : 			}
; 1176 : 		return (*this);

  00115	48 8b 85 f0 00
	00 00		 mov	 rax, QWORD PTR this$[rbp]
$LN1@assign:

; 1177 : 		}

  0011c	48 8d a5 d8 00
	00 00		 lea	 rsp, QWORD PTR [rbp+216]
  00123	5f		 pop	 rdi
  00124	5d		 pop	 rbp
  00125	c3		 ret	 0
?assign@?$basic_string@_WU?$char_traits@_W@std@@V?$allocator@_W@2@@std@@QEAAAEAV12@PEB_W_K@Z ENDP ; std::basic_string<wchar_t,std::char_traits<wchar_t>,std::allocator<wchar_t> >::assign
_TEXT	ENDS
; Function compile flags: /Odtp /RTCsu /ZI
; File c:\program files (x86)\microsoft visual studio 14.0\vc\include\xstring
;	COMDAT ?assign@?$basic_string@_WU?$char_traits@_W@std@@V?$allocator@_W@2@@std@@QEAAAEAV12@AEBV12@_K1@Z
_TEXT	SEGMENT
tv92 = 192
this$ = 240
_Right$ = 248
_Roff$ = 256
_Count$ = 264
?assign@?$basic_string@_WU?$char_traits@_W@std@@V?$allocator@_W@2@@std@@QEAAAEAV12@AEBV12@_K1@Z PROC ; std::basic_string<wchar_t,std::char_traits<wchar_t>,std::allocator<wchar_t> >::assign, COMDAT

; 1149 : 		{	// assign _Right [_Roff, _Roff + _Count)

$LN6:
  00000	4c 89 4c 24 20	 mov	 QWORD PTR [rsp+32], r9
  00005	4c 89 44 24 18	 mov	 QWORD PTR [rsp+24], r8
  0000a	48 89 54 24 10	 mov	 QWORD PTR [rsp+16], rdx
  0000f	48 89 4c 24 08	 mov	 QWORD PTR [rsp+8], rcx
  00014	55		 push	 rbp
  00015	57		 push	 rdi
  00016	48 81 ec f8 00
	00 00		 sub	 rsp, 248		; 000000f8H
  0001d	48 8d 6c 24 20	 lea	 rbp, QWORD PTR [rsp+32]
  00022	48 8b fc	 mov	 rdi, rsp
  00025	b9 3e 00 00 00	 mov	 ecx, 62			; 0000003eH
  0002a	b8 cc cc cc cc	 mov	 eax, -858993460		; ccccccccH
  0002f	f3 ab		 rep stosd
  00031	48 8b 8c 24 18
	01 00 00	 mov	 rcx, QWORD PTR [rsp+280]

; 1150 : 		_Right._Check_offset(_Roff);

  00039	48 8b 95 00 01
	00 00		 mov	 rdx, QWORD PTR _Roff$[rbp]
  00040	48 8b 8d f8 00
	00 00		 mov	 rcx, QWORD PTR _Right$[rbp]
  00047	e8 00 00 00 00	 call	 ?_Check_offset@?$basic_string@_WU?$char_traits@_W@std@@V?$allocator@_W@2@@std@@QEBAX_K@Z ; std::basic_string<wchar_t,std::char_traits<wchar_t>,std::allocator<wchar_t> >::_Check_offset

; 1151 : 		_Count = _Right._Clamp_suffix_size(_Roff, _Count);

  0004c	4c 8b 85 08 01
	00 00		 mov	 r8, QWORD PTR _Count$[rbp]
  00053	48 8b 95 00 01
	00 00		 mov	 rdx, QWORD PTR _Roff$[rbp]
  0005a	48 8b 8d f8 00
	00 00		 mov	 rcx, QWORD PTR _Right$[rbp]
  00061	e8 00 00 00 00	 call	 ?_Clamp_suffix_size@?$basic_string@_WU?$char_traits@_W@std@@V?$allocator@_W@2@@std@@QEBA_K_K0@Z ; std::basic_string<wchar_t,std::char_traits<wchar_t>,std::allocator<wchar_t> >::_Clamp_suffix_size
  00066	48 89 85 08 01
	00 00		 mov	 QWORD PTR _Count$[rbp], rax

; 1152 : 
; 1153 : 		if (this == &_Right)

  0006d	48 8b 85 f8 00
	00 00		 mov	 rax, QWORD PTR _Right$[rbp]
  00074	48 39 85 f0 00
	00 00		 cmp	 QWORD PTR this$[rbp], rax
  0007b	75 3a		 jne	 SHORT $LN2@assign

; 1154 : 			erase((size_type)(_Roff + _Count)), erase(0, _Roff);	// substring

  0007d	48 8b 85 08 01
	00 00		 mov	 rax, QWORD PTR _Count$[rbp]
  00084	48 8b 8d 00 01
	00 00		 mov	 rcx, QWORD PTR _Roff$[rbp]
  0008b	48 03 c8	 add	 rcx, rax
  0008e	48 8b c1	 mov	 rax, rcx
  00091	48 8b d0	 mov	 rdx, rax
  00094	48 8b 8d f0 00
	00 00		 mov	 rcx, QWORD PTR this$[rbp]
  0009b	e8 00 00 00 00	 call	 ?erase@?$basic_string@_WU?$char_traits@_W@std@@V?$allocator@_W@2@@std@@QEAAAEAV12@_K@Z ; std::basic_string<wchar_t,std::char_traits<wchar_t>,std::allocator<wchar_t> >::erase
  000a0	4c 8b 85 00 01
	00 00		 mov	 r8, QWORD PTR _Roff$[rbp]
  000a7	33 d2		 xor	 edx, edx
  000a9	48 8b 8d f0 00
	00 00		 mov	 rcx, QWORD PTR this$[rbp]
  000b0	e8 00 00 00 00	 call	 ?erase@?$basic_string@_WU?$char_traits@_W@std@@V?$allocator@_W@2@@std@@QEAAAEAV12@_K0@Z ; std::basic_string<wchar_t,std::char_traits<wchar_t>,std::allocator<wchar_t> >::erase
  000b5	eb 73		 jmp	 SHORT $LN3@assign
$LN2@assign:

; 1155 : 		else if (_Grow(_Count))

  000b7	45 33 c0	 xor	 r8d, r8d
  000ba	48 8b 95 08 01
	00 00		 mov	 rdx, QWORD PTR _Count$[rbp]
  000c1	48 8b 8d f0 00
	00 00		 mov	 rcx, QWORD PTR this$[rbp]
  000c8	e8 00 00 00 00	 call	 ?_Grow@?$basic_string@_WU?$char_traits@_W@std@@V?$allocator@_W@2@@std@@QEAA_N_K_N@Z ; std::basic_string<wchar_t,std::char_traits<wchar_t>,std::allocator<wchar_t> >::_Grow
  000cd	0f b6 c0	 movzx	 eax, al
  000d0	85 c0		 test	 eax, eax
  000d2	74 56		 je	 SHORT $LN4@assign

; 1156 : 			{	// make room and assign new stuff
; 1157 : 			_Traits::copy(this->_Myptr(),

  000d4	48 8b 8d f8 00
	00 00		 mov	 rcx, QWORD PTR _Right$[rbp]
  000db	e8 00 00 00 00	 call	 ?_Myptr@?$_String_alloc@U?$_String_base_types@_WV?$allocator@_W@std@@@std@@@std@@QEBAPEB_WXZ ; std::_String_alloc<std::_String_base_types<wchar_t,std::allocator<wchar_t> > >::_Myptr
  000e0	48 8b 8d 00 01
	00 00		 mov	 rcx, QWORD PTR _Roff$[rbp]
  000e7	48 8d 04 48	 lea	 rax, QWORD PTR [rax+rcx*2]
  000eb	48 89 85 c0 00
	00 00		 mov	 QWORD PTR tv92[rbp], rax
  000f2	48 8b 8d f0 00
	00 00		 mov	 rcx, QWORD PTR this$[rbp]
  000f9	e8 00 00 00 00	 call	 ?_Myptr@?$_String_alloc@U?$_String_base_types@_WV?$allocator@_W@std@@@std@@@std@@QEAAPEA_WXZ ; std::_String_alloc<std::_String_base_types<wchar_t,std::allocator<wchar_t> > >::_Myptr
  000fe	4c 8b 85 08 01
	00 00		 mov	 r8, QWORD PTR _Count$[rbp]
  00105	48 8b 8d c0 00
	00 00		 mov	 rcx, QWORD PTR tv92[rbp]
  0010c	48 8b d1	 mov	 rdx, rcx
  0010f	48 8b c8	 mov	 rcx, rax
  00112	e8 00 00 00 00	 call	 ?copy@?$char_traits@_W@std@@SAPEA_WPEA_WPEB_W_K@Z ; std::char_traits<wchar_t>::copy

; 1158 : 				_Right._Myptr() + _Roff, _Count);
; 1159 : 			_Eos(_Count);

  00117	48 8b 95 08 01
	00 00		 mov	 rdx, QWORD PTR _Count$[rbp]
  0011e	48 8b 8d f0 00
	00 00		 mov	 rcx, QWORD PTR this$[rbp]
  00125	e8 00 00 00 00	 call	 ?_Eos@?$basic_string@_WU?$char_traits@_W@std@@V?$allocator@_W@2@@std@@QEAAX_K@Z ; std::basic_string<wchar_t,std::char_traits<wchar_t>,std::allocator<wchar_t> >::_Eos
$LN4@assign:
$LN3@assign:

; 1160 : 			}
; 1161 : 		return (*this);

  0012a	48 8b 85 f0 00
	00 00		 mov	 rax, QWORD PTR this$[rbp]

; 1162 : 		}

  00131	48 8d a5 d8 00
	00 00		 lea	 rsp, QWORD PTR [rbp+216]
  00138	5f		 pop	 rdi
  00139	5d		 pop	 rbp
  0013a	c3		 ret	 0
?assign@?$basic_string@_WU?$char_traits@_W@std@@V?$allocator@_W@2@@std@@QEAAAEAV12@AEBV12@_K1@Z ENDP ; std::basic_string<wchar_t,std::char_traits<wchar_t>,std::allocator<wchar_t> >::assign
_TEXT	ENDS
; Function compile flags: /Odtp /RTCsu /ZI
; File c:\program files (x86)\microsoft visual studio 14.0\vc\include\xstring
;	COMDAT ??0?$basic_string@_WU?$char_traits@_W@std@@V?$allocator@_W@2@@std@@QEAA@PEB_W@Z
_TEXT	SEGMENT
$T1 = 200
this$ = 256
_Ptr$ = 264
??0?$basic_string@_WU?$char_traits@_W@std@@V?$allocator@_W@2@@std@@QEAA@PEB_W@Z PROC ; std::basic_string<wchar_t,std::char_traits<wchar_t>,std::allocator<wchar_t> >::basic_string<wchar_t,std::char_traits<wchar_t>,std::allocator<wchar_t> >, COMDAT

; 836  : 		{	// construct from [_Ptr, <null>)

$LN4:
  00000	48 89 54 24 10	 mov	 QWORD PTR [rsp+16], rdx
  00005	48 89 4c 24 08	 mov	 QWORD PTR [rsp+8], rcx
  0000a	55		 push	 rbp
  0000b	57		 push	 rdi
  0000c	48 81 ec 08 01
	00 00		 sub	 rsp, 264		; 00000108H
  00013	48 8d 6c 24 20	 lea	 rbp, QWORD PTR [rsp+32]
  00018	48 8b fc	 mov	 rdi, rsp
  0001b	b9 42 00 00 00	 mov	 ecx, 66			; 00000042H
  00020	b8 cc cc cc cc	 mov	 eax, -858993460		; ccccccccH
  00025	f3 ab		 rep stosd
  00027	48 8b 8c 24 28
	01 00 00	 mov	 rcx, QWORD PTR [rsp+296]
  0002f	48 c7 85 c8 00
	00 00 fe ff ff
	ff		 mov	 QWORD PTR $T1[rbp], -2

; 835  : 		: _Mybase()

  0003a	48 8b 8d 00 01
	00 00		 mov	 rcx, QWORD PTR this$[rbp]
  00041	e8 00 00 00 00	 call	 ??0?$_String_alloc@U?$_String_base_types@_WV?$allocator@_W@std@@@std@@@std@@QEAA@XZ ; std::_String_alloc<std::_String_base_types<wchar_t,std::allocator<wchar_t> > >::_String_alloc<std::_String_base_types<wchar_t,std::allocator<wchar_t> > >
  00046	90		 npad	 1

; 837  : 		_Tidy();

  00047	45 33 c0	 xor	 r8d, r8d
  0004a	33 d2		 xor	 edx, edx
  0004c	48 8b 8d 00 01
	00 00		 mov	 rcx, QWORD PTR this$[rbp]
  00053	e8 00 00 00 00	 call	 ?_Tidy@?$basic_string@_WU?$char_traits@_W@std@@V?$allocator@_W@2@@std@@QEAAX_N_K@Z ; std::basic_string<wchar_t,std::char_traits<wchar_t>,std::allocator<wchar_t> >::_Tidy

; 838  : 		assign(_Ptr);

  00058	48 8b 95 08 01
	00 00		 mov	 rdx, QWORD PTR _Ptr$[rbp]
  0005f	48 8b 8d 00 01
	00 00		 mov	 rcx, QWORD PTR this$[rbp]
  00066	e8 00 00 00 00	 call	 ?assign@?$basic_string@_WU?$char_traits@_W@std@@V?$allocator@_W@2@@std@@QEAAAEAV12@PEB_W@Z ; std::basic_string<wchar_t,std::char_traits<wchar_t>,std::allocator<wchar_t> >::assign
  0006b	90		 npad	 1

; 839  : 		}

  0006c	48 8b 85 00 01
	00 00		 mov	 rax, QWORD PTR this$[rbp]
  00073	48 8d a5 e8 00
	00 00		 lea	 rsp, QWORD PTR [rbp+232]
  0007a	5f		 pop	 rdi
  0007b	5d		 pop	 rbp
  0007c	c3		 ret	 0
??0?$basic_string@_WU?$char_traits@_W@std@@V?$allocator@_W@2@@std@@QEAA@PEB_W@Z ENDP ; std::basic_string<wchar_t,std::char_traits<wchar_t>,std::allocator<wchar_t> >::basic_string<wchar_t,std::char_traits<wchar_t>,std::allocator<wchar_t> >
_TEXT	ENDS
;	COMDAT text$x
text$x	SEGMENT
$T1 = 200
this$ = 256
_Ptr$ = 264
?dtor$0@?0???0?$basic_string@_WU?$char_traits@_W@std@@V?$allocator@_W@2@@std@@QEAA@PEB_W@Z@4HA PROC ; `std::basic_string<wchar_t,std::char_traits<wchar_t>,std::allocator<wchar_t> >::basic_string<wchar_t,std::char_traits<wchar_t>,std::allocator<wchar_t> >'::`1'::dtor$0
  00000	48 89 4c 24 08	 mov	 QWORD PTR [rsp+8], rcx
  00005	48 89 54 24 10	 mov	 QWORD PTR [rsp+16], rdx
  0000a	55		 push	 rbp
  0000b	57		 push	 rdi
  0000c	48 83 ec 28	 sub	 rsp, 40			; 00000028H
  00010	48 8d 6a 20	 lea	 rbp, QWORD PTR [rdx+32]
  00014	48 8b 8d 00 01
	00 00		 mov	 rcx, QWORD PTR this$[rbp]
  0001b	e8 00 00 00 00	 call	 ??1?$_String_alloc@U?$_String_base_types@_WV?$allocator@_W@std@@@std@@@std@@QEAA@XZ ; std::_String_alloc<std::_String_base_types<wchar_t,std::allocator<wchar_t> > >::~_String_alloc<std::_String_base_types<wchar_t,std::allocator<wchar_t> > >
  00020	48 83 c4 28	 add	 rsp, 40			; 00000028H
  00024	5f		 pop	 rdi
  00025	5d		 pop	 rbp
  00026	c3		 ret	 0
?dtor$0@?0???0?$basic_string@_WU?$char_traits@_W@std@@V?$allocator@_W@2@@std@@QEAA@PEB_W@Z@4HA ENDP ; `std::basic_string<wchar_t,std::char_traits<wchar_t>,std::allocator<wchar_t> >::basic_string<wchar_t,std::char_traits<wchar_t>,std::allocator<wchar_t> >'::`1'::dtor$0
text$x	ENDS
; Function compile flags: /Odtp /RTCsu /ZI
;	COMDAT text$x
text$x	SEGMENT
$T1 = 200
this$ = 256
_Ptr$ = 264
?dtor$0@?0???0?$basic_string@_WU?$char_traits@_W@std@@V?$allocator@_W@2@@std@@QEAA@PEB_W@Z@4HA PROC ; `std::basic_string<wchar_t,std::char_traits<wchar_t>,std::allocator<wchar_t> >::basic_string<wchar_t,std::char_traits<wchar_t>,std::allocator<wchar_t> >'::`1'::dtor$0
  00000	48 89 4c 24 08	 mov	 QWORD PTR [rsp+8], rcx
  00005	48 89 54 24 10	 mov	 QWORD PTR [rsp+16], rdx
  0000a	55		 push	 rbp
  0000b	57		 push	 rdi
  0000c	48 83 ec 28	 sub	 rsp, 40			; 00000028H
  00010	48 8d 6a 20	 lea	 rbp, QWORD PTR [rdx+32]
  00014	48 8b 8d 00 01
	00 00		 mov	 rcx, QWORD PTR this$[rbp]
  0001b	e8 00 00 00 00	 call	 ??1?$_String_alloc@U?$_String_base_types@_WV?$allocator@_W@std@@@std@@@std@@QEAA@XZ ; std::_String_alloc<std::_String_base_types<wchar_t,std::allocator<wchar_t> > >::~_String_alloc<std::_String_base_types<wchar_t,std::allocator<wchar_t> > >
  00020	48 83 c4 28	 add	 rsp, 40			; 00000028H
  00024	5f		 pop	 rdi
  00025	5d		 pop	 rbp
  00026	c3		 ret	 0
?dtor$0@?0???0?$basic_string@_WU?$char_traits@_W@std@@V?$allocator@_W@2@@std@@QEAA@PEB_W@Z@4HA ENDP ; `std::basic_string<wchar_t,std::char_traits<wchar_t>,std::allocator<wchar_t> >::basic_string<wchar_t,std::char_traits<wchar_t>,std::allocator<wchar_t> >'::`1'::dtor$0
text$x	ENDS
; Function compile flags: /Odtp /RTCsu /ZI
;	COMDAT ??1?$_Compressed_pair@U?$_Wrap_alloc@V?$allocator@_W@std@@@std@@V?$_String_val@U?$_Simple_types@_W@std@@@2@$00@std@@QEAA@XZ
_TEXT	SEGMENT
this$ = 224
??1?$_Compressed_pair@U?$_Wrap_alloc@V?$allocator@_W@std@@@std@@V?$_String_val@U?$_Simple_types@_W@std@@@2@$00@std@@QEAA@XZ PROC ; std::_Compressed_pair<std::_Wrap_alloc<std::allocator<wchar_t> >,std::_String_val<std::_Simple_types<wchar_t> >,1>::~_Compressed_pair<std::_Wrap_alloc<std::allocator<wchar_t> >,std::_String_val<std::_Simple_types<wchar_t> >,1>, COMDAT
$LN3:
  00000	48 89 4c 24 08	 mov	 QWORD PTR [rsp+8], rcx
  00005	55		 push	 rbp
  00006	57		 push	 rdi
  00007	48 81 ec e8 00
	00 00		 sub	 rsp, 232		; 000000e8H
  0000e	48 8d 6c 24 20	 lea	 rbp, QWORD PTR [rsp+32]
  00013	48 8b fc	 mov	 rdi, rsp
  00016	b9 3a 00 00 00	 mov	 ecx, 58			; 0000003aH
  0001b	b8 cc cc cc cc	 mov	 eax, -858993460		; ccccccccH
  00020	f3 ab		 rep stosd
  00022	48 8b 8c 24 08
	01 00 00	 mov	 rcx, QWORD PTR [rsp+264]
  0002a	48 8b 85 e0 00
	00 00		 mov	 rax, QWORD PTR this$[rbp]
  00031	48 8b c8	 mov	 rcx, rax
  00034	e8 00 00 00 00	 call	 ??1?$_String_val@U?$_Simple_types@_W@std@@@std@@QEAA@XZ
  00039	48 8d a5 c8 00
	00 00		 lea	 rsp, QWORD PTR [rbp+200]
  00040	5f		 pop	 rdi
  00041	5d		 pop	 rbp
  00042	c3		 ret	 0
??1?$_Compressed_pair@U?$_Wrap_alloc@V?$allocator@_W@std@@@std@@V?$_String_val@U?$_Simple_types@_W@std@@@2@$00@std@@QEAA@XZ ENDP ; std::_Compressed_pair<std::_Wrap_alloc<std::allocator<wchar_t> >,std::_String_val<std::_Simple_types<wchar_t> >,1>::~_Compressed_pair<std::_Wrap_alloc<std::allocator<wchar_t> >,std::_String_val<std::_Simple_types<wchar_t> >,1>
_TEXT	ENDS
; Function compile flags: /Odtp /RTCsu /ZI
; File c:\program files (x86)\microsoft visual studio 14.0\vc\include\xutility
;	COMDAT ?_Get_second@?$_Compressed_pair@U?$_Wrap_alloc@V?$allocator@_W@std@@@std@@V?$_String_val@U?$_Simple_types@_W@std@@@2@$00@std@@QEBAAEBV?$_String_val@U?$_Simple_types@_W@std@@@2@XZ
_TEXT	SEGMENT
this$ = 224
?_Get_second@?$_Compressed_pair@U?$_Wrap_alloc@V?$allocator@_W@std@@@std@@V?$_String_val@U?$_Simple_types@_W@std@@@2@$00@std@@QEBAAEBV?$_String_val@U?$_Simple_types@_W@std@@@2@XZ PROC ; std::_Compressed_pair<std::_Wrap_alloc<std::allocator<wchar_t> >,std::_String_val<std::_Simple_types<wchar_t> >,1>::_Get_second, COMDAT

; 319  : 		{	// return const reference to second

$LN3:
  00000	48 89 4c 24 08	 mov	 QWORD PTR [rsp+8], rcx
  00005	55		 push	 rbp
  00006	57		 push	 rdi
  00007	48 81 ec c8 00
	00 00		 sub	 rsp, 200		; 000000c8H
  0000e	48 8b ec	 mov	 rbp, rsp
  00011	48 8b fc	 mov	 rdi, rsp
  00014	b9 32 00 00 00	 mov	 ecx, 50			; 00000032H
  00019	b8 cc cc cc cc	 mov	 eax, -858993460		; ccccccccH
  0001e	f3 ab		 rep stosd
  00020	48 8b 8c 24 e8
	00 00 00	 mov	 rcx, QWORD PTR [rsp+232]

; 320  : 		return (_Myval2);

  00028	48 8b 85 e0 00
	00 00		 mov	 rax, QWORD PTR this$[rbp]

; 321  : 		}

  0002f	48 8d a5 c8 00
	00 00		 lea	 rsp, QWORD PTR [rbp+200]
  00036	5f		 pop	 rdi
  00037	5d		 pop	 rbp
  00038	c3		 ret	 0
?_Get_second@?$_Compressed_pair@U?$_Wrap_alloc@V?$allocator@_W@std@@@std@@V?$_String_val@U?$_Simple_types@_W@std@@@2@$00@std@@QEBAAEBV?$_String_val@U?$_Simple_types@_W@std@@@2@XZ ENDP ; std::_Compressed_pair<std::_Wrap_alloc<std::allocator<wchar_t> >,std::_String_val<std::_Simple_types<wchar_t> >,1>::_Get_second
_TEXT	ENDS
; Function compile flags: /Odtp /RTCsu /ZI
; File c:\program files (x86)\microsoft visual studio 14.0\vc\include\xutility
;	COMDAT ?_Get_second@?$_Compressed_pair@U?$_Wrap_alloc@V?$allocator@_W@std@@@std@@V?$_String_val@U?$_Simple_types@_W@std@@@2@$00@std@@QEAAAEAV?$_String_val@U?$_Simple_types@_W@std@@@2@XZ
_TEXT	SEGMENT
this$ = 224
?_Get_second@?$_Compressed_pair@U?$_Wrap_alloc@V?$allocator@_W@std@@@std@@V?$_String_val@U?$_Simple_types@_W@std@@@2@$00@std@@QEAAAEAV?$_String_val@U?$_Simple_types@_W@std@@@2@XZ PROC ; std::_Compressed_pair<std::_Wrap_alloc<std::allocator<wchar_t> >,std::_String_val<std::_Simple_types<wchar_t> >,1>::_Get_second, COMDAT

; 314  : 		{	// return reference to second

$LN3:
  00000	48 89 4c 24 08	 mov	 QWORD PTR [rsp+8], rcx
  00005	55		 push	 rbp
  00006	57		 push	 rdi
  00007	48 81 ec c8 00
	00 00		 sub	 rsp, 200		; 000000c8H
  0000e	48 8b ec	 mov	 rbp, rsp
  00011	48 8b fc	 mov	 rdi, rsp
  00014	b9 32 00 00 00	 mov	 ecx, 50			; 00000032H
  00019	b8 cc cc cc cc	 mov	 eax, -858993460		; ccccccccH
  0001e	f3 ab		 rep stosd
  00020	48 8b 8c 24 e8
	00 00 00	 mov	 rcx, QWORD PTR [rsp+232]

; 315  : 		return (_Myval2);

  00028	48 8b 85 e0 00
	00 00		 mov	 rax, QWORD PTR this$[rbp]

; 316  : 		}

  0002f	48 8d a5 c8 00
	00 00		 lea	 rsp, QWORD PTR [rbp+200]
  00036	5f		 pop	 rdi
  00037	5d		 pop	 rbp
  00038	c3		 ret	 0
?_Get_second@?$_Compressed_pair@U?$_Wrap_alloc@V?$allocator@_W@std@@@std@@V?$_String_val@U?$_Simple_types@_W@std@@@2@$00@std@@QEAAAEAV?$_String_val@U?$_Simple_types@_W@std@@@2@XZ ENDP ; std::_Compressed_pair<std::_Wrap_alloc<std::allocator<wchar_t> >,std::_String_val<std::_Simple_types<wchar_t> >,1>::_Get_second
_TEXT	ENDS
; Function compile flags: /Odtp /RTCsu /ZI
; File c:\program files (x86)\microsoft visual studio 14.0\vc\include\xutility
;	COMDAT ?_Get_first@?$_Compressed_pair@U?$_Wrap_alloc@V?$allocator@_W@std@@@std@@V?$_String_val@U?$_Simple_types@_W@std@@@2@$00@std@@QEBAAEBU?$_Wrap_alloc@V?$allocator@_W@std@@@2@XZ
_TEXT	SEGMENT
this$ = 224
?_Get_first@?$_Compressed_pair@U?$_Wrap_alloc@V?$allocator@_W@std@@@std@@V?$_String_val@U?$_Simple_types@_W@std@@@2@$00@std@@QEBAAEBU?$_Wrap_alloc@V?$allocator@_W@std@@@2@XZ PROC ; std::_Compressed_pair<std::_Wrap_alloc<std::allocator<wchar_t> >,std::_String_val<std::_Simple_types<wchar_t> >,1>::_Get_first, COMDAT

; 299  : 		{	// return const reference to first

$LN3:
  00000	48 89 4c 24 08	 mov	 QWORD PTR [rsp+8], rcx
  00005	55		 push	 rbp
  00006	57		 push	 rdi
  00007	48 81 ec c8 00
	00 00		 sub	 rsp, 200		; 000000c8H
  0000e	48 8b ec	 mov	 rbp, rsp
  00011	48 8b fc	 mov	 rdi, rsp
  00014	b9 32 00 00 00	 mov	 ecx, 50			; 00000032H
  00019	b8 cc cc cc cc	 mov	 eax, -858993460		; ccccccccH
  0001e	f3 ab		 rep stosd
  00020	48 8b 8c 24 e8
	00 00 00	 mov	 rcx, QWORD PTR [rsp+232]

; 300  : 		return (*this);

  00028	48 8b 85 e0 00
	00 00		 mov	 rax, QWORD PTR this$[rbp]

; 301  : 		}

  0002f	48 8d a5 c8 00
	00 00		 lea	 rsp, QWORD PTR [rbp+200]
  00036	5f		 pop	 rdi
  00037	5d		 pop	 rbp
  00038	c3		 ret	 0
?_Get_first@?$_Compressed_pair@U?$_Wrap_alloc@V?$allocator@_W@std@@@std@@V?$_String_val@U?$_Simple_types@_W@std@@@2@$00@std@@QEBAAEBU?$_Wrap_alloc@V?$allocator@_W@std@@@2@XZ ENDP ; std::_Compressed_pair<std::_Wrap_alloc<std::allocator<wchar_t> >,std::_String_val<std::_Simple_types<wchar_t> >,1>::_Get_first
_TEXT	ENDS
; Function compile flags: /Odtp /RTCsu /ZI
; File c:\program files (x86)\microsoft visual studio 14.0\vc\include\xutility
;	COMDAT ?_Get_first@?$_Compressed_pair@U?$_Wrap_alloc@V?$allocator@_W@std@@@std@@V?$_String_val@U?$_Simple_types@_W@std@@@2@$00@std@@QEAAAEAU?$_Wrap_alloc@V?$allocator@_W@std@@@2@XZ
_TEXT	SEGMENT
this$ = 224
?_Get_first@?$_Compressed_pair@U?$_Wrap_alloc@V?$allocator@_W@std@@@std@@V?$_String_val@U?$_Simple_types@_W@std@@@2@$00@std@@QEAAAEAU?$_Wrap_alloc@V?$allocator@_W@std@@@2@XZ PROC ; std::_Compressed_pair<std::_Wrap_alloc<std::allocator<wchar_t> >,std::_String_val<std::_Simple_types<wchar_t> >,1>::_Get_first, COMDAT

; 294  : 		{	// return reference to first

$LN3:
  00000	48 89 4c 24 08	 mov	 QWORD PTR [rsp+8], rcx
  00005	55		 push	 rbp
  00006	57		 push	 rdi
  00007	48 81 ec c8 00
	00 00		 sub	 rsp, 200		; 000000c8H
  0000e	48 8b ec	 mov	 rbp, rsp
  00011	48 8b fc	 mov	 rdi, rsp
  00014	b9 32 00 00 00	 mov	 ecx, 50			; 00000032H
  00019	b8 cc cc cc cc	 mov	 eax, -858993460		; ccccccccH
  0001e	f3 ab		 rep stosd
  00020	48 8b 8c 24 e8
	00 00 00	 mov	 rcx, QWORD PTR [rsp+232]

; 295  : 		return (*this);

  00028	48 8b 85 e0 00
	00 00		 mov	 rax, QWORD PTR this$[rbp]

; 296  : 		}

  0002f	48 8d a5 c8 00
	00 00		 lea	 rsp, QWORD PTR [rbp+200]
  00036	5f		 pop	 rdi
  00037	5d		 pop	 rbp
  00038	c3		 ret	 0
?_Get_first@?$_Compressed_pair@U?$_Wrap_alloc@V?$allocator@_W@std@@@std@@V?$_String_val@U?$_Simple_types@_W@std@@@2@$00@std@@QEAAAEAU?$_Wrap_alloc@V?$allocator@_W@std@@@2@XZ ENDP ; std::_Compressed_pair<std::_Wrap_alloc<std::allocator<wchar_t> >,std::_String_val<std::_Simple_types<wchar_t> >,1>::_Get_first
_TEXT	ENDS
; Function compile flags: /Odtp /RTCsu /ZI
; File c:\program files (x86)\microsoft visual studio 14.0\vc\include\xstring
;	COMDAT ?_Myres@?$_String_alloc@U?$_String_base_types@_WV?$allocator@_W@std@@@std@@@std@@QEAAAEA_KXZ
_TEXT	SEGMENT
this$ = 224
?_Myres@?$_String_alloc@U?$_String_base_types@_WV?$allocator@_W@std@@@std@@@std@@QEAAAEA_KXZ PROC ; std::_String_alloc<std::_String_base_types<wchar_t,std::allocator<wchar_t> > >::_Myres, COMDAT

; 733  : 		{	// return reference to _Myres

$LN3:
  00000	48 89 4c 24 08	 mov	 QWORD PTR [rsp+8], rcx
  00005	55		 push	 rbp
  00006	57		 push	 rdi
  00007	48 81 ec e8 00
	00 00		 sub	 rsp, 232		; 000000e8H
  0000e	48 8d 6c 24 20	 lea	 rbp, QWORD PTR [rsp+32]
  00013	48 8b fc	 mov	 rdi, rsp
  00016	b9 3a 00 00 00	 mov	 ecx, 58			; 0000003aH
  0001b	b8 cc cc cc cc	 mov	 eax, -858993460		; ccccccccH
  00020	f3 ab		 rep stosd
  00022	48 8b 8c 24 08
	01 00 00	 mov	 rcx, QWORD PTR [rsp+264]

; 734  : 		return (_Get_data()._Myres);

  0002a	48 8b 8d e0 00
	00 00		 mov	 rcx, QWORD PTR this$[rbp]
  00031	e8 00 00 00 00	 call	 ?_Get_data@?$_String_alloc@U?$_String_base_types@_WV?$allocator@_W@std@@@std@@@std@@QEAAAEAV?$_String_val@U?$_Simple_types@_W@std@@@2@XZ ; std::_String_alloc<std::_String_base_types<wchar_t,std::allocator<wchar_t> > >::_Get_data
  00036	48 83 c0 20	 add	 rax, 32			; 00000020H

; 735  : 		}

  0003a	48 8d a5 c8 00
	00 00		 lea	 rsp, QWORD PTR [rbp+200]
  00041	5f		 pop	 rdi
  00042	5d		 pop	 rbp
  00043	c3		 ret	 0
?_Myres@?$_String_alloc@U?$_String_base_types@_WV?$allocator@_W@std@@@std@@@std@@QEAAAEA_KXZ ENDP ; std::_String_alloc<std::_String_base_types<wchar_t,std::allocator<wchar_t> > >::_Myres
_TEXT	ENDS
; Function compile flags: /Odtp /RTCsu /ZI
; File c:\program files (x86)\microsoft visual studio 14.0\vc\include\xstring
;	COMDAT ?_Mysize@?$_String_alloc@U?$_String_base_types@_WV?$allocator@_W@std@@@std@@@std@@QEBAAEB_KXZ
_TEXT	SEGMENT
this$ = 224
?_Mysize@?$_String_alloc@U?$_String_base_types@_WV?$allocator@_W@std@@@std@@@std@@QEBAAEB_KXZ PROC ; std::_String_alloc<std::_String_base_types<wchar_t,std::allocator<wchar_t> > >::_Mysize, COMDAT

; 728  : 		{	// return const reference to _Mysize

$LN3:
  00000	48 89 4c 24 08	 mov	 QWORD PTR [rsp+8], rcx
  00005	55		 push	 rbp
  00006	57		 push	 rdi
  00007	48 81 ec e8 00
	00 00		 sub	 rsp, 232		; 000000e8H
  0000e	48 8d 6c 24 20	 lea	 rbp, QWORD PTR [rsp+32]
  00013	48 8b fc	 mov	 rdi, rsp
  00016	b9 3a 00 00 00	 mov	 ecx, 58			; 0000003aH
  0001b	b8 cc cc cc cc	 mov	 eax, -858993460		; ccccccccH
  00020	f3 ab		 rep stosd
  00022	48 8b 8c 24 08
	01 00 00	 mov	 rcx, QWORD PTR [rsp+264]

; 729  : 		return (_Get_data()._Mysize);

  0002a	48 8b 8d e0 00
	00 00		 mov	 rcx, QWORD PTR this$[rbp]
  00031	e8 00 00 00 00	 call	 ?_Get_data@?$_String_alloc@U?$_String_base_types@_WV?$allocator@_W@std@@@std@@@std@@QEBAAEBV?$_String_val@U?$_Simple_types@_W@std@@@2@XZ ; std::_String_alloc<std::_String_base_types<wchar_t,std::allocator<wchar_t> > >::_Get_data
  00036	48 83 c0 18	 add	 rax, 24

; 730  : 		}

  0003a	48 8d a5 c8 00
	00 00		 lea	 rsp, QWORD PTR [rbp+200]
  00041	5f		 pop	 rdi
  00042	5d		 pop	 rbp
  00043	c3		 ret	 0
?_Mysize@?$_String_alloc@U?$_String_base_types@_WV?$allocator@_W@std@@@std@@@std@@QEBAAEB_KXZ ENDP ; std::_String_alloc<std::_String_base_types<wchar_t,std::allocator<wchar_t> > >::_Mysize
_TEXT	ENDS
; Function compile flags: /Odtp /RTCsu /ZI
; File c:\program files (x86)\microsoft visual studio 14.0\vc\include\xstring
;	COMDAT ?_Mysize@?$_String_alloc@U?$_String_base_types@_WV?$allocator@_W@std@@@std@@@std@@QEAAAEA_KXZ
_TEXT	SEGMENT
this$ = 224
?_Mysize@?$_String_alloc@U?$_String_base_types@_WV?$allocator@_W@std@@@std@@@std@@QEAAAEA_KXZ PROC ; std::_String_alloc<std::_String_base_types<wchar_t,std::allocator<wchar_t> > >::_Mysize, COMDAT

; 723  : 		{	// return reference to _Mysize

$LN3:
  00000	48 89 4c 24 08	 mov	 QWORD PTR [rsp+8], rcx
  00005	55		 push	 rbp
  00006	57		 push	 rdi
  00007	48 81 ec e8 00
	00 00		 sub	 rsp, 232		; 000000e8H
  0000e	48 8d 6c 24 20	 lea	 rbp, QWORD PTR [rsp+32]
  00013	48 8b fc	 mov	 rdi, rsp
  00016	b9 3a 00 00 00	 mov	 ecx, 58			; 0000003aH
  0001b	b8 cc cc cc cc	 mov	 eax, -858993460		; ccccccccH
  00020	f3 ab		 rep stosd
  00022	48 8b 8c 24 08
	01 00 00	 mov	 rcx, QWORD PTR [rsp+264]

; 724  : 		return (_Get_data()._Mysize);

  0002a	48 8b 8d e0 00
	00 00		 mov	 rcx, QWORD PTR this$[rbp]
  00031	e8 00 00 00 00	 call	 ?_Get_data@?$_String_alloc@U?$_String_base_types@_WV?$allocator@_W@std@@@std@@@std@@QEAAAEAV?$_String_val@U?$_Simple_types@_W@std@@@2@XZ ; std::_String_alloc<std::_String_base_types<wchar_t,std::allocator<wchar_t> > >::_Get_data
  00036	48 83 c0 18	 add	 rax, 24

; 725  : 		}

  0003a	48 8d a5 c8 00
	00 00		 lea	 rsp, QWORD PTR [rbp+200]
  00041	5f		 pop	 rdi
  00042	5d		 pop	 rbp
  00043	c3		 ret	 0
?_Mysize@?$_String_alloc@U?$_String_base_types@_WV?$allocator@_W@std@@@std@@@std@@QEAAAEA_KXZ ENDP ; std::_String_alloc<std::_String_base_types<wchar_t,std::allocator<wchar_t> > >::_Mysize
_TEXT	ENDS
; Function compile flags: /Odtp /RTCsu /ZI
; File c:\program files (x86)\microsoft visual studio 14.0\vc\include\xstring
;	COMDAT ?_Bx@?$_String_alloc@U?$_String_base_types@_WV?$allocator@_W@std@@@std@@@std@@QEAAAEAT_Bxty@?$_String_val@U?$_Simple_types@_W@std@@@2@XZ
_TEXT	SEGMENT
this$ = 224
?_Bx@?$_String_alloc@U?$_String_base_types@_WV?$allocator@_W@std@@@std@@@std@@QEAAAEAT_Bxty@?$_String_val@U?$_Simple_types@_W@std@@@2@XZ PROC ; std::_String_alloc<std::_String_base_types<wchar_t,std::allocator<wchar_t> > >::_Bx, COMDAT

; 713  : 		{	// return reference to _Bx

$LN3:
  00000	48 89 4c 24 08	 mov	 QWORD PTR [rsp+8], rcx
  00005	55		 push	 rbp
  00006	57		 push	 rdi
  00007	48 81 ec e8 00
	00 00		 sub	 rsp, 232		; 000000e8H
  0000e	48 8d 6c 24 20	 lea	 rbp, QWORD PTR [rsp+32]
  00013	48 8b fc	 mov	 rdi, rsp
  00016	b9 3a 00 00 00	 mov	 ecx, 58			; 0000003aH
  0001b	b8 cc cc cc cc	 mov	 eax, -858993460		; ccccccccH
  00020	f3 ab		 rep stosd
  00022	48 8b 8c 24 08
	01 00 00	 mov	 rcx, QWORD PTR [rsp+264]

; 714  : 		return (_Get_data()._Bx);

  0002a	48 8b 8d e0 00
	00 00		 mov	 rcx, QWORD PTR this$[rbp]
  00031	e8 00 00 00 00	 call	 ?_Get_data@?$_String_alloc@U?$_String_base_types@_WV?$allocator@_W@std@@@std@@@std@@QEAAAEAV?$_String_val@U?$_Simple_types@_W@std@@@2@XZ ; std::_String_alloc<std::_String_base_types<wchar_t,std::allocator<wchar_t> > >::_Get_data
  00036	48 83 c0 08	 add	 rax, 8

; 715  : 		}

  0003a	48 8d a5 c8 00
	00 00		 lea	 rsp, QWORD PTR [rbp+200]
  00041	5f		 pop	 rdi
  00042	5d		 pop	 rbp
  00043	c3		 ret	 0
?_Bx@?$_String_alloc@U?$_String_base_types@_WV?$allocator@_W@std@@@std@@@std@@QEAAAEAT_Bxty@?$_String_val@U?$_Simple_types@_W@std@@@2@XZ ENDP ; std::_String_alloc<std::_String_base_types<wchar_t,std::allocator<wchar_t> > >::_Bx
_TEXT	ENDS
; Function compile flags: /Odtp /RTCsu /ZI
; File c:\program files (x86)\microsoft visual studio 14.0\vc\include\xstring
;	COMDAT ?_Get_data@?$_String_alloc@U?$_String_base_types@_WV?$allocator@_W@std@@@std@@@std@@QEBAAEBV?$_String_val@U?$_Simple_types@_W@std@@@2@XZ
_TEXT	SEGMENT
this$ = 224
?_Get_data@?$_String_alloc@U?$_String_base_types@_WV?$allocator@_W@std@@@std@@@std@@QEBAAEBV?$_String_val@U?$_Simple_types@_W@std@@@2@XZ PROC ; std::_String_alloc<std::_String_base_types<wchar_t,std::allocator<wchar_t> > >::_Get_data, COMDAT

; 706  : 		{	// return const reference to _String_val

$LN3:
  00000	48 89 4c 24 08	 mov	 QWORD PTR [rsp+8], rcx
  00005	55		 push	 rbp
  00006	57		 push	 rdi
  00007	48 81 ec e8 00
	00 00		 sub	 rsp, 232		; 000000e8H
  0000e	48 8d 6c 24 20	 lea	 rbp, QWORD PTR [rsp+32]
  00013	48 8b fc	 mov	 rdi, rsp
  00016	b9 3a 00 00 00	 mov	 ecx, 58			; 0000003aH
  0001b	b8 cc cc cc cc	 mov	 eax, -858993460		; ccccccccH
  00020	f3 ab		 rep stosd
  00022	48 8b 8c 24 08
	01 00 00	 mov	 rcx, QWORD PTR [rsp+264]

; 707  : 		return (_Mypair._Get_second());

  0002a	48 8b 85 e0 00
	00 00		 mov	 rax, QWORD PTR this$[rbp]
  00031	48 8b c8	 mov	 rcx, rax
  00034	e8 00 00 00 00	 call	 ?_Get_second@?$_Compressed_pair@U?$_Wrap_alloc@V?$allocator@_W@std@@@std@@V?$_String_val@U?$_Simple_types@_W@std@@@2@$00@std@@QEBAAEBV?$_String_val@U?$_Simple_types@_W@std@@@2@XZ ; std::_Compressed_pair<std::_Wrap_alloc<std::allocator<wchar_t> >,std::_String_val<std::_Simple_types<wchar_t> >,1>::_Get_second

; 708  : 		}

  00039	48 8d a5 c8 00
	00 00		 lea	 rsp, QWORD PTR [rbp+200]
  00040	5f		 pop	 rdi
  00041	5d		 pop	 rbp
  00042	c3		 ret	 0
?_Get_data@?$_String_alloc@U?$_String_base_types@_WV?$allocator@_W@std@@@std@@@std@@QEBAAEBV?$_String_val@U?$_Simple_types@_W@std@@@2@XZ ENDP ; std::_String_alloc<std::_String_base_types<wchar_t,std::allocator<wchar_t> > >::_Get_data
_TEXT	ENDS
; Function compile flags: /Odtp /RTCsu /ZI
; File c:\program files (x86)\microsoft visual studio 14.0\vc\include\xstring
;	COMDAT ?_Get_data@?$_String_alloc@U?$_String_base_types@_WV?$allocator@_W@std@@@std@@@std@@QEAAAEAV?$_String_val@U?$_Simple_types@_W@std@@@2@XZ
_TEXT	SEGMENT
this$ = 224
?_Get_data@?$_String_alloc@U?$_String_base_types@_WV?$allocator@_W@std@@@std@@@std@@QEAAAEAV?$_String_val@U?$_Simple_types@_W@std@@@2@XZ PROC ; std::_String_alloc<std::_String_base_types<wchar_t,std::allocator<wchar_t> > >::_Get_data, COMDAT

; 701  : 		{	// return reference to _String_val

$LN3:
  00000	48 89 4c 24 08	 mov	 QWORD PTR [rsp+8], rcx
  00005	55		 push	 rbp
  00006	57		 push	 rdi
  00007	48 81 ec e8 00
	00 00		 sub	 rsp, 232		; 000000e8H
  0000e	48 8d 6c 24 20	 lea	 rbp, QWORD PTR [rsp+32]
  00013	48 8b fc	 mov	 rdi, rsp
  00016	b9 3a 00 00 00	 mov	 ecx, 58			; 0000003aH
  0001b	b8 cc cc cc cc	 mov	 eax, -858993460		; ccccccccH
  00020	f3 ab		 rep stosd
  00022	48 8b 8c 24 08
	01 00 00	 mov	 rcx, QWORD PTR [rsp+264]

; 702  : 		return (_Mypair._Get_second());

  0002a	48 8b 85 e0 00
	00 00		 mov	 rax, QWORD PTR this$[rbp]
  00031	48 8b c8	 mov	 rcx, rax
  00034	e8 00 00 00 00	 call	 ?_Get_second@?$_Compressed_pair@U?$_Wrap_alloc@V?$allocator@_W@std@@@std@@V?$_String_val@U?$_Simple_types@_W@std@@@2@$00@std@@QEAAAEAV?$_String_val@U?$_Simple_types@_W@std@@@2@XZ ; std::_Compressed_pair<std::_Wrap_alloc<std::allocator<wchar_t> >,std::_String_val<std::_Simple_types<wchar_t> >,1>::_Get_second

; 703  : 		}

  00039	48 8d a5 c8 00
	00 00		 lea	 rsp, QWORD PTR [rbp+200]
  00040	5f		 pop	 rdi
  00041	5d		 pop	 rbp
  00042	c3		 ret	 0
?_Get_data@?$_String_alloc@U?$_String_base_types@_WV?$allocator@_W@std@@@std@@@std@@QEAAAEAV?$_String_val@U?$_Simple_types@_W@std@@@2@XZ ENDP ; std::_String_alloc<std::_String_base_types<wchar_t,std::allocator<wchar_t> > >::_Get_data
_TEXT	ENDS
; Function compile flags: /Odtp /RTCsu /ZI
; File c:\program files (x86)\microsoft visual studio 14.0\vc\include\xstring
;	COMDAT ?_Getal@?$_String_alloc@U?$_String_base_types@_WV?$allocator@_W@std@@@std@@@std@@QEBAAEBU?$_Wrap_alloc@V?$allocator@_W@std@@@2@XZ
_TEXT	SEGMENT
this$ = 224
?_Getal@?$_String_alloc@U?$_String_base_types@_WV?$allocator@_W@std@@@std@@@std@@QEBAAEBU?$_Wrap_alloc@V?$allocator@_W@std@@@2@XZ PROC ; std::_String_alloc<std::_String_base_types<wchar_t,std::allocator<wchar_t> > >::_Getal, COMDAT

; 696  : 		{	// return const reference to allocator

$LN3:
  00000	48 89 4c 24 08	 mov	 QWORD PTR [rsp+8], rcx
  00005	55		 push	 rbp
  00006	57		 push	 rdi
  00007	48 81 ec e8 00
	00 00		 sub	 rsp, 232		; 000000e8H
  0000e	48 8d 6c 24 20	 lea	 rbp, QWORD PTR [rsp+32]
  00013	48 8b fc	 mov	 rdi, rsp
  00016	b9 3a 00 00 00	 mov	 ecx, 58			; 0000003aH
  0001b	b8 cc cc cc cc	 mov	 eax, -858993460		; ccccccccH
  00020	f3 ab		 rep stosd
  00022	48 8b 8c 24 08
	01 00 00	 mov	 rcx, QWORD PTR [rsp+264]

; 697  : 		return (_Mypair._Get_first());

  0002a	48 8b 85 e0 00
	00 00		 mov	 rax, QWORD PTR this$[rbp]
  00031	48 8b c8	 mov	 rcx, rax
  00034	e8 00 00 00 00	 call	 ?_Get_first@?$_Compressed_pair@U?$_Wrap_alloc@V?$allocator@_W@std@@@std@@V?$_String_val@U?$_Simple_types@_W@std@@@2@$00@std@@QEBAAEBU?$_Wrap_alloc@V?$allocator@_W@std@@@2@XZ ; std::_Compressed_pair<std::_Wrap_alloc<std::allocator<wchar_t> >,std::_String_val<std::_Simple_types<wchar_t> >,1>::_Get_first

; 698  : 		}

  00039	48 8d a5 c8 00
	00 00		 lea	 rsp, QWORD PTR [rbp+200]
  00040	5f		 pop	 rdi
  00041	5d		 pop	 rbp
  00042	c3		 ret	 0
?_Getal@?$_String_alloc@U?$_String_base_types@_WV?$allocator@_W@std@@@std@@@std@@QEBAAEBU?$_Wrap_alloc@V?$allocator@_W@std@@@2@XZ ENDP ; std::_String_alloc<std::_String_base_types<wchar_t,std::allocator<wchar_t> > >::_Getal
_TEXT	ENDS
; Function compile flags: /Odtp /RTCsu /ZI
; File c:\program files (x86)\microsoft visual studio 14.0\vc\include\xstring
;	COMDAT ?_Getal@?$_String_alloc@U?$_String_base_types@_WV?$allocator@_W@std@@@std@@@std@@QEAAAEAU?$_Wrap_alloc@V?$allocator@_W@std@@@2@XZ
_TEXT	SEGMENT
this$ = 224
?_Getal@?$_String_alloc@U?$_String_base_types@_WV?$allocator@_W@std@@@std@@@std@@QEAAAEAU?$_Wrap_alloc@V?$allocator@_W@std@@@2@XZ PROC ; std::_String_alloc<std::_String_base_types<wchar_t,std::allocator<wchar_t> > >::_Getal, COMDAT

; 691  : 		{	// return reference to allocator

$LN3:
  00000	48 89 4c 24 08	 mov	 QWORD PTR [rsp+8], rcx
  00005	55		 push	 rbp
  00006	57		 push	 rdi
  00007	48 81 ec e8 00
	00 00		 sub	 rsp, 232		; 000000e8H
  0000e	48 8d 6c 24 20	 lea	 rbp, QWORD PTR [rsp+32]
  00013	48 8b fc	 mov	 rdi, rsp
  00016	b9 3a 00 00 00	 mov	 ecx, 58			; 0000003aH
  0001b	b8 cc cc cc cc	 mov	 eax, -858993460		; ccccccccH
  00020	f3 ab		 rep stosd
  00022	48 8b 8c 24 08
	01 00 00	 mov	 rcx, QWORD PTR [rsp+264]

; 692  : 		return (_Mypair._Get_first());

  0002a	48 8b 85 e0 00
	00 00		 mov	 rax, QWORD PTR this$[rbp]
  00031	48 8b c8	 mov	 rcx, rax
  00034	e8 00 00 00 00	 call	 ?_Get_first@?$_Compressed_pair@U?$_Wrap_alloc@V?$allocator@_W@std@@@std@@V?$_String_val@U?$_Simple_types@_W@std@@@2@$00@std@@QEAAAEAU?$_Wrap_alloc@V?$allocator@_W@std@@@2@XZ ; std::_Compressed_pair<std::_Wrap_alloc<std::allocator<wchar_t> >,std::_String_val<std::_Simple_types<wchar_t> >,1>::_Get_first

; 693  : 		}

  00039	48 8d a5 c8 00
	00 00		 lea	 rsp, QWORD PTR [rbp+200]
  00040	5f		 pop	 rdi
  00041	5d		 pop	 rbp
  00042	c3		 ret	 0
?_Getal@?$_String_alloc@U?$_String_base_types@_WV?$allocator@_W@std@@@std@@@std@@QEAAAEAU?$_Wrap_alloc@V?$allocator@_W@std@@@2@XZ ENDP ; std::_String_alloc<std::_String_base_types<wchar_t,std::allocator<wchar_t> > >::_Getal
_TEXT	ENDS
; Function compile flags: /Odtp /RTCsu /ZI
; File c:\program files (x86)\microsoft visual studio 14.0\vc\include\xstring
;	COMDAT ?_Orphan_all@?$_String_alloc@U?$_String_base_types@_WV?$allocator@_W@std@@@std@@@std@@QEAAXXZ
_TEXT	SEGMENT
this$ = 224
?_Orphan_all@?$_String_alloc@U?$_String_base_types@_WV?$allocator@_W@std@@@std@@@std@@QEAAXXZ PROC ; std::_String_alloc<std::_String_base_types<wchar_t,std::allocator<wchar_t> > >::_Orphan_all, COMDAT

; 681  : 		{	// orphan all iterators

$LN3:
  00000	48 89 4c 24 08	 mov	 QWORD PTR [rsp+8], rcx
  00005	55		 push	 rbp
  00006	57		 push	 rdi
  00007	48 81 ec e8 00
	00 00		 sub	 rsp, 232		; 000000e8H
  0000e	48 8d 6c 24 20	 lea	 rbp, QWORD PTR [rsp+32]
  00013	48 8b fc	 mov	 rdi, rsp
  00016	b9 3a 00 00 00	 mov	 ecx, 58			; 0000003aH
  0001b	b8 cc cc cc cc	 mov	 eax, -858993460		; ccccccccH
  00020	f3 ab		 rep stosd
  00022	48 8b 8c 24 08
	01 00 00	 mov	 rcx, QWORD PTR [rsp+264]

; 682  : 		_Get_data()._Orphan_all();

  0002a	48 8b 8d e0 00
	00 00		 mov	 rcx, QWORD PTR this$[rbp]
  00031	e8 00 00 00 00	 call	 ?_Get_data@?$_String_alloc@U?$_String_base_types@_WV?$allocator@_W@std@@@std@@@std@@QEAAAEAV?$_String_val@U?$_Simple_types@_W@std@@@2@XZ ; std::_String_alloc<std::_String_base_types<wchar_t,std::allocator<wchar_t> > >::_Get_data
  00036	48 8b c8	 mov	 rcx, rax
  00039	e8 00 00 00 00	 call	 ?_Orphan_all@_Container_base12@std@@QEAAXXZ ; std::_Container_base12::_Orphan_all

; 683  : 		}

  0003e	48 8d a5 c8 00
	00 00		 lea	 rsp, QWORD PTR [rbp+200]
  00045	5f		 pop	 rdi
  00046	5d		 pop	 rbp
  00047	c3		 ret	 0
?_Orphan_all@?$_String_alloc@U?$_String_base_types@_WV?$allocator@_W@std@@@std@@@std@@QEAAXXZ ENDP ; std::_String_alloc<std::_String_base_types<wchar_t,std::allocator<wchar_t> > >::_Orphan_all
_TEXT	ENDS
; Function compile flags: /Odtp /RTCsu /ZI
; File c:\program files (x86)\microsoft visual studio 14.0\vc\include\xstring
;	COMDAT ?_Myproxy@?$_String_alloc@U?$_String_base_types@_WV?$allocator@_W@std@@@std@@@std@@QEAAAEAPEAU_Container_proxy@2@XZ
_TEXT	SEGMENT
this$ = 224
?_Myproxy@?$_String_alloc@U?$_String_base_types@_WV?$allocator@_W@std@@@std@@@std@@QEAAAEAPEAU_Container_proxy@2@XZ PROC ; std::_String_alloc<std::_String_base_types<wchar_t,std::allocator<wchar_t> > >::_Myproxy, COMDAT

; 670  : 		{	// return reference to _Myproxy

$LN3:
  00000	48 89 4c 24 08	 mov	 QWORD PTR [rsp+8], rcx
  00005	55		 push	 rbp
  00006	57		 push	 rdi
  00007	48 81 ec e8 00
	00 00		 sub	 rsp, 232		; 000000e8H
  0000e	48 8d 6c 24 20	 lea	 rbp, QWORD PTR [rsp+32]
  00013	48 8b fc	 mov	 rdi, rsp
  00016	b9 3a 00 00 00	 mov	 ecx, 58			; 0000003aH
  0001b	b8 cc cc cc cc	 mov	 eax, -858993460		; ccccccccH
  00020	f3 ab		 rep stosd
  00022	48 8b 8c 24 08
	01 00 00	 mov	 rcx, QWORD PTR [rsp+264]

; 671  : 		return (_Get_data()._Myproxy);

  0002a	48 8b 8d e0 00
	00 00		 mov	 rcx, QWORD PTR this$[rbp]
  00031	e8 00 00 00 00	 call	 ?_Get_data@?$_String_alloc@U?$_String_base_types@_WV?$allocator@_W@std@@@std@@@std@@QEAAAEAV?$_String_val@U?$_Simple_types@_W@std@@@2@XZ ; std::_String_alloc<std::_String_base_types<wchar_t,std::allocator<wchar_t> > >::_Get_data

; 672  : 		}

  00036	48 8d a5 c8 00
	00 00		 lea	 rsp, QWORD PTR [rbp+200]
  0003d	5f		 pop	 rdi
  0003e	5d		 pop	 rbp
  0003f	c3		 ret	 0
?_Myproxy@?$_String_alloc@U?$_String_base_types@_WV?$allocator@_W@std@@@std@@@std@@QEAAAEAPEAU_Container_proxy@2@XZ ENDP ; std::_String_alloc<std::_String_base_types<wchar_t,std::allocator<wchar_t> > >::_Myproxy
_TEXT	ENDS
; Function compile flags: /Odtp /RTCsu /ZI
; File c:\program files (x86)\microsoft visual studio 14.0\vc\include\xstring
;	COMDAT ?_Free_proxy@?$_String_alloc@U?$_String_base_types@_WV?$allocator@_W@std@@@std@@@std@@QEAAXXZ
_TEXT	SEGMENT
_Alproxy$ = 4
__$ArrayPad$ = 216
this$ = 256
?_Free_proxy@?$_String_alloc@U?$_String_base_types@_WV?$allocator@_W@std@@@std@@@std@@QEAAXXZ PROC ; std::_String_alloc<std::_String_base_types<wchar_t,std::allocator<wchar_t> > >::_Free_proxy, COMDAT

; 655  : 		{	// destroy proxy

$LN3:
  00000	48 89 4c 24 08	 mov	 QWORD PTR [rsp+8], rcx
  00005	55		 push	 rbp
  00006	57		 push	 rdi
  00007	48 81 ec 08 01
	00 00		 sub	 rsp, 264		; 00000108H
  0000e	48 8d 6c 24 20	 lea	 rbp, QWORD PTR [rsp+32]
  00013	48 8b fc	 mov	 rdi, rsp
  00016	b9 42 00 00 00	 mov	 ecx, 66			; 00000042H
  0001b	b8 cc cc cc cc	 mov	 eax, -858993460		; ccccccccH
  00020	f3 ab		 rep stosd
  00022	48 8b 8c 24 28
	01 00 00	 mov	 rcx, QWORD PTR [rsp+296]
  0002a	48 8b 05 00 00
	00 00		 mov	 rax, QWORD PTR __security_cookie
  00031	48 33 c5	 xor	 rax, rbp
  00034	48 89 85 d8 00
	00 00		 mov	 QWORD PTR __$ArrayPad$[rbp], rax

; 656  : 		typename _Alty::template rebind<_Container_proxy>::other
; 657  : 			_Alproxy(_Getal());

  0003b	48 8b 8d 00 01
	00 00		 mov	 rcx, QWORD PTR this$[rbp]
  00042	e8 00 00 00 00	 call	 ?_Getal@?$_String_alloc@U?$_String_base_types@_WV?$allocator@_W@std@@@std@@@std@@QEAAAEAU?$_Wrap_alloc@V?$allocator@_W@std@@@2@XZ ; std::_String_alloc<std::_String_base_types<wchar_t,std::allocator<wchar_t> > >::_Getal
  00047	48 8b d0	 mov	 rdx, rax
  0004a	48 8d 4d 04	 lea	 rcx, QWORD PTR _Alproxy$[rbp]
  0004e	e8 00 00 00 00	 call	 ??$?0AEAU?$_Wrap_alloc@V?$allocator@_W@std@@@std@@@?$_Wrap_alloc@V?$allocator@U_Container_proxy@std@@@std@@@std@@QEAA@AEAU?$_Wrap_alloc@V?$allocator@_W@std@@@1@@Z ; std::_Wrap_alloc<std::allocator<std::_Container_proxy> >::_Wrap_alloc<std::allocator<std::_Container_proxy> ><std::_Wrap_alloc<std::allocator<wchar_t> > & __ptr64>

; 658  : 		_Orphan_all();

  00053	48 8b 8d 00 01
	00 00		 mov	 rcx, QWORD PTR this$[rbp]
  0005a	e8 00 00 00 00	 call	 ?_Orphan_all@?$_String_alloc@U?$_String_base_types@_WV?$allocator@_W@std@@@std@@@std@@QEAAXXZ ; std::_String_alloc<std::_String_base_types<wchar_t,std::allocator<wchar_t> > >::_Orphan_all

; 659  : 		_Alproxy.destroy(_Myproxy());

  0005f	48 8b 8d 00 01
	00 00		 mov	 rcx, QWORD PTR this$[rbp]
  00066	e8 00 00 00 00	 call	 ?_Myproxy@?$_String_alloc@U?$_String_base_types@_WV?$allocator@_W@std@@@std@@@std@@QEAAAEAPEAU_Container_proxy@2@XZ ; std::_String_alloc<std::_String_base_types<wchar_t,std::allocator<wchar_t> > >::_Myproxy
  0006b	48 8b 10	 mov	 rdx, QWORD PTR [rax]
  0006e	48 8d 4d 04	 lea	 rcx, QWORD PTR _Alproxy$[rbp]
  00072	e8 00 00 00 00	 call	 ??$destroy@U_Container_proxy@std@@@?$_Wrap_alloc@V?$allocator@U_Container_proxy@std@@@std@@@std@@QEAAXPEAU_Container_proxy@1@@Z ; std::_Wrap_alloc<std::allocator<std::_Container_proxy> >::destroy<std::_Container_proxy>

; 660  : 		_Alproxy.deallocate(_Alproxy.address(*_Myproxy()), 1);

  00077	48 8b 8d 00 01
	00 00		 mov	 rcx, QWORD PTR this$[rbp]
  0007e	e8 00 00 00 00	 call	 ?_Myproxy@?$_String_alloc@U?$_String_base_types@_WV?$allocator@_W@std@@@std@@@std@@QEAAAEAPEAU_Container_proxy@2@XZ ; std::_String_alloc<std::_String_base_types<wchar_t,std::allocator<wchar_t> > >::_Myproxy
  00083	48 8b 10	 mov	 rdx, QWORD PTR [rax]
  00086	48 8d 4d 04	 lea	 rcx, QWORD PTR _Alproxy$[rbp]
  0008a	e8 00 00 00 00	 call	 ?address@?$_Wrap_alloc@V?$allocator@U_Container_proxy@std@@@std@@@std@@QEBAPEAU_Container_proxy@2@AEAU32@@Z ; std::_Wrap_alloc<std::allocator<std::_Container_proxy> >::address
  0008f	41 b8 01 00 00
	00		 mov	 r8d, 1
  00095	48 8b d0	 mov	 rdx, rax
  00098	48 8d 4d 04	 lea	 rcx, QWORD PTR _Alproxy$[rbp]
  0009c	e8 00 00 00 00	 call	 ?deallocate@?$_Wrap_alloc@V?$allocator@U_Container_proxy@std@@@std@@@std@@QEAAXPEAU_Container_proxy@2@_K@Z ; std::_Wrap_alloc<std::allocator<std::_Container_proxy> >::deallocate

; 661  : 		_Myproxy() = 0;

  000a1	48 8b 8d 00 01
	00 00		 mov	 rcx, QWORD PTR this$[rbp]
  000a8	e8 00 00 00 00	 call	 ?_Myproxy@?$_String_alloc@U?$_String_base_types@_WV?$allocator@_W@std@@@std@@@std@@QEAAAEAPEAU_Container_proxy@2@XZ ; std::_String_alloc<std::_String_base_types<wchar_t,std::allocator<wchar_t> > >::_Myproxy
  000ad	48 c7 00 00 00
	00 00		 mov	 QWORD PTR [rax], 0

; 662  : 		}

  000b4	48 8d 4d e0	 lea	 rcx, QWORD PTR [rbp-32]
  000b8	48 8d 15 00 00
	00 00		 lea	 rdx, OFFSET FLAT:?_Free_proxy@?$_String_alloc@U?$_String_base_types@_WV?$allocator@_W@std@@@std@@@std@@QEAAXXZ$rtcFrameData
  000bf	e8 00 00 00 00	 call	 _RTC_CheckStackVars
  000c4	48 8b 8d d8 00
	00 00		 mov	 rcx, QWORD PTR __$ArrayPad$[rbp]
  000cb	48 33 cd	 xor	 rcx, rbp
  000ce	e8 00 00 00 00	 call	 __security_check_cookie
  000d3	48 8d a5 e8 00
	00 00		 lea	 rsp, QWORD PTR [rbp+232]
  000da	5f		 pop	 rdi
  000db	5d		 pop	 rbp
  000dc	c3		 ret	 0
?_Free_proxy@?$_String_alloc@U?$_String_base_types@_WV?$allocator@_W@std@@@std@@@std@@QEAAXXZ ENDP ; std::_String_alloc<std::_String_base_types<wchar_t,std::allocator<wchar_t> > >::_Free_proxy
_TEXT	ENDS
; Function compile flags: /Odtp /RTCsu /ZI
; File c:\program files (x86)\microsoft visual studio 14.0\vc\include\xstring
;	COMDAT ?_Alloc_proxy@?$_String_alloc@U?$_String_base_types@_WV?$allocator@_W@std@@@std@@@std@@QEAAXXZ
_TEXT	SEGMENT
_Alproxy$ = 4
$T4 = 232
tv92 = 264
tv80 = 264
tv70 = 264
__$ArrayPad$ = 272
this$ = 320
?_Alloc_proxy@?$_String_alloc@U?$_String_base_types@_WV?$allocator@_W@std@@@std@@@std@@QEAAXXZ PROC ; std::_String_alloc<std::_String_base_types<wchar_t,std::allocator<wchar_t> > >::_Alloc_proxy, COMDAT

; 646  : 		{	// construct proxy

$LN3:
  00000	48 89 4c 24 08	 mov	 QWORD PTR [rsp+8], rcx
  00005	55		 push	 rbp
  00006	57		 push	 rdi
  00007	48 81 ec 48 01
	00 00		 sub	 rsp, 328		; 00000148H
  0000e	48 8d 6c 24 20	 lea	 rbp, QWORD PTR [rsp+32]
  00013	48 8b fc	 mov	 rdi, rsp
  00016	b9 52 00 00 00	 mov	 ecx, 82			; 00000052H
  0001b	b8 cc cc cc cc	 mov	 eax, -858993460		; ccccccccH
  00020	f3 ab		 rep stosd
  00022	48 8b 8c 24 68
	01 00 00	 mov	 rcx, QWORD PTR [rsp+360]
  0002a	48 8b 05 00 00
	00 00		 mov	 rax, QWORD PTR __security_cookie
  00031	48 33 c5	 xor	 rax, rbp
  00034	48 89 85 10 01
	00 00		 mov	 QWORD PTR __$ArrayPad$[rbp], rax

; 647  : 		typename _Alty::template rebind<_Container_proxy>::other
; 648  : 			_Alproxy(_Getal());

  0003b	48 8b 8d 40 01
	00 00		 mov	 rcx, QWORD PTR this$[rbp]
  00042	e8 00 00 00 00	 call	 ?_Getal@?$_String_alloc@U?$_String_base_types@_WV?$allocator@_W@std@@@std@@@std@@QEAAAEAU?$_Wrap_alloc@V?$allocator@_W@std@@@2@XZ ; std::_String_alloc<std::_String_base_types<wchar_t,std::allocator<wchar_t> > >::_Getal
  00047	48 8b d0	 mov	 rdx, rax
  0004a	48 8d 4d 04	 lea	 rcx, QWORD PTR _Alproxy$[rbp]
  0004e	e8 00 00 00 00	 call	 ??$?0AEAU?$_Wrap_alloc@V?$allocator@_W@std@@@std@@@?$_Wrap_alloc@V?$allocator@U_Container_proxy@std@@@std@@@std@@QEAA@AEAU?$_Wrap_alloc@V?$allocator@_W@std@@@1@@Z ; std::_Wrap_alloc<std::allocator<std::_Container_proxy> >::_Wrap_alloc<std::allocator<std::_Container_proxy> ><std::_Wrap_alloc<std::allocator<wchar_t> > & __ptr64>

; 649  : 		_Myproxy() = _Unfancy(_Alproxy.allocate(1));

  00053	ba 01 00 00 00	 mov	 edx, 1
  00058	48 8d 4d 04	 lea	 rcx, QWORD PTR _Alproxy$[rbp]
  0005c	e8 00 00 00 00	 call	 ?allocate@?$_Wrap_alloc@V?$allocator@U_Container_proxy@std@@@std@@@std@@QEAAPEAU_Container_proxy@2@_K@Z ; std::_Wrap_alloc<std::allocator<std::_Container_proxy> >::allocate
  00061	48 8b c8	 mov	 rcx, rax
  00064	e8 00 00 00 00	 call	 ??$_Unfancy@U_Container_proxy@std@@@std@@YAPEAU_Container_proxy@0@PEAU10@@Z ; std::_Unfancy<std::_Container_proxy>
  00069	48 89 85 08 01
	00 00		 mov	 QWORD PTR tv70[rbp], rax
  00070	48 8b 8d 40 01
	00 00		 mov	 rcx, QWORD PTR this$[rbp]
  00077	e8 00 00 00 00	 call	 ?_Myproxy@?$_String_alloc@U?$_String_base_types@_WV?$allocator@_W@std@@@std@@@std@@QEAAAEAPEAU_Container_proxy@2@XZ ; std::_String_alloc<std::_String_base_types<wchar_t,std::allocator<wchar_t> > >::_Myproxy
  0007c	48 8b 8d 08 01
	00 00		 mov	 rcx, QWORD PTR tv70[rbp]
  00083	48 89 08	 mov	 QWORD PTR [rax], rcx

; 650  : 		_Alproxy.construct(_Myproxy(), _Container_proxy());

  00086	48 8d 8d e8 00
	00 00		 lea	 rcx, QWORD PTR $T4[rbp]
  0008d	e8 00 00 00 00	 call	 ??0_Container_proxy@std@@QEAA@XZ ; std::_Container_proxy::_Container_proxy
  00092	48 89 85 08 01
	00 00		 mov	 QWORD PTR tv80[rbp], rax
  00099	48 8b 8d 40 01
	00 00		 mov	 rcx, QWORD PTR this$[rbp]
  000a0	e8 00 00 00 00	 call	 ?_Myproxy@?$_String_alloc@U?$_String_base_types@_WV?$allocator@_W@std@@@std@@@std@@QEAAAEAPEAU_Container_proxy@2@XZ ; std::_String_alloc<std::_String_base_types<wchar_t,std::allocator<wchar_t> > >::_Myproxy
  000a5	48 8b 8d 08 01
	00 00		 mov	 rcx, QWORD PTR tv80[rbp]
  000ac	4c 8b c1	 mov	 r8, rcx
  000af	48 8b 10	 mov	 rdx, QWORD PTR [rax]
  000b2	48 8d 4d 04	 lea	 rcx, QWORD PTR _Alproxy$[rbp]
  000b6	e8 00 00 00 00	 call	 ??$construct@U_Container_proxy@std@@U12@@?$_Wrap_alloc@V?$allocator@U_Container_proxy@std@@@std@@@std@@QEAAXPEAU_Container_proxy@1@$$QEAU21@@Z ; std::_Wrap_alloc<std::allocator<std::_Container_proxy> >::construct<std::_Container_proxy,std::_Container_proxy>

; 651  : 		_Myproxy()->_Mycont = &_Get_data();

  000bb	48 8b 8d 40 01
	00 00		 mov	 rcx, QWORD PTR this$[rbp]
  000c2	e8 00 00 00 00	 call	 ?_Get_data@?$_String_alloc@U?$_String_base_types@_WV?$allocator@_W@std@@@std@@@std@@QEAAAEAV?$_String_val@U?$_Simple_types@_W@std@@@2@XZ ; std::_String_alloc<std::_String_base_types<wchar_t,std::allocator<wchar_t> > >::_Get_data
  000c7	48 89 85 08 01
	00 00		 mov	 QWORD PTR tv92[rbp], rax
  000ce	48 8b 8d 40 01
	00 00		 mov	 rcx, QWORD PTR this$[rbp]
  000d5	e8 00 00 00 00	 call	 ?_Myproxy@?$_String_alloc@U?$_String_base_types@_WV?$allocator@_W@std@@@std@@@std@@QEAAAEAPEAU_Container_proxy@2@XZ ; std::_String_alloc<std::_String_base_types<wchar_t,std::allocator<wchar_t> > >::_Myproxy
  000da	48 8b 00	 mov	 rax, QWORD PTR [rax]
  000dd	48 8b 8d 08 01
	00 00		 mov	 rcx, QWORD PTR tv92[rbp]
  000e4	48 89 08	 mov	 QWORD PTR [rax], rcx

; 652  : 		}

  000e7	48 8d 4d e0	 lea	 rcx, QWORD PTR [rbp-32]
  000eb	48 8d 15 00 00
	00 00		 lea	 rdx, OFFSET FLAT:?_Alloc_proxy@?$_String_alloc@U?$_String_base_types@_WV?$allocator@_W@std@@@std@@@std@@QEAAXXZ$rtcFrameData
  000f2	e8 00 00 00 00	 call	 _RTC_CheckStackVars
  000f7	48 8b 8d 10 01
	00 00		 mov	 rcx, QWORD PTR __$ArrayPad$[rbp]
  000fe	48 33 cd	 xor	 rcx, rbp
  00101	e8 00 00 00 00	 call	 __security_check_cookie
  00106	48 8d a5 28 01
	00 00		 lea	 rsp, QWORD PTR [rbp+296]
  0010d	5f		 pop	 rdi
  0010e	5d		 pop	 rbp
  0010f	c3		 ret	 0
?_Alloc_proxy@?$_String_alloc@U?$_String_base_types@_WV?$allocator@_W@std@@@std@@@std@@QEAAXXZ ENDP ; std::_String_alloc<std::_String_base_types<wchar_t,std::allocator<wchar_t> > >::_Alloc_proxy
_TEXT	ENDS
; Function compile flags: /Odtp /RTCsu /ZI
; File c:\program files (x86)\microsoft visual studio 14.0\vc\include\xstring
;	COMDAT ??1?$_String_alloc@U?$_String_base_types@_WV?$allocator@_W@std@@@std@@@std@@QEAA@XZ
_TEXT	SEGMENT
$T1 = 200
this$ = 256
??1?$_String_alloc@U?$_String_base_types@_WV?$allocator@_W@std@@@std@@@std@@QEAA@XZ PROC ; std::_String_alloc<std::_String_base_types<wchar_t,std::allocator<wchar_t> > >::~_String_alloc<std::_String_base_types<wchar_t,std::allocator<wchar_t> > >, COMDAT

; 627  : 		{	// destroy the object

$LN3:
  00000	48 89 4c 24 08	 mov	 QWORD PTR [rsp+8], rcx
  00005	55		 push	 rbp
  00006	57		 push	 rdi
  00007	48 81 ec 08 01
	00 00		 sub	 rsp, 264		; 00000108H
  0000e	48 8d 6c 24 20	 lea	 rbp, QWORD PTR [rsp+32]
  00013	48 8b fc	 mov	 rdi, rsp
  00016	b9 42 00 00 00	 mov	 ecx, 66			; 00000042H
  0001b	b8 cc cc cc cc	 mov	 eax, -858993460		; ccccccccH
  00020	f3 ab		 rep stosd
  00022	48 8b 8c 24 28
	01 00 00	 mov	 rcx, QWORD PTR [rsp+296]
  0002a	48 c7 85 c8 00
	00 00 fe ff ff
	ff		 mov	 QWORD PTR $T1[rbp], -2

; 628  : 		_Free_proxy();

  00035	48 8b 8d 00 01
	00 00		 mov	 rcx, QWORD PTR this$[rbp]
  0003c	e8 00 00 00 00	 call	 ?_Free_proxy@?$_String_alloc@U?$_String_base_types@_WV?$allocator@_W@std@@@std@@@std@@QEAAXXZ ; std::_String_alloc<std::_String_base_types<wchar_t,std::allocator<wchar_t> > >::_Free_proxy
  00041	90		 npad	 1

; 629  : 		}

  00042	48 8b 85 00 01
	00 00		 mov	 rax, QWORD PTR this$[rbp]
  00049	48 8b c8	 mov	 rcx, rax
  0004c	e8 00 00 00 00	 call	 ??1?$_Compressed_pair@U?$_Wrap_alloc@V?$allocator@_W@std@@@std@@V?$_String_val@U?$_Simple_types@_W@std@@@2@$00@std@@QEAA@XZ
  00051	90		 npad	 1
  00052	48 8d a5 e8 00
	00 00		 lea	 rsp, QWORD PTR [rbp+232]
  00059	5f		 pop	 rdi
  0005a	5d		 pop	 rbp
  0005b	c3		 ret	 0
??1?$_String_alloc@U?$_String_base_types@_WV?$allocator@_W@std@@@std@@@std@@QEAA@XZ ENDP ; std::_String_alloc<std::_String_base_types<wchar_t,std::allocator<wchar_t> > >::~_String_alloc<std::_String_base_types<wchar_t,std::allocator<wchar_t> > >
_TEXT	ENDS
; Function compile flags: /Odtp /RTCsu /ZI
; File c:\program files (x86)\microsoft visual studio 14.0\vc\include\xstring
;	COMDAT ??0?$_String_alloc@U?$_String_base_types@_WV?$allocator@_W@std@@@std@@@std@@QEAA@XZ
_TEXT	SEGMENT
$T1 = 196
$T2 = 232
this$ = 288
??0?$_String_alloc@U?$_String_base_types@_WV?$allocator@_W@std@@@std@@@std@@QEAA@XZ PROC ; std::_String_alloc<std::_String_base_types<wchar_t,std::allocator<wchar_t> > >::_String_alloc<std::_String_base_types<wchar_t,std::allocator<wchar_t> > >, COMDAT

; 613  : 		{	// default construct allocator

$LN4:
  00000	48 89 4c 24 08	 mov	 QWORD PTR [rsp+8], rcx
  00005	55		 push	 rbp
  00006	57		 push	 rdi
  00007	48 81 ec 28 01
	00 00		 sub	 rsp, 296		; 00000128H
  0000e	48 8d 6c 24 20	 lea	 rbp, QWORD PTR [rsp+32]
  00013	48 8b fc	 mov	 rdi, rsp
  00016	b9 4a 00 00 00	 mov	 ecx, 74			; 0000004aH
  0001b	b8 cc cc cc cc	 mov	 eax, -858993460		; ccccccccH
  00020	f3 ab		 rep stosd
  00022	48 8b 8c 24 48
	01 00 00	 mov	 rcx, QWORD PTR [rsp+328]
  0002a	48 c7 85 e8 00
	00 00 fe ff ff
	ff		 mov	 QWORD PTR $T2[rbp], -2

; 612  : 		: _Mypair(_Zero_then_variadic_args_t())

  00035	48 8b 85 20 01
	00 00		 mov	 rax, QWORD PTR this$[rbp]
  0003c	0f b6 95 c4 00
	00 00		 movzx	 edx, BYTE PTR $T1[rbp]
  00043	48 8b c8	 mov	 rcx, rax
  00046	e8 00 00 00 00	 call	 ??$?0$$V@?$_Compressed_pair@U?$_Wrap_alloc@V?$allocator@_W@std@@@std@@V?$_String_val@U?$_Simple_types@_W@std@@@2@$00@std@@QEAA@U_Zero_then_variadic_args_t@1@@Z ; std::_Compressed_pair<std::_Wrap_alloc<std::allocator<wchar_t> >,std::_String_val<std::_Simple_types<wchar_t> >,1>::_Compressed_pair<std::_Wrap_alloc<std::allocator<wchar_t> >,std::_String_val<std::_Simple_types<wchar_t> >,1><>
  0004b	90		 npad	 1

; 614  : 		_Alloc_proxy();

  0004c	48 8b 8d 20 01
	00 00		 mov	 rcx, QWORD PTR this$[rbp]
  00053	e8 00 00 00 00	 call	 ?_Alloc_proxy@?$_String_alloc@U?$_String_base_types@_WV?$allocator@_W@std@@@std@@@std@@QEAAXXZ ; std::_String_alloc<std::_String_base_types<wchar_t,std::allocator<wchar_t> > >::_Alloc_proxy
  00058	90		 npad	 1

; 615  : 		}

  00059	48 8b 85 20 01
	00 00		 mov	 rax, QWORD PTR this$[rbp]
  00060	48 8d a5 08 01
	00 00		 lea	 rsp, QWORD PTR [rbp+264]
  00067	5f		 pop	 rdi
  00068	5d		 pop	 rbp
  00069	c3		 ret	 0
??0?$_String_alloc@U?$_String_base_types@_WV?$allocator@_W@std@@@std@@@std@@QEAA@XZ ENDP ; std::_String_alloc<std::_String_base_types<wchar_t,std::allocator<wchar_t> > >::_String_alloc<std::_String_base_types<wchar_t,std::allocator<wchar_t> > >
_TEXT	ENDS
;	COMDAT text$x
text$x	SEGMENT
$T1 = 196
$T2 = 232
this$ = 288
?dtor$0@?0???0?$_String_alloc@U?$_String_base_types@_WV?$allocator@_W@std@@@std@@@std@@QEAA@XZ@4HA PROC ; `std::_String_alloc<std::_String_base_types<wchar_t,std::allocator<wchar_t> > >::_String_alloc<std::_String_base_types<wchar_t,std::allocator<wchar_t> > >'::`1'::dtor$0
  00000	48 89 4c 24 08	 mov	 QWORD PTR [rsp+8], rcx
  00005	48 89 54 24 10	 mov	 QWORD PTR [rsp+16], rdx
  0000a	55		 push	 rbp
  0000b	57		 push	 rdi
  0000c	48 83 ec 28	 sub	 rsp, 40			; 00000028H
  00010	48 8d 6a 20	 lea	 rbp, QWORD PTR [rdx+32]
  00014	48 8b 8d 20 01
	00 00		 mov	 rcx, QWORD PTR this$[rbp]
  0001b	e8 00 00 00 00	 call	 ??1?$_Compressed_pair@U?$_Wrap_alloc@V?$allocator@_W@std@@@std@@V?$_String_val@U?$_Simple_types@_W@std@@@2@$00@std@@QEAA@XZ
  00020	48 83 c4 28	 add	 rsp, 40			; 00000028H
  00024	5f		 pop	 rdi
  00025	5d		 pop	 rbp
  00026	c3		 ret	 0
?dtor$0@?0???0?$_String_alloc@U?$_String_base_types@_WV?$allocator@_W@std@@@std@@@std@@QEAA@XZ@4HA ENDP ; `std::_String_alloc<std::_String_base_types<wchar_t,std::allocator<wchar_t> > >::_String_alloc<std::_String_base_types<wchar_t,std::allocator<wchar_t> > >'::`1'::dtor$0
text$x	ENDS
; Function compile flags: /Odtp /RTCsu /ZI
;	COMDAT text$x
text$x	SEGMENT
$T1 = 196
$T2 = 232
this$ = 288
?dtor$0@?0???0?$_String_alloc@U?$_String_base_types@_WV?$allocator@_W@std@@@std@@@std@@QEAA@XZ@4HA PROC ; `std::_String_alloc<std::_String_base_types<wchar_t,std::allocator<wchar_t> > >::_String_alloc<std::_String_base_types<wchar_t,std::allocator<wchar_t> > >'::`1'::dtor$0
  00000	48 89 4c 24 08	 mov	 QWORD PTR [rsp+8], rcx
  00005	48 89 54 24 10	 mov	 QWORD PTR [rsp+16], rdx
  0000a	55		 push	 rbp
  0000b	57		 push	 rdi
  0000c	48 83 ec 28	 sub	 rsp, 40			; 00000028H
  00010	48 8d 6a 20	 lea	 rbp, QWORD PTR [rdx+32]
  00014	48 8b 8d 20 01
	00 00		 mov	 rcx, QWORD PTR this$[rbp]
  0001b	e8 00 00 00 00	 call	 ??1?$_Compressed_pair@U?$_Wrap_alloc@V?$allocator@_W@std@@@std@@V?$_String_val@U?$_Simple_types@_W@std@@@2@$00@std@@QEAA@XZ
  00020	48 83 c4 28	 add	 rsp, 40			; 00000028H
  00024	5f		 pop	 rdi
  00025	5d		 pop	 rbp
  00026	c3		 ret	 0
?dtor$0@?0???0?$_String_alloc@U?$_String_base_types@_WV?$allocator@_W@std@@@std@@@std@@QEAA@XZ@4HA ENDP ; `std::_String_alloc<std::_String_base_types<wchar_t,std::allocator<wchar_t> > >::_String_alloc<std::_String_base_types<wchar_t,std::allocator<wchar_t> > >'::`1'::dtor$0
text$x	ENDS
; Function compile flags: /Odtp /RTCsu /ZI
; File c:\program files (x86)\microsoft visual studio 14.0\vc\include\xstring
;	COMDAT ?_Myptr@?$_String_alloc@U?$_String_base_types@_WV?$allocator@_W@std@@@std@@@std@@QEBAPEB_WXZ
_TEXT	SEGMENT
this$ = 224
?_Myptr@?$_String_alloc@U?$_String_base_types@_WV?$allocator@_W@std@@@std@@@std@@QEBAPEB_WXZ PROC ; std::_String_alloc<std::_String_base_types<wchar_t,std::allocator<wchar_t> > >::_Myptr, COMDAT

; 582  : 		{	// determine current pointer to buffer for nonmutable string

$LN3:
  00000	48 89 4c 24 08	 mov	 QWORD PTR [rsp+8], rcx
  00005	55		 push	 rbp
  00006	57		 push	 rdi
  00007	48 81 ec e8 00
	00 00		 sub	 rsp, 232		; 000000e8H
  0000e	48 8d 6c 24 20	 lea	 rbp, QWORD PTR [rsp+32]
  00013	48 8b fc	 mov	 rdi, rsp
  00016	b9 3a 00 00 00	 mov	 ecx, 58			; 0000003aH
  0001b	b8 cc cc cc cc	 mov	 eax, -858993460		; ccccccccH
  00020	f3 ab		 rep stosd
  00022	48 8b 8c 24 08
	01 00 00	 mov	 rcx, QWORD PTR [rsp+264]

; 583  : 		return (_Get_data()._Myptr());

  0002a	48 8b 8d e0 00
	00 00		 mov	 rcx, QWORD PTR this$[rbp]
  00031	e8 00 00 00 00	 call	 ?_Get_data@?$_String_alloc@U?$_String_base_types@_WV?$allocator@_W@std@@@std@@@std@@QEBAAEBV?$_String_val@U?$_Simple_types@_W@std@@@2@XZ ; std::_String_alloc<std::_String_base_types<wchar_t,std::allocator<wchar_t> > >::_Get_data
  00036	48 8b c8	 mov	 rcx, rax
  00039	e8 00 00 00 00	 call	 ?_Myptr@?$_String_val@U?$_Simple_types@_W@std@@@std@@QEBAPEB_WXZ ; std::_String_val<std::_Simple_types<wchar_t> >::_Myptr

; 584  : 		}

  0003e	48 8d a5 c8 00
	00 00		 lea	 rsp, QWORD PTR [rbp+200]
  00045	5f		 pop	 rdi
  00046	5d		 pop	 rbp
  00047	c3		 ret	 0
?_Myptr@?$_String_alloc@U?$_String_base_types@_WV?$allocator@_W@std@@@std@@@std@@QEBAPEB_WXZ ENDP ; std::_String_alloc<std::_String_base_types<wchar_t,std::allocator<wchar_t> > >::_Myptr
_TEXT	ENDS
; Function compile flags: /Odtp /RTCsu /ZI
; File c:\program files (x86)\microsoft visual studio 14.0\vc\include\xstring
;	COMDAT ?_Myptr@?$_String_alloc@U?$_String_base_types@_WV?$allocator@_W@std@@@std@@@std@@QEAAPEA_WXZ
_TEXT	SEGMENT
this$ = 224
?_Myptr@?$_String_alloc@U?$_String_base_types@_WV?$allocator@_W@std@@@std@@@std@@QEAAPEA_WXZ PROC ; std::_String_alloc<std::_String_base_types<wchar_t,std::allocator<wchar_t> > >::_Myptr, COMDAT

; 577  : 		{	// determine current pointer to buffer for mutable string

$LN3:
  00000	48 89 4c 24 08	 mov	 QWORD PTR [rsp+8], rcx
  00005	55		 push	 rbp
  00006	57		 push	 rdi
  00007	48 81 ec e8 00
	00 00		 sub	 rsp, 232		; 000000e8H
  0000e	48 8d 6c 24 20	 lea	 rbp, QWORD PTR [rsp+32]
  00013	48 8b fc	 mov	 rdi, rsp
  00016	b9 3a 00 00 00	 mov	 ecx, 58			; 0000003aH
  0001b	b8 cc cc cc cc	 mov	 eax, -858993460		; ccccccccH
  00020	f3 ab		 rep stosd
  00022	48 8b 8c 24 08
	01 00 00	 mov	 rcx, QWORD PTR [rsp+264]

; 578  : 		return (_Get_data()._Myptr());

  0002a	48 8b 8d e0 00
	00 00		 mov	 rcx, QWORD PTR this$[rbp]
  00031	e8 00 00 00 00	 call	 ?_Get_data@?$_String_alloc@U?$_String_base_types@_WV?$allocator@_W@std@@@std@@@std@@QEAAAEAV?$_String_val@U?$_Simple_types@_W@std@@@2@XZ ; std::_String_alloc<std::_String_base_types<wchar_t,std::allocator<wchar_t> > >::_Get_data
  00036	48 8b c8	 mov	 rcx, rax
  00039	e8 00 00 00 00	 call	 ?_Myptr@?$_String_val@U?$_Simple_types@_W@std@@@std@@QEAAPEA_WXZ ; std::_String_val<std::_Simple_types<wchar_t> >::_Myptr

; 579  : 		}

  0003e	48 8d a5 c8 00
	00 00		 lea	 rsp, QWORD PTR [rbp+200]
  00045	5f		 pop	 rdi
  00046	5d		 pop	 rbp
  00047	c3		 ret	 0
?_Myptr@?$_String_alloc@U?$_String_base_types@_WV?$allocator@_W@std@@@std@@@std@@QEAAPEA_WXZ ENDP ; std::_String_alloc<std::_String_base_types<wchar_t,std::allocator<wchar_t> > >::_Myptr
_TEXT	ENDS
; Function compile flags: /Odtp /RTCsu /ZI
;	COMDAT ??1?$_String_val@U?$_Simple_types@_W@std@@@std@@QEAA@XZ
_TEXT	SEGMENT
this$ = 224
??1?$_String_val@U?$_Simple_types@_W@std@@@std@@QEAA@XZ PROC ; std::_String_val<std::_Simple_types<wchar_t> >::~_String_val<std::_Simple_types<wchar_t> >, COMDAT
$LN3:
  00000	48 89 4c 24 08	 mov	 QWORD PTR [rsp+8], rcx
  00005	55		 push	 rbp
  00006	57		 push	 rdi
  00007	48 81 ec e8 00
	00 00		 sub	 rsp, 232		; 000000e8H
  0000e	48 8d 6c 24 20	 lea	 rbp, QWORD PTR [rsp+32]
  00013	48 8b fc	 mov	 rdi, rsp
  00016	b9 3a 00 00 00	 mov	 ecx, 58			; 0000003aH
  0001b	b8 cc cc cc cc	 mov	 eax, -858993460		; ccccccccH
  00020	f3 ab		 rep stosd
  00022	48 8b 8c 24 08
	01 00 00	 mov	 rcx, QWORD PTR [rsp+264]
  0002a	48 8b 85 e0 00
	00 00		 mov	 rax, QWORD PTR this$[rbp]
  00031	48 83 c0 08	 add	 rax, 8
  00035	48 8b c8	 mov	 rcx, rax
  00038	e8 00 00 00 00	 call	 ??1_Bxty@?$_String_val@U?$_Simple_types@_W@std@@@std@@QEAA@XZ ; std::_String_val<std::_Simple_types<wchar_t> >::_Bxty::~_Bxty
  0003d	48 8b 8d e0 00
	00 00		 mov	 rcx, QWORD PTR this$[rbp]
  00044	e8 00 00 00 00	 call	 ??1_Container_base12@std@@QEAA@XZ ; std::_Container_base12::~_Container_base12
  00049	48 8d a5 c8 00
	00 00		 lea	 rsp, QWORD PTR [rbp+200]
  00050	5f		 pop	 rdi
  00051	5d		 pop	 rbp
  00052	c3		 ret	 0
??1?$_String_val@U?$_Simple_types@_W@std@@@std@@QEAA@XZ ENDP ; std::_String_val<std::_Simple_types<wchar_t> >::~_String_val<std::_Simple_types<wchar_t> >
_TEXT	ENDS
; Function compile flags: /Odtp /RTCsu /ZI
; File c:\program files (x86)\microsoft visual studio 14.0\vc\include\xstring
;	COMDAT ??1_Bxty@?$_String_val@U?$_Simple_types@_W@std@@@std@@QEAA@XZ
_TEXT	SEGMENT
this$ = 224
??1_Bxty@?$_String_val@U?$_Simple_types@_W@std@@@std@@QEAA@XZ PROC ; std::_String_val<std::_Simple_types<wchar_t> >::_Bxty::~_Bxty, COMDAT

; 533  : 			{	// user-provided, for fancy pointers

$LN3:
  00000	48 89 4c 24 08	 mov	 QWORD PTR [rsp+8], rcx
  00005	55		 push	 rbp
  00006	57		 push	 rdi
  00007	48 81 ec c8 00
	00 00		 sub	 rsp, 200		; 000000c8H
  0000e	48 8b ec	 mov	 rbp, rsp
  00011	48 8b fc	 mov	 rdi, rsp
  00014	b9 32 00 00 00	 mov	 ecx, 50			; 00000032H
  00019	b8 cc cc cc cc	 mov	 eax, -858993460		; ccccccccH
  0001e	f3 ab		 rep stosd
  00020	48 8b 8c 24 e8
	00 00 00	 mov	 rcx, QWORD PTR [rsp+232]

; 534  : 			}

  00028	48 8d a5 c8 00
	00 00		 lea	 rsp, QWORD PTR [rbp+200]
  0002f	5f		 pop	 rdi
  00030	5d		 pop	 rbp
  00031	c3		 ret	 0
??1_Bxty@?$_String_val@U?$_Simple_types@_W@std@@@std@@QEAA@XZ ENDP ; std::_String_val<std::_Simple_types<wchar_t> >::_Bxty::~_Bxty
_TEXT	ENDS
; Function compile flags: /Odtp /RTCsu /ZI
; File c:\program files (x86)\microsoft visual studio 14.0\vc\include\xstring
;	COMDAT ??0_Bxty@?$_String_val@U?$_Simple_types@_W@std@@@std@@QEAA@XZ
_TEXT	SEGMENT
this$ = 224
??0_Bxty@?$_String_val@U?$_Simple_types@_W@std@@@std@@QEAA@XZ PROC ; std::_String_val<std::_Simple_types<wchar_t> >::_Bxty::_Bxty, COMDAT

; 528  : 		_Bxty()

$LN3:
  00000	48 89 4c 24 08	 mov	 QWORD PTR [rsp+8], rcx
  00005	55		 push	 rbp
  00006	57		 push	 rdi
  00007	48 81 ec c8 00
	00 00		 sub	 rsp, 200		; 000000c8H
  0000e	48 8b ec	 mov	 rbp, rsp
  00011	48 8b fc	 mov	 rdi, rsp
  00014	b9 32 00 00 00	 mov	 ecx, 50			; 00000032H
  00019	b8 cc cc cc cc	 mov	 eax, -858993460		; ccccccccH
  0001e	f3 ab		 rep stosd
  00020	48 8b 8c 24 e8
	00 00 00	 mov	 rcx, QWORD PTR [rsp+232]

; 529  : 			{	// user-provided, for fancy pointers
; 530  : 			}

  00028	48 8b 85 e0 00
	00 00		 mov	 rax, QWORD PTR this$[rbp]
  0002f	48 8d a5 c8 00
	00 00		 lea	 rsp, QWORD PTR [rbp+200]
  00036	5f		 pop	 rdi
  00037	5d		 pop	 rbp
  00038	c3		 ret	 0
??0_Bxty@?$_String_val@U?$_Simple_types@_W@std@@@std@@QEAA@XZ ENDP ; std::_String_val<std::_Simple_types<wchar_t> >::_Bxty::_Bxty
_TEXT	ENDS
; Function compile flags: /Odtp /RTCsu /ZI
; File c:\program files (x86)\microsoft visual studio 14.0\vc\include\xstring
;	COMDAT ?_Myptr@?$_String_val@U?$_Simple_types@_W@std@@@std@@QEBAPEB_WXZ
_TEXT	SEGMENT
tv72 = 192
this$ = 240
?_Myptr@?$_String_val@U?$_Simple_types@_W@std@@@std@@QEBAPEB_WXZ PROC ; std::_String_val<std::_Simple_types<wchar_t> >::_Myptr, COMDAT

; 520  : 		{	// determine current pointer to buffer for nonmutable string

$LN5:
  00000	48 89 4c 24 08	 mov	 QWORD PTR [rsp+8], rcx
  00005	55		 push	 rbp
  00006	57		 push	 rdi
  00007	48 81 ec f8 00
	00 00		 sub	 rsp, 248		; 000000f8H
  0000e	48 8d 6c 24 20	 lea	 rbp, QWORD PTR [rsp+32]
  00013	48 8b fc	 mov	 rdi, rsp
  00016	b9 3e 00 00 00	 mov	 ecx, 62			; 0000003eH
  0001b	b8 cc cc cc cc	 mov	 eax, -858993460		; ccccccccH
  00020	f3 ab		 rep stosd
  00022	48 8b 8c 24 18
	01 00 00	 mov	 rcx, QWORD PTR [rsp+280]

; 521  : 		return (this->_BUF_SIZE <= _Myres

  0002a	48 8b 85 f0 00
	00 00		 mov	 rax, QWORD PTR this$[rbp]
  00031	48 83 78 20 08	 cmp	 QWORD PTR [rax+32], 8
  00036	72 19		 jb	 SHORT $LN3@Myptr
  00038	48 8b 85 f0 00
	00 00		 mov	 rax, QWORD PTR this$[rbp]
  0003f	48 8b 48 08	 mov	 rcx, QWORD PTR [rax+8]
  00043	e8 00 00 00 00	 call	 ??$_Unfancy@_W@std@@YAPEA_WPEA_W@Z ; std::_Unfancy<wchar_t>
  00048	48 89 85 c0 00
	00 00		 mov	 QWORD PTR tv72[rbp], rax
  0004f	eb 12		 jmp	 SHORT $LN4@Myptr
$LN3@Myptr:
  00051	48 8b 85 f0 00
	00 00		 mov	 rax, QWORD PTR this$[rbp]
  00058	48 83 c0 08	 add	 rax, 8
  0005c	48 89 85 c0 00
	00 00		 mov	 QWORD PTR tv72[rbp], rax
$LN4@Myptr:
  00063	48 8b 85 c0 00
	00 00		 mov	 rax, QWORD PTR tv72[rbp]

; 522  : 			? _Unfancy(_Bx._Ptr)
; 523  : 			: _Bx._Buf);
; 524  : 		}

  0006a	48 8d a5 d8 00
	00 00		 lea	 rsp, QWORD PTR [rbp+216]
  00071	5f		 pop	 rdi
  00072	5d		 pop	 rbp
  00073	c3		 ret	 0
?_Myptr@?$_String_val@U?$_Simple_types@_W@std@@@std@@QEBAPEB_WXZ ENDP ; std::_String_val<std::_Simple_types<wchar_t> >::_Myptr
_TEXT	ENDS
; Function compile flags: /Odtp /RTCsu /ZI
; File c:\program files (x86)\microsoft visual studio 14.0\vc\include\xstring
;	COMDAT ?_Myptr@?$_String_val@U?$_Simple_types@_W@std@@@std@@QEAAPEA_WXZ
_TEXT	SEGMENT
tv72 = 192
this$ = 240
?_Myptr@?$_String_val@U?$_Simple_types@_W@std@@@std@@QEAAPEA_WXZ PROC ; std::_String_val<std::_Simple_types<wchar_t> >::_Myptr, COMDAT

; 513  : 		{	// determine current pointer to buffer for mutable string

$LN5:
  00000	48 89 4c 24 08	 mov	 QWORD PTR [rsp+8], rcx
  00005	55		 push	 rbp
  00006	57		 push	 rdi
  00007	48 81 ec f8 00
	00 00		 sub	 rsp, 248		; 000000f8H
  0000e	48 8d 6c 24 20	 lea	 rbp, QWORD PTR [rsp+32]
  00013	48 8b fc	 mov	 rdi, rsp
  00016	b9 3e 00 00 00	 mov	 ecx, 62			; 0000003eH
  0001b	b8 cc cc cc cc	 mov	 eax, -858993460		; ccccccccH
  00020	f3 ab		 rep stosd
  00022	48 8b 8c 24 18
	01 00 00	 mov	 rcx, QWORD PTR [rsp+280]

; 514  : 		return (this->_BUF_SIZE <= _Myres

  0002a	48 8b 85 f0 00
	00 00		 mov	 rax, QWORD PTR this$[rbp]
  00031	48 83 78 20 08	 cmp	 QWORD PTR [rax+32], 8
  00036	72 19		 jb	 SHORT $LN3@Myptr
  00038	48 8b 85 f0 00
	00 00		 mov	 rax, QWORD PTR this$[rbp]
  0003f	48 8b 48 08	 mov	 rcx, QWORD PTR [rax+8]
  00043	e8 00 00 00 00	 call	 ??$_Unfancy@_W@std@@YAPEA_WPEA_W@Z ; std::_Unfancy<wchar_t>
  00048	48 89 85 c0 00
	00 00		 mov	 QWORD PTR tv72[rbp], rax
  0004f	eb 12		 jmp	 SHORT $LN4@Myptr
$LN3@Myptr:
  00051	48 8b 85 f0 00
	00 00		 mov	 rax, QWORD PTR this$[rbp]
  00058	48 83 c0 08	 add	 rax, 8
  0005c	48 89 85 c0 00
	00 00		 mov	 QWORD PTR tv72[rbp], rax
$LN4@Myptr:
  00063	48 8b 85 c0 00
	00 00		 mov	 rax, QWORD PTR tv72[rbp]

; 515  : 			? _Unfancy(_Bx._Ptr)
; 516  : 			: _Bx._Buf);
; 517  : 		}

  0006a	48 8d a5 d8 00
	00 00		 lea	 rsp, QWORD PTR [rbp+216]
  00071	5f		 pop	 rdi
  00072	5d		 pop	 rbp
  00073	c3		 ret	 0
?_Myptr@?$_String_val@U?$_Simple_types@_W@std@@@std@@QEAAPEA_WXZ ENDP ; std::_String_val<std::_Simple_types<wchar_t> >::_Myptr
_TEXT	ENDS
; Function compile flags: /Odtp /RTCsu /ZI
; File c:\program files (x86)\microsoft visual studio 14.0\vc\include\xstring
;	COMDAT ??0?$_String_val@U?$_Simple_types@_W@std@@@std@@QEAA@XZ
_TEXT	SEGMENT
$T1 = 200
this$ = 256
??0?$_String_val@U?$_Simple_types@_W@std@@@std@@QEAA@XZ PROC ; std::_String_val<std::_Simple_types<wchar_t> >::_String_val<std::_Simple_types<wchar_t> >, COMDAT

; 498  : 		{	// initialize values

$LN5:
  00000	48 89 4c 24 08	 mov	 QWORD PTR [rsp+8], rcx
  00005	55		 push	 rbp
  00006	57		 push	 rdi
  00007	48 81 ec 08 01
	00 00		 sub	 rsp, 264		; 00000108H
  0000e	48 8d 6c 24 20	 lea	 rbp, QWORD PTR [rsp+32]
  00013	48 8b fc	 mov	 rdi, rsp
  00016	b9 42 00 00 00	 mov	 ecx, 66			; 00000042H
  0001b	b8 cc cc cc cc	 mov	 eax, -858993460		; ccccccccH
  00020	f3 ab		 rep stosd
  00022	48 8b 8c 24 28
	01 00 00	 mov	 rcx, QWORD PTR [rsp+296]
  0002a	48 c7 85 c8 00
	00 00 fe ff ff
	ff		 mov	 QWORD PTR $T1[rbp], -2
  00035	48 8b 8d 00 01
	00 00		 mov	 rcx, QWORD PTR this$[rbp]
  0003c	e8 00 00 00 00	 call	 ??0_Container_base12@std@@QEAA@XZ ; std::_Container_base12::_Container_base12
  00041	90		 npad	 1

; 495  : 		: _Bx(),

  00042	48 8b 85 00 01
	00 00		 mov	 rax, QWORD PTR this$[rbp]
  00049	48 83 c0 08	 add	 rax, 8
  0004d	48 8b c8	 mov	 rcx, rax
  00050	e8 00 00 00 00	 call	 ??0_Bxty@?$_String_val@U?$_Simple_types@_W@std@@@std@@QEAA@XZ ; std::_String_val<std::_Simple_types<wchar_t> >::_Bxty::_Bxty

; 496  : 		_Mysize(0),

  00055	48 8b 85 00 01
	00 00		 mov	 rax, QWORD PTR this$[rbp]
  0005c	48 c7 40 18 00
	00 00 00	 mov	 QWORD PTR [rax+24], 0

; 497  : 		_Myres(0)

  00064	48 8b 85 00 01
	00 00		 mov	 rax, QWORD PTR this$[rbp]
  0006b	48 c7 40 20 00
	00 00 00	 mov	 QWORD PTR [rax+32], 0

; 499  : 		}

  00073	48 8b 85 00 01
	00 00		 mov	 rax, QWORD PTR this$[rbp]
  0007a	48 8d a5 e8 00
	00 00		 lea	 rsp, QWORD PTR [rbp+232]
  00081	5f		 pop	 rdi
  00082	5d		 pop	 rbp
  00083	c3		 ret	 0
??0?$_String_val@U?$_Simple_types@_W@std@@@std@@QEAA@XZ ENDP ; std::_String_val<std::_Simple_types<wchar_t> >::_String_val<std::_Simple_types<wchar_t> >
_TEXT	ENDS
;	COMDAT text$x
text$x	SEGMENT
$T1 = 200
this$ = 256
?dtor$0@?0???0?$_String_val@U?$_Simple_types@_W@std@@@std@@QEAA@XZ@4HA PROC ; `std::_String_val<std::_Simple_types<wchar_t> >::_String_val<std::_Simple_types<wchar_t> >'::`1'::dtor$0
  00000	48 89 4c 24 08	 mov	 QWORD PTR [rsp+8], rcx
  00005	48 89 54 24 10	 mov	 QWORD PTR [rsp+16], rdx
  0000a	55		 push	 rbp
  0000b	57		 push	 rdi
  0000c	48 83 ec 28	 sub	 rsp, 40			; 00000028H
  00010	48 8d 6a 20	 lea	 rbp, QWORD PTR [rdx+32]
  00014	48 8b 8d 00 01
	00 00		 mov	 rcx, QWORD PTR this$[rbp]
  0001b	e8 00 00 00 00	 call	 ??1_Container_base12@std@@QEAA@XZ ; std::_Container_base12::~_Container_base12
  00020	48 83 c4 28	 add	 rsp, 40			; 00000028H
  00024	5f		 pop	 rdi
  00025	5d		 pop	 rbp
  00026	c3		 ret	 0
?dtor$0@?0???0?$_String_val@U?$_Simple_types@_W@std@@@std@@QEAA@XZ@4HA ENDP ; `std::_String_val<std::_Simple_types<wchar_t> >::_String_val<std::_Simple_types<wchar_t> >'::`1'::dtor$0
text$x	ENDS
; Function compile flags: /Odtp /RTCsu /ZI
;	COMDAT text$x
text$x	SEGMENT
$T1 = 200
this$ = 256
?dtor$0@?0???0?$_String_val@U?$_Simple_types@_W@std@@@std@@QEAA@XZ@4HA PROC ; `std::_String_val<std::_Simple_types<wchar_t> >::_String_val<std::_Simple_types<wchar_t> >'::`1'::dtor$0
  00000	48 89 4c 24 08	 mov	 QWORD PTR [rsp+8], rcx
  00005	48 89 54 24 10	 mov	 QWORD PTR [rsp+16], rdx
  0000a	55		 push	 rbp
  0000b	57		 push	 rdi
  0000c	48 83 ec 28	 sub	 rsp, 40			; 00000028H
  00010	48 8d 6a 20	 lea	 rbp, QWORD PTR [rdx+32]
  00014	48 8b 8d 00 01
	00 00		 mov	 rcx, QWORD PTR this$[rbp]
  0001b	e8 00 00 00 00	 call	 ??1_Container_base12@std@@QEAA@XZ ; std::_Container_base12::~_Container_base12
  00020	48 83 c4 28	 add	 rsp, 40			; 00000028H
  00024	5f		 pop	 rdi
  00025	5d		 pop	 rbp
  00026	c3		 ret	 0
?dtor$0@?0???0?$_String_val@U?$_Simple_types@_W@std@@@std@@QEAA@XZ@4HA ENDP ; `std::_String_val<std::_Simple_types<wchar_t> >::_String_val<std::_Simple_types<wchar_t> >'::`1'::dtor$0
text$x	ENDS
; Function compile flags: /Odtp /RTCsu /ZI
; File c:\program files (x86)\microsoft visual studio 14.0\vc\include\xmemory0
;	COMDAT ?max_size@?$_Wrap_alloc@V?$allocator@_W@std@@@std@@QEBA_KU_Nil@2@@Z
_TEXT	SEGMENT
this$ = 224
__formal$ = 232
?max_size@?$_Wrap_alloc@V?$allocator@_W@std@@@std@@QEBA_KU_Nil@2@@Z PROC ; std::_Wrap_alloc<std::allocator<wchar_t> >::max_size, COMDAT

; 1007 : 		{	// get maximum size

$LN3:
  00000	88 54 24 10	 mov	 BYTE PTR [rsp+16], dl
  00004	48 89 4c 24 08	 mov	 QWORD PTR [rsp+8], rcx
  00009	55		 push	 rbp
  0000a	57		 push	 rdi
  0000b	48 81 ec e8 00
	00 00		 sub	 rsp, 232		; 000000e8H
  00012	48 8d 6c 24 20	 lea	 rbp, QWORD PTR [rsp+32]
  00017	48 8b fc	 mov	 rdi, rsp
  0001a	b9 3a 00 00 00	 mov	 ecx, 58			; 0000003aH
  0001f	b8 cc cc cc cc	 mov	 eax, -858993460		; ccccccccH
  00024	f3 ab		 rep stosd
  00026	48 8b 8c 24 08
	01 00 00	 mov	 rcx, QWORD PTR [rsp+264]

; 1008 : 		return (_Mytraits::max_size(*this));

  0002e	48 8b 8d e0 00
	00 00		 mov	 rcx, QWORD PTR this$[rbp]
  00035	e8 00 00 00 00	 call	 ?max_size@?$allocator_traits@V?$allocator@_W@std@@@std@@SA_KAEBV?$allocator@_W@2@@Z ; std::allocator_traits<std::allocator<wchar_t> >::max_size

; 1009 : 		}

  0003a	48 8d a5 c8 00
	00 00		 lea	 rsp, QWORD PTR [rbp+200]
  00041	5f		 pop	 rdi
  00042	5d		 pop	 rbp
  00043	c3		 ret	 0
?max_size@?$_Wrap_alloc@V?$allocator@_W@std@@@std@@QEBA_KU_Nil@2@@Z ENDP ; std::_Wrap_alloc<std::allocator<wchar_t> >::max_size
_TEXT	ENDS
; Function compile flags: /Odtp /RTCsu /ZI
; File c:\program files (x86)\microsoft visual studio 14.0\vc\include\xmemory0
;	COMDAT ?deallocate@?$_Wrap_alloc@V?$allocator@_W@std@@@std@@QEAAXPEA_W_K@Z
_TEXT	SEGMENT
this$ = 224
_Ptr$ = 232
_Count$ = 240
?deallocate@?$_Wrap_alloc@V?$allocator@_W@std@@@std@@QEAAXPEA_W_K@Z PROC ; std::_Wrap_alloc<std::allocator<wchar_t> >::deallocate, COMDAT

; 986  : 		{	// deallocate object at _Ptr, ignore size

$LN3:
  00000	4c 89 44 24 18	 mov	 QWORD PTR [rsp+24], r8
  00005	48 89 54 24 10	 mov	 QWORD PTR [rsp+16], rdx
  0000a	48 89 4c 24 08	 mov	 QWORD PTR [rsp+8], rcx
  0000f	55		 push	 rbp
  00010	57		 push	 rdi
  00011	48 81 ec e8 00
	00 00		 sub	 rsp, 232		; 000000e8H
  00018	48 8d 6c 24 20	 lea	 rbp, QWORD PTR [rsp+32]
  0001d	48 8b fc	 mov	 rdi, rsp
  00020	b9 3a 00 00 00	 mov	 ecx, 58			; 0000003aH
  00025	b8 cc cc cc cc	 mov	 eax, -858993460		; ccccccccH
  0002a	f3 ab		 rep stosd
  0002c	48 8b 8c 24 08
	01 00 00	 mov	 rcx, QWORD PTR [rsp+264]

; 987  : 		_Mybase::deallocate(_Ptr, _Count);

  00034	4c 8b 85 f0 00
	00 00		 mov	 r8, QWORD PTR _Count$[rbp]
  0003b	48 8b 95 e8 00
	00 00		 mov	 rdx, QWORD PTR _Ptr$[rbp]
  00042	48 8b 8d e0 00
	00 00		 mov	 rcx, QWORD PTR this$[rbp]
  00049	e8 00 00 00 00	 call	 ?deallocate@?$allocator@_W@std@@QEAAXPEA_W_K@Z ; std::allocator<wchar_t>::deallocate

; 988  : 		}

  0004e	48 8d a5 c8 00
	00 00		 lea	 rsp, QWORD PTR [rbp+200]
  00055	5f		 pop	 rdi
  00056	5d		 pop	 rbp
  00057	c3		 ret	 0
?deallocate@?$_Wrap_alloc@V?$allocator@_W@std@@@std@@QEAAXPEA_W_K@Z ENDP ; std::_Wrap_alloc<std::allocator<wchar_t> >::deallocate
_TEXT	ENDS
; Function compile flags: /Odtp /RTCsu /ZI
; File c:\program files (x86)\microsoft visual studio 14.0\vc\include\xmemory0
;	COMDAT ?allocate@?$_Wrap_alloc@V?$allocator@_W@std@@@std@@QEAAPEA_W_K@Z
_TEXT	SEGMENT
this$ = 224
_Count$ = 232
?allocate@?$_Wrap_alloc@V?$allocator@_W@std@@@std@@QEAAPEA_W_K@Z PROC ; std::_Wrap_alloc<std::allocator<wchar_t> >::allocate, COMDAT

; 975  : 		{	// allocate array of _Count elements

$LN3:
  00000	48 89 54 24 10	 mov	 QWORD PTR [rsp+16], rdx
  00005	48 89 4c 24 08	 mov	 QWORD PTR [rsp+8], rcx
  0000a	55		 push	 rbp
  0000b	57		 push	 rdi
  0000c	48 81 ec e8 00
	00 00		 sub	 rsp, 232		; 000000e8H
  00013	48 8d 6c 24 20	 lea	 rbp, QWORD PTR [rsp+32]
  00018	48 8b fc	 mov	 rdi, rsp
  0001b	b9 3a 00 00 00	 mov	 ecx, 58			; 0000003aH
  00020	b8 cc cc cc cc	 mov	 eax, -858993460		; ccccccccH
  00025	f3 ab		 rep stosd
  00027	48 8b 8c 24 08
	01 00 00	 mov	 rcx, QWORD PTR [rsp+264]

; 976  : 		return (_Mybase::allocate(_Count));

  0002f	48 8b 95 e8 00
	00 00		 mov	 rdx, QWORD PTR _Count$[rbp]
  00036	48 8b 8d e0 00
	00 00		 mov	 rcx, QWORD PTR this$[rbp]
  0003d	e8 00 00 00 00	 call	 ?allocate@?$allocator@_W@std@@QEAAPEA_W_K@Z ; std::allocator<wchar_t>::allocate

; 977  : 		}

  00042	48 8d a5 c8 00
	00 00		 lea	 rsp, QWORD PTR [rbp+200]
  00049	5f		 pop	 rdi
  0004a	5d		 pop	 rbp
  0004b	c3		 ret	 0
?allocate@?$_Wrap_alloc@V?$allocator@_W@std@@@std@@QEAAPEA_W_K@Z ENDP ; std::_Wrap_alloc<std::allocator<wchar_t> >::allocate
_TEXT	ENDS
; Function compile flags: /Odtp /RTCsu /ZI
; File c:\program files (x86)\microsoft visual studio 14.0\vc\include\xmemory0
;	COMDAT ??0?$_Wrap_alloc@V?$allocator@_W@std@@@std@@QEAA@XZ
_TEXT	SEGMENT
this$ = 224
??0?$_Wrap_alloc@V?$allocator@_W@std@@@std@@QEAA@XZ PROC ; std::_Wrap_alloc<std::allocator<wchar_t> >::_Wrap_alloc<std::allocator<wchar_t> >, COMDAT

; 936  : 		{	// construct default allocator (do nothing)

$LN3:
  00000	48 89 4c 24 08	 mov	 QWORD PTR [rsp+8], rcx
  00005	55		 push	 rbp
  00006	57		 push	 rdi
  00007	48 81 ec e8 00
	00 00		 sub	 rsp, 232		; 000000e8H
  0000e	48 8d 6c 24 20	 lea	 rbp, QWORD PTR [rsp+32]
  00013	48 8b fc	 mov	 rdi, rsp
  00016	b9 3a 00 00 00	 mov	 ecx, 58			; 0000003aH
  0001b	b8 cc cc cc cc	 mov	 eax, -858993460		; ccccccccH
  00020	f3 ab		 rep stosd
  00022	48 8b 8c 24 08
	01 00 00	 mov	 rcx, QWORD PTR [rsp+264]

; 935  : 		: _Mybase()

  0002a	48 8b 8d e0 00
	00 00		 mov	 rcx, QWORD PTR this$[rbp]
  00031	e8 00 00 00 00	 call	 ??0?$allocator@_W@std@@QEAA@XZ ; std::allocator<wchar_t>::allocator<wchar_t>

; 937  : 		}

  00036	48 8b 85 e0 00
	00 00		 mov	 rax, QWORD PTR this$[rbp]
  0003d	48 8d a5 c8 00
	00 00		 lea	 rsp, QWORD PTR [rbp+200]
  00044	5f		 pop	 rdi
  00045	5d		 pop	 rbp
  00046	c3		 ret	 0
??0?$_Wrap_alloc@V?$allocator@_W@std@@@std@@QEAA@XZ ENDP ; std::_Wrap_alloc<std::allocator<wchar_t> >::_Wrap_alloc<std::allocator<wchar_t> >
_TEXT	ENDS
; Function compile flags: /Odtp /RTCsu /ZI
; File c:\program files (x86)\microsoft visual studio 14.0\vc\include\xmemory0
;	COMDAT ?max_size@?$allocator_traits@V?$allocator@_W@std@@@std@@SA_KAEBV?$allocator@_W@2@@Z
_TEXT	SEGMENT
_Al$ = 224
?max_size@?$allocator_traits@V?$allocator@_W@std@@@std@@SA_KAEBV?$allocator@_W@2@@Z PROC ; std::allocator_traits<std::allocator<wchar_t> >::max_size, COMDAT

; 868  : 		{	// get maximum size

$LN3:
  00000	48 89 4c 24 08	 mov	 QWORD PTR [rsp+8], rcx
  00005	55		 push	 rbp
  00006	57		 push	 rdi
  00007	48 81 ec e8 00
	00 00		 sub	 rsp, 232		; 000000e8H
  0000e	48 8d 6c 24 20	 lea	 rbp, QWORD PTR [rsp+32]
  00013	48 8b fc	 mov	 rdi, rsp
  00016	b9 3a 00 00 00	 mov	 ecx, 58			; 0000003aH
  0001b	b8 cc cc cc cc	 mov	 eax, -858993460		; ccccccccH
  00020	f3 ab		 rep stosd
  00022	48 8b 8c 24 08
	01 00 00	 mov	 rcx, QWORD PTR [rsp+264]

; 869  : 		return (_Al.max_size());

  0002a	48 8b 8d e0 00
	00 00		 mov	 rcx, QWORD PTR _Al$[rbp]
  00031	e8 00 00 00 00	 call	 ?max_size@?$allocator@_W@std@@QEBA_KXZ ; std::allocator<wchar_t>::max_size

; 870  : 		}

  00036	48 8d a5 c8 00
	00 00		 lea	 rsp, QWORD PTR [rbp+200]
  0003d	5f		 pop	 rdi
  0003e	5d		 pop	 rbp
  0003f	c3		 ret	 0
?max_size@?$allocator_traits@V?$allocator@_W@std@@@std@@SA_KAEBV?$allocator@_W@2@@Z ENDP ; std::allocator_traits<std::allocator<wchar_t> >::max_size
_TEXT	ENDS
; Function compile flags: /Odtp /RTCsu /ZI
; File c:\program files (x86)\microsoft visual studio 14.0\vc\include\xmemory0
;	COMDAT ?max_size@?$allocator@_W@std@@QEBA_KXZ
_TEXT	SEGMENT
this$ = 224
?max_size@?$allocator@_W@std@@QEBA_KXZ PROC		; std::allocator<wchar_t>::max_size, COMDAT

; 748  : 		{	// estimate maximum array size

$LN3:
  00000	48 89 4c 24 08	 mov	 QWORD PTR [rsp+8], rcx
  00005	55		 push	 rbp
  00006	57		 push	 rdi
  00007	48 81 ec c8 00
	00 00		 sub	 rsp, 200		; 000000c8H
  0000e	48 8b ec	 mov	 rbp, rsp
  00011	48 8b fc	 mov	 rdi, rsp
  00014	b9 32 00 00 00	 mov	 ecx, 50			; 00000032H
  00019	b8 cc cc cc cc	 mov	 eax, -858993460		; ccccccccH
  0001e	f3 ab		 rep stosd
  00020	48 8b 8c 24 e8
	00 00 00	 mov	 rcx, QWORD PTR [rsp+232]

; 749  : 		return ((size_t)(-1) / sizeof (_Ty));

  00028	48 b8 ff ff ff
	ff ff ff ff 7f	 mov	 rax, 9223372036854775807 ; 7fffffffffffffffH

; 750  : 		}

  00032	48 8d a5 c8 00
	00 00		 lea	 rsp, QWORD PTR [rbp+200]
  00039	5f		 pop	 rdi
  0003a	5d		 pop	 rbp
  0003b	c3		 ret	 0
?max_size@?$allocator@_W@std@@QEBA_KXZ ENDP		; std::allocator<wchar_t>::max_size
_TEXT	ENDS
; Function compile flags: /Odtp /RTCsu /ZI
; File c:\program files (x86)\microsoft visual studio 14.0\vc\include\xmemory0
;	COMDAT ?allocate@?$allocator@_W@std@@QEAAPEA_W_K@Z
_TEXT	SEGMENT
this$ = 224
_Count$ = 232
?allocate@?$allocator@_W@std@@QEAAPEA_W_K@Z PROC	; std::allocator<wchar_t>::allocate, COMDAT

; 724  : 		{	// allocate array of _Count elements

$LN3:
  00000	48 89 54 24 10	 mov	 QWORD PTR [rsp+16], rdx
  00005	48 89 4c 24 08	 mov	 QWORD PTR [rsp+8], rcx
  0000a	55		 push	 rbp
  0000b	57		 push	 rdi
  0000c	48 81 ec e8 00
	00 00		 sub	 rsp, 232		; 000000e8H
  00013	48 8d 6c 24 20	 lea	 rbp, QWORD PTR [rsp+32]
  00018	48 8b fc	 mov	 rdi, rsp
  0001b	b9 3a 00 00 00	 mov	 ecx, 58			; 0000003aH
  00020	b8 cc cc cc cc	 mov	 eax, -858993460		; ccccccccH
  00025	f3 ab		 rep stosd
  00027	48 8b 8c 24 08
	01 00 00	 mov	 rcx, QWORD PTR [rsp+264]

; 725  : 		return (static_cast<pointer>(_Allocate(_Count, sizeof (_Ty))));

  0002f	41 b0 01	 mov	 r8b, 1
  00032	ba 02 00 00 00	 mov	 edx, 2
  00037	48 8b 8d e8 00
	00 00		 mov	 rcx, QWORD PTR _Count$[rbp]
  0003e	e8 00 00 00 00	 call	 ?_Allocate@std@@YAPEAX_K0_N@Z ; std::_Allocate

; 726  : 		}

  00043	48 8d a5 c8 00
	00 00		 lea	 rsp, QWORD PTR [rbp+200]
  0004a	5f		 pop	 rdi
  0004b	5d		 pop	 rbp
  0004c	c3		 ret	 0
?allocate@?$allocator@_W@std@@QEAAPEA_W_K@Z ENDP	; std::allocator<wchar_t>::allocate
_TEXT	ENDS
; Function compile flags: /Odtp /RTCsu /ZI
; File c:\program files (x86)\microsoft visual studio 14.0\vc\include\xmemory0
;	COMDAT ?deallocate@?$allocator@_W@std@@QEAAXPEA_W_K@Z
_TEXT	SEGMENT
this$ = 224
_Ptr$ = 232
_Count$ = 240
?deallocate@?$allocator@_W@std@@QEAAXPEA_W_K@Z PROC	; std::allocator<wchar_t>::deallocate, COMDAT

; 719  : 		{	// deallocate object at _Ptr

$LN3:
  00000	4c 89 44 24 18	 mov	 QWORD PTR [rsp+24], r8
  00005	48 89 54 24 10	 mov	 QWORD PTR [rsp+16], rdx
  0000a	48 89 4c 24 08	 mov	 QWORD PTR [rsp+8], rcx
  0000f	55		 push	 rbp
  00010	57		 push	 rdi
  00011	48 81 ec e8 00
	00 00		 sub	 rsp, 232		; 000000e8H
  00018	48 8d 6c 24 20	 lea	 rbp, QWORD PTR [rsp+32]
  0001d	48 8b fc	 mov	 rdi, rsp
  00020	b9 3a 00 00 00	 mov	 ecx, 58			; 0000003aH
  00025	b8 cc cc cc cc	 mov	 eax, -858993460		; ccccccccH
  0002a	f3 ab		 rep stosd
  0002c	48 8b 8c 24 08
	01 00 00	 mov	 rcx, QWORD PTR [rsp+264]

; 720  : 		_Deallocate(_Ptr, _Count, sizeof (_Ty));

  00034	41 b8 02 00 00
	00		 mov	 r8d, 2
  0003a	48 8b 95 f0 00
	00 00		 mov	 rdx, QWORD PTR _Count$[rbp]
  00041	48 8b 8d e8 00
	00 00		 mov	 rcx, QWORD PTR _Ptr$[rbp]
  00048	e8 00 00 00 00	 call	 ?_Deallocate@std@@YAXPEAX_K1@Z ; std::_Deallocate

; 721  : 		}

  0004d	48 8d a5 c8 00
	00 00		 lea	 rsp, QWORD PTR [rbp+200]
  00054	5f		 pop	 rdi
  00055	5d		 pop	 rbp
  00056	c3		 ret	 0
?deallocate@?$allocator@_W@std@@QEAAXPEA_W_K@Z ENDP	; std::allocator<wchar_t>::deallocate
_TEXT	ENDS
; Function compile flags: /Odtp /RTCsu /ZI
; File c:\program files (x86)\microsoft visual studio 14.0\vc\include\xmemory0
;	COMDAT ??0?$allocator@_W@std@@QEAA@XZ
_TEXT	SEGMENT
this$ = 224
??0?$allocator@_W@std@@QEAA@XZ PROC			; std::allocator<wchar_t>::allocator<wchar_t>, COMDAT

; 699  : 	allocator() _THROW0()

$LN3:
  00000	48 89 4c 24 08	 mov	 QWORD PTR [rsp+8], rcx
  00005	55		 push	 rbp
  00006	57		 push	 rdi
  00007	48 81 ec c8 00
	00 00		 sub	 rsp, 200		; 000000c8H
  0000e	48 8b ec	 mov	 rbp, rsp
  00011	48 8b fc	 mov	 rdi, rsp
  00014	b9 32 00 00 00	 mov	 ecx, 50			; 00000032H
  00019	b8 cc cc cc cc	 mov	 eax, -858993460		; ccccccccH
  0001e	f3 ab		 rep stosd
  00020	48 8b 8c 24 e8
	00 00 00	 mov	 rcx, QWORD PTR [rsp+232]

; 700  : 		{	// construct default allocator (do nothing)
; 701  : 		}

  00028	48 8b 85 e0 00
	00 00		 mov	 rax, QWORD PTR this$[rbp]
  0002f	48 8d a5 c8 00
	00 00		 lea	 rsp, QWORD PTR [rbp+200]
  00036	5f		 pop	 rdi
  00037	5d		 pop	 rbp
  00038	c3		 ret	 0
??0?$allocator@_W@std@@QEAA@XZ ENDP			; std::allocator<wchar_t>::allocator<wchar_t>
_TEXT	ENDS
; Function compile flags: /Odtp /RTCsu /ZI
; File c:\program files (x86)\microsoft visual studio 14.0\vc\include\xmemory0
;	COMDAT ?_Deallocate@std@@YAXPEAX_K1@Z
_TEXT	SEGMENT
_User_size$ = 8
_Ptr_user$1 = 40
_Ptr_ptr$2 = 72
_Ptr_container$3 = 104
_Ptr$ = 352
_Count$ = 360
_Sz$ = 368
?_Deallocate@std@@YAXPEAX_K1@Z PROC			; std::_Deallocate, COMDAT

; 92   : 	{	// deallocate storage for _Count elements of size _Sz

$LN22:
  00000	4c 89 44 24 18	 mov	 QWORD PTR [rsp+24], r8
  00005	48 89 54 24 10	 mov	 QWORD PTR [rsp+16], rdx
  0000a	48 89 4c 24 08	 mov	 QWORD PTR [rsp+8], rcx
  0000f	55		 push	 rbp
  00010	57		 push	 rdi
  00011	48 81 ec 78 01
	00 00		 sub	 rsp, 376		; 00000178H
  00018	48 8d 6c 24 30	 lea	 rbp, QWORD PTR [rsp+48]
  0001d	48 8b fc	 mov	 rdi, rsp
  00020	b9 5e 00 00 00	 mov	 ecx, 94			; 0000005eH
  00025	b8 cc cc cc cc	 mov	 eax, -858993460		; ccccccccH
  0002a	f3 ab		 rep stosd
  0002c	48 8b 8c 24 98
	01 00 00	 mov	 rcx, QWORD PTR [rsp+408]

; 93   :  #if defined(_M_IX86) || defined(_M_X64)
; 94   : 	_SCL_SECURE_ALWAYS_VALIDATE(_Count <= (size_t)(-1) / _Sz);

  00034	33 d2		 xor	 edx, edx
  00036	48 c7 c0 ff ff
	ff ff		 mov	 rax, -1
  0003d	48 f7 b5 70 01
	00 00		 div	 QWORD PTR _Sz$[rbp]
  00044	48 39 85 68 01
	00 00		 cmp	 QWORD PTR _Count$[rbp], rax
  0004b	0f 86 83 00 00
	00		 jbe	 $LN2@Deallocate
  00051	48 8d 05 00 00
	00 00		 lea	 rax, OFFSET FLAT:??_C@_0BN@HMCJOMKN@_Count?5?$DM?$DN?5?$CIsize_t?$CJ?$CI?91?$CJ?5?1?5_Sz?$AA@
  00058	48 85 c0	 test	 rax, rax
  0005b	74 06		 je	 SHORT $LN10@Deallocate
  0005d	33 c0		 xor	 eax, eax
  0005f	85 c0		 test	 eax, eax
  00061	75 41		 jne	 SHORT $LN11@Deallocate
$LN10@Deallocate:
  00063	8b 05 00 00 00
	00		 mov	 eax, DWORD PTR ?__LINE__Var@?0??_Deallocate@std@@YAXPEAX_K1@Z@4JA
  00069	83 c0 02	 add	 eax, 2
  0006c	48 8d 0d 00 00
	00 00		 lea	 rcx, OFFSET FLAT:??_C@_1EI@MLOBABC@?$AA?$CC?$AA_?$AAC?$AAo?$AAu?$AAn?$AAt?$AA?5?$AA?$DM?$AA?$DN?$AA?5?$AA?$CI?$AAs?$AAi?$AAz?$AAe?$AA_?$AAt?$AA?$CJ?$AA?$CI?$AA?9?$AA1?$AA?$CJ?$AA?5?$AA?1?$AA?5?$AA_?$AAS?$AAz?$AA?$CC?$AA?5?$AA?$CG@
  00073	48 89 4c 24 28	 mov	 QWORD PTR [rsp+40], rcx
  00078	48 8d 0d 00 00
	00 00		 lea	 rcx, OFFSET FLAT:??_C@_17CNPHIMPH@?$AA?$CF?$AAl?$AAs?$AA?$AA@
  0007f	48 89 4c 24 20	 mov	 QWORD PTR [rsp+32], rcx
  00084	45 33 c9	 xor	 r9d, r9d
  00087	44 8b c0	 mov	 r8d, eax
  0008a	48 8d 15 00 00
	00 00		 lea	 rdx, OFFSET FLAT:??_C@_1JA@DKOIEICI@?$AAc?$AA?3?$AA?2?$AAp?$AAr?$AAo?$AAg?$AAr?$AAa?$AAm?$AA?5?$AAf?$AAi?$AAl?$AAe?$AAs?$AA?5?$AA?$CI?$AAx?$AA8?$AA6?$AA?$CJ?$AA?2?$AAm?$AAi?$AAc?$AAr?$AAo?$AAs?$AAo?$AAf?$AAt@
  00091	b9 02 00 00 00	 mov	 ecx, 2
  00096	ff 15 00 00 00
	00		 call	 QWORD PTR __imp__CrtDbgReportW
  0009c	83 f8 01	 cmp	 eax, 1
  0009f	75 03		 jne	 SHORT $LN11@Deallocate
  000a1	cc		 int	 3
  000a2	33 c0		 xor	 eax, eax
$LN11@Deallocate:
  000a4	8b 05 00 00 00
	00		 mov	 eax, DWORD PTR ?__LINE__Var@?0??_Deallocate@std@@YAXPEAX_K1@Z@4JA
  000aa	83 c0 02	 add	 eax, 2
  000ad	48 c7 44 24 20
	00 00 00 00	 mov	 QWORD PTR [rsp+32], 0
  000b6	44 8b c8	 mov	 r9d, eax
  000b9	4c 8d 05 00 00
	00 00		 lea	 r8, OFFSET FLAT:??_C@_1JA@DKOIEICI@?$AAc?$AA?3?$AA?2?$AAp?$AAr?$AAo?$AAg?$AAr?$AAa?$AAm?$AA?5?$AAf?$AAi?$AAl?$AAe?$AAs?$AA?5?$AA?$CI?$AAx?$AA8?$AA6?$AA?$CJ?$AA?2?$AAm?$AAi?$AAc?$AAr?$AAo?$AAs?$AAo?$AAf?$AAt@
  000c0	48 8d 15 00 00
	00 00		 lea	 rdx, OFFSET FLAT:??_C@_1CC@LOFJFFDB@?$AAs?$AAt?$AAd?$AA?3?$AA?3?$AA_?$AAD?$AAe?$AAa?$AAl?$AAl?$AAo?$AAc?$AAa?$AAt?$AAe?$AA?$AA@
  000c7	48 8d 0d 00 00
	00 00		 lea	 rcx, OFFSET FLAT:??_C@_1CG@JNLFBNGN@?$AA?$CC?$AAi?$AAn?$AAv?$AAa?$AAl?$AAi?$AAd?$AA?5?$AAa?$AAr?$AAg?$AAu?$AAm?$AAe?$AAn?$AAt?$AA?$CC?$AA?$AA@
  000ce	ff 15 00 00 00
	00		 call	 QWORD PTR __imp__invalid_parameter
$LN2@Deallocate:

; 95   : 	const size_t _User_size = _Count * _Sz;

  000d4	48 8b 85 68 01
	00 00		 mov	 rax, QWORD PTR _Count$[rbp]
  000db	48 0f af 85 70
	01 00 00	 imul	 rax, QWORD PTR _Sz$[rbp]
  000e3	48 89 45 08	 mov	 QWORD PTR _User_size$[rbp], rax

; 96   : 	if (_BIG_ALLOCATION_THRESHOLD <= _User_size)

  000e7	48 81 7d 08 00
	10 00 00	 cmp	 QWORD PTR _User_size$[rbp], 4096 ; 00001000H
  000ef	0f 82 2c 03 00
	00		 jb	 $LN3@Deallocate

; 97   : 		{	// deallocate large block
; 98   : 		const uintptr_t _Ptr_user = reinterpret_cast<uintptr_t>(_Ptr);

  000f5	48 8b 85 60 01
	00 00		 mov	 rax, QWORD PTR _Ptr$[rbp]
  000fc	48 89 45 28	 mov	 QWORD PTR _Ptr_user$1[rbp], rax

; 99   : 		_SCL_SECURE_ALWAYS_VALIDATE(

  00100	48 8b 45 28	 mov	 rax, QWORD PTR _Ptr_user$1[rbp]
  00104	48 83 e0 1f	 and	 rax, 31
  00108	48 85 c0	 test	 rax, rax
  0010b	0f 84 83 00 00
	00		 je	 $LN4@Deallocate
  00111	48 8d 05 00 00
	00 00		 lea	 rax, OFFSET FLAT:??_C@_0DD@GBGGGKGG@?$CI_Ptr_user?5?$CG?5?$CI_BIG_ALLOCATION_AL@
  00118	48 85 c0	 test	 rax, rax
  0011b	74 06		 je	 SHORT $LN12@Deallocate
  0011d	33 c0		 xor	 eax, eax
  0011f	85 c0		 test	 eax, eax
  00121	75 41		 jne	 SHORT $LN13@Deallocate
$LN12@Deallocate:
  00123	8b 05 00 00 00
	00		 mov	 eax, DWORD PTR ?__LINE__Var@?0??_Deallocate@std@@YAXPEAX_K1@Z@4JA
  00129	83 c0 08	 add	 eax, 8
  0012c	48 8d 0d 00 00
	00 00		 lea	 rcx, OFFSET FLAT:??_C@_1HE@CDMBFOKC@?$AA?$CC?$AA?$CI?$AA_?$AAP?$AAt?$AAr?$AA_?$AAu?$AAs?$AAe?$AAr?$AA?5?$AA?$CG?$AA?5?$AA?$CI?$AA_?$AAB?$AAI?$AAG?$AA_?$AAA?$AAL?$AAL?$AAO?$AAC?$AAA?$AAT?$AAI?$AAO?$AAN?$AA_?$AAA@
  00133	48 89 4c 24 28	 mov	 QWORD PTR [rsp+40], rcx
  00138	48 8d 0d 00 00
	00 00		 lea	 rcx, OFFSET FLAT:??_C@_17CNPHIMPH@?$AA?$CF?$AAl?$AAs?$AA?$AA@
  0013f	48 89 4c 24 20	 mov	 QWORD PTR [rsp+32], rcx
  00144	45 33 c9	 xor	 r9d, r9d
  00147	44 8b c0	 mov	 r8d, eax
  0014a	48 8d 15 00 00
	00 00		 lea	 rdx, OFFSET FLAT:??_C@_1JA@DKOIEICI@?$AAc?$AA?3?$AA?2?$AAp?$AAr?$AAo?$AAg?$AAr?$AAa?$AAm?$AA?5?$AAf?$AAi?$AAl?$AAe?$AAs?$AA?5?$AA?$CI?$AAx?$AA8?$AA6?$AA?$CJ?$AA?2?$AAm?$AAi?$AAc?$AAr?$AAo?$AAs?$AAo?$AAf?$AAt@
  00151	b9 02 00 00 00	 mov	 ecx, 2
  00156	ff 15 00 00 00
	00		 call	 QWORD PTR __imp__CrtDbgReportW
  0015c	83 f8 01	 cmp	 eax, 1
  0015f	75 03		 jne	 SHORT $LN13@Deallocate
  00161	cc		 int	 3
  00162	33 c0		 xor	 eax, eax
$LN13@Deallocate:
  00164	8b 05 00 00 00
	00		 mov	 eax, DWORD PTR ?__LINE__Var@?0??_Deallocate@std@@YAXPEAX_K1@Z@4JA
  0016a	83 c0 08	 add	 eax, 8
  0016d	48 c7 44 24 20
	00 00 00 00	 mov	 QWORD PTR [rsp+32], 0
  00176	44 8b c8	 mov	 r9d, eax
  00179	4c 8d 05 00 00
	00 00		 lea	 r8, OFFSET FLAT:??_C@_1JA@DKOIEICI@?$AAc?$AA?3?$AA?2?$AAp?$AAr?$AAo?$AAg?$AAr?$AAa?$AAm?$AA?5?$AAf?$AAi?$AAl?$AAe?$AAs?$AA?5?$AA?$CI?$AAx?$AA8?$AA6?$AA?$CJ?$AA?2?$AAm?$AAi?$AAc?$AAr?$AAo?$AAs?$AAo?$AAf?$AAt@
  00180	48 8d 15 00 00
	00 00		 lea	 rdx, OFFSET FLAT:??_C@_1CC@LOFJFFDB@?$AAs?$AAt?$AAd?$AA?3?$AA?3?$AA_?$AAD?$AAe?$AAa?$AAl?$AAl?$AAo?$AAc?$AAa?$AAt?$AAe?$AA?$AA@
  00187	48 8d 0d 00 00
	00 00		 lea	 rcx, OFFSET FLAT:??_C@_1CG@JNLFBNGN@?$AA?$CC?$AAi?$AAn?$AAv?$AAa?$AAl?$AAi?$AAd?$AA?5?$AAa?$AAr?$AAg?$AAu?$AAm?$AAe?$AAn?$AAt?$AA?$CC?$AA?$AA@
  0018e	ff 15 00 00 00
	00		 call	 QWORD PTR __imp__invalid_parameter
$LN4@Deallocate:

; 100  : 			(_Ptr_user & (_BIG_ALLOCATION_ALIGNMENT - 1)) == 0);
; 101  : 		const uintptr_t _Ptr_ptr = _Ptr_user - sizeof(void *);

  00194	48 8b 45 28	 mov	 rax, QWORD PTR _Ptr_user$1[rbp]
  00198	48 83 e8 08	 sub	 rax, 8
  0019c	48 89 45 48	 mov	 QWORD PTR _Ptr_ptr$2[rbp], rax

; 102  : 		const uintptr_t _Ptr_container =
; 103  : 			*reinterpret_cast<uintptr_t *>(_Ptr_ptr);

  001a0	48 8b 45 48	 mov	 rax, QWORD PTR _Ptr_ptr$2[rbp]
  001a4	48 8b 00	 mov	 rax, QWORD PTR [rax]
  001a7	48 89 45 68	 mov	 QWORD PTR _Ptr_container$3[rbp], rax

; 104  : 
; 105  :  #ifdef _DEBUG
; 106  : 		// If the following asserts, it likely means that we are performing
; 107  : 		// an aligned delete on memory coming from an unaligned allocation.
; 108  : 		_SCL_SECURE_ALWAYS_VALIDATE(

  001ab	b8 08 00 00 00	 mov	 eax, 8
  001b0	48 6b c0 ff	 imul	 rax, rax, -1
  001b4	48 8b 4d 48	 mov	 rcx, QWORD PTR _Ptr_ptr$2[rbp]
  001b8	48 ba fa fa fa
	fa fa fa fa fa	 mov	 rdx, -361700864190383366 ; fafafafafafafafaH
  001c2	48 39 14 01	 cmp	 QWORD PTR [rcx+rax], rdx
  001c6	0f 84 83 00 00
	00		 je	 $LN5@Deallocate
  001cc	48 8d 05 00 00
	00 00		 lea	 rax, OFFSET FLAT:??_C@_0EI@NOJHEJCJ@reinterpret_cast?$DMuintptr_t?5?$CK?$DO?$CI_P@
  001d3	48 85 c0	 test	 rax, rax
  001d6	74 06		 je	 SHORT $LN14@Deallocate
  001d8	33 c0		 xor	 eax, eax
  001da	85 c0		 test	 eax, eax
  001dc	75 41		 jne	 SHORT $LN15@Deallocate
$LN14@Deallocate:
  001de	8b 05 00 00 00
	00		 mov	 eax, DWORD PTR ?__LINE__Var@?0??_Deallocate@std@@YAXPEAX_K1@Z@4JA
  001e4	83 c0 12	 add	 eax, 18
  001e7	48 8d 0d 00 00
	00 00		 lea	 rcx, OFFSET FLAT:??_C@_1JO@EKLKIEHP@?$AA?$CC?$AAr?$AAe?$AAi?$AAn?$AAt?$AAe?$AAr?$AAp?$AAr?$AAe?$AAt?$AA_?$AAc?$AAa?$AAs?$AAt?$AA?$DM?$AAu?$AAi?$AAn?$AAt?$AAp?$AAt?$AAr?$AA_?$AAt?$AA?5?$AA?$CK?$AA?$DO?$AA?$CI?$AA_@
  001ee	48 89 4c 24 28	 mov	 QWORD PTR [rsp+40], rcx
  001f3	48 8d 0d 00 00
	00 00		 lea	 rcx, OFFSET FLAT:??_C@_17CNPHIMPH@?$AA?$CF?$AAl?$AAs?$AA?$AA@
  001fa	48 89 4c 24 20	 mov	 QWORD PTR [rsp+32], rcx
  001ff	45 33 c9	 xor	 r9d, r9d
  00202	44 8b c0	 mov	 r8d, eax
  00205	48 8d 15 00 00
	00 00		 lea	 rdx, OFFSET FLAT:??_C@_1JA@DKOIEICI@?$AAc?$AA?3?$AA?2?$AAp?$AAr?$AAo?$AAg?$AAr?$AAa?$AAm?$AA?5?$AAf?$AAi?$AAl?$AAe?$AAs?$AA?5?$AA?$CI?$AAx?$AA8?$AA6?$AA?$CJ?$AA?2?$AAm?$AAi?$AAc?$AAr?$AAo?$AAs?$AAo?$AAf?$AAt@
  0020c	b9 02 00 00 00	 mov	 ecx, 2
  00211	ff 15 00 00 00
	00		 call	 QWORD PTR __imp__CrtDbgReportW
  00217	83 f8 01	 cmp	 eax, 1
  0021a	75 03		 jne	 SHORT $LN15@Deallocate
  0021c	cc		 int	 3
  0021d	33 c0		 xor	 eax, eax
$LN15@Deallocate:
  0021f	8b 05 00 00 00
	00		 mov	 eax, DWORD PTR ?__LINE__Var@?0??_Deallocate@std@@YAXPEAX_K1@Z@4JA
  00225	83 c0 12	 add	 eax, 18
  00228	48 c7 44 24 20
	00 00 00 00	 mov	 QWORD PTR [rsp+32], 0
  00231	44 8b c8	 mov	 r9d, eax
  00234	4c 8d 05 00 00
	00 00		 lea	 r8, OFFSET FLAT:??_C@_1JA@DKOIEICI@?$AAc?$AA?3?$AA?2?$AAp?$AAr?$AAo?$AAg?$AAr?$AAa?$AAm?$AA?5?$AAf?$AAi?$AAl?$AAe?$AAs?$AA?5?$AA?$CI?$AAx?$AA8?$AA6?$AA?$CJ?$AA?2?$AAm?$AAi?$AAc?$AAr?$AAo?$AAs?$AAo?$AAf?$AAt@
  0023b	48 8d 15 00 00
	00 00		 lea	 rdx, OFFSET FLAT:??_C@_1CC@LOFJFFDB@?$AAs?$AAt?$AAd?$AA?3?$AA?3?$AA_?$AAD?$AAe?$AAa?$AAl?$AAl?$AAo?$AAc?$AAa?$AAt?$AAe?$AA?$AA@
  00242	48 8d 0d 00 00
	00 00		 lea	 rcx, OFFSET FLAT:??_C@_1CG@JNLFBNGN@?$AA?$CC?$AAi?$AAn?$AAv?$AAa?$AAl?$AAi?$AAd?$AA?5?$AAa?$AAr?$AAg?$AAu?$AAm?$AAe?$AAn?$AAt?$AA?$CC?$AA?$AA@
  00249	ff 15 00 00 00
	00		 call	 QWORD PTR __imp__invalid_parameter
$LN5@Deallocate:

; 109  : 			reinterpret_cast<uintptr_t *>(_Ptr_ptr)[-1] ==
; 110  : 				_BIG_ALLOCATION_SENTINEL);
; 111  :  #endif /* _DEBUG */
; 112  : 
; 113  : 		// Extra paranoia on aligned allocation/deallocation
; 114  : 		_SCL_SECURE_ALWAYS_VALIDATE(_Ptr_container < _Ptr_user);

  0024f	48 8b 45 28	 mov	 rax, QWORD PTR _Ptr_user$1[rbp]
  00253	48 39 45 68	 cmp	 QWORD PTR _Ptr_container$3[rbp], rax
  00257	0f 82 83 00 00
	00		 jb	 $LN6@Deallocate
  0025d	48 8d 05 00 00
	00 00		 lea	 rax, OFFSET FLAT:??_C@_0BL@OCKMEJON@_Ptr_container?5?$DM?5_Ptr_user?$AA@
  00264	48 85 c0	 test	 rax, rax
  00267	74 06		 je	 SHORT $LN16@Deallocate
  00269	33 c0		 xor	 eax, eax
  0026b	85 c0		 test	 eax, eax
  0026d	75 41		 jne	 SHORT $LN17@Deallocate
$LN16@Deallocate:
  0026f	8b 05 00 00 00
	00		 mov	 eax, DWORD PTR ?__LINE__Var@?0??_Deallocate@std@@YAXPEAX_K1@Z@4JA
  00275	83 c0 16	 add	 eax, 22
  00278	48 8d 0d 00 00
	00 00		 lea	 rcx, OFFSET FLAT:??_C@_1EE@PDHAHDDC@?$AA?$CC?$AA_?$AAP?$AAt?$AAr?$AA_?$AAc?$AAo?$AAn?$AAt?$AAa?$AAi?$AAn?$AAe?$AAr?$AA?5?$AA?$DM?$AA?5?$AA_?$AAP?$AAt?$AAr?$AA_?$AAu?$AAs?$AAe?$AAr?$AA?$CC?$AA?5?$AA?$CG?$AA?$CG?$AA?5@
  0027f	48 89 4c 24 28	 mov	 QWORD PTR [rsp+40], rcx
  00284	48 8d 0d 00 00
	00 00		 lea	 rcx, OFFSET FLAT:??_C@_17CNPHIMPH@?$AA?$CF?$AAl?$AAs?$AA?$AA@
  0028b	48 89 4c 24 20	 mov	 QWORD PTR [rsp+32], rcx
  00290	45 33 c9	 xor	 r9d, r9d
  00293	44 8b c0	 mov	 r8d, eax
  00296	48 8d 15 00 00
	00 00		 lea	 rdx, OFFSET FLAT:??_C@_1JA@DKOIEICI@?$AAc?$AA?3?$AA?2?$AAp?$AAr?$AAo?$AAg?$AAr?$AAa?$AAm?$AA?5?$AAf?$AAi?$AAl?$AAe?$AAs?$AA?5?$AA?$CI?$AAx?$AA8?$AA6?$AA?$CJ?$AA?2?$AAm?$AAi?$AAc?$AAr?$AAo?$AAs?$AAo?$AAf?$AAt@
  0029d	b9 02 00 00 00	 mov	 ecx, 2
  002a2	ff 15 00 00 00
	00		 call	 QWORD PTR __imp__CrtDbgReportW
  002a8	83 f8 01	 cmp	 eax, 1
  002ab	75 03		 jne	 SHORT $LN17@Deallocate
  002ad	cc		 int	 3
  002ae	33 c0		 xor	 eax, eax
$LN17@Deallocate:
  002b0	8b 05 00 00 00
	00		 mov	 eax, DWORD PTR ?__LINE__Var@?0??_Deallocate@std@@YAXPEAX_K1@Z@4JA
  002b6	83 c0 16	 add	 eax, 22
  002b9	48 c7 44 24 20
	00 00 00 00	 mov	 QWORD PTR [rsp+32], 0
  002c2	44 8b c8	 mov	 r9d, eax
  002c5	4c 8d 05 00 00
	00 00		 lea	 r8, OFFSET FLAT:??_C@_1JA@DKOIEICI@?$AAc?$AA?3?$AA?2?$AAp?$AAr?$AAo?$AAg?$AAr?$AAa?$AAm?$AA?5?$AAf?$AAi?$AAl?$AAe?$AAs?$AA?5?$AA?$CI?$AAx?$AA8?$AA6?$AA?$CJ?$AA?2?$AAm?$AAi?$AAc?$AAr?$AAo?$AAs?$AAo?$AAf?$AAt@
  002cc	48 8d 15 00 00
	00 00		 lea	 rdx, OFFSET FLAT:??_C@_1CC@LOFJFFDB@?$AAs?$AAt?$AAd?$AA?3?$AA?3?$AA_?$AAD?$AAe?$AAa?$AAl?$AAl?$AAo?$AAc?$AAa?$AAt?$AAe?$AA?$AA@
  002d3	48 8d 0d 00 00
	00 00		 lea	 rcx, OFFSET FLAT:??_C@_1CG@JNLFBNGN@?$AA?$CC?$AAi?$AAn?$AAv?$AAa?$AAl?$AAi?$AAd?$AA?5?$AAa?$AAr?$AAg?$AAu?$AAm?$AAe?$AAn?$AAt?$AA?$CC?$AA?$AA@
  002da	ff 15 00 00 00
	00		 call	 QWORD PTR __imp__invalid_parameter
$LN6@Deallocate:

; 115  : 
; 116  :  #ifdef _DEBUG
; 117  : 		_SCL_SECURE_ALWAYS_VALIDATE(2 * sizeof(void *)

  002e0	48 8b 45 68	 mov	 rax, QWORD PTR _Ptr_container$3[rbp]
  002e4	48 8b 4d 28	 mov	 rcx, QWORD PTR _Ptr_user$1[rbp]
  002e8	48 2b c8	 sub	 rcx, rax
  002eb	48 8b c1	 mov	 rax, rcx
  002ee	48 83 f8 10	 cmp	 rax, 16
  002f2	0f 83 83 00 00
	00		 jae	 $LN7@Deallocate
  002f8	48 8d 05 00 00
	00 00		 lea	 rax, OFFSET FLAT:??_C@_0DB@GLFJLNCE@2?5?$CK?5sizeof?$CIvoid?5?$CK?$CJ?5?$DM?$DN?5_Ptr_user?5@
  002ff	48 85 c0	 test	 rax, rax
  00302	74 06		 je	 SHORT $LN18@Deallocate
  00304	33 c0		 xor	 eax, eax
  00306	85 c0		 test	 eax, eax
  00308	75 41		 jne	 SHORT $LN19@Deallocate
$LN18@Deallocate:
  0030a	8b 05 00 00 00
	00		 mov	 eax, DWORD PTR ?__LINE__Var@?0??_Deallocate@std@@YAXPEAX_K1@Z@4JA
  00310	83 c0 1a	 add	 eax, 26
  00313	48 8d 0d 00 00
	00 00		 lea	 rcx, OFFSET FLAT:??_C@_1HA@NAPGMHAO@?$AA?$CC?$AA2?$AA?5?$AA?$CK?$AA?5?$AAs?$AAi?$AAz?$AAe?$AAo?$AAf?$AA?$CI?$AAv?$AAo?$AAi?$AAd?$AA?5?$AA?$CK?$AA?$CJ?$AA?5?$AA?$DM?$AA?$DN?$AA?5?$AA_?$AAP?$AAt?$AAr?$AA_?$AAu?$AAs?$AAe?$AAr@
  0031a	48 89 4c 24 28	 mov	 QWORD PTR [rsp+40], rcx
  0031f	48 8d 0d 00 00
	00 00		 lea	 rcx, OFFSET FLAT:??_C@_17CNPHIMPH@?$AA?$CF?$AAl?$AAs?$AA?$AA@
  00326	48 89 4c 24 20	 mov	 QWORD PTR [rsp+32], rcx
  0032b	45 33 c9	 xor	 r9d, r9d
  0032e	44 8b c0	 mov	 r8d, eax
  00331	48 8d 15 00 00
	00 00		 lea	 rdx, OFFSET FLAT:??_C@_1JA@DKOIEICI@?$AAc?$AA?3?$AA?2?$AAp?$AAr?$AAo?$AAg?$AAr?$AAa?$AAm?$AA?5?$AAf?$AAi?$AAl?$AAe?$AAs?$AA?5?$AA?$CI?$AAx?$AA8?$AA6?$AA?$CJ?$AA?2?$AAm?$AAi?$AAc?$AAr?$AAo?$AAs?$AAo?$AAf?$AAt@
  00338	b9 02 00 00 00	 mov	 ecx, 2
  0033d	ff 15 00 00 00
	00		 call	 QWORD PTR __imp__CrtDbgReportW
  00343	83 f8 01	 cmp	 eax, 1
  00346	75 03		 jne	 SHORT $LN19@Deallocate
  00348	cc		 int	 3
  00349	33 c0		 xor	 eax, eax
$LN19@Deallocate:
  0034b	8b 05 00 00 00
	00		 mov	 eax, DWORD PTR ?__LINE__Var@?0??_Deallocate@std@@YAXPEAX_K1@Z@4JA
  00351	83 c0 1a	 add	 eax, 26
  00354	48 c7 44 24 20
	00 00 00 00	 mov	 QWORD PTR [rsp+32], 0
  0035d	44 8b c8	 mov	 r9d, eax
  00360	4c 8d 05 00 00
	00 00		 lea	 r8, OFFSET FLAT:??_C@_1JA@DKOIEICI@?$AAc?$AA?3?$AA?2?$AAp?$AAr?$AAo?$AAg?$AAr?$AAa?$AAm?$AA?5?$AAf?$AAi?$AAl?$AAe?$AAs?$AA?5?$AA?$CI?$AAx?$AA8?$AA6?$AA?$CJ?$AA?2?$AAm?$AAi?$AAc?$AAr?$AAo?$AAs?$AAo?$AAf?$AAt@
  00367	48 8d 15 00 00
	00 00		 lea	 rdx, OFFSET FLAT:??_C@_1CC@LOFJFFDB@?$AAs?$AAt?$AAd?$AA?3?$AA?3?$AA_?$AAD?$AAe?$AAa?$AAl?$AAl?$AAo?$AAc?$AAa?$AAt?$AAe?$AA?$AA@
  0036e	48 8d 0d 00 00
	00 00		 lea	 rcx, OFFSET FLAT:??_C@_1CG@JNLFBNGN@?$AA?$CC?$AAi?$AAn?$AAv?$AAa?$AAl?$AAi?$AAd?$AA?5?$AAa?$AAr?$AAg?$AAu?$AAm?$AAe?$AAn?$AAt?$AA?$CC?$AA?$AA@
  00375	ff 15 00 00 00
	00		 call	 QWORD PTR __imp__invalid_parameter
$LN7@Deallocate:

; 118  : 			<= _Ptr_user - _Ptr_container);
; 119  : 
; 120  :  #else /* _DEBUG */
; 121  : 		_SCL_SECURE_ALWAYS_VALIDATE(sizeof(void *)
; 122  : 			<= _Ptr_user - _Ptr_container);
; 123  :  #endif /* _DEBUG */
; 124  : 
; 125  : 		_SCL_SECURE_ALWAYS_VALIDATE(_Ptr_user - _Ptr_container

  0037b	48 8b 45 68	 mov	 rax, QWORD PTR _Ptr_container$3[rbp]
  0037f	48 8b 4d 28	 mov	 rcx, QWORD PTR _Ptr_user$1[rbp]
  00383	48 2b c8	 sub	 rcx, rax
  00386	48 8b c1	 mov	 rax, rcx
  00389	48 83 f8 2f	 cmp	 rax, 47			; 0000002fH
  0038d	0f 86 83 00 00
	00		 jbe	 $LN8@Deallocate
  00393	48 8d 05 00 00
	00 00		 lea	 rax, OFFSET FLAT:??_C@_0CN@BLHJCAL@_Ptr_user?5?9?5_Ptr_container?5?$DM?$DN?5_N@
  0039a	48 85 c0	 test	 rax, rax
  0039d	74 06		 je	 SHORT $LN20@Deallocate
  0039f	33 c0		 xor	 eax, eax
  003a1	85 c0		 test	 eax, eax
  003a3	75 41		 jne	 SHORT $LN21@Deallocate
$LN20@Deallocate:
  003a5	8b 05 00 00 00
	00		 mov	 eax, DWORD PTR ?__LINE__Var@?0??_Deallocate@std@@YAXPEAX_K1@Z@4JA
  003ab	83 c0 22	 add	 eax, 34			; 00000022H
  003ae	48 8d 0d 00 00
	00 00		 lea	 rcx, OFFSET FLAT:??_C@_1GI@DHJGPFNI@?$AA?$CC?$AA_?$AAP?$AAt?$AAr?$AA_?$AAu?$AAs?$AAe?$AAr?$AA?5?$AA?9?$AA?5?$AA_?$AAP?$AAt?$AAr?$AA_?$AAc?$AAo?$AAn?$AAt?$AAa?$AAi?$AAn?$AAe?$AAr?$AA?5?$AA?$DM?$AA?$DN?$AA?5?$AA_@
  003b5	48 89 4c 24 28	 mov	 QWORD PTR [rsp+40], rcx
  003ba	48 8d 0d 00 00
	00 00		 lea	 rcx, OFFSET FLAT:??_C@_17CNPHIMPH@?$AA?$CF?$AAl?$AAs?$AA?$AA@
  003c1	48 89 4c 24 20	 mov	 QWORD PTR [rsp+32], rcx
  003c6	45 33 c9	 xor	 r9d, r9d
  003c9	44 8b c0	 mov	 r8d, eax
  003cc	48 8d 15 00 00
	00 00		 lea	 rdx, OFFSET FLAT:??_C@_1JA@DKOIEICI@?$AAc?$AA?3?$AA?2?$AAp?$AAr?$AAo?$AAg?$AAr?$AAa?$AAm?$AA?5?$AAf?$AAi?$AAl?$AAe?$AAs?$AA?5?$AA?$CI?$AAx?$AA8?$AA6?$AA?$CJ?$AA?2?$AAm?$AAi?$AAc?$AAr?$AAo?$AAs?$AAo?$AAf?$AAt@
  003d3	b9 02 00 00 00	 mov	 ecx, 2
  003d8	ff 15 00 00 00
	00		 call	 QWORD PTR __imp__CrtDbgReportW
  003de	83 f8 01	 cmp	 eax, 1
  003e1	75 03		 jne	 SHORT $LN21@Deallocate
  003e3	cc		 int	 3
  003e4	33 c0		 xor	 eax, eax
$LN21@Deallocate:
  003e6	8b 05 00 00 00
	00		 mov	 eax, DWORD PTR ?__LINE__Var@?0??_Deallocate@std@@YAXPEAX_K1@Z@4JA
  003ec	83 c0 22	 add	 eax, 34			; 00000022H
  003ef	48 c7 44 24 20
	00 00 00 00	 mov	 QWORD PTR [rsp+32], 0
  003f8	44 8b c8	 mov	 r9d, eax
  003fb	4c 8d 05 00 00
	00 00		 lea	 r8, OFFSET FLAT:??_C@_1JA@DKOIEICI@?$AAc?$AA?3?$AA?2?$AAp?$AAr?$AAo?$AAg?$AAr?$AAa?$AAm?$AA?5?$AAf?$AAi?$AAl?$AAe?$AAs?$AA?5?$AA?$CI?$AAx?$AA8?$AA6?$AA?$CJ?$AA?2?$AAm?$AAi?$AAc?$AAr?$AAo?$AAs?$AAo?$AAf?$AAt@
  00402	48 8d 15 00 00
	00 00		 lea	 rdx, OFFSET FLAT:??_C@_1CC@LOFJFFDB@?$AAs?$AAt?$AAd?$AA?3?$AA?3?$AA_?$AAD?$AAe?$AAa?$AAl?$AAl?$AAo?$AAc?$AAa?$AAt?$AAe?$AA?$AA@
  00409	48 8d 0d 00 00
	00 00		 lea	 rcx, OFFSET FLAT:??_C@_1CG@JNLFBNGN@?$AA?$CC?$AAi?$AAn?$AAv?$AAa?$AAl?$AAi?$AAd?$AA?5?$AAa?$AAr?$AAg?$AAu?$AAm?$AAe?$AAn?$AAt?$AA?$CC?$AA?$AA@
  00410	ff 15 00 00 00
	00		 call	 QWORD PTR __imp__invalid_parameter
$LN8@Deallocate:

; 126  : 			<= _NON_USER_SIZE);
; 127  : 
; 128  : 		_Ptr = reinterpret_cast<void *>(_Ptr_container);

  00416	48 8b 45 68	 mov	 rax, QWORD PTR _Ptr_container$3[rbp]
  0041a	48 89 85 60 01
	00 00		 mov	 QWORD PTR _Ptr$[rbp], rax
$LN3@Deallocate:

; 129  : 		}
; 130  :  #endif /* defined(_M_IX86) || defined(_M_X64) */
; 131  : 
; 132  : 	::operator delete(_Ptr);

  00421	48 8b 8d 60 01
	00 00		 mov	 rcx, QWORD PTR _Ptr$[rbp]
  00428	e8 00 00 00 00	 call	 ??3@YAXPEAX@Z		; operator delete

; 133  : 	}

  0042d	48 8d a5 48 01
	00 00		 lea	 rsp, QWORD PTR [rbp+328]
  00434	5f		 pop	 rdi
  00435	5d		 pop	 rbp
  00436	c3		 ret	 0
?_Deallocate@std@@YAXPEAX_K1@Z ENDP			; std::_Deallocate
_TEXT	ENDS
; Function compile flags: /Odtp /RTCsu /ZI
; File c:\program files (x86)\microsoft visual studio 14.0\vc\include\xmemory0
;	COMDAT ?_Allocate@std@@YAPEAX_K0_N@Z
_TEXT	SEGMENT
_Ptr$ = 8
_User_size$ = 40
_Block_size$1 = 72
_Ptr_container$2 = 104
_Count$ = 352
_Sz$ = 360
_Try_aligned_allocation$ = 368
?_Allocate@std@@YAPEAX_K0_N@Z PROC			; std::_Allocate, COMDAT

; 48   : 	{	// allocate storage for _Count elements of size _Sz

$LN14:
  00000	44 88 44 24 18	 mov	 BYTE PTR [rsp+24], r8b
  00005	48 89 54 24 10	 mov	 QWORD PTR [rsp+16], rdx
  0000a	48 89 4c 24 08	 mov	 QWORD PTR [rsp+8], rcx
  0000f	55		 push	 rbp
  00010	57		 push	 rdi
  00011	48 81 ec 78 01
	00 00		 sub	 rsp, 376		; 00000178H
  00018	48 8d 6c 24 30	 lea	 rbp, QWORD PTR [rsp+48]
  0001d	48 8b fc	 mov	 rdi, rsp
  00020	b9 5e 00 00 00	 mov	 ecx, 94			; 0000005eH
  00025	b8 cc cc cc cc	 mov	 eax, -858993460		; ccccccccH
  0002a	f3 ab		 rep stosd
  0002c	48 8b 8c 24 98
	01 00 00	 mov	 rcx, QWORD PTR [rsp+408]

; 49   : 	void *_Ptr = 0;

  00034	48 c7 45 08 00
	00 00 00	 mov	 QWORD PTR _Ptr$[rbp], 0

; 50   : 
; 51   : 	if (_Count == 0)

  0003c	48 83 bd 60 01
	00 00 00	 cmp	 QWORD PTR _Count$[rbp], 0
  00044	75 09		 jne	 SHORT $LN2@Allocate

; 52   : 		return (_Ptr);

  00046	48 8b 45 08	 mov	 rax, QWORD PTR _Ptr$[rbp]
  0004a	e9 ea 01 00 00	 jmp	 $LN1@Allocate
$LN2@Allocate:

; 53   : 
; 54   : 	// check overflow of multiply
; 55   : 	if ((size_t)(-1) / _Sz < _Count)

  0004f	33 d2		 xor	 edx, edx
  00051	48 c7 c0 ff ff
	ff ff		 mov	 rax, -1
  00058	48 f7 b5 68 01
	00 00		 div	 QWORD PTR _Sz$[rbp]
  0005f	48 3b 85 60 01
	00 00		 cmp	 rax, QWORD PTR _Count$[rbp]
  00066	73 06		 jae	 SHORT $LN3@Allocate

; 56   : 		_Xbad_alloc();	// report no memory

  00068	ff 15 00 00 00
	00		 call	 QWORD PTR __imp_?_Xbad_alloc@std@@YAXXZ
$LN3@Allocate:

; 57   : 	const size_t _User_size = _Count * _Sz;

  0006e	48 8b 85 60 01
	00 00		 mov	 rax, QWORD PTR _Count$[rbp]
  00075	48 0f af 85 68
	01 00 00	 imul	 rax, QWORD PTR _Sz$[rbp]
  0007d	48 89 45 28	 mov	 QWORD PTR _User_size$[rbp], rax

; 58   : 
; 59   :  #if defined(_M_IX86) || defined(_M_X64)
; 60   : 	if (_Try_aligned_allocation
; 61   : 		&& _BIG_ALLOCATION_THRESHOLD <= _User_size)

  00081	0f b6 85 70 01
	00 00		 movzx	 eax, BYTE PTR _Try_aligned_allocation$[rbp]
  00088	85 c0		 test	 eax, eax
  0008a	0f 84 0a 01 00
	00		 je	 $LN4@Allocate
  00090	48 81 7d 28 00
	10 00 00	 cmp	 QWORD PTR _User_size$[rbp], 4096 ; 00001000H
  00098	0f 82 fc 00 00
	00		 jb	 $LN4@Allocate

; 62   : 		{	// allocate large block
; 63   : 		static_assert(sizeof (void *) < _BIG_ALLOCATION_ALIGNMENT,
; 64   : 			"Big allocations should at least match vector register size");
; 65   : 		const size_t _Block_size = _NON_USER_SIZE + _User_size;

  0009e	48 8b 45 28	 mov	 rax, QWORD PTR _User_size$[rbp]
  000a2	48 83 c0 2f	 add	 rax, 47			; 0000002fH
  000a6	48 89 45 48	 mov	 QWORD PTR _Block_size$1[rbp], rax

; 66   : 		if (_Block_size <= _User_size)

  000aa	48 8b 45 28	 mov	 rax, QWORD PTR _User_size$[rbp]
  000ae	48 39 45 48	 cmp	 QWORD PTR _Block_size$1[rbp], rax
  000b2	77 06		 ja	 SHORT $LN6@Allocate

; 67   : 			_Xbad_alloc();	// report no memory

  000b4	ff 15 00 00 00
	00		 call	 QWORD PTR __imp_?_Xbad_alloc@std@@YAXXZ
$LN6@Allocate:

; 68   : 		const uintptr_t _Ptr_container =
; 69   : 			reinterpret_cast<uintptr_t>(::operator new(_Block_size));

  000ba	48 8b 4d 48	 mov	 rcx, QWORD PTR _Block_size$1[rbp]
  000be	e8 00 00 00 00	 call	 ??2@YAPEAX_K@Z		; operator new
  000c3	48 89 45 68	 mov	 QWORD PTR _Ptr_container$2[rbp], rax

; 70   : 		_SCL_SECURE_ALWAYS_VALIDATE(_Ptr_container != 0);

  000c7	48 83 7d 68 00	 cmp	 QWORD PTR _Ptr_container$2[rbp], 0
  000cc	0f 85 83 00 00
	00		 jne	 $LN7@Allocate
  000d2	48 8d 05 00 00
	00 00		 lea	 rax, OFFSET FLAT:??_C@_0BE@LMNLACIC@_Ptr_container?5?$CB?$DN?50?$AA@
  000d9	48 85 c0	 test	 rax, rax
  000dc	74 06		 je	 SHORT $LN10@Allocate
  000de	33 c0		 xor	 eax, eax
  000e0	85 c0		 test	 eax, eax
  000e2	75 41		 jne	 SHORT $LN11@Allocate
$LN10@Allocate:
  000e4	8b 05 00 00 00
	00		 mov	 eax, DWORD PTR ?__LINE__Var@?0??_Allocate@std@@YAPEAX_K0_N@Z@4JA
  000ea	83 c0 16	 add	 eax, 22
  000ed	48 8d 0d 00 00
	00 00		 lea	 rcx, OFFSET FLAT:??_C@_1DG@HGDKEBPG@?$AA?$CC?$AA_?$AAP?$AAt?$AAr?$AA_?$AAc?$AAo?$AAn?$AAt?$AAa?$AAi?$AAn?$AAe?$AAr?$AA?5?$AA?$CB?$AA?$DN?$AA?5?$AA0?$AA?$CC?$AA?5?$AA?$CG?$AA?$CG?$AA?5?$AA0?$AA?$AA@
  000f4	48 89 4c 24 28	 mov	 QWORD PTR [rsp+40], rcx
  000f9	48 8d 0d 00 00
	00 00		 lea	 rcx, OFFSET FLAT:??_C@_17CNPHIMPH@?$AA?$CF?$AAl?$AAs?$AA?$AA@
  00100	48 89 4c 24 20	 mov	 QWORD PTR [rsp+32], rcx
  00105	45 33 c9	 xor	 r9d, r9d
  00108	44 8b c0	 mov	 r8d, eax
  0010b	48 8d 15 00 00
	00 00		 lea	 rdx, OFFSET FLAT:??_C@_1JA@DKOIEICI@?$AAc?$AA?3?$AA?2?$AAp?$AAr?$AAo?$AAg?$AAr?$AAa?$AAm?$AA?5?$AAf?$AAi?$AAl?$AAe?$AAs?$AA?5?$AA?$CI?$AAx?$AA8?$AA6?$AA?$CJ?$AA?2?$AAm?$AAi?$AAc?$AAr?$AAo?$AAs?$AAo?$AAf?$AAt@
  00112	b9 02 00 00 00	 mov	 ecx, 2
  00117	ff 15 00 00 00
	00		 call	 QWORD PTR __imp__CrtDbgReportW
  0011d	83 f8 01	 cmp	 eax, 1
  00120	75 03		 jne	 SHORT $LN11@Allocate
  00122	cc		 int	 3
  00123	33 c0		 xor	 eax, eax
$LN11@Allocate:
  00125	8b 05 00 00 00
	00		 mov	 eax, DWORD PTR ?__LINE__Var@?0??_Allocate@std@@YAPEAX_K0_N@Z@4JA
  0012b	83 c0 16	 add	 eax, 22
  0012e	48 c7 44 24 20
	00 00 00 00	 mov	 QWORD PTR [rsp+32], 0
  00137	44 8b c8	 mov	 r9d, eax
  0013a	4c 8d 05 00 00
	00 00		 lea	 r8, OFFSET FLAT:??_C@_1JA@DKOIEICI@?$AAc?$AA?3?$AA?2?$AAp?$AAr?$AAo?$AAg?$AAr?$AAa?$AAm?$AA?5?$AAf?$AAi?$AAl?$AAe?$AAs?$AA?5?$AA?$CI?$AAx?$AA8?$AA6?$AA?$CJ?$AA?2?$AAm?$AAi?$AAc?$AAr?$AAo?$AAs?$AAo?$AAf?$AAt@
  00141	48 8d 15 00 00
	00 00		 lea	 rdx, OFFSET FLAT:??_C@_1BO@NKFMJPA@?$AAs?$AAt?$AAd?$AA?3?$AA?3?$AA_?$AAA?$AAl?$AAl?$AAo?$AAc?$AAa?$AAt?$AAe?$AA?$AA@
  00148	48 8d 0d 00 00
	00 00		 lea	 rcx, OFFSET FLAT:??_C@_1CG@JNLFBNGN@?$AA?$CC?$AAi?$AAn?$AAv?$AAa?$AAl?$AAi?$AAd?$AA?5?$AAa?$AAr?$AAg?$AAu?$AAm?$AAe?$AAn?$AAt?$AA?$CC?$AA?$AA@
  0014f	ff 15 00 00 00
	00		 call	 QWORD PTR __imp__invalid_parameter
$LN7@Allocate:

; 71   : 		_Ptr = reinterpret_cast<void *>((_Ptr_container + _NON_USER_SIZE)

  00155	48 8b 45 68	 mov	 rax, QWORD PTR _Ptr_container$2[rbp]
  00159	48 83 c0 2f	 add	 rax, 47			; 0000002fH
  0015d	48 83 e0 e0	 and	 rax, -32		; ffffffffffffffe0H
  00161	48 89 45 08	 mov	 QWORD PTR _Ptr$[rbp], rax

; 72   : 			& ~(_BIG_ALLOCATION_ALIGNMENT - 1));
; 73   : 		static_cast<uintptr_t *>(_Ptr)[-1] = _Ptr_container;

  00165	b8 08 00 00 00	 mov	 eax, 8
  0016a	48 6b c0 ff	 imul	 rax, rax, -1
  0016e	48 8b 4d 08	 mov	 rcx, QWORD PTR _Ptr$[rbp]
  00172	48 8b 55 68	 mov	 rdx, QWORD PTR _Ptr_container$2[rbp]
  00176	48 89 14 01	 mov	 QWORD PTR [rcx+rax], rdx

; 74   : 
; 75   :  #ifdef _DEBUG
; 76   : 		static_cast<uintptr_t *>(_Ptr)[-2] = _BIG_ALLOCATION_SENTINEL;

  0017a	b8 08 00 00 00	 mov	 eax, 8
  0017f	48 6b c0 fe	 imul	 rax, rax, -2
  00183	48 8b 4d 08	 mov	 rcx, QWORD PTR _Ptr$[rbp]
  00187	48 ba fa fa fa
	fa fa fa fa fa	 mov	 rdx, -361700864190383366 ; fafafafafafafafaH
  00191	48 89 14 01	 mov	 QWORD PTR [rcx+rax], rdx

; 77   :  #endif /* _DEBUG */
; 78   : 		}
; 79   : 	else

  00195	e9 9b 00 00 00	 jmp	 $LN5@Allocate
$LN4@Allocate:

; 80   :  #endif /* defined(_M_IX86) || defined(_M_X64) */
; 81   : 
; 82   : 		{	// allocate normal block
; 83   : 		_Ptr = ::operator new(_User_size);

  0019a	48 8b 4d 28	 mov	 rcx, QWORD PTR _User_size$[rbp]
  0019e	e8 00 00 00 00	 call	 ??2@YAPEAX_K@Z		; operator new
  001a3	48 89 45 08	 mov	 QWORD PTR _Ptr$[rbp], rax

; 84   : 		_SCL_SECURE_ALWAYS_VALIDATE(_Ptr != 0);

  001a7	48 83 7d 08 00	 cmp	 QWORD PTR _Ptr$[rbp], 0
  001ac	0f 85 83 00 00
	00		 jne	 $LN8@Allocate
  001b2	48 8d 05 00 00
	00 00		 lea	 rax, OFFSET FLAT:??_C@_09GLJCAGLP@_Ptr?5?$CB?$DN?50?$AA@
  001b9	48 85 c0	 test	 rax, rax
  001bc	74 06		 je	 SHORT $LN12@Allocate
  001be	33 c0		 xor	 eax, eax
  001c0	85 c0		 test	 eax, eax
  001c2	75 41		 jne	 SHORT $LN13@Allocate
$LN12@Allocate:
  001c4	8b 05 00 00 00
	00		 mov	 eax, DWORD PTR ?__LINE__Var@?0??_Allocate@std@@YAPEAX_K0_N@Z@4JA
  001ca	83 c0 24	 add	 eax, 36			; 00000024H
  001cd	48 8d 0d 00 00
	00 00		 lea	 rcx, OFFSET FLAT:??_C@_1CC@GKJLLHIM@?$AA?$CC?$AA_?$AAP?$AAt?$AAr?$AA?5?$AA?$CB?$AA?$DN?$AA?5?$AA0?$AA?$CC?$AA?5?$AA?$CG?$AA?$CG?$AA?5?$AA0?$AA?$AA@
  001d4	48 89 4c 24 28	 mov	 QWORD PTR [rsp+40], rcx
  001d9	48 8d 0d 00 00
	00 00		 lea	 rcx, OFFSET FLAT:??_C@_17CNPHIMPH@?$AA?$CF?$AAl?$AAs?$AA?$AA@
  001e0	48 89 4c 24 20	 mov	 QWORD PTR [rsp+32], rcx
  001e5	45 33 c9	 xor	 r9d, r9d
  001e8	44 8b c0	 mov	 r8d, eax
  001eb	48 8d 15 00 00
	00 00		 lea	 rdx, OFFSET FLAT:??_C@_1JA@DKOIEICI@?$AAc?$AA?3?$AA?2?$AAp?$AAr?$AAo?$AAg?$AAr?$AAa?$AAm?$AA?5?$AAf?$AAi?$AAl?$AAe?$AAs?$AA?5?$AA?$CI?$AAx?$AA8?$AA6?$AA?$CJ?$AA?2?$AAm?$AAi?$AAc?$AAr?$AAo?$AAs?$AAo?$AAf?$AAt@
  001f2	b9 02 00 00 00	 mov	 ecx, 2
  001f7	ff 15 00 00 00
	00		 call	 QWORD PTR __imp__CrtDbgReportW
  001fd	83 f8 01	 cmp	 eax, 1
  00200	75 03		 jne	 SHORT $LN13@Allocate
  00202	cc		 int	 3
  00203	33 c0		 xor	 eax, eax
$LN13@Allocate:
  00205	8b 05 00 00 00
	00		 mov	 eax, DWORD PTR ?__LINE__Var@?0??_Allocate@std@@YAPEAX_K0_N@Z@4JA
  0020b	83 c0 24	 add	 eax, 36			; 00000024H
  0020e	48 c7 44 24 20
	00 00 00 00	 mov	 QWORD PTR [rsp+32], 0
  00217	44 8b c8	 mov	 r9d, eax
  0021a	4c 8d 05 00 00
	00 00		 lea	 r8, OFFSET FLAT:??_C@_1JA@DKOIEICI@?$AAc?$AA?3?$AA?2?$AAp?$AAr?$AAo?$AAg?$AAr?$AAa?$AAm?$AA?5?$AAf?$AAi?$AAl?$AAe?$AAs?$AA?5?$AA?$CI?$AAx?$AA8?$AA6?$AA?$CJ?$AA?2?$AAm?$AAi?$AAc?$AAr?$AAo?$AAs?$AAo?$AAf?$AAt@
  00221	48 8d 15 00 00
	00 00		 lea	 rdx, OFFSET FLAT:??_C@_1BO@NKFMJPA@?$AAs?$AAt?$AAd?$AA?3?$AA?3?$AA_?$AAA?$AAl?$AAl?$AAo?$AAc?$AAa?$AAt?$AAe?$AA?$AA@
  00228	48 8d 0d 00 00
	00 00		 lea	 rcx, OFFSET FLAT:??_C@_1CG@JNLFBNGN@?$AA?$CC?$AAi?$AAn?$AAv?$AAa?$AAl?$AAi?$AAd?$AA?5?$AAa?$AAr?$AAg?$AAu?$AAm?$AAe?$AAn?$AAt?$AA?$CC?$AA?$AA@
  0022f	ff 15 00 00 00
	00		 call	 QWORD PTR __imp__invalid_parameter
$LN8@Allocate:
$LN5@Allocate:

; 85   : 		}
; 86   : 	return (_Ptr);

  00235	48 8b 45 08	 mov	 rax, QWORD PTR _Ptr$[rbp]
$LN1@Allocate:
$LN9@Allocate:

; 87   : 	}

  00239	48 8d a5 48 01
	00 00		 lea	 rsp, QWORD PTR [rbp+328]
  00240	5f		 pop	 rdi
  00241	5d		 pop	 rbp
  00242	c3		 ret	 0
?_Allocate@std@@YAPEAX_K0_N@Z ENDP			; std::_Allocate
_TEXT	ENDS
; Function compile flags: /Odtp /RTCsu /ZI
; File c:\program files (x86)\microsoft visual studio 14.0\vc\include\xutility
;	COMDAT ?_Orphan_all@_Container_base12@std@@QEAAXXZ
_TEXT	SEGMENT
_Lock$4 = 4
_Pnext$5 = 40
__$ArrayPad$ = 248
this$ = 288
?_Orphan_all@_Container_base12@std@@QEAAXXZ PROC	; std::_Container_base12::_Orphan_all, COMDAT

; 215  : 	{	// orphan all iterators

$LN8:
  00000	48 89 4c 24 08	 mov	 QWORD PTR [rsp+8], rcx
  00005	55		 push	 rbp
  00006	57		 push	 rdi
  00007	48 81 ec 28 01
	00 00		 sub	 rsp, 296		; 00000128H
  0000e	48 8d 6c 24 20	 lea	 rbp, QWORD PTR [rsp+32]
  00013	48 8b fc	 mov	 rdi, rsp
  00016	b9 4a 00 00 00	 mov	 ecx, 74			; 0000004aH
  0001b	b8 cc cc cc cc	 mov	 eax, -858993460		; ccccccccH
  00020	f3 ab		 rep stosd
  00022	48 8b 8c 24 48
	01 00 00	 mov	 rcx, QWORD PTR [rsp+328]
  0002a	48 8b 05 00 00
	00 00		 mov	 rax, QWORD PTR __security_cookie
  00031	48 33 c5	 xor	 rax, rbp
  00034	48 89 85 f8 00
	00 00		 mov	 QWORD PTR __$ArrayPad$[rbp], rax

; 216  :  #if _ITERATOR_DEBUG_LEVEL == 2
; 217  : 	if (_Myproxy != 0)

  0003b	48 8b 85 20 01
	00 00		 mov	 rax, QWORD PTR this$[rbp]
  00042	48 83 38 00	 cmp	 QWORD PTR [rax], 0
  00046	74 6b		 je	 SHORT $LN5@Orphan_all

; 218  : 		{	// proxy allocated, drain it
; 219  : 		_Lockit _Lock(_LOCK_DEBUG);

  00048	ba 03 00 00 00	 mov	 edx, 3
  0004d	48 8d 4d 04	 lea	 rcx, QWORD PTR _Lock$4[rbp]
  00051	ff 15 00 00 00
	00		 call	 QWORD PTR __imp_??0_Lockit@std@@QEAA@H@Z

; 220  : 
; 221  : 		for (_Iterator_base12 **_Pnext = &_Myproxy->_Myfirstiter;

  00057	48 8b 85 20 01
	00 00		 mov	 rax, QWORD PTR this$[rbp]
  0005e	48 8b 00	 mov	 rax, QWORD PTR [rax]
  00061	48 83 c0 08	 add	 rax, 8
  00065	48 89 45 28	 mov	 QWORD PTR _Pnext$5[rbp], rax
  00069	eb 12		 jmp	 SHORT $LN4@Orphan_all
$LN2@Orphan_all:

; 222  : 			*_Pnext != 0; *_Pnext = (*_Pnext)->_Mynextiter)

  0006b	48 8b 45 28	 mov	 rax, QWORD PTR _Pnext$5[rbp]
  0006f	48 8b 00	 mov	 rax, QWORD PTR [rax]
  00072	48 8b 4d 28	 mov	 rcx, QWORD PTR _Pnext$5[rbp]
  00076	48 8b 40 08	 mov	 rax, QWORD PTR [rax+8]
  0007a	48 89 01	 mov	 QWORD PTR [rcx], rax
$LN4@Orphan_all:
  0007d	48 8b 45 28	 mov	 rax, QWORD PTR _Pnext$5[rbp]
  00081	48 83 38 00	 cmp	 QWORD PTR [rax], 0
  00085	74 10		 je	 SHORT $LN3@Orphan_all

; 223  : 			(*_Pnext)->_Myproxy = 0;

  00087	48 8b 45 28	 mov	 rax, QWORD PTR _Pnext$5[rbp]
  0008b	48 8b 00	 mov	 rax, QWORD PTR [rax]
  0008e	48 c7 00 00 00
	00 00		 mov	 QWORD PTR [rax], 0
  00095	eb d4		 jmp	 SHORT $LN2@Orphan_all
$LN3@Orphan_all:

; 224  : 		_Myproxy->_Myfirstiter = 0;

  00097	48 8b 85 20 01
	00 00		 mov	 rax, QWORD PTR this$[rbp]
  0009e	48 8b 00	 mov	 rax, QWORD PTR [rax]
  000a1	48 c7 40 08 00
	00 00 00	 mov	 QWORD PTR [rax+8], 0

; 225  : 		}

  000a9	48 8d 4d 04	 lea	 rcx, QWORD PTR _Lock$4[rbp]
  000ad	ff 15 00 00 00
	00		 call	 QWORD PTR __imp_??1_Lockit@std@@QEAA@XZ
$LN5@Orphan_all:

; 226  :  #endif /* _ITERATOR_DEBUG_LEVEL == 2 */
; 227  : 	}

  000b3	48 8d 4d e0	 lea	 rcx, QWORD PTR [rbp-32]
  000b7	48 8d 15 00 00
	00 00		 lea	 rdx, OFFSET FLAT:?_Orphan_all@_Container_base12@std@@QEAAXXZ$rtcFrameData
  000be	e8 00 00 00 00	 call	 _RTC_CheckStackVars
  000c3	48 8b 8d f8 00
	00 00		 mov	 rcx, QWORD PTR __$ArrayPad$[rbp]
  000ca	48 33 cd	 xor	 rcx, rbp
  000cd	e8 00 00 00 00	 call	 __security_check_cookie
  000d2	48 8d a5 08 01
	00 00		 lea	 rsp, QWORD PTR [rbp+264]
  000d9	5f		 pop	 rdi
  000da	5d		 pop	 rbp
  000db	c3		 ret	 0
?_Orphan_all@_Container_base12@std@@QEAAXXZ ENDP	; std::_Container_base12::_Orphan_all
_TEXT	ENDS
; Function compile flags: /Odtp /RTCsu /ZI
; File c:\program files (x86)\microsoft visual studio 14.0\vc\include\xutility
;	COMDAT ??1_Container_base12@std@@QEAA@XZ
_TEXT	SEGMENT
$T1 = 200
this$ = 256
??1_Container_base12@std@@QEAA@XZ PROC			; std::_Container_base12::~_Container_base12, COMDAT

; 94   : 		{	// destroy the container

$LN3:
  00000	48 89 4c 24 08	 mov	 QWORD PTR [rsp+8], rcx
  00005	55		 push	 rbp
  00006	57		 push	 rdi
  00007	48 81 ec 08 01
	00 00		 sub	 rsp, 264		; 00000108H
  0000e	48 8d 6c 24 20	 lea	 rbp, QWORD PTR [rsp+32]
  00013	48 8b fc	 mov	 rdi, rsp
  00016	b9 42 00 00 00	 mov	 ecx, 66			; 00000042H
  0001b	b8 cc cc cc cc	 mov	 eax, -858993460		; ccccccccH
  00020	f3 ab		 rep stosd
  00022	48 8b 8c 24 28
	01 00 00	 mov	 rcx, QWORD PTR [rsp+296]
  0002a	48 c7 85 c8 00
	00 00 fe ff ff
	ff		 mov	 QWORD PTR $T1[rbp], -2

; 95   : 		_Orphan_all();

  00035	48 8b 8d 00 01
	00 00		 mov	 rcx, QWORD PTR this$[rbp]
  0003c	e8 00 00 00 00	 call	 ?_Orphan_all@_Container_base12@std@@QEAAXXZ ; std::_Container_base12::_Orphan_all
  00041	90		 npad	 1

; 96   : 		}

  00042	48 8d a5 e8 00
	00 00		 lea	 rsp, QWORD PTR [rbp+232]
  00049	5f		 pop	 rdi
  0004a	5d		 pop	 rbp
  0004b	c3		 ret	 0
??1_Container_base12@std@@QEAA@XZ ENDP			; std::_Container_base12::~_Container_base12
_TEXT	ENDS
; Function compile flags: /Odtp /RTCsu /ZI
; File c:\program files (x86)\microsoft visual studio 14.0\vc\include\xutility
;	COMDAT ??0_Container_base12@std@@QEAA@XZ
_TEXT	SEGMENT
this$ = 224
??0_Container_base12@std@@QEAA@XZ PROC			; std::_Container_base12::_Container_base12, COMDAT

; 80   : 		{	// construct childless container

$LN3:
  00000	48 89 4c 24 08	 mov	 QWORD PTR [rsp+8], rcx
  00005	55		 push	 rbp
  00006	57		 push	 rdi
  00007	48 81 ec c8 00
	00 00		 sub	 rsp, 200		; 000000c8H
  0000e	48 8b ec	 mov	 rbp, rsp
  00011	48 8b fc	 mov	 rdi, rsp
  00014	b9 32 00 00 00	 mov	 ecx, 50			; 00000032H
  00019	b8 cc cc cc cc	 mov	 eax, -858993460		; ccccccccH
  0001e	f3 ab		 rep stosd
  00020	48 8b 8c 24 e8
	00 00 00	 mov	 rcx, QWORD PTR [rsp+232]

; 79   : 		: _Myproxy(0)

  00028	48 8b 85 e0 00
	00 00		 mov	 rax, QWORD PTR this$[rbp]
  0002f	48 c7 00 00 00
	00 00		 mov	 QWORD PTR [rax], 0

; 81   : 		}

  00036	48 8b 85 e0 00
	00 00		 mov	 rax, QWORD PTR this$[rbp]
  0003d	48 8d a5 c8 00
	00 00		 lea	 rsp, QWORD PTR [rbp+200]
  00044	5f		 pop	 rdi
  00045	5d		 pop	 rbp
  00046	c3		 ret	 0
??0_Container_base12@std@@QEAA@XZ ENDP			; std::_Container_base12::_Container_base12
_TEXT	ENDS
; Function compile flags: /Odtp /RTCsu /ZI
; File c:\program files (x86)\microsoft visual studio 14.0\vc\include\xutility
;	COMDAT ??0_Container_proxy@std@@QEAA@XZ
_TEXT	SEGMENT
this$ = 224
??0_Container_proxy@std@@QEAA@XZ PROC			; std::_Container_proxy::_Container_proxy, COMDAT

; 68   : 		{	// construct from pointers

$LN3:
  00000	48 89 4c 24 08	 mov	 QWORD PTR [rsp+8], rcx
  00005	55		 push	 rbp
  00006	57		 push	 rdi
  00007	48 81 ec c8 00
	00 00		 sub	 rsp, 200		; 000000c8H
  0000e	48 8b ec	 mov	 rbp, rsp
  00011	48 8b fc	 mov	 rdi, rsp
  00014	b9 32 00 00 00	 mov	 ecx, 50			; 00000032H
  00019	b8 cc cc cc cc	 mov	 eax, -858993460		; ccccccccH
  0001e	f3 ab		 rep stosd
  00020	48 8b 8c 24 e8
	00 00 00	 mov	 rcx, QWORD PTR [rsp+232]

; 67   : 		: _Mycont(0), _Myfirstiter(0)

  00028	48 8b 85 e0 00
	00 00		 mov	 rax, QWORD PTR this$[rbp]
  0002f	48 c7 00 00 00
	00 00		 mov	 QWORD PTR [rax], 0
  00036	48 8b 85 e0 00
	00 00		 mov	 rax, QWORD PTR this$[rbp]
  0003d	48 c7 40 08 00
	00 00 00	 mov	 QWORD PTR [rax+8], 0

; 69   : 		}

  00045	48 8b 85 e0 00
	00 00		 mov	 rax, QWORD PTR this$[rbp]
  0004c	48 8d a5 c8 00
	00 00		 lea	 rsp, QWORD PTR [rbp+200]
  00053	5f		 pop	 rdi
  00054	5d		 pop	 rbp
  00055	c3		 ret	 0
??0_Container_proxy@std@@QEAA@XZ ENDP			; std::_Container_proxy::_Container_proxy
_TEXT	ENDS
; Function compile flags: /Odtp /RTCsu /ZI
; File c:\program files (x86)\microsoft visual studio 14.0\vc\include\iosfwd
;	COMDAT ?assign@?$char_traits@_W@std@@SAXAEA_WAEB_W@Z
_TEXT	SEGMENT
_Left$ = 224
_Right$ = 232
?assign@?$char_traits@_W@std@@SAXAEA_WAEB_W@Z PROC	; std::char_traits<wchar_t>::assign, COMDAT

; 344  : 		{	// assign an element

$LN3:
  00000	48 89 54 24 10	 mov	 QWORD PTR [rsp+16], rdx
  00005	48 89 4c 24 08	 mov	 QWORD PTR [rsp+8], rcx
  0000a	55		 push	 rbp
  0000b	57		 push	 rdi
  0000c	48 81 ec c8 00
	00 00		 sub	 rsp, 200		; 000000c8H
  00013	48 8b ec	 mov	 rbp, rsp
  00016	48 8b fc	 mov	 rdi, rsp
  00019	b9 32 00 00 00	 mov	 ecx, 50			; 00000032H
  0001e	b8 cc cc cc cc	 mov	 eax, -858993460		; ccccccccH
  00023	f3 ab		 rep stosd
  00025	48 8b 8c 24 e8
	00 00 00	 mov	 rcx, QWORD PTR [rsp+232]

; 345  : 		_Left = _Right;

  0002d	48 8b 85 e0 00
	00 00		 mov	 rax, QWORD PTR _Left$[rbp]
  00034	48 8b 8d e8 00
	00 00		 mov	 rcx, QWORD PTR _Right$[rbp]
  0003b	0f b7 09	 movzx	 ecx, WORD PTR [rcx]
  0003e	66 89 08	 mov	 WORD PTR [rax], cx

; 346  : 		}

  00041	48 8d a5 c8 00
	00 00		 lea	 rsp, QWORD PTR [rbp+200]
  00048	5f		 pop	 rdi
  00049	5d		 pop	 rbp
  0004a	c3		 ret	 0
?assign@?$char_traits@_W@std@@SAXAEA_WAEB_W@Z ENDP	; std::char_traits<wchar_t>::assign
_TEXT	ENDS
; Function compile flags: /Odtp /RTCsu /ZI
; File c:\program files (x86)\microsoft visual studio 14.0\vc\include\iosfwd
;	COMDAT ?move@?$char_traits@_W@std@@SAPEA_WPEA_WPEB_W_K@Z
_TEXT	SEGMENT
tv69 = 192
_First1$ = 240
_First2$ = 248
_Count$ = 256
?move@?$char_traits@_W@std@@SAPEA_WPEA_WPEB_W_K@Z PROC	; std::char_traits<wchar_t>::move, COMDAT

; 332  : 		{	// copy [_First2, _First2 + _Count) to [_First1, ...)

$LN5:
  00000	4c 89 44 24 18	 mov	 QWORD PTR [rsp+24], r8
  00005	48 89 54 24 10	 mov	 QWORD PTR [rsp+16], rdx
  0000a	48 89 4c 24 08	 mov	 QWORD PTR [rsp+8], rcx
  0000f	55		 push	 rbp
  00010	57		 push	 rdi
  00011	48 81 ec f8 00
	00 00		 sub	 rsp, 248		; 000000f8H
  00018	48 8d 6c 24 20	 lea	 rbp, QWORD PTR [rsp+32]
  0001d	48 8b fc	 mov	 rdi, rsp
  00020	b9 3e 00 00 00	 mov	 ecx, 62			; 0000003eH
  00025	b8 cc cc cc cc	 mov	 eax, -858993460		; ccccccccH
  0002a	f3 ab		 rep stosd
  0002c	48 8b 8c 24 18
	01 00 00	 mov	 rcx, QWORD PTR [rsp+280]

; 333  : 		return (_Count == 0 ? _First1

  00034	48 83 bd 00 01
	00 00 00	 cmp	 QWORD PTR _Count$[rbp], 0
  0003c	75 10		 jne	 SHORT $LN3@move
  0003e	48 8b 85 f0 00
	00 00		 mov	 rax, QWORD PTR _First1$[rbp]
  00045	48 89 85 c0 00
	00 00		 mov	 QWORD PTR tv69[rbp], rax
  0004c	eb 21		 jmp	 SHORT $LN4@move
$LN3@move:
  0004e	4c 8b 85 00 01
	00 00		 mov	 r8, QWORD PTR _Count$[rbp]
  00055	48 8b 95 f8 00
	00 00		 mov	 rdx, QWORD PTR _First2$[rbp]
  0005c	48 8b 8d f0 00
	00 00		 mov	 rcx, QWORD PTR _First1$[rbp]
  00063	e8 00 00 00 00	 call	 wmemmove
  00068	48 89 85 c0 00
	00 00		 mov	 QWORD PTR tv69[rbp], rax
$LN4@move:
  0006f	48 8b 85 c0 00
	00 00		 mov	 rax, QWORD PTR tv69[rbp]

; 334  : 			: (_Elem *)_CSTD wmemmove(_First1, _First2, _Count));
; 335  : 		}

  00076	48 8d a5 d8 00
	00 00		 lea	 rsp, QWORD PTR [rbp+216]
  0007d	5f		 pop	 rdi
  0007e	5d		 pop	 rbp
  0007f	c3		 ret	 0
?move@?$char_traits@_W@std@@SAPEA_WPEA_WPEB_W_K@Z ENDP	; std::char_traits<wchar_t>::move
_TEXT	ENDS
; Function compile flags: /Odtp /RTCsu /ZI
; File c:\program files (x86)\microsoft visual studio 14.0\vc\include\iosfwd
;	COMDAT ?copy@?$char_traits@_W@std@@SAPEA_WPEA_WPEB_W_K@Z
_TEXT	SEGMENT
tv69 = 192
_First1$ = 240
_First2$ = 248
_Count$ = 256
?copy@?$char_traits@_W@std@@SAPEA_WPEA_WPEB_W_K@Z PROC	; std::char_traits<wchar_t>::copy, COMDAT

; 309  : 		{	// copy [_First2, _First2 + _Count) to [_First1, ...)

$LN5:
  00000	4c 89 44 24 18	 mov	 QWORD PTR [rsp+24], r8
  00005	48 89 54 24 10	 mov	 QWORD PTR [rsp+16], rdx
  0000a	48 89 4c 24 08	 mov	 QWORD PTR [rsp+8], rcx
  0000f	55		 push	 rbp
  00010	57		 push	 rdi
  00011	48 81 ec f8 00
	00 00		 sub	 rsp, 248		; 000000f8H
  00018	48 8d 6c 24 20	 lea	 rbp, QWORD PTR [rsp+32]
  0001d	48 8b fc	 mov	 rdi, rsp
  00020	b9 3e 00 00 00	 mov	 ecx, 62			; 0000003eH
  00025	b8 cc cc cc cc	 mov	 eax, -858993460		; ccccccccH
  0002a	f3 ab		 rep stosd
  0002c	48 8b 8c 24 18
	01 00 00	 mov	 rcx, QWORD PTR [rsp+280]

; 310  : 		return (_Count == 0 ? _First1

  00034	48 83 bd 00 01
	00 00 00	 cmp	 QWORD PTR _Count$[rbp], 0
  0003c	75 10		 jne	 SHORT $LN3@copy
  0003e	48 8b 85 f0 00
	00 00		 mov	 rax, QWORD PTR _First1$[rbp]
  00045	48 89 85 c0 00
	00 00		 mov	 QWORD PTR tv69[rbp], rax
  0004c	eb 21		 jmp	 SHORT $LN4@copy
$LN3@copy:
  0004e	4c 8b 85 00 01
	00 00		 mov	 r8, QWORD PTR _Count$[rbp]
  00055	48 8b 95 f8 00
	00 00		 mov	 rdx, QWORD PTR _First2$[rbp]
  0005c	48 8b 8d f0 00
	00 00		 mov	 rcx, QWORD PTR _First1$[rbp]
  00063	e8 00 00 00 00	 call	 wmemcpy
  00068	48 89 85 c0 00
	00 00		 mov	 QWORD PTR tv69[rbp], rax
$LN4@copy:
  0006f	48 8b 85 c0 00
	00 00		 mov	 rax, QWORD PTR tv69[rbp]

; 311  : 			: (_Elem *)_CSTD wmemcpy(_First1, _First2, _Count));
; 312  : 		}

  00076	48 8d a5 d8 00
	00 00		 lea	 rsp, QWORD PTR [rbp+216]
  0007d	5f		 pop	 rdi
  0007e	5d		 pop	 rbp
  0007f	c3		 ret	 0
?copy@?$char_traits@_W@std@@SAPEA_WPEA_WPEB_W_K@Z ENDP	; std::char_traits<wchar_t>::copy
_TEXT	ENDS
; Function compile flags: /Odtp /RTCsu /ZI
; File c:\program files (x86)\microsoft visual studio 14.0\vc\include\iosfwd
;	COMDAT ?length@?$char_traits@_W@std@@SA_KPEB_W@Z
_TEXT	SEGMENT
tv68 = 192
_First$ = 240
?length@?$char_traits@_W@std@@SA_KPEB_W@Z PROC		; std::char_traits<wchar_t>::length, COMDAT

; 302  : 		{	// find length of null-terminated sequence

$LN5:
  00000	48 89 4c 24 08	 mov	 QWORD PTR [rsp+8], rcx
  00005	55		 push	 rbp
  00006	57		 push	 rdi
  00007	48 81 ec f8 00
	00 00		 sub	 rsp, 248		; 000000f8H
  0000e	48 8d 6c 24 20	 lea	 rbp, QWORD PTR [rsp+32]
  00013	48 8b fc	 mov	 rdi, rsp
  00016	b9 3e 00 00 00	 mov	 ecx, 62			; 0000003eH
  0001b	b8 cc cc cc cc	 mov	 eax, -858993460		; ccccccccH
  00020	f3 ab		 rep stosd
  00022	48 8b 8c 24 18
	01 00 00	 mov	 rcx, QWORD PTR [rsp+280]

; 303  : 		return (*_First == 0 ? 0

  0002a	48 8b 85 f0 00
	00 00		 mov	 rax, QWORD PTR _First$[rbp]
  00031	0f b7 00	 movzx	 eax, WORD PTR [rax]
  00034	85 c0		 test	 eax, eax
  00036	75 0d		 jne	 SHORT $LN3@length
  00038	48 c7 85 c0 00
	00 00 00 00 00
	00		 mov	 QWORD PTR tv68[rbp], 0
  00043	eb 14		 jmp	 SHORT $LN4@length
$LN3@length:
  00045	48 8b 8d f0 00
	00 00		 mov	 rcx, QWORD PTR _First$[rbp]
  0004c	ff 15 00 00 00
	00		 call	 QWORD PTR __imp_wcslen
  00052	48 89 85 c0 00
	00 00		 mov	 QWORD PTR tv68[rbp], rax
$LN4@length:
  00059	48 8b 85 c0 00
	00 00		 mov	 rax, QWORD PTR tv68[rbp]

; 304  : 			: _CSTD wcslen(_First));
; 305  : 		}

  00060	48 8d a5 d8 00
	00 00		 lea	 rsp, QWORD PTR [rbp+216]
  00067	5f		 pop	 rdi
  00068	5d		 pop	 rbp
  00069	c3		 ret	 0
?length@?$char_traits@_W@std@@SA_KPEB_W@Z ENDP		; std::char_traits<wchar_t>::length
_TEXT	ENDS
; Function compile flags: /Odtp /RTCsu /ZI
; File c:\program files (x86)\microsoft visual studio 14.0\vc\include\vcruntime_new.h
;	COMDAT ??2@YAPEAX_KPEAX@Z
_TEXT	SEGMENT
_Size$ = 224
_Where$ = 232
??2@YAPEAX_KPEAX@Z PROC					; operator new, COMDAT

; 87   :     {

$LN3:
  00000	48 89 54 24 10	 mov	 QWORD PTR [rsp+16], rdx
  00005	48 89 4c 24 08	 mov	 QWORD PTR [rsp+8], rcx
  0000a	55		 push	 rbp
  0000b	57		 push	 rdi
  0000c	48 81 ec c8 00
	00 00		 sub	 rsp, 200		; 000000c8H
  00013	48 8b ec	 mov	 rbp, rsp
  00016	48 8b fc	 mov	 rdi, rsp
  00019	b9 32 00 00 00	 mov	 ecx, 50			; 00000032H
  0001e	b8 cc cc cc cc	 mov	 eax, -858993460		; ccccccccH
  00023	f3 ab		 rep stosd
  00025	48 8b 8c 24 e8
	00 00 00	 mov	 rcx, QWORD PTR [rsp+232]

; 88   :         (void)_Size;
; 89   :         return _Where;

  0002d	48 8b 85 e8 00
	00 00		 mov	 rax, QWORD PTR _Where$[rbp]

; 90   :     }

  00034	48 8d a5 c8 00
	00 00		 lea	 rsp, QWORD PTR [rbp+200]
  0003b	5f		 pop	 rdi
  0003c	5d		 pop	 rbp
  0003d	c3		 ret	 0
??2@YAPEAX_KPEAX@Z ENDP					; operator new
_TEXT	ENDS
; Function compile flags: /Odtp /RTCsu /ZI
; File c:\program files (x86)\microsoft visual studio 14.0\vc\include\cmath
;	COMDAT ?acos@@YAMM@Z
_TEXT	SEGMENT
_Xx$ = 224
?acos@@YAMM@Z PROC					; acos, COMDAT

; 36   : 	{

$LN3:
  00000	f3 0f 11 44 24
	08		 movss	 DWORD PTR [rsp+8], xmm0
  00006	55		 push	 rbp
  00007	57		 push	 rdi
  00008	48 81 ec f8 00
	00 00		 sub	 rsp, 248		; 000000f8H
  0000f	48 8d 6c 24 30	 lea	 rbp, QWORD PTR [rsp+48]
  00014	48 8b fc	 mov	 rdi, rsp
  00017	b9 3e 00 00 00	 mov	 ecx, 62			; 0000003eH
  0001c	b8 cc cc cc cc	 mov	 eax, -858993460		; ccccccccH
  00021	f3 ab		 rep stosd

; 37   : 	return (_CSTD acosf(_Xx));

  00023	f3 0f 10 85 e0
	00 00 00	 movss	 xmm0, DWORD PTR _Xx$[rbp]
  0002b	ff 15 00 00 00
	00		 call	 QWORD PTR __imp_acosf

; 38   : 	}

  00031	48 8d a5 c8 00
	00 00		 lea	 rsp, QWORD PTR [rbp+200]
  00038	5f		 pop	 rdi
  00039	5d		 pop	 rbp
  0003a	c3		 ret	 0
?acos@@YAMM@Z ENDP					; acos
_TEXT	ENDS
; Function compile flags: /Odtp /RTCsu /ZI
; File c:\program files (x86)\windows kits\10\include\10.0.10240.0\ucrt\wchar.h
;	COMDAT wmemmove
_TEXT	SEGMENT
_S1$ = 224
_S2$ = 232
_N$ = 240
wmemmove PROC						; COMDAT

; 244  :     {

$LN3:
  00000	4c 89 44 24 18	 mov	 QWORD PTR [rsp+24], r8
  00005	48 89 54 24 10	 mov	 QWORD PTR [rsp+16], rdx
  0000a	48 89 4c 24 08	 mov	 QWORD PTR [rsp+8], rcx
  0000f	55		 push	 rbp
  00010	57		 push	 rdi
  00011	48 81 ec e8 00
	00 00		 sub	 rsp, 232		; 000000e8H
  00018	48 8d 6c 24 20	 lea	 rbp, QWORD PTR [rsp+32]
  0001d	48 8b fc	 mov	 rdi, rsp
  00020	b9 3a 00 00 00	 mov	 ecx, 58			; 0000003aH
  00025	b8 cc cc cc cc	 mov	 eax, -858993460		; ccccccccH
  0002a	f3 ab		 rep stosd
  0002c	48 8b 8c 24 08
	01 00 00	 mov	 rcx, QWORD PTR [rsp+264]

; 245  :         #pragma warning(push)
; 246  :         #pragma warning(disable : 4996 6386)
; 247  :         return (wchar_t*)memmove(_S1, _S2, _N*sizeof(wchar_t));

  00034	48 8b 85 f0 00
	00 00		 mov	 rax, QWORD PTR _N$[rbp]
  0003b	48 d1 e0	 shl	 rax, 1
  0003e	4c 8b c0	 mov	 r8, rax
  00041	48 8b 95 e8 00
	00 00		 mov	 rdx, QWORD PTR _S2$[rbp]
  00048	48 8b 8d e0 00
	00 00		 mov	 rcx, QWORD PTR _S1$[rbp]
  0004f	ff 15 00 00 00
	00		 call	 QWORD PTR __imp_memmove

; 248  :         #pragma warning(pop)
; 249  :     }

  00055	48 8d a5 c8 00
	00 00		 lea	 rsp, QWORD PTR [rbp+200]
  0005c	5f		 pop	 rdi
  0005d	5d		 pop	 rbp
  0005e	c3		 ret	 0
wmemmove ENDP
_TEXT	ENDS
; Function compile flags: /Odtp /RTCsu /ZI
; File c:\program files (x86)\windows kits\10\include\10.0.10240.0\ucrt\wchar.h
;	COMDAT wmemcpy
_TEXT	SEGMENT
_S1$ = 224
_S2$ = 232
_N$ = 240
wmemcpy	PROC						; COMDAT

; 231  :     {

$LN3:
  00000	4c 89 44 24 18	 mov	 QWORD PTR [rsp+24], r8
  00005	48 89 54 24 10	 mov	 QWORD PTR [rsp+16], rdx
  0000a	48 89 4c 24 08	 mov	 QWORD PTR [rsp+8], rcx
  0000f	55		 push	 rbp
  00010	57		 push	 rdi
  00011	48 81 ec e8 00
	00 00		 sub	 rsp, 232		; 000000e8H
  00018	48 8d 6c 24 20	 lea	 rbp, QWORD PTR [rsp+32]
  0001d	48 8b fc	 mov	 rdi, rsp
  00020	b9 3a 00 00 00	 mov	 ecx, 58			; 0000003aH
  00025	b8 cc cc cc cc	 mov	 eax, -858993460		; ccccccccH
  0002a	f3 ab		 rep stosd
  0002c	48 8b 8c 24 08
	01 00 00	 mov	 rcx, QWORD PTR [rsp+264]

; 232  :         #pragma warning(push)
; 233  :         #pragma warning(disable : 4995 4996 6386)
; 234  :         return (wchar_t*)memcpy(_S1, _S2, _N*sizeof(wchar_t));

  00034	48 8b 85 f0 00
	00 00		 mov	 rax, QWORD PTR _N$[rbp]
  0003b	48 d1 e0	 shl	 rax, 1
  0003e	4c 8b c0	 mov	 r8, rax
  00041	48 8b 95 e8 00
	00 00		 mov	 rdx, QWORD PTR _S2$[rbp]
  00048	48 8b 8d e0 00
	00 00		 mov	 rcx, QWORD PTR _S1$[rbp]
  0004f	e8 00 00 00 00	 call	 memcpy

; 235  :         #pragma warning(pop)
; 236  :     }

  00054	48 8d a5 c8 00
	00 00		 lea	 rsp, QWORD PTR [rbp+200]
  0005b	5f		 pop	 rdi
  0005c	5d		 pop	 rbp
  0005d	c3		 ret	 0
wmemcpy	ENDP
_TEXT	ENDS
; Function compile flags: /Odtp /RTCsu /ZI
; File c:\github\framework\client\private\kalienina.cpp
;	COMDAT ?__empty_global_delete@@YAXPEAX_K@Z
_TEXT	SEGMENT
__formal$ = 224
__formal$ = 232
?__empty_global_delete@@YAXPEAX_K@Z PROC		; __empty_global_delete, COMDAT

$LN3:
  00000	48 89 54 24 10	 mov	 QWORD PTR [rsp+16], rdx
  00005	48 89 4c 24 08	 mov	 QWORD PTR [rsp+8], rcx
  0000a	55		 push	 rbp
  0000b	57		 push	 rdi
  0000c	48 81 ec c8 00
	00 00		 sub	 rsp, 200		; 000000c8H
  00013	48 8b ec	 mov	 rbp, rsp
  00016	48 8b fc	 mov	 rdi, rsp
  00019	b9 32 00 00 00	 mov	 ecx, 50			; 00000032H
  0001e	b8 cc cc cc cc	 mov	 eax, -858993460		; ccccccccH
  00023	f3 ab		 rep stosd
  00025	48 8b 8c 24 e8
	00 00 00	 mov	 rcx, QWORD PTR [rsp+232]
  0002d	48 8d a5 c8 00
	00 00		 lea	 rsp, QWORD PTR [rbp+200]
  00034	5f		 pop	 rdi
  00035	5d		 pop	 rbp
  00036	c3		 ret	 0
?__empty_global_delete@@YAXPEAX_K@Z ENDP		; __empty_global_delete
_TEXT	ENDS
; Function compile flags: /Odtp /RTCsu /ZI
; File c:\github\framework\client\private\kalienina.cpp
;	COMDAT ?__empty_global_delete@@YAXPEAX@Z
_TEXT	SEGMENT
__formal$ = 224
?__empty_global_delete@@YAXPEAX@Z PROC			; __empty_global_delete, COMDAT

$LN3:
  00000	48 89 4c 24 08	 mov	 QWORD PTR [rsp+8], rcx
  00005	55		 push	 rbp
  00006	57		 push	 rdi
  00007	48 81 ec c8 00
	00 00		 sub	 rsp, 200		; 000000c8H
  0000e	48 8b ec	 mov	 rbp, rsp
  00011	48 8b fc	 mov	 rdi, rsp
  00014	b9 32 00 00 00	 mov	 ecx, 50			; 00000032H
  00019	b8 cc cc cc cc	 mov	 eax, -858993460		; ccccccccH
  0001e	f3 ab		 rep stosd
  00020	48 8b 8c 24 e8
	00 00 00	 mov	 rcx, QWORD PTR [rsp+232]
  00028	48 8d a5 c8 00
	00 00		 lea	 rsp, QWORD PTR [rbp+200]
  0002f	5f		 pop	 rdi
  00030	5d		 pop	 rbp
  00031	c3		 ret	 0
?__empty_global_delete@@YAXPEAX@Z ENDP			; __empty_global_delete
_TEXT	ENDS
; Function compile flags: /Odtp /RTCsu /ZI
;	COMDAT ??_H@YAXPEAX_K1P6APEAX0@Z@Z
_TEXT	SEGMENT
tv66 = 192
tv67 = 200
__t$ = 240
__s$ = 248
__n$ = 256
__f$ = 264
??_H@YAXPEAX_K1P6APEAX0@Z@Z PROC			; `vector constructor iterator', COMDAT
$LN7:
  00000	4c 89 4c 24 20	 mov	 QWORD PTR [rsp+32], r9
  00005	4c 89 44 24 18	 mov	 QWORD PTR [rsp+24], r8
  0000a	48 89 54 24 10	 mov	 QWORD PTR [rsp+16], rdx
  0000f	48 89 4c 24 08	 mov	 QWORD PTR [rsp+8], rcx
  00014	55		 push	 rbp
  00015	57		 push	 rdi
  00016	48 81 ec f8 00
	00 00		 sub	 rsp, 248		; 000000f8H
  0001d	48 8d 6c 24 20	 lea	 rbp, QWORD PTR [rsp+32]
  00022	48 8b fc	 mov	 rdi, rsp
  00025	b9 3e 00 00 00	 mov	 ecx, 62			; 0000003eH
  0002a	b8 cc cc cc cc	 mov	 eax, -858993460		; ccccccccH
  0002f	f3 ab		 rep stosd
  00031	48 8b 8c 24 18
	01 00 00	 mov	 rcx, QWORD PTR [rsp+280]
$LN2@vector:
  00039	48 8b 85 00 01
	00 00		 mov	 rax, QWORD PTR __n$[rbp]
  00040	48 89 85 c0 00
	00 00		 mov	 QWORD PTR tv66[rbp], rax
  00047	48 8b 85 00 01
	00 00		 mov	 rax, QWORD PTR __n$[rbp]
  0004e	48 ff c8	 dec	 rax
  00051	48 89 85 00 01
	00 00		 mov	 QWORD PTR __n$[rbp], rax
  00058	48 83 bd c0 00
	00 00 00	 cmp	 QWORD PTR tv66[rbp], 0
  00060	76 0c		 jbe	 SHORT $LN5@vector
  00062	c7 85 c8 00 00
	00 01 00 00 00	 mov	 DWORD PTR tv67[rbp], 1
  0006c	eb 0a		 jmp	 SHORT $LN6@vector
$LN5@vector:
  0006e	c7 85 c8 00 00
	00 00 00 00 00	 mov	 DWORD PTR tv67[rbp], 0
$LN6@vector:
  00078	83 bd c8 00 00
	00 00		 cmp	 DWORD PTR tv67[rbp], 0
  0007f	74 2a		 je	 SHORT $LN3@vector
  00081	48 8b 8d f0 00
	00 00		 mov	 rcx, QWORD PTR __t$[rbp]
  00088	ff 95 08 01 00
	00		 call	 QWORD PTR __f$[rbp]
  0008e	48 8b 85 f8 00
	00 00		 mov	 rax, QWORD PTR __s$[rbp]
  00095	48 8b 8d f0 00
	00 00		 mov	 rcx, QWORD PTR __t$[rbp]
  0009c	48 03 c8	 add	 rcx, rax
  0009f	48 8b c1	 mov	 rax, rcx
  000a2	48 89 85 f0 00
	00 00		 mov	 QWORD PTR __t$[rbp], rax
  000a9	eb 8e		 jmp	 SHORT $LN2@vector
$LN3@vector:
  000ab	48 8d a5 d8 00
	00 00		 lea	 rsp, QWORD PTR [rbp+216]
  000b2	5f		 pop	 rdi
  000b3	5d		 pop	 rbp
  000b4	c3		 ret	 0
??_H@YAXPEAX_K1P6APEAX0@Z@Z ENDP			; `vector constructor iterator'
_TEXT	ENDS
END
