; Listing generated by Microsoft (R) Optimizing Compiler Version 19.00.24245.0 

include listing.inc

INCLUDELIB MSVCRTD
INCLUDELIB OLDNAMES

PUBLIC	?AliceBlue@Colors@DirectX@@3UXMVECTORF32@2@B	; DirectX::Colors::AliceBlue
PUBLIC	?AntiqueWhite@Colors@DirectX@@3UXMVECTORF32@2@B	; DirectX::Colors::AntiqueWhite
PUBLIC	?Aqua@Colors@DirectX@@3UXMVECTORF32@2@B		; DirectX::Colors::Aqua
PUBLIC	?Aquamarine@Colors@DirectX@@3UXMVECTORF32@2@B	; DirectX::Colors::Aquamarine
PUBLIC	?Azure@Colors@DirectX@@3UXMVECTORF32@2@B	; DirectX::Colors::Azure
PUBLIC	?Beige@Colors@DirectX@@3UXMVECTORF32@2@B	; DirectX::Colors::Beige
PUBLIC	?Bisque@Colors@DirectX@@3UXMVECTORF32@2@B	; DirectX::Colors::Bisque
PUBLIC	?Black@Colors@DirectX@@3UXMVECTORF32@2@B	; DirectX::Colors::Black
PUBLIC	?BlanchedAlmond@Colors@DirectX@@3UXMVECTORF32@2@B ; DirectX::Colors::BlanchedAlmond
PUBLIC	?Blue@Colors@DirectX@@3UXMVECTORF32@2@B		; DirectX::Colors::Blue
PUBLIC	?BlueViolet@Colors@DirectX@@3UXMVECTORF32@2@B	; DirectX::Colors::BlueViolet
PUBLIC	?Brown@Colors@DirectX@@3UXMVECTORF32@2@B	; DirectX::Colors::Brown
PUBLIC	?BurlyWood@Colors@DirectX@@3UXMVECTORF32@2@B	; DirectX::Colors::BurlyWood
PUBLIC	?CadetBlue@Colors@DirectX@@3UXMVECTORF32@2@B	; DirectX::Colors::CadetBlue
PUBLIC	?Chartreuse@Colors@DirectX@@3UXMVECTORF32@2@B	; DirectX::Colors::Chartreuse
PUBLIC	?Chocolate@Colors@DirectX@@3UXMVECTORF32@2@B	; DirectX::Colors::Chocolate
PUBLIC	?Coral@Colors@DirectX@@3UXMVECTORF32@2@B	; DirectX::Colors::Coral
PUBLIC	?CornflowerBlue@Colors@DirectX@@3UXMVECTORF32@2@B ; DirectX::Colors::CornflowerBlue
PUBLIC	?Cornsilk@Colors@DirectX@@3UXMVECTORF32@2@B	; DirectX::Colors::Cornsilk
PUBLIC	?Crimson@Colors@DirectX@@3UXMVECTORF32@2@B	; DirectX::Colors::Crimson
PUBLIC	?Cyan@Colors@DirectX@@3UXMVECTORF32@2@B		; DirectX::Colors::Cyan
PUBLIC	?DarkBlue@Colors@DirectX@@3UXMVECTORF32@2@B	; DirectX::Colors::DarkBlue
PUBLIC	?DarkCyan@Colors@DirectX@@3UXMVECTORF32@2@B	; DirectX::Colors::DarkCyan
PUBLIC	?DarkGoldenrod@Colors@DirectX@@3UXMVECTORF32@2@B ; DirectX::Colors::DarkGoldenrod
PUBLIC	?DarkGray@Colors@DirectX@@3UXMVECTORF32@2@B	; DirectX::Colors::DarkGray
PUBLIC	?DarkGreen@Colors@DirectX@@3UXMVECTORF32@2@B	; DirectX::Colors::DarkGreen
PUBLIC	?DarkKhaki@Colors@DirectX@@3UXMVECTORF32@2@B	; DirectX::Colors::DarkKhaki
PUBLIC	?DarkMagenta@Colors@DirectX@@3UXMVECTORF32@2@B	; DirectX::Colors::DarkMagenta
PUBLIC	?DarkOliveGreen@Colors@DirectX@@3UXMVECTORF32@2@B ; DirectX::Colors::DarkOliveGreen
PUBLIC	?DarkOrange@Colors@DirectX@@3UXMVECTORF32@2@B	; DirectX::Colors::DarkOrange
PUBLIC	?DarkOrchid@Colors@DirectX@@3UXMVECTORF32@2@B	; DirectX::Colors::DarkOrchid
PUBLIC	?DarkRed@Colors@DirectX@@3UXMVECTORF32@2@B	; DirectX::Colors::DarkRed
PUBLIC	?DarkSalmon@Colors@DirectX@@3UXMVECTORF32@2@B	; DirectX::Colors::DarkSalmon
PUBLIC	?DarkSeaGreen@Colors@DirectX@@3UXMVECTORF32@2@B	; DirectX::Colors::DarkSeaGreen
PUBLIC	?DarkSlateBlue@Colors@DirectX@@3UXMVECTORF32@2@B ; DirectX::Colors::DarkSlateBlue
PUBLIC	?DarkSlateGray@Colors@DirectX@@3UXMVECTORF32@2@B ; DirectX::Colors::DarkSlateGray
PUBLIC	?DarkTurquoise@Colors@DirectX@@3UXMVECTORF32@2@B ; DirectX::Colors::DarkTurquoise
PUBLIC	?DarkViolet@Colors@DirectX@@3UXMVECTORF32@2@B	; DirectX::Colors::DarkViolet
PUBLIC	?DeepPink@Colors@DirectX@@3UXMVECTORF32@2@B	; DirectX::Colors::DeepPink
PUBLIC	?DeepSkyBlue@Colors@DirectX@@3UXMVECTORF32@2@B	; DirectX::Colors::DeepSkyBlue
PUBLIC	?DimGray@Colors@DirectX@@3UXMVECTORF32@2@B	; DirectX::Colors::DimGray
PUBLIC	?DodgerBlue@Colors@DirectX@@3UXMVECTORF32@2@B	; DirectX::Colors::DodgerBlue
PUBLIC	?Firebrick@Colors@DirectX@@3UXMVECTORF32@2@B	; DirectX::Colors::Firebrick
PUBLIC	?FloralWhite@Colors@DirectX@@3UXMVECTORF32@2@B	; DirectX::Colors::FloralWhite
PUBLIC	?ForestGreen@Colors@DirectX@@3UXMVECTORF32@2@B	; DirectX::Colors::ForestGreen
PUBLIC	?Fuchsia@Colors@DirectX@@3UXMVECTORF32@2@B	; DirectX::Colors::Fuchsia
PUBLIC	?Gainsboro@Colors@DirectX@@3UXMVECTORF32@2@B	; DirectX::Colors::Gainsboro
PUBLIC	?GhostWhite@Colors@DirectX@@3UXMVECTORF32@2@B	; DirectX::Colors::GhostWhite
PUBLIC	?Gold@Colors@DirectX@@3UXMVECTORF32@2@B		; DirectX::Colors::Gold
PUBLIC	?Goldenrod@Colors@DirectX@@3UXMVECTORF32@2@B	; DirectX::Colors::Goldenrod
PUBLIC	?Gray@Colors@DirectX@@3UXMVECTORF32@2@B		; DirectX::Colors::Gray
PUBLIC	?Green@Colors@DirectX@@3UXMVECTORF32@2@B	; DirectX::Colors::Green
PUBLIC	?GreenYellow@Colors@DirectX@@3UXMVECTORF32@2@B	; DirectX::Colors::GreenYellow
PUBLIC	?Honeydew@Colors@DirectX@@3UXMVECTORF32@2@B	; DirectX::Colors::Honeydew
PUBLIC	?HotPink@Colors@DirectX@@3UXMVECTORF32@2@B	; DirectX::Colors::HotPink
PUBLIC	?IndianRed@Colors@DirectX@@3UXMVECTORF32@2@B	; DirectX::Colors::IndianRed
PUBLIC	?Indigo@Colors@DirectX@@3UXMVECTORF32@2@B	; DirectX::Colors::Indigo
PUBLIC	?Ivory@Colors@DirectX@@3UXMVECTORF32@2@B	; DirectX::Colors::Ivory
PUBLIC	?Khaki@Colors@DirectX@@3UXMVECTORF32@2@B	; DirectX::Colors::Khaki
PUBLIC	?Lavender@Colors@DirectX@@3UXMVECTORF32@2@B	; DirectX::Colors::Lavender
PUBLIC	?LavenderBlush@Colors@DirectX@@3UXMVECTORF32@2@B ; DirectX::Colors::LavenderBlush
PUBLIC	?LawnGreen@Colors@DirectX@@3UXMVECTORF32@2@B	; DirectX::Colors::LawnGreen
PUBLIC	?LemonChiffon@Colors@DirectX@@3UXMVECTORF32@2@B	; DirectX::Colors::LemonChiffon
PUBLIC	?LightBlue@Colors@DirectX@@3UXMVECTORF32@2@B	; DirectX::Colors::LightBlue
PUBLIC	?LightCoral@Colors@DirectX@@3UXMVECTORF32@2@B	; DirectX::Colors::LightCoral
PUBLIC	?LightCyan@Colors@DirectX@@3UXMVECTORF32@2@B	; DirectX::Colors::LightCyan
PUBLIC	?LightGoldenrodYellow@Colors@DirectX@@3UXMVECTORF32@2@B ; DirectX::Colors::LightGoldenrodYellow
PUBLIC	?LightGreen@Colors@DirectX@@3UXMVECTORF32@2@B	; DirectX::Colors::LightGreen
PUBLIC	?LightGray@Colors@DirectX@@3UXMVECTORF32@2@B	; DirectX::Colors::LightGray
PUBLIC	?LightPink@Colors@DirectX@@3UXMVECTORF32@2@B	; DirectX::Colors::LightPink
PUBLIC	?LightSalmon@Colors@DirectX@@3UXMVECTORF32@2@B	; DirectX::Colors::LightSalmon
PUBLIC	?LightSeaGreen@Colors@DirectX@@3UXMVECTORF32@2@B ; DirectX::Colors::LightSeaGreen
PUBLIC	?LightSkyBlue@Colors@DirectX@@3UXMVECTORF32@2@B	; DirectX::Colors::LightSkyBlue
PUBLIC	?LightSlateGray@Colors@DirectX@@3UXMVECTORF32@2@B ; DirectX::Colors::LightSlateGray
PUBLIC	?LightSteelBlue@Colors@DirectX@@3UXMVECTORF32@2@B ; DirectX::Colors::LightSteelBlue
PUBLIC	?LightYellow@Colors@DirectX@@3UXMVECTORF32@2@B	; DirectX::Colors::LightYellow
PUBLIC	?Lime@Colors@DirectX@@3UXMVECTORF32@2@B		; DirectX::Colors::Lime
PUBLIC	?LimeGreen@Colors@DirectX@@3UXMVECTORF32@2@B	; DirectX::Colors::LimeGreen
PUBLIC	?Linen@Colors@DirectX@@3UXMVECTORF32@2@B	; DirectX::Colors::Linen
PUBLIC	?Magenta@Colors@DirectX@@3UXMVECTORF32@2@B	; DirectX::Colors::Magenta
PUBLIC	?Maroon@Colors@DirectX@@3UXMVECTORF32@2@B	; DirectX::Colors::Maroon
PUBLIC	?MediumAquamarine@Colors@DirectX@@3UXMVECTORF32@2@B ; DirectX::Colors::MediumAquamarine
PUBLIC	?MediumBlue@Colors@DirectX@@3UXMVECTORF32@2@B	; DirectX::Colors::MediumBlue
PUBLIC	?MediumOrchid@Colors@DirectX@@3UXMVECTORF32@2@B	; DirectX::Colors::MediumOrchid
PUBLIC	?MediumPurple@Colors@DirectX@@3UXMVECTORF32@2@B	; DirectX::Colors::MediumPurple
PUBLIC	?MediumSeaGreen@Colors@DirectX@@3UXMVECTORF32@2@B ; DirectX::Colors::MediumSeaGreen
PUBLIC	?MediumSlateBlue@Colors@DirectX@@3UXMVECTORF32@2@B ; DirectX::Colors::MediumSlateBlue
PUBLIC	?MediumSpringGreen@Colors@DirectX@@3UXMVECTORF32@2@B ; DirectX::Colors::MediumSpringGreen
PUBLIC	?MediumTurquoise@Colors@DirectX@@3UXMVECTORF32@2@B ; DirectX::Colors::MediumTurquoise
PUBLIC	?MediumVioletRed@Colors@DirectX@@3UXMVECTORF32@2@B ; DirectX::Colors::MediumVioletRed
PUBLIC	?MidnightBlue@Colors@DirectX@@3UXMVECTORF32@2@B	; DirectX::Colors::MidnightBlue
PUBLIC	?MintCream@Colors@DirectX@@3UXMVECTORF32@2@B	; DirectX::Colors::MintCream
PUBLIC	?MistyRose@Colors@DirectX@@3UXMVECTORF32@2@B	; DirectX::Colors::MistyRose
PUBLIC	?Moccasin@Colors@DirectX@@3UXMVECTORF32@2@B	; DirectX::Colors::Moccasin
PUBLIC	?NavajoWhite@Colors@DirectX@@3UXMVECTORF32@2@B	; DirectX::Colors::NavajoWhite
PUBLIC	?Navy@Colors@DirectX@@3UXMVECTORF32@2@B		; DirectX::Colors::Navy
PUBLIC	?OldLace@Colors@DirectX@@3UXMVECTORF32@2@B	; DirectX::Colors::OldLace
PUBLIC	?Olive@Colors@DirectX@@3UXMVECTORF32@2@B	; DirectX::Colors::Olive
PUBLIC	?OliveDrab@Colors@DirectX@@3UXMVECTORF32@2@B	; DirectX::Colors::OliveDrab
PUBLIC	?Orange@Colors@DirectX@@3UXMVECTORF32@2@B	; DirectX::Colors::Orange
PUBLIC	?OrangeRed@Colors@DirectX@@3UXMVECTORF32@2@B	; DirectX::Colors::OrangeRed
PUBLIC	?Orchid@Colors@DirectX@@3UXMVECTORF32@2@B	; DirectX::Colors::Orchid
PUBLIC	?PaleGoldenrod@Colors@DirectX@@3UXMVECTORF32@2@B ; DirectX::Colors::PaleGoldenrod
PUBLIC	?PaleGreen@Colors@DirectX@@3UXMVECTORF32@2@B	; DirectX::Colors::PaleGreen
PUBLIC	?PaleTurquoise@Colors@DirectX@@3UXMVECTORF32@2@B ; DirectX::Colors::PaleTurquoise
PUBLIC	?PaleVioletRed@Colors@DirectX@@3UXMVECTORF32@2@B ; DirectX::Colors::PaleVioletRed
PUBLIC	?PapayaWhip@Colors@DirectX@@3UXMVECTORF32@2@B	; DirectX::Colors::PapayaWhip
PUBLIC	?PeachPuff@Colors@DirectX@@3UXMVECTORF32@2@B	; DirectX::Colors::PeachPuff
PUBLIC	?Peru@Colors@DirectX@@3UXMVECTORF32@2@B		; DirectX::Colors::Peru
PUBLIC	?Pink@Colors@DirectX@@3UXMVECTORF32@2@B		; DirectX::Colors::Pink
PUBLIC	?Plum@Colors@DirectX@@3UXMVECTORF32@2@B		; DirectX::Colors::Plum
PUBLIC	?PowderBlue@Colors@DirectX@@3UXMVECTORF32@2@B	; DirectX::Colors::PowderBlue
PUBLIC	?Purple@Colors@DirectX@@3UXMVECTORF32@2@B	; DirectX::Colors::Purple
PUBLIC	?Red@Colors@DirectX@@3UXMVECTORF32@2@B		; DirectX::Colors::Red
PUBLIC	?RosyBrown@Colors@DirectX@@3UXMVECTORF32@2@B	; DirectX::Colors::RosyBrown
PUBLIC	?RoyalBlue@Colors@DirectX@@3UXMVECTORF32@2@B	; DirectX::Colors::RoyalBlue
PUBLIC	?SaddleBrown@Colors@DirectX@@3UXMVECTORF32@2@B	; DirectX::Colors::SaddleBrown
PUBLIC	?Salmon@Colors@DirectX@@3UXMVECTORF32@2@B	; DirectX::Colors::Salmon
PUBLIC	?SandyBrown@Colors@DirectX@@3UXMVECTORF32@2@B	; DirectX::Colors::SandyBrown
PUBLIC	?SeaGreen@Colors@DirectX@@3UXMVECTORF32@2@B	; DirectX::Colors::SeaGreen
PUBLIC	?SeaShell@Colors@DirectX@@3UXMVECTORF32@2@B	; DirectX::Colors::SeaShell
PUBLIC	?Sienna@Colors@DirectX@@3UXMVECTORF32@2@B	; DirectX::Colors::Sienna
PUBLIC	?g_BoxOffset@DirectX@@3QBUXMVECTORF32@1@B	; DirectX::g_BoxOffset
PUBLIC	?Silver@Colors@DirectX@@3UXMVECTORF32@2@B	; DirectX::Colors::Silver
PUBLIC	?g_RayEpsilon@DirectX@@3UXMVECTORF32@1@B	; DirectX::g_RayEpsilon
PUBLIC	?SkyBlue@Colors@DirectX@@3UXMVECTORF32@2@B	; DirectX::Colors::SkyBlue
PUBLIC	?g_RayNegEpsilon@DirectX@@3UXMVECTORF32@1@B	; DirectX::g_RayNegEpsilon
PUBLIC	?SlateBlue@Colors@DirectX@@3UXMVECTORF32@2@B	; DirectX::Colors::SlateBlue
PUBLIC	?g_FltMin@DirectX@@3UXMVECTORF32@1@B		; DirectX::g_FltMin
PUBLIC	?SlateGray@Colors@DirectX@@3UXMVECTORF32@2@B	; DirectX::Colors::SlateGray
PUBLIC	?g_FltMax@DirectX@@3UXMVECTORF32@1@B		; DirectX::g_FltMax
PUBLIC	?Snow@Colors@DirectX@@3UXMVECTORF32@2@B		; DirectX::Colors::Snow
PUBLIC	?SpringGreen@Colors@DirectX@@3UXMVECTORF32@2@B	; DirectX::Colors::SpringGreen
PUBLIC	?SteelBlue@Colors@DirectX@@3UXMVECTORF32@2@B	; DirectX::Colors::SteelBlue
PUBLIC	?Tan@Colors@DirectX@@3UXMVECTORF32@2@B		; DirectX::Colors::Tan
PUBLIC	?Teal@Colors@DirectX@@3UXMVECTORF32@2@B		; DirectX::Colors::Teal
PUBLIC	?Thistle@Colors@DirectX@@3UXMVECTORF32@2@B	; DirectX::Colors::Thistle
PUBLIC	?Tomato@Colors@DirectX@@3UXMVECTORF32@2@B	; DirectX::Colors::Tomato
PUBLIC	?Transparent@Colors@DirectX@@3UXMVECTORF32@2@B	; DirectX::Colors::Transparent
PUBLIC	?Turquoise@Colors@DirectX@@3UXMVECTORF32@2@B	; DirectX::Colors::Turquoise
PUBLIC	?Violet@Colors@DirectX@@3UXMVECTORF32@2@B	; DirectX::Colors::Violet
PUBLIC	?Wheat@Colors@DirectX@@3UXMVECTORF32@2@B	; DirectX::Colors::Wheat
PUBLIC	?White@Colors@DirectX@@3UXMVECTORF32@2@B	; DirectX::Colors::White
PUBLIC	?WhiteSmoke@Colors@DirectX@@3UXMVECTORF32@2@B	; DirectX::Colors::WhiteSmoke
PUBLIC	?Yellow@Colors@DirectX@@3UXMVECTORF32@2@B	; DirectX::Colors::Yellow
PUBLIC	?YellowGreen@Colors@DirectX@@3UXMVECTORF32@2@B	; DirectX::Colors::YellowGreen
PUBLIC	?g_UnitVectorEpsilon@Internal@DirectX@@3UXMVECTORF32@2@B ; DirectX::Internal::g_UnitVectorEpsilon
PUBLIC	?g_UnitQuaternionEpsilon@Internal@DirectX@@3UXMVECTORF32@2@B ; DirectX::Internal::g_UnitQuaternionEpsilon
PUBLIC	?g_UnitPlaneEpsilon@Internal@DirectX@@3UXMVECTORF32@2@B ; DirectX::Internal::g_UnitPlaneEpsilon
PUBLIC	?g_XMSinCoefficients0@DirectX@@3UXMVECTORF32@1@B ; DirectX::g_XMSinCoefficients0
PUBLIC	?g_XMSinCoefficients1@DirectX@@3UXMVECTORF32@1@B ; DirectX::g_XMSinCoefficients1
PUBLIC	?g_XMCosCoefficients0@DirectX@@3UXMVECTORF32@1@B ; DirectX::g_XMCosCoefficients0
PUBLIC	?g_XMCosCoefficients1@DirectX@@3UXMVECTORF32@1@B ; DirectX::g_XMCosCoefficients1
PUBLIC	?g_XMTanCoefficients0@DirectX@@3UXMVECTORF32@1@B ; DirectX::g_XMTanCoefficients0
PUBLIC	?g_XMTanCoefficients1@DirectX@@3UXMVECTORF32@1@B ; DirectX::g_XMTanCoefficients1
PUBLIC	?g_XMTanCoefficients2@DirectX@@3UXMVECTORF32@1@B ; DirectX::g_XMTanCoefficients2
PUBLIC	?g_XMArcCoefficients0@DirectX@@3UXMVECTORF32@1@B ; DirectX::g_XMArcCoefficients0
PUBLIC	?g_XMArcCoefficients1@DirectX@@3UXMVECTORF32@1@B ; DirectX::g_XMArcCoefficients1
PUBLIC	?g_XMATanCoefficients0@DirectX@@3UXMVECTORF32@1@B ; DirectX::g_XMATanCoefficients0
PUBLIC	?g_XMATanCoefficients1@DirectX@@3UXMVECTORF32@1@B ; DirectX::g_XMATanCoefficients1
PUBLIC	?g_XMATanEstCoefficients0@DirectX@@3UXMVECTORF32@1@B ; DirectX::g_XMATanEstCoefficients0
PUBLIC	?g_XMATanEstCoefficients1@DirectX@@3UXMVECTORF32@1@B ; DirectX::g_XMATanEstCoefficients1
PUBLIC	?g_XMTanEstCoefficients@DirectX@@3UXMVECTORF32@1@B ; DirectX::g_XMTanEstCoefficients
PUBLIC	?g_XMArcEstCoefficients@DirectX@@3UXMVECTORF32@1@B ; DirectX::g_XMArcEstCoefficients
PUBLIC	?g_XMPiConstants0@DirectX@@3UXMVECTORF32@1@B	; DirectX::g_XMPiConstants0
PUBLIC	?g_XMIdentityR0@DirectX@@3UXMVECTORF32@1@B	; DirectX::g_XMIdentityR0
PUBLIC	?g_XMIdentityR1@DirectX@@3UXMVECTORF32@1@B	; DirectX::g_XMIdentityR1
PUBLIC	?g_XMIdentityR2@DirectX@@3UXMVECTORF32@1@B	; DirectX::g_XMIdentityR2
PUBLIC	?g_XMIdentityR3@DirectX@@3UXMVECTORF32@1@B	; DirectX::g_XMIdentityR3
PUBLIC	?g_XMNegIdentityR0@DirectX@@3UXMVECTORF32@1@B	; DirectX::g_XMNegIdentityR0
PUBLIC	?g_XMNegIdentityR1@DirectX@@3UXMVECTORF32@1@B	; DirectX::g_XMNegIdentityR1
PUBLIC	?g_XMNegIdentityR2@DirectX@@3UXMVECTORF32@1@B	; DirectX::g_XMNegIdentityR2
PUBLIC	?g_XMNegIdentityR3@DirectX@@3UXMVECTORF32@1@B	; DirectX::g_XMNegIdentityR3
PUBLIC	?g_XMNegativeZero@DirectX@@3UXMVECTORU32@1@B	; DirectX::g_XMNegativeZero
PUBLIC	?g_XMNegate3@DirectX@@3UXMVECTORU32@1@B		; DirectX::g_XMNegate3
PUBLIC	?g_XMMask3@DirectX@@3UXMVECTORU32@1@B		; DirectX::g_XMMask3
PUBLIC	?g_XMMaskX@DirectX@@3UXMVECTORU32@1@B		; DirectX::g_XMMaskX
PUBLIC	?g_XMMaskY@DirectX@@3UXMVECTORU32@1@B		; DirectX::g_XMMaskY
PUBLIC	?g_XMMaskZ@DirectX@@3UXMVECTORU32@1@B		; DirectX::g_XMMaskZ
PUBLIC	?g_XMMaskW@DirectX@@3UXMVECTORU32@1@B		; DirectX::g_XMMaskW
PUBLIC	?g_XMOne@DirectX@@3UXMVECTORF32@1@B		; DirectX::g_XMOne
PUBLIC	?g_XMOne3@DirectX@@3UXMVECTORF32@1@B		; DirectX::g_XMOne3
PUBLIC	?g_XMZero@DirectX@@3UXMVECTORF32@1@B		; DirectX::g_XMZero
PUBLIC	?g_XMTwo@DirectX@@3UXMVECTORF32@1@B		; DirectX::g_XMTwo
PUBLIC	?g_XMFour@DirectX@@3UXMVECTORF32@1@B		; DirectX::g_XMFour
PUBLIC	?g_XMSix@DirectX@@3UXMVECTORF32@1@B		; DirectX::g_XMSix
PUBLIC	?g_XMNegativeOne@DirectX@@3UXMVECTORF32@1@B	; DirectX::g_XMNegativeOne
PUBLIC	?g_XMOneHalf@DirectX@@3UXMVECTORF32@1@B		; DirectX::g_XMOneHalf
PUBLIC	?g_XMNegativeOneHalf@DirectX@@3UXMVECTORF32@1@B	; DirectX::g_XMNegativeOneHalf
PUBLIC	?g_XMNegativeTwoPi@DirectX@@3UXMVECTORF32@1@B	; DirectX::g_XMNegativeTwoPi
PUBLIC	?g_XMNegativePi@DirectX@@3UXMVECTORF32@1@B	; DirectX::g_XMNegativePi
PUBLIC	?g_XMHalfPi@DirectX@@3UXMVECTORF32@1@B		; DirectX::g_XMHalfPi
PUBLIC	?g_XMPi@DirectX@@3UXMVECTORF32@1@B		; DirectX::g_XMPi
PUBLIC	?g_XMReciprocalPi@DirectX@@3UXMVECTORF32@1@B	; DirectX::g_XMReciprocalPi
PUBLIC	?g_XMTwoPi@DirectX@@3UXMVECTORF32@1@B		; DirectX::g_XMTwoPi
PUBLIC	?g_XMReciprocalTwoPi@DirectX@@3UXMVECTORF32@1@B	; DirectX::g_XMReciprocalTwoPi
PUBLIC	?g_XMEpsilon@DirectX@@3UXMVECTORF32@1@B		; DirectX::g_XMEpsilon
PUBLIC	?g_XMInfinity@DirectX@@3UXMVECTORI32@1@B	; DirectX::g_XMInfinity
PUBLIC	?g_XMQNaN@DirectX@@3UXMVECTORI32@1@B		; DirectX::g_XMQNaN
PUBLIC	?g_XMQNaNTest@DirectX@@3UXMVECTORI32@1@B	; DirectX::g_XMQNaNTest
PUBLIC	?g_XMAbsMask@DirectX@@3UXMVECTORI32@1@B		; DirectX::g_XMAbsMask
PUBLIC	?g_XMFltMin@DirectX@@3UXMVECTORI32@1@B		; DirectX::g_XMFltMin
PUBLIC	?g_XMFltMax@DirectX@@3UXMVECTORI32@1@B		; DirectX::g_XMFltMax
PUBLIC	?g_XMNegOneMask@DirectX@@3UXMVECTORU32@1@B	; DirectX::g_XMNegOneMask
PUBLIC	?g_XMMaskA8R8G8B8@DirectX@@3UXMVECTORU32@1@B	; DirectX::g_XMMaskA8R8G8B8
PUBLIC	?g_XMFlipA8R8G8B8@DirectX@@3UXMVECTORU32@1@B	; DirectX::g_XMFlipA8R8G8B8
PUBLIC	?g_XMFixAA8R8G8B8@DirectX@@3UXMVECTORF32@1@B	; DirectX::g_XMFixAA8R8G8B8
PUBLIC	?g_XMNormalizeA8R8G8B8@DirectX@@3UXMVECTORF32@1@B ; DirectX::g_XMNormalizeA8R8G8B8
PUBLIC	?g_XMMaskA2B10G10R10@DirectX@@3UXMVECTORU32@1@B	; DirectX::g_XMMaskA2B10G10R10
PUBLIC	?g_XMFlipA2B10G10R10@DirectX@@3UXMVECTORU32@1@B	; DirectX::g_XMFlipA2B10G10R10
PUBLIC	?g_XMFixAA2B10G10R10@DirectX@@3UXMVECTORF32@1@B	; DirectX::g_XMFixAA2B10G10R10
PUBLIC	?g_XMNormalizeA2B10G10R10@DirectX@@3UXMVECTORF32@1@B ; DirectX::g_XMNormalizeA2B10G10R10
PUBLIC	?g_XMMaskX16Y16@DirectX@@3UXMVECTORU32@1@B	; DirectX::g_XMMaskX16Y16
PUBLIC	?g_XMFlipX16Y16@DirectX@@3UXMVECTORI32@1@B	; DirectX::g_XMFlipX16Y16
PUBLIC	?g_XMFixX16Y16@DirectX@@3UXMVECTORF32@1@B	; DirectX::g_XMFixX16Y16
PUBLIC	?g_XMNormalizeX16Y16@DirectX@@3UXMVECTORF32@1@B	; DirectX::g_XMNormalizeX16Y16
PUBLIC	?g_XMMaskX16Y16Z16W16@DirectX@@3UXMVECTORU32@1@B ; DirectX::g_XMMaskX16Y16Z16W16
PUBLIC	?g_XMFlipX16Y16Z16W16@DirectX@@3UXMVECTORI32@1@B ; DirectX::g_XMFlipX16Y16Z16W16
PUBLIC	?g_XMFixX16Y16Z16W16@DirectX@@3UXMVECTORF32@1@B	; DirectX::g_XMFixX16Y16Z16W16
PUBLIC	?g_XMNormalizeX16Y16Z16W16@DirectX@@3UXMVECTORF32@1@B ; DirectX::g_XMNormalizeX16Y16Z16W16
PUBLIC	?g_XMNoFraction@DirectX@@3UXMVECTORF32@1@B	; DirectX::g_XMNoFraction
PUBLIC	?g_XMMaskByte@DirectX@@3UXMVECTORI32@1@B	; DirectX::g_XMMaskByte
PUBLIC	?g_XMNegateX@DirectX@@3UXMVECTORF32@1@B		; DirectX::g_XMNegateX
PUBLIC	?g_XMNegateY@DirectX@@3UXMVECTORF32@1@B		; DirectX::g_XMNegateY
PUBLIC	?g_XMNegateZ@DirectX@@3UXMVECTORF32@1@B		; DirectX::g_XMNegateZ
PUBLIC	?g_XMNegateW@DirectX@@3UXMVECTORF32@1@B		; DirectX::g_XMNegateW
PUBLIC	?g_XMSelect0101@DirectX@@3UXMVECTORU32@1@B	; DirectX::g_XMSelect0101
PUBLIC	?g_XMSelect1010@DirectX@@3UXMVECTORU32@1@B	; DirectX::g_XMSelect1010
PUBLIC	?g_XMOneHalfMinusEpsilon@DirectX@@3UXMVECTORI32@1@B ; DirectX::g_XMOneHalfMinusEpsilon
PUBLIC	?g_XMSelect1000@DirectX@@3UXMVECTORU32@1@B	; DirectX::g_XMSelect1000
PUBLIC	?g_XMSelect1100@DirectX@@3UXMVECTORU32@1@B	; DirectX::g_XMSelect1100
PUBLIC	?g_XMSelect1110@DirectX@@3UXMVECTORU32@1@B	; DirectX::g_XMSelect1110
PUBLIC	?g_XMSelect1011@DirectX@@3UXMVECTORU32@1@B	; DirectX::g_XMSelect1011
PUBLIC	?g_XMFixupY16@DirectX@@3UXMVECTORF32@1@B	; DirectX::g_XMFixupY16
PUBLIC	?g_XMFixupY16W16@DirectX@@3UXMVECTORF32@1@B	; DirectX::g_XMFixupY16W16
PUBLIC	?g_XMFlipY@DirectX@@3UXMVECTORU32@1@B		; DirectX::g_XMFlipY
PUBLIC	?g_XMFlipZ@DirectX@@3UXMVECTORU32@1@B		; DirectX::g_XMFlipZ
PUBLIC	?g_XMFlipW@DirectX@@3UXMVECTORU32@1@B		; DirectX::g_XMFlipW
PUBLIC	?g_XMFlipYZ@DirectX@@3UXMVECTORU32@1@B		; DirectX::g_XMFlipYZ
PUBLIC	?g_XMFlipZW@DirectX@@3UXMVECTORU32@1@B		; DirectX::g_XMFlipZW
PUBLIC	?g_XMFlipYW@DirectX@@3UXMVECTORU32@1@B		; DirectX::g_XMFlipYW
PUBLIC	?g_XMMaskDec4@DirectX@@3UXMVECTORI32@1@B	; DirectX::g_XMMaskDec4
PUBLIC	?g_XMXorDec4@DirectX@@3UXMVECTORI32@1@B		; DirectX::g_XMXorDec4
PUBLIC	?g_XMAddUDec4@DirectX@@3UXMVECTORF32@1@B	; DirectX::g_XMAddUDec4
PUBLIC	?g_XMAddDec4@DirectX@@3UXMVECTORF32@1@B		; DirectX::g_XMAddDec4
PUBLIC	?g_XMMulDec4@DirectX@@3UXMVECTORF32@1@B		; DirectX::g_XMMulDec4
PUBLIC	?g_XMMaskByte4@DirectX@@3UXMVECTORU32@1@B	; DirectX::g_XMMaskByte4
PUBLIC	?g_XMXorByte4@DirectX@@3UXMVECTORI32@1@B	; DirectX::g_XMXorByte4
PUBLIC	?g_XMAddByte4@DirectX@@3UXMVECTORF32@1@B	; DirectX::g_XMAddByte4
PUBLIC	?g_XMFixUnsigned@DirectX@@3UXMVECTORF32@1@B	; DirectX::g_XMFixUnsigned
PUBLIC	?g_XMMaxInt@DirectX@@3UXMVECTORF32@1@B		; DirectX::g_XMMaxInt
PUBLIC	?g_XMMaxUInt@DirectX@@3UXMVECTORF32@1@B		; DirectX::g_XMMaxUInt
PUBLIC	?g_XMUnsignedFix@DirectX@@3UXMVECTORF32@1@B	; DirectX::g_XMUnsignedFix
PUBLIC	?g_XMsrgbScale@DirectX@@3UXMVECTORF32@1@B	; DirectX::g_XMsrgbScale
PUBLIC	?g_XMsrgbA@DirectX@@3UXMVECTORF32@1@B		; DirectX::g_XMsrgbA
PUBLIC	?g_XMsrgbA1@DirectX@@3UXMVECTORF32@1@B		; DirectX::g_XMsrgbA1
PUBLIC	?g_XMExponentBias@DirectX@@3UXMVECTORI32@1@B	; DirectX::g_XMExponentBias
PUBLIC	?g_XMSubnormalExponent@DirectX@@3UXMVECTORI32@1@B ; DirectX::g_XMSubnormalExponent
PUBLIC	?g_XMNumTrailing@DirectX@@3UXMVECTORI32@1@B	; DirectX::g_XMNumTrailing
PUBLIC	?g_XMMinNormal@DirectX@@3UXMVECTORI32@1@B	; DirectX::g_XMMinNormal
PUBLIC	?g_XMNegInfinity@DirectX@@3UXMVECTORU32@1@B	; DirectX::g_XMNegInfinity
PUBLIC	?g_XMNegQNaN@DirectX@@3UXMVECTORU32@1@B		; DirectX::g_XMNegQNaN
PUBLIC	?g_XMBin128@DirectX@@3UXMVECTORI32@1@B		; DirectX::g_XMBin128
PUBLIC	?g_XMBinNeg150@DirectX@@3UXMVECTORU32@1@B	; DirectX::g_XMBinNeg150
PUBLIC	?g_XM253@DirectX@@3UXMVECTORI32@1@B		; DirectX::g_XM253
PUBLIC	?g_XMExpEst1@DirectX@@3UXMVECTORF32@1@B		; DirectX::g_XMExpEst1
PUBLIC	?g_XMExpEst2@DirectX@@3UXMVECTORF32@1@B		; DirectX::g_XMExpEst2
PUBLIC	?g_XMExpEst3@DirectX@@3UXMVECTORF32@1@B		; DirectX::g_XMExpEst3
PUBLIC	?g_XMExpEst4@DirectX@@3UXMVECTORF32@1@B		; DirectX::g_XMExpEst4
PUBLIC	?g_XMExpEst5@DirectX@@3UXMVECTORF32@1@B		; DirectX::g_XMExpEst5
PUBLIC	?g_XMExpEst6@DirectX@@3UXMVECTORF32@1@B		; DirectX::g_XMExpEst6
PUBLIC	?g_XMExpEst7@DirectX@@3UXMVECTORF32@1@B		; DirectX::g_XMExpEst7
PUBLIC	?g_XMLogEst0@DirectX@@3UXMVECTORF32@1@B		; DirectX::g_XMLogEst0
PUBLIC	?g_XMLogEst1@DirectX@@3UXMVECTORF32@1@B		; DirectX::g_XMLogEst1
PUBLIC	?g_XMLogEst2@DirectX@@3UXMVECTORF32@1@B		; DirectX::g_XMLogEst2
PUBLIC	?g_XMLogEst3@DirectX@@3UXMVECTORF32@1@B		; DirectX::g_XMLogEst3
PUBLIC	?g_XMLogEst4@DirectX@@3UXMVECTORF32@1@B		; DirectX::g_XMLogEst4
PUBLIC	?g_XMLogEst5@DirectX@@3UXMVECTORF32@1@B		; DirectX::g_XMLogEst5
PUBLIC	?g_XMLogEst6@DirectX@@3UXMVECTORF32@1@B		; DirectX::g_XMLogEst6
PUBLIC	?g_XMLogEst7@DirectX@@3UXMVECTORF32@1@B		; DirectX::g_XMLogEst7
PUBLIC	?g_XMLgE@DirectX@@3UXMVECTORF32@1@B		; DirectX::g_XMLgE
PUBLIC	?g_XMInvLgE@DirectX@@3UXMVECTORF32@1@B		; DirectX::g_XMInvLgE
;	COMDAT ?g_XMInvLgE@DirectX@@3UXMVECTORF32@1@B
CONST	SEGMENT
?g_XMInvLgE@DirectX@@3UXMVECTORF32@1@B DD 03f317218r ; 0.693147 ; DirectX::g_XMInvLgE
	DD	03f317218r			; 0.693147
	DD	03f317218r			; 0.693147
	DD	03f317218r			; 0.693147
CONST	ENDS
;	COMDAT ?g_XMLgE@DirectX@@3UXMVECTORF32@1@B
CONST	SEGMENT
?g_XMLgE@DirectX@@3UXMVECTORF32@1@B DD 03fb8aa3br ; 1.4427 ; DirectX::g_XMLgE
	DD	03fb8aa3br			; 1.4427
	DD	03fb8aa3br			; 1.4427
	DD	03fb8aa3br			; 1.4427
CONST	ENDS
;	COMDAT ?g_XMLogEst7@DirectX@@3UXMVECTORF32@1@B
CONST	SEGMENT
?g_XMLogEst7@DirectX@@3UXMVECTORF32@1@B DD 0bc2d4f59r ; -0.010578 ; DirectX::g_XMLogEst7
	DD	0bc2d4f59r			; -0.010578
	DD	0bc2d4f59r			; -0.010578
	DD	0bc2d4f59r			; -0.010578
CONST	ENDS
;	COMDAT ?g_XMLogEst6@DirectX@@3UXMVECTORF32@1@B
CONST	SEGMENT
?g_XMLogEst6@DirectX@@3UXMVECTORF32@1@B DD 03d6a1405r ; 0.057148 ; DirectX::g_XMLogEst6
	DD	03d6a1405r			; 0.057148
	DD	03d6a1405r			; 0.057148
	DD	03d6a1405r			; 0.057148
CONST	ENDS
;	COMDAT ?g_XMLogEst5@DirectX@@3UXMVECTORF32@1@B
CONST	SEGMENT
?g_XMLogEst5@DirectX@@3UXMVECTORF32@1@B DD 0be153261r ; -0.1457 ; DirectX::g_XMLogEst5
	DD	0be153261r			; -0.1457
	DD	0be153261r			; -0.1457
	DD	0be153261r			; -0.1457
CONST	ENDS
;	COMDAT ?g_XMLogEst4@DirectX@@3UXMVECTORF32@1@B
CONST	SEGMENT
?g_XMLogEst4@DirectX@@3UXMVECTORF32@1@B DD 03e7e8e61r ; 0.24859 ; DirectX::g_XMLogEst4
	DD	03e7e8e61r			; 0.24859
	DD	03e7e8e61r			; 0.24859
	DD	03e7e8e61r			; 0.24859
CONST	ENDS
;	COMDAT ?g_XMLogEst3@DirectX@@3UXMVECTORF32@1@B
CONST	SEGMENT
?g_XMLogEst3@DirectX@@3UXMVECTORF32@1@B DD 0beb359der ; -0.350295 ; DirectX::g_XMLogEst3
	DD	0beb359der			; -0.350295
	DD	0beb359der			; -0.350295
	DD	0beb359der			; -0.350295
CONST	ENDS
;	COMDAT ?g_XMLogEst2@DirectX@@3UXMVECTORF32@1@B
CONST	SEGMENT
?g_XMLogEst2@DirectX@@3UXMVECTORF32@1@B DD 03ef571d2r ; 0.479384 ; DirectX::g_XMLogEst2
	DD	03ef571d2r			; 0.479384
	DD	03ef571d2r			; 0.479384
	DD	03ef571d2r			; 0.479384
CONST	ENDS
;	COMDAT ?g_XMLogEst1@DirectX@@3UXMVECTORF32@1@B
CONST	SEGMENT
?g_XMLogEst1@DirectX@@3UXMVECTORF32@1@B DD 0bf38a351r ; -0.721242 ; DirectX::g_XMLogEst1
	DD	0bf38a351r			; -0.721242
	DD	0bf38a351r			; -0.721242
	DD	0bf38a351r			; -0.721242
CONST	ENDS
;	COMDAT ?g_XMLogEst0@DirectX@@3UXMVECTORF32@1@B
CONST	SEGMENT
?g_XMLogEst0@DirectX@@3UXMVECTORF32@1@B DD 03fb8aa2ar ; 1.44269 ; DirectX::g_XMLogEst0
	DD	03fb8aa2ar			; 1.44269
	DD	03fb8aa2ar			; 1.44269
	DD	03fb8aa2ar			; 1.44269
CONST	ENDS
;	COMDAT ?g_XMExpEst7@DirectX@@3UXMVECTORF32@1@B
CONST	SEGMENT
?g_XMExpEst7@DirectX@@3UXMVECTORF32@1@B DD 0b7364261r ; -1.08635e-05 ; DirectX::g_XMExpEst7
	DD	0b7364261r			; -1.08635e-05
	DD	0b7364261r			; -1.08635e-05
	DD	0b7364261r			; -1.08635e-05
CONST	ENDS
;	COMDAT ?g_XMExpEst6@DirectX@@3UXMVECTORF32@1@B
CONST	SEGMENT
?g_XMExpEst6@DirectX@@3UXMVECTORF32@1@B DD 0391aa7d7r ; 0.000147491 ; DirectX::g_XMExpEst6
	DD	0391aa7d7r			; 0.000147491
	DD	0391aa7d7r			; 0.000147491
	DD	0391aa7d7r			; 0.000147491
CONST	ENDS
;	COMDAT ?g_XMExpEst5@DirectX@@3UXMVECTORF32@1@B
CONST	SEGMENT
?g_XMExpEst5@DirectX@@3UXMVECTORF32@1@B DD 0baae1854r ; -0.00132824 ; DirectX::g_XMExpEst5
	DD	0baae1854r			; -0.00132824
	DD	0baae1854r			; -0.00132824
	DD	0baae1854r			; -0.00132824
CONST	ENDS
;	COMDAT ?g_XMExpEst4@DirectX@@3UXMVECTORF32@1@B
CONST	SEGMENT
?g_XMExpEst4@DirectX@@3UXMVECTORF32@1@B DD 03c1d8c54r ; 0.00961598 ; DirectX::g_XMExpEst4
	DD	03c1d8c54r			; 0.00961598
	DD	03c1d8c54r			; 0.00961598
	DD	03c1d8c54r			; 0.00961598
CONST	ENDS
;	COMDAT ?g_XMExpEst3@DirectX@@3UXMVECTORF32@1@B
CONST	SEGMENT
?g_XMExpEst3@DirectX@@3UXMVECTORF32@1@B DD 0bd6357car ; -0.0555036 ; DirectX::g_XMExpEst3
	DD	0bd6357car			; -0.0555036
	DD	0bd6357car			; -0.0555036
	DD	0bd6357car			; -0.0555036
CONST	ENDS
;	COMDAT ?g_XMExpEst2@DirectX@@3UXMVECTORF32@1@B
CONST	SEGMENT
?g_XMExpEst2@DirectX@@3UXMVECTORF32@1@B DD 03e75fdedr ; 0.240226 ; DirectX::g_XMExpEst2
	DD	03e75fdedr			; 0.240226
	DD	03e75fdedr			; 0.240226
	DD	03e75fdedr			; 0.240226
CONST	ENDS
;	COMDAT ?g_XMExpEst1@DirectX@@3UXMVECTORF32@1@B
CONST	SEGMENT
?g_XMExpEst1@DirectX@@3UXMVECTORF32@1@B DD 0bf317218r ; -0.693147 ; DirectX::g_XMExpEst1
	DD	0bf317218r			; -0.693147
	DD	0bf317218r			; -0.693147
	DD	0bf317218r			; -0.693147
CONST	ENDS
;	COMDAT ?g_XM253@DirectX@@3UXMVECTORI32@1@B
CONST	SEGMENT
?g_XM253@DirectX@@3UXMVECTORI32@1@B DD 0fdH		; DirectX::g_XM253
	DD	0fdH
	DD	0fdH
	DD	0fdH
CONST	ENDS
;	COMDAT ?g_XMBinNeg150@DirectX@@3UXMVECTORU32@1@B
CONST	SEGMENT
?g_XMBinNeg150@DirectX@@3UXMVECTORU32@1@B DD 0c3160000H	; DirectX::g_XMBinNeg150
	DD	0c3160000H
	DD	0c3160000H
	DD	0c3160000H
CONST	ENDS
;	COMDAT ?g_XMBin128@DirectX@@3UXMVECTORI32@1@B
CONST	SEGMENT
?g_XMBin128@DirectX@@3UXMVECTORI32@1@B DD 043000000H	; DirectX::g_XMBin128
	DD	043000000H
	DD	043000000H
	DD	043000000H
CONST	ENDS
;	COMDAT ?g_XMNegQNaN@DirectX@@3UXMVECTORU32@1@B
CONST	SEGMENT
?g_XMNegQNaN@DirectX@@3UXMVECTORU32@1@B DD 0ffc00000H	; DirectX::g_XMNegQNaN
	DD	0ffc00000H
	DD	0ffc00000H
	DD	0ffc00000H
CONST	ENDS
;	COMDAT ?g_XMNegInfinity@DirectX@@3UXMVECTORU32@1@B
CONST	SEGMENT
?g_XMNegInfinity@DirectX@@3UXMVECTORU32@1@B DD 0ff800000H ; DirectX::g_XMNegInfinity
	DD	0ff800000H
	DD	0ff800000H
	DD	0ff800000H
CONST	ENDS
;	COMDAT ?g_XMMinNormal@DirectX@@3UXMVECTORI32@1@B
CONST	SEGMENT
?g_XMMinNormal@DirectX@@3UXMVECTORI32@1@B DD 0800000H	; DirectX::g_XMMinNormal
	DD	0800000H
	DD	0800000H
	DD	0800000H
CONST	ENDS
;	COMDAT ?g_XMNumTrailing@DirectX@@3UXMVECTORI32@1@B
CONST	SEGMENT
?g_XMNumTrailing@DirectX@@3UXMVECTORI32@1@B DD 017H	; DirectX::g_XMNumTrailing
	DD	017H
	DD	017H
	DD	017H
CONST	ENDS
;	COMDAT ?g_XMSubnormalExponent@DirectX@@3UXMVECTORI32@1@B
CONST	SEGMENT
?g_XMSubnormalExponent@DirectX@@3UXMVECTORI32@1@B DD 0ffffff82H ; DirectX::g_XMSubnormalExponent
	DD	0ffffff82H
	DD	0ffffff82H
	DD	0ffffff82H
CONST	ENDS
;	COMDAT ?g_XMExponentBias@DirectX@@3UXMVECTORI32@1@B
CONST	SEGMENT
?g_XMExponentBias@DirectX@@3UXMVECTORI32@1@B DD 07fH	; DirectX::g_XMExponentBias
	DD	07fH
	DD	07fH
	DD	07fH
CONST	ENDS
;	COMDAT ?g_XMsrgbA1@DirectX@@3UXMVECTORF32@1@B
CONST	SEGMENT
?g_XMsrgbA1@DirectX@@3UXMVECTORF32@1@B DD 03f870a3dr ; 1.055 ; DirectX::g_XMsrgbA1
	DD	03f870a3dr			; 1.055
	DD	03f870a3dr			; 1.055
	DD	03f800000r			; 1
CONST	ENDS
;	COMDAT ?g_XMsrgbA@DirectX@@3UXMVECTORF32@1@B
CONST	SEGMENT
?g_XMsrgbA@DirectX@@3UXMVECTORF32@1@B DD 03d6147aer ; 0.055 ; DirectX::g_XMsrgbA
	DD	03d6147aer			; 0.055
	DD	03d6147aer			; 0.055
	DD	000000000r			; 0
CONST	ENDS
;	COMDAT ?g_XMsrgbScale@DirectX@@3UXMVECTORF32@1@B
CONST	SEGMENT
?g_XMsrgbScale@DirectX@@3UXMVECTORF32@1@B DD 0414eb852r ; 12.92 ; DirectX::g_XMsrgbScale
	DD	0414eb852r			; 12.92
	DD	0414eb852r			; 12.92
	DD	03f800000r			; 1
CONST	ENDS
;	COMDAT ?g_XMUnsignedFix@DirectX@@3UXMVECTORF32@1@B
CONST	SEGMENT
?g_XMUnsignedFix@DirectX@@3UXMVECTORF32@1@B DD 04f000000r ; 2.14748e+09 ; DirectX::g_XMUnsignedFix
	DD	04f000000r			; 2.14748e+09
	DD	04f000000r			; 2.14748e+09
	DD	04f000000r			; 2.14748e+09
CONST	ENDS
;	COMDAT ?g_XMMaxUInt@DirectX@@3UXMVECTORF32@1@B
CONST	SEGMENT
?g_XMMaxUInt@DirectX@@3UXMVECTORF32@1@B DD 04f7fffffr ; 4.29497e+09 ; DirectX::g_XMMaxUInt
	DD	04f7fffffr			; 4.29497e+09
	DD	04f7fffffr			; 4.29497e+09
	DD	04f7fffffr			; 4.29497e+09
CONST	ENDS
;	COMDAT ?g_XMMaxInt@DirectX@@3UXMVECTORF32@1@B
CONST	SEGMENT
?g_XMMaxInt@DirectX@@3UXMVECTORF32@1@B DD 04effffffr ; 2.14748e+09 ; DirectX::g_XMMaxInt
	DD	04effffffr			; 2.14748e+09
	DD	04effffffr			; 2.14748e+09
	DD	04effffffr			; 2.14748e+09
CONST	ENDS
;	COMDAT ?g_XMFixUnsigned@DirectX@@3UXMVECTORF32@1@B
CONST	SEGMENT
?g_XMFixUnsigned@DirectX@@3UXMVECTORF32@1@B DD 04f000000r ; 2.14748e+09 ; DirectX::g_XMFixUnsigned
	DD	04f000000r			; 2.14748e+09
	DD	04f000000r			; 2.14748e+09
	DD	04f000000r			; 2.14748e+09
CONST	ENDS
;	COMDAT ?g_XMAddByte4@DirectX@@3UXMVECTORF32@1@B
CONST	SEGMENT
?g_XMAddByte4@DirectX@@3UXMVECTORF32@1@B DD 0c3000000r ; -128 ; DirectX::g_XMAddByte4
	DD	0c7000000r			; -32768
	DD	0cb000000r			; -8.38861e+06
	DD	000000000r			; 0
CONST	ENDS
;	COMDAT ?g_XMXorByte4@DirectX@@3UXMVECTORI32@1@B
CONST	SEGMENT
?g_XMXorByte4@DirectX@@3UXMVECTORI32@1@B DD 080H	; DirectX::g_XMXorByte4
	DD	08000H
	DD	0800000H
	DD	00H
CONST	ENDS
;	COMDAT ?g_XMMaskByte4@DirectX@@3UXMVECTORU32@1@B
CONST	SEGMENT
?g_XMMaskByte4@DirectX@@3UXMVECTORU32@1@B DD 0ffH	; DirectX::g_XMMaskByte4
	DD	0ff00H
	DD	0ff0000H
	DD	0ff000000H
CONST	ENDS
;	COMDAT ?g_XMMulDec4@DirectX@@3UXMVECTORF32@1@B
CONST	SEGMENT
?g_XMMulDec4@DirectX@@3UXMVECTORF32@1@B DD 03f800000r ; 1 ; DirectX::g_XMMulDec4
	DD	03a800000r			; 0.000976563
	DD	035800000r			; 9.53674e-07
	DD	030800000r			; 9.31323e-10
CONST	ENDS
;	COMDAT ?g_XMAddDec4@DirectX@@3UXMVECTORF32@1@B
CONST	SEGMENT
?g_XMAddDec4@DirectX@@3UXMVECTORF32@1@B DD 0c4000000r ; -512 ; DirectX::g_XMAddDec4
	DD	0c9000000r			; -524288
	DD	0ce000000r			; -5.36871e+08
	DD	000000000r			; 0
CONST	ENDS
;	COMDAT ?g_XMAddUDec4@DirectX@@3UXMVECTORF32@1@B
CONST	SEGMENT
?g_XMAddUDec4@DirectX@@3UXMVECTORF32@1@B DD 000000000r ; 0 ; DirectX::g_XMAddUDec4
	DD	000000000r			; 0
	DD	000000000r			; 0
	DD	04f000000r			; 2.14748e+09
CONST	ENDS
;	COMDAT ?g_XMXorDec4@DirectX@@3UXMVECTORI32@1@B
CONST	SEGMENT
?g_XMXorDec4@DirectX@@3UXMVECTORI32@1@B DD 0200H	; DirectX::g_XMXorDec4
	DD	080000H
	DD	020000000H
	DD	00H
CONST	ENDS
;	COMDAT ?g_XMMaskDec4@DirectX@@3UXMVECTORI32@1@B
CONST	SEGMENT
?g_XMMaskDec4@DirectX@@3UXMVECTORI32@1@B DD 03ffH	; DirectX::g_XMMaskDec4
	DD	0ffc00H
	DD	03ff00000H
	DD	0c0000000H
CONST	ENDS
;	COMDAT ?g_XMFlipYW@DirectX@@3UXMVECTORU32@1@B
CONST	SEGMENT
?g_XMFlipYW@DirectX@@3UXMVECTORU32@1@B DD 00H		; DirectX::g_XMFlipYW
	DD	080000000H
	DD	00H
	DD	080000000H
CONST	ENDS
;	COMDAT ?g_XMFlipZW@DirectX@@3UXMVECTORU32@1@B
CONST	SEGMENT
?g_XMFlipZW@DirectX@@3UXMVECTORU32@1@B DD 00H		; DirectX::g_XMFlipZW
	DD	00H
	DD	080000000H
	DD	080000000H
CONST	ENDS
;	COMDAT ?g_XMFlipYZ@DirectX@@3UXMVECTORU32@1@B
CONST	SEGMENT
?g_XMFlipYZ@DirectX@@3UXMVECTORU32@1@B DD 00H		; DirectX::g_XMFlipYZ
	DD	080000000H
	DD	080000000H
	DD	00H
CONST	ENDS
;	COMDAT ?g_XMFlipW@DirectX@@3UXMVECTORU32@1@B
CONST	SEGMENT
?g_XMFlipW@DirectX@@3UXMVECTORU32@1@B DD 00H		; DirectX::g_XMFlipW
	DD	00H
	DD	00H
	DD	080000000H
CONST	ENDS
;	COMDAT ?g_XMFlipZ@DirectX@@3UXMVECTORU32@1@B
CONST	SEGMENT
?g_XMFlipZ@DirectX@@3UXMVECTORU32@1@B DD 00H		; DirectX::g_XMFlipZ
	DD	00H
	DD	080000000H
	DD	00H
CONST	ENDS
;	COMDAT ?g_XMFlipY@DirectX@@3UXMVECTORU32@1@B
CONST	SEGMENT
?g_XMFlipY@DirectX@@3UXMVECTORU32@1@B DD 00H		; DirectX::g_XMFlipY
	DD	080000000H
	DD	00H
	DD	00H
CONST	ENDS
;	COMDAT ?g_XMFixupY16W16@DirectX@@3UXMVECTORF32@1@B
CONST	SEGMENT
?g_XMFixupY16W16@DirectX@@3UXMVECTORF32@1@B DD 03f800000r ; 1 ; DirectX::g_XMFixupY16W16
	DD	03f800000r			; 1
	DD	037800000r			; 1.52588e-05
	DD	037800000r			; 1.52588e-05
CONST	ENDS
;	COMDAT ?g_XMFixupY16@DirectX@@3UXMVECTORF32@1@B
CONST	SEGMENT
?g_XMFixupY16@DirectX@@3UXMVECTORF32@1@B DD 03f800000r ; 1 ; DirectX::g_XMFixupY16
	DD	037800000r			; 1.52588e-05
	DD	000000000r			; 0
	DD	000000000r			; 0
CONST	ENDS
;	COMDAT ?g_XMSelect1011@DirectX@@3UXMVECTORU32@1@B
CONST	SEGMENT
?g_XMSelect1011@DirectX@@3UXMVECTORU32@1@B DD 0ffffffffH ; DirectX::g_XMSelect1011
	DD	00H
	DD	0ffffffffH
	DD	0ffffffffH
CONST	ENDS
;	COMDAT ?g_XMSelect1110@DirectX@@3UXMVECTORU32@1@B
CONST	SEGMENT
?g_XMSelect1110@DirectX@@3UXMVECTORU32@1@B DD 0ffffffffH ; DirectX::g_XMSelect1110
	DD	0ffffffffH
	DD	0ffffffffH
	DD	00H
CONST	ENDS
;	COMDAT ?g_XMSelect1100@DirectX@@3UXMVECTORU32@1@B
CONST	SEGMENT
?g_XMSelect1100@DirectX@@3UXMVECTORU32@1@B DD 0ffffffffH ; DirectX::g_XMSelect1100
	DD	0ffffffffH
	DD	00H
	DD	00H
CONST	ENDS
;	COMDAT ?g_XMSelect1000@DirectX@@3UXMVECTORU32@1@B
CONST	SEGMENT
?g_XMSelect1000@DirectX@@3UXMVECTORU32@1@B DD 0ffffffffH ; DirectX::g_XMSelect1000
	DD	00H
	DD	00H
	DD	00H
CONST	ENDS
;	COMDAT ?g_XMOneHalfMinusEpsilon@DirectX@@3UXMVECTORI32@1@B
CONST	SEGMENT
?g_XMOneHalfMinusEpsilon@DirectX@@3UXMVECTORI32@1@B DD 03efffffdH ; DirectX::g_XMOneHalfMinusEpsilon
	DD	03efffffdH
	DD	03efffffdH
	DD	03efffffdH
CONST	ENDS
;	COMDAT ?g_XMSelect1010@DirectX@@3UXMVECTORU32@1@B
CONST	SEGMENT
?g_XMSelect1010@DirectX@@3UXMVECTORU32@1@B DD 0ffffffffH ; DirectX::g_XMSelect1010
	DD	00H
	DD	0ffffffffH
	DD	00H
CONST	ENDS
;	COMDAT ?g_XMSelect0101@DirectX@@3UXMVECTORU32@1@B
CONST	SEGMENT
?g_XMSelect0101@DirectX@@3UXMVECTORU32@1@B DD 00H	; DirectX::g_XMSelect0101
	DD	0ffffffffH
	DD	00H
	DD	0ffffffffH
CONST	ENDS
;	COMDAT ?g_XMNegateW@DirectX@@3UXMVECTORF32@1@B
CONST	SEGMENT
?g_XMNegateW@DirectX@@3UXMVECTORF32@1@B DD 03f800000r ; 1 ; DirectX::g_XMNegateW
	DD	03f800000r			; 1
	DD	03f800000r			; 1
	DD	0bf800000r			; -1
CONST	ENDS
;	COMDAT ?g_XMNegateZ@DirectX@@3UXMVECTORF32@1@B
CONST	SEGMENT
?g_XMNegateZ@DirectX@@3UXMVECTORF32@1@B DD 03f800000r ; 1 ; DirectX::g_XMNegateZ
	DD	03f800000r			; 1
	DD	0bf800000r			; -1
	DD	03f800000r			; 1
CONST	ENDS
;	COMDAT ?g_XMNegateY@DirectX@@3UXMVECTORF32@1@B
CONST	SEGMENT
?g_XMNegateY@DirectX@@3UXMVECTORF32@1@B DD 03f800000r ; 1 ; DirectX::g_XMNegateY
	DD	0bf800000r			; -1
	DD	03f800000r			; 1
	DD	03f800000r			; 1
CONST	ENDS
;	COMDAT ?g_XMNegateX@DirectX@@3UXMVECTORF32@1@B
CONST	SEGMENT
?g_XMNegateX@DirectX@@3UXMVECTORF32@1@B DD 0bf800000r ; -1 ; DirectX::g_XMNegateX
	DD	03f800000r			; 1
	DD	03f800000r			; 1
	DD	03f800000r			; 1
CONST	ENDS
;	COMDAT ?g_XMMaskByte@DirectX@@3UXMVECTORI32@1@B
CONST	SEGMENT
?g_XMMaskByte@DirectX@@3UXMVECTORI32@1@B DD 0ffH	; DirectX::g_XMMaskByte
	DD	0ffH
	DD	0ffH
	DD	0ffH
CONST	ENDS
;	COMDAT ?g_XMNoFraction@DirectX@@3UXMVECTORF32@1@B
CONST	SEGMENT
?g_XMNoFraction@DirectX@@3UXMVECTORF32@1@B DD 04b000000r ; 8.38861e+06 ; DirectX::g_XMNoFraction
	DD	04b000000r			; 8.38861e+06
	DD	04b000000r			; 8.38861e+06
	DD	04b000000r			; 8.38861e+06
CONST	ENDS
;	COMDAT ?g_XMNormalizeX16Y16Z16W16@DirectX@@3UXMVECTORF32@1@B
CONST	SEGMENT
?g_XMNormalizeX16Y16Z16W16@DirectX@@3UXMVECTORF32@1@B DD 038000100r ; 3.05185e-05 ; DirectX::g_XMNormalizeX16Y16Z16W16
	DD	038000100r			; 3.05185e-05
	DD	030000100r			; 4.65675e-10
	DD	030000100r			; 4.65675e-10
CONST	ENDS
;	COMDAT ?g_XMFixX16Y16Z16W16@DirectX@@3UXMVECTORF32@1@B
CONST	SEGMENT
?g_XMFixX16Y16Z16W16@DirectX@@3UXMVECTORF32@1@B DD 0c7000000r ; -32768 ; DirectX::g_XMFixX16Y16Z16W16
	DD	0c7000000r			; -32768
	DD	000000000r			; 0
	DD	000000000r			; 0
CONST	ENDS
;	COMDAT ?g_XMFlipX16Y16Z16W16@DirectX@@3UXMVECTORI32@1@B
CONST	SEGMENT
?g_XMFlipX16Y16Z16W16@DirectX@@3UXMVECTORI32@1@B DD 08000H ; DirectX::g_XMFlipX16Y16Z16W16
	DD	08000H
	DD	00H
	DD	00H
CONST	ENDS
;	COMDAT ?g_XMMaskX16Y16Z16W16@DirectX@@3UXMVECTORU32@1@B
CONST	SEGMENT
?g_XMMaskX16Y16Z16W16@DirectX@@3UXMVECTORU32@1@B DD 0ffffH ; DirectX::g_XMMaskX16Y16Z16W16
	DD	0ffffH
	DD	0ffff0000H
	DD	0ffff0000H
CONST	ENDS
;	COMDAT ?g_XMNormalizeX16Y16@DirectX@@3UXMVECTORF32@1@B
CONST	SEGMENT
?g_XMNormalizeX16Y16@DirectX@@3UXMVECTORF32@1@B DD 038000100r ; 3.05185e-05 ; DirectX::g_XMNormalizeX16Y16
	DD	030000100r			; 4.65675e-10
	DD	000000000r			; 0
	DD	000000000r			; 0
CONST	ENDS
;	COMDAT ?g_XMFixX16Y16@DirectX@@3UXMVECTORF32@1@B
CONST	SEGMENT
?g_XMFixX16Y16@DirectX@@3UXMVECTORF32@1@B DD 0c7000000r ; -32768 ; DirectX::g_XMFixX16Y16
	DD	000000000r			; 0
	DD	000000000r			; 0
	DD	000000000r			; 0
CONST	ENDS
;	COMDAT ?g_XMFlipX16Y16@DirectX@@3UXMVECTORI32@1@B
CONST	SEGMENT
?g_XMFlipX16Y16@DirectX@@3UXMVECTORI32@1@B DD 08000H	; DirectX::g_XMFlipX16Y16
	DD	00H
	DD	00H
	DD	00H
CONST	ENDS
;	COMDAT ?g_XMMaskX16Y16@DirectX@@3UXMVECTORU32@1@B
CONST	SEGMENT
?g_XMMaskX16Y16@DirectX@@3UXMVECTORU32@1@B DD 0ffffH	; DirectX::g_XMMaskX16Y16
	DD	0ffff0000H
	DD	00H
	DD	00H
CONST	ENDS
;	COMDAT ?g_XMNormalizeA2B10G10R10@DirectX@@3UXMVECTORF32@1@B
CONST	SEGMENT
?g_XMNormalizeA2B10G10R10@DirectX@@3UXMVECTORF32@1@B DD 03b004020r ; 0.00195695 ; DirectX::g_XMNormalizeA2B10G10R10
	DD	036004020r			; 1.91108e-06
	DD	031004020r			; 1.86629e-09
	DD	02faaaaabr			; 3.10441e-10
CONST	ENDS
;	COMDAT ?g_XMFixAA2B10G10R10@DirectX@@3UXMVECTORF32@1@B
CONST	SEGMENT
?g_XMFixAA2B10G10R10@DirectX@@3UXMVECTORF32@1@B DD 0c4000000r ; -512 ; DirectX::g_XMFixAA2B10G10R10
	DD	0c9000000r			; -524288
	DD	0ce000000r			; -5.36871e+08
	DD	04f000000r			; 2.14748e+09
CONST	ENDS
;	COMDAT ?g_XMFlipA2B10G10R10@DirectX@@3UXMVECTORU32@1@B
CONST	SEGMENT
?g_XMFlipA2B10G10R10@DirectX@@3UXMVECTORU32@1@B DD 0200H ; DirectX::g_XMFlipA2B10G10R10
	DD	080000H
	DD	020000000H
	DD	080000000H
CONST	ENDS
;	COMDAT ?g_XMMaskA2B10G10R10@DirectX@@3UXMVECTORU32@1@B
CONST	SEGMENT
?g_XMMaskA2B10G10R10@DirectX@@3UXMVECTORU32@1@B DD 03ffH ; DirectX::g_XMMaskA2B10G10R10
	DD	0ffc00H
	DD	03ff00000H
	DD	0c0000000H
CONST	ENDS
;	COMDAT ?g_XMNormalizeA8R8G8B8@DirectX@@3UXMVECTORF32@1@B
CONST	SEGMENT
?g_XMNormalizeA8R8G8B8@DirectX@@3UXMVECTORF32@1@B DD 033808081r ; 5.98384e-08 ; DirectX::g_XMNormalizeA8R8G8B8
	DD	037808081r			; 1.53186e-05
	DD	03b808081r			; 0.00392157
	DD	02f808081r			; 2.33744e-10
CONST	ENDS
;	COMDAT ?g_XMFixAA8R8G8B8@DirectX@@3UXMVECTORF32@1@B
CONST	SEGMENT
?g_XMFixAA8R8G8B8@DirectX@@3UXMVECTORF32@1@B DD 000000000r ; 0 ; DirectX::g_XMFixAA8R8G8B8
	DD	000000000r			; 0
	DD	000000000r			; 0
	DD	04f000000r			; 2.14748e+09
CONST	ENDS
;	COMDAT ?g_XMFlipA8R8G8B8@DirectX@@3UXMVECTORU32@1@B
CONST	SEGMENT
?g_XMFlipA8R8G8B8@DirectX@@3UXMVECTORU32@1@B DD 00H	; DirectX::g_XMFlipA8R8G8B8
	DD	00H
	DD	00H
	DD	080000000H
CONST	ENDS
;	COMDAT ?g_XMMaskA8R8G8B8@DirectX@@3UXMVECTORU32@1@B
CONST	SEGMENT
?g_XMMaskA8R8G8B8@DirectX@@3UXMVECTORU32@1@B DD 0ff0000H ; DirectX::g_XMMaskA8R8G8B8
	DD	0ff00H
	DD	0ffH
	DD	0ff000000H
CONST	ENDS
;	COMDAT ?g_XMNegOneMask@DirectX@@3UXMVECTORU32@1@B
CONST	SEGMENT
?g_XMNegOneMask@DirectX@@3UXMVECTORU32@1@B DD 0ffffffffH ; DirectX::g_XMNegOneMask
	DD	0ffffffffH
	DD	0ffffffffH
	DD	0ffffffffH
CONST	ENDS
;	COMDAT ?g_XMFltMax@DirectX@@3UXMVECTORI32@1@B
CONST	SEGMENT
?g_XMFltMax@DirectX@@3UXMVECTORI32@1@B DD 07f7fffffH	; DirectX::g_XMFltMax
	DD	07f7fffffH
	DD	07f7fffffH
	DD	07f7fffffH
CONST	ENDS
;	COMDAT ?g_XMFltMin@DirectX@@3UXMVECTORI32@1@B
CONST	SEGMENT
?g_XMFltMin@DirectX@@3UXMVECTORI32@1@B DD 0800000H	; DirectX::g_XMFltMin
	DD	0800000H
	DD	0800000H
	DD	0800000H
CONST	ENDS
;	COMDAT ?g_XMAbsMask@DirectX@@3UXMVECTORI32@1@B
CONST	SEGMENT
?g_XMAbsMask@DirectX@@3UXMVECTORI32@1@B DD 07fffffffH	; DirectX::g_XMAbsMask
	DD	07fffffffH
	DD	07fffffffH
	DD	07fffffffH
CONST	ENDS
;	COMDAT ?g_XMQNaNTest@DirectX@@3UXMVECTORI32@1@B
CONST	SEGMENT
?g_XMQNaNTest@DirectX@@3UXMVECTORI32@1@B DD 07fffffH	; DirectX::g_XMQNaNTest
	DD	07fffffH
	DD	07fffffH
	DD	07fffffH
CONST	ENDS
;	COMDAT ?g_XMQNaN@DirectX@@3UXMVECTORI32@1@B
CONST	SEGMENT
?g_XMQNaN@DirectX@@3UXMVECTORI32@1@B DD 07fc00000H	; DirectX::g_XMQNaN
	DD	07fc00000H
	DD	07fc00000H
	DD	07fc00000H
CONST	ENDS
;	COMDAT ?g_XMInfinity@DirectX@@3UXMVECTORI32@1@B
CONST	SEGMENT
?g_XMInfinity@DirectX@@3UXMVECTORI32@1@B DD 07f800000H	; DirectX::g_XMInfinity
	DD	07f800000H
	DD	07f800000H
	DD	07f800000H
CONST	ENDS
;	COMDAT ?g_XMEpsilon@DirectX@@3UXMVECTORF32@1@B
CONST	SEGMENT
?g_XMEpsilon@DirectX@@3UXMVECTORF32@1@B DD 034000000r ; 1.19209e-07 ; DirectX::g_XMEpsilon
	DD	034000000r			; 1.19209e-07
	DD	034000000r			; 1.19209e-07
	DD	034000000r			; 1.19209e-07
CONST	ENDS
;	COMDAT ?g_XMReciprocalTwoPi@DirectX@@3UXMVECTORF32@1@B
CONST	SEGMENT
?g_XMReciprocalTwoPi@DirectX@@3UXMVECTORF32@1@B DD 03e22f983r ; 0.159155 ; DirectX::g_XMReciprocalTwoPi
	DD	03e22f983r			; 0.159155
	DD	03e22f983r			; 0.159155
	DD	03e22f983r			; 0.159155
CONST	ENDS
;	COMDAT ?g_XMTwoPi@DirectX@@3UXMVECTORF32@1@B
CONST	SEGMENT
?g_XMTwoPi@DirectX@@3UXMVECTORF32@1@B DD 040c90fdbr ; 6.28319 ; DirectX::g_XMTwoPi
	DD	040c90fdbr			; 6.28319
	DD	040c90fdbr			; 6.28319
	DD	040c90fdbr			; 6.28319
CONST	ENDS
;	COMDAT ?g_XMReciprocalPi@DirectX@@3UXMVECTORF32@1@B
CONST	SEGMENT
?g_XMReciprocalPi@DirectX@@3UXMVECTORF32@1@B DD 03ea2f983r ; 0.31831 ; DirectX::g_XMReciprocalPi
	DD	03ea2f983r			; 0.31831
	DD	03ea2f983r			; 0.31831
	DD	03ea2f983r			; 0.31831
CONST	ENDS
;	COMDAT ?g_XMPi@DirectX@@3UXMVECTORF32@1@B
CONST	SEGMENT
?g_XMPi@DirectX@@3UXMVECTORF32@1@B DD 040490fdbr ; 3.14159 ; DirectX::g_XMPi
	DD	040490fdbr			; 3.14159
	DD	040490fdbr			; 3.14159
	DD	040490fdbr			; 3.14159
CONST	ENDS
;	COMDAT ?g_XMHalfPi@DirectX@@3UXMVECTORF32@1@B
CONST	SEGMENT
?g_XMHalfPi@DirectX@@3UXMVECTORF32@1@B DD 03fc90fdbr ; 1.5708 ; DirectX::g_XMHalfPi
	DD	03fc90fdbr			; 1.5708
	DD	03fc90fdbr			; 1.5708
	DD	03fc90fdbr			; 1.5708
CONST	ENDS
;	COMDAT ?g_XMNegativePi@DirectX@@3UXMVECTORF32@1@B
CONST	SEGMENT
?g_XMNegativePi@DirectX@@3UXMVECTORF32@1@B DD 0c0490fdbr ; -3.14159 ; DirectX::g_XMNegativePi
	DD	0c0490fdbr			; -3.14159
	DD	0c0490fdbr			; -3.14159
	DD	0c0490fdbr			; -3.14159
CONST	ENDS
;	COMDAT ?g_XMNegativeTwoPi@DirectX@@3UXMVECTORF32@1@B
CONST	SEGMENT
?g_XMNegativeTwoPi@DirectX@@3UXMVECTORF32@1@B DD 0c0c90fdbr ; -6.28319 ; DirectX::g_XMNegativeTwoPi
	DD	0c0c90fdbr			; -6.28319
	DD	0c0c90fdbr			; -6.28319
	DD	0c0c90fdbr			; -6.28319
CONST	ENDS
;	COMDAT ?g_XMNegativeOneHalf@DirectX@@3UXMVECTORF32@1@B
CONST	SEGMENT
?g_XMNegativeOneHalf@DirectX@@3UXMVECTORF32@1@B DD 0bf000000r ; -0.5 ; DirectX::g_XMNegativeOneHalf
	DD	0bf000000r			; -0.5
	DD	0bf000000r			; -0.5
	DD	0bf000000r			; -0.5
CONST	ENDS
;	COMDAT ?g_XMOneHalf@DirectX@@3UXMVECTORF32@1@B
CONST	SEGMENT
?g_XMOneHalf@DirectX@@3UXMVECTORF32@1@B DD 03f000000r ; 0.5 ; DirectX::g_XMOneHalf
	DD	03f000000r			; 0.5
	DD	03f000000r			; 0.5
	DD	03f000000r			; 0.5
CONST	ENDS
;	COMDAT ?g_XMNegativeOne@DirectX@@3UXMVECTORF32@1@B
CONST	SEGMENT
?g_XMNegativeOne@DirectX@@3UXMVECTORF32@1@B DD 0bf800000r ; -1 ; DirectX::g_XMNegativeOne
	DD	0bf800000r			; -1
	DD	0bf800000r			; -1
	DD	0bf800000r			; -1
CONST	ENDS
;	COMDAT ?g_XMSix@DirectX@@3UXMVECTORF32@1@B
CONST	SEGMENT
?g_XMSix@DirectX@@3UXMVECTORF32@1@B DD 040c00000r ; 6	; DirectX::g_XMSix
	DD	040c00000r			; 6
	DD	040c00000r			; 6
	DD	040c00000r			; 6
CONST	ENDS
;	COMDAT ?g_XMFour@DirectX@@3UXMVECTORF32@1@B
CONST	SEGMENT
?g_XMFour@DirectX@@3UXMVECTORF32@1@B DD 040800000r ; 4	; DirectX::g_XMFour
	DD	040800000r			; 4
	DD	040800000r			; 4
	DD	040800000r			; 4
CONST	ENDS
;	COMDAT ?g_XMTwo@DirectX@@3UXMVECTORF32@1@B
CONST	SEGMENT
?g_XMTwo@DirectX@@3UXMVECTORF32@1@B DD 040000000r ; 2	; DirectX::g_XMTwo
	DD	040000000r			; 2
	DD	040000000r			; 2
	DD	040000000r			; 2
CONST	ENDS
;	COMDAT ?g_XMZero@DirectX@@3UXMVECTORF32@1@B
CONST	SEGMENT
?g_XMZero@DirectX@@3UXMVECTORF32@1@B DD 000000000r ; 0	; DirectX::g_XMZero
	DD	000000000r			; 0
	DD	000000000r			; 0
	DD	000000000r			; 0
CONST	ENDS
;	COMDAT ?g_XMOne3@DirectX@@3UXMVECTORF32@1@B
CONST	SEGMENT
?g_XMOne3@DirectX@@3UXMVECTORF32@1@B DD 03f800000r ; 1	; DirectX::g_XMOne3
	DD	03f800000r			; 1
	DD	03f800000r			; 1
	DD	000000000r			; 0
CONST	ENDS
;	COMDAT ?g_XMOne@DirectX@@3UXMVECTORF32@1@B
CONST	SEGMENT
?g_XMOne@DirectX@@3UXMVECTORF32@1@B DD 03f800000r ; 1	; DirectX::g_XMOne
	DD	03f800000r			; 1
	DD	03f800000r			; 1
	DD	03f800000r			; 1
CONST	ENDS
;	COMDAT ?g_XMMaskW@DirectX@@3UXMVECTORU32@1@B
CONST	SEGMENT
?g_XMMaskW@DirectX@@3UXMVECTORU32@1@B DD 00H		; DirectX::g_XMMaskW
	DD	00H
	DD	00H
	DD	0ffffffffH
CONST	ENDS
;	COMDAT ?g_XMMaskZ@DirectX@@3UXMVECTORU32@1@B
CONST	SEGMENT
?g_XMMaskZ@DirectX@@3UXMVECTORU32@1@B DD 00H		; DirectX::g_XMMaskZ
	DD	00H
	DD	0ffffffffH
	DD	00H
CONST	ENDS
;	COMDAT ?g_XMMaskY@DirectX@@3UXMVECTORU32@1@B
CONST	SEGMENT
?g_XMMaskY@DirectX@@3UXMVECTORU32@1@B DD 00H		; DirectX::g_XMMaskY
	DD	0ffffffffH
	DD	00H
	DD	00H
CONST	ENDS
;	COMDAT ?g_XMMaskX@DirectX@@3UXMVECTORU32@1@B
CONST	SEGMENT
?g_XMMaskX@DirectX@@3UXMVECTORU32@1@B DD 0ffffffffH	; DirectX::g_XMMaskX
	DD	00H
	DD	00H
	DD	00H
CONST	ENDS
;	COMDAT ?g_XMMask3@DirectX@@3UXMVECTORU32@1@B
CONST	SEGMENT
?g_XMMask3@DirectX@@3UXMVECTORU32@1@B DD 0ffffffffH	; DirectX::g_XMMask3
	DD	0ffffffffH
	DD	0ffffffffH
	DD	00H
CONST	ENDS
;	COMDAT ?g_XMNegate3@DirectX@@3UXMVECTORU32@1@B
CONST	SEGMENT
?g_XMNegate3@DirectX@@3UXMVECTORU32@1@B DD 080000000H	; DirectX::g_XMNegate3
	DD	080000000H
	DD	080000000H
	DD	00H
CONST	ENDS
;	COMDAT ?g_XMNegativeZero@DirectX@@3UXMVECTORU32@1@B
CONST	SEGMENT
?g_XMNegativeZero@DirectX@@3UXMVECTORU32@1@B DD 080000000H ; DirectX::g_XMNegativeZero
	DD	080000000H
	DD	080000000H
	DD	080000000H
CONST	ENDS
;	COMDAT ?g_XMNegIdentityR3@DirectX@@3UXMVECTORF32@1@B
CONST	SEGMENT
?g_XMNegIdentityR3@DirectX@@3UXMVECTORF32@1@B DD 000000000r ; 0 ; DirectX::g_XMNegIdentityR3
	DD	000000000r			; 0
	DD	000000000r			; 0
	DD	0bf800000r			; -1
CONST	ENDS
;	COMDAT ?g_XMNegIdentityR2@DirectX@@3UXMVECTORF32@1@B
CONST	SEGMENT
?g_XMNegIdentityR2@DirectX@@3UXMVECTORF32@1@B DD 000000000r ; 0 ; DirectX::g_XMNegIdentityR2
	DD	000000000r			; 0
	DD	0bf800000r			; -1
	DD	000000000r			; 0
CONST	ENDS
;	COMDAT ?g_XMNegIdentityR1@DirectX@@3UXMVECTORF32@1@B
CONST	SEGMENT
?g_XMNegIdentityR1@DirectX@@3UXMVECTORF32@1@B DD 000000000r ; 0 ; DirectX::g_XMNegIdentityR1
	DD	0bf800000r			; -1
	DD	000000000r			; 0
	DD	000000000r			; 0
CONST	ENDS
;	COMDAT ?g_XMNegIdentityR0@DirectX@@3UXMVECTORF32@1@B
CONST	SEGMENT
?g_XMNegIdentityR0@DirectX@@3UXMVECTORF32@1@B DD 0bf800000r ; -1 ; DirectX::g_XMNegIdentityR0
	DD	000000000r			; 0
	DD	000000000r			; 0
	DD	000000000r			; 0
CONST	ENDS
;	COMDAT ?g_XMIdentityR3@DirectX@@3UXMVECTORF32@1@B
CONST	SEGMENT
?g_XMIdentityR3@DirectX@@3UXMVECTORF32@1@B DD 000000000r ; 0 ; DirectX::g_XMIdentityR3
	DD	000000000r			; 0
	DD	000000000r			; 0
	DD	03f800000r			; 1
CONST	ENDS
;	COMDAT ?g_XMIdentityR2@DirectX@@3UXMVECTORF32@1@B
CONST	SEGMENT
?g_XMIdentityR2@DirectX@@3UXMVECTORF32@1@B DD 000000000r ; 0 ; DirectX::g_XMIdentityR2
	DD	000000000r			; 0
	DD	03f800000r			; 1
	DD	000000000r			; 0
CONST	ENDS
;	COMDAT ?g_XMIdentityR1@DirectX@@3UXMVECTORF32@1@B
CONST	SEGMENT
?g_XMIdentityR1@DirectX@@3UXMVECTORF32@1@B DD 000000000r ; 0 ; DirectX::g_XMIdentityR1
	DD	03f800000r			; 1
	DD	000000000r			; 0
	DD	000000000r			; 0
CONST	ENDS
;	COMDAT ?g_XMIdentityR0@DirectX@@3UXMVECTORF32@1@B
CONST	SEGMENT
?g_XMIdentityR0@DirectX@@3UXMVECTORF32@1@B DD 03f800000r ; 1 ; DirectX::g_XMIdentityR0
	DD	000000000r			; 0
	DD	000000000r			; 0
	DD	000000000r			; 0
CONST	ENDS
;	COMDAT ?g_XMPiConstants0@DirectX@@3UXMVECTORF32@1@B
CONST	SEGMENT
?g_XMPiConstants0@DirectX@@3UXMVECTORF32@1@B DD 040490fdbr ; 3.14159 ; DirectX::g_XMPiConstants0
	DD	040c90fdbr			; 6.28319
	DD	03ea2f983r			; 0.31831
	DD	03e22f983r			; 0.159155
CONST	ENDS
;	COMDAT ?g_XMArcEstCoefficients@DirectX@@3UXMVECTORF32@1@B
CONST	SEGMENT
?g_XMArcEstCoefficients@DirectX@@3UXMVECTORF32@1@B DD 03fc90da4r ; 1.57073 ; DirectX::g_XMArcEstCoefficients
	DD	0be593484r			; -0.212114
	DD	03d981627r			; 0.074261
	DD	0bc996e30r			; -0.0187293
CONST	ENDS
;	COMDAT ?g_XMTanEstCoefficients@DirectX@@3UXMVECTORF32@1@B
CONST	SEGMENT
?g_XMTanEstCoefficients@DirectX@@3UXMVECTORF32@1@B DD 0401ef9dbr ; 2.484 ; DirectX::g_XMTanEstCoefficients
	DD	0be482f23r			; -0.195492
	DD	0401de9e6r			; 2.4674
	DD	03ea2f983r			; 0.31831
CONST	ENDS
;	COMDAT ?g_XMATanEstCoefficients1@DirectX@@3UXMVECTORF32@1@B
CONST	SEGMENT
?g_XMATanEstCoefficients1@DirectX@@3UXMVECTORF32@1@B DD 0bea91d04r ; -0.330299 ; DirectX::g_XMATanEstCoefficients1
	DD	03e3876e2r			; 0.180141
	DD	0bdae5a36r			; -0.085133
	DD	03caaae5fr			; 0.0208351
CONST	ENDS
;	COMDAT ?g_XMATanEstCoefficients0@DirectX@@3UXMVECTORF32@1@B
CONST	SEGMENT
?g_XMATanEstCoefficients0@DirectX@@3UXMVECTORF32@1@B DD 03f7ff738r ; 0.999866 ; DirectX::g_XMATanEstCoefficients0
	DD	03f7ff738r			; 0.999866
	DD	03f7ff738r			; 0.999866
	DD	03f7ff738r			; 0.999866
CONST	ENDS
;	COMDAT ?g_XMATanCoefficients1@DirectX@@3UXMVECTORF32@1@B
CONST	SEGMENT
?g_XMATanCoefficients1@DirectX@@3UXMVECTORF32@1@B DD 0bd9a3174r ; -0.0752896 ; DirectX::g_XMATanCoefficients1
	DD	03d2fc1fer			; 0.0429096
	DD	0bc846e02r			; -0.0161657
	DD	03b3bd74ar			; 0.00286623
CONST	ENDS
;	COMDAT ?g_XMATanCoefficients0@DirectX@@3UXMVECTORF32@1@B
CONST	SEGMENT
?g_XMATanCoefficients0@DirectX@@3UXMVECTORF32@1@B DD 0beaaaa6cr ; -0.333331 ; DirectX::g_XMATanCoefficients0
	DD	03e4cbbe5r			; 0.199936
	DD	0be117fc7r			; -0.142089
	DD	03dda3d83r			; 0.106563
CONST	ENDS
;	COMDAT ?g_XMArcCoefficients1@DirectX@@3UXMVECTORF32@1@B
CONST	SEGMENT
?g_XMArcCoefficients1@DirectX@@3UXMVECTORF32@1@B DD 03cfd10f8r ; 0.0308919 ; DirectX::g_XMArcCoefficients1
	DD	0bc8bfc66r			; -0.0170881
	DD	03bda90c5r			; 0.00667009
	DD	0baa57a2cr			; -0.00126249
CONST	ENDS
;	COMDAT ?g_XMArcCoefficients0@DirectX@@3UXMVECTORF32@1@B
CONST	SEGMENT
?g_XMArcCoefficients0@DirectX@@3UXMVECTORF32@1@B DD 03fc90fdar ; 1.5708 ; DirectX::g_XMArcCoefficients0
	DD	0be5bbfcar			; -0.214599
	DD	03db63a9er			; 0.088979
	DD	0bd4d8392r			; -0.0501743
CONST	ENDS
;	COMDAT ?g_XMTanCoefficients2@DirectX@@3UXMVECTORF32@1@B
CONST	SEGMENT
?g_XMTanCoefficients2@DirectX@@3UXMVECTORF32@1@B DD 03a1aac12r ; 0.000590027 ; DirectX::g_XMTanCoefficients2
	DD	0397abeb9r			; 0.000239129
	DD	038cb3f0cr			; 9.69154e-05
	DD	03824bec9r			; 3.92783e-05
CONST	ENDS
;	COMDAT ?g_XMTanCoefficients1@DirectX@@3UXMVECTORF32@1@B
CONST	SEGMENT
?g_XMTanCoefficients1@DirectX@@3UXMVECTORF32@1@B DD 03cb327a4r ; 0.0218695 ; DirectX::g_XMTanCoefficients1
	DD	03c11371br			; 0.00886324
	DD	03b6b69e9r			; 0.00359213
	DD	03abed1b3r			; 0.00145583
CONST	ENDS
;	COMDAT ?g_XMTanCoefficients0@DirectX@@3UXMVECTORF32@1@B
CONST	SEGMENT
?g_XMTanCoefficients0@DirectX@@3UXMVECTORF32@1@B DD 03f800000r ; 1 ; DirectX::g_XMTanCoefficients0
	DD	03eaaaaabr			; 0.333333
	DD	03e088889r			; 0.133333
	DD	03d5d0dd1r			; 0.0539683
CONST	ENDS
;	COMDAT ?g_XMCosCoefficients1@DirectX@@3UXMVECTORF32@1@B
CONST	SEGMENT
?g_XMCosCoefficients1@DirectX@@3UXMVECTORF32@1@B DD 0b48bdd11r ; -2.60516e-07 ; DirectX::g_XMCosCoefficients1
	DD	0befff67er			; -0.499927
	DD	03d29f587r			; 0.0414939
	DD	0baa69fdbr			; -0.00127124
CONST	ENDS
;	COMDAT ?g_XMCosCoefficients0@DirectX@@3UXMVECTORF32@1@B
CONST	SEGMENT
?g_XMCosCoefficients0@DirectX@@3UXMVECTORF32@1@B DD 0bf000000r ; -0.5 ; DirectX::g_XMCosCoefficients0
	DD	03d2aaaa3r			; 0.0416666
	DD	0bab609aar			; -0.00138884
	DD	037cfb4c2r			; 2.47605e-05
CONST	ENDS
;	COMDAT ?g_XMSinCoefficients1@DirectX@@3UXMVECTORF32@1@B
CONST	SEGMENT
?g_XMSinCoefficients1@DirectX@@3UXMVECTORF32@1@B DD 0b2cd365br ; -2.38899e-08 ; DirectX::g_XMSinCoefficients1
	DD	0be2aa888r			; -0.166659
	DD	03c08373cr			; 0.00831395
	DD	0b9423ec8r			; -0.000185247
CONST	ENDS
;	COMDAT ?g_XMSinCoefficients0@DirectX@@3UXMVECTORF32@1@B
CONST	SEGMENT
?g_XMSinCoefficients0@DirectX@@3UXMVECTORF32@1@B DD 0be2aaaabr ; -0.166667 ; DirectX::g_XMSinCoefficients0
	DD	03c088886r			; 0.00833333
	DD	0b9500bf1r			; -0.000198409
	DD	03638b88er			; 2.75256e-06
CONST	ENDS
;	COMDAT ?g_UnitPlaneEpsilon@Internal@DirectX@@3UXMVECTORF32@2@B
CONST	SEGMENT
?g_UnitPlaneEpsilon@Internal@DirectX@@3UXMVECTORF32@2@B DD 038d1b717r ; 0.0001 ; DirectX::Internal::g_UnitPlaneEpsilon
	DD	038d1b717r			; 0.0001
	DD	038d1b717r			; 0.0001
	DD	038d1b717r			; 0.0001
CONST	ENDS
;	COMDAT ?g_UnitQuaternionEpsilon@Internal@DirectX@@3UXMVECTORF32@2@B
CONST	SEGMENT
?g_UnitQuaternionEpsilon@Internal@DirectX@@3UXMVECTORF32@2@B DD 038d1b717r ; 0.0001 ; DirectX::Internal::g_UnitQuaternionEpsilon
	DD	038d1b717r			; 0.0001
	DD	038d1b717r			; 0.0001
	DD	038d1b717r			; 0.0001
CONST	ENDS
;	COMDAT ?g_UnitVectorEpsilon@Internal@DirectX@@3UXMVECTORF32@2@B
CONST	SEGMENT
?g_UnitVectorEpsilon@Internal@DirectX@@3UXMVECTORF32@2@B DD 038d1b717r ; 0.0001 ; DirectX::Internal::g_UnitVectorEpsilon
	DD	038d1b717r			; 0.0001
	DD	038d1b717r			; 0.0001
	DD	038d1b717r			; 0.0001
CONST	ENDS
;	COMDAT ?YellowGreen@Colors@DirectX@@3UXMVECTORF32@2@B
CONST	SEGMENT
?YellowGreen@Colors@DirectX@@3UXMVECTORF32@2@B DD 03f1a9a9br ; 0.603922 ; DirectX::Colors::YellowGreen
	DD	03f4dcdcfr			; 0.803922
	DD	03e48c8car			; 0.196078
	DD	03f800000r			; 1
CONST	ENDS
;	COMDAT ?Yellow@Colors@DirectX@@3UXMVECTORF32@2@B
CONST	SEGMENT
?Yellow@Colors@DirectX@@3UXMVECTORF32@2@B DD 03f800000r ; 1 ; DirectX::Colors::Yellow
	DD	03f800000r			; 1
	DD	000000000r			; 0
	DD	03f800000r			; 1
CONST	ENDS
;	COMDAT ?WhiteSmoke@Colors@DirectX@@3UXMVECTORF32@2@B
CONST	SEGMENT
?WhiteSmoke@Colors@DirectX@@3UXMVECTORF32@2@B DD 03f75f5f7r ; 0.960784 ; DirectX::Colors::WhiteSmoke
	DD	03f75f5f7r			; 0.960784
	DD	03f75f5f7r			; 0.960784
	DD	03f800000r			; 1
CONST	ENDS
;	COMDAT ?White@Colors@DirectX@@3UXMVECTORF32@2@B
CONST	SEGMENT
?White@Colors@DirectX@@3UXMVECTORF32@2@B DD 03f800000r ; 1 ; DirectX::Colors::White
	DD	03f800000r			; 1
	DD	03f800000r			; 1
	DD	03f800000r			; 1
CONST	ENDS
;	COMDAT ?Wheat@Colors@DirectX@@3UXMVECTORF32@2@B
CONST	SEGMENT
?Wheat@Colors@DirectX@@3UXMVECTORF32@2@B DD 03f75f5f7r ; 0.960784 ; DirectX::Colors::Wheat
	DD	03f5edee0r			; 0.870588
	DD	03f33b3b4r			; 0.701961
	DD	03f800000r			; 1
CONST	ENDS
;	COMDAT ?Violet@Colors@DirectX@@3UXMVECTORF32@2@B
CONST	SEGMENT
?Violet@Colors@DirectX@@3UXMVECTORF32@2@B DD 03f6eeef0r ; 0.933333 ; DirectX::Colors::Violet
	DD	03f028283r			; 0.509804
	DD	03f6eeef0r			; 0.933333
	DD	03f800000r			; 1
CONST	ENDS
;	COMDAT ?Turquoise@Colors@DirectX@@3UXMVECTORF32@2@B
CONST	SEGMENT
?Turquoise@Colors@DirectX@@3UXMVECTORF32@2@B DD 03e808081r ; 0.25098 ; DirectX::Colors::Turquoise
	DD	03f60e0e2r			; 0.878431
	DD	03f50d0d2r			; 0.815686
	DD	03f800000r			; 1
CONST	ENDS
;	COMDAT ?Transparent@Colors@DirectX@@3UXMVECTORF32@2@B
CONST	SEGMENT
?Transparent@Colors@DirectX@@3UXMVECTORF32@2@B DD 000000000r ; 0 ; DirectX::Colors::Transparent
	DD	000000000r			; 0
	DD	000000000r			; 0
	DD	000000000r			; 0
CONST	ENDS
;	COMDAT ?Tomato@Colors@DirectX@@3UXMVECTORF32@2@B
CONST	SEGMENT
?Tomato@Colors@DirectX@@3UXMVECTORF32@2@B DD 03f800000r ; 1 ; DirectX::Colors::Tomato
	DD	03ec6c6c8r			; 0.388235
	DD	03e8e8e8fr			; 0.278431
	DD	03f800000r			; 1
CONST	ENDS
;	COMDAT ?Thistle@Colors@DirectX@@3UXMVECTORF32@2@B
CONST	SEGMENT
?Thistle@Colors@DirectX@@3UXMVECTORF32@2@B DD 03f58d8dar ; 0.847059 ; DirectX::Colors::Thistle
	DD	03f3fbfc0r			; 0.74902
	DD	03f58d8dar			; 0.847059
	DD	03f800000r			; 1
CONST	ENDS
;	COMDAT ?Teal@Colors@DirectX@@3UXMVECTORF32@2@B
CONST	SEGMENT
?Teal@Colors@DirectX@@3UXMVECTORF32@2@B DD 000000000r ; 0 ; DirectX::Colors::Teal
	DD	03f008081r			; 0.501961
	DD	03f008081r			; 0.501961
	DD	03f800000r			; 1
CONST	ENDS
;	COMDAT ?Tan@Colors@DirectX@@3UXMVECTORF32@2@B
CONST	SEGMENT
?Tan@Colors@DirectX@@3UXMVECTORF32@2@B DD 03f52d2d4r ; 0.823529 ; DirectX::Colors::Tan
	DD	03f34b4b5r			; 0.705882
	DD	03f0c8c8dr			; 0.54902
	DD	03f800000r			; 1
CONST	ENDS
;	COMDAT ?SteelBlue@Colors@DirectX@@3UXMVECTORF32@2@B
CONST	SEGMENT
?SteelBlue@Colors@DirectX@@3UXMVECTORF32@2@B DD 03e8c8c8dr ; 0.27451 ; DirectX::Colors::SteelBlue
	DD	03f028283r			; 0.509804
	DD	03f34b4b5r			; 0.705882
	DD	03f800000r			; 1
CONST	ENDS
;	COMDAT ?SpringGreen@Colors@DirectX@@3UXMVECTORF32@2@B
CONST	SEGMENT
?SpringGreen@Colors@DirectX@@3UXMVECTORF32@2@B DD 000000000r ; 0 ; DirectX::Colors::SpringGreen
	DD	03f800000r			; 1
	DD	03efeff00r			; 0.498039
	DD	03f800000r			; 1
CONST	ENDS
;	COMDAT ?Snow@Colors@DirectX@@3UXMVECTORF32@2@B
CONST	SEGMENT
?Snow@Colors@DirectX@@3UXMVECTORF32@2@B DD 03f800000r ; 1 ; DirectX::Colors::Snow
	DD	03f7afafcr			; 0.980392
	DD	03f7afafcr			; 0.980392
	DD	03f800000r			; 1
CONST	ENDS
;	COMDAT ?g_FltMax@DirectX@@3UXMVECTORF32@1@B
CONST	SEGMENT
?g_FltMax@DirectX@@3UXMVECTORF32@1@B DD 07f7fffffr ; 3.40282e+38 ; DirectX::g_FltMax
	DD	07f7fffffr			; 3.40282e+38
	DD	07f7fffffr			; 3.40282e+38
	DD	07f7fffffr			; 3.40282e+38
CONST	ENDS
;	COMDAT ?SlateGray@Colors@DirectX@@3UXMVECTORF32@2@B
CONST	SEGMENT
?SlateGray@Colors@DirectX@@3UXMVECTORF32@2@B DD 03ee0e0e2r ; 0.439216 ; DirectX::Colors::SlateGray
	DD	03f008081r			; 0.501961
	DD	03f109091r			; 0.564706
	DD	03f800000r			; 1
CONST	ENDS
;	COMDAT ?g_FltMin@DirectX@@3UXMVECTORF32@1@B
CONST	SEGMENT
?g_FltMin@DirectX@@3UXMVECTORF32@1@B DD 0ff7fffffr ; -3.40282e+38 ; DirectX::g_FltMin
	DD	0ff7fffffr			; -3.40282e+38
	DD	0ff7fffffr			; -3.40282e+38
	DD	0ff7fffffr			; -3.40282e+38
CONST	ENDS
;	COMDAT ?SlateBlue@Colors@DirectX@@3UXMVECTORF32@2@B
CONST	SEGMENT
?SlateBlue@Colors@DirectX@@3UXMVECTORF32@2@B DD 03ed4d4d6r ; 0.415686 ; DirectX::Colors::SlateBlue
	DD	03eb4b4b5r			; 0.352941
	DD	03f4dcdcfr			; 0.803922
	DD	03f800000r			; 1
CONST	ENDS
;	COMDAT ?g_RayNegEpsilon@DirectX@@3UXMVECTORF32@1@B
CONST	SEGMENT
?g_RayNegEpsilon@DirectX@@3UXMVECTORF32@1@B DD 09e3ce508r ; -1e-20 ; DirectX::g_RayNegEpsilon
	DD	09e3ce508r			; -1e-20
	DD	09e3ce508r			; -1e-20
	DD	09e3ce508r			; -1e-20
CONST	ENDS
;	COMDAT ?SkyBlue@Colors@DirectX@@3UXMVECTORF32@2@B
CONST	SEGMENT
?SkyBlue@Colors@DirectX@@3UXMVECTORF32@2@B DD 03f078788r ; 0.529412 ; DirectX::Colors::SkyBlue
	DD	03f4eced0r			; 0.807843
	DD	03f6bebedr			; 0.921569
	DD	03f800000r			; 1
CONST	ENDS
;	COMDAT ?g_RayEpsilon@DirectX@@3UXMVECTORF32@1@B
CONST	SEGMENT
?g_RayEpsilon@DirectX@@3UXMVECTORF32@1@B DD 01e3ce508r ; 1e-20 ; DirectX::g_RayEpsilon
	DD	01e3ce508r			; 1e-20
	DD	01e3ce508r			; 1e-20
	DD	01e3ce508r			; 1e-20
CONST	ENDS
;	COMDAT ?Silver@Colors@DirectX@@3UXMVECTORF32@2@B
CONST	SEGMENT
?Silver@Colors@DirectX@@3UXMVECTORF32@2@B DD 03f40c0c2r ; 0.752941 ; DirectX::Colors::Silver
	DD	03f40c0c2r			; 0.752941
	DD	03f40c0c2r			; 0.752941
	DD	03f800000r			; 1
CONST	ENDS
;	COMDAT ?g_BoxOffset@DirectX@@3QBUXMVECTORF32@1@B
CONST	SEGMENT
?g_BoxOffset@DirectX@@3QBUXMVECTORF32@1@B DD 0bf800000r ; -1 ; DirectX::g_BoxOffset
	DD	0bf800000r			; -1
	DD	03f800000r			; 1
	DD	000000000r			; 0
	DD	03f800000r			; 1
	DD	0bf800000r			; -1
	DD	03f800000r			; 1
	DD	000000000r			; 0
	DD	03f800000r			; 1
	DD	03f800000r			; 1
	DD	03f800000r			; 1
	DD	000000000r			; 0
	DD	0bf800000r			; -1
	DD	03f800000r			; 1
	DD	03f800000r			; 1
	DD	000000000r			; 0
	DD	0bf800000r			; -1
	DD	0bf800000r			; -1
	DD	0bf800000r			; -1
	DD	000000000r			; 0
	DD	03f800000r			; 1
	DD	0bf800000r			; -1
	DD	0bf800000r			; -1
	DD	000000000r			; 0
	DD	03f800000r			; 1
	DD	03f800000r			; 1
	DD	0bf800000r			; -1
	DD	000000000r			; 0
	DD	0bf800000r			; -1
	DD	03f800000r			; 1
	DD	0bf800000r			; -1
	DD	000000000r			; 0
CONST	ENDS
;	COMDAT ?Sienna@Colors@DirectX@@3UXMVECTORF32@2@B
CONST	SEGMENT
?Sienna@Colors@DirectX@@3UXMVECTORF32@2@B DD 03f20a0a1r ; 0.627451 ; DirectX::Colors::Sienna
	DD	03ea4a4a5r			; 0.321569
	DD	03e34b4b5r			; 0.176471
	DD	03f800000r			; 1
CONST	ENDS
;	COMDAT ?SeaShell@Colors@DirectX@@3UXMVECTORF32@2@B
CONST	SEGMENT
?SeaShell@Colors@DirectX@@3UXMVECTORF32@2@B DD 03f800000r ; 1 ; DirectX::Colors::SeaShell
	DD	03f75f5f7r			; 0.960784
	DD	03f6eeef0r			; 0.933333
	DD	03f800000r			; 1
CONST	ENDS
;	COMDAT ?SeaGreen@Colors@DirectX@@3UXMVECTORF32@2@B
CONST	SEGMENT
?SeaGreen@Colors@DirectX@@3UXMVECTORF32@2@B DD 03e38b8b9r ; 0.180392 ; DirectX::Colors::SeaGreen
	DD	03f0b8b8cr			; 0.545098
	DD	03eaeaeafr			; 0.341176
	DD	03f800000r			; 1
CONST	ENDS
;	COMDAT ?SandyBrown@Colors@DirectX@@3UXMVECTORF32@2@B
CONST	SEGMENT
?SandyBrown@Colors@DirectX@@3UXMVECTORF32@2@B DD 03f74f4f6r ; 0.956863 ; DirectX::Colors::SandyBrown
	DD	03f24a4a5r			; 0.643137
	DD	03ec0c0c2r			; 0.376471
	DD	03f800000r			; 1
CONST	ENDS
;	COMDAT ?Salmon@Colors@DirectX@@3UXMVECTORF32@2@B
CONST	SEGMENT
?Salmon@Colors@DirectX@@3UXMVECTORF32@2@B DD 03f7afafcr ; 0.980392 ; DirectX::Colors::Salmon
	DD	03f008081r			; 0.501961
	DD	03ee4e4e6r			; 0.447059
	DD	03f800000r			; 1
CONST	ENDS
;	COMDAT ?SaddleBrown@Colors@DirectX@@3UXMVECTORF32@2@B
CONST	SEGMENT
?SaddleBrown@Colors@DirectX@@3UXMVECTORF32@2@B DD 03f0b8b8cr ; 0.545098 ; DirectX::Colors::SaddleBrown
	DD	03e8a8a8br			; 0.270588
	DD	03d989899r			; 0.0745098
	DD	03f800000r			; 1
CONST	ENDS
;	COMDAT ?RoyalBlue@Colors@DirectX@@3UXMVECTORF32@2@B
CONST	SEGMENT
?RoyalBlue@Colors@DirectX@@3UXMVECTORF32@2@B DD 03e828283r ; 0.254902 ; DirectX::Colors::RoyalBlue
	DD	03ed2d2d4r			; 0.411765
	DD	03f61e1e3r			; 0.882353
	DD	03f800000r			; 1
CONST	ENDS
;	COMDAT ?RosyBrown@Colors@DirectX@@3UXMVECTORF32@2@B
CONST	SEGMENT
?RosyBrown@Colors@DirectX@@3UXMVECTORF32@2@B DD 03f3cbcbdr ; 0.737255 ; DirectX::Colors::RosyBrown
	DD	03f0f8f90r			; 0.560784
	DD	03f0f8f90r			; 0.560784
	DD	03f800000r			; 1
CONST	ENDS
;	COMDAT ?Red@Colors@DirectX@@3UXMVECTORF32@2@B
CONST	SEGMENT
?Red@Colors@DirectX@@3UXMVECTORF32@2@B DD 03f800000r ; 1 ; DirectX::Colors::Red
	DD	000000000r			; 0
	DD	000000000r			; 0
	DD	03f800000r			; 1
CONST	ENDS
;	COMDAT ?Purple@Colors@DirectX@@3UXMVECTORF32@2@B
CONST	SEGMENT
?Purple@Colors@DirectX@@3UXMVECTORF32@2@B DD 03f008081r ; 0.501961 ; DirectX::Colors::Purple
	DD	000000000r			; 0
	DD	03f008081r			; 0.501961
	DD	03f800000r			; 1
CONST	ENDS
;	COMDAT ?PowderBlue@Colors@DirectX@@3UXMVECTORF32@2@B
CONST	SEGMENT
?PowderBlue@Colors@DirectX@@3UXMVECTORF32@2@B DD 03f30b0b1r ; 0.690196 ; DirectX::Colors::PowderBlue
	DD	03f60e0e2r			; 0.878431
	DD	03f66e6e8r			; 0.901961
	DD	03f800000r			; 1
CONST	ENDS
;	COMDAT ?Plum@Colors@DirectX@@3UXMVECTORF32@2@B
CONST	SEGMENT
?Plum@Colors@DirectX@@3UXMVECTORF32@2@B DD 03f5ddddfr ; 0.866667 ; DirectX::Colors::Plum
	DD	03f20a0a1r			; 0.627451
	DD	03f5ddddfr			; 0.866667
	DD	03f800000r			; 1
CONST	ENDS
;	COMDAT ?Pink@Colors@DirectX@@3UXMVECTORF32@2@B
CONST	SEGMENT
?Pink@Colors@DirectX@@3UXMVECTORF32@2@B DD 03f800000r ; 1 ; DirectX::Colors::Pink
	DD	03f40c0c2r			; 0.752941
	DD	03f4bcbcdr			; 0.796079
	DD	03f800000r			; 1
CONST	ENDS
;	COMDAT ?Peru@Colors@DirectX@@3UXMVECTORF32@2@B
CONST	SEGMENT
?Peru@Colors@DirectX@@3UXMVECTORF32@2@B DD 03f4dcdcfr ; 0.803922 ; DirectX::Colors::Peru
	DD	03f058586r			; 0.521569
	DD	03e7cfcfer			; 0.247059
	DD	03f800000r			; 1
CONST	ENDS
;	COMDAT ?PeachPuff@Colors@DirectX@@3UXMVECTORF32@2@B
CONST	SEGMENT
?PeachPuff@Colors@DirectX@@3UXMVECTORF32@2@B DD 03f800000r ; 1 ; DirectX::Colors::PeachPuff
	DD	03f5adadcr			; 0.854902
	DD	03f39b9bar			; 0.72549
	DD	03f800000r			; 1
CONST	ENDS
;	COMDAT ?PapayaWhip@Colors@DirectX@@3UXMVECTORF32@2@B
CONST	SEGMENT
?PapayaWhip@Colors@DirectX@@3UXMVECTORF32@2@B DD 03f800000r ; 1 ; DirectX::Colors::PapayaWhip
	DD	03f6feff1r			; 0.937255
	DD	03f55d5d7r			; 0.835294
	DD	03f800000r			; 1
CONST	ENDS
;	COMDAT ?PaleVioletRed@Colors@DirectX@@3UXMVECTORF32@2@B
CONST	SEGMENT
?PaleVioletRed@Colors@DirectX@@3UXMVECTORF32@2@B DD 03f5bdbddr ; 0.858824 ; DirectX::Colors::PaleVioletRed
	DD	03ee0e0e2r			; 0.439216
	DD	03f139394r			; 0.576471
	DD	03f800000r			; 1
CONST	ENDS
;	COMDAT ?PaleTurquoise@Colors@DirectX@@3UXMVECTORF32@2@B
CONST	SEGMENT
?PaleTurquoise@Colors@DirectX@@3UXMVECTORF32@2@B DD 03f2fafb0r ; 0.686275 ; DirectX::Colors::PaleTurquoise
	DD	03f6eeef0r			; 0.933333
	DD	03f6eeef0r			; 0.933333
	DD	03f800000r			; 1
CONST	ENDS
;	COMDAT ?PaleGreen@Colors@DirectX@@3UXMVECTORF32@2@B
CONST	SEGMENT
?PaleGreen@Colors@DirectX@@3UXMVECTORF32@2@B DD 03f189899r ; 0.596078 ; DirectX::Colors::PaleGreen
	DD	03f7bfbfdr			; 0.984314
	DD	03f189899r			; 0.596078
	DD	03f800000r			; 1
CONST	ENDS
;	COMDAT ?PaleGoldenrod@Colors@DirectX@@3UXMVECTORF32@2@B
CONST	SEGMENT
?PaleGoldenrod@Colors@DirectX@@3UXMVECTORF32@2@B DD 03f6eeef0r ; 0.933333 ; DirectX::Colors::PaleGoldenrod
	DD	03f68e8ear			; 0.909804
	DD	03f2aaaabr			; 0.666667
	DD	03f800000r			; 1
CONST	ENDS
;	COMDAT ?Orchid@Colors@DirectX@@3UXMVECTORF32@2@B
CONST	SEGMENT
?Orchid@Colors@DirectX@@3UXMVECTORF32@2@B DD 03f5adadcr ; 0.854902 ; DirectX::Colors::Orchid
	DD	03ee0e0e2r			; 0.439216
	DD	03f56d6d8r			; 0.839216
	DD	03f800000r			; 1
CONST	ENDS
;	COMDAT ?OrangeRed@Colors@DirectX@@3UXMVECTORF32@2@B
CONST	SEGMENT
?OrangeRed@Colors@DirectX@@3UXMVECTORF32@2@B DD 03f800000r ; 1 ; DirectX::Colors::OrangeRed
	DD	03e8a8a8br			; 0.270588
	DD	000000000r			; 0
	DD	03f800000r			; 1
CONST	ENDS
;	COMDAT ?Orange@Colors@DirectX@@3UXMVECTORF32@2@B
CONST	SEGMENT
?Orange@Colors@DirectX@@3UXMVECTORF32@2@B DD 03f800000r ; 1 ; DirectX::Colors::Orange
	DD	03f25a5a6r			; 0.647059
	DD	000000000r			; 0
	DD	03f800000r			; 1
CONST	ENDS
;	COMDAT ?OliveDrab@Colors@DirectX@@3UXMVECTORF32@2@B
CONST	SEGMENT
?OliveDrab@Colors@DirectX@@3UXMVECTORF32@2@B DD 03ed6d6d8r ; 0.419608 ; DirectX::Colors::OliveDrab
	DD	03f0e8e8fr			; 0.556863
	DD	03e0c8c8dr			; 0.137255
	DD	03f800000r			; 1
CONST	ENDS
;	COMDAT ?Olive@Colors@DirectX@@3UXMVECTORF32@2@B
CONST	SEGMENT
?Olive@Colors@DirectX@@3UXMVECTORF32@2@B DD 03f008081r ; 0.501961 ; DirectX::Colors::Olive
	DD	03f008081r			; 0.501961
	DD	000000000r			; 0
	DD	03f800000r			; 1
CONST	ENDS
;	COMDAT ?OldLace@Colors@DirectX@@3UXMVECTORF32@2@B
CONST	SEGMENT
?OldLace@Colors@DirectX@@3UXMVECTORF32@2@B DD 03f7dfdffr ; 0.992157 ; DirectX::Colors::OldLace
	DD	03f75f5f7r			; 0.960784
	DD	03f66e6e8r			; 0.901961
	DD	03f800000r			; 1
CONST	ENDS
;	COMDAT ?Navy@Colors@DirectX@@3UXMVECTORF32@2@B
CONST	SEGMENT
?Navy@Colors@DirectX@@3UXMVECTORF32@2@B DD 000000000r ; 0 ; DirectX::Colors::Navy
	DD	000000000r			; 0
	DD	03f008081r			; 0.501961
	DD	03f800000r			; 1
CONST	ENDS
;	COMDAT ?NavajoWhite@Colors@DirectX@@3UXMVECTORF32@2@B
CONST	SEGMENT
?NavajoWhite@Colors@DirectX@@3UXMVECTORF32@2@B DD 03f800000r ; 1 ; DirectX::Colors::NavajoWhite
	DD	03f5edee0r			; 0.870588
	DD	03f2dadaer			; 0.678431
	DD	03f800000r			; 1
CONST	ENDS
;	COMDAT ?Moccasin@Colors@DirectX@@3UXMVECTORF32@2@B
CONST	SEGMENT
?Moccasin@Colors@DirectX@@3UXMVECTORF32@2@B DD 03f800000r ; 1 ; DirectX::Colors::Moccasin
	DD	03f64e4e6r			; 0.894118
	DD	03f35b5b6r			; 0.709804
	DD	03f800000r			; 1
CONST	ENDS
;	COMDAT ?MistyRose@Colors@DirectX@@3UXMVECTORF32@2@B
CONST	SEGMENT
?MistyRose@Colors@DirectX@@3UXMVECTORF32@2@B DD 03f800000r ; 1 ; DirectX::Colors::MistyRose
	DD	03f64e4e6r			; 0.894118
	DD	03f61e1e3r			; 0.882353
	DD	03f800000r			; 1
CONST	ENDS
;	COMDAT ?MintCream@Colors@DirectX@@3UXMVECTORF32@2@B
CONST	SEGMENT
?MintCream@Colors@DirectX@@3UXMVECTORF32@2@B DD 03f75f5f7r ; 0.960784 ; DirectX::Colors::MintCream
	DD	03f800000r			; 1
	DD	03f7afafcr			; 0.980392
	DD	03f800000r			; 1
CONST	ENDS
;	COMDAT ?MidnightBlue@Colors@DirectX@@3UXMVECTORF32@2@B
CONST	SEGMENT
?MidnightBlue@Colors@DirectX@@3UXMVECTORF32@2@B DD 03dc8c8car ; 0.0980392 ; DirectX::Colors::MidnightBlue
	DD	03dc8c8car			; 0.0980392
	DD	03ee0e0e2r			; 0.439216
	DD	03f800000r			; 1
CONST	ENDS
;	COMDAT ?MediumVioletRed@Colors@DirectX@@3UXMVECTORF32@2@B
CONST	SEGMENT
?MediumVioletRed@Colors@DirectX@@3UXMVECTORF32@2@B DD 03f47c7c9r ; 0.780392 ; DirectX::Colors::MediumVioletRed
	DD	03da8a8a9r			; 0.0823529
	DD	03f058586r			; 0.521569
	DD	03f800000r			; 1
CONST	ENDS
;	COMDAT ?MediumTurquoise@Colors@DirectX@@3UXMVECTORF32@2@B
CONST	SEGMENT
?MediumTurquoise@Colors@DirectX@@3UXMVECTORF32@2@B DD 03e909091r ; 0.282353 ; DirectX::Colors::MediumTurquoise
	DD	03f51d1d3r			; 0.819608
	DD	03f4ccccer			; 0.8
	DD	03f800000r			; 1
CONST	ENDS
;	COMDAT ?MediumSpringGreen@Colors@DirectX@@3UXMVECTORF32@2@B
CONST	SEGMENT
?MediumSpringGreen@Colors@DirectX@@3UXMVECTORF32@2@B DD 000000000r ; 0 ; DirectX::Colors::MediumSpringGreen
	DD	03f7afafcr			; 0.980392
	DD	03f1a9a9br			; 0.603922
	DD	03f800000r			; 1
CONST	ENDS
;	COMDAT ?MediumSlateBlue@Colors@DirectX@@3UXMVECTORF32@2@B
CONST	SEGMENT
?MediumSlateBlue@Colors@DirectX@@3UXMVECTORF32@2@B DD 03ef6f6f8r ; 0.482353 ; DirectX::Colors::MediumSlateBlue
	DD	03ed0d0d2r			; 0.407843
	DD	03f6eeef0r			; 0.933333
	DD	03f800000r			; 1
CONST	ENDS
;	COMDAT ?MediumSeaGreen@Colors@DirectX@@3UXMVECTORF32@2@B
CONST	SEGMENT
?MediumSeaGreen@Colors@DirectX@@3UXMVECTORF32@2@B DD 03e70f0f2r ; 0.235294 ; DirectX::Colors::MediumSeaGreen
	DD	03f33b3b4r			; 0.701961
	DD	03ee2e2e4r			; 0.443137
	DD	03f800000r			; 1
CONST	ENDS
;	COMDAT ?MediumPurple@Colors@DirectX@@3UXMVECTORF32@2@B
CONST	SEGMENT
?MediumPurple@Colors@DirectX@@3UXMVECTORF32@2@B DD 03f139394r ; 0.576471 ; DirectX::Colors::MediumPurple
	DD	03ee0e0e2r			; 0.439216
	DD	03f5bdbddr			; 0.858824
	DD	03f800000r			; 1
CONST	ENDS
;	COMDAT ?MediumOrchid@Colors@DirectX@@3UXMVECTORF32@2@B
CONST	SEGMENT
?MediumOrchid@Colors@DirectX@@3UXMVECTORF32@2@B DD 03f3ababbr ; 0.729412 ; DirectX::Colors::MediumOrchid
	DD	03eaaaaabr			; 0.333333
	DD	03f53d3d5r			; 0.827451
	DD	03f800000r			; 1
CONST	ENDS
;	COMDAT ?MediumBlue@Colors@DirectX@@3UXMVECTORF32@2@B
CONST	SEGMENT
?MediumBlue@Colors@DirectX@@3UXMVECTORF32@2@B DD 000000000r ; 0 ; DirectX::Colors::MediumBlue
	DD	000000000r			; 0
	DD	03f4dcdcfr			; 0.803922
	DD	03f800000r			; 1
CONST	ENDS
;	COMDAT ?MediumAquamarine@Colors@DirectX@@3UXMVECTORF32@2@B
CONST	SEGMENT
?MediumAquamarine@Colors@DirectX@@3UXMVECTORF32@2@B DD 03ecccccer ; 0.4 ; DirectX::Colors::MediumAquamarine
	DD	03f4dcdcfr			; 0.803922
	DD	03f2aaaabr			; 0.666667
	DD	03f800000r			; 1
CONST	ENDS
;	COMDAT ?Maroon@Colors@DirectX@@3UXMVECTORF32@2@B
CONST	SEGMENT
?Maroon@Colors@DirectX@@3UXMVECTORF32@2@B DD 03f008081r ; 0.501961 ; DirectX::Colors::Maroon
	DD	000000000r			; 0
	DD	000000000r			; 0
	DD	03f800000r			; 1
CONST	ENDS
;	COMDAT ?Magenta@Colors@DirectX@@3UXMVECTORF32@2@B
CONST	SEGMENT
?Magenta@Colors@DirectX@@3UXMVECTORF32@2@B DD 03f800000r ; 1 ; DirectX::Colors::Magenta
	DD	000000000r			; 0
	DD	03f800000r			; 1
	DD	03f800000r			; 1
CONST	ENDS
;	COMDAT ?Linen@Colors@DirectX@@3UXMVECTORF32@2@B
CONST	SEGMENT
?Linen@Colors@DirectX@@3UXMVECTORF32@2@B DD 03f7afafcr ; 0.980392 ; DirectX::Colors::Linen
	DD	03f70f0f2r			; 0.941177
	DD	03f66e6e8r			; 0.901961
	DD	03f800000r			; 1
CONST	ENDS
;	COMDAT ?LimeGreen@Colors@DirectX@@3UXMVECTORF32@2@B
CONST	SEGMENT
?LimeGreen@Colors@DirectX@@3UXMVECTORF32@2@B DD 03e48c8car ; 0.196078 ; DirectX::Colors::LimeGreen
	DD	03f4dcdcfr			; 0.803922
	DD	03e48c8car			; 0.196078
	DD	03f800000r			; 1
CONST	ENDS
;	COMDAT ?Lime@Colors@DirectX@@3UXMVECTORF32@2@B
CONST	SEGMENT
?Lime@Colors@DirectX@@3UXMVECTORF32@2@B DD 000000000r ; 0 ; DirectX::Colors::Lime
	DD	03f800000r			; 1
	DD	000000000r			; 0
	DD	03f800000r			; 1
CONST	ENDS
;	COMDAT ?LightYellow@Colors@DirectX@@3UXMVECTORF32@2@B
CONST	SEGMENT
?LightYellow@Colors@DirectX@@3UXMVECTORF32@2@B DD 03f800000r ; 1 ; DirectX::Colors::LightYellow
	DD	03f800000r			; 1
	DD	03f60e0e2r			; 0.878431
	DD	03f800000r			; 1
CONST	ENDS
;	COMDAT ?LightSteelBlue@Colors@DirectX@@3UXMVECTORF32@2@B
CONST	SEGMENT
?LightSteelBlue@Colors@DirectX@@3UXMVECTORF32@2@B DD 03f30b0b1r ; 0.690196 ; DirectX::Colors::LightSteelBlue
	DD	03f44c4c6r			; 0.768628
	DD	03f5edee0r			; 0.870588
	DD	03f800000r			; 1
CONST	ENDS
;	COMDAT ?LightSlateGray@Colors@DirectX@@3UXMVECTORF32@2@B
CONST	SEGMENT
?LightSlateGray@Colors@DirectX@@3UXMVECTORF32@2@B DD 03eeeeef0r ; 0.466667 ; DirectX::Colors::LightSlateGray
	DD	03f088889r			; 0.533333
	DD	03f19999ar			; 0.6
	DD	03f800000r			; 1
CONST	ENDS
;	COMDAT ?LightSkyBlue@Colors@DirectX@@3UXMVECTORF32@2@B
CONST	SEGMENT
?LightSkyBlue@Colors@DirectX@@3UXMVECTORF32@2@B DD 03f078788r ; 0.529412 ; DirectX::Colors::LightSkyBlue
	DD	03f4eced0r			; 0.807843
	DD	03f7afafcr			; 0.980392
	DD	03f800000r			; 1
CONST	ENDS
;	COMDAT ?LightSeaGreen@Colors@DirectX@@3UXMVECTORF32@2@B
CONST	SEGMENT
?LightSeaGreen@Colors@DirectX@@3UXMVECTORF32@2@B DD 03e008081r ; 0.12549 ; DirectX::Colors::LightSeaGreen
	DD	03f32b2b3r			; 0.698039
	DD	03f2aaaabr			; 0.666667
	DD	03f800000r			; 1
CONST	ENDS
;	COMDAT ?LightSalmon@Colors@DirectX@@3UXMVECTORF32@2@B
CONST	SEGMENT
?LightSalmon@Colors@DirectX@@3UXMVECTORF32@2@B DD 03f800000r ; 1 ; DirectX::Colors::LightSalmon
	DD	03f20a0a1r			; 0.627451
	DD	03ef4f4f6r			; 0.478431
	DD	03f800000r			; 1
CONST	ENDS
;	COMDAT ?LightPink@Colors@DirectX@@3UXMVECTORF32@2@B
CONST	SEGMENT
?LightPink@Colors@DirectX@@3UXMVECTORF32@2@B DD 03f800000r ; 1 ; DirectX::Colors::LightPink
	DD	03f36b6b7r			; 0.713726
	DD	03f41c1c3r			; 0.756863
	DD	03f800000r			; 1
CONST	ENDS
;	COMDAT ?LightGray@Colors@DirectX@@3UXMVECTORF32@2@B
CONST	SEGMENT
?LightGray@Colors@DirectX@@3UXMVECTORF32@2@B DD 03f53d3d5r ; 0.827451 ; DirectX::Colors::LightGray
	DD	03f53d3d5r			; 0.827451
	DD	03f53d3d5r			; 0.827451
	DD	03f800000r			; 1
CONST	ENDS
;	COMDAT ?LightGreen@Colors@DirectX@@3UXMVECTORF32@2@B
CONST	SEGMENT
?LightGreen@Colors@DirectX@@3UXMVECTORF32@2@B DD 03f109091r ; 0.564706 ; DirectX::Colors::LightGreen
	DD	03f6eeef0r			; 0.933333
	DD	03f109091r			; 0.564706
	DD	03f800000r			; 1
CONST	ENDS
;	COMDAT ?LightGoldenrodYellow@Colors@DirectX@@3UXMVECTORF32@2@B
CONST	SEGMENT
?LightGoldenrodYellow@Colors@DirectX@@3UXMVECTORF32@2@B DD 03f7afafcr ; 0.980392 ; DirectX::Colors::LightGoldenrodYellow
	DD	03f7afafcr			; 0.980392
	DD	03f52d2d4r			; 0.823529
	DD	03f800000r			; 1
CONST	ENDS
;	COMDAT ?LightCyan@Colors@DirectX@@3UXMVECTORF32@2@B
CONST	SEGMENT
?LightCyan@Colors@DirectX@@3UXMVECTORF32@2@B DD 03f60e0e2r ; 0.878431 ; DirectX::Colors::LightCyan
	DD	03f800000r			; 1
	DD	03f800000r			; 1
	DD	03f800000r			; 1
CONST	ENDS
;	COMDAT ?LightCoral@Colors@DirectX@@3UXMVECTORF32@2@B
CONST	SEGMENT
?LightCoral@Colors@DirectX@@3UXMVECTORF32@2@B DD 03f70f0f2r ; 0.941177 ; DirectX::Colors::LightCoral
	DD	03f008081r			; 0.501961
	DD	03f008081r			; 0.501961
	DD	03f800000r			; 1
CONST	ENDS
;	COMDAT ?LightBlue@Colors@DirectX@@3UXMVECTORF32@2@B
CONST	SEGMENT
?LightBlue@Colors@DirectX@@3UXMVECTORF32@2@B DD 03f2dadaer ; 0.678431 ; DirectX::Colors::LightBlue
	DD	03f58d8dar			; 0.847059
	DD	03f66e6e8r			; 0.901961
	DD	03f800000r			; 1
CONST	ENDS
;	COMDAT ?LemonChiffon@Colors@DirectX@@3UXMVECTORF32@2@B
CONST	SEGMENT
?LemonChiffon@Colors@DirectX@@3UXMVECTORF32@2@B DD 03f800000r ; 1 ; DirectX::Colors::LemonChiffon
	DD	03f7afafcr			; 0.980392
	DD	03f4dcdcfr			; 0.803922
	DD	03f800000r			; 1
CONST	ENDS
;	COMDAT ?LawnGreen@Colors@DirectX@@3UXMVECTORF32@2@B
CONST	SEGMENT
?LawnGreen@Colors@DirectX@@3UXMVECTORF32@2@B DD 03ef8f8far ; 0.486275 ; DirectX::Colors::LawnGreen
	DD	03f7cfcfer			; 0.988235
	DD	000000000r			; 0
	DD	03f800000r			; 1
CONST	ENDS
;	COMDAT ?LavenderBlush@Colors@DirectX@@3UXMVECTORF32@2@B
CONST	SEGMENT
?LavenderBlush@Colors@DirectX@@3UXMVECTORF32@2@B DD 03f800000r ; 1 ; DirectX::Colors::LavenderBlush
	DD	03f70f0f2r			; 0.941177
	DD	03f75f5f7r			; 0.960784
	DD	03f800000r			; 1
CONST	ENDS
;	COMDAT ?Lavender@Colors@DirectX@@3UXMVECTORF32@2@B
CONST	SEGMENT
?Lavender@Colors@DirectX@@3UXMVECTORF32@2@B DD 03f66e6e8r ; 0.901961 ; DirectX::Colors::Lavender
	DD	03f66e6e8r			; 0.901961
	DD	03f7afafcr			; 0.980392
	DD	03f800000r			; 1
CONST	ENDS
;	COMDAT ?Khaki@Colors@DirectX@@3UXMVECTORF32@2@B
CONST	SEGMENT
?Khaki@Colors@DirectX@@3UXMVECTORF32@2@B DD 03f70f0f2r ; 0.941177 ; DirectX::Colors::Khaki
	DD	03f66e6e8r			; 0.901961
	DD	03f0c8c8dr			; 0.54902
	DD	03f800000r			; 1
CONST	ENDS
;	COMDAT ?Ivory@Colors@DirectX@@3UXMVECTORF32@2@B
CONST	SEGMENT
?Ivory@Colors@DirectX@@3UXMVECTORF32@2@B DD 03f800000r ; 1 ; DirectX::Colors::Ivory
	DD	03f800000r			; 1
	DD	03f70f0f2r			; 0.941177
	DD	03f800000r			; 1
CONST	ENDS
;	COMDAT ?Indigo@Colors@DirectX@@3UXMVECTORF32@2@B
CONST	SEGMENT
?Indigo@Colors@DirectX@@3UXMVECTORF32@2@B DD 03e969697r ; 0.294118 ; DirectX::Colors::Indigo
	DD	000000000r			; 0
	DD	03f028283r			; 0.509804
	DD	03f800000r			; 1
CONST	ENDS
;	COMDAT ?IndianRed@Colors@DirectX@@3UXMVECTORF32@2@B
CONST	SEGMENT
?IndianRed@Colors@DirectX@@3UXMVECTORF32@2@B DD 03f4dcdcfr ; 0.803922 ; DirectX::Colors::IndianRed
	DD	03eb8b8b9r			; 0.360784
	DD	03eb8b8b9r			; 0.360784
	DD	03f800000r			; 1
CONST	ENDS
;	COMDAT ?HotPink@Colors@DirectX@@3UXMVECTORF32@2@B
CONST	SEGMENT
?HotPink@Colors@DirectX@@3UXMVECTORF32@2@B DD 03f800000r ; 1 ; DirectX::Colors::HotPink
	DD	03ed2d2d4r			; 0.411765
	DD	03f34b4b5r			; 0.705882
	DD	03f800000r			; 1
CONST	ENDS
;	COMDAT ?Honeydew@Colors@DirectX@@3UXMVECTORF32@2@B
CONST	SEGMENT
?Honeydew@Colors@DirectX@@3UXMVECTORF32@2@B DD 03f70f0f2r ; 0.941177 ; DirectX::Colors::Honeydew
	DD	03f800000r			; 1
	DD	03f70f0f2r			; 0.941177
	DD	03f800000r			; 1
CONST	ENDS
;	COMDAT ?GreenYellow@Colors@DirectX@@3UXMVECTORF32@2@B
CONST	SEGMENT
?GreenYellow@Colors@DirectX@@3UXMVECTORF32@2@B DD 03f2dadaer ; 0.678431 ; DirectX::Colors::GreenYellow
	DD	03f800000r			; 1
	DD	03e3cbcbdr			; 0.184314
	DD	03f800000r			; 1
CONST	ENDS
;	COMDAT ?Green@Colors@DirectX@@3UXMVECTORF32@2@B
CONST	SEGMENT
?Green@Colors@DirectX@@3UXMVECTORF32@2@B DD 000000000r ; 0 ; DirectX::Colors::Green
	DD	03f008081r			; 0.501961
	DD	000000000r			; 0
	DD	03f800000r			; 1
CONST	ENDS
;	COMDAT ?Gray@Colors@DirectX@@3UXMVECTORF32@2@B
CONST	SEGMENT
?Gray@Colors@DirectX@@3UXMVECTORF32@2@B DD 03f008081r ; 0.501961 ; DirectX::Colors::Gray
	DD	03f008081r			; 0.501961
	DD	03f008081r			; 0.501961
	DD	03f800000r			; 1
CONST	ENDS
;	COMDAT ?Goldenrod@Colors@DirectX@@3UXMVECTORF32@2@B
CONST	SEGMENT
?Goldenrod@Colors@DirectX@@3UXMVECTORF32@2@B DD 03f5adadcr ; 0.854902 ; DirectX::Colors::Goldenrod
	DD	03f25a5a6r			; 0.647059
	DD	03e008081r			; 0.12549
	DD	03f800000r			; 1
CONST	ENDS
;	COMDAT ?Gold@Colors@DirectX@@3UXMVECTORF32@2@B
CONST	SEGMENT
?Gold@Colors@DirectX@@3UXMVECTORF32@2@B DD 03f800000r ; 1 ; DirectX::Colors::Gold
	DD	03f57d7d9r			; 0.843137
	DD	000000000r			; 0
	DD	03f800000r			; 1
CONST	ENDS
;	COMDAT ?GhostWhite@Colors@DirectX@@3UXMVECTORF32@2@B
CONST	SEGMENT
?GhostWhite@Colors@DirectX@@3UXMVECTORF32@2@B DD 03f78f8far ; 0.972549 ; DirectX::Colors::GhostWhite
	DD	03f78f8far			; 0.972549
	DD	03f800000r			; 1
	DD	03f800000r			; 1
CONST	ENDS
;	COMDAT ?Gainsboro@Colors@DirectX@@3UXMVECTORF32@2@B
CONST	SEGMENT
?Gainsboro@Colors@DirectX@@3UXMVECTORF32@2@B DD 03f5cdcder ; 0.862745 ; DirectX::Colors::Gainsboro
	DD	03f5cdcder			; 0.862745
	DD	03f5cdcder			; 0.862745
	DD	03f800000r			; 1
CONST	ENDS
;	COMDAT ?Fuchsia@Colors@DirectX@@3UXMVECTORF32@2@B
CONST	SEGMENT
?Fuchsia@Colors@DirectX@@3UXMVECTORF32@2@B DD 03f800000r ; 1 ; DirectX::Colors::Fuchsia
	DD	000000000r			; 0
	DD	03f800000r			; 1
	DD	03f800000r			; 1
CONST	ENDS
;	COMDAT ?ForestGreen@Colors@DirectX@@3UXMVECTORF32@2@B
CONST	SEGMENT
?ForestGreen@Colors@DirectX@@3UXMVECTORF32@2@B DD 03e088889r ; 0.133333 ; DirectX::Colors::ForestGreen
	DD	03f0b8b8cr			; 0.545098
	DD	03e088889r			; 0.133333
	DD	03f800000r			; 1
CONST	ENDS
;	COMDAT ?FloralWhite@Colors@DirectX@@3UXMVECTORF32@2@B
CONST	SEGMENT
?FloralWhite@Colors@DirectX@@3UXMVECTORF32@2@B DD 03f800000r ; 1 ; DirectX::Colors::FloralWhite
	DD	03f7afafcr			; 0.980392
	DD	03f70f0f2r			; 0.941177
	DD	03f800000r			; 1
CONST	ENDS
;	COMDAT ?Firebrick@Colors@DirectX@@3UXMVECTORF32@2@B
CONST	SEGMENT
?Firebrick@Colors@DirectX@@3UXMVECTORF32@2@B DD 03f32b2b3r ; 0.698039 ; DirectX::Colors::Firebrick
	DD	03e088889r			; 0.133333
	DD	03e088889r			; 0.133333
	DD	03f800000r			; 1
CONST	ENDS
;	COMDAT ?DodgerBlue@Colors@DirectX@@3UXMVECTORF32@2@B
CONST	SEGMENT
?DodgerBlue@Colors@DirectX@@3UXMVECTORF32@2@B DD 03df0f0f2r ; 0.117647 ; DirectX::Colors::DodgerBlue
	DD	03f109091r			; 0.564706
	DD	03f800000r			; 1
	DD	03f800000r			; 1
CONST	ENDS
;	COMDAT ?DimGray@Colors@DirectX@@3UXMVECTORF32@2@B
CONST	SEGMENT
?DimGray@Colors@DirectX@@3UXMVECTORF32@2@B DD 03ed2d2d4r ; 0.411765 ; DirectX::Colors::DimGray
	DD	03ed2d2d4r			; 0.411765
	DD	03ed2d2d4r			; 0.411765
	DD	03f800000r			; 1
CONST	ENDS
;	COMDAT ?DeepSkyBlue@Colors@DirectX@@3UXMVECTORF32@2@B
CONST	SEGMENT
?DeepSkyBlue@Colors@DirectX@@3UXMVECTORF32@2@B DD 000000000r ; 0 ; DirectX::Colors::DeepSkyBlue
	DD	03f3fbfc0r			; 0.74902
	DD	03f800000r			; 1
	DD	03f800000r			; 1
CONST	ENDS
;	COMDAT ?DeepPink@Colors@DirectX@@3UXMVECTORF32@2@B
CONST	SEGMENT
?DeepPink@Colors@DirectX@@3UXMVECTORF32@2@B DD 03f800000r ; 1 ; DirectX::Colors::DeepPink
	DD	03da0a0a1r			; 0.0784314
	DD	03f139394r			; 0.576471
	DD	03f800000r			; 1
CONST	ENDS
;	COMDAT ?DarkViolet@Colors@DirectX@@3UXMVECTORF32@2@B
CONST	SEGMENT
?DarkViolet@Colors@DirectX@@3UXMVECTORF32@2@B DD 03f149495r ; 0.580392 ; DirectX::Colors::DarkViolet
	DD	000000000r			; 0
	DD	03f53d3d5r			; 0.827451
	DD	03f800000r			; 1
CONST	ENDS
;	COMDAT ?DarkTurquoise@Colors@DirectX@@3UXMVECTORF32@2@B
CONST	SEGMENT
?DarkTurquoise@Colors@DirectX@@3UXMVECTORF32@2@B DD 000000000r ; 0 ; DirectX::Colors::DarkTurquoise
	DD	03f4eced0r			; 0.807843
	DD	03f51d1d3r			; 0.819608
	DD	03f800000r			; 1
CONST	ENDS
;	COMDAT ?DarkSlateGray@Colors@DirectX@@3UXMVECTORF32@2@B
CONST	SEGMENT
?DarkSlateGray@Colors@DirectX@@3UXMVECTORF32@2@B DD 03e3cbcbdr ; 0.184314 ; DirectX::Colors::DarkSlateGray
	DD	03e9e9e9fr			; 0.309804
	DD	03e9e9e9fr			; 0.309804
	DD	03f800000r			; 1
CONST	ENDS
;	COMDAT ?DarkSlateBlue@Colors@DirectX@@3UXMVECTORF32@2@B
CONST	SEGMENT
?DarkSlateBlue@Colors@DirectX@@3UXMVECTORF32@2@B DD 03e909091r ; 0.282353 ; DirectX::Colors::DarkSlateBlue
	DD	03e74f4f6r			; 0.239216
	DD	03f0b8b8cr			; 0.545098
	DD	03f800000r			; 1
CONST	ENDS
;	COMDAT ?DarkSeaGreen@Colors@DirectX@@3UXMVECTORF32@2@B
CONST	SEGMENT
?DarkSeaGreen@Colors@DirectX@@3UXMVECTORF32@2@B DD 03f0f8f90r ; 0.560784 ; DirectX::Colors::DarkSeaGreen
	DD	03f3cbcbdr			; 0.737255
	DD	03f0b8b8cr			; 0.545098
	DD	03f800000r			; 1
CONST	ENDS
;	COMDAT ?DarkSalmon@Colors@DirectX@@3UXMVECTORF32@2@B
CONST	SEGMENT
?DarkSalmon@Colors@DirectX@@3UXMVECTORF32@2@B DD 03f69e9ebr ; 0.913726 ; DirectX::Colors::DarkSalmon
	DD	03f169697r			; 0.588235
	DD	03ef4f4f6r			; 0.478431
	DD	03f800000r			; 1
CONST	ENDS
;	COMDAT ?DarkRed@Colors@DirectX@@3UXMVECTORF32@2@B
CONST	SEGMENT
?DarkRed@Colors@DirectX@@3UXMVECTORF32@2@B DD 03f0b8b8cr ; 0.545098 ; DirectX::Colors::DarkRed
	DD	000000000r			; 0
	DD	000000000r			; 0
	DD	03f800000r			; 1
CONST	ENDS
;	COMDAT ?DarkOrchid@Colors@DirectX@@3UXMVECTORF32@2@B
CONST	SEGMENT
?DarkOrchid@Colors@DirectX@@3UXMVECTORF32@2@B DD 03f19999ar ; 0.6 ; DirectX::Colors::DarkOrchid
	DD	03e48c8car			; 0.196078
	DD	03f4ccccer			; 0.8
	DD	03f800000r			; 1
CONST	ENDS
;	COMDAT ?DarkOrange@Colors@DirectX@@3UXMVECTORF32@2@B
CONST	SEGMENT
?DarkOrange@Colors@DirectX@@3UXMVECTORF32@2@B DD 03f800000r ; 1 ; DirectX::Colors::DarkOrange
	DD	03f0c8c8dr			; 0.54902
	DD	000000000r			; 0
	DD	03f800000r			; 1
CONST	ENDS
;	COMDAT ?DarkOliveGreen@Colors@DirectX@@3UXMVECTORF32@2@B
CONST	SEGMENT
?DarkOliveGreen@Colors@DirectX@@3UXMVECTORF32@2@B DD 03eaaaaabr ; 0.333333 ; DirectX::Colors::DarkOliveGreen
	DD	03ed6d6d8r			; 0.419608
	DD	03e3cbcbdr			; 0.184314
	DD	03f800000r			; 1
CONST	ENDS
;	COMDAT ?DarkMagenta@Colors@DirectX@@3UXMVECTORF32@2@B
CONST	SEGMENT
?DarkMagenta@Colors@DirectX@@3UXMVECTORF32@2@B DD 03f0b8b8cr ; 0.545098 ; DirectX::Colors::DarkMagenta
	DD	000000000r			; 0
	DD	03f0b8b8cr			; 0.545098
	DD	03f800000r			; 1
CONST	ENDS
;	COMDAT ?DarkKhaki@Colors@DirectX@@3UXMVECTORF32@2@B
CONST	SEGMENT
?DarkKhaki@Colors@DirectX@@3UXMVECTORF32@2@B DD 03f3dbdber ; 0.741176 ; DirectX::Colors::DarkKhaki
	DD	03f37b7b8r			; 0.717647
	DD	03ed6d6d8r			; 0.419608
	DD	03f800000r			; 1
CONST	ENDS
;	COMDAT ?DarkGreen@Colors@DirectX@@3UXMVECTORF32@2@B
CONST	SEGMENT
?DarkGreen@Colors@DirectX@@3UXMVECTORF32@2@B DD 000000000r ; 0 ; DirectX::Colors::DarkGreen
	DD	03ec8c8car			; 0.392157
	DD	000000000r			; 0
	DD	03f800000r			; 1
CONST	ENDS
;	COMDAT ?DarkGray@Colors@DirectX@@3UXMVECTORF32@2@B
CONST	SEGMENT
?DarkGray@Colors@DirectX@@3UXMVECTORF32@2@B DD 03f29a9aar ; 0.662745 ; DirectX::Colors::DarkGray
	DD	03f29a9aar			; 0.662745
	DD	03f29a9aar			; 0.662745
	DD	03f800000r			; 1
CONST	ENDS
;	COMDAT ?DarkGoldenrod@Colors@DirectX@@3UXMVECTORF32@2@B
CONST	SEGMENT
?DarkGoldenrod@Colors@DirectX@@3UXMVECTORF32@2@B DD 03f38b8b9r ; 0.721569 ; DirectX::Colors::DarkGoldenrod
	DD	03f068687r			; 0.52549
	DD	03d30b0b1r			; 0.0431373
	DD	03f800000r			; 1
CONST	ENDS
;	COMDAT ?DarkCyan@Colors@DirectX@@3UXMVECTORF32@2@B
CONST	SEGMENT
?DarkCyan@Colors@DirectX@@3UXMVECTORF32@2@B DD 000000000r ; 0 ; DirectX::Colors::DarkCyan
	DD	03f0b8b8cr			; 0.545098
	DD	03f0b8b8cr			; 0.545098
	DD	03f800000r			; 1
CONST	ENDS
;	COMDAT ?DarkBlue@Colors@DirectX@@3UXMVECTORF32@2@B
CONST	SEGMENT
?DarkBlue@Colors@DirectX@@3UXMVECTORF32@2@B DD 000000000r ; 0 ; DirectX::Colors::DarkBlue
	DD	000000000r			; 0
	DD	03f0b8b8cr			; 0.545098
	DD	03f800000r			; 1
CONST	ENDS
;	COMDAT ?Cyan@Colors@DirectX@@3UXMVECTORF32@2@B
CONST	SEGMENT
?Cyan@Colors@DirectX@@3UXMVECTORF32@2@B DD 000000000r ; 0 ; DirectX::Colors::Cyan
	DD	03f800000r			; 1
	DD	03f800000r			; 1
	DD	03f800000r			; 1
CONST	ENDS
;	COMDAT ?Crimson@Colors@DirectX@@3UXMVECTORF32@2@B
CONST	SEGMENT
?Crimson@Colors@DirectX@@3UXMVECTORF32@2@B DD 03f5cdcder ; 0.862745 ; DirectX::Colors::Crimson
	DD	03da0a0a1r			; 0.0784314
	DD	03e70f0f2r			; 0.235294
	DD	03f800000r			; 1
CONST	ENDS
;	COMDAT ?Cornsilk@Colors@DirectX@@3UXMVECTORF32@2@B
CONST	SEGMENT
?Cornsilk@Colors@DirectX@@3UXMVECTORF32@2@B DD 03f800000r ; 1 ; DirectX::Colors::Cornsilk
	DD	03f78f8far			; 0.972549
	DD	03f5cdcder			; 0.862745
	DD	03f800000r			; 1
CONST	ENDS
;	COMDAT ?CornflowerBlue@Colors@DirectX@@3UXMVECTORF32@2@B
CONST	SEGMENT
?CornflowerBlue@Colors@DirectX@@3UXMVECTORF32@2@B DD 03ec8c8car ; 0.392157 ; DirectX::Colors::CornflowerBlue
	DD	03f159596r			; 0.584314
	DD	03f6dedefr			; 0.929412
	DD	03f800000r			; 1
CONST	ENDS
;	COMDAT ?Coral@Colors@DirectX@@3UXMVECTORF32@2@B
CONST	SEGMENT
?Coral@Colors@DirectX@@3UXMVECTORF32@2@B DD 03f800000r ; 1 ; DirectX::Colors::Coral
	DD	03efeff00r			; 0.498039
	DD	03ea0a0a1r			; 0.313726
	DD	03f800000r			; 1
CONST	ENDS
;	COMDAT ?Chocolate@Colors@DirectX@@3UXMVECTORF32@2@B
CONST	SEGMENT
?Chocolate@Colors@DirectX@@3UXMVECTORF32@2@B DD 03f52d2d4r ; 0.823529 ; DirectX::Colors::Chocolate
	DD	03ed2d2d4r			; 0.411765
	DD	03df0f0f2r			; 0.117647
	DD	03f800000r			; 1
CONST	ENDS
;	COMDAT ?Chartreuse@Colors@DirectX@@3UXMVECTORF32@2@B
CONST	SEGMENT
?Chartreuse@Colors@DirectX@@3UXMVECTORF32@2@B DD 03efeff00r ; 0.498039 ; DirectX::Colors::Chartreuse
	DD	03f800000r			; 1
	DD	000000000r			; 0
	DD	03f800000r			; 1
CONST	ENDS
;	COMDAT ?CadetBlue@Colors@DirectX@@3UXMVECTORF32@2@B
CONST	SEGMENT
?CadetBlue@Colors@DirectX@@3UXMVECTORF32@2@B DD 03ebebebfr ; 0.372549 ; DirectX::Colors::CadetBlue
	DD	03f1e9e9fr			; 0.619608
	DD	03f20a0a1r			; 0.627451
	DD	03f800000r			; 1
CONST	ENDS
;	COMDAT ?BurlyWood@Colors@DirectX@@3UXMVECTORF32@2@B
CONST	SEGMENT
?BurlyWood@Colors@DirectX@@3UXMVECTORF32@2@B DD 03f5edee0r ; 0.870588 ; DirectX::Colors::BurlyWood
	DD	03f38b8b9r			; 0.721569
	DD	03f078788r			; 0.529412
	DD	03f800000r			; 1
CONST	ENDS
;	COMDAT ?Brown@Colors@DirectX@@3UXMVECTORF32@2@B
CONST	SEGMENT
?Brown@Colors@DirectX@@3UXMVECTORF32@2@B DD 03f25a5a6r ; 0.647059 ; DirectX::Colors::Brown
	DD	03e28a8a9r			; 0.164706
	DD	03e28a8a9r			; 0.164706
	DD	03f800000r			; 1
CONST	ENDS
;	COMDAT ?BlueViolet@Colors@DirectX@@3UXMVECTORF32@2@B
CONST	SEGMENT
?BlueViolet@Colors@DirectX@@3UXMVECTORF32@2@B DD 03f0a8a8br ; 0.541176 ; DirectX::Colors::BlueViolet
	DD	03e2cacadr			; 0.168627
	DD	03f62e2e4r			; 0.886275
	DD	03f800000r			; 1
CONST	ENDS
;	COMDAT ?Blue@Colors@DirectX@@3UXMVECTORF32@2@B
CONST	SEGMENT
?Blue@Colors@DirectX@@3UXMVECTORF32@2@B DD 000000000r ; 0 ; DirectX::Colors::Blue
	DD	000000000r			; 0
	DD	03f800000r			; 1
	DD	03f800000r			; 1
CONST	ENDS
;	COMDAT ?BlanchedAlmond@Colors@DirectX@@3UXMVECTORF32@2@B
CONST	SEGMENT
?BlanchedAlmond@Colors@DirectX@@3UXMVECTORF32@2@B DD 03f800000r ; 1 ; DirectX::Colors::BlanchedAlmond
	DD	03f6bebedr			; 0.921569
	DD	03f4dcdcfr			; 0.803922
	DD	03f800000r			; 1
CONST	ENDS
;	COMDAT ?Black@Colors@DirectX@@3UXMVECTORF32@2@B
CONST	SEGMENT
?Black@Colors@DirectX@@3UXMVECTORF32@2@B DD 000000000r ; 0 ; DirectX::Colors::Black
	DD	000000000r			; 0
	DD	000000000r			; 0
	DD	03f800000r			; 1
CONST	ENDS
;	COMDAT ?Bisque@Colors@DirectX@@3UXMVECTORF32@2@B
CONST	SEGMENT
?Bisque@Colors@DirectX@@3UXMVECTORF32@2@B DD 03f800000r ; 1 ; DirectX::Colors::Bisque
	DD	03f64e4e6r			; 0.894118
	DD	03f44c4c6r			; 0.768628
	DD	03f800000r			; 1
CONST	ENDS
;	COMDAT ?Beige@Colors@DirectX@@3UXMVECTORF32@2@B
CONST	SEGMENT
?Beige@Colors@DirectX@@3UXMVECTORF32@2@B DD 03f75f5f7r ; 0.960784 ; DirectX::Colors::Beige
	DD	03f75f5f7r			; 0.960784
	DD	03f5cdcder			; 0.862745
	DD	03f800000r			; 1
CONST	ENDS
;	COMDAT ?Azure@Colors@DirectX@@3UXMVECTORF32@2@B
CONST	SEGMENT
?Azure@Colors@DirectX@@3UXMVECTORF32@2@B DD 03f70f0f2r ; 0.941177 ; DirectX::Colors::Azure
	DD	03f800000r			; 1
	DD	03f800000r			; 1
	DD	03f800000r			; 1
CONST	ENDS
;	COMDAT ?Aquamarine@Colors@DirectX@@3UXMVECTORF32@2@B
CONST	SEGMENT
?Aquamarine@Colors@DirectX@@3UXMVECTORF32@2@B DD 03efeff00r ; 0.498039 ; DirectX::Colors::Aquamarine
	DD	03f800000r			; 1
	DD	03f54d4d6r			; 0.831373
	DD	03f800000r			; 1
CONST	ENDS
;	COMDAT ?Aqua@Colors@DirectX@@3UXMVECTORF32@2@B
CONST	SEGMENT
?Aqua@Colors@DirectX@@3UXMVECTORF32@2@B DD 000000000r ; 0 ; DirectX::Colors::Aqua
	DD	03f800000r			; 1
	DD	03f800000r			; 1
	DD	03f800000r			; 1
CONST	ENDS
;	COMDAT ?AntiqueWhite@Colors@DirectX@@3UXMVECTORF32@2@B
CONST	SEGMENT
?AntiqueWhite@Colors@DirectX@@3UXMVECTORF32@2@B DD 03f7afafcr ; 0.980392 ; DirectX::Colors::AntiqueWhite
	DD	03f6bebedr			; 0.921569
	DD	03f57d7d9r			; 0.843137
	DD	03f800000r			; 1
CONST	ENDS
;	COMDAT ?AliceBlue@Colors@DirectX@@3UXMVECTORF32@2@B
CONST	SEGMENT
?AliceBlue@Colors@DirectX@@3UXMVECTORF32@2@B DD 03f70f0f2r ; 0.941177 ; DirectX::Colors::AliceBlue
	DD	03f78f8far			; 0.972549
	DD	03f800000r			; 1
	DD	03f800000r			; 1
CONST	ENDS
PUBLIC	??_H@YAXPEAX_K1P6APEAX0@Z@Z			; `vector constructor iterator'
PUBLIC	?__empty_global_delete@@YAXPEAX@Z		; __empty_global_delete
PUBLIC	?__empty_global_delete@@YAXPEAX_K@Z		; __empty_global_delete
PUBLIC	fabsf
PUBLIC	?cos@@YAMM@Z					; cos
PUBLIC	?XMConvertToRadians@DirectX@@YAMM@Z		; DirectX::XMConvertToRadians
PUBLIC	??BXMVECTORF32@DirectX@@QEBA?AT__m128@@XZ	; DirectX::XMVECTORF32::operator __m128
PUBLIC	??BXMVECTORI32@DirectX@@QEBA?AT__m128@@XZ	; DirectX::XMVECTORI32::operator __m128
PUBLIC	??BXMVECTORU32@DirectX@@QEBA?AT__m128@@XZ	; DirectX::XMVECTORU32::operator __m128
PUBLIC	??HDirectX@@YQ?AT__m128@@T1@0@Z			; DirectX::operator+
PUBLIC	??GDirectX@@YQ?AT__m128@@T1@0@Z			; DirectX::operator-
PUBLIC	??DDirectX@@YQ?AT__m128@@T1@M@Z			; DirectX::operator*
PUBLIC	??0XMMATRIX@DirectX@@QEAA@XZ			; DirectX::XMMATRIX::XMMATRIX
PUBLIC	??DXMMATRIX@DirectX@@QEBQ?AU01@U01@@Z		; DirectX::XMMATRIX::operator*
PUBLIC	??0XMFLOAT3@DirectX@@QEAA@XZ			; DirectX::XMFLOAT3::XMFLOAT3
PUBLIC	??0XMFLOAT3@DirectX@@QEAA@MMM@Z			; DirectX::XMFLOAT3::XMFLOAT3
PUBLIC	??4XMFLOAT3@DirectX@@QEAAAEAU01@AEBU01@@Z	; DirectX::XMFLOAT3::operator=
PUBLIC	??0XMFLOAT4@DirectX@@QEAA@XZ			; DirectX::XMFLOAT4::XMFLOAT4
PUBLIC	??4XMFLOAT4@DirectX@@QEAAAEAU01@AEBU01@@Z	; DirectX::XMFLOAT4::operator=
PUBLIC	??0XMFLOAT4X4@DirectX@@QEAA@XZ			; DirectX::XMFLOAT4X4::XMFLOAT4X4
PUBLIC	?XMLoadFloat3@DirectX@@YQ?AT__m128@@PEBUXMFLOAT3@1@@Z ; DirectX::XMLoadFloat3
PUBLIC	?XMLoadFloat4@DirectX@@YQ?AT__m128@@PEBUXMFLOAT4@1@@Z ; DirectX::XMLoadFloat4
PUBLIC	?XMStoreFloat4@DirectX@@YQXPEAUXMFLOAT4@1@T__m128@@@Z ; DirectX::XMStoreFloat4
PUBLIC	?XMStoreFloat4x4@DirectX@@YQXPEAUXMFLOAT4X4@1@UXMMATRIX@1@@Z ; DirectX::XMStoreFloat4x4
PUBLIC	?XMVectorSet@DirectX@@YQ?AT__m128@@MMMM@Z	; DirectX::XMVectorSet
PUBLIC	?XMVectorGetX@DirectX@@YQMT__m128@@@Z		; DirectX::XMVectorGetX
PUBLIC	?XMVectorGetY@DirectX@@YQMT__m128@@@Z		; DirectX::XMVectorGetY
PUBLIC	?XMVectorSetY@DirectX@@YQ?AT__m128@@T2@M@Z	; DirectX::XMVectorSetY
PUBLIC	?XMVectorAdd@DirectX@@YQ?AT__m128@@T2@0@Z	; DirectX::XMVectorAdd
PUBLIC	?XMVectorSubtract@DirectX@@YQ?AT__m128@@T2@0@Z	; DirectX::XMVectorSubtract
PUBLIC	?XMVectorScale@DirectX@@YQ?AT__m128@@T2@M@Z	; DirectX::XMVectorScale
PUBLIC	?XMVectorLerp@DirectX@@YQ?AT__m128@@T2@0M@Z	; DirectX::XMVectorLerp
PUBLIC	?XMVector3Length@DirectX@@YQ?AT__m128@@T2@@Z	; DirectX::XMVector3Length
PUBLIC	?XMVector3Normalize@DirectX@@YQ?AT__m128@@T2@@Z	; DirectX::XMVector3Normalize
PUBLIC	?XMMatrixMultiply@DirectX@@YQ?AUXMMATRIX@1@U21@AEBU21@@Z ; DirectX::XMMatrixMultiply
PUBLIC	?XMMatrixIdentity@DirectX@@YQ?AUXMMATRIX@1@XZ	; DirectX::XMMatrixIdentity
PUBLIC	?XMMatrixTranslation@DirectX@@YQ?AUXMMATRIX@1@MMM@Z ; DirectX::XMMatrixTranslation
PUBLIC	?XMMatrixScaling@DirectX@@YQ?AUXMMATRIX@1@MMM@Z	; DirectX::XMMatrixScaling
PUBLIC	?XMMatrixOrthographicLH@DirectX@@YQ?AUXMMATRIX@1@MMMM@Z ; DirectX::XMMatrixOrthographicLH
PUBLIC	?XMScalarNearEqual@DirectX@@YA_NMMM@Z		; DirectX::XMScalarNearEqual
PUBLIC	??0CPlayerCamera@Client@@AEAA@PEAUID3D11Device@@PEAUID3D11DeviceContext@@@Z ; Client::CPlayerCamera::CPlayerCamera
PUBLIC	??0CPlayerCamera@Client@@AEAA@AEBV01@@Z		; Client::CPlayerCamera::CPlayerCamera
PUBLIC	??1CPlayerCamera@Client@@EEAA@XZ		; Client::CPlayerCamera::~CPlayerCamera
PUBLIC	?Initialize_Prototype@CPlayerCamera@Client@@UEAAJXZ ; Client::CPlayerCamera::Initialize_Prototype
PUBLIC	?Initialize@CPlayerCamera@Client@@UEAAJPEAX@Z	; Client::CPlayerCamera::Initialize
PUBLIC	?Tick@CPlayerCamera@Client@@UEAAXN@Z		; Client::CPlayerCamera::Tick
PUBLIC	?LateTick@CPlayerCamera@Client@@UEAAXN@Z	; Client::CPlayerCamera::LateTick
PUBLIC	?Render@CPlayerCamera@Client@@UEAAJXZ		; Client::CPlayerCamera::Render
PUBLIC	?AttackShake@CPlayerCamera@Client@@QEAAXXZ	; Client::CPlayerCamera::AttackShake
PUBLIC	?Add_Components@CPlayerCamera@Client@@QEAAJXZ	; Client::CPlayerCamera::Add_Components
PUBLIC	?Setup_ShaderResources@CPlayerCamera@Client@@QEAAJXZ ; Client::CPlayerCamera::Setup_ShaderResources
PUBLIC	?DefaultCameraMovement@CPlayerCamera@Client@@AEAAXN@Z ; Client::CPlayerCamera::DefaultCameraMovement
PUBLIC	?WinActionMovement@CPlayerCamera@Client@@AEAAXN@Z ; Client::CPlayerCamera::WinActionMovement
PUBLIC	?Create@CPlayerCamera@Client@@SAPEAV12@PEAUID3D11Device@@PEAUID3D11DeviceContext@@@Z ; Client::CPlayerCamera::Create
PUBLIC	?Clone@CPlayerCamera@Client@@UEAAPEAVCGameObject@Engine@@PEAX@Z ; Client::CPlayerCamera::Clone
PUBLIC	?Free@CPlayerCamera@Client@@UEAAXXZ		; Client::CPlayerCamera::Free
PUBLIC	??_GCPlayerCamera@Client@@EEAAPEAXI@Z		; Client::CPlayerCamera::`scalar deleting destructor'
PUBLIC	??0tagColliderDesc@CCollider@Engine@@QEAA@XZ	; Engine::CCollider::tagColliderDesc::tagColliderDesc
PUBLIC	?SetWinMotion@CCharacter@Client@@QEAAX_N@Z	; Client::CCharacter::SetWinMotion
PUBLIC	?GetLockOnTarget@CCharacter@Client@@QEAAPEAVCGameObject@Engine@@XZ ; Client::CCharacter::GetLockOnTarget
PUBLIC	?SetLevelFinish@CApplicationManager@Client@@QEAAXW4LEVEL@12@@Z ; Client::CApplicationManager::SetLevelFinish
PUBLIC	?IsLevelFinish@CApplicationManager@Client@@QEAA_NW4LEVEL@12@@Z ; Client::CApplicationManager::IsLevelFinish
PUBLIC	?SetWinMotion@CApplicationManager@Client@@QEAAX_N@Z ; Client::CApplicationManager::SetWinMotion
PUBLIC	??$Safe_Release@PEAVCPlayerCamera@Client@@@Engine@@YAKAEAPEAVCPlayerCamera@Client@@@Z ; Engine::Safe_Release<Client::CPlayerCamera * __ptr64>
PUBLIC	??$Safe_Release@PEAVCTransform@Engine@@@Engine@@YAKAEAPEAVCTransform@0@@Z ; Engine::Safe_Release<Engine::CTransform * __ptr64>
PUBLIC	??$Safe_Release@PEAVCRenderer@Engine@@@Engine@@YAKAEAPEAVCRenderer@0@@Z ; Engine::Safe_Release<Engine::CRenderer * __ptr64>
PUBLIC	??$Safe_Release@PEAVCShader@Engine@@@Engine@@YAKAEAPEAVCShader@0@@Z ; Engine::Safe_Release<Engine::CShader * __ptr64>
PUBLIC	??$Safe_Release@PEAVCVIBuffer_Rect@Engine@@@Engine@@YAKAEAPEAVCVIBuffer_Rect@0@@Z ; Engine::Safe_Release<Engine::CVIBuffer_Rect * __ptr64>
PUBLIC	??$Safe_Release@PEAVCTexture@Engine@@@Engine@@YAKAEAPEAVCTexture@0@@Z ; Engine::Safe_Release<Engine::CTexture * __ptr64>
PUBLIC	??_C@_1JE@DMOBBMDE@?$AAc?$AA?3?$AA?2?$AAp?$AAr?$AAo?$AAg?$AAr?$AAa?$AAm?$AA?5?$AAf?$AAi?$AAl?$AAe?$AAs?$AA?5?$AA?$CI?$AAx?$AA8?$AA6?$AA?$CJ?$AA?2?$AAw?$AAi?$AAn?$AAd?$AAo?$AAw?$AAs?$AA?5?$AAk@ ; `string'
PUBLIC	??_C@_1BA@LBADLIHI@?$AAp?$AAS?$AAo?$AAu?$AAr?$AAc?$AAe?$AA?$AA@ ; `string'
PUBLIC	?__LINE__Var@?0??XMLoadFloat3@DirectX@@YQ?AT__m128@@PEBUXMFLOAT3@2@@Z@4JA ; `DirectX::XMLoadFloat3'::`1'::__LINE__Var
PUBLIC	?__LINE__Var@?0??XMLoadFloat4@DirectX@@YQ?AT__m128@@PEBUXMFLOAT4@2@@Z@4JA ; `DirectX::XMLoadFloat4'::`1'::__LINE__Var
PUBLIC	??_C@_1BK@FHLBGAOP@?$AAp?$AAD?$AAe?$AAs?$AAt?$AAi?$AAn?$AAa?$AAt?$AAi?$AAo?$AAn?$AA?$AA@ ; `string'
PUBLIC	?__LINE__Var@?0??XMStoreFloat4@DirectX@@YQXPEAUXMFLOAT4@2@T__m128@@@Z@4JA ; `DirectX::XMStoreFloat4'::`1'::__LINE__Var
PUBLIC	?__LINE__Var@?0??XMStoreFloat4x4@DirectX@@YQXPEAUXMFLOAT4X4@2@UXMMATRIX@2@@Z@4JA ; `DirectX::XMStoreFloat4x4'::`1'::__LINE__Var
PUBLIC	??_C@_1JC@EJCKKKJP@?$AAc?$AA?3?$AA?2?$AAp?$AAr?$AAo?$AAg?$AAr?$AAa?$AAm?$AA?5?$AAf?$AAi?$AAl?$AAe?$AAs?$AA?5?$AA?$CI?$AAx?$AA8?$AA6?$AA?$CJ?$AA?2?$AAw?$AAi?$AAn?$AAd?$AAo?$AAw?$AAs?$AA?5?$AAk@ ; `string'
PUBLIC	??_C@_1FM@GHGDCEAE@?$AA?$CB?$AAX?$AAM?$AAS?$AAc?$AAa?$AAl?$AAa?$AAr?$AAN?$AAe?$AAa?$AAr?$AAE?$AAq?$AAu?$AAa?$AAl?$AA?$CI?$AAV?$AAi?$AAe?$AAw?$AAW?$AAi?$AAd?$AAt?$AAh?$AA?0?$AA?5?$AA0?$AA?4@ ; `string'
PUBLIC	??_C@_1FO@OGFPCKGG@?$AA?$CB?$AAX?$AAM?$AAS?$AAc?$AAa?$AAl?$AAa?$AAr?$AAN?$AAe?$AAa?$AAr?$AAE?$AAq?$AAu?$AAa?$AAl?$AA?$CI?$AAV?$AAi?$AAe?$AAw?$AAH?$AAe?$AAi?$AAg?$AAh?$AAt?$AA?0?$AA?5?$AA0@ ; `string'
PUBLIC	??_C@_1FE@IMEJOJAH@?$AA?$CB?$AAX?$AAM?$AAS?$AAc?$AAa?$AAl?$AAa?$AAr?$AAN?$AAe?$AAa?$AAr?$AAE?$AAq?$AAu?$AAa?$AAl?$AA?$CI?$AAF?$AAa?$AAr?$AAZ?$AA?0?$AA?5?$AAN?$AAe?$AAa?$AAr?$AAZ?$AA?0?$AA?5@ ; `string'
PUBLIC	?__LINE__Var@?0??XMMatrixOrthographicLH@DirectX@@YQ?AUXMMATRIX@2@MMMM@Z@4JA ; `DirectX::XMMatrixOrthographicLH'::`1'::__LINE__Var
PUBLIC	??_7CPlayerCamera@Client@@6B@			; Client::CPlayerCamera::`vftable'
PUBLIC	?__LINE__Var@?0??Initialize@CPlayerCamera@Client@@UEAAJPEAX@Z@4JA ; `Client::CPlayerCamera::Initialize'::`1'::__LINE__Var
PUBLIC	??_C@_1JE@LOBGNKN@?$AAc?$AA?3?$AA?2?$AAu?$AAs?$AAe?$AAr?$AAs?$AA?2?$AAa?$AAr?$AAc?$AAc?$AAo?$AA?2?$AAd?$AAo?$AAc?$AAu?$AAm?$AAe?$AAn?$AAt?$AAs?$AA?2?$AAg?$AAi?$AAt?$AAh?$AAu?$AAb?$AA?2@ ; `string'
PUBLIC	??_C@_19OPBALDBC@?$AAp?$AAA?$AAr?$AAg?$AA?$AA@	; `string'
PUBLIC	??_C@_1BM@CJMPMHDD@?$AAc?$AAo?$AAm?$AA_?$AAt?$AAr?$AAa?$AAn?$AAs?$AAf?$AAo?$AAr?$AAm?$AA?$AA@ ; `string'
PUBLIC	??_C@_1DI@OLGFHDLM@?$AAc?$AAo?$AAm?$AA_?$AAc?$AAa?$AAm?$AAe?$AAr?$AAa?$AA_?$AAs?$AAo?$AAc?$AAk?$AAe?$AAt?$AA_?$AAt?$AAr?$AAa?$AAn?$AAs?$AAf?$AAo?$AAr?$AAm?$AA?$AA@ ; `string'
PUBLIC	??_C@_1BK@BKCENIHA@?$AAc?$AAo?$AAm?$AA_?$AAc?$AAo?$AAl?$AAl?$AAi?$AAd?$AAe?$AAr?$AA?$AA@ ; `string'
PUBLIC	??_C@_1CO@HJBGOIAH@?$AAp?$AAr?$AAo?$AAt?$AAo?$AA_?$AAc?$AAo?$AAm?$AA_?$AAo?$AAb?$AAb?$AA_?$AAc?$AAo?$AAl?$AAl?$AAi?$AAd?$AAe?$AAr?$AA?$AA@ ; `string'
PUBLIC	??_C@_1BK@GIOMOCNE@?$AAc?$AAo?$AAm?$AA_?$AAr?$AAe?$AAn?$AAd?$AAe?$AAr?$AAe?$AAr?$AA?$AA@ ; `string'
PUBLIC	??_C@_1CG@COFFFCLL@?$AAp?$AAr?$AAo?$AAt?$AAo?$AA_?$AAc?$AAo?$AAm?$AA_?$AAr?$AAe?$AAn?$AAd?$AAe?$AAr?$AAe?$AAr?$AA?$AA@ ; `string'
PUBLIC	??_C@_1BG@KPBPOMBH@?$AAc?$AAo?$AAm?$AA_?$AAb?$AAu?$AAf?$AAf?$AAe?$AAr?$AA?$AA@ ; `string'
PUBLIC	??_C@_1DA@BAIPNHMH@?$AAp?$AAr?$AAo?$AAt?$AAo?$AA_?$AAc?$AAo?$AAm?$AA_?$AAv?$AAi?$AAb?$AAu?$AAf?$AAf?$AAe?$AAr?$AA_?$AAr?$AAe?$AAc?$AAt?$AA?$AA@ ; `string'
PUBLIC	??_C@_1BI@MJAKLHOB@?$AAc?$AAo?$AAm?$AA_?$AAt?$AAe?$AAx?$AAt?$AAu?$AAr?$AAe?$AA?$AA@ ; `string'
PUBLIC	??_C@_1DA@CAAHNHCD@?$AAp?$AAr?$AAo?$AAt?$AAo?$AA_?$AAc?$AAo?$AAm?$AA_?$AAt?$AAe?$AAx?$AAt?$AAu?$AAr?$AAe?$AA_?$AAb?$AAl?$AAa?$AAc?$AAk?$AA?$AA@ ; `string'
PUBLIC	??_C@_1BG@GGOMMBBL@?$AAc?$AAo?$AAm?$AA_?$AAs?$AAh?$AAa?$AAd?$AAe?$AAr?$AA?$AA@ ; `string'
PUBLIC	??_C@_1CI@NFFEDNON@?$AAp?$AAr?$AAo?$AAt?$AAo?$AA_?$AAc?$AAo?$AAm?$AA_?$AAs?$AAh?$AAa?$AAd?$AAe?$AAr?$AA_?$AAu?$AAi?$AA?$AA@ ; `string'
PUBLIC	??_C@_0O@PFNLPMLD@g_WorldMatrix?$AA@		; `string'
PUBLIC	??_C@_0N@ELIMCBLG@g_ViewMatrix?$AA@		; `string'
PUBLIC	??_C@_0N@OOHDPIO@g_ProjMatrix?$AA@		; `string'
PUBLIC	??_C@_09HCHKCCII@g_Texture?$AA@			; `string'
PUBLIC	??_C@_0N@PLHHBDPH@g_FillAmount?$AA@		; `string'
PUBLIC	??_C@_07FMLFDDAN@g_Alpha?$AA@			; `string'
PUBLIC	??_C@_0P@IKACEMKG@g_DiscardValue?$AA@		; `string'
PUBLIC	??_R0?AVCGameObject@Engine@@@8			; Engine::CGameObject `RTTI Type Descriptor'
PUBLIC	??_R0?AVCBoss@Client@@@8			; Client::CBoss `RTTI Type Descriptor'
PUBLIC	?__LINE__Var@?0??Create@CPlayerCamera@Client@@SAPEAV23@PEAUID3D11Device@@PEAUID3D11DeviceContext@@@Z@4JA ; `Client::CPlayerCamera::Create'::`1'::__LINE__Var
PUBLIC	??_C@_0EK@IICOGJBM@c?3?2users?2arcco?2documents?2github?2@ ; `string'
PUBLIC	??_C@_1BA@HHOMBECE@?$AAM?$AAe?$AAs?$AAs?$AAa?$AAg?$AAe?$AA?$AA@ ; `string'
PUBLIC	??_C@_1EE@CMOMLOPH@?$AAF?$AAa?$AAi?$AAl?$AAe?$AAd?$AA?5?$AAt?$AAo?$AA?5?$AAC?$AAr?$AAe?$AAa?$AAt?$AAe?$AAd?$AA?5?$AA?3?$AA?5?$AAC?$AAP?$AAl?$AAa?$AAy?$AAe?$AAr?$AAC?$AAa?$AAm?$AAe?$AAr@ ; `string'
PUBLIC	?__LINE__Var@?0??Clone@CPlayerCamera@Client@@UEAAPEAVCGameObject@Engine@@PEAX@Z@4JA ; `Client::CPlayerCamera::Clone'::`1'::__LINE__Var
PUBLIC	??_C@_1EC@NFPGCMME@?$AAF?$AAa?$AAi?$AAl?$AAe?$AAd?$AA?5?$AAt?$AAo?$AA?5?$AAC?$AAl?$AAo?$AAn?$AAe?$AAd?$AA?5?$AA?3?$AA?5?$AAC?$AAP?$AAl?$AAa?$AAy?$AAe?$AAr?$AAC?$AAa?$AAm?$AAe?$AAr?$AAa@ ; `string'
PUBLIC	??_R4CPlayerCamera@Client@@6B@			; Client::CPlayerCamera::`RTTI Complete Object Locator'
PUBLIC	??_R0?AVCPlayerCamera@Client@@@8		; Client::CPlayerCamera `RTTI Type Descriptor'
PUBLIC	??_R3CPlayerCamera@Client@@8			; Client::CPlayerCamera::`RTTI Class Hierarchy Descriptor'
PUBLIC	??_R2CPlayerCamera@Client@@8			; Client::CPlayerCamera::`RTTI Base Class Array'
PUBLIC	??_R1A@?0A@EA@CPlayerCamera@Client@@8		; Client::CPlayerCamera::`RTTI Base Class Descriptor at (0,-1,0,64)'
PUBLIC	??_R1A@?0A@EA@CCamera@Engine@@8			; Engine::CCamera::`RTTI Base Class Descriptor at (0,-1,0,64)'
PUBLIC	??_R0?AVCCamera@Engine@@@8			; Engine::CCamera `RTTI Type Descriptor'
PUBLIC	??_R3CCamera@Engine@@8				; Engine::CCamera::`RTTI Class Hierarchy Descriptor'
PUBLIC	??_R2CCamera@Engine@@8				; Engine::CCamera::`RTTI Base Class Array'
PUBLIC	??_R1A@?0A@EA@CGameObject@Engine@@8		; Engine::CGameObject::`RTTI Base Class Descriptor at (0,-1,0,64)'
PUBLIC	??_R3CGameObject@Engine@@8			; Engine::CGameObject::`RTTI Class Hierarchy Descriptor'
PUBLIC	??_R2CGameObject@Engine@@8			; Engine::CGameObject::`RTTI Base Class Array'
PUBLIC	??_R1A@?0A@EA@CBase@Engine@@8			; Engine::CBase::`RTTI Base Class Descriptor at (0,-1,0,64)'
PUBLIC	??_R0?AVCBase@Engine@@@8			; Engine::CBase `RTTI Type Descriptor'
PUBLIC	??_R3CBase@Engine@@8				; Engine::CBase::`RTTI Class Hierarchy Descriptor'
PUBLIC	??_R2CBase@Engine@@8				; Engine::CBase::`RTTI Base Class Array'
PUBLIC	__real@3727c5ac
PUBLIC	__real@3c8efa35
PUBLIC	__real@3d4ccccd
PUBLIC	__real@3dcccccd
PUBLIC	__real@3f000000
PUBLIC	__real@3f800000
PUBLIC	__real@3f99999a
PUBLIC	__real@3fc00000
PUBLIC	__real@3ff8000000000000
PUBLIC	__real@40000000
PUBLIC	__real@40200000
PUBLIC	__real@40400000
PUBLIC	__real@40800000
PUBLIC	__real@40c00000
PUBLIC	__real@40e00000
PUBLIC	__real@40f00000
PUBLIC	__real@42340000
PUBLIC	__real@43b40000
PUBLIC	__real@44200000
PUBLIC	__real@44340000
PUBLIC	__real@44a00000
PUBLIC	__real@44bb8000
PUBLIC	__xmm@00000000000000000000000000000000
PUBLIC	__xmm@80000000800000008000000080000000
EXTRN	??3@YAXPEAX_K@Z:PROC				; operator delete
EXTRN	__imp_MessageBoxW:PROC
EXTRN	__imp__wassert:PROC
EXTRN	fabs:PROC
EXTRN	__imp_cosf:PROC
EXTRN	??2@YAPEAX_KHPEBDH@Z:PROC			; operator new
EXTRN	??3@YAXPEAXHPEBDH@Z:PROC			; operator delete
EXTRN	__imp_?Release@CBase@Engine@@QEAAKXZ:PROC
EXTRN	__imp_?Find_Component@CGameObject@Engine@@QEAAPEAVCComponent@2@PEB_W@Z:PROC
EXTRN	__imp_?Add_Component@CGameObject@Engine@@IEAAJIPEB_W0PEAPEAVCComponent@2@PEAX@Z:PROC
EXTRN	__imp_?Get_State@CTransform@Engine@@QEAA?AT__m128@@W4STATE@12@@Z:PROC
EXTRN	__imp_?Set_State@CTransform@Engine@@QEAAXW4STATE@12@T__m128@@@Z:PROC
EXTRN	__imp_?LookAt@CTransform@Engine@@QEAAXT__m128@@@Z:PROC
EXTRN	__imp_?Create@CTransform@Engine@@SAPEAV12@PEAUID3D11Device@@PEAUID3D11DeviceContext@@@Z:PROC
EXTRN	__imp_??0CCamera@Engine@@IEAA@PEAUID3D11Device@@PEAUID3D11DeviceContext@@@Z:PROC
EXTRN	__imp_??0CCamera@Engine@@IEAA@AEBV01@@Z:PROC
EXTRN	__imp_??1CCamera@Engine@@MEAA@XZ:PROC
EXTRN	__imp_?Initialize_Prototype@CCamera@Engine@@UEAAJXZ:PROC
EXTRN	__imp_?Tick@CCamera@Engine@@UEAAXN@Z:PROC
EXTRN	__imp_?LateTick@CCamera@Engine@@UEAAXN@Z:PROC
EXTRN	__imp_?Render@CCamera@Engine@@UEAAJXZ:PROC
EXTRN	__imp_?StartShake@CCamera@Engine@@QEAAXMM@Z:PROC
EXTRN	__imp_?ShakeReset@CCamera@Engine@@QEAAXXZ:PROC
EXTRN	__imp_?Free@CCamera@Engine@@UEAAXXZ:PROC
EXTRN	??_ECPlayerCamera@Client@@EEAAPEAXI@Z:PROC	; Client::CPlayerCamera::`vector deleting destructor'
EXTRN	__imp_?Render@CVIBuffer@Engine@@UEAAJXZ:PROC
EXTRN	__imp_?Add_RenderGroup@CRenderer@Engine@@QEAAJW4RENDER_GROUP@12@PEAVCGameObject@2@@Z:PROC
EXTRN	__imp_?Setup_ShaderResource@CTexture@Engine@@QEAAJPEAVCShader@2@PEBDI@Z:PROC
EXTRN	__imp_?Begin@CShader@Engine@@QEAAJI@Z:PROC
EXTRN	__imp_?SetMatrix@CShader@Engine@@QEAAJPEBDPEBUXMFLOAT4X4@DirectX@@@Z:PROC
EXTRN	__imp_?SetRawValue@CShader@Engine@@QEAAJPEBDPEBXI@Z:PROC
EXTRN	__imp_?GetInstance@CGameInstance@Engine@@SAPEAV12@XZ:PROC
EXTRN	__imp_?Get_Transform_Matrix_Inverse@CGameInstance@Engine@@QEAA?AUXMMATRIX@DirectX@@W4TRANSFORM_STATE@CPipeLine@2@@Z:PROC
EXTRN	__imp_?Input_KeyState_Custom@CGameInstance@Engine@@QEAA?AW4KEY_STATE@2@H@Z:PROC
EXTRN	__imp_?AddCollider@CGameInstance@Engine@@QEAAJPEAVCCollider@2@I@Z:PROC
EXTRN	?IsCameraLockOn@CCharacter@Client@@QEAA_NXZ:PROC ; Client::CCharacter::IsCameraLockOn
EXTRN	?LockOnCameraPosition@CCharacter@Client@@QEAA?AUXMFLOAT3@DirectX@@XZ:PROC ; Client::CCharacter::LockOnCameraPosition
EXTRN	?GetInstance@CApplicationManager@Client@@SAPEAV12@XZ:PROC ; Client::CApplicationManager::GetInstance
EXTRN	?GetInstance@CSkillBallSystem@Client@@SAPEAV12@XZ:PROC ; Client::CSkillBallSystem::GetInstance
EXTRN	?Clear@CSkillBallSystem@Client@@QEAAXXZ:PROC	; Client::CSkillBallSystem::Clear
EXTRN	?GetLengthFromCamera@CGameObject@Engine@@UEAAMXZ:PROC ; Engine::CGameObject::GetLengthFromCamera
EXTRN	?RenderGUI@CGameObject@Engine@@UEAAXXZ:PROC	; Engine::CGameObject::RenderGUI
EXTRN	_RTC_CheckStackVars:PROC
EXTRN	_RTC_InitBase:PROC
EXTRN	_RTC_Shutdown:PROC
EXTRN	__CxxFrameHandler3:PROC
EXTRN	__GSHandlerCheck:PROC
EXTRN	__GSHandlerCheck_EH:PROC
EXTRN	__RTDynamicCast:PROC
EXTRN	__security_check_cookie:PROC
EXTRN	??_7type_info@@6B@:BYTE				; type_info::`vftable'
EXTRN	__security_cookie:QWORD
EXTRN	_fltused:DWORD
;	COMDAT pdata
pdata	SEGMENT
$pdata$??_H@YAXPEAX_K1P6APEAX0@Z@Z DD imagerel $LN7
	DD	imagerel $LN7+181
	DD	imagerel $unwind$??_H@YAXPEAX_K1P6APEAX0@Z@Z
pdata	ENDS
;	COMDAT pdata
pdata	SEGMENT
$pdata$?__empty_global_delete@@YAXPEAX@Z DD imagerel $LN3
	DD	imagerel $LN3+50
	DD	imagerel $unwind$?__empty_global_delete@@YAXPEAX@Z
pdata	ENDS
;	COMDAT pdata
pdata	SEGMENT
$pdata$?__empty_global_delete@@YAXPEAX_K@Z DD imagerel $LN3
	DD	imagerel $LN3+55
	DD	imagerel $unwind$?__empty_global_delete@@YAXPEAX_K@Z
pdata	ENDS
;	COMDAT pdata
pdata	SEGMENT
$pdata$fabsf DD	imagerel $LN3
	DD	imagerel $LN3+62
	DD	imagerel $unwind$fabsf
pdata	ENDS
;	COMDAT pdata
pdata	SEGMENT
$pdata$?cos@@YAMM@Z DD imagerel $LN3
	DD	imagerel $LN3+59
	DD	imagerel $unwind$?cos@@YAMM@Z
pdata	ENDS
;	COMDAT pdata
pdata	SEGMENT
$pdata$?XMConvertToRadians@DirectX@@YAMM@Z DD imagerel $LN3
	DD	imagerel $LN3+61
	DD	imagerel $unwind$?XMConvertToRadians@DirectX@@YAMM@Z
pdata	ENDS
;	COMDAT pdata
pdata	SEGMENT
$pdata$??BXMVECTORF32@DirectX@@QEBA?AT__m128@@XZ DD imagerel $LN3
	DD	imagerel $LN3+82
	DD	imagerel $unwind$??BXMVECTORF32@DirectX@@QEBA?AT__m128@@XZ
pdata	ENDS
;	COMDAT pdata
pdata	SEGMENT
$pdata$??BXMVECTORI32@DirectX@@QEBA?AT__m128@@XZ DD imagerel $LN3
	DD	imagerel $LN3+82
	DD	imagerel $unwind$??BXMVECTORI32@DirectX@@QEBA?AT__m128@@XZ
pdata	ENDS
;	COMDAT pdata
pdata	SEGMENT
$pdata$??BXMVECTORU32@DirectX@@QEBA?AT__m128@@XZ DD imagerel $LN3
	DD	imagerel $LN3+82
	DD	imagerel $unwind$??BXMVECTORU32@DirectX@@QEBA?AT__m128@@XZ
pdata	ENDS
;	COMDAT pdata
pdata	SEGMENT
$pdata$??HDirectX@@YQ?AT__m128@@T1@0@Z DD imagerel $LN3
	DD	imagerel $LN3+99
	DD	imagerel $unwind$??HDirectX@@YQ?AT__m128@@T1@0@Z
pdata	ENDS
;	COMDAT pdata
pdata	SEGMENT
$pdata$??GDirectX@@YQ?AT__m128@@T1@0@Z DD imagerel $LN3
	DD	imagerel $LN3+99
	DD	imagerel $unwind$??GDirectX@@YQ?AT__m128@@T1@0@Z
pdata	ENDS
;	COMDAT pdata
pdata	SEGMENT
$pdata$??DDirectX@@YQ?AT__m128@@T1@M@Z DD imagerel $LN3
	DD	imagerel $LN3+92
	DD	imagerel $unwind$??DDirectX@@YQ?AT__m128@@T1@M@Z
pdata	ENDS
;	COMDAT pdata
pdata	SEGMENT
$pdata$??0XMMATRIX@DirectX@@QEAA@XZ DD imagerel $LN3
	DD	imagerel $LN3+57
	DD	imagerel $unwind$??0XMMATRIX@DirectX@@QEAA@XZ
pdata	ENDS
;	COMDAT pdata
pdata	SEGMENT
$pdata$??DXMMATRIX@DirectX@@QEBQ?AU01@U01@@Z DD imagerel $LN3
	DD	imagerel $LN3+224
	DD	imagerel $unwind$??DXMMATRIX@DirectX@@QEBQ?AU01@U01@@Z
pdata	ENDS
;	COMDAT pdata
pdata	SEGMENT
$pdata$??0XMFLOAT3@DirectX@@QEAA@XZ DD imagerel $LN3
	DD	imagerel $LN3+57
	DD	imagerel $unwind$??0XMFLOAT3@DirectX@@QEAA@XZ
pdata	ENDS
;	COMDAT pdata
pdata	SEGMENT
$pdata$??0XMFLOAT3@DirectX@@QEAA@MMM@Z DD imagerel $LN3
	DD	imagerel $LN3+134
	DD	imagerel $unwind$??0XMFLOAT3@DirectX@@QEAA@MMM@Z
pdata	ENDS
;	COMDAT pdata
pdata	SEGMENT
$pdata$??4XMFLOAT3@DirectX@@QEAAAEAU01@AEBU01@@Z DD imagerel $LN3
	DD	imagerel $LN3+132
	DD	imagerel $unwind$??4XMFLOAT3@DirectX@@QEAAAEAU01@AEBU01@@Z
pdata	ENDS
;	COMDAT pdata
pdata	SEGMENT
$pdata$??0XMFLOAT4@DirectX@@QEAA@XZ DD imagerel $LN3
	DD	imagerel $LN3+57
	DD	imagerel $unwind$??0XMFLOAT4@DirectX@@QEAA@XZ
pdata	ENDS
;	COMDAT pdata
pdata	SEGMENT
$pdata$??4XMFLOAT4@DirectX@@QEAAAEAU01@AEBU01@@Z DD imagerel $LN3
	DD	imagerel $LN3+156
	DD	imagerel $unwind$??4XMFLOAT4@DirectX@@QEAAAEAU01@AEBU01@@Z
pdata	ENDS
;	COMDAT pdata
pdata	SEGMENT
$pdata$??0XMFLOAT4X4@DirectX@@QEAA@XZ DD imagerel $LN3
	DD	imagerel $LN3+57
	DD	imagerel $unwind$??0XMFLOAT4X4@DirectX@@QEAA@XZ
pdata	ENDS
;	COMDAT pdata
pdata	SEGMENT
$pdata$?XMLoadFloat3@DirectX@@YQ?AT__m128@@PEBUXMFLOAT3@1@@Z DD imagerel $LN4
	DD	imagerel $LN4+277
	DD	imagerel $unwind$?XMLoadFloat3@DirectX@@YQ?AT__m128@@PEBUXMFLOAT3@1@@Z
pdata	ENDS
;	COMDAT pdata
pdata	SEGMENT
$pdata$?XMLoadFloat4@DirectX@@YQ?AT__m128@@PEBUXMFLOAT4@1@@Z DD imagerel $LN4
	DD	imagerel $LN4+119
	DD	imagerel $unwind$?XMLoadFloat4@DirectX@@YQ?AT__m128@@PEBUXMFLOAT4@1@@Z
pdata	ENDS
;	COMDAT pdata
pdata	SEGMENT
$pdata$?XMStoreFloat4@DirectX@@YQXPEAUXMFLOAT4@1@T__m128@@@Z DD imagerel $LN4
	DD	imagerel $LN4+125
	DD	imagerel $unwind$?XMStoreFloat4@DirectX@@YQXPEAUXMFLOAT4@1@T__m128@@@Z
pdata	ENDS
;	COMDAT pdata
pdata	SEGMENT
$pdata$?XMStoreFloat4x4@DirectX@@YQXPEAUXMFLOAT4X4@1@UXMMATRIX@1@@Z DD imagerel $LN4
	DD	imagerel $LN4+247
	DD	imagerel $unwind$?XMStoreFloat4x4@DirectX@@YQXPEAUXMFLOAT4X4@1@UXMMATRIX@1@@Z
pdata	ENDS
;	COMDAT pdata
pdata	SEGMENT
$pdata$?XMVectorSet@DirectX@@YQ?AT__m128@@MMMM@Z DD imagerel $LN3
	DD	imagerel $LN3+121
	DD	imagerel $unwind$?XMVectorSet@DirectX@@YQ?AT__m128@@MMMM@Z
pdata	ENDS
;	COMDAT pdata
pdata	SEGMENT
$pdata$?XMVectorGetX@DirectX@@YQMT__m128@@@Z DD imagerel $LN3
	DD	imagerel $LN3+76
	DD	imagerel $unwind$?XMVectorGetX@DirectX@@YQMT__m128@@@Z
pdata	ENDS
;	COMDAT pdata
pdata	SEGMENT
$pdata$?XMVectorGetY@DirectX@@YQMT__m128@@@Z DD imagerel $LN3
	DD	imagerel $LN3+103
	DD	imagerel $unwind$?XMVectorGetY@DirectX@@YQMT__m128@@@Z
pdata	ENDS
;	COMDAT pdata
pdata	SEGMENT
$pdata$?XMVectorSetY@DirectX@@YQ?AT__m128@@T2@M@Z DD imagerel $LN3
	DD	imagerel $LN3+185
	DD	imagerel $unwind$?XMVectorSetY@DirectX@@YQ?AT__m128@@T2@M@Z
pdata	ENDS
;	COMDAT pdata
pdata	SEGMENT
$pdata$?XMVectorAdd@DirectX@@YQ?AT__m128@@T2@0@Z DD imagerel $LN3
	DD	imagerel $LN3+94
	DD	imagerel $unwind$?XMVectorAdd@DirectX@@YQ?AT__m128@@T2@0@Z
pdata	ENDS
;	COMDAT pdata
pdata	SEGMENT
$pdata$?XMVectorSubtract@DirectX@@YQ?AT__m128@@T2@0@Z DD imagerel $LN3
	DD	imagerel $LN3+94
	DD	imagerel $unwind$?XMVectorSubtract@DirectX@@YQ?AT__m128@@T2@0@Z
pdata	ENDS
;	COMDAT pdata
pdata	SEGMENT
$pdata$?XMVectorScale@DirectX@@YQ?AT__m128@@T2@M@Z DD imagerel $LN3
	DD	imagerel $LN3+113
	DD	imagerel $unwind$?XMVectorScale@DirectX@@YQ?AT__m128@@T2@M@Z
pdata	ENDS
;	COMDAT pdata
pdata	SEGMENT
$pdata$?XMVectorLerp@DirectX@@YQ?AT__m128@@T2@0M@Z DD imagerel $LN3
	DD	imagerel $LN3+193
	DD	imagerel $unwind$?XMVectorLerp@DirectX@@YQ?AT__m128@@T2@0M@Z
pdata	ENDS
;	COMDAT pdata
pdata	SEGMENT
$pdata$?XMVector3Length@DirectX@@YQ?AT__m128@@T2@@Z DD imagerel $LN3
	DD	imagerel $LN3+243
	DD	imagerel $unwind$?XMVector3Length@DirectX@@YQ?AT__m128@@T2@@Z
pdata	ENDS
;	COMDAT pdata
pdata	SEGMENT
$pdata$?XMVector3Normalize@DirectX@@YQ?AT__m128@@T2@@Z DD imagerel $LN3
	DD	imagerel $LN3+535
	DD	imagerel $unwind$?XMVector3Normalize@DirectX@@YQ?AT__m128@@T2@@Z
pdata	ENDS
;	COMDAT pdata
pdata	SEGMENT
$pdata$?XMMatrixMultiply@DirectX@@YQ?AUXMMATRIX@1@U21@AEBU21@@Z DD imagerel $LN3
	DD	imagerel $LN3+2098
	DD	imagerel $unwind$?XMMatrixMultiply@DirectX@@YQ?AUXMMATRIX@1@U21@AEBU21@@Z
pdata	ENDS
;	COMDAT pdata
pdata	SEGMENT
$pdata$?XMMatrixIdentity@DirectX@@YQ?AUXMMATRIX@1@XZ DD imagerel $LN3
	DD	imagerel $LN3+209
	DD	imagerel $unwind$?XMMatrixIdentity@DirectX@@YQ?AUXMMATRIX@1@XZ
pdata	ENDS
;	COMDAT pdata
pdata	SEGMENT
$pdata$?XMMatrixTranslation@DirectX@@YQ?AUXMMATRIX@1@MMM@Z DD imagerel $LN3
	DD	imagerel $LN3+270
	DD	imagerel $unwind$?XMMatrixTranslation@DirectX@@YQ?AUXMMATRIX@1@MMM@Z
pdata	ENDS
;	COMDAT pdata
pdata	SEGMENT
$pdata$?XMMatrixScaling@DirectX@@YQ?AUXMMATRIX@1@MMM@Z DD imagerel $LN3
	DD	imagerel $LN3+328
	DD	imagerel $unwind$?XMMatrixScaling@DirectX@@YQ?AUXMMATRIX@1@MMM@Z
pdata	ENDS
;	COMDAT pdata
pdata	SEGMENT
$pdata$?XMMatrixOrthographicLH@DirectX@@YQ?AUXMMATRIX@1@MMMM@Z DD imagerel $LN6
	DD	imagerel $LN6+844
	DD	imagerel $unwind$?XMMatrixOrthographicLH@DirectX@@YQ?AUXMMATRIX@1@MMMM@Z
pdata	ENDS
;	COMDAT pdata
pdata	SEGMENT
$pdata$?XMScalarNearEqual@DirectX@@YA_NMMM@Z DD imagerel $LN5
	DD	imagerel $LN5+130
	DD	imagerel $unwind$?XMScalarNearEqual@DirectX@@YA_NMMM@Z
pdata	ENDS
;	COMDAT pdata
pdata	SEGMENT
$pdata$??0CPlayerCamera@Client@@AEAA@PEAUID3D11Device@@PEAUID3D11DeviceContext@@@Z DD imagerel $LN4
	DD	imagerel $LN4+670
	DD	imagerel $unwind$??0CPlayerCamera@Client@@AEAA@PEAUID3D11Device@@PEAUID3D11DeviceContext@@@Z
pdata	ENDS
;	COMDAT pdata
pdata	SEGMENT
$pdata$?dtor$0@?0???0CPlayerCamera@Client@@AEAA@PEAUID3D11Device@@PEAUID3D11DeviceContext@@@Z@4HA DD imagerel ?dtor$0@?0???0CPlayerCamera@Client@@AEAA@PEAUID3D11Device@@PEAUID3D11DeviceContext@@@Z@4HA
	DD	imagerel ?dtor$0@?0???0CPlayerCamera@Client@@AEAA@PEAUID3D11Device@@PEAUID3D11DeviceContext@@@Z@4HA+40
	DD	imagerel $unwind$?dtor$0@?0???0CPlayerCamera@Client@@AEAA@PEAUID3D11Device@@PEAUID3D11DeviceContext@@@Z@4HA
pdata	ENDS
;	COMDAT pdata
pdata	SEGMENT
$pdata$??0CPlayerCamera@Client@@AEAA@AEBV01@@Z DD imagerel $LN4
	DD	imagerel $LN4+658
	DD	imagerel $unwind$??0CPlayerCamera@Client@@AEAA@AEBV01@@Z
pdata	ENDS
;	COMDAT pdata
pdata	SEGMENT
$pdata$?dtor$0@?0???0CPlayerCamera@Client@@AEAA@AEBV01@@Z@4HA DD imagerel ?dtor$0@?0???0CPlayerCamera@Client@@AEAA@AEBV01@@Z@4HA
	DD	imagerel ?dtor$0@?0???0CPlayerCamera@Client@@AEAA@AEBV01@@Z@4HA+40
	DD	imagerel $unwind$?dtor$0@?0???0CPlayerCamera@Client@@AEAA@AEBV01@@Z@4HA
pdata	ENDS
;	COMDAT pdata
pdata	SEGMENT
$pdata$??1CPlayerCamera@Client@@EEAA@XZ DD imagerel $LN3
	DD	imagerel $LN3+65
	DD	imagerel $unwind$??1CPlayerCamera@Client@@EEAA@XZ
pdata	ENDS
;	COMDAT pdata
pdata	SEGMENT
$pdata$?Initialize_Prototype@CPlayerCamera@Client@@UEAAJXZ DD imagerel $LN4
	DD	imagerel $LN4+78
	DD	imagerel $unwind$?Initialize_Prototype@CPlayerCamera@Client@@UEAAJXZ
pdata	ENDS
;	COMDAT pdata
pdata	SEGMENT
$pdata$?Initialize@CPlayerCamera@Client@@UEAAJPEAX@Z DD imagerel $LN11
	DD	imagerel $LN11+1921
	DD	imagerel $unwind$?Initialize@CPlayerCamera@Client@@UEAAJPEAX@Z
pdata	ENDS
;	COMDAT pdata
pdata	SEGMENT
$pdata$?Tick@CPlayerCamera@Client@@UEAAXN@Z DD imagerel $LN12
	DD	imagerel $LN12+466
	DD	imagerel $unwind$?Tick@CPlayerCamera@Client@@UEAAXN@Z
pdata	ENDS
;	COMDAT pdata
pdata	SEGMENT
$pdata$?LateTick@CPlayerCamera@Client@@UEAAXN@Z DD imagerel $LN12
	DD	imagerel $LN12+605
	DD	imagerel $unwind$?LateTick@CPlayerCamera@Client@@UEAAXN@Z
pdata	ENDS
;	COMDAT pdata
pdata	SEGMENT
$pdata$?Render@CPlayerCamera@Client@@UEAAJXZ DD imagerel $LN11
	DD	imagerel $LN11+586
	DD	imagerel $unwind$?Render@CPlayerCamera@Client@@UEAAJXZ
pdata	ENDS
;	COMDAT pdata
pdata	SEGMENT
$pdata$?AttackShake@CPlayerCamera@Client@@QEAAXXZ DD imagerel $LN3
	DD	imagerel $LN3+94
	DD	imagerel $unwind$?AttackShake@CPlayerCamera@Client@@QEAAXXZ
pdata	ENDS
;	COMDAT pdata
pdata	SEGMENT
$pdata$?Add_Components@CPlayerCamera@Client@@QEAAJXZ DD imagerel $LN3
	DD	imagerel $LN3+52
	DD	imagerel $unwind$?Add_Components@CPlayerCamera@Client@@QEAAJXZ
pdata	ENDS
;	COMDAT pdata
pdata	SEGMENT
$pdata$?Setup_ShaderResources@CPlayerCamera@Client@@QEAAJXZ DD imagerel $LN3
	DD	imagerel $LN3+52
	DD	imagerel $unwind$?Setup_ShaderResources@CPlayerCamera@Client@@QEAAJXZ
pdata	ENDS
;	COMDAT pdata
pdata	SEGMENT
$pdata$?DefaultCameraMovement@CPlayerCamera@Client@@AEAAXN@Z DD imagerel $LN8
	DD	imagerel $LN8+1886
	DD	imagerel $unwind$?DefaultCameraMovement@CPlayerCamera@Client@@AEAAXN@Z
pdata	ENDS
;	COMDAT pdata
pdata	SEGMENT
$pdata$?WinActionMovement@CPlayerCamera@Client@@AEAAXN@Z DD imagerel $LN5
	DD	imagerel $LN5+649
	DD	imagerel $unwind$?WinActionMovement@CPlayerCamera@Client@@AEAAXN@Z
pdata	ENDS
;	COMDAT pdata
pdata	SEGMENT
$pdata$?Create@CPlayerCamera@Client@@SAPEAV12@PEAUID3D11Device@@PEAUID3D11DeviceContext@@@Z DD imagerel $LN7
	DD	imagerel $LN7+294
	DD	imagerel $unwind$?Create@CPlayerCamera@Client@@SAPEAV12@PEAUID3D11Device@@PEAUID3D11DeviceContext@@@Z
pdata	ENDS
;	COMDAT pdata
pdata	SEGMENT
$pdata$?dtor$0@?0??Create@CPlayerCamera@Client@@SAPEAV12@PEAUID3D11Device@@PEAUID3D11DeviceContext@@@Z@4HA DD imagerel ?dtor$0@?0??Create@CPlayerCamera@Client@@SAPEAV12@PEAUID3D11Device@@PEAUID3D11DeviceContext@@@Z@4HA
	DD	imagerel ?dtor$0@?0??Create@CPlayerCamera@Client@@SAPEAV12@PEAUID3D11Device@@PEAUID3D11DeviceContext@@@Z@4HA+61
	DD	imagerel $unwind$?dtor$0@?0??Create@CPlayerCamera@Client@@SAPEAV12@PEAUID3D11Device@@PEAUID3D11DeviceContext@@@Z@4HA
pdata	ENDS
;	COMDAT pdata
pdata	SEGMENT
$pdata$?Clone@CPlayerCamera@Client@@UEAAPEAVCGameObject@Engine@@PEAX@Z DD imagerel $LN7
	DD	imagerel $LN7+294
	DD	imagerel $unwind$?Clone@CPlayerCamera@Client@@UEAAPEAVCGameObject@Engine@@PEAX@Z
pdata	ENDS
;	COMDAT pdata
pdata	SEGMENT
$pdata$?dtor$0@?0??Clone@CPlayerCamera@Client@@UEAAPEAVCGameObject@Engine@@PEAX@Z@4HA DD imagerel ?dtor$0@?0??Clone@CPlayerCamera@Client@@UEAAPEAVCGameObject@Engine@@PEAX@Z@4HA
	DD	imagerel ?dtor$0@?0??Clone@CPlayerCamera@Client@@UEAAPEAVCGameObject@Engine@@PEAX@Z@4HA+61
	DD	imagerel $unwind$?dtor$0@?0??Clone@CPlayerCamera@Client@@UEAAPEAVCGameObject@Engine@@PEAX@Z@4HA
pdata	ENDS
;	COMDAT pdata
pdata	SEGMENT
$pdata$?Free@CPlayerCamera@Client@@UEAAXXZ DD imagerel $LN3
	DD	imagerel $LN3+168
	DD	imagerel $unwind$?Free@CPlayerCamera@Client@@UEAAXXZ
pdata	ENDS
;	COMDAT pdata
pdata	SEGMENT
$pdata$??_GCPlayerCamera@Client@@EEAAPEAXI@Z DD imagerel $LN4
	DD	imagerel $LN4+105
	DD	imagerel $unwind$??_GCPlayerCamera@Client@@EEAAPEAXI@Z
pdata	ENDS
;	COMDAT pdata
pdata	SEGMENT
$pdata$??0tagColliderDesc@CCollider@Engine@@QEAA@XZ DD imagerel $LN3
	DD	imagerel $LN3+116
	DD	imagerel $unwind$??0tagColliderDesc@CCollider@Engine@@QEAA@XZ
pdata	ENDS
;	COMDAT pdata
pdata	SEGMENT
$pdata$?SetWinMotion@CCharacter@Client@@QEAAX_N@Z DD imagerel $LN3
	DD	imagerel $LN3+74
	DD	imagerel $unwind$?SetWinMotion@CCharacter@Client@@QEAAX_N@Z
pdata	ENDS
;	COMDAT pdata
pdata	SEGMENT
$pdata$?GetLockOnTarget@CCharacter@Client@@QEAAPEAVCGameObject@Engine@@XZ DD imagerel $LN5
	DD	imagerel $LN5+108
	DD	imagerel $unwind$?GetLockOnTarget@CCharacter@Client@@QEAAPEAVCGameObject@Engine@@XZ
pdata	ENDS
;	COMDAT pdata
pdata	SEGMENT
$pdata$?SetLevelFinish@CApplicationManager@Client@@QEAAXW4LEVEL@12@@Z DD imagerel $LN3
	DD	imagerel $LN3+72
	DD	imagerel $unwind$?SetLevelFinish@CApplicationManager@Client@@QEAAXW4LEVEL@12@@Z
pdata	ENDS
;	COMDAT pdata
pdata	SEGMENT
$pdata$?IsLevelFinish@CApplicationManager@Client@@QEAA_NW4LEVEL@12@@Z DD imagerel $LN3
	DD	imagerel $LN3+72
	DD	imagerel $unwind$?IsLevelFinish@CApplicationManager@Client@@QEAA_NW4LEVEL@12@@Z
pdata	ENDS
;	COMDAT pdata
pdata	SEGMENT
$pdata$?SetWinMotion@CApplicationManager@Client@@QEAAX_N@Z DD imagerel $LN3
	DD	imagerel $LN3+71
	DD	imagerel $unwind$?SetWinMotion@CApplicationManager@Client@@QEAAX_N@Z
pdata	ENDS
;	COMDAT pdata
pdata	SEGMENT
$pdata$??$Safe_Release@PEAVCPlayerCamera@Client@@@Engine@@YAKAEAPEAVCPlayerCamera@Client@@@Z DD imagerel $LN5
	DD	imagerel $LN5+114
	DD	imagerel $unwind$??$Safe_Release@PEAVCPlayerCamera@Client@@@Engine@@YAKAEAPEAVCPlayerCamera@Client@@@Z
pdata	ENDS
;	COMDAT pdata
pdata	SEGMENT
$pdata$??$Safe_Release@PEAVCTransform@Engine@@@Engine@@YAKAEAPEAVCTransform@0@@Z DD imagerel $LN5
	DD	imagerel $LN5+114
	DD	imagerel $unwind$??$Safe_Release@PEAVCTransform@Engine@@@Engine@@YAKAEAPEAVCTransform@0@@Z
pdata	ENDS
;	COMDAT pdata
pdata	SEGMENT
$pdata$??$Safe_Release@PEAVCRenderer@Engine@@@Engine@@YAKAEAPEAVCRenderer@0@@Z DD imagerel $LN5
	DD	imagerel $LN5+114
	DD	imagerel $unwind$??$Safe_Release@PEAVCRenderer@Engine@@@Engine@@YAKAEAPEAVCRenderer@0@@Z
pdata	ENDS
;	COMDAT pdata
pdata	SEGMENT
$pdata$??$Safe_Release@PEAVCShader@Engine@@@Engine@@YAKAEAPEAVCShader@0@@Z DD imagerel $LN5
	DD	imagerel $LN5+114
	DD	imagerel $unwind$??$Safe_Release@PEAVCShader@Engine@@@Engine@@YAKAEAPEAVCShader@0@@Z
pdata	ENDS
;	COMDAT pdata
pdata	SEGMENT
$pdata$??$Safe_Release@PEAVCVIBuffer_Rect@Engine@@@Engine@@YAKAEAPEAVCVIBuffer_Rect@0@@Z DD imagerel $LN5
	DD	imagerel $LN5+114
	DD	imagerel $unwind$??$Safe_Release@PEAVCVIBuffer_Rect@Engine@@@Engine@@YAKAEAPEAVCVIBuffer_Rect@0@@Z
pdata	ENDS
;	COMDAT pdata
pdata	SEGMENT
$pdata$??$Safe_Release@PEAVCTexture@Engine@@@Engine@@YAKAEAPEAVCTexture@0@@Z DD imagerel $LN5
	DD	imagerel $LN5+114
	DD	imagerel $unwind$??$Safe_Release@PEAVCTexture@Engine@@@Engine@@YAKAEAPEAVCTexture@0@@Z
pdata	ENDS
;	COMDAT __xmm@80000000800000008000000080000000
CONST	SEGMENT
__xmm@80000000800000008000000080000000 DB 00H, 00H, 00H, 080H, 00H, 00H, 00H
	DB	080H, 00H, 00H, 00H, 080H, 00H, 00H, 00H, 080H
CONST	ENDS
;	COMDAT __xmm@00000000000000000000000000000000
CONST	SEGMENT
__xmm@00000000000000000000000000000000 DB 00H, 00H, 00H, 00H, 00H, 00H, 00H
	DB	00H, 00H, 00H, 00H, 00H, 00H, 00H, 00H, 00H
CONST	ENDS
;	COMDAT __real@44bb8000
CONST	SEGMENT
__real@44bb8000 DD 044bb8000r			; 1500
CONST	ENDS
;	COMDAT __real@44a00000
CONST	SEGMENT
__real@44a00000 DD 044a00000r			; 1280
CONST	ENDS
;	COMDAT __real@44340000
CONST	SEGMENT
__real@44340000 DD 044340000r			; 720
CONST	ENDS
;	COMDAT __real@44200000
CONST	SEGMENT
__real@44200000 DD 044200000r			; 640
CONST	ENDS
;	COMDAT __real@43b40000
CONST	SEGMENT
__real@43b40000 DD 043b40000r			; 360
CONST	ENDS
;	COMDAT __real@42340000
CONST	SEGMENT
__real@42340000 DD 042340000r			; 45
CONST	ENDS
;	COMDAT __real@40f00000
CONST	SEGMENT
__real@40f00000 DD 040f00000r			; 7.5
CONST	ENDS
;	COMDAT __real@40e00000
CONST	SEGMENT
__real@40e00000 DD 040e00000r			; 7
CONST	ENDS
;	COMDAT __real@40c00000
CONST	SEGMENT
__real@40c00000 DD 040c00000r			; 6
CONST	ENDS
;	COMDAT __real@40800000
CONST	SEGMENT
__real@40800000 DD 040800000r			; 4
CONST	ENDS
;	COMDAT __real@40400000
CONST	SEGMENT
__real@40400000 DD 040400000r			; 3
CONST	ENDS
;	COMDAT __real@40200000
CONST	SEGMENT
__real@40200000 DD 040200000r			; 2.5
CONST	ENDS
;	COMDAT __real@40000000
CONST	SEGMENT
__real@40000000 DD 040000000r			; 2
CONST	ENDS
;	COMDAT __real@3ff8000000000000
CONST	SEGMENT
__real@3ff8000000000000 DQ 03ff8000000000000r	; 1.5
CONST	ENDS
;	COMDAT __real@3fc00000
CONST	SEGMENT
__real@3fc00000 DD 03fc00000r			; 1.5
CONST	ENDS
;	COMDAT __real@3f99999a
CONST	SEGMENT
__real@3f99999a DD 03f99999ar			; 1.2
CONST	ENDS
;	COMDAT __real@3f800000
CONST	SEGMENT
__real@3f800000 DD 03f800000r			; 1
CONST	ENDS
;	COMDAT __real@3f000000
CONST	SEGMENT
__real@3f000000 DD 03f000000r			; 0.5
CONST	ENDS
;	COMDAT __real@3dcccccd
CONST	SEGMENT
__real@3dcccccd DD 03dcccccdr			; 0.1
CONST	ENDS
;	COMDAT __real@3d4ccccd
CONST	SEGMENT
__real@3d4ccccd DD 03d4ccccdr			; 0.05
CONST	ENDS
;	COMDAT __real@3c8efa35
CONST	SEGMENT
__real@3c8efa35 DD 03c8efa35r			; 0.0174533
CONST	ENDS
;	COMDAT __real@3727c5ac
CONST	SEGMENT
__real@3727c5ac DD 03727c5acr			; 1e-05
CONST	ENDS
;	COMDAT rtc$TMZ
rtc$TMZ	SEGMENT
_RTC_Shutdown.rtc$TMZ DQ FLAT:_RTC_Shutdown
rtc$TMZ	ENDS
;	COMDAT rtc$IMZ
rtc$IMZ	SEGMENT
_RTC_InitBase.rtc$IMZ DQ FLAT:_RTC_InitBase
rtc$IMZ	ENDS
;	COMDAT ??_R2CBase@Engine@@8
rdata$r	SEGMENT
??_R2CBase@Engine@@8 DD imagerel ??_R1A@?0A@EA@CBase@Engine@@8 ; Engine::CBase::`RTTI Base Class Array'
	ORG $+3
rdata$r	ENDS
;	COMDAT ??_R3CBase@Engine@@8
rdata$r	SEGMENT
??_R3CBase@Engine@@8 DD 00H				; Engine::CBase::`RTTI Class Hierarchy Descriptor'
	DD	00H
	DD	01H
	DD	imagerel ??_R2CBase@Engine@@8
rdata$r	ENDS
;	COMDAT ??_R0?AVCBase@Engine@@@8
data$r	SEGMENT
??_R0?AVCBase@Engine@@@8 DQ FLAT:??_7type_info@@6B@	; Engine::CBase `RTTI Type Descriptor'
	DQ	0000000000000000H
	DB	'.?AVCBase@Engine@@', 00H
data$r	ENDS
;	COMDAT ??_R1A@?0A@EA@CBase@Engine@@8
rdata$r	SEGMENT
??_R1A@?0A@EA@CBase@Engine@@8 DD imagerel ??_R0?AVCBase@Engine@@@8 ; Engine::CBase::`RTTI Base Class Descriptor at (0,-1,0,64)'
	DD	00H
	DD	00H
	DD	0ffffffffH
	DD	00H
	DD	040H
	DD	imagerel ??_R3CBase@Engine@@8
rdata$r	ENDS
;	COMDAT ??_R2CGameObject@Engine@@8
rdata$r	SEGMENT
??_R2CGameObject@Engine@@8 DD imagerel ??_R1A@?0A@EA@CGameObject@Engine@@8 ; Engine::CGameObject::`RTTI Base Class Array'
	DD	imagerel ??_R1A@?0A@EA@CBase@Engine@@8
	ORG $+3
rdata$r	ENDS
;	COMDAT ??_R3CGameObject@Engine@@8
rdata$r	SEGMENT
??_R3CGameObject@Engine@@8 DD 00H			; Engine::CGameObject::`RTTI Class Hierarchy Descriptor'
	DD	00H
	DD	02H
	DD	imagerel ??_R2CGameObject@Engine@@8
rdata$r	ENDS
;	COMDAT ??_R1A@?0A@EA@CGameObject@Engine@@8
rdata$r	SEGMENT
??_R1A@?0A@EA@CGameObject@Engine@@8 DD imagerel ??_R0?AVCGameObject@Engine@@@8 ; Engine::CGameObject::`RTTI Base Class Descriptor at (0,-1,0,64)'
	DD	01H
	DD	00H
	DD	0ffffffffH
	DD	00H
	DD	040H
	DD	imagerel ??_R3CGameObject@Engine@@8
rdata$r	ENDS
;	COMDAT ??_R2CCamera@Engine@@8
rdata$r	SEGMENT
??_R2CCamera@Engine@@8 DD imagerel ??_R1A@?0A@EA@CCamera@Engine@@8 ; Engine::CCamera::`RTTI Base Class Array'
	DD	imagerel ??_R1A@?0A@EA@CGameObject@Engine@@8
	DD	imagerel ??_R1A@?0A@EA@CBase@Engine@@8
	ORG $+3
rdata$r	ENDS
;	COMDAT ??_R3CCamera@Engine@@8
rdata$r	SEGMENT
??_R3CCamera@Engine@@8 DD 00H				; Engine::CCamera::`RTTI Class Hierarchy Descriptor'
	DD	00H
	DD	03H
	DD	imagerel ??_R2CCamera@Engine@@8
rdata$r	ENDS
;	COMDAT ??_R0?AVCCamera@Engine@@@8
data$r	SEGMENT
??_R0?AVCCamera@Engine@@@8 DQ FLAT:??_7type_info@@6B@	; Engine::CCamera `RTTI Type Descriptor'
	DQ	0000000000000000H
	DB	'.?AVCCamera@Engine@@', 00H
data$r	ENDS
;	COMDAT ??_R1A@?0A@EA@CCamera@Engine@@8
rdata$r	SEGMENT
??_R1A@?0A@EA@CCamera@Engine@@8 DD imagerel ??_R0?AVCCamera@Engine@@@8 ; Engine::CCamera::`RTTI Base Class Descriptor at (0,-1,0,64)'
	DD	02H
	DD	00H
	DD	0ffffffffH
	DD	00H
	DD	040H
	DD	imagerel ??_R3CCamera@Engine@@8
rdata$r	ENDS
;	COMDAT ??_R1A@?0A@EA@CPlayerCamera@Client@@8
rdata$r	SEGMENT
??_R1A@?0A@EA@CPlayerCamera@Client@@8 DD imagerel ??_R0?AVCPlayerCamera@Client@@@8 ; Client::CPlayerCamera::`RTTI Base Class Descriptor at (0,-1,0,64)'
	DD	03H
	DD	00H
	DD	0ffffffffH
	DD	00H
	DD	040H
	DD	imagerel ??_R3CPlayerCamera@Client@@8
rdata$r	ENDS
;	COMDAT ??_R2CPlayerCamera@Client@@8
rdata$r	SEGMENT
??_R2CPlayerCamera@Client@@8 DD imagerel ??_R1A@?0A@EA@CPlayerCamera@Client@@8 ; Client::CPlayerCamera::`RTTI Base Class Array'
	DD	imagerel ??_R1A@?0A@EA@CCamera@Engine@@8
	DD	imagerel ??_R1A@?0A@EA@CGameObject@Engine@@8
	DD	imagerel ??_R1A@?0A@EA@CBase@Engine@@8
	ORG $+3
rdata$r	ENDS
;	COMDAT ??_R3CPlayerCamera@Client@@8
rdata$r	SEGMENT
??_R3CPlayerCamera@Client@@8 DD 00H			; Client::CPlayerCamera::`RTTI Class Hierarchy Descriptor'
	DD	00H
	DD	04H
	DD	imagerel ??_R2CPlayerCamera@Client@@8
rdata$r	ENDS
;	COMDAT ??_R0?AVCPlayerCamera@Client@@@8
data$r	SEGMENT
??_R0?AVCPlayerCamera@Client@@@8 DQ FLAT:??_7type_info@@6B@ ; Client::CPlayerCamera `RTTI Type Descriptor'
	DQ	0000000000000000H
	DB	'.?AVCPlayerCamera@Client@@', 00H
data$r	ENDS
;	COMDAT ??_R4CPlayerCamera@Client@@6B@
rdata$r	SEGMENT
??_R4CPlayerCamera@Client@@6B@ DD 01H			; Client::CPlayerCamera::`RTTI Complete Object Locator'
	DD	00H
	DD	00H
	DD	imagerel ??_R0?AVCPlayerCamera@Client@@@8
	DD	imagerel ??_R3CPlayerCamera@Client@@8
	DD	imagerel ??_R4CPlayerCamera@Client@@6B@
rdata$r	ENDS
;	COMDAT ??_C@_1EC@NFPGCMME@?$AAF?$AAa?$AAi?$AAl?$AAe?$AAd?$AA?5?$AAt?$AAo?$AA?5?$AAC?$AAl?$AAo?$AAn?$AAe?$AAd?$AA?5?$AA?3?$AA?5?$AAC?$AAP?$AAl?$AAa?$AAy?$AAe?$AAr?$AAC?$AAa?$AAm?$AAe?$AAr?$AAa@
CONST	SEGMENT
??_C@_1EC@NFPGCMME@?$AAF?$AAa?$AAi?$AAl?$AAe?$AAd?$AA?5?$AAt?$AAo?$AA?5?$AAC?$AAl?$AAo?$AAn?$AAe?$AAd?$AA?5?$AA?3?$AA?5?$AAC?$AAP?$AAl?$AAa?$AAy?$AAe?$AAr?$AAC?$AAa?$AAm?$AAe?$AAr?$AAa@ DB 'F'
	DB	00H, 'a', 00H, 'i', 00H, 'l', 00H, 'e', 00H, 'd', 00H, ' ', 00H
	DB	't', 00H, 'o', 00H, ' ', 00H, 'C', 00H, 'l', 00H, 'o', 00H, 'n'
	DB	00H, 'e', 00H, 'd', 00H, ' ', 00H, ':', 00H, ' ', 00H, 'C', 00H
	DB	'P', 00H, 'l', 00H, 'a', 00H, 'y', 00H, 'e', 00H, 'r', 00H, 'C'
	DB	00H, 'a', 00H, 'm', 00H, 'e', 00H, 'r', 00H, 'a', 00H, 00H, 00H ; `string'
CONST	ENDS
;	COMDAT ?__LINE__Var@?0??Clone@CPlayerCamera@Client@@UEAAPEAVCGameObject@Engine@@PEAX@Z@4JA
_DATA	SEGMENT
?__LINE__Var@?0??Clone@CPlayerCamera@Client@@UEAAPEAVCGameObject@Engine@@PEAX@Z@4JA DD 0176H ; `Client::CPlayerCamera::Clone'::`1'::__LINE__Var
_DATA	ENDS
;	COMDAT ??_C@_1EE@CMOMLOPH@?$AAF?$AAa?$AAi?$AAl?$AAe?$AAd?$AA?5?$AAt?$AAo?$AA?5?$AAC?$AAr?$AAe?$AAa?$AAt?$AAe?$AAd?$AA?5?$AA?3?$AA?5?$AAC?$AAP?$AAl?$AAa?$AAy?$AAe?$AAr?$AAC?$AAa?$AAm?$AAe?$AAr@
CONST	SEGMENT
??_C@_1EE@CMOMLOPH@?$AAF?$AAa?$AAi?$AAl?$AAe?$AAd?$AA?5?$AAt?$AAo?$AA?5?$AAC?$AAr?$AAe?$AAa?$AAt?$AAe?$AAd?$AA?5?$AA?3?$AA?5?$AAC?$AAP?$AAl?$AAa?$AAy?$AAe?$AAr?$AAC?$AAa?$AAm?$AAe?$AAr@ DB 'F'
	DB	00H, 'a', 00H, 'i', 00H, 'l', 00H, 'e', 00H, 'd', 00H, ' ', 00H
	DB	't', 00H, 'o', 00H, ' ', 00H, 'C', 00H, 'r', 00H, 'e', 00H, 'a'
	DB	00H, 't', 00H, 'e', 00H, 'd', 00H, ' ', 00H, ':', 00H, ' ', 00H
	DB	'C', 00H, 'P', 00H, 'l', 00H, 'a', 00H, 'y', 00H, 'e', 00H, 'r'
	DB	00H, 'C', 00H, 'a', 00H, 'm', 00H, 'e', 00H, 'r', 00H, 'a', 00H
	DB	00H, 00H					; `string'
CONST	ENDS
;	COMDAT ??_C@_1BA@HHOMBECE@?$AAM?$AAe?$AAs?$AAs?$AAa?$AAg?$AAe?$AA?$AA@
CONST	SEGMENT
??_C@_1BA@HHOMBECE@?$AAM?$AAe?$AAs?$AAs?$AAa?$AAg?$AAe?$AA?$AA@ DB 'M', 00H
	DB	'e', 00H, 's', 00H, 's', 00H, 'a', 00H, 'g', 00H, 'e', 00H, 00H
	DB	00H						; `string'
CONST	ENDS
;	COMDAT ??_C@_0EK@IICOGJBM@c?3?2users?2arcco?2documents?2github?2@
CONST	SEGMENT
??_C@_0EK@IICOGJBM@c?3?2users?2arcco?2documents?2github?2@ DB 'c:\users\a'
	DB	'rcco\documents\github\framework\client\private\playercamera.c'
	DB	'pp', 00H					; `string'
CONST	ENDS
;	COMDAT ?__LINE__Var@?0??Create@CPlayerCamera@Client@@SAPEAV23@PEAUID3D11Device@@PEAUID3D11DeviceContext@@@Z@4JA
_DATA	SEGMENT
?__LINE__Var@?0??Create@CPlayerCamera@Client@@SAPEAV23@PEAUID3D11Device@@PEAUID3D11DeviceContext@@@Z@4JA DD 016aH ; `Client::CPlayerCamera::Create'::`1'::__LINE__Var
_DATA	ENDS
;	COMDAT ??_R0?AVCBoss@Client@@@8
data$r	SEGMENT
??_R0?AVCBoss@Client@@@8 DQ FLAT:??_7type_info@@6B@	; Client::CBoss `RTTI Type Descriptor'
	DQ	0000000000000000H
	DB	'.?AVCBoss@Client@@', 00H
data$r	ENDS
;	COMDAT ??_R0?AVCGameObject@Engine@@@8
data$r	SEGMENT
??_R0?AVCGameObject@Engine@@@8 DQ FLAT:??_7type_info@@6B@ ; Engine::CGameObject `RTTI Type Descriptor'
	DQ	0000000000000000H
	DB	'.?AVCGameObject@Engine@@', 00H
data$r	ENDS
;	COMDAT ??_C@_0P@IKACEMKG@g_DiscardValue?$AA@
CONST	SEGMENT
??_C@_0P@IKACEMKG@g_DiscardValue?$AA@ DB 'g_DiscardValue', 00H ; `string'
CONST	ENDS
;	COMDAT ??_C@_07FMLFDDAN@g_Alpha?$AA@
CONST	SEGMENT
??_C@_07FMLFDDAN@g_Alpha?$AA@ DB 'g_Alpha', 00H		; `string'
CONST	ENDS
;	COMDAT ??_C@_0N@PLHHBDPH@g_FillAmount?$AA@
CONST	SEGMENT
??_C@_0N@PLHHBDPH@g_FillAmount?$AA@ DB 'g_FillAmount', 00H ; `string'
CONST	ENDS
;	COMDAT ??_C@_09HCHKCCII@g_Texture?$AA@
CONST	SEGMENT
??_C@_09HCHKCCII@g_Texture?$AA@ DB 'g_Texture', 00H	; `string'
CONST	ENDS
;	COMDAT ??_C@_0N@OOHDPIO@g_ProjMatrix?$AA@
CONST	SEGMENT
??_C@_0N@OOHDPIO@g_ProjMatrix?$AA@ DB 'g_ProjMatrix', 00H ; `string'
CONST	ENDS
;	COMDAT ??_C@_0N@ELIMCBLG@g_ViewMatrix?$AA@
CONST	SEGMENT
??_C@_0N@ELIMCBLG@g_ViewMatrix?$AA@ DB 'g_ViewMatrix', 00H ; `string'
CONST	ENDS
;	COMDAT ??_C@_0O@PFNLPMLD@g_WorldMatrix?$AA@
CONST	SEGMENT
??_C@_0O@PFNLPMLD@g_WorldMatrix?$AA@ DB 'g_WorldMatrix', 00H ; `string'
CONST	ENDS
;	COMDAT ??_C@_1CI@NFFEDNON@?$AAp?$AAr?$AAo?$AAt?$AAo?$AA_?$AAc?$AAo?$AAm?$AA_?$AAs?$AAh?$AAa?$AAd?$AAe?$AAr?$AA_?$AAu?$AAi?$AA?$AA@
CONST	SEGMENT
??_C@_1CI@NFFEDNON@?$AAp?$AAr?$AAo?$AAt?$AAo?$AA_?$AAc?$AAo?$AAm?$AA_?$AAs?$AAh?$AAa?$AAd?$AAe?$AAr?$AA_?$AAu?$AAi?$AA?$AA@ DB 'p'
	DB	00H, 'r', 00H, 'o', 00H, 't', 00H, 'o', 00H, '_', 00H, 'c', 00H
	DB	'o', 00H, 'm', 00H, '_', 00H, 's', 00H, 'h', 00H, 'a', 00H, 'd'
	DB	00H, 'e', 00H, 'r', 00H, '_', 00H, 'u', 00H, 'i', 00H, 00H, 00H ; `string'
CONST	ENDS
;	COMDAT ??_C@_1BG@GGOMMBBL@?$AAc?$AAo?$AAm?$AA_?$AAs?$AAh?$AAa?$AAd?$AAe?$AAr?$AA?$AA@
CONST	SEGMENT
??_C@_1BG@GGOMMBBL@?$AAc?$AAo?$AAm?$AA_?$AAs?$AAh?$AAa?$AAd?$AAe?$AAr?$AA?$AA@ DB 'c'
	DB	00H, 'o', 00H, 'm', 00H, '_', 00H, 's', 00H, 'h', 00H, 'a', 00H
	DB	'd', 00H, 'e', 00H, 'r', 00H, 00H, 00H	; `string'
CONST	ENDS
;	COMDAT ??_C@_1DA@CAAHNHCD@?$AAp?$AAr?$AAo?$AAt?$AAo?$AA_?$AAc?$AAo?$AAm?$AA_?$AAt?$AAe?$AAx?$AAt?$AAu?$AAr?$AAe?$AA_?$AAb?$AAl?$AAa?$AAc?$AAk?$AA?$AA@
CONST	SEGMENT
??_C@_1DA@CAAHNHCD@?$AAp?$AAr?$AAo?$AAt?$AAo?$AA_?$AAc?$AAo?$AAm?$AA_?$AAt?$AAe?$AAx?$AAt?$AAu?$AAr?$AAe?$AA_?$AAb?$AAl?$AAa?$AAc?$AAk?$AA?$AA@ DB 'p'
	DB	00H, 'r', 00H, 'o', 00H, 't', 00H, 'o', 00H, '_', 00H, 'c', 00H
	DB	'o', 00H, 'm', 00H, '_', 00H, 't', 00H, 'e', 00H, 'x', 00H, 't'
	DB	00H, 'u', 00H, 'r', 00H, 'e', 00H, '_', 00H, 'b', 00H, 'l', 00H
	DB	'a', 00H, 'c', 00H, 'k', 00H, 00H, 00H	; `string'
CONST	ENDS
;	COMDAT ??_C@_1BI@MJAKLHOB@?$AAc?$AAo?$AAm?$AA_?$AAt?$AAe?$AAx?$AAt?$AAu?$AAr?$AAe?$AA?$AA@
CONST	SEGMENT
??_C@_1BI@MJAKLHOB@?$AAc?$AAo?$AAm?$AA_?$AAt?$AAe?$AAx?$AAt?$AAu?$AAr?$AAe?$AA?$AA@ DB 'c'
	DB	00H, 'o', 00H, 'm', 00H, '_', 00H, 't', 00H, 'e', 00H, 'x', 00H
	DB	't', 00H, 'u', 00H, 'r', 00H, 'e', 00H, 00H, 00H ; `string'
CONST	ENDS
;	COMDAT ??_C@_1DA@BAIPNHMH@?$AAp?$AAr?$AAo?$AAt?$AAo?$AA_?$AAc?$AAo?$AAm?$AA_?$AAv?$AAi?$AAb?$AAu?$AAf?$AAf?$AAe?$AAr?$AA_?$AAr?$AAe?$AAc?$AAt?$AA?$AA@
CONST	SEGMENT
??_C@_1DA@BAIPNHMH@?$AAp?$AAr?$AAo?$AAt?$AAo?$AA_?$AAc?$AAo?$AAm?$AA_?$AAv?$AAi?$AAb?$AAu?$AAf?$AAf?$AAe?$AAr?$AA_?$AAr?$AAe?$AAc?$AAt?$AA?$AA@ DB 'p'
	DB	00H, 'r', 00H, 'o', 00H, 't', 00H, 'o', 00H, '_', 00H, 'c', 00H
	DB	'o', 00H, 'm', 00H, '_', 00H, 'v', 00H, 'i', 00H, 'b', 00H, 'u'
	DB	00H, 'f', 00H, 'f', 00H, 'e', 00H, 'r', 00H, '_', 00H, 'r', 00H
	DB	'e', 00H, 'c', 00H, 't', 00H, 00H, 00H	; `string'
CONST	ENDS
;	COMDAT ??_C@_1BG@KPBPOMBH@?$AAc?$AAo?$AAm?$AA_?$AAb?$AAu?$AAf?$AAf?$AAe?$AAr?$AA?$AA@
CONST	SEGMENT
??_C@_1BG@KPBPOMBH@?$AAc?$AAo?$AAm?$AA_?$AAb?$AAu?$AAf?$AAf?$AAe?$AAr?$AA?$AA@ DB 'c'
	DB	00H, 'o', 00H, 'm', 00H, '_', 00H, 'b', 00H, 'u', 00H, 'f', 00H
	DB	'f', 00H, 'e', 00H, 'r', 00H, 00H, 00H	; `string'
CONST	ENDS
;	COMDAT ??_C@_1CG@COFFFCLL@?$AAp?$AAr?$AAo?$AAt?$AAo?$AA_?$AAc?$AAo?$AAm?$AA_?$AAr?$AAe?$AAn?$AAd?$AAe?$AAr?$AAe?$AAr?$AA?$AA@
CONST	SEGMENT
??_C@_1CG@COFFFCLL@?$AAp?$AAr?$AAo?$AAt?$AAo?$AA_?$AAc?$AAo?$AAm?$AA_?$AAr?$AAe?$AAn?$AAd?$AAe?$AAr?$AAe?$AAr?$AA?$AA@ DB 'p'
	DB	00H, 'r', 00H, 'o', 00H, 't', 00H, 'o', 00H, '_', 00H, 'c', 00H
	DB	'o', 00H, 'm', 00H, '_', 00H, 'r', 00H, 'e', 00H, 'n', 00H, 'd'
	DB	00H, 'e', 00H, 'r', 00H, 'e', 00H, 'r', 00H, 00H, 00H ; `string'
CONST	ENDS
;	COMDAT ??_C@_1BK@GIOMOCNE@?$AAc?$AAo?$AAm?$AA_?$AAr?$AAe?$AAn?$AAd?$AAe?$AAr?$AAe?$AAr?$AA?$AA@
CONST	SEGMENT
??_C@_1BK@GIOMOCNE@?$AAc?$AAo?$AAm?$AA_?$AAr?$AAe?$AAn?$AAd?$AAe?$AAr?$AAe?$AAr?$AA?$AA@ DB 'c'
	DB	00H, 'o', 00H, 'm', 00H, '_', 00H, 'r', 00H, 'e', 00H, 'n', 00H
	DB	'd', 00H, 'e', 00H, 'r', 00H, 'e', 00H, 'r', 00H, 00H, 00H ; `string'
CONST	ENDS
;	COMDAT ??_C@_1CO@HJBGOIAH@?$AAp?$AAr?$AAo?$AAt?$AAo?$AA_?$AAc?$AAo?$AAm?$AA_?$AAo?$AAb?$AAb?$AA_?$AAc?$AAo?$AAl?$AAl?$AAi?$AAd?$AAe?$AAr?$AA?$AA@
CONST	SEGMENT
??_C@_1CO@HJBGOIAH@?$AAp?$AAr?$AAo?$AAt?$AAo?$AA_?$AAc?$AAo?$AAm?$AA_?$AAo?$AAb?$AAb?$AA_?$AAc?$AAo?$AAl?$AAl?$AAi?$AAd?$AAe?$AAr?$AA?$AA@ DB 'p'
	DB	00H, 'r', 00H, 'o', 00H, 't', 00H, 'o', 00H, '_', 00H, 'c', 00H
	DB	'o', 00H, 'm', 00H, '_', 00H, 'o', 00H, 'b', 00H, 'b', 00H, '_'
	DB	00H, 'c', 00H, 'o', 00H, 'l', 00H, 'l', 00H, 'i', 00H, 'd', 00H
	DB	'e', 00H, 'r', 00H, 00H, 00H			; `string'
CONST	ENDS
;	COMDAT ??_C@_1BK@BKCENIHA@?$AAc?$AAo?$AAm?$AA_?$AAc?$AAo?$AAl?$AAl?$AAi?$AAd?$AAe?$AAr?$AA?$AA@
CONST	SEGMENT
??_C@_1BK@BKCENIHA@?$AAc?$AAo?$AAm?$AA_?$AAc?$AAo?$AAl?$AAl?$AAi?$AAd?$AAe?$AAr?$AA?$AA@ DB 'c'
	DB	00H, 'o', 00H, 'm', 00H, '_', 00H, 'c', 00H, 'o', 00H, 'l', 00H
	DB	'l', 00H, 'i', 00H, 'd', 00H, 'e', 00H, 'r', 00H, 00H, 00H ; `string'
CONST	ENDS
;	COMDAT ??_C@_1DI@OLGFHDLM@?$AAc?$AAo?$AAm?$AA_?$AAc?$AAa?$AAm?$AAe?$AAr?$AAa?$AA_?$AAs?$AAo?$AAc?$AAk?$AAe?$AAt?$AA_?$AAt?$AAr?$AAa?$AAn?$AAs?$AAf?$AAo?$AAr?$AAm?$AA?$AA@
CONST	SEGMENT
??_C@_1DI@OLGFHDLM@?$AAc?$AAo?$AAm?$AA_?$AAc?$AAa?$AAm?$AAe?$AAr?$AAa?$AA_?$AAs?$AAo?$AAc?$AAk?$AAe?$AAt?$AA_?$AAt?$AAr?$AAa?$AAn?$AAs?$AAf?$AAo?$AAr?$AAm?$AA?$AA@ DB 'c'
	DB	00H, 'o', 00H, 'm', 00H, '_', 00H, 'c', 00H, 'a', 00H, 'm', 00H
	DB	'e', 00H, 'r', 00H, 'a', 00H, '_', 00H, 's', 00H, 'o', 00H, 'c'
	DB	00H, 'k', 00H, 'e', 00H, 't', 00H, '_', 00H, 't', 00H, 'r', 00H
	DB	'a', 00H, 'n', 00H, 's', 00H, 'f', 00H, 'o', 00H, 'r', 00H, 'm'
	DB	00H, 00H, 00H				; `string'
CONST	ENDS
;	COMDAT ??_C@_1BM@CJMPMHDD@?$AAc?$AAo?$AAm?$AA_?$AAt?$AAr?$AAa?$AAn?$AAs?$AAf?$AAo?$AAr?$AAm?$AA?$AA@
CONST	SEGMENT
??_C@_1BM@CJMPMHDD@?$AAc?$AAo?$AAm?$AA_?$AAt?$AAr?$AAa?$AAn?$AAs?$AAf?$AAo?$AAr?$AAm?$AA?$AA@ DB 'c'
	DB	00H, 'o', 00H, 'm', 00H, '_', 00H, 't', 00H, 'r', 00H, 'a', 00H
	DB	'n', 00H, 's', 00H, 'f', 00H, 'o', 00H, 'r', 00H, 'm', 00H, 00H
	DB	00H						; `string'
CONST	ENDS
;	COMDAT ??_C@_19OPBALDBC@?$AAp?$AAA?$AAr?$AAg?$AA?$AA@
CONST	SEGMENT
??_C@_19OPBALDBC@?$AAp?$AAA?$AAr?$AAg?$AA?$AA@ DB 'p', 00H, 'A', 00H, 'r', 00H
	DB	'g', 00H, 00H, 00H				; `string'
CONST	ENDS
;	COMDAT ??_C@_1JE@LOBGNKN@?$AAc?$AA?3?$AA?2?$AAu?$AAs?$AAe?$AAr?$AAs?$AA?2?$AAa?$AAr?$AAc?$AAc?$AAo?$AA?2?$AAd?$AAo?$AAc?$AAu?$AAm?$AAe?$AAn?$AAt?$AAs?$AA?2?$AAg?$AAi?$AAt?$AAh?$AAu?$AAb?$AA?2@
CONST	SEGMENT
??_C@_1JE@LOBGNKN@?$AAc?$AA?3?$AA?2?$AAu?$AAs?$AAe?$AAr?$AAs?$AA?2?$AAa?$AAr?$AAc?$AAc?$AAo?$AA?2?$AAd?$AAo?$AAc?$AAu?$AAm?$AAe?$AAn?$AAt?$AAs?$AA?2?$AAg?$AAi?$AAt?$AAh?$AAu?$AAb?$AA?2@ DB 'c'
	DB	00H, ':', 00H, '\', 00H, 'u', 00H, 's', 00H, 'e', 00H, 'r', 00H
	DB	's', 00H, '\', 00H, 'a', 00H, 'r', 00H, 'c', 00H, 'c', 00H, 'o'
	DB	00H, '\', 00H, 'd', 00H, 'o', 00H, 'c', 00H, 'u', 00H, 'm', 00H
	DB	'e', 00H, 'n', 00H, 't', 00H, 's', 00H, '\', 00H, 'g', 00H, 'i'
	DB	00H, 't', 00H, 'h', 00H, 'u', 00H, 'b', 00H, '\', 00H, 'f', 00H
	DB	'r', 00H, 'a', 00H, 'm', 00H, 'e', 00H, 'w', 00H, 'o', 00H, 'r'
	DB	00H, 'k', 00H, '\', 00H, 'c', 00H, 'l', 00H, 'i', 00H, 'e', 00H
	DB	'n', 00H, 't', 00H, '\', 00H, 'p', 00H, 'r', 00H, 'i', 00H, 'v'
	DB	00H, 'a', 00H, 't', 00H, 'e', 00H, '\', 00H, 'p', 00H, 'l', 00H
	DB	'a', 00H, 'y', 00H, 'e', 00H, 'r', 00H, 'c', 00H, 'a', 00H, 'm'
	DB	00H, 'e', 00H, 'r', 00H, 'a', 00H, '.', 00H, 'c', 00H, 'p', 00H
	DB	'p', 00H, 00H, 00H				; `string'
CONST	ENDS
;	COMDAT ?__LINE__Var@?0??Initialize@CPlayerCamera@Client@@UEAAJPEAX@Z@4JA
_DATA	SEGMENT
?__LINE__Var@?0??Initialize@CPlayerCamera@Client@@UEAAJPEAX@Z@4JA DD 021H ; `Client::CPlayerCamera::Initialize'::`1'::__LINE__Var
_DATA	ENDS
;	COMDAT ??_7CPlayerCamera@Client@@6B@
CONST	SEGMENT
??_7CPlayerCamera@Client@@6B@ DQ FLAT:??_R4CPlayerCamera@Client@@6B@ ; Client::CPlayerCamera::`vftable'
	DQ	FLAT:??_ECPlayerCamera@Client@@EEAAPEAXI@Z
	DQ	FLAT:?Free@CPlayerCamera@Client@@UEAAXXZ
	DQ	FLAT:?Initialize_Prototype@CPlayerCamera@Client@@UEAAJXZ
	DQ	FLAT:?Initialize@CPlayerCamera@Client@@UEAAJPEAX@Z
	DQ	FLAT:?Tick@CPlayerCamera@Client@@UEAAXN@Z
	DQ	FLAT:?LateTick@CPlayerCamera@Client@@UEAAXN@Z
	DQ	FLAT:?Render@CPlayerCamera@Client@@UEAAJXZ
	DQ	FLAT:?RenderGUI@CGameObject@Engine@@UEAAXXZ
	DQ	FLAT:?GetLengthFromCamera@CGameObject@Engine@@UEAAMXZ
	DQ	FLAT:?Clone@CPlayerCamera@Client@@UEAAPEAVCGameObject@Engine@@PEAX@Z
CONST	ENDS
;	COMDAT ?__LINE__Var@?0??XMMatrixOrthographicLH@DirectX@@YQ?AUXMMATRIX@2@MMMM@Z@4JA
_DATA	SEGMENT
?__LINE__Var@?0??XMMatrixOrthographicLH@DirectX@@YQ?AUXMMATRIX@2@MMMM@Z@4JA DD 09e4H ; `DirectX::XMMatrixOrthographicLH'::`1'::__LINE__Var
_DATA	ENDS
;	COMDAT ??_C@_1FE@IMEJOJAH@?$AA?$CB?$AAX?$AAM?$AAS?$AAc?$AAa?$AAl?$AAa?$AAr?$AAN?$AAe?$AAa?$AAr?$AAE?$AAq?$AAu?$AAa?$AAl?$AA?$CI?$AAF?$AAa?$AAr?$AAZ?$AA?0?$AA?5?$AAN?$AAe?$AAa?$AAr?$AAZ?$AA?0?$AA?5@
CONST	SEGMENT
??_C@_1FE@IMEJOJAH@?$AA?$CB?$AAX?$AAM?$AAS?$AAc?$AAa?$AAl?$AAa?$AAr?$AAN?$AAe?$AAa?$AAr?$AAE?$AAq?$AAu?$AAa?$AAl?$AA?$CI?$AAF?$AAa?$AAr?$AAZ?$AA?0?$AA?5?$AAN?$AAe?$AAa?$AAr?$AAZ?$AA?0?$AA?5@ DB '!'
	DB	00H, 'X', 00H, 'M', 00H, 'S', 00H, 'c', 00H, 'a', 00H, 'l', 00H
	DB	'a', 00H, 'r', 00H, 'N', 00H, 'e', 00H, 'a', 00H, 'r', 00H, 'E'
	DB	00H, 'q', 00H, 'u', 00H, 'a', 00H, 'l', 00H, '(', 00H, 'F', 00H
	DB	'a', 00H, 'r', 00H, 'Z', 00H, ',', 00H, ' ', 00H, 'N', 00H, 'e'
	DB	00H, 'a', 00H, 'r', 00H, 'Z', 00H, ',', 00H, ' ', 00H, '0', 00H
	DB	'.', 00H, '0', 00H, '0', 00H, '0', 00H, '0', 00H, '1', 00H, 'f'
	DB	00H, ')', 00H, 00H, 00H			; `string'
CONST	ENDS
;	COMDAT ??_C@_1FO@OGFPCKGG@?$AA?$CB?$AAX?$AAM?$AAS?$AAc?$AAa?$AAl?$AAa?$AAr?$AAN?$AAe?$AAa?$AAr?$AAE?$AAq?$AAu?$AAa?$AAl?$AA?$CI?$AAV?$AAi?$AAe?$AAw?$AAH?$AAe?$AAi?$AAg?$AAh?$AAt?$AA?0?$AA?5?$AA0@
CONST	SEGMENT
??_C@_1FO@OGFPCKGG@?$AA?$CB?$AAX?$AAM?$AAS?$AAc?$AAa?$AAl?$AAa?$AAr?$AAN?$AAe?$AAa?$AAr?$AAE?$AAq?$AAu?$AAa?$AAl?$AA?$CI?$AAV?$AAi?$AAe?$AAw?$AAH?$AAe?$AAi?$AAg?$AAh?$AAt?$AA?0?$AA?5?$AA0@ DB '!'
	DB	00H, 'X', 00H, 'M', 00H, 'S', 00H, 'c', 00H, 'a', 00H, 'l', 00H
	DB	'a', 00H, 'r', 00H, 'N', 00H, 'e', 00H, 'a', 00H, 'r', 00H, 'E'
	DB	00H, 'q', 00H, 'u', 00H, 'a', 00H, 'l', 00H, '(', 00H, 'V', 00H
	DB	'i', 00H, 'e', 00H, 'w', 00H, 'H', 00H, 'e', 00H, 'i', 00H, 'g'
	DB	00H, 'h', 00H, 't', 00H, ',', 00H, ' ', 00H, '0', 00H, '.', 00H
	DB	'0', 00H, 'f', 00H, ',', 00H, ' ', 00H, '0', 00H, '.', 00H, '0'
	DB	00H, '0', 00H, '0', 00H, '0', 00H, '1', 00H, 'f', 00H, ')', 00H
	DB	00H, 00H					; `string'
CONST	ENDS
;	COMDAT ??_C@_1FM@GHGDCEAE@?$AA?$CB?$AAX?$AAM?$AAS?$AAc?$AAa?$AAl?$AAa?$AAr?$AAN?$AAe?$AAa?$AAr?$AAE?$AAq?$AAu?$AAa?$AAl?$AA?$CI?$AAV?$AAi?$AAe?$AAw?$AAW?$AAi?$AAd?$AAt?$AAh?$AA?0?$AA?5?$AA0?$AA?4@
CONST	SEGMENT
??_C@_1FM@GHGDCEAE@?$AA?$CB?$AAX?$AAM?$AAS?$AAc?$AAa?$AAl?$AAa?$AAr?$AAN?$AAe?$AAa?$AAr?$AAE?$AAq?$AAu?$AAa?$AAl?$AA?$CI?$AAV?$AAi?$AAe?$AAw?$AAW?$AAi?$AAd?$AAt?$AAh?$AA?0?$AA?5?$AA0?$AA?4@ DB '!'
	DB	00H, 'X', 00H, 'M', 00H, 'S', 00H, 'c', 00H, 'a', 00H, 'l', 00H
	DB	'a', 00H, 'r', 00H, 'N', 00H, 'e', 00H, 'a', 00H, 'r', 00H, 'E'
	DB	00H, 'q', 00H, 'u', 00H, 'a', 00H, 'l', 00H, '(', 00H, 'V', 00H
	DB	'i', 00H, 'e', 00H, 'w', 00H, 'W', 00H, 'i', 00H, 'd', 00H, 't'
	DB	00H, 'h', 00H, ',', 00H, ' ', 00H, '0', 00H, '.', 00H, '0', 00H
	DB	'f', 00H, ',', 00H, ' ', 00H, '0', 00H, '.', 00H, '0', 00H, '0'
	DB	00H, '0', 00H, '0', 00H, '1', 00H, 'f', 00H, ')', 00H, 00H, 00H ; `string'
CONST	ENDS
;	COMDAT ??_C@_1JC@EJCKKKJP@?$AAc?$AA?3?$AA?2?$AAp?$AAr?$AAo?$AAg?$AAr?$AAa?$AAm?$AA?5?$AAf?$AAi?$AAl?$AAe?$AAs?$AA?5?$AA?$CI?$AAx?$AA8?$AA6?$AA?$CJ?$AA?2?$AAw?$AAi?$AAn?$AAd?$AAo?$AAw?$AAs?$AA?5?$AAk@
CONST	SEGMENT
??_C@_1JC@EJCKKKJP@?$AAc?$AA?3?$AA?2?$AAp?$AAr?$AAo?$AAg?$AAr?$AAa?$AAm?$AA?5?$AAf?$AAi?$AAl?$AAe?$AAs?$AA?5?$AA?$CI?$AAx?$AA8?$AA6?$AA?$CJ?$AA?2?$AAw?$AAi?$AAn?$AAd?$AAo?$AAw?$AAs?$AA?5?$AAk@ DB 'c'
	DB	00H, ':', 00H, '\', 00H, 'p', 00H, 'r', 00H, 'o', 00H, 'g', 00H
	DB	'r', 00H, 'a', 00H, 'm', 00H, ' ', 00H, 'f', 00H, 'i', 00H, 'l'
	DB	00H, 'e', 00H, 's', 00H, ' ', 00H, '(', 00H, 'x', 00H, '8', 00H
	DB	'6', 00H, ')', 00H, '\', 00H, 'w', 00H, 'i', 00H, 'n', 00H, 'd'
	DB	00H, 'o', 00H, 'w', 00H, 's', 00H, ' ', 00H, 'k', 00H, 'i', 00H
	DB	't', 00H, 's', 00H, '\', 00H, '8', 00H, '.', 00H, '1', 00H, '\'
	DB	00H, 'i', 00H, 'n', 00H, 'c', 00H, 'l', 00H, 'u', 00H, 'd', 00H
	DB	'e', 00H, '\', 00H, 'u', 00H, 'm', 00H, '\', 00H, 'd', 00H, 'i'
	DB	00H, 'r', 00H, 'e', 00H, 'c', 00H, 't', 00H, 'x', 00H, 'm', 00H
	DB	'a', 00H, 't', 00H, 'h', 00H, 'm', 00H, 'a', 00H, 't', 00H, 'r'
	DB	00H, 'i', 00H, 'x', 00H, '.', 00H, 'i', 00H, 'n', 00H, 'l', 00H
	DB	00H, 00H					; `string'
CONST	ENDS
;	COMDAT ?__LINE__Var@?0??XMStoreFloat4x4@DirectX@@YQXPEAUXMFLOAT4X4@2@UXMMATRIX@2@@Z@4JA
_DATA	SEGMENT
?__LINE__Var@?0??XMStoreFloat4x4@DirectX@@YQXPEAUXMFLOAT4X4@2@UXMMATRIX@2@@Z@4JA DD 071aH ; `DirectX::XMStoreFloat4x4'::`1'::__LINE__Var
_DATA	ENDS
;	COMDAT ?__LINE__Var@?0??XMStoreFloat4@DirectX@@YQXPEAUXMFLOAT4@2@T__m128@@@Z@4JA
_DATA	SEGMENT
?__LINE__Var@?0??XMStoreFloat4@DirectX@@YQXPEAUXMFLOAT4@2@T__m128@@@Z@4JA DD 0602H ; `DirectX::XMStoreFloat4'::`1'::__LINE__Var
_DATA	ENDS
;	COMDAT ??_C@_1BK@FHLBGAOP@?$AAp?$AAD?$AAe?$AAs?$AAt?$AAi?$AAn?$AAa?$AAt?$AAi?$AAo?$AAn?$AA?$AA@
CONST	SEGMENT
??_C@_1BK@FHLBGAOP@?$AAp?$AAD?$AAe?$AAs?$AAt?$AAi?$AAn?$AAa?$AAt?$AAi?$AAo?$AAn?$AA?$AA@ DB 'p'
	DB	00H, 'D', 00H, 'e', 00H, 's', 00H, 't', 00H, 'i', 00H, 'n', 00H
	DB	'a', 00H, 't', 00H, 'i', 00H, 'o', 00H, 'n', 00H, 00H, 00H ; `string'
CONST	ENDS
;	COMDAT ?__LINE__Var@?0??XMLoadFloat4@DirectX@@YQ?AT__m128@@PEBUXMFLOAT4@2@@Z@4JA
_DATA	SEGMENT
?__LINE__Var@?0??XMLoadFloat4@DirectX@@YQ?AT__m128@@PEBUXMFLOAT4@2@@Z@4JA DD 02a8H ; `DirectX::XMLoadFloat4'::`1'::__LINE__Var
_DATA	ENDS
;	COMDAT ?__LINE__Var@?0??XMLoadFloat3@DirectX@@YQ?AT__m128@@PEBUXMFLOAT3@2@@Z@4JA
_DATA	SEGMENT
?__LINE__Var@?0??XMLoadFloat3@DirectX@@YQ?AT__m128@@PEBUXMFLOAT3@2@@Z@4JA DD 01f3H ; `DirectX::XMLoadFloat3'::`1'::__LINE__Var
_DATA	ENDS
;	COMDAT ??_C@_1BA@LBADLIHI@?$AAp?$AAS?$AAo?$AAu?$AAr?$AAc?$AAe?$AA?$AA@
CONST	SEGMENT
??_C@_1BA@LBADLIHI@?$AAp?$AAS?$AAo?$AAu?$AAr?$AAc?$AAe?$AA?$AA@ DB 'p', 00H
	DB	'S', 00H, 'o', 00H, 'u', 00H, 'r', 00H, 'c', 00H, 'e', 00H, 00H
	DB	00H						; `string'
CONST	ENDS
;	COMDAT ??_C@_1JE@DMOBBMDE@?$AAc?$AA?3?$AA?2?$AAp?$AAr?$AAo?$AAg?$AAr?$AAa?$AAm?$AA?5?$AAf?$AAi?$AAl?$AAe?$AAs?$AA?5?$AA?$CI?$AAx?$AA8?$AA6?$AA?$CJ?$AA?2?$AAw?$AAi?$AAn?$AAd?$AAo?$AAw?$AAs?$AA?5?$AAk@
CONST	SEGMENT
??_C@_1JE@DMOBBMDE@?$AAc?$AA?3?$AA?2?$AAp?$AAr?$AAo?$AAg?$AAr?$AAa?$AAm?$AA?5?$AAf?$AAi?$AAl?$AAe?$AAs?$AA?5?$AA?$CI?$AAx?$AA8?$AA6?$AA?$CJ?$AA?2?$AAw?$AAi?$AAn?$AAd?$AAo?$AAw?$AAs?$AA?5?$AAk@ DB 'c'
	DB	00H, ':', 00H, '\', 00H, 'p', 00H, 'r', 00H, 'o', 00H, 'g', 00H
	DB	'r', 00H, 'a', 00H, 'm', 00H, ' ', 00H, 'f', 00H, 'i', 00H, 'l'
	DB	00H, 'e', 00H, 's', 00H, ' ', 00H, '(', 00H, 'x', 00H, '8', 00H
	DB	'6', 00H, ')', 00H, '\', 00H, 'w', 00H, 'i', 00H, 'n', 00H, 'd'
	DB	00H, 'o', 00H, 'w', 00H, 's', 00H, ' ', 00H, 'k', 00H, 'i', 00H
	DB	't', 00H, 's', 00H, '\', 00H, '8', 00H, '.', 00H, '1', 00H, '\'
	DB	00H, 'i', 00H, 'n', 00H, 'c', 00H, 'l', 00H, 'u', 00H, 'd', 00H
	DB	'e', 00H, '\', 00H, 'u', 00H, 'm', 00H, '\', 00H, 'd', 00H, 'i'
	DB	00H, 'r', 00H, 'e', 00H, 'c', 00H, 't', 00H, 'x', 00H, 'm', 00H
	DB	'a', 00H, 't', 00H, 'h', 00H, 'c', 00H, 'o', 00H, 'n', 00H, 'v'
	DB	00H, 'e', 00H, 'r', 00H, 't', 00H, '.', 00H, 'i', 00H, 'n', 00H
	DB	'l', 00H, 00H, 00H				; `string'
CONST	ENDS
;	COMDAT xdata
xdata	SEGMENT
$unwind$??$Safe_Release@PEAVCTexture@Engine@@@Engine@@YAKAEAPEAVCTexture@0@@Z DD 025052a01H
	DD	010e2313H
	DD	070070021H
	DD	05006H
xdata	ENDS
;	COMDAT xdata
xdata	SEGMENT
$unwind$??$Safe_Release@PEAVCVIBuffer_Rect@Engine@@@Engine@@YAKAEAPEAVCVIBuffer_Rect@0@@Z DD 025052a01H
	DD	010e2313H
	DD	070070021H
	DD	05006H
xdata	ENDS
;	COMDAT xdata
xdata	SEGMENT
$unwind$??$Safe_Release@PEAVCShader@Engine@@@Engine@@YAKAEAPEAVCShader@0@@Z DD 025052a01H
	DD	010e2313H
	DD	070070021H
	DD	05006H
xdata	ENDS
;	COMDAT xdata
xdata	SEGMENT
$unwind$??$Safe_Release@PEAVCRenderer@Engine@@@Engine@@YAKAEAPEAVCRenderer@0@@Z DD 025052a01H
	DD	010e2313H
	DD	070070021H
	DD	05006H
xdata	ENDS
;	COMDAT xdata
xdata	SEGMENT
$unwind$??$Safe_Release@PEAVCTransform@Engine@@@Engine@@YAKAEAPEAVCTransform@0@@Z DD 025052a01H
	DD	010e2313H
	DD	070070021H
	DD	05006H
xdata	ENDS
;	COMDAT xdata
xdata	SEGMENT
$unwind$??$Safe_Release@PEAVCPlayerCamera@Client@@@Engine@@YAKAEAPEAVCPlayerCamera@Client@@@Z DD 025052a01H
	DD	010e2313H
	DD	070070021H
	DD	05006H
xdata	ENDS
;	COMDAT xdata
xdata	SEGMENT
$unwind$?SetWinMotion@CApplicationManager@Client@@QEAAX_N@Z DD 05052c01H
	DD	01120315H
	DD	0700b0019H
	DD	0500aH
xdata	ENDS
;	COMDAT xdata
xdata	SEGMENT
$unwind$?IsLevelFinish@CApplicationManager@Client@@QEAA_NW4LEVEL@12@@Z DD 05052c01H
	DD	01120315H
	DD	0700b0019H
	DD	0500aH
xdata	ENDS
;	COMDAT xdata
xdata	SEGMENT
$unwind$?SetLevelFinish@CApplicationManager@Client@@QEAAXW4LEVEL@12@@Z DD 05052c01H
	DD	01120315H
	DD	0700b0019H
	DD	0500aH
xdata	ENDS
;	COMDAT xdata
xdata	SEGMENT
$unwind$?GetLockOnTarget@CCharacter@Client@@QEAAPEAVCGameObject@Engine@@XZ DD 05052801H
	DD	010e0311H
	DD	07007001bH
	DD	05006H
xdata	ENDS
;	COMDAT xdata
xdata	SEGMENT
$unwind$?SetWinMotion@CCharacter@Client@@QEAAX_N@Z DD 05052c01H
	DD	01120315H
	DD	0700b0019H
	DD	0500aH
xdata	ENDS
;	COMDAT xdata
xdata	SEGMENT
$unwind$??0tagColliderDesc@CCollider@Engine@@QEAA@XZ DD 025052a01H
	DD	010e2313H
	DD	07007001dH
	DD	05006H
xdata	ENDS
;	COMDAT xdata
xdata	SEGMENT
$unwind$??_GCPlayerCamera@Client@@EEAAPEAXI@Z DD 025052e01H
	DD	01122317H
	DD	0700b001dH
	DD	0500aH
xdata	ENDS
;	COMDAT xdata
xdata	SEGMENT
$unwind$?Free@CPlayerCamera@Client@@UEAAXXZ DD 025052a01H
	DD	010e2313H
	DD	07007001dH
	DD	05006H
xdata	ENDS
;	COMDAT xdata
xdata	SEGMENT
$unwind$?dtor$0@?0??Clone@CPlayerCamera@Client@@UEAAPEAVCGameObject@Engine@@PEAX@Z@4HA DD 031001H
	DD	0700c4210H
	DD	0500bH
xdata	ENDS
;	COMDAT xdata
xdata	SEGMENT
$ip2state$?Clone@CPlayerCamera@Client@@UEAAPEAVCGameObject@Engine@@PEAX@Z DD imagerel ?Clone@CPlayerCamera@Client@@UEAAPEAVCGameObject@Engine@@PEAX@Z
	DD	0ffffffffH
	DD	imagerel ?Clone@CPlayerCamera@Client@@UEAAPEAVCGameObject@Engine@@PEAX@Z+115
	DD	00H
	DD	imagerel ?Clone@CPlayerCamera@Client@@UEAAPEAVCGameObject@Engine@@PEAX@Z+178
	DD	0ffffffffH
xdata	ENDS
;	COMDAT xdata
xdata	SEGMENT
$stateUnwindMap$?Clone@CPlayerCamera@Client@@UEAAPEAVCGameObject@Engine@@PEAX@Z DD 0ffffffffH
	DD	imagerel ?dtor$0@?0??Clone@CPlayerCamera@Client@@UEAAPEAVCGameObject@Engine@@PEAX@Z@4HA
xdata	ENDS
;	COMDAT xdata
xdata	SEGMENT
$unwind$?Clone@CPlayerCamera@Client@@UEAAPEAVCGameObject@Engine@@PEAX@Z DD 025054b19H
	DD	01132318H
	DD	0700c002fH
	DD	0500bH
	DD	imagerel __GSHandlerCheck_EH
	DD	imagerel $cppxdata$?Clone@CPlayerCamera@Client@@UEAAPEAVCGameObject@Engine@@PEAX@Z
	DD	0162H
xdata	ENDS
;	COMDAT CONST
CONST	SEGMENT
?Clone@CPlayerCamera@Client@@UEAAPEAVCGameObject@Engine@@PEAX@Z$rtcName$0 DB 070H ; Client::CPlayerCamera::Clone
	DB	049H
	DB	06eH
	DB	073H
	DB	074H
	DB	061H
	DB	06eH
	DB	063H
	DB	065H
	DB	00H
	ORG $+6
?Clone@CPlayerCamera@Client@@UEAAPEAVCGameObject@Engine@@PEAX@Z$rtcVarDesc DD 028H ; Client::CPlayerCamera::Clone
	DD	08H
	DQ	FLAT:?Clone@CPlayerCamera@Client@@UEAAPEAVCGameObject@Engine@@PEAX@Z$rtcName$0
	ORG $+48
?Clone@CPlayerCamera@Client@@UEAAPEAVCGameObject@Engine@@PEAX@Z$rtcFrameData DD 01H ; Client::CPlayerCamera::Clone
	DD	00H
	DQ	FLAT:?Clone@CPlayerCamera@Client@@UEAAPEAVCGameObject@Engine@@PEAX@Z$rtcVarDesc
$cppxdata$?Clone@CPlayerCamera@Client@@UEAAPEAVCGameObject@Engine@@PEAX@Z DD 019930522H
	DD	01H
	DD	imagerel $stateUnwindMap$?Clone@CPlayerCamera@Client@@UEAAPEAVCGameObject@Engine@@PEAX@Z
	DD	00H
	DD	00H
	DD	03H
	DD	imagerel $ip2state$?Clone@CPlayerCamera@Client@@UEAAPEAVCGameObject@Engine@@PEAX@Z
	DD	0148H
	DD	00H
	DD	01H
CONST	ENDS
;	COMDAT xdata
xdata	SEGMENT
$unwind$?dtor$0@?0??Create@CPlayerCamera@Client@@SAPEAV12@PEAUID3D11Device@@PEAUID3D11DeviceContext@@@Z@4HA DD 031001H
	DD	0700c4210H
	DD	0500bH
xdata	ENDS
;	COMDAT xdata
xdata	SEGMENT
$ip2state$?Create@CPlayerCamera@Client@@SAPEAV12@PEAUID3D11Device@@PEAUID3D11DeviceContext@@@Z DD imagerel ?Create@CPlayerCamera@Client@@SAPEAV12@PEAUID3D11Device@@PEAUID3D11DeviceContext@@@Z
	DD	0ffffffffH
	DD	imagerel ?Create@CPlayerCamera@Client@@SAPEAV12@PEAUID3D11Device@@PEAUID3D11DeviceContext@@@Z+115
	DD	00H
	DD	imagerel ?Create@CPlayerCamera@Client@@SAPEAV12@PEAUID3D11Device@@PEAUID3D11DeviceContext@@@Z+185
	DD	0ffffffffH
xdata	ENDS
;	COMDAT xdata
xdata	SEGMENT
$stateUnwindMap$?Create@CPlayerCamera@Client@@SAPEAV12@PEAUID3D11Device@@PEAUID3D11DeviceContext@@@Z DD 0ffffffffH
	DD	imagerel ?dtor$0@?0??Create@CPlayerCamera@Client@@SAPEAV12@PEAUID3D11Device@@PEAUID3D11DeviceContext@@@Z@4HA
xdata	ENDS
;	COMDAT xdata
xdata	SEGMENT
$unwind$?Create@CPlayerCamera@Client@@SAPEAV12@PEAUID3D11Device@@PEAUID3D11DeviceContext@@@Z DD 025054b19H
	DD	01132318H
	DD	0700c002fH
	DD	0500bH
	DD	imagerel __GSHandlerCheck_EH
	DD	imagerel $cppxdata$?Create@CPlayerCamera@Client@@SAPEAV12@PEAUID3D11Device@@PEAUID3D11DeviceContext@@@Z
	DD	0162H
xdata	ENDS
;	COMDAT CONST
CONST	SEGMENT
?Create@CPlayerCamera@Client@@SAPEAV12@PEAUID3D11Device@@PEAUID3D11DeviceContext@@@Z$rtcName$0 DB 070H ; Client::CPlayerCamera::Create
	DB	049H
	DB	06eH
	DB	073H
	DB	074H
	DB	061H
	DB	06eH
	DB	063H
	DB	065H
	DB	00H
	ORG $+6
?Create@CPlayerCamera@Client@@SAPEAV12@PEAUID3D11Device@@PEAUID3D11DeviceContext@@@Z$rtcVarDesc DD 028H ; Client::CPlayerCamera::Create
	DD	08H
	DQ	FLAT:?Create@CPlayerCamera@Client@@SAPEAV12@PEAUID3D11Device@@PEAUID3D11DeviceContext@@@Z$rtcName$0
	ORG $+48
?Create@CPlayerCamera@Client@@SAPEAV12@PEAUID3D11Device@@PEAUID3D11DeviceContext@@@Z$rtcFrameData DD 01H ; Client::CPlayerCamera::Create
	DD	00H
	DQ	FLAT:?Create@CPlayerCamera@Client@@SAPEAV12@PEAUID3D11Device@@PEAUID3D11DeviceContext@@@Z$rtcVarDesc
$cppxdata$?Create@CPlayerCamera@Client@@SAPEAV12@PEAUID3D11Device@@PEAUID3D11DeviceContext@@@Z DD 019930522H
	DD	01H
	DD	imagerel $stateUnwindMap$?Create@CPlayerCamera@Client@@SAPEAV12@PEAUID3D11Device@@PEAUID3D11DeviceContext@@@Z
	DD	00H
	DD	00H
	DD	03H
	DD	imagerel $ip2state$?Create@CPlayerCamera@Client@@SAPEAV12@PEAUID3D11Device@@PEAUID3D11DeviceContext@@@Z
	DD	0148H
	DD	00H
	DD	01H
CONST	ENDS
;	COMDAT xdata
xdata	SEGMENT
$unwind$?WinActionMovement@CPlayerCamera@Client@@AEAAXN@Z DD 025054119H
	DD	01142319H
	DD	0700d007bH
	DD	0500cH
	DD	imagerel __GSHandlerCheck
	DD	03c8H
xdata	ENDS
;	COMDAT CONST
CONST	SEGMENT
?WinActionMovement@CPlayerCamera@Client@@AEAAXN@Z$rtcName$0 DB 076H ; Client::CPlayerCamera::WinActionMovement
	DB	054H
	DB	061H
	DB	072H
	DB	067H
	DB	065H
	DB	074H
	DB	050H
	DB	06fH
	DB	073H
	DB	00H
	ORG $+5
?WinActionMovement@CPlayerCamera@Client@@AEAAXN@Z$rtcVarDesc DD 050H ; Client::CPlayerCamera::WinActionMovement
	DD	010H
	DQ	FLAT:?WinActionMovement@CPlayerCamera@Client@@AEAAXN@Z$rtcName$0
	ORG $+48
?WinActionMovement@CPlayerCamera@Client@@AEAAXN@Z$rtcFrameData DD 01H ; Client::CPlayerCamera::WinActionMovement
	DD	00H
	DQ	FLAT:?WinActionMovement@CPlayerCamera@Client@@AEAAXN@Z$rtcVarDesc
CONST	ENDS
;	COMDAT xdata
xdata	SEGMENT
$unwind$?DefaultCameraMovement@CPlayerCamera@Client@@AEAAXN@Z DD 035064219H
	DD	0115331aH
	DD	0700e01b2H
	DD	0500c600dH
	DD	imagerel __GSHandlerCheck
	DD	0d80H
xdata	ENDS
;	COMDAT CONST
CONST	SEGMENT
?DefaultCameraMovement@CPlayerCamera@Client@@AEAAXN@Z$rtcName$0 DB 076H ; Client::CPlayerCamera::DefaultCameraMovement
	DB	054H
	DB	061H
	DB	072H
	DB	067H
	DB	065H
	DB	074H
	DB	050H
	DB	06fH
	DB	073H
	DB	00H
	ORG $+5
?DefaultCameraMovement@CPlayerCamera@Client@@AEAAXN@Z$rtcName$1 DB 076H ; Client::CPlayerCamera::DefaultCameraMovement
	DB	043H
	DB	075H
	DB	072H
	DB	050H
	DB	06fH
	DB	073H
	DB	069H
	DB	074H
	DB	069H
	DB	06fH
	DB	06eH
	DB	00H
	ORG $+3
?DefaultCameraMovement@CPlayerCamera@Client@@AEAAXN@Z$rtcName$2 DB 076H ; Client::CPlayerCamera::DefaultCameraMovement
	DB	04cH
	DB	06fH
	DB	063H
	DB	06bH
	DB	04fH
	DB	06eH
	DB	054H
	DB	061H
	DB	072H
	DB	067H
	DB	065H
	DB	074H
	DB	050H
	DB	06fH
	DB	073H
	DB	00H
	ORG $+7
?DefaultCameraMovement@CPlayerCamera@Client@@AEAAXN@Z$rtcName$3 DB 076H ; Client::CPlayerCamera::DefaultCameraMovement
	DB	043H
	DB	075H
	DB	072H
	DB	050H
	DB	06fH
	DB	073H
	DB	069H
	DB	074H
	DB	069H
	DB	06fH
	DB	06eH
	DB	00H
	ORG $+11
?DefaultCameraMovement@CPlayerCamera@Client@@AEAAXN@Z$rtcVarDesc DD 0270H ; Client::CPlayerCamera::DefaultCameraMovement
	DD	010H
	DQ	FLAT:?DefaultCameraMovement@CPlayerCamera@Client@@AEAAXN@Z$rtcName$3
	DD	01e8H
	DD	010H
	DQ	FLAT:?DefaultCameraMovement@CPlayerCamera@Client@@AEAAXN@Z$rtcName$2
	DD	0190H
	DD	010H
	DQ	FLAT:?DefaultCameraMovement@CPlayerCamera@Client@@AEAAXN@Z$rtcName$1
	DD	060H
	DD	010H
	DQ	FLAT:?DefaultCameraMovement@CPlayerCamera@Client@@AEAAXN@Z$rtcName$0
	ORG $+192
?DefaultCameraMovement@CPlayerCamera@Client@@AEAAXN@Z$rtcFrameData DD 04H ; Client::CPlayerCamera::DefaultCameraMovement
	DD	00H
	DQ	FLAT:?DefaultCameraMovement@CPlayerCamera@Client@@AEAAXN@Z$rtcVarDesc
CONST	ENDS
;	COMDAT xdata
xdata	SEGMENT
$unwind$?Setup_ShaderResources@CPlayerCamera@Client@@QEAAJXZ DD 05052801H
	DD	010e0311H
	DD	070070019H
	DD	05006H
xdata	ENDS
;	COMDAT xdata
xdata	SEGMENT
$unwind$?Add_Components@CPlayerCamera@Client@@QEAAJXZ DD 05052801H
	DD	010e0311H
	DD	070070019H
	DD	05006H
xdata	ENDS
;	COMDAT xdata
xdata	SEGMENT
$unwind$?AttackShake@CPlayerCamera@Client@@QEAAXXZ DD 025052a01H
	DD	010e2313H
	DD	07007001dH
	DD	05006H
xdata	ENDS
;	COMDAT xdata
xdata	SEGMENT
$unwind$?Render@CPlayerCamera@Client@@UEAAJXZ DD 025053b19H
	DD	010e2313H
	DD	070070025H
	DD	05006H
	DD	imagerel __GSHandlerCheck
	DD	0118H
xdata	ENDS
;	COMDAT CONST
CONST	SEGMENT
?Render@CPlayerCamera@Client@@UEAAJXZ$rtcName$0 DB 066H	; Client::CPlayerCamera::Render
	DB	056H
	DB	061H
	DB	06cH
	DB	075H
	DB	065H
	DB	00H
	ORG $+1
?Render@CPlayerCamera@Client@@UEAAJXZ$rtcName$1 DB 066H	; Client::CPlayerCamera::Render
	DB	044H
	DB	069H
	DB	073H
	DB	063H
	DB	061H
	DB	072H
	DB	064H
	DB	056H
	DB	061H
	DB	06cH
	DB	075H
	DB	065H
	DB	00H
	ORG $+10
?Render@CPlayerCamera@Client@@UEAAJXZ$rtcVarDesc DD 044H ; Client::CPlayerCamera::Render
	DD	04H
	DQ	FLAT:?Render@CPlayerCamera@Client@@UEAAJXZ$rtcName$1
	DD	024H
	DD	04H
	DQ	FLAT:?Render@CPlayerCamera@Client@@UEAAJXZ$rtcName$0
	ORG $+96
?Render@CPlayerCamera@Client@@UEAAJXZ$rtcFrameData DD 02H ; Client::CPlayerCamera::Render
	DD	00H
	DQ	FLAT:?Render@CPlayerCamera@Client@@UEAAJXZ$rtcVarDesc
CONST	ENDS
;	COMDAT xdata
xdata	SEGMENT
$unwind$?LateTick@CPlayerCamera@Client@@UEAAXN@Z DD 025053001H
	DD	01142319H
	DD	0700d0025H
	DD	0500cH
xdata	ENDS
;	COMDAT xdata
xdata	SEGMENT
$unwind$?Tick@CPlayerCamera@Client@@UEAAXN@Z DD 025053001H
	DD	01142319H
	DD	0700d001dH
	DD	0500cH
xdata	ENDS
;	COMDAT xdata
xdata	SEGMENT
$unwind$?Initialize@CPlayerCamera@Client@@UEAAJPEAX@Z DD 035064119H
	DD	01143319H
	DD	0700d0106H
	DD	0500b600cH
	DD	imagerel __GSHandlerCheck
	DD	0828H
xdata	ENDS
;	COMDAT CONST
CONST	SEGMENT
?Initialize@CPlayerCamera@Client@@UEAAJPEAX@Z$rtcName$0 DB 063H ; Client::CPlayerCamera::Initialize
	DB	06fH
	DB	06cH
	DB	06cH
	DB	044H
	DB	065H
	DB	073H
	DB	063H
	DB	00H
	ORG $+7
?Initialize@CPlayerCamera@Client@@UEAAJPEAX@Z$rtcVarDesc DD 038H ; Client::CPlayerCamera::Initialize
	DD	030H
	DQ	FLAT:?Initialize@CPlayerCamera@Client@@UEAAJPEAX@Z$rtcName$0
	ORG $+48
?Initialize@CPlayerCamera@Client@@UEAAJPEAX@Z$rtcFrameData DD 01H ; Client::CPlayerCamera::Initialize
	DD	00H
	DQ	FLAT:?Initialize@CPlayerCamera@Client@@UEAAJPEAX@Z$rtcVarDesc
CONST	ENDS
;	COMDAT xdata
xdata	SEGMENT
$unwind$?Initialize_Prototype@CPlayerCamera@Client@@UEAAJXZ DD 025052a01H
	DD	010e2313H
	DD	07007001dH
	DD	05006H
xdata	ENDS
;	COMDAT xdata
xdata	SEGMENT
$unwind$??1CPlayerCamera@Client@@EEAA@XZ DD 025052a01H
	DD	010e2313H
	DD	07007001dH
	DD	05006H
xdata	ENDS
;	COMDAT xdata
xdata	SEGMENT
$unwind$?dtor$0@?0???0CPlayerCamera@Client@@AEAA@AEBV01@@Z@4HA DD 031001H
	DD	0700c4210H
	DD	0500bH
xdata	ENDS
;	COMDAT xdata
xdata	SEGMENT
$ip2state$??0CPlayerCamera@Client@@AEAA@AEBV01@@Z DD imagerel ??0CPlayerCamera@Client@@AEAA@AEBV01@@Z
	DD	0ffffffffH
	DD	imagerel ??0CPlayerCamera@Client@@AEAA@AEBV01@@Z+79
	DD	00H
	DD	imagerel ??0CPlayerCamera@Client@@AEAA@AEBV01@@Z+641
	DD	0ffffffffH
xdata	ENDS
;	COMDAT xdata
xdata	SEGMENT
$stateUnwindMap$??0CPlayerCamera@Client@@AEAA@AEBV01@@Z DD 0ffffffffH
	DD	imagerel ?dtor$0@?0???0CPlayerCamera@Client@@AEAA@AEBV01@@Z@4HA
xdata	ENDS
;	COMDAT CONST
CONST	SEGMENT
$cppxdata$??0CPlayerCamera@Client@@AEAA@AEBV01@@Z DD 019930522H
	DD	01H
	DD	imagerel $stateUnwindMap$??0CPlayerCamera@Client@@AEAA@AEBV01@@Z
	DD	00H
	DD	00H
	DD	03H
	DD	imagerel $ip2state$??0CPlayerCamera@Client@@AEAA@AEBV01@@Z
	DD	0e8H
	DD	00H
	DD	01H
CONST	ENDS
;	COMDAT xdata
xdata	SEGMENT
$unwind$??0CPlayerCamera@Client@@AEAA@AEBV01@@Z DD 025053a11H
	DD	01132318H
	DD	0700c0021H
	DD	0500bH
	DD	imagerel __CxxFrameHandler3
	DD	imagerel $cppxdata$??0CPlayerCamera@Client@@AEAA@AEBV01@@Z
xdata	ENDS
;	COMDAT xdata
xdata	SEGMENT
$unwind$?dtor$0@?0???0CPlayerCamera@Client@@AEAA@PEAUID3D11Device@@PEAUID3D11DeviceContext@@@Z@4HA DD 031001H
	DD	0700c4210H
	DD	0500bH
xdata	ENDS
;	COMDAT xdata
xdata	SEGMENT
$ip2state$??0CPlayerCamera@Client@@AEAA@PEAUID3D11Device@@PEAUID3D11DeviceContext@@@Z DD imagerel ??0CPlayerCamera@Client@@AEAA@PEAUID3D11Device@@PEAUID3D11DeviceContext@@@Z
	DD	0ffffffffH
	DD	imagerel ??0CPlayerCamera@Client@@AEAA@PEAUID3D11Device@@PEAUID3D11DeviceContext@@@Z+91
	DD	00H
	DD	imagerel ??0CPlayerCamera@Client@@AEAA@PEAUID3D11Device@@PEAUID3D11DeviceContext@@@Z+653
	DD	0ffffffffH
xdata	ENDS
;	COMDAT xdata
xdata	SEGMENT
$stateUnwindMap$??0CPlayerCamera@Client@@AEAA@PEAUID3D11Device@@PEAUID3D11DeviceContext@@@Z DD 0ffffffffH
	DD	imagerel ?dtor$0@?0???0CPlayerCamera@Client@@AEAA@PEAUID3D11Device@@PEAUID3D11DeviceContext@@@Z@4HA
xdata	ENDS
;	COMDAT CONST
CONST	SEGMENT
$cppxdata$??0CPlayerCamera@Client@@AEAA@PEAUID3D11Device@@PEAUID3D11DeviceContext@@@Z DD 019930522H
	DD	01H
	DD	imagerel $stateUnwindMap$??0CPlayerCamera@Client@@AEAA@PEAUID3D11Device@@PEAUID3D11DeviceContext@@@Z
	DD	00H
	DD	00H
	DD	03H
	DD	imagerel $ip2state$??0CPlayerCamera@Client@@AEAA@PEAUID3D11Device@@PEAUID3D11DeviceContext@@@Z
	DD	0e8H
	DD	00H
	DD	01H
CONST	ENDS
;	COMDAT xdata
xdata	SEGMENT
$unwind$??0CPlayerCamera@Client@@AEAA@PEAUID3D11Device@@PEAUID3D11DeviceContext@@@Z DD 025053f11H
	DD	0118231dH
	DD	070110021H
	DD	05010H
	DD	imagerel __CxxFrameHandler3
	DD	imagerel $cppxdata$??0CPlayerCamera@Client@@AEAA@PEAUID3D11Device@@PEAUID3D11DeviceContext@@@Z
xdata	ENDS
;	COMDAT xdata
xdata	SEGMENT
$unwind$?XMScalarNearEqual@DirectX@@YA_NMMM@Z DD 025052f01H
	DD	011b2320H
	DD	070140021H
	DD	05013H
xdata	ENDS
;	COMDAT xdata
xdata	SEGMENT
$unwind$?XMMatrixOrthographicLH@DirectX@@YQ?AUXMMATRIX@1@MMMM@Z DD 035054619H
	DD	01213326H
	DD	0701a008fH
	DD	05019H
	DD	imagerel __GSHandlerCheck
	DD	0468H
xdata	ENDS
;	COMDAT CONST
CONST	SEGMENT
?XMMatrixOrthographicLH@DirectX@@YQ?AUXMMATRIX@1@MMMM@Z$rtcName$0 DB 04dH ; DirectX::XMMatrixOrthographicLH
	DB	00H
	ORG $+14
?XMMatrixOrthographicLH@DirectX@@YQ?AUXMMATRIX@1@MMMM@Z$rtcVarDesc DD 040H ; DirectX::XMMatrixOrthographicLH
	DD	040H
	DQ	FLAT:?XMMatrixOrthographicLH@DirectX@@YQ?AUXMMATRIX@1@MMMM@Z$rtcName$0
	ORG $+48
?XMMatrixOrthographicLH@DirectX@@YQ?AUXMMATRIX@1@MMMM@Z$rtcFrameData DD 01H ; DirectX::XMMatrixOrthographicLH
	DD	00H
	DQ	FLAT:?XMMatrixOrthographicLH@DirectX@@YQ?AUXMMATRIX@1@MMMM@Z$rtcVarDesc
CONST	ENDS
;	COMDAT xdata
xdata	SEGMENT
$unwind$?XMMatrixScaling@DirectX@@YQ?AUXMMATRIX@1@MMM@Z DD 035054019H
	DD	011b3320H
	DD	07014003dH
	DD	05013H
	DD	imagerel __GSHandlerCheck
	DD	01d8H
xdata	ENDS
;	COMDAT CONST
CONST	SEGMENT
?XMMatrixScaling@DirectX@@YQ?AUXMMATRIX@1@MMM@Z$rtcName$0 DB 04dH ; DirectX::XMMatrixScaling
	DB	00H
	ORG $+14
?XMMatrixScaling@DirectX@@YQ?AUXMMATRIX@1@MMM@Z$rtcVarDesc DD 040H ; DirectX::XMMatrixScaling
	DD	040H
	DQ	FLAT:?XMMatrixScaling@DirectX@@YQ?AUXMMATRIX@1@MMM@Z$rtcName$0
	ORG $+48
?XMMatrixScaling@DirectX@@YQ?AUXMMATRIX@1@MMM@Z$rtcFrameData DD 01H ; DirectX::XMMatrixScaling
	DD	00H
	DQ	FLAT:?XMMatrixScaling@DirectX@@YQ?AUXMMATRIX@1@MMM@Z$rtcVarDesc
CONST	ENDS
;	COMDAT xdata
xdata	SEGMENT
$unwind$?XMMatrixTranslation@DirectX@@YQ?AUXMMATRIX@1@MMM@Z DD 035054019H
	DD	011b3320H
	DD	070140031H
	DD	05013H
	DD	imagerel __GSHandlerCheck
	DD	0178H
xdata	ENDS
;	COMDAT CONST
CONST	SEGMENT
?XMMatrixTranslation@DirectX@@YQ?AUXMMATRIX@1@MMM@Z$rtcName$0 DB 04dH ; DirectX::XMMatrixTranslation
	DB	00H
	ORG $+14
?XMMatrixTranslation@DirectX@@YQ?AUXMMATRIX@1@MMM@Z$rtcVarDesc DD 040H ; DirectX::XMMatrixTranslation
	DD	040H
	DQ	FLAT:?XMMatrixTranslation@DirectX@@YQ?AUXMMATRIX@1@MMM@Z$rtcName$0
	ORG $+48
?XMMatrixTranslation@DirectX@@YQ?AUXMMATRIX@1@MMM@Z$rtcFrameData DD 01H ; DirectX::XMMatrixTranslation
	DD	00H
	DQ	FLAT:?XMMatrixTranslation@DirectX@@YQ?AUXMMATRIX@1@MMM@Z$rtcVarDesc
CONST	ENDS
;	COMDAT xdata
xdata	SEGMENT
$unwind$?XMMatrixIdentity@DirectX@@YQ?AUXMMATRIX@1@XZ DD 035052f19H
	DD	010a330fH
	DD	07003002bH
	DD	05002H
	DD	imagerel __GSHandlerCheck
	DD	0148H
xdata	ENDS
;	COMDAT CONST
CONST	SEGMENT
?XMMatrixIdentity@DirectX@@YQ?AUXMMATRIX@1@XZ$rtcName$0 DB 04dH ; DirectX::XMMatrixIdentity
	DB	00H
	ORG $+14
?XMMatrixIdentity@DirectX@@YQ?AUXMMATRIX@1@XZ$rtcVarDesc DD 040H ; DirectX::XMMatrixIdentity
	DD	040H
	DQ	FLAT:?XMMatrixIdentity@DirectX@@YQ?AUXMMATRIX@1@XZ$rtcName$0
	ORG $+48
?XMMatrixIdentity@DirectX@@YQ?AUXMMATRIX@1@XZ$rtcFrameData DD 01H ; DirectX::XMMatrixIdentity
	DD	00H
	DQ	FLAT:?XMMatrixIdentity@DirectX@@YQ?AUXMMATRIX@1@XZ$rtcVarDesc
CONST	ENDS
;	COMDAT xdata
xdata	SEGMENT
$unwind$?XMMatrixMultiply@DirectX@@YQ?AUXMMATRIX@1@U21@AEBU21@@Z DD 035053f19H
	DD	010e3313H
	DD	0700701b7H
	DD	05006H
	DD	imagerel __GSHandlerCheck
	DD	0da8H
xdata	ENDS
;	COMDAT CONST
CONST	SEGMENT
?XMMatrixMultiply@DirectX@@YQ?AUXMMATRIX@1@U21@AEBU21@@Z$rtcName$0 DB 04dH ; DirectX::XMMatrixMultiply
	DB	031H
	DB	00H
	ORG $+5
?XMMatrixMultiply@DirectX@@YQ?AUXMMATRIX@1@U21@AEBU21@@Z$rtcName$1 DB 06dH ; DirectX::XMMatrixMultiply
	DB	052H
	DB	065H
	DB	073H
	DB	075H
	DB	06cH
	DB	074H
	DB	00H
?XMMatrixMultiply@DirectX@@YQ?AUXMMATRIX@1@U21@AEBU21@@Z$rtcVarDesc DD 0a0H ; DirectX::XMMatrixMultiply
	DD	040H
	DQ	FLAT:?XMMatrixMultiply@DirectX@@YQ?AUXMMATRIX@1@U21@AEBU21@@Z$rtcName$1
	DD	040H
	DD	040H
	DQ	FLAT:?XMMatrixMultiply@DirectX@@YQ?AUXMMATRIX@1@U21@AEBU21@@Z$rtcName$0
	ORG $+96
?XMMatrixMultiply@DirectX@@YQ?AUXMMATRIX@1@U21@AEBU21@@Z$rtcFrameData DD 02H ; DirectX::XMMatrixMultiply
	DD	00H
	DQ	FLAT:?XMMatrixMultiply@DirectX@@YQ?AUXMMATRIX@1@U21@AEBU21@@Z$rtcVarDesc
CONST	ENDS
;	COMDAT xdata
xdata	SEGMENT
$unwind$?XMVector3Normalize@DirectX@@YQ?AT__m128@@T2@@Z DD 035052a01H
	DD	010a330fH
	DD	0700300dfH
	DD	05002H
xdata	ENDS
;	COMDAT xdata
xdata	SEGMENT
$unwind$?XMVector3Length@DirectX@@YQ?AT__m128@@T2@@Z DD 015052a01H
	DD	010a130fH
	DD	070030057H
	DD	05002H
xdata	ENDS
;	COMDAT xdata
xdata	SEGMENT
$unwind$?XMVectorLerp@DirectX@@YQ?AT__m128@@T2@0M@Z DD 015053b01H
	DD	010f1314H
	DD	070080051H
	DD	05007H
xdata	ENDS
;	COMDAT xdata
xdata	SEGMENT
$unwind$?XMVectorScale@DirectX@@YQ?AT__m128@@T2@M@Z DD 015052f01H
	DD	010f1314H
	DD	070080033H
	DD	05007H
xdata	ENDS
;	COMDAT xdata
xdata	SEGMENT
$unwind$?XMVectorSubtract@DirectX@@YQ?AT__m128@@T2@0@Z DD 015053601H
	DD	010a130fH
	DD	07003002dH
	DD	05002H
xdata	ENDS
;	COMDAT xdata
xdata	SEGMENT
$unwind$?XMVectorAdd@DirectX@@YQ?AT__m128@@T2@0@Z DD 015053601H
	DD	010a130fH
	DD	07003002dH
	DD	05002H
xdata	ENDS
;	COMDAT xdata
xdata	SEGMENT
$unwind$?XMVectorSetY@DirectX@@YQ?AT__m128@@T2@M@Z DD 015052f01H
	DD	010f1314H
	DD	070080045H
	DD	05007H
xdata	ENDS
;	COMDAT xdata
xdata	SEGMENT
$unwind$?XMVectorGetY@DirectX@@YQMT__m128@@@Z DD 015052a01H
	DD	010a130fH
	DD	07003002dH
	DD	05002H
xdata	ENDS
;	COMDAT xdata
xdata	SEGMENT
$unwind$?XMVectorGetX@DirectX@@YQMT__m128@@@Z DD 015052a01H
	DD	010a130fH
	DD	070030021H
	DD	05002H
xdata	ENDS
;	COMDAT xdata
xdata	SEGMENT
$unwind$?XMVectorSet@DirectX@@YQ?AT__m128@@MMMM@Z DD 015053501H
	DD	01211326H
	DD	0701a0021H
	DD	05019H
xdata	ENDS
;	COMDAT xdata
xdata	SEGMENT
$unwind$?XMStoreFloat4x4@DirectX@@YQXPEAUXMFLOAT4X4@1@UXMMATRIX@1@@Z DD 025053601H
	DD	010e2313H
	DD	070070029H
	DD	05006H
xdata	ENDS
;	COMDAT CONST
CONST	SEGMENT
?XMStoreFloat4x4@DirectX@@YQXPEAUXMFLOAT4X4@1@UXMMATRIX@1@@Z$rtcName$0 DB 04dH ; DirectX::XMStoreFloat4x4
	DB	00H
	ORG $+14
?XMStoreFloat4x4@DirectX@@YQXPEAUXMFLOAT4X4@1@UXMMATRIX@1@@Z$rtcVarDesc DD 030H ; DirectX::XMStoreFloat4x4
	DD	040H
	DQ	FLAT:?XMStoreFloat4x4@DirectX@@YQXPEAUXMFLOAT4X4@1@UXMMATRIX@1@@Z$rtcName$0
	ORG $+48
?XMStoreFloat4x4@DirectX@@YQXPEAUXMFLOAT4X4@1@UXMMATRIX@1@@Z$rtcFrameData DD 01H ; DirectX::XMStoreFloat4x4
	DD	00H
	DQ	FLAT:?XMStoreFloat4x4@DirectX@@YQXPEAUXMFLOAT4X4@1@UXMMATRIX@1@@Z$rtcVarDesc
CONST	ENDS
;	COMDAT xdata
xdata	SEGMENT
$unwind$?XMStoreFloat4@DirectX@@YQXPEAUXMFLOAT4@1@T__m128@@@Z DD 025053601H
	DD	010e2313H
	DD	070070023H
	DD	05006H
xdata	ENDS
;	COMDAT xdata
xdata	SEGMENT
$unwind$?XMLoadFloat4@DirectX@@YQ?AT__m128@@PEBUXMFLOAT4@1@@Z DD 035052a01H
	DD	010e3313H
	DD	070070025H
	DD	05006H
xdata	ENDS
;	COMDAT xdata
xdata	SEGMENT
$unwind$?XMLoadFloat3@DirectX@@YQ?AT__m128@@PEBUXMFLOAT3@1@@Z DD 035052a01H
	DD	010e3313H
	DD	070070055H
	DD	05006H
xdata	ENDS
;	COMDAT xdata
xdata	SEGMENT
$unwind$??0XMFLOAT4X4@DirectX@@QEAA@XZ DD 05052801H
	DD	010e0311H
	DD	070070019H
	DD	05006H
xdata	ENDS
;	COMDAT xdata
xdata	SEGMENT
$unwind$??4XMFLOAT4@DirectX@@QEAAAEAU01@AEBU01@@Z DD 05052d01H
	DD	01130316H
	DD	0700c0019H
	DD	0500bH
xdata	ENDS
;	COMDAT xdata
xdata	SEGMENT
$unwind$??0XMFLOAT4@DirectX@@QEAA@XZ DD 05052801H
	DD	010e0311H
	DD	070070019H
	DD	05006H
xdata	ENDS
;	COMDAT xdata
xdata	SEGMENT
$unwind$??4XMFLOAT3@DirectX@@QEAAAEAU01@AEBU01@@Z DD 05052d01H
	DD	01130316H
	DD	0700c0019H
	DD	0500bH
xdata	ENDS
;	COMDAT xdata
xdata	SEGMENT
$unwind$??0XMFLOAT3@DirectX@@QEAA@MMM@Z DD 05053a01H
	DD	01200323H
	DD	070190019H
	DD	05018H
xdata	ENDS
;	COMDAT xdata
xdata	SEGMENT
$unwind$??0XMFLOAT3@DirectX@@QEAA@XZ DD 05052801H
	DD	010e0311H
	DD	070070019H
	DD	05006H
xdata	ENDS
;	COMDAT xdata
xdata	SEGMENT
$unwind$??DXMMATRIX@DirectX@@QEBQ?AU01@U01@@Z DD 035063701H
	DD	010f3314H
	DD	070080042H
	DD	050066007H
xdata	ENDS
;	COMDAT CONST
CONST	SEGMENT
??DXMMATRIX@DirectX@@QEBQ?AU01@U01@@Z$rtcName$0 DB 04dH	; DirectX::XMMATRIX::operator*
	DB	00H
	ORG $+14
??DXMMATRIX@DirectX@@QEBQ?AU01@U01@@Z$rtcVarDesc DD 040H ; DirectX::XMMATRIX::operator*
	DD	040H
	DQ	FLAT:??DXMMATRIX@DirectX@@QEBQ?AU01@U01@@Z$rtcName$0
	ORG $+48
??DXMMATRIX@DirectX@@QEBQ?AU01@U01@@Z$rtcFrameData DD 01H ; DirectX::XMMATRIX::operator*
	DD	00H
	DQ	FLAT:??DXMMATRIX@DirectX@@QEBQ?AU01@U01@@Z$rtcVarDesc
CONST	ENDS
;	COMDAT xdata
xdata	SEGMENT
$unwind$??0XMMATRIX@DirectX@@QEAA@XZ DD 05052801H
	DD	010e0311H
	DD	070070019H
	DD	05006H
xdata	ENDS
;	COMDAT xdata
xdata	SEGMENT
$unwind$??DDirectX@@YQ?AT__m128@@T1@M@Z DD 035052f01H
	DD	010f3314H
	DD	07008002bH
	DD	05007H
xdata	ENDS
;	COMDAT xdata
xdata	SEGMENT
$unwind$??GDirectX@@YQ?AT__m128@@T1@0@Z DD 035053601H
	DD	010a330fH
	DD	070030031H
	DD	05002H
xdata	ENDS
;	COMDAT xdata
xdata	SEGMENT
$unwind$??HDirectX@@YQ?AT__m128@@T1@0@Z DD 035053601H
	DD	010a330fH
	DD	070030031H
	DD	05002H
xdata	ENDS
;	COMDAT xdata
xdata	SEGMENT
$unwind$??BXMVECTORU32@DirectX@@QEBA?AT__m128@@XZ DD 05052d01H
	DD	01130316H
	DD	0700c0019H
	DD	0500bH
xdata	ENDS
;	COMDAT xdata
xdata	SEGMENT
$unwind$??BXMVECTORI32@DirectX@@QEBA?AT__m128@@XZ DD 05052d01H
	DD	01130316H
	DD	0700c0019H
	DD	0500bH
xdata	ENDS
;	COMDAT xdata
xdata	SEGMENT
$unwind$??BXMVECTORF32@DirectX@@QEBA?AT__m128@@XZ DD 05052d01H
	DD	01130316H
	DD	0700c0019H
	DD	0500bH
xdata	ENDS
;	COMDAT xdata
xdata	SEGMENT
$unwind$?XMConvertToRadians@DirectX@@YAMM@Z DD 015052301H
	DD	010f1314H
	DD	07008001bH
	DD	05007H
xdata	ENDS
;	COMDAT xdata
xdata	SEGMENT
$unwind$?cos@@YAMM@Z DD 035052301H
	DD	010f3314H
	DD	07008001fH
	DD	05007H
xdata	ENDS
;	COMDAT xdata
xdata	SEGMENT
$unwind$fabsf DD 035052301H
	DD	010f3314H
	DD	07008001fH
	DD	05007H
xdata	ENDS
;	COMDAT xdata
xdata	SEGMENT
$unwind$?__empty_global_delete@@YAXPEAX_K@Z DD 05052d01H
	DD	01130316H
	DD	0700c0019H
	DD	0500bH
xdata	ENDS
;	COMDAT xdata
xdata	SEGMENT
$unwind$?__empty_global_delete@@YAXPEAX@Z DD 05052801H
	DD	010e0311H
	DD	070070019H
	DD	05006H
xdata	ENDS
;	COMDAT xdata
xdata	SEGMENT
$unwind$??_H@YAXPEAX_K1P6APEAX0@Z@Z DD 025053901H
	DD	011d2322H
	DD	07016001fH
	DD	05015H
xdata	ENDS
; Function compile flags: /Odtp /RTCsu /ZI
; File c:\users\arcco\documents\github\framework\reference\headers\engine_template.h
;	COMDAT ??$Safe_Release@PEAVCTexture@Engine@@@Engine@@YAKAEAPEAVCTexture@0@@Z
_TEXT	SEGMENT
dwRefCnt$ = 4
classType$ = 256
??$Safe_Release@PEAVCTexture@Engine@@@Engine@@YAKAEAPEAVCTexture@0@@Z PROC ; Engine::Safe_Release<Engine::CTexture * __ptr64>, COMDAT

; 18   : 	{

$LN5:
  00000	48 89 4c 24 08	 mov	 QWORD PTR [rsp+8], rcx
  00005	55		 push	 rbp
  00006	57		 push	 rdi
  00007	48 81 ec 08 01
	00 00		 sub	 rsp, 264		; 00000108H
  0000e	48 8d 6c 24 20	 lea	 rbp, QWORD PTR [rsp+32]
  00013	48 8b fc	 mov	 rdi, rsp
  00016	b9 42 00 00 00	 mov	 ecx, 66			; 00000042H
  0001b	b8 cc cc cc cc	 mov	 eax, -858993460		; ccccccccH
  00020	f3 ab		 rep stosd
  00022	48 8b 8c 24 28
	01 00 00	 mov	 rcx, QWORD PTR [rsp+296]

; 19   : 		unsigned long dwRefCnt = 0;

  0002a	c7 45 04 00 00
	00 00		 mov	 DWORD PTR dwRefCnt$[rbp], 0

; 20   : 
; 21   : 		if (nullptr != classType)

  00031	48 8b 85 00 01
	00 00		 mov	 rax, QWORD PTR classType$[rbp]
  00038	48 83 38 00	 cmp	 QWORD PTR [rax], 0
  0003c	74 27		 je	 SHORT $LN2@Safe_Relea

; 22   : 		{
; 23   : 			dwRefCnt = classType->Release();

  0003e	48 8b 85 00 01
	00 00		 mov	 rax, QWORD PTR classType$[rbp]
  00045	48 8b 08	 mov	 rcx, QWORD PTR [rax]
  00048	ff 15 00 00 00
	00		 call	 QWORD PTR __imp_?Release@CBase@Engine@@QEAAKXZ
  0004e	89 45 04	 mov	 DWORD PTR dwRefCnt$[rbp], eax

; 24   : 
; 25   : 			if (0 == dwRefCnt)

  00051	83 7d 04 00	 cmp	 DWORD PTR dwRefCnt$[rbp], 0
  00055	75 0e		 jne	 SHORT $LN3@Safe_Relea

; 26   : 			{
; 27   : 				classType = nullptr;

  00057	48 8b 85 00 01
	00 00		 mov	 rax, QWORD PTR classType$[rbp]
  0005e	48 c7 00 00 00
	00 00		 mov	 QWORD PTR [rax], 0
$LN3@Safe_Relea:
$LN2@Safe_Relea:

; 28   : 			}
; 29   : 		}
; 30   : 
; 31   : 		return dwRefCnt;

  00065	8b 45 04	 mov	 eax, DWORD PTR dwRefCnt$[rbp]

; 32   : 	}

  00068	48 8d a5 e8 00
	00 00		 lea	 rsp, QWORD PTR [rbp+232]
  0006f	5f		 pop	 rdi
  00070	5d		 pop	 rbp
  00071	c3		 ret	 0
??$Safe_Release@PEAVCTexture@Engine@@@Engine@@YAKAEAPEAVCTexture@0@@Z ENDP ; Engine::Safe_Release<Engine::CTexture * __ptr64>
_TEXT	ENDS
; Function compile flags: /Odtp /RTCsu /ZI
; File c:\users\arcco\documents\github\framework\reference\headers\engine_template.h
;	COMDAT ??$Safe_Release@PEAVCVIBuffer_Rect@Engine@@@Engine@@YAKAEAPEAVCVIBuffer_Rect@0@@Z
_TEXT	SEGMENT
dwRefCnt$ = 4
classType$ = 256
??$Safe_Release@PEAVCVIBuffer_Rect@Engine@@@Engine@@YAKAEAPEAVCVIBuffer_Rect@0@@Z PROC ; Engine::Safe_Release<Engine::CVIBuffer_Rect * __ptr64>, COMDAT

; 18   : 	{

$LN5:
  00000	48 89 4c 24 08	 mov	 QWORD PTR [rsp+8], rcx
  00005	55		 push	 rbp
  00006	57		 push	 rdi
  00007	48 81 ec 08 01
	00 00		 sub	 rsp, 264		; 00000108H
  0000e	48 8d 6c 24 20	 lea	 rbp, QWORD PTR [rsp+32]
  00013	48 8b fc	 mov	 rdi, rsp
  00016	b9 42 00 00 00	 mov	 ecx, 66			; 00000042H
  0001b	b8 cc cc cc cc	 mov	 eax, -858993460		; ccccccccH
  00020	f3 ab		 rep stosd
  00022	48 8b 8c 24 28
	01 00 00	 mov	 rcx, QWORD PTR [rsp+296]

; 19   : 		unsigned long dwRefCnt = 0;

  0002a	c7 45 04 00 00
	00 00		 mov	 DWORD PTR dwRefCnt$[rbp], 0

; 20   : 
; 21   : 		if (nullptr != classType)

  00031	48 8b 85 00 01
	00 00		 mov	 rax, QWORD PTR classType$[rbp]
  00038	48 83 38 00	 cmp	 QWORD PTR [rax], 0
  0003c	74 27		 je	 SHORT $LN2@Safe_Relea

; 22   : 		{
; 23   : 			dwRefCnt = classType->Release();

  0003e	48 8b 85 00 01
	00 00		 mov	 rax, QWORD PTR classType$[rbp]
  00045	48 8b 08	 mov	 rcx, QWORD PTR [rax]
  00048	ff 15 00 00 00
	00		 call	 QWORD PTR __imp_?Release@CBase@Engine@@QEAAKXZ
  0004e	89 45 04	 mov	 DWORD PTR dwRefCnt$[rbp], eax

; 24   : 
; 25   : 			if (0 == dwRefCnt)

  00051	83 7d 04 00	 cmp	 DWORD PTR dwRefCnt$[rbp], 0
  00055	75 0e		 jne	 SHORT $LN3@Safe_Relea

; 26   : 			{
; 27   : 				classType = nullptr;

  00057	48 8b 85 00 01
	00 00		 mov	 rax, QWORD PTR classType$[rbp]
  0005e	48 c7 00 00 00
	00 00		 mov	 QWORD PTR [rax], 0
$LN3@Safe_Relea:
$LN2@Safe_Relea:

; 28   : 			}
; 29   : 		}
; 30   : 
; 31   : 		return dwRefCnt;

  00065	8b 45 04	 mov	 eax, DWORD PTR dwRefCnt$[rbp]

; 32   : 	}

  00068	48 8d a5 e8 00
	00 00		 lea	 rsp, QWORD PTR [rbp+232]
  0006f	5f		 pop	 rdi
  00070	5d		 pop	 rbp
  00071	c3		 ret	 0
??$Safe_Release@PEAVCVIBuffer_Rect@Engine@@@Engine@@YAKAEAPEAVCVIBuffer_Rect@0@@Z ENDP ; Engine::Safe_Release<Engine::CVIBuffer_Rect * __ptr64>
_TEXT	ENDS
; Function compile flags: /Odtp /RTCsu /ZI
; File c:\users\arcco\documents\github\framework\reference\headers\engine_template.h
;	COMDAT ??$Safe_Release@PEAVCShader@Engine@@@Engine@@YAKAEAPEAVCShader@0@@Z
_TEXT	SEGMENT
dwRefCnt$ = 4
classType$ = 256
??$Safe_Release@PEAVCShader@Engine@@@Engine@@YAKAEAPEAVCShader@0@@Z PROC ; Engine::Safe_Release<Engine::CShader * __ptr64>, COMDAT

; 18   : 	{

$LN5:
  00000	48 89 4c 24 08	 mov	 QWORD PTR [rsp+8], rcx
  00005	55		 push	 rbp
  00006	57		 push	 rdi
  00007	48 81 ec 08 01
	00 00		 sub	 rsp, 264		; 00000108H
  0000e	48 8d 6c 24 20	 lea	 rbp, QWORD PTR [rsp+32]
  00013	48 8b fc	 mov	 rdi, rsp
  00016	b9 42 00 00 00	 mov	 ecx, 66			; 00000042H
  0001b	b8 cc cc cc cc	 mov	 eax, -858993460		; ccccccccH
  00020	f3 ab		 rep stosd
  00022	48 8b 8c 24 28
	01 00 00	 mov	 rcx, QWORD PTR [rsp+296]

; 19   : 		unsigned long dwRefCnt = 0;

  0002a	c7 45 04 00 00
	00 00		 mov	 DWORD PTR dwRefCnt$[rbp], 0

; 20   : 
; 21   : 		if (nullptr != classType)

  00031	48 8b 85 00 01
	00 00		 mov	 rax, QWORD PTR classType$[rbp]
  00038	48 83 38 00	 cmp	 QWORD PTR [rax], 0
  0003c	74 27		 je	 SHORT $LN2@Safe_Relea

; 22   : 		{
; 23   : 			dwRefCnt = classType->Release();

  0003e	48 8b 85 00 01
	00 00		 mov	 rax, QWORD PTR classType$[rbp]
  00045	48 8b 08	 mov	 rcx, QWORD PTR [rax]
  00048	ff 15 00 00 00
	00		 call	 QWORD PTR __imp_?Release@CBase@Engine@@QEAAKXZ
  0004e	89 45 04	 mov	 DWORD PTR dwRefCnt$[rbp], eax

; 24   : 
; 25   : 			if (0 == dwRefCnt)

  00051	83 7d 04 00	 cmp	 DWORD PTR dwRefCnt$[rbp], 0
  00055	75 0e		 jne	 SHORT $LN3@Safe_Relea

; 26   : 			{
; 27   : 				classType = nullptr;

  00057	48 8b 85 00 01
	00 00		 mov	 rax, QWORD PTR classType$[rbp]
  0005e	48 c7 00 00 00
	00 00		 mov	 QWORD PTR [rax], 0
$LN3@Safe_Relea:
$LN2@Safe_Relea:

; 28   : 			}
; 29   : 		}
; 30   : 
; 31   : 		return dwRefCnt;

  00065	8b 45 04	 mov	 eax, DWORD PTR dwRefCnt$[rbp]

; 32   : 	}

  00068	48 8d a5 e8 00
	00 00		 lea	 rsp, QWORD PTR [rbp+232]
  0006f	5f		 pop	 rdi
  00070	5d		 pop	 rbp
  00071	c3		 ret	 0
??$Safe_Release@PEAVCShader@Engine@@@Engine@@YAKAEAPEAVCShader@0@@Z ENDP ; Engine::Safe_Release<Engine::CShader * __ptr64>
_TEXT	ENDS
; Function compile flags: /Odtp /RTCsu /ZI
; File c:\users\arcco\documents\github\framework\reference\headers\engine_template.h
;	COMDAT ??$Safe_Release@PEAVCRenderer@Engine@@@Engine@@YAKAEAPEAVCRenderer@0@@Z
_TEXT	SEGMENT
dwRefCnt$ = 4
classType$ = 256
??$Safe_Release@PEAVCRenderer@Engine@@@Engine@@YAKAEAPEAVCRenderer@0@@Z PROC ; Engine::Safe_Release<Engine::CRenderer * __ptr64>, COMDAT

; 18   : 	{

$LN5:
  00000	48 89 4c 24 08	 mov	 QWORD PTR [rsp+8], rcx
  00005	55		 push	 rbp
  00006	57		 push	 rdi
  00007	48 81 ec 08 01
	00 00		 sub	 rsp, 264		; 00000108H
  0000e	48 8d 6c 24 20	 lea	 rbp, QWORD PTR [rsp+32]
  00013	48 8b fc	 mov	 rdi, rsp
  00016	b9 42 00 00 00	 mov	 ecx, 66			; 00000042H
  0001b	b8 cc cc cc cc	 mov	 eax, -858993460		; ccccccccH
  00020	f3 ab		 rep stosd
  00022	48 8b 8c 24 28
	01 00 00	 mov	 rcx, QWORD PTR [rsp+296]

; 19   : 		unsigned long dwRefCnt = 0;

  0002a	c7 45 04 00 00
	00 00		 mov	 DWORD PTR dwRefCnt$[rbp], 0

; 20   : 
; 21   : 		if (nullptr != classType)

  00031	48 8b 85 00 01
	00 00		 mov	 rax, QWORD PTR classType$[rbp]
  00038	48 83 38 00	 cmp	 QWORD PTR [rax], 0
  0003c	74 27		 je	 SHORT $LN2@Safe_Relea

; 22   : 		{
; 23   : 			dwRefCnt = classType->Release();

  0003e	48 8b 85 00 01
	00 00		 mov	 rax, QWORD PTR classType$[rbp]
  00045	48 8b 08	 mov	 rcx, QWORD PTR [rax]
  00048	ff 15 00 00 00
	00		 call	 QWORD PTR __imp_?Release@CBase@Engine@@QEAAKXZ
  0004e	89 45 04	 mov	 DWORD PTR dwRefCnt$[rbp], eax

; 24   : 
; 25   : 			if (0 == dwRefCnt)

  00051	83 7d 04 00	 cmp	 DWORD PTR dwRefCnt$[rbp], 0
  00055	75 0e		 jne	 SHORT $LN3@Safe_Relea

; 26   : 			{
; 27   : 				classType = nullptr;

  00057	48 8b 85 00 01
	00 00		 mov	 rax, QWORD PTR classType$[rbp]
  0005e	48 c7 00 00 00
	00 00		 mov	 QWORD PTR [rax], 0
$LN3@Safe_Relea:
$LN2@Safe_Relea:

; 28   : 			}
; 29   : 		}
; 30   : 
; 31   : 		return dwRefCnt;

  00065	8b 45 04	 mov	 eax, DWORD PTR dwRefCnt$[rbp]

; 32   : 	}

  00068	48 8d a5 e8 00
	00 00		 lea	 rsp, QWORD PTR [rbp+232]
  0006f	5f		 pop	 rdi
  00070	5d		 pop	 rbp
  00071	c3		 ret	 0
??$Safe_Release@PEAVCRenderer@Engine@@@Engine@@YAKAEAPEAVCRenderer@0@@Z ENDP ; Engine::Safe_Release<Engine::CRenderer * __ptr64>
_TEXT	ENDS
; Function compile flags: /Odtp /RTCsu /ZI
; File c:\users\arcco\documents\github\framework\reference\headers\engine_template.h
;	COMDAT ??$Safe_Release@PEAVCTransform@Engine@@@Engine@@YAKAEAPEAVCTransform@0@@Z
_TEXT	SEGMENT
dwRefCnt$ = 4
classType$ = 256
??$Safe_Release@PEAVCTransform@Engine@@@Engine@@YAKAEAPEAVCTransform@0@@Z PROC ; Engine::Safe_Release<Engine::CTransform * __ptr64>, COMDAT

; 18   : 	{

$LN5:
  00000	48 89 4c 24 08	 mov	 QWORD PTR [rsp+8], rcx
  00005	55		 push	 rbp
  00006	57		 push	 rdi
  00007	48 81 ec 08 01
	00 00		 sub	 rsp, 264		; 00000108H
  0000e	48 8d 6c 24 20	 lea	 rbp, QWORD PTR [rsp+32]
  00013	48 8b fc	 mov	 rdi, rsp
  00016	b9 42 00 00 00	 mov	 ecx, 66			; 00000042H
  0001b	b8 cc cc cc cc	 mov	 eax, -858993460		; ccccccccH
  00020	f3 ab		 rep stosd
  00022	48 8b 8c 24 28
	01 00 00	 mov	 rcx, QWORD PTR [rsp+296]

; 19   : 		unsigned long dwRefCnt = 0;

  0002a	c7 45 04 00 00
	00 00		 mov	 DWORD PTR dwRefCnt$[rbp], 0

; 20   : 
; 21   : 		if (nullptr != classType)

  00031	48 8b 85 00 01
	00 00		 mov	 rax, QWORD PTR classType$[rbp]
  00038	48 83 38 00	 cmp	 QWORD PTR [rax], 0
  0003c	74 27		 je	 SHORT $LN2@Safe_Relea

; 22   : 		{
; 23   : 			dwRefCnt = classType->Release();

  0003e	48 8b 85 00 01
	00 00		 mov	 rax, QWORD PTR classType$[rbp]
  00045	48 8b 08	 mov	 rcx, QWORD PTR [rax]
  00048	ff 15 00 00 00
	00		 call	 QWORD PTR __imp_?Release@CBase@Engine@@QEAAKXZ
  0004e	89 45 04	 mov	 DWORD PTR dwRefCnt$[rbp], eax

; 24   : 
; 25   : 			if (0 == dwRefCnt)

  00051	83 7d 04 00	 cmp	 DWORD PTR dwRefCnt$[rbp], 0
  00055	75 0e		 jne	 SHORT $LN3@Safe_Relea

; 26   : 			{
; 27   : 				classType = nullptr;

  00057	48 8b 85 00 01
	00 00		 mov	 rax, QWORD PTR classType$[rbp]
  0005e	48 c7 00 00 00
	00 00		 mov	 QWORD PTR [rax], 0
$LN3@Safe_Relea:
$LN2@Safe_Relea:

; 28   : 			}
; 29   : 		}
; 30   : 
; 31   : 		return dwRefCnt;

  00065	8b 45 04	 mov	 eax, DWORD PTR dwRefCnt$[rbp]

; 32   : 	}

  00068	48 8d a5 e8 00
	00 00		 lea	 rsp, QWORD PTR [rbp+232]
  0006f	5f		 pop	 rdi
  00070	5d		 pop	 rbp
  00071	c3		 ret	 0
??$Safe_Release@PEAVCTransform@Engine@@@Engine@@YAKAEAPEAVCTransform@0@@Z ENDP ; Engine::Safe_Release<Engine::CTransform * __ptr64>
_TEXT	ENDS
; Function compile flags: /Odtp /RTCsu /ZI
; File c:\users\arcco\documents\github\framework\reference\headers\engine_template.h
;	COMDAT ??$Safe_Release@PEAVCPlayerCamera@Client@@@Engine@@YAKAEAPEAVCPlayerCamera@Client@@@Z
_TEXT	SEGMENT
dwRefCnt$ = 4
classType$ = 256
??$Safe_Release@PEAVCPlayerCamera@Client@@@Engine@@YAKAEAPEAVCPlayerCamera@Client@@@Z PROC ; Engine::Safe_Release<Client::CPlayerCamera * __ptr64>, COMDAT

; 18   : 	{

$LN5:
  00000	48 89 4c 24 08	 mov	 QWORD PTR [rsp+8], rcx
  00005	55		 push	 rbp
  00006	57		 push	 rdi
  00007	48 81 ec 08 01
	00 00		 sub	 rsp, 264		; 00000108H
  0000e	48 8d 6c 24 20	 lea	 rbp, QWORD PTR [rsp+32]
  00013	48 8b fc	 mov	 rdi, rsp
  00016	b9 42 00 00 00	 mov	 ecx, 66			; 00000042H
  0001b	b8 cc cc cc cc	 mov	 eax, -858993460		; ccccccccH
  00020	f3 ab		 rep stosd
  00022	48 8b 8c 24 28
	01 00 00	 mov	 rcx, QWORD PTR [rsp+296]

; 19   : 		unsigned long dwRefCnt = 0;

  0002a	c7 45 04 00 00
	00 00		 mov	 DWORD PTR dwRefCnt$[rbp], 0

; 20   : 
; 21   : 		if (nullptr != classType)

  00031	48 8b 85 00 01
	00 00		 mov	 rax, QWORD PTR classType$[rbp]
  00038	48 83 38 00	 cmp	 QWORD PTR [rax], 0
  0003c	74 27		 je	 SHORT $LN2@Safe_Relea

; 22   : 		{
; 23   : 			dwRefCnt = classType->Release();

  0003e	48 8b 85 00 01
	00 00		 mov	 rax, QWORD PTR classType$[rbp]
  00045	48 8b 08	 mov	 rcx, QWORD PTR [rax]
  00048	ff 15 00 00 00
	00		 call	 QWORD PTR __imp_?Release@CBase@Engine@@QEAAKXZ
  0004e	89 45 04	 mov	 DWORD PTR dwRefCnt$[rbp], eax

; 24   : 
; 25   : 			if (0 == dwRefCnt)

  00051	83 7d 04 00	 cmp	 DWORD PTR dwRefCnt$[rbp], 0
  00055	75 0e		 jne	 SHORT $LN3@Safe_Relea

; 26   : 			{
; 27   : 				classType = nullptr;

  00057	48 8b 85 00 01
	00 00		 mov	 rax, QWORD PTR classType$[rbp]
  0005e	48 c7 00 00 00
	00 00		 mov	 QWORD PTR [rax], 0
$LN3@Safe_Relea:
$LN2@Safe_Relea:

; 28   : 			}
; 29   : 		}
; 30   : 
; 31   : 		return dwRefCnt;

  00065	8b 45 04	 mov	 eax, DWORD PTR dwRefCnt$[rbp]

; 32   : 	}

  00068	48 8d a5 e8 00
	00 00		 lea	 rsp, QWORD PTR [rbp+232]
  0006f	5f		 pop	 rdi
  00070	5d		 pop	 rbp
  00071	c3		 ret	 0
??$Safe_Release@PEAVCPlayerCamera@Client@@@Engine@@YAKAEAPEAVCPlayerCamera@Client@@@Z ENDP ; Engine::Safe_Release<Client::CPlayerCamera * __ptr64>
_TEXT	ENDS
; Function compile flags: /Odtp /RTCsu /ZI
; File c:\users\arcco\documents\github\framework\client\public\applicationmanager.h
;	COMDAT ?SetWinMotion@CApplicationManager@Client@@QEAAX_N@Z
_TEXT	SEGMENT
this$ = 224
value$ = 232
?SetWinMotion@CApplicationManager@Client@@QEAAX_N@Z PROC ; Client::CApplicationManager::SetWinMotion, COMDAT

; 36   : 	void SetWinMotion(_bool value) { m_isWinMotionPlay = value; }

$LN3:
  00000	88 54 24 10	 mov	 BYTE PTR [rsp+16], dl
  00004	48 89 4c 24 08	 mov	 QWORD PTR [rsp+8], rcx
  00009	55		 push	 rbp
  0000a	57		 push	 rdi
  0000b	48 81 ec c8 00
	00 00		 sub	 rsp, 200		; 000000c8H
  00012	48 8b ec	 mov	 rbp, rsp
  00015	48 8b fc	 mov	 rdi, rsp
  00018	b9 32 00 00 00	 mov	 ecx, 50			; 00000032H
  0001d	b8 cc cc cc cc	 mov	 eax, -858993460		; ccccccccH
  00022	f3 ab		 rep stosd
  00024	48 8b 8c 24 e8
	00 00 00	 mov	 rcx, QWORD PTR [rsp+232]
  0002c	48 8b 85 e0 00
	00 00		 mov	 rax, QWORD PTR this$[rbp]
  00033	0f b6 8d e8 00
	00 00		 movzx	 ecx, BYTE PTR value$[rbp]
  0003a	88 48 4b	 mov	 BYTE PTR [rax+75], cl
  0003d	48 8d a5 c8 00
	00 00		 lea	 rsp, QWORD PTR [rbp+200]
  00044	5f		 pop	 rdi
  00045	5d		 pop	 rbp
  00046	c3		 ret	 0
?SetWinMotion@CApplicationManager@Client@@QEAAX_N@Z ENDP ; Client::CApplicationManager::SetWinMotion
_TEXT	ENDS
; Function compile flags: /Odtp /RTCsu /ZI
; File c:\users\arcco\documents\github\framework\client\public\applicationmanager.h
;	COMDAT ?IsLevelFinish@CApplicationManager@Client@@QEAA_NW4LEVEL@12@@Z
_TEXT	SEGMENT
this$ = 224
eLevel$ = 232
?IsLevelFinish@CApplicationManager@Client@@QEAA_NW4LEVEL@12@@Z PROC ; Client::CApplicationManager::IsLevelFinish, COMDAT

; 34   : 	_bool IsLevelFinish(LEVEL eLevel) { return m_bLevelEnd[(_uint)eLevel]; }

$LN3:
  00000	89 54 24 10	 mov	 DWORD PTR [rsp+16], edx
  00004	48 89 4c 24 08	 mov	 QWORD PTR [rsp+8], rcx
  00009	55		 push	 rbp
  0000a	57		 push	 rdi
  0000b	48 81 ec c8 00
	00 00		 sub	 rsp, 200		; 000000c8H
  00012	48 8b ec	 mov	 rbp, rsp
  00015	48 8b fc	 mov	 rdi, rsp
  00018	b9 32 00 00 00	 mov	 ecx, 50			; 00000032H
  0001d	b8 cc cc cc cc	 mov	 eax, -858993460		; ccccccccH
  00022	f3 ab		 rep stosd
  00024	48 8b 8c 24 e8
	00 00 00	 mov	 rcx, QWORD PTR [rsp+232]
  0002c	8b 85 e8 00 00
	00		 mov	 eax, DWORD PTR eLevel$[rbp]
  00032	48 8b 8d e0 00
	00 00		 mov	 rcx, QWORD PTR this$[rbp]
  00039	0f b6 44 01 49	 movzx	 eax, BYTE PTR [rcx+rax+73]
  0003e	48 8d a5 c8 00
	00 00		 lea	 rsp, QWORD PTR [rbp+200]
  00045	5f		 pop	 rdi
  00046	5d		 pop	 rbp
  00047	c3		 ret	 0
?IsLevelFinish@CApplicationManager@Client@@QEAA_NW4LEVEL@12@@Z ENDP ; Client::CApplicationManager::IsLevelFinish
_TEXT	ENDS
; Function compile flags: /Odtp /RTCsu /ZI
; File c:\users\arcco\documents\github\framework\client\public\applicationmanager.h
;	COMDAT ?SetLevelFinish@CApplicationManager@Client@@QEAAXW4LEVEL@12@@Z
_TEXT	SEGMENT
this$ = 224
eLevel$ = 232
?SetLevelFinish@CApplicationManager@Client@@QEAAXW4LEVEL@12@@Z PROC ; Client::CApplicationManager::SetLevelFinish, COMDAT

; 33   : 	void SetLevelFinish(LEVEL eLevel) { m_bLevelEnd[(_uint)eLevel] = true; }

$LN3:
  00000	89 54 24 10	 mov	 DWORD PTR [rsp+16], edx
  00004	48 89 4c 24 08	 mov	 QWORD PTR [rsp+8], rcx
  00009	55		 push	 rbp
  0000a	57		 push	 rdi
  0000b	48 81 ec c8 00
	00 00		 sub	 rsp, 200		; 000000c8H
  00012	48 8b ec	 mov	 rbp, rsp
  00015	48 8b fc	 mov	 rdi, rsp
  00018	b9 32 00 00 00	 mov	 ecx, 50			; 00000032H
  0001d	b8 cc cc cc cc	 mov	 eax, -858993460		; ccccccccH
  00022	f3 ab		 rep stosd
  00024	48 8b 8c 24 e8
	00 00 00	 mov	 rcx, QWORD PTR [rsp+232]
  0002c	8b 85 e8 00 00
	00		 mov	 eax, DWORD PTR eLevel$[rbp]
  00032	48 8b 8d e0 00
	00 00		 mov	 rcx, QWORD PTR this$[rbp]
  00039	c6 44 01 49 01	 mov	 BYTE PTR [rcx+rax+73], 1
  0003e	48 8d a5 c8 00
	00 00		 lea	 rsp, QWORD PTR [rbp+200]
  00045	5f		 pop	 rdi
  00046	5d		 pop	 rbp
  00047	c3		 ret	 0
?SetLevelFinish@CApplicationManager@Client@@QEAAXW4LEVEL@12@@Z ENDP ; Client::CApplicationManager::SetLevelFinish
_TEXT	ENDS
; Function compile flags: /Odtp /RTCsu /ZI
; File c:\users\arcco\documents\github\framework\client\public\character.h
;	COMDAT ?GetLockOnTarget@CCharacter@Client@@QEAAPEAVCGameObject@Engine@@XZ
_TEXT	SEGMENT
tv67 = 192
this$ = 240
?GetLockOnTarget@CCharacter@Client@@QEAAPEAVCGameObject@Engine@@XZ PROC ; Client::CCharacter::GetLockOnTarget, COMDAT

; 212  : 	CGameObject* GetLockOnTarget() { return m_pNearEnemy != nullptr ? (CGameObject*)m_pNearEnemy : nullptr; }

$LN5:
  00000	48 89 4c 24 08	 mov	 QWORD PTR [rsp+8], rcx
  00005	55		 push	 rbp
  00006	57		 push	 rdi
  00007	48 81 ec d8 00
	00 00		 sub	 rsp, 216		; 000000d8H
  0000e	48 8b ec	 mov	 rbp, rsp
  00011	48 8b fc	 mov	 rdi, rsp
  00014	b9 36 00 00 00	 mov	 ecx, 54			; 00000036H
  00019	b8 cc cc cc cc	 mov	 eax, -858993460		; ccccccccH
  0001e	f3 ab		 rep stosd
  00020	48 8b 8c 24 f8
	00 00 00	 mov	 rcx, QWORD PTR [rsp+248]
  00028	48 8b 85 f0 00
	00 00		 mov	 rax, QWORD PTR this$[rbp]
  0002f	48 83 b8 90 01
	00 00 00	 cmp	 QWORD PTR [rax+400], 0
  00037	74 17		 je	 SHORT $LN3@GetLockOnT
  00039	48 8b 85 f0 00
	00 00		 mov	 rax, QWORD PTR this$[rbp]
  00040	48 8b 80 90 01
	00 00		 mov	 rax, QWORD PTR [rax+400]
  00047	48 89 85 c0 00
	00 00		 mov	 QWORD PTR tv67[rbp], rax
  0004e	eb 0b		 jmp	 SHORT $LN4@GetLockOnT
$LN3@GetLockOnT:
  00050	48 c7 85 c0 00
	00 00 00 00 00
	00		 mov	 QWORD PTR tv67[rbp], 0
$LN4@GetLockOnT:
  0005b	48 8b 85 c0 00
	00 00		 mov	 rax, QWORD PTR tv67[rbp]
  00062	48 8d a5 d8 00
	00 00		 lea	 rsp, QWORD PTR [rbp+216]
  00069	5f		 pop	 rdi
  0006a	5d		 pop	 rbp
  0006b	c3		 ret	 0
?GetLockOnTarget@CCharacter@Client@@QEAAPEAVCGameObject@Engine@@XZ ENDP ; Client::CCharacter::GetLockOnTarget
_TEXT	ENDS
; Function compile flags: /Odtp /RTCsu /ZI
; File c:\users\arcco\documents\github\framework\client\public\character.h
;	COMDAT ?SetWinMotion@CCharacter@Client@@QEAAX_N@Z
_TEXT	SEGMENT
this$ = 224
value$ = 232
?SetWinMotion@CCharacter@Client@@QEAAX_N@Z PROC		; Client::CCharacter::SetWinMotion, COMDAT

; 176  : 	void SetWinMotion(_bool value) { m_bWin = value; };

$LN3:
  00000	88 54 24 10	 mov	 BYTE PTR [rsp+16], dl
  00004	48 89 4c 24 08	 mov	 QWORD PTR [rsp+8], rcx
  00009	55		 push	 rbp
  0000a	57		 push	 rdi
  0000b	48 81 ec c8 00
	00 00		 sub	 rsp, 200		; 000000c8H
  00012	48 8b ec	 mov	 rbp, rsp
  00015	48 8b fc	 mov	 rdi, rsp
  00018	b9 32 00 00 00	 mov	 ecx, 50			; 00000032H
  0001d	b8 cc cc cc cc	 mov	 eax, -858993460		; ccccccccH
  00022	f3 ab		 rep stosd
  00024	48 8b 8c 24 e8
	00 00 00	 mov	 rcx, QWORD PTR [rsp+232]
  0002c	48 8b 85 e0 00
	00 00		 mov	 rax, QWORD PTR this$[rbp]
  00033	0f b6 8d e8 00
	00 00		 movzx	 ecx, BYTE PTR value$[rbp]
  0003a	88 88 df 02 00
	00		 mov	 BYTE PTR [rax+735], cl
  00040	48 8d a5 c8 00
	00 00		 lea	 rsp, QWORD PTR [rbp+200]
  00047	5f		 pop	 rdi
  00048	5d		 pop	 rbp
  00049	c3		 ret	 0
?SetWinMotion@CCharacter@Client@@QEAAX_N@Z ENDP		; Client::CCharacter::SetWinMotion
_TEXT	ENDS
; Function compile flags: /Odtp /RTCsu /ZI
;	COMDAT ??0tagColliderDesc@CCollider@Engine@@QEAA@XZ
_TEXT	SEGMENT
this$ = 224
??0tagColliderDesc@CCollider@Engine@@QEAA@XZ PROC	; Engine::CCollider::tagColliderDesc::tagColliderDesc, COMDAT
$LN3:
  00000	48 89 4c 24 08	 mov	 QWORD PTR [rsp+8], rcx
  00005	55		 push	 rbp
  00006	57		 push	 rdi
  00007	48 81 ec e8 00
	00 00		 sub	 rsp, 232		; 000000e8H
  0000e	48 8d 6c 24 20	 lea	 rbp, QWORD PTR [rsp+32]
  00013	48 8b fc	 mov	 rdi, rsp
  00016	b9 3a 00 00 00	 mov	 ecx, 58			; 0000003aH
  0001b	b8 cc cc cc cc	 mov	 eax, -858993460		; ccccccccH
  00020	f3 ab		 rep stosd
  00022	48 8b 8c 24 08
	01 00 00	 mov	 rcx, QWORD PTR [rsp+264]
  0002a	48 8b 85 e0 00
	00 00		 mov	 rax, QWORD PTR this$[rbp]
  00031	48 83 c0 08	 add	 rax, 8
  00035	48 8b c8	 mov	 rcx, rax
  00038	e8 00 00 00 00	 call	 ??0XMFLOAT3@DirectX@@QEAA@XZ ; DirectX::XMFLOAT3::XMFLOAT3
  0003d	48 8b 85 e0 00
	00 00		 mov	 rax, QWORD PTR this$[rbp]
  00044	48 83 c0 14	 add	 rax, 20
  00048	48 8b c8	 mov	 rcx, rax
  0004b	e8 00 00 00 00	 call	 ??0XMFLOAT3@DirectX@@QEAA@XZ ; DirectX::XMFLOAT3::XMFLOAT3
  00050	48 8b 85 e0 00
	00 00		 mov	 rax, QWORD PTR this$[rbp]
  00057	48 83 c0 20	 add	 rax, 32			; 00000020H
  0005b	48 8b c8	 mov	 rcx, rax
  0005e	e8 00 00 00 00	 call	 ??0XMFLOAT3@DirectX@@QEAA@XZ ; DirectX::XMFLOAT3::XMFLOAT3
  00063	48 8b 85 e0 00
	00 00		 mov	 rax, QWORD PTR this$[rbp]
  0006a	48 8d a5 c8 00
	00 00		 lea	 rsp, QWORD PTR [rbp+200]
  00071	5f		 pop	 rdi
  00072	5d		 pop	 rbp
  00073	c3		 ret	 0
??0tagColliderDesc@CCollider@Engine@@QEAA@XZ ENDP	; Engine::CCollider::tagColliderDesc::tagColliderDesc
_TEXT	ENDS
; Function compile flags: /Odtp /RTCsu /ZI
;	COMDAT ??_GCPlayerCamera@Client@@EEAAPEAXI@Z
_TEXT	SEGMENT
this$ = 224
__flags$ = 232
??_GCPlayerCamera@Client@@EEAAPEAXI@Z PROC		; Client::CPlayerCamera::`scalar deleting destructor', COMDAT
$LN4:
  00000	89 54 24 10	 mov	 DWORD PTR [rsp+16], edx
  00004	48 89 4c 24 08	 mov	 QWORD PTR [rsp+8], rcx
  00009	55		 push	 rbp
  0000a	57		 push	 rdi
  0000b	48 81 ec e8 00
	00 00		 sub	 rsp, 232		; 000000e8H
  00012	48 8d 6c 24 20	 lea	 rbp, QWORD PTR [rsp+32]
  00017	48 8b fc	 mov	 rdi, rsp
  0001a	b9 3a 00 00 00	 mov	 ecx, 58			; 0000003aH
  0001f	b8 cc cc cc cc	 mov	 eax, -858993460		; ccccccccH
  00024	f3 ab		 rep stosd
  00026	48 8b 8c 24 08
	01 00 00	 mov	 rcx, QWORD PTR [rsp+264]
  0002e	48 8b 8d e0 00
	00 00		 mov	 rcx, QWORD PTR this$[rbp]
  00035	e8 00 00 00 00	 call	 ??1CPlayerCamera@Client@@EEAA@XZ ; Client::CPlayerCamera::~CPlayerCamera
  0003a	8b 85 e8 00 00
	00		 mov	 eax, DWORD PTR __flags$[rbp]
  00040	83 e0 01	 and	 eax, 1
  00043	85 c0		 test	 eax, eax
  00045	74 11		 je	 SHORT $LN2@scalar
  00047	ba c8 02 00 00	 mov	 edx, 712		; 000002c8H
  0004c	48 8b 8d e0 00
	00 00		 mov	 rcx, QWORD PTR this$[rbp]
  00053	e8 00 00 00 00	 call	 ??3@YAXPEAX_K@Z		; operator delete
$LN2@scalar:
  00058	48 8b 85 e0 00
	00 00		 mov	 rax, QWORD PTR this$[rbp]
  0005f	48 8d a5 c8 00
	00 00		 lea	 rsp, QWORD PTR [rbp+200]
  00066	5f		 pop	 rdi
  00067	5d		 pop	 rbp
  00068	c3		 ret	 0
??_GCPlayerCamera@Client@@EEAAPEAXI@Z ENDP		; Client::CPlayerCamera::`scalar deleting destructor'
_TEXT	ENDS
; Function compile flags: /Odtp /RTCsu /ZI
; File c:\users\arcco\documents\github\framework\client\private\playercamera.cpp
;	COMDAT ?Free@CPlayerCamera@Client@@UEAAXXZ
_TEXT	SEGMENT
this$ = 224
?Free@CPlayerCamera@Client@@UEAAXXZ PROC		; Client::CPlayerCamera::Free, COMDAT

; 386  : {

$LN3:
  00000	48 89 4c 24 08	 mov	 QWORD PTR [rsp+8], rcx
  00005	55		 push	 rbp
  00006	57		 push	 rdi
  00007	48 81 ec e8 00
	00 00		 sub	 rsp, 232		; 000000e8H
  0000e	48 8d 6c 24 20	 lea	 rbp, QWORD PTR [rsp+32]
  00013	48 8b fc	 mov	 rdi, rsp
  00016	b9 3a 00 00 00	 mov	 ecx, 58			; 0000003aH
  0001b	b8 cc cc cc cc	 mov	 eax, -858993460		; ccccccccH
  00020	f3 ab		 rep stosd
  00022	48 8b 8c 24 08
	01 00 00	 mov	 rcx, QWORD PTR [rsp+264]

; 387  : 	__super::Free();

  0002a	48 8b 8d e0 00
	00 00		 mov	 rcx, QWORD PTR this$[rbp]
  00031	ff 15 00 00 00
	00		 call	 QWORD PTR __imp_?Free@CCamera@Engine@@UEAAXXZ

; 388  : 
; 389  : 	Safe_Release(m_pTransform);

  00037	48 8b 85 e0 00
	00 00		 mov	 rax, QWORD PTR this$[rbp]
  0003e	48 83 c0 78	 add	 rax, 120		; 00000078H
  00042	48 8b c8	 mov	 rcx, rax
  00045	e8 00 00 00 00	 call	 ??$Safe_Release@PEAVCTransform@Engine@@@Engine@@YAKAEAPEAVCTransform@0@@Z ; Engine::Safe_Release<Engine::CTransform * __ptr64>

; 390  : 
; 391  : 	Safe_Release(m_pRenderer);

  0004a	48 8b 85 e0 00
	00 00		 mov	 rax, QWORD PTR this$[rbp]
  00051	48 05 a8 02 00
	00		 add	 rax, 680		; 000002a8H
  00057	48 8b c8	 mov	 rcx, rax
  0005a	e8 00 00 00 00	 call	 ??$Safe_Release@PEAVCRenderer@Engine@@@Engine@@YAKAEAPEAVCRenderer@0@@Z ; Engine::Safe_Release<Engine::CRenderer * __ptr64>

; 392  : 	Safe_Release(m_pShader);

  0005f	48 8b 85 e0 00
	00 00		 mov	 rax, QWORD PTR this$[rbp]
  00066	48 05 b0 02 00
	00		 add	 rax, 688		; 000002b0H
  0006c	48 8b c8	 mov	 rcx, rax
  0006f	e8 00 00 00 00	 call	 ??$Safe_Release@PEAVCShader@Engine@@@Engine@@YAKAEAPEAVCShader@0@@Z ; Engine::Safe_Release<Engine::CShader * __ptr64>

; 393  : 	Safe_Release(m_pVIBuffer);

  00074	48 8b 85 e0 00
	00 00		 mov	 rax, QWORD PTR this$[rbp]
  0007b	48 05 b8 02 00
	00		 add	 rax, 696		; 000002b8H
  00081	48 8b c8	 mov	 rcx, rax
  00084	e8 00 00 00 00	 call	 ??$Safe_Release@PEAVCVIBuffer_Rect@Engine@@@Engine@@YAKAEAPEAVCVIBuffer_Rect@0@@Z ; Engine::Safe_Release<Engine::CVIBuffer_Rect * __ptr64>

; 394  : 	Safe_Release(m_pTexture);

  00089	48 8b 85 e0 00
	00 00		 mov	 rax, QWORD PTR this$[rbp]
  00090	48 05 c0 02 00
	00		 add	 rax, 704		; 000002c0H
  00096	48 8b c8	 mov	 rcx, rax
  00099	e8 00 00 00 00	 call	 ??$Safe_Release@PEAVCTexture@Engine@@@Engine@@YAKAEAPEAVCTexture@0@@Z ; Engine::Safe_Release<Engine::CTexture * __ptr64>

; 395  : }

  0009e	48 8d a5 c8 00
	00 00		 lea	 rsp, QWORD PTR [rbp+200]
  000a5	5f		 pop	 rdi
  000a6	5d		 pop	 rbp
  000a7	c3		 ret	 0
?Free@CPlayerCamera@Client@@UEAAXXZ ENDP		; Client::CPlayerCamera::Free
_TEXT	ENDS
; Function compile flags: /Odtp /RTCsu /ZI
; File c:\users\arcco\documents\github\framework\client\private\playercamera.cpp
;	COMDAT ?Clone@CPlayerCamera@Client@@UEAAPEAVCGameObject@Engine@@PEAX@Z
_TEXT	SEGMENT
pInstance$ = 8
$T4 = 232
$T5 = 264
$T6 = 296
tv83 = 312
__$ArrayPad$ = 320
this$ = 368
pArg$ = 376
?Clone@CPlayerCamera@Client@@UEAAPEAVCGameObject@Engine@@PEAX@Z PROC ; Client::CPlayerCamera::Clone, COMDAT

; 374  : {

$LN7:
  00000	48 89 54 24 10	 mov	 QWORD PTR [rsp+16], rdx
  00005	48 89 4c 24 08	 mov	 QWORD PTR [rsp+8], rcx
  0000a	55		 push	 rbp
  0000b	57		 push	 rdi
  0000c	48 81 ec 78 01
	00 00		 sub	 rsp, 376		; 00000178H
  00013	48 8d 6c 24 20	 lea	 rbp, QWORD PTR [rsp+32]
  00018	48 8b fc	 mov	 rdi, rsp
  0001b	b9 5e 00 00 00	 mov	 ecx, 94			; 0000005eH
  00020	b8 cc cc cc cc	 mov	 eax, -858993460		; ccccccccH
  00025	f3 ab		 rep stosd
  00027	48 8b 8c 24 98
	01 00 00	 mov	 rcx, QWORD PTR [rsp+408]
  0002f	48 c7 85 28 01
	00 00 fe ff ff
	ff		 mov	 QWORD PTR $T6[rbp], -2
  0003a	48 8b 05 00 00
	00 00		 mov	 rax, QWORD PTR __security_cookie
  00041	48 33 c5	 xor	 rax, rbp
  00044	48 89 85 40 01
	00 00		 mov	 QWORD PTR __$ArrayPad$[rbp], rax

; 375  : 	CPlayerCamera*	pInstance = new CPlayerCamera(*this);

  0004b	8b 05 00 00 00
	00		 mov	 eax, DWORD PTR ?__LINE__Var@?0??Clone@CPlayerCamera@Client@@UEAAPEAVCGameObject@Engine@@PEAX@Z@4JA
  00051	ff c0		 inc	 eax
  00053	44 8b c8	 mov	 r9d, eax
  00056	4c 8d 05 00 00
	00 00		 lea	 r8, OFFSET FLAT:??_C@_0EK@IICOGJBM@c?3?2users?2arcco?2documents?2github?2@
  0005d	ba 01 00 00 00	 mov	 edx, 1
  00062	b9 c8 02 00 00	 mov	 ecx, 712		; 000002c8H
  00067	e8 00 00 00 00	 call	 ??2@YAPEAX_KHPEBDH@Z	; operator new
  0006c	48 89 85 08 01
	00 00		 mov	 QWORD PTR $T5[rbp], rax
  00073	48 83 bd 08 01
	00 00 00	 cmp	 QWORD PTR $T5[rbp], 0
  0007b	74 1c		 je	 SHORT $LN4@Clone
  0007d	48 8b 95 70 01
	00 00		 mov	 rdx, QWORD PTR this$[rbp]
  00084	48 8b 8d 08 01
	00 00		 mov	 rcx, QWORD PTR $T5[rbp]
  0008b	e8 00 00 00 00	 call	 ??0CPlayerCamera@Client@@AEAA@AEBV01@@Z ; Client::CPlayerCamera::CPlayerCamera
  00090	48 89 85 38 01
	00 00		 mov	 QWORD PTR tv83[rbp], rax
  00097	eb 0b		 jmp	 SHORT $LN5@Clone
$LN4@Clone:
  00099	48 c7 85 38 01
	00 00 00 00 00
	00		 mov	 QWORD PTR tv83[rbp], 0
$LN5@Clone:
  000a4	48 8b 85 38 01
	00 00		 mov	 rax, QWORD PTR tv83[rbp]
  000ab	48 89 85 e8 00
	00 00		 mov	 QWORD PTR $T4[rbp], rax
  000b2	48 8b 85 e8 00
	00 00		 mov	 rax, QWORD PTR $T4[rbp]
  000b9	48 89 45 08	 mov	 QWORD PTR pInstance$[rbp], rax

; 376  : 	if (FAILED(pInstance->Initialize(pArg)))

  000bd	48 8b 95 78 01
	00 00		 mov	 rdx, QWORD PTR pArg$[rbp]
  000c4	48 8b 4d 08	 mov	 rcx, QWORD PTR pInstance$[rbp]
  000c8	e8 00 00 00 00	 call	 ?Initialize@CPlayerCamera@Client@@UEAAJPEAX@Z ; Client::CPlayerCamera::Initialize
  000cd	85 c0		 test	 eax, eax
  000cf	7d 22		 jge	 SHORT $LN2@Clone

; 377  : 	{
; 378  : 		MSG_BOX("Failed to Cloned : CPlayerCamera");

  000d1	45 33 c9	 xor	 r9d, r9d
  000d4	4c 8d 05 00 00
	00 00		 lea	 r8, OFFSET FLAT:??_C@_1BA@HHOMBECE@?$AAM?$AAe?$AAs?$AAs?$AAa?$AAg?$AAe?$AA?$AA@
  000db	48 8d 15 00 00
	00 00		 lea	 rdx, OFFSET FLAT:??_C@_1EC@NFPGCMME@?$AAF?$AAa?$AAi?$AAl?$AAe?$AAd?$AA?5?$AAt?$AAo?$AA?5?$AAC?$AAl?$AAo?$AAn?$AAe?$AAd?$AA?5?$AA?3?$AA?5?$AAC?$AAP?$AAl?$AAa?$AAy?$AAe?$AAr?$AAC?$AAa?$AAm?$AAe?$AAr?$AAa@
  000e2	33 c9		 xor	 ecx, ecx
  000e4	ff 15 00 00 00
	00		 call	 QWORD PTR __imp_MessageBoxW

; 379  : 		Safe_Release(pInstance);

  000ea	48 8d 4d 08	 lea	 rcx, QWORD PTR pInstance$[rbp]
  000ee	e8 00 00 00 00	 call	 ??$Safe_Release@PEAVCPlayerCamera@Client@@@Engine@@YAKAEAPEAVCPlayerCamera@Client@@@Z ; Engine::Safe_Release<Client::CPlayerCamera * __ptr64>
$LN2@Clone:

; 380  : 	}
; 381  : 
; 382  : 	return pInstance;

  000f3	48 8b 45 08	 mov	 rax, QWORD PTR pInstance$[rbp]

; 383  : }

  000f7	48 8b f8	 mov	 rdi, rax
  000fa	48 8d 4d e0	 lea	 rcx, QWORD PTR [rbp-32]
  000fe	48 8d 15 00 00
	00 00		 lea	 rdx, OFFSET FLAT:?Clone@CPlayerCamera@Client@@UEAAPEAVCGameObject@Engine@@PEAX@Z$rtcFrameData
  00105	e8 00 00 00 00	 call	 _RTC_CheckStackVars
  0010a	48 8b c7	 mov	 rax, rdi
  0010d	48 8b 8d 40 01
	00 00		 mov	 rcx, QWORD PTR __$ArrayPad$[rbp]
  00114	48 33 cd	 xor	 rcx, rbp
  00117	e8 00 00 00 00	 call	 __security_check_cookie
  0011c	48 8d a5 58 01
	00 00		 lea	 rsp, QWORD PTR [rbp+344]
  00123	5f		 pop	 rdi
  00124	5d		 pop	 rbp
  00125	c3		 ret	 0
?Clone@CPlayerCamera@Client@@UEAAPEAVCGameObject@Engine@@PEAX@Z ENDP ; Client::CPlayerCamera::Clone
_TEXT	ENDS
;	COMDAT text$x
text$x	SEGMENT
pInstance$ = 8
$T4 = 232
$T5 = 264
$T6 = 296
tv83 = 312
__$ArrayPad$ = 320
this$ = 368
pArg$ = 376
?dtor$0@?0??Clone@CPlayerCamera@Client@@UEAAPEAVCGameObject@Engine@@PEAX@Z@4HA PROC ; `Client::CPlayerCamera::Clone'::`1'::dtor$0
  00000	48 89 4c 24 08	 mov	 QWORD PTR [rsp+8], rcx
  00005	48 89 54 24 10	 mov	 QWORD PTR [rsp+16], rdx
  0000a	55		 push	 rbp
  0000b	57		 push	 rdi
  0000c	48 83 ec 28	 sub	 rsp, 40			; 00000028H
  00010	48 8d 6a 20	 lea	 rbp, QWORD PTR [rdx+32]
  00014	44 8b 0d 00 00
	00 00		 mov	 r9d, DWORD PTR ?__LINE__Var@?0??Clone@CPlayerCamera@Client@@UEAAPEAVCGameObject@Engine@@PEAX@Z@4JA
  0001b	41 ff c1	 inc	 r9d
  0001e	4c 8d 05 00 00
	00 00		 lea	 r8, OFFSET FLAT:??_C@_0EK@IICOGJBM@c?3?2users?2arcco?2documents?2github?2@
  00025	ba 01 00 00 00	 mov	 edx, 1
  0002a	48 8b 8d 08 01
	00 00		 mov	 rcx, QWORD PTR $T5[rbp]
  00031	e8 00 00 00 00	 call	 ??3@YAXPEAXHPEBDH@Z	; operator delete
  00036	48 83 c4 28	 add	 rsp, 40			; 00000028H
  0003a	5f		 pop	 rdi
  0003b	5d		 pop	 rbp
  0003c	c3		 ret	 0
?dtor$0@?0??Clone@CPlayerCamera@Client@@UEAAPEAVCGameObject@Engine@@PEAX@Z@4HA ENDP ; `Client::CPlayerCamera::Clone'::`1'::dtor$0
text$x	ENDS
; Function compile flags: /Odtp /RTCsu /ZI
;	COMDAT text$x
text$x	SEGMENT
pInstance$ = 8
$T4 = 232
$T5 = 264
$T6 = 296
tv83 = 312
__$ArrayPad$ = 320
this$ = 368
pArg$ = 376
?dtor$0@?0??Clone@CPlayerCamera@Client@@UEAAPEAVCGameObject@Engine@@PEAX@Z@4HA PROC ; `Client::CPlayerCamera::Clone'::`1'::dtor$0
  00000	48 89 4c 24 08	 mov	 QWORD PTR [rsp+8], rcx
  00005	48 89 54 24 10	 mov	 QWORD PTR [rsp+16], rdx
  0000a	55		 push	 rbp
  0000b	57		 push	 rdi
  0000c	48 83 ec 28	 sub	 rsp, 40			; 00000028H
  00010	48 8d 6a 20	 lea	 rbp, QWORD PTR [rdx+32]
  00014	44 8b 0d 00 00
	00 00		 mov	 r9d, DWORD PTR ?__LINE__Var@?0??Clone@CPlayerCamera@Client@@UEAAPEAVCGameObject@Engine@@PEAX@Z@4JA
  0001b	41 ff c1	 inc	 r9d
  0001e	4c 8d 05 00 00
	00 00		 lea	 r8, OFFSET FLAT:??_C@_0EK@IICOGJBM@c?3?2users?2arcco?2documents?2github?2@
  00025	ba 01 00 00 00	 mov	 edx, 1
  0002a	48 8b 8d 08 01
	00 00		 mov	 rcx, QWORD PTR $T5[rbp]
  00031	e8 00 00 00 00	 call	 ??3@YAXPEAXHPEBDH@Z	; operator delete
  00036	48 83 c4 28	 add	 rsp, 40			; 00000028H
  0003a	5f		 pop	 rdi
  0003b	5d		 pop	 rbp
  0003c	c3		 ret	 0
?dtor$0@?0??Clone@CPlayerCamera@Client@@UEAAPEAVCGameObject@Engine@@PEAX@Z@4HA ENDP ; `Client::CPlayerCamera::Clone'::`1'::dtor$0
text$x	ENDS
; Function compile flags: /Odtp /RTCsu /ZI
; File c:\users\arcco\documents\github\framework\client\private\playercamera.cpp
;	COMDAT ?Create@CPlayerCamera@Client@@SAPEAV12@PEAUID3D11Device@@PEAUID3D11DeviceContext@@@Z
_TEXT	SEGMENT
pInstance$ = 8
$T4 = 232
$T5 = 264
$T6 = 296
tv84 = 312
__$ArrayPad$ = 320
pDevice$ = 368
pContext$ = 376
?Create@CPlayerCamera@Client@@SAPEAV12@PEAUID3D11Device@@PEAUID3D11DeviceContext@@@Z PROC ; Client::CPlayerCamera::Create, COMDAT

; 362  : {

$LN7:
  00000	48 89 54 24 10	 mov	 QWORD PTR [rsp+16], rdx
  00005	48 89 4c 24 08	 mov	 QWORD PTR [rsp+8], rcx
  0000a	55		 push	 rbp
  0000b	57		 push	 rdi
  0000c	48 81 ec 78 01
	00 00		 sub	 rsp, 376		; 00000178H
  00013	48 8d 6c 24 20	 lea	 rbp, QWORD PTR [rsp+32]
  00018	48 8b fc	 mov	 rdi, rsp
  0001b	b9 5e 00 00 00	 mov	 ecx, 94			; 0000005eH
  00020	b8 cc cc cc cc	 mov	 eax, -858993460		; ccccccccH
  00025	f3 ab		 rep stosd
  00027	48 8b 8c 24 98
	01 00 00	 mov	 rcx, QWORD PTR [rsp+408]
  0002f	48 c7 85 28 01
	00 00 fe ff ff
	ff		 mov	 QWORD PTR $T6[rbp], -2
  0003a	48 8b 05 00 00
	00 00		 mov	 rax, QWORD PTR __security_cookie
  00041	48 33 c5	 xor	 rax, rbp
  00044	48 89 85 40 01
	00 00		 mov	 QWORD PTR __$ArrayPad$[rbp], rax

; 363  : 	CPlayerCamera*	pInstance = new CPlayerCamera(pDevice, pContext);

  0004b	8b 05 00 00 00
	00		 mov	 eax, DWORD PTR ?__LINE__Var@?0??Create@CPlayerCamera@Client@@SAPEAV23@PEAUID3D11Device@@PEAUID3D11DeviceContext@@@Z@4JA
  00051	ff c0		 inc	 eax
  00053	44 8b c8	 mov	 r9d, eax
  00056	4c 8d 05 00 00
	00 00		 lea	 r8, OFFSET FLAT:??_C@_0EK@IICOGJBM@c?3?2users?2arcco?2documents?2github?2@
  0005d	ba 01 00 00 00	 mov	 edx, 1
  00062	b9 c8 02 00 00	 mov	 ecx, 712		; 000002c8H
  00067	e8 00 00 00 00	 call	 ??2@YAPEAX_KHPEBDH@Z	; operator new
  0006c	48 89 85 08 01
	00 00		 mov	 QWORD PTR $T5[rbp], rax
  00073	48 83 bd 08 01
	00 00 00	 cmp	 QWORD PTR $T5[rbp], 0
  0007b	74 23		 je	 SHORT $LN4@Create
  0007d	4c 8b 85 78 01
	00 00		 mov	 r8, QWORD PTR pContext$[rbp]
  00084	48 8b 95 70 01
	00 00		 mov	 rdx, QWORD PTR pDevice$[rbp]
  0008b	48 8b 8d 08 01
	00 00		 mov	 rcx, QWORD PTR $T5[rbp]
  00092	e8 00 00 00 00	 call	 ??0CPlayerCamera@Client@@AEAA@PEAUID3D11Device@@PEAUID3D11DeviceContext@@@Z ; Client::CPlayerCamera::CPlayerCamera
  00097	48 89 85 38 01
	00 00		 mov	 QWORD PTR tv84[rbp], rax
  0009e	eb 0b		 jmp	 SHORT $LN5@Create
$LN4@Create:
  000a0	48 c7 85 38 01
	00 00 00 00 00
	00		 mov	 QWORD PTR tv84[rbp], 0
$LN5@Create:
  000ab	48 8b 85 38 01
	00 00		 mov	 rax, QWORD PTR tv84[rbp]
  000b2	48 89 85 e8 00
	00 00		 mov	 QWORD PTR $T4[rbp], rax
  000b9	48 8b 85 e8 00
	00 00		 mov	 rax, QWORD PTR $T4[rbp]
  000c0	48 89 45 08	 mov	 QWORD PTR pInstance$[rbp], rax

; 364  : 	if (FAILED(pInstance->Initialize_Prototype()))

  000c4	48 8b 4d 08	 mov	 rcx, QWORD PTR pInstance$[rbp]
  000c8	e8 00 00 00 00	 call	 ?Initialize_Prototype@CPlayerCamera@Client@@UEAAJXZ ; Client::CPlayerCamera::Initialize_Prototype
  000cd	85 c0		 test	 eax, eax
  000cf	7d 22		 jge	 SHORT $LN2@Create

; 365  : 	{
; 366  : 		MSG_BOX("Failed to Created : CPlayerCamera");

  000d1	45 33 c9	 xor	 r9d, r9d
  000d4	4c 8d 05 00 00
	00 00		 lea	 r8, OFFSET FLAT:??_C@_1BA@HHOMBECE@?$AAM?$AAe?$AAs?$AAs?$AAa?$AAg?$AAe?$AA?$AA@
  000db	48 8d 15 00 00
	00 00		 lea	 rdx, OFFSET FLAT:??_C@_1EE@CMOMLOPH@?$AAF?$AAa?$AAi?$AAl?$AAe?$AAd?$AA?5?$AAt?$AAo?$AA?5?$AAC?$AAr?$AAe?$AAa?$AAt?$AAe?$AAd?$AA?5?$AA?3?$AA?5?$AAC?$AAP?$AAl?$AAa?$AAy?$AAe?$AAr?$AAC?$AAa?$AAm?$AAe?$AAr@
  000e2	33 c9		 xor	 ecx, ecx
  000e4	ff 15 00 00 00
	00		 call	 QWORD PTR __imp_MessageBoxW

; 367  : 		Safe_Release(pInstance);

  000ea	48 8d 4d 08	 lea	 rcx, QWORD PTR pInstance$[rbp]
  000ee	e8 00 00 00 00	 call	 ??$Safe_Release@PEAVCPlayerCamera@Client@@@Engine@@YAKAEAPEAVCPlayerCamera@Client@@@Z ; Engine::Safe_Release<Client::CPlayerCamera * __ptr64>
$LN2@Create:

; 368  : 	}
; 369  : 
; 370  : 	return pInstance;

  000f3	48 8b 45 08	 mov	 rax, QWORD PTR pInstance$[rbp]

; 371  : }

  000f7	48 8b f8	 mov	 rdi, rax
  000fa	48 8d 4d e0	 lea	 rcx, QWORD PTR [rbp-32]
  000fe	48 8d 15 00 00
	00 00		 lea	 rdx, OFFSET FLAT:?Create@CPlayerCamera@Client@@SAPEAV12@PEAUID3D11Device@@PEAUID3D11DeviceContext@@@Z$rtcFrameData
  00105	e8 00 00 00 00	 call	 _RTC_CheckStackVars
  0010a	48 8b c7	 mov	 rax, rdi
  0010d	48 8b 8d 40 01
	00 00		 mov	 rcx, QWORD PTR __$ArrayPad$[rbp]
  00114	48 33 cd	 xor	 rcx, rbp
  00117	e8 00 00 00 00	 call	 __security_check_cookie
  0011c	48 8d a5 58 01
	00 00		 lea	 rsp, QWORD PTR [rbp+344]
  00123	5f		 pop	 rdi
  00124	5d		 pop	 rbp
  00125	c3		 ret	 0
?Create@CPlayerCamera@Client@@SAPEAV12@PEAUID3D11Device@@PEAUID3D11DeviceContext@@@Z ENDP ; Client::CPlayerCamera::Create
_TEXT	ENDS
;	COMDAT text$x
text$x	SEGMENT
pInstance$ = 8
$T4 = 232
$T5 = 264
$T6 = 296
tv84 = 312
__$ArrayPad$ = 320
pDevice$ = 368
pContext$ = 376
?dtor$0@?0??Create@CPlayerCamera@Client@@SAPEAV12@PEAUID3D11Device@@PEAUID3D11DeviceContext@@@Z@4HA PROC ; `Client::CPlayerCamera::Create'::`1'::dtor$0
  00000	48 89 4c 24 08	 mov	 QWORD PTR [rsp+8], rcx
  00005	48 89 54 24 10	 mov	 QWORD PTR [rsp+16], rdx
  0000a	55		 push	 rbp
  0000b	57		 push	 rdi
  0000c	48 83 ec 28	 sub	 rsp, 40			; 00000028H
  00010	48 8d 6a 20	 lea	 rbp, QWORD PTR [rdx+32]
  00014	44 8b 0d 00 00
	00 00		 mov	 r9d, DWORD PTR ?__LINE__Var@?0??Create@CPlayerCamera@Client@@SAPEAV23@PEAUID3D11Device@@PEAUID3D11DeviceContext@@@Z@4JA
  0001b	41 ff c1	 inc	 r9d
  0001e	4c 8d 05 00 00
	00 00		 lea	 r8, OFFSET FLAT:??_C@_0EK@IICOGJBM@c?3?2users?2arcco?2documents?2github?2@
  00025	ba 01 00 00 00	 mov	 edx, 1
  0002a	48 8b 8d 08 01
	00 00		 mov	 rcx, QWORD PTR $T5[rbp]
  00031	e8 00 00 00 00	 call	 ??3@YAXPEAXHPEBDH@Z	; operator delete
  00036	48 83 c4 28	 add	 rsp, 40			; 00000028H
  0003a	5f		 pop	 rdi
  0003b	5d		 pop	 rbp
  0003c	c3		 ret	 0
?dtor$0@?0??Create@CPlayerCamera@Client@@SAPEAV12@PEAUID3D11Device@@PEAUID3D11DeviceContext@@@Z@4HA ENDP ; `Client::CPlayerCamera::Create'::`1'::dtor$0
text$x	ENDS
; Function compile flags: /Odtp /RTCsu /ZI
;	COMDAT text$x
text$x	SEGMENT
pInstance$ = 8
$T4 = 232
$T5 = 264
$T6 = 296
tv84 = 312
__$ArrayPad$ = 320
pDevice$ = 368
pContext$ = 376
?dtor$0@?0??Create@CPlayerCamera@Client@@SAPEAV12@PEAUID3D11Device@@PEAUID3D11DeviceContext@@@Z@4HA PROC ; `Client::CPlayerCamera::Create'::`1'::dtor$0
  00000	48 89 4c 24 08	 mov	 QWORD PTR [rsp+8], rcx
  00005	48 89 54 24 10	 mov	 QWORD PTR [rsp+16], rdx
  0000a	55		 push	 rbp
  0000b	57		 push	 rdi
  0000c	48 83 ec 28	 sub	 rsp, 40			; 00000028H
  00010	48 8d 6a 20	 lea	 rbp, QWORD PTR [rdx+32]
  00014	44 8b 0d 00 00
	00 00		 mov	 r9d, DWORD PTR ?__LINE__Var@?0??Create@CPlayerCamera@Client@@SAPEAV23@PEAUID3D11Device@@PEAUID3D11DeviceContext@@@Z@4JA
  0001b	41 ff c1	 inc	 r9d
  0001e	4c 8d 05 00 00
	00 00		 lea	 r8, OFFSET FLAT:??_C@_0EK@IICOGJBM@c?3?2users?2arcco?2documents?2github?2@
  00025	ba 01 00 00 00	 mov	 edx, 1
  0002a	48 8b 8d 08 01
	00 00		 mov	 rcx, QWORD PTR $T5[rbp]
  00031	e8 00 00 00 00	 call	 ??3@YAXPEAXHPEBDH@Z	; operator delete
  00036	48 83 c4 28	 add	 rsp, 40			; 00000028H
  0003a	5f		 pop	 rdi
  0003b	5d		 pop	 rbp
  0003c	c3		 ret	 0
?dtor$0@?0??Create@CPlayerCamera@Client@@SAPEAV12@PEAUID3D11Device@@PEAUID3D11DeviceContext@@@Z@4HA ENDP ; `Client::CPlayerCamera::Create'::`1'::dtor$0
text$x	ENDS
; Function compile flags: /Odtp /RTCsu /ZI
; File c:\users\arcco\documents\github\framework\client\private\playercamera.cpp
;	COMDAT ?WinActionMovement@CPlayerCamera@Client@@AEAAXN@Z
_TEXT	SEGMENT
pGameInstance$ = 8
vTargetPos$ = 48
vTargetLook$ = 96
vCurCamPos$ = 144
$T4 = 576
$T5 = 624
$T6 = 672
$T7 = 720
$T8 = 768
$T9 = 816
$T10 = 864
$T11 = 912
tv133 = 932
__$ArrayPad$ = 936
this$ = 976
TimeDelta$ = 984
?WinActionMovement@CPlayerCamera@Client@@AEAAXN@Z PROC	; Client::CPlayerCamera::WinActionMovement, COMDAT

; 332  : {

$LN5:
  00000	f2 0f 11 4c 24
	10		 movsd	 QWORD PTR [rsp+16], xmm1
  00006	48 89 4c 24 08	 mov	 QWORD PTR [rsp+8], rcx
  0000b	55		 push	 rbp
  0000c	57		 push	 rdi
  0000d	48 81 ec d8 03
	00 00		 sub	 rsp, 984		; 000003d8H
  00014	48 8d 6c 24 20	 lea	 rbp, QWORD PTR [rsp+32]
  00019	48 8b fc	 mov	 rdi, rsp
  0001c	b9 f6 00 00 00	 mov	 ecx, 246		; 000000f6H
  00021	b8 cc cc cc cc	 mov	 eax, -858993460		; ccccccccH
  00026	f3 ab		 rep stosd
  00028	48 8b 8c 24 f8
	03 00 00	 mov	 rcx, QWORD PTR [rsp+1016]
  00030	48 8b 05 00 00
	00 00		 mov	 rax, QWORD PTR __security_cookie
  00037	48 33 c5	 xor	 rax, rbp
  0003a	48 89 85 a8 03
	00 00		 mov	 QWORD PTR __$ArrayPad$[rbp], rax

; 333  : 	if (m_isGoal)

  00041	48 8b 85 d0 03
	00 00		 mov	 rax, QWORD PTR this$[rbp]
  00048	0f b6 80 a8 01
	00 00		 movzx	 eax, BYTE PTR [rax+424]
  0004f	85 c0		 test	 eax, eax
  00051	74 05		 je	 SHORT $LN2@WinActionM

; 334  : 		return;

  00053	e9 08 02 00 00	 jmp	 $LN1@WinActionM
$LN2@WinActionM:

; 335  : 
; 336  : 	m_fWinActionAcc += TimeDelta * 1.5f;

  00058	f2 0f 10 85 d8
	03 00 00	 movsd	 xmm0, QWORD PTR TimeDelta$[rbp]
  00060	f2 0f 59 05 00
	00 00 00	 mulsd	 xmm0, QWORD PTR __real@3ff8000000000000
  00068	48 8b 85 d0 03
	00 00		 mov	 rax, QWORD PTR this$[rbp]
  0006f	f3 0f 5a 88 a4
	01 00 00	 cvtss2sd xmm1, DWORD PTR [rax+420]
  00077	f2 0f 58 c8	 addsd	 xmm1, xmm0
  0007b	0f 28 c1	 movaps	 xmm0, xmm1
  0007e	f2 0f 5a c0	 cvtsd2ss xmm0, xmm0
  00082	48 8b 85 d0 03
	00 00		 mov	 rax, QWORD PTR this$[rbp]
  00089	f3 0f 11 80 a4
	01 00 00	 movss	 DWORD PTR [rax+420], xmm0

; 337  : 
; 338  : 	if (m_fWinActionAcc >= 6.f)

  00091	48 8b 85 d0 03
	00 00		 mov	 rax, QWORD PTR this$[rbp]
  00098	f3 0f 10 80 a4
	01 00 00	 movss	 xmm0, DWORD PTR [rax+420]
  000a0	0f 2f 05 00 00
	00 00		 comiss	 xmm0, DWORD PTR __real@40c00000
  000a7	72 3c		 jb	 SHORT $LN3@WinActionM

; 339  : 	{
; 340  : 		m_isGoal = true;

  000a9	48 8b 85 d0 03
	00 00		 mov	 rax, QWORD PTR this$[rbp]
  000b0	c6 80 a8 01 00
	00 01		 mov	 BYTE PTR [rax+424], 1

; 341  : 		m_bFadeIn = true;

  000b7	48 8b 85 d0 03
	00 00		 mov	 rax, QWORD PTR this$[rbp]
  000be	c6 80 c1 01 00
	00 01		 mov	 BYTE PTR [rax+449], 1

; 342  : 		m_bFinish = true;

  000c5	48 8b 85 d0 03
	00 00		 mov	 rax, QWORD PTR this$[rbp]
  000cc	c6 80 c0 01 00
	00 01		 mov	 BYTE PTR [rax+448], 1

; 343  : 		//m_bWinAction = false;
; 344  : 		m_fWinActionAcc = 0.f;

  000d3	48 8b 85 d0 03
	00 00		 mov	 rax, QWORD PTR this$[rbp]
  000da	0f 57 c0	 xorps	 xmm0, xmm0
  000dd	f3 0f 11 80 a4
	01 00 00	 movss	 DWORD PTR [rax+420], xmm0
$LN3@WinActionM:

; 345  : 	}
; 346  : 
; 347  : 	CGameInstance* pGameInstance = CGameInstance::GetInstance();

  000e5	ff 15 00 00 00
	00		 call	 QWORD PTR __imp_?GetInstance@CGameInstance@Engine@@SAPEAV12@XZ
  000eb	48 89 45 08	 mov	 QWORD PTR pGameInstance$[rbp], rax

; 348  : 	_vector vTargetPos = m_pTargetTransform->Get_State(CTransform::STATE_POSITION);

  000ef	41 b8 03 00 00
	00		 mov	 r8d, 3
  000f5	48 8d 55 30	 lea	 rdx, QWORD PTR vTargetPos$[rbp]
  000f9	48 8b 85 d0 03
	00 00		 mov	 rax, QWORD PTR this$[rbp]
  00100	48 8b 88 28 01
	00 00		 mov	 rcx, QWORD PTR [rax+296]
  00107	ff 15 00 00 00
	00		 call	 QWORD PTR __imp_?Get_State@CTransform@Engine@@QEAA?AT__m128@@W4STATE@12@@Z

; 349  : 	_vector vTargetLook = XMVector3Normalize(m_pTargetTransform->Get_State(CTransform::STATE_LOOK));

  0010d	41 b8 02 00 00
	00		 mov	 r8d, 2
  00113	48 8d 95 70 02
	00 00		 lea	 rdx, QWORD PTR $T5[rbp]
  0011a	48 8b 85 d0 03
	00 00		 mov	 rax, QWORD PTR this$[rbp]
  00121	48 8b 88 28 01
	00 00		 mov	 rcx, QWORD PTR [rax+296]
  00128	ff 15 00 00 00
	00		 call	 QWORD PTR __imp_?Get_State@CTransform@Engine@@QEAA?AT__m128@@W4STATE@12@@Z
  0012e	0f 10 00	 movups	 xmm0, XMMWORD PTR [rax]
  00131	e8 00 00 00 00	 call	 ?XMVector3Normalize@DirectX@@YQ?AT__m128@@T2@@Z ; DirectX::XMVector3Normalize
  00136	0f 29 85 40 02
	00 00		 movaps	 XMMWORD PTR $T4[rbp], xmm0
  0013d	0f 28 85 40 02
	00 00		 movaps	 xmm0, XMMWORD PTR $T4[rbp]
  00144	0f 29 45 60	 movaps	 XMMWORD PTR vTargetLook$[rbp], xmm0

; 350  : 
; 351  : 	vTargetPos = XMVectorSetY(vTargetPos, 1.5f);

  00148	f3 0f 10 0d 00
	00 00 00	 movss	 xmm1, DWORD PTR __real@3fc00000
  00150	0f 28 45 30	 movaps	 xmm0, XMMWORD PTR vTargetPos$[rbp]
  00154	e8 00 00 00 00	 call	 ?XMVectorSetY@DirectX@@YQ?AT__m128@@T2@M@Z ; DirectX::XMVectorSetY
  00159	0f 29 85 a0 02
	00 00		 movaps	 XMMWORD PTR $T6[rbp], xmm0
  00160	0f 28 85 a0 02
	00 00		 movaps	 xmm0, XMMWORD PTR $T6[rbp]
  00167	0f 29 45 30	 movaps	 XMMWORD PTR vTargetPos$[rbp], xmm0

; 352  : 	_vector vCurCamPos = vTargetPos + vTargetLook * 1.2f;

  0016b	f3 0f 10 0d 00
	00 00 00	 movss	 xmm1, DWORD PTR __real@3f99999a
  00173	0f 28 45 60	 movaps	 xmm0, XMMWORD PTR vTargetLook$[rbp]
  00177	e8 00 00 00 00	 call	 ??DDirectX@@YQ?AT__m128@@T1@M@Z ; DirectX::operator*
  0017c	0f 29 85 00 03
	00 00		 movaps	 XMMWORD PTR $T8[rbp], xmm0
  00183	0f 28 8d 00 03
	00 00		 movaps	 xmm1, XMMWORD PTR $T8[rbp]
  0018a	0f 28 45 30	 movaps	 xmm0, XMMWORD PTR vTargetPos$[rbp]
  0018e	e8 00 00 00 00	 call	 ??HDirectX@@YQ?AT__m128@@T1@0@Z ; DirectX::operator+
  00193	0f 29 85 d0 02
	00 00		 movaps	 XMMWORD PTR $T7[rbp], xmm0
  0019a	0f 28 85 d0 02
	00 00		 movaps	 xmm0, XMMWORD PTR $T7[rbp]
  001a1	0f 29 85 90 00
	00 00		 movaps	 XMMWORD PTR vCurCamPos$[rbp], xmm0

; 353  : 
; 354  : 	vCurCamPos = XMVectorSetY(vCurCamPos, XMVectorGetY(vCurCamPos) + 0.05f * cos(m_fWinActionAcc));

  001a8	0f 28 85 90 00
	00 00		 movaps	 xmm0, XMMWORD PTR vCurCamPos$[rbp]
  001af	e8 00 00 00 00	 call	 ?XMVectorGetY@DirectX@@YQMT__m128@@@Z ; DirectX::XMVectorGetY
  001b4	f3 0f 11 85 a4
	03 00 00	 movss	 DWORD PTR tv133[rbp], xmm0
  001bc	48 8b 85 d0 03
	00 00		 mov	 rax, QWORD PTR this$[rbp]
  001c3	f3 0f 10 80 a4
	01 00 00	 movss	 xmm0, DWORD PTR [rax+420]
  001cb	e8 00 00 00 00	 call	 ?cos@@YAMM@Z		; cos
  001d0	f3 0f 10 0d 00
	00 00 00	 movss	 xmm1, DWORD PTR __real@3d4ccccd
  001d8	f3 0f 59 c8	 mulss	 xmm1, xmm0
  001dc	0f 28 c1	 movaps	 xmm0, xmm1
  001df	f3 0f 10 8d a4
	03 00 00	 movss	 xmm1, DWORD PTR tv133[rbp]
  001e7	f3 0f 58 c8	 addss	 xmm1, xmm0
  001eb	0f 28 c1	 movaps	 xmm0, xmm1
  001ee	0f 28 c8	 movaps	 xmm1, xmm0
  001f1	0f 28 85 90 00
	00 00		 movaps	 xmm0, XMMWORD PTR vCurCamPos$[rbp]
  001f8	e8 00 00 00 00	 call	 ?XMVectorSetY@DirectX@@YQ?AT__m128@@T2@M@Z ; DirectX::XMVectorSetY
  001fd	0f 29 85 30 03
	00 00		 movaps	 XMMWORD PTR $T9[rbp], xmm0
  00204	0f 28 85 30 03
	00 00		 movaps	 xmm0, XMMWORD PTR $T9[rbp]
  0020b	0f 29 85 90 00
	00 00		 movaps	 XMMWORD PTR vCurCamPos$[rbp], xmm0

; 355  : 
; 356  : 	m_pTransform->Set_State(CTransform::STATE_POSITION, vCurCamPos);

  00212	0f 28 85 90 00
	00 00		 movaps	 xmm0, XMMWORD PTR vCurCamPos$[rbp]
  00219	0f 29 85 60 03
	00 00		 movaps	 XMMWORD PTR $T10[rbp], xmm0
  00220	4c 8d 85 60 03
	00 00		 lea	 r8, QWORD PTR $T10[rbp]
  00227	ba 03 00 00 00	 mov	 edx, 3
  0022c	48 8b 85 d0 03
	00 00		 mov	 rax, QWORD PTR this$[rbp]
  00233	48 8b 48 78	 mov	 rcx, QWORD PTR [rax+120]
  00237	ff 15 00 00 00
	00		 call	 QWORD PTR __imp_?Set_State@CTransform@Engine@@QEAAXW4STATE@12@T__m128@@@Z

; 357  : 	m_pTransform->LookAt(vTargetPos);

  0023d	0f 28 45 30	 movaps	 xmm0, XMMWORD PTR vTargetPos$[rbp]
  00241	0f 29 85 90 03
	00 00		 movaps	 XMMWORD PTR $T11[rbp], xmm0
  00248	48 8d 95 90 03
	00 00		 lea	 rdx, QWORD PTR $T11[rbp]
  0024f	48 8b 85 d0 03
	00 00		 mov	 rax, QWORD PTR this$[rbp]
  00256	48 8b 48 78	 mov	 rcx, QWORD PTR [rax+120]
  0025a	ff 15 00 00 00
	00		 call	 QWORD PTR __imp_?LookAt@CTransform@Engine@@QEAAXT__m128@@@Z
$LN1@WinActionM:

; 358  : 
; 359  : }

  00260	48 8d 4d e0	 lea	 rcx, QWORD PTR [rbp-32]
  00264	48 8d 15 00 00
	00 00		 lea	 rdx, OFFSET FLAT:?WinActionMovement@CPlayerCamera@Client@@AEAAXN@Z$rtcFrameData
  0026b	e8 00 00 00 00	 call	 _RTC_CheckStackVars
  00270	48 8b 8d a8 03
	00 00		 mov	 rcx, QWORD PTR __$ArrayPad$[rbp]
  00277	48 33 cd	 xor	 rcx, rbp
  0027a	e8 00 00 00 00	 call	 __security_check_cookie
  0027f	48 8d a5 b8 03
	00 00		 lea	 rsp, QWORD PTR [rbp+952]
  00286	5f		 pop	 rdi
  00287	5d		 pop	 rbp
  00288	c3		 ret	 0
?WinActionMovement@CPlayerCamera@Client@@AEAAXN@Z ENDP	; Client::CPlayerCamera::WinActionMovement
_TEXT	ENDS
; Function compile flags: /Odtp /RTCsu /ZI
; File c:\users\arcco\documents\github\framework\client\private\playercamera.cpp
;	COMDAT ?DefaultCameraMovement@CPlayerCamera@Client@@AEAAXN@Z
_TEXT	SEGMENT
pGameInstance$ = 8
vTargetPos$ = 48
vTargetLook$ = 96
pPlayerTransform$7 = 136
vCameraPos$8 = 176
vDistance$9 = 224
fLength$10 = 260
vDir$11 = 304
vCurPosition$12 = 352
vPosition$13 = 400
vLockOnTargetPos$14 = 440
pBossCheck$15 = 488
vCurLook$16 = 528
vCurPosition$17 = 576
vPosition$18 = 624
vCurLook$19 = 672
$T20 = 1680
$T21 = 1728
$T22 = 1776
$T23 = 1824
$T24 = 1872
$T25 = 1908
$T26 = 1952
$T27 = 2000
$T28 = 2048
$T29 = 2084
$T30 = 2144
$T31 = 2192
$T32 = 2240
$T33 = 2288
$T34 = 2336
$T35 = 2384
$T36 = 2432
$T37 = 2480
$T38 = 2516
$T39 = 2564
$T40 = 2624
$T41 = 2672
$T42 = 2720
$T43 = 2768
$T44 = 2816
$T45 = 2864
$T46 = 2912
$T47 = 2960
$T48 = 2996
$T49 = 3040
$T50 = 3136
$T51 = 3184
$T52 = 3232
$T53 = 3280
$T54 = 3328
tv349 = 3396
tv301 = 3400
tv281 = 3400
tv168 = 3400
__$ArrayPad$ = 3408
this$ = 3456
TimeDelta$ = 3464
?DefaultCameraMovement@CPlayerCamera@Client@@AEAAXN@Z PROC ; Client::CPlayerCamera::DefaultCameraMovement, COMDAT

; 236  : {

$LN8:
  00000	f2 0f 11 4c 24
	10		 movsd	 QWORD PTR [rsp+16], xmm1
  00006	48 89 4c 24 08	 mov	 QWORD PTR [rsp+8], rcx
  0000b	55		 push	 rbp
  0000c	56		 push	 rsi
  0000d	57		 push	 rdi
  0000e	48 81 ec 90 0d
	00 00		 sub	 rsp, 3472		; 00000d90H
  00015	48 8d 6c 24 30	 lea	 rbp, QWORD PTR [rsp+48]
  0001a	48 8b fc	 mov	 rdi, rsp
  0001d	b9 64 03 00 00	 mov	 ecx, 868		; 00000364H
  00022	b8 cc cc cc cc	 mov	 eax, -858993460		; ccccccccH
  00027	f3 ab		 rep stosd
  00029	48 8b 8c 24 b8
	0d 00 00	 mov	 rcx, QWORD PTR [rsp+3512]
  00031	48 8b 05 00 00
	00 00		 mov	 rax, QWORD PTR __security_cookie
  00038	48 33 c5	 xor	 rax, rbp
  0003b	48 89 85 50 0d
	00 00		 mov	 QWORD PTR __$ArrayPad$[rbp], rax

; 237  : 	CGameInstance* pGameInstance = CGameInstance::GetInstance();

  00042	ff 15 00 00 00
	00		 call	 QWORD PTR __imp_?GetInstance@CGameInstance@Engine@@SAPEAV12@XZ
  00048	48 89 45 08	 mov	 QWORD PTR pGameInstance$[rbp], rax

; 238  : 	_vector vTargetPos = m_pTargetTransform->Get_State(CTransform::STATE_POSITION);

  0004c	41 b8 03 00 00
	00		 mov	 r8d, 3
  00052	48 8d 55 30	 lea	 rdx, QWORD PTR vTargetPos$[rbp]
  00056	48 8b 85 80 0d
	00 00		 mov	 rax, QWORD PTR this$[rbp]
  0005d	48 8b 88 28 01
	00 00		 mov	 rcx, QWORD PTR [rax+296]
  00064	ff 15 00 00 00
	00		 call	 QWORD PTR __imp_?Get_State@CTransform@Engine@@QEAA?AT__m128@@W4STATE@12@@Z

; 239  : 	_vector vTargetLook = XMVector3Normalize(m_pTargetTransform->Get_State(CTransform::STATE_LOOK));

  0006a	41 b8 02 00 00
	00		 mov	 r8d, 2
  00070	48 8d 95 c0 06
	00 00		 lea	 rdx, QWORD PTR $T21[rbp]
  00077	48 8b 85 80 0d
	00 00		 mov	 rax, QWORD PTR this$[rbp]
  0007e	48 8b 88 28 01
	00 00		 mov	 rcx, QWORD PTR [rax+296]
  00085	ff 15 00 00 00
	00		 call	 QWORD PTR __imp_?Get_State@CTransform@Engine@@QEAA?AT__m128@@W4STATE@12@@Z
  0008b	0f 10 00	 movups	 xmm0, XMMWORD PTR [rax]
  0008e	e8 00 00 00 00	 call	 ?XMVector3Normalize@DirectX@@YQ?AT__m128@@T2@@Z ; DirectX::XMVector3Normalize
  00093	0f 29 85 90 06
	00 00		 movaps	 XMMWORD PTR $T20[rbp], xmm0
  0009a	0f 28 85 90 06
	00 00		 movaps	 xmm0, XMMWORD PTR $T20[rbp]
  000a1	0f 29 45 60	 movaps	 XMMWORD PTR vTargetLook$[rbp], xmm0

; 240  : 	vTargetPos = XMVectorSetY(vTargetPos, 1.5f);

  000a5	f3 0f 10 0d 00
	00 00 00	 movss	 xmm1, DWORD PTR __real@3fc00000
  000ad	0f 28 45 30	 movaps	 xmm0, XMMWORD PTR vTargetPos$[rbp]
  000b1	e8 00 00 00 00	 call	 ?XMVectorSetY@DirectX@@YQ?AT__m128@@T2@M@Z ; DirectX::XMVectorSetY
  000b6	0f 29 85 f0 06
	00 00		 movaps	 XMMWORD PTR $T22[rbp], xmm0
  000bd	0f 28 85 f0 06
	00 00		 movaps	 xmm0, XMMWORD PTR $T22[rbp]
  000c4	0f 29 45 30	 movaps	 XMMWORD PTR vTargetPos$[rbp], xmm0

; 241  : 
; 242  : 	//_vector vCameraPosition = vTargetPos - XMLoadFloat3(&vDistance);
; 243  : 
; 244  : 	//vCameraPosition = vTargetPos - (vTargetLook * vDistance.z);
; 245  : 	//vCameraPosition = XMVectorSetY(vCameraPosition, vDistance.y);
; 246  : 	//
; 247  : 	//if (pGameInstance->Input_MouseState_Custom(DIMK_RB) == KEY_STATE::HOLD)
; 248  : 	//	m_bMouseLock = false;
; 249  : 	//else
; 250  : 	//	m_bMouseLock = true;
; 251  : 	//
; 252  : 	//if (!m_bMouseLock)
; 253  : 	//{
; 254  : 	//	_long MouseMove = 0;
; 255  : 	//	if (MouseMove = pGameInstance->Input_MouseMove(DIMM_X))
; 256  : 	//	{
; 257  : 	//		m_pTargetTransform->Rotate(VECTOR_UP, MouseMove * TimeDelta * 0.1f);
; 258  : 	//	}
; 259  : 	//}
; 260  : 	
; 261  : 	//if (MouseMove = pGameInstance->Input_MouseMove(DIMM_Y))
; 262  : 	//	m_pTransform->Rotate(m_pTransform->Get_State(CTransform::STATE_RIGHT), MouseMove * TimeDelta * 0.1f);
; 263  : 
; 264  : 	//  
; 265  : 	if (static_cast<CCharacter*>(m_pTarget)->IsCameraLockOn())

  000c8	48 8b 85 80 0d
	00 00		 mov	 rax, QWORD PTR this$[rbp]
  000cf	48 8b 88 20 01
	00 00		 mov	 rcx, QWORD PTR [rax+288]
  000d6	e8 00 00 00 00	 call	 ?IsCameraLockOn@CCharacter@Client@@QEAA_NXZ ; Client::CCharacter::IsCameraLockOn
  000db	0f b6 c0	 movzx	 eax, al
  000de	85 c0		 test	 eax, eax
  000e0	0f 84 4c 04 00
	00		 je	 $LN2@DefaultCam

; 266  : 	{
; 267  : 		CTransform* pPlayerTransform = (CTransform*)static_cast<CCharacter*>(m_pTarget)->Find_Component(L"com_transform");

  000e6	48 8d 15 00 00
	00 00		 lea	 rdx, OFFSET FLAT:??_C@_1BM@CJMPMHDD@?$AAc?$AAo?$AAm?$AA_?$AAt?$AAr?$AAa?$AAn?$AAs?$AAf?$AAo?$AAr?$AAm?$AA?$AA@
  000ed	48 8b 85 80 0d
	00 00		 mov	 rax, QWORD PTR this$[rbp]
  000f4	48 8b 88 20 01
	00 00		 mov	 rcx, QWORD PTR [rax+288]
  000fb	ff 15 00 00 00
	00		 call	 QWORD PTR __imp_?Find_Component@CGameObject@Engine@@QEAAPEAVCComponent@2@PEB_W@Z
  00101	48 89 85 88 00
	00 00		 mov	 QWORD PTR pPlayerTransform$7[rbp], rax

; 268  : 		_vector vCameraPos = pPlayerTransform->Get_State(CTransform::STATE_POSITION) - XMLoadFloat3(&static_cast<CCharacter*>(m_pTarget)->LockOnCameraPosition());

  00108	48 8d 95 74 07
	00 00		 lea	 rdx, QWORD PTR $T25[rbp]
  0010f	48 8b 85 80 0d
	00 00		 mov	 rax, QWORD PTR this$[rbp]
  00116	48 8b 88 20 01
	00 00		 mov	 rcx, QWORD PTR [rax+288]
  0011d	e8 00 00 00 00	 call	 ?LockOnCameraPosition@CCharacter@Client@@QEAA?AUXMFLOAT3@DirectX@@XZ ; Client::CCharacter::LockOnCameraPosition
  00122	48 8b c8	 mov	 rcx, rax
  00125	e8 00 00 00 00	 call	 ?XMLoadFloat3@DirectX@@YQ?AT__m128@@PEBUXMFLOAT3@1@@Z ; DirectX::XMLoadFloat3
  0012a	0f 29 85 50 07
	00 00		 movaps	 XMMWORD PTR $T24[rbp], xmm0
  00131	41 b8 03 00 00
	00		 mov	 r8d, 3
  00137	48 8d 95 a0 07
	00 00		 lea	 rdx, QWORD PTR $T26[rbp]
  0013e	48 8b 8d 88 00
	00 00		 mov	 rcx, QWORD PTR pPlayerTransform$7[rbp]
  00145	ff 15 00 00 00
	00		 call	 QWORD PTR __imp_?Get_State@CTransform@Engine@@QEAA?AT__m128@@W4STATE@12@@Z
  0014b	0f 28 8d 50 07
	00 00		 movaps	 xmm1, XMMWORD PTR $T24[rbp]
  00152	0f 10 00	 movups	 xmm0, XMMWORD PTR [rax]
  00155	e8 00 00 00 00	 call	 ??GDirectX@@YQ?AT__m128@@T1@0@Z ; DirectX::operator-
  0015a	0f 29 85 20 07
	00 00		 movaps	 XMMWORD PTR $T23[rbp], xmm0
  00161	0f 28 85 20 07
	00 00		 movaps	 xmm0, XMMWORD PTR $T23[rbp]
  00168	0f 29 85 b0 00
	00 00		 movaps	 XMMWORD PTR vCameraPos$8[rbp], xmm0

; 269  : 
; 270  : 		_vector vDistance = XMLoadFloat4(&((CEnemy*)(static_cast<CCharacter*>(m_pTarget)->GetLockOnTarget()))->GetPosition()) - vCameraPos;

  0016f	48 8b 85 80 0d
	00 00		 mov	 rax, QWORD PTR this$[rbp]
  00176	48 8b 88 20 01
	00 00		 mov	 rcx, QWORD PTR [rax+288]
  0017d	e8 00 00 00 00	 call	 ?GetLockOnTarget@CCharacter@Client@@QEAAPEAVCGameObject@Engine@@XZ ; Client::CCharacter::GetLockOnTarget
  00182	48 89 85 48 0d
	00 00		 mov	 QWORD PTR tv168[rbp], rax
  00189	48 8b 85 48 0d
	00 00		 mov	 rax, QWORD PTR tv168[rbp]
  00190	48 8b 00	 mov	 rax, QWORD PTR [rax]
  00193	48 8d 95 24 08
	00 00		 lea	 rdx, QWORD PTR $T29[rbp]
  0019a	48 8b 8d 48 0d
	00 00		 mov	 rcx, QWORD PTR tv168[rbp]
  001a1	ff 50 58	 call	 QWORD PTR [rax+88]
  001a4	48 8b c8	 mov	 rcx, rax
  001a7	e8 00 00 00 00	 call	 ?XMLoadFloat4@DirectX@@YQ?AT__m128@@PEBUXMFLOAT4@1@@Z ; DirectX::XMLoadFloat4
  001ac	0f 29 85 00 08
	00 00		 movaps	 XMMWORD PTR $T28[rbp], xmm0
  001b3	0f 28 8d b0 00
	00 00		 movaps	 xmm1, XMMWORD PTR vCameraPos$8[rbp]
  001ba	0f 28 85 00 08
	00 00		 movaps	 xmm0, XMMWORD PTR $T28[rbp]
  001c1	e8 00 00 00 00	 call	 ??GDirectX@@YQ?AT__m128@@T1@0@Z ; DirectX::operator-
  001c6	0f 29 85 d0 07
	00 00		 movaps	 XMMWORD PTR $T27[rbp], xmm0
  001cd	0f 28 85 d0 07
	00 00		 movaps	 xmm0, XMMWORD PTR $T27[rbp]
  001d4	0f 29 85 e0 00
	00 00		 movaps	 XMMWORD PTR vDistance$9[rbp], xmm0

; 271  : 		_float fLength = XMVectorGetX(XMVector3Length(vDistance));

  001db	0f 28 85 e0 00
	00 00		 movaps	 xmm0, XMMWORD PTR vDistance$9[rbp]
  001e2	e8 00 00 00 00	 call	 ?XMVector3Length@DirectX@@YQ?AT__m128@@T2@@Z ; DirectX::XMVector3Length
  001e7	0f 29 85 60 08
	00 00		 movaps	 XMMWORD PTR $T30[rbp], xmm0
  001ee	0f 28 85 60 08
	00 00		 movaps	 xmm0, XMMWORD PTR $T30[rbp]
  001f5	e8 00 00 00 00	 call	 ?XMVectorGetX@DirectX@@YQMT__m128@@@Z ; DirectX::XMVectorGetX
  001fa	f3 0f 11 85 04
	01 00 00	 movss	 DWORD PTR fLength$10[rbp], xmm0

; 272  : 
; 273  : 		// 
; 274  : 		if (fLength <= 7.0f)

  00202	f3 0f 10 05 00
	00 00 00	 movss	 xmm0, DWORD PTR __real@40e00000
  0020a	0f 2f 85 04 01
	00 00		 comiss	 xmm0, DWORD PTR fLength$10[rbp]
  00211	72 7a		 jb	 SHORT $LN4@DefaultCam

; 275  : 		{
; 276  : 			_vector vDir = XMVector3Normalize(vDistance);

  00213	0f 28 85 e0 00
	00 00		 movaps	 xmm0, XMMWORD PTR vDistance$9[rbp]
  0021a	e8 00 00 00 00	 call	 ?XMVector3Normalize@DirectX@@YQ?AT__m128@@T2@@Z ; DirectX::XMVector3Normalize
  0021f	0f 29 85 90 08
	00 00		 movaps	 XMMWORD PTR $T31[rbp], xmm0
  00226	0f 28 85 90 08
	00 00		 movaps	 xmm0, XMMWORD PTR $T31[rbp]
  0022d	0f 29 85 30 01
	00 00		 movaps	 XMMWORD PTR vDir$11[rbp], xmm0

; 277  : 			vCameraPos = pPlayerTransform->Get_State(CTransform::STATE_POSITION) - (vDir * 7.0f);

  00234	f3 0f 10 0d 00
	00 00 00	 movss	 xmm1, DWORD PTR __real@40e00000
  0023c	0f 28 85 30 01
	00 00		 movaps	 xmm0, XMMWORD PTR vDir$11[rbp]
  00243	e8 00 00 00 00	 call	 ??DDirectX@@YQ?AT__m128@@T1@M@Z ; DirectX::operator*
  00248	0f 29 85 f0 08
	00 00		 movaps	 XMMWORD PTR $T33[rbp], xmm0
  0024f	41 b8 03 00 00
	00		 mov	 r8d, 3
  00255	48 8d 95 20 09
	00 00		 lea	 rdx, QWORD PTR $T34[rbp]
  0025c	48 8b 8d 88 00
	00 00		 mov	 rcx, QWORD PTR pPlayerTransform$7[rbp]
  00263	ff 15 00 00 00
	00		 call	 QWORD PTR __imp_?Get_State@CTransform@Engine@@QEAA?AT__m128@@W4STATE@12@@Z
  00269	0f 28 8d f0 08
	00 00		 movaps	 xmm1, XMMWORD PTR $T33[rbp]
  00270	0f 10 00	 movups	 xmm0, XMMWORD PTR [rax]
  00273	e8 00 00 00 00	 call	 ??GDirectX@@YQ?AT__m128@@T1@0@Z ; DirectX::operator-
  00278	0f 29 85 c0 08
	00 00		 movaps	 XMMWORD PTR $T32[rbp], xmm0
  0027f	0f 28 85 c0 08
	00 00		 movaps	 xmm0, XMMWORD PTR $T32[rbp]
  00286	0f 29 85 b0 00
	00 00		 movaps	 XMMWORD PTR vCameraPos$8[rbp], xmm0
$LN4@DefaultCam:

; 278  : 		}
; 279  : 
; 280  : 		vCameraPos = XMVectorSetY(vCameraPos, XMVectorGetY(m_pTransform->Get_State(CTransform::STATE_POSITION)));

  0028d	41 b8 03 00 00
	00		 mov	 r8d, 3
  00293	48 8d 95 80 09
	00 00		 lea	 rdx, QWORD PTR $T36[rbp]
  0029a	48 8b 85 80 0d
	00 00		 mov	 rax, QWORD PTR this$[rbp]
  002a1	48 8b 48 78	 mov	 rcx, QWORD PTR [rax+120]
  002a5	ff 15 00 00 00
	00		 call	 QWORD PTR __imp_?Get_State@CTransform@Engine@@QEAA?AT__m128@@W4STATE@12@@Z
  002ab	0f 10 00	 movups	 xmm0, XMMWORD PTR [rax]
  002ae	e8 00 00 00 00	 call	 ?XMVectorGetY@DirectX@@YQMT__m128@@@Z ; DirectX::XMVectorGetY
  002b3	0f 28 c8	 movaps	 xmm1, xmm0
  002b6	0f 28 85 b0 00
	00 00		 movaps	 xmm0, XMMWORD PTR vCameraPos$8[rbp]
  002bd	e8 00 00 00 00	 call	 ?XMVectorSetY@DirectX@@YQ?AT__m128@@T2@M@Z ; DirectX::XMVectorSetY
  002c2	0f 29 85 50 09
	00 00		 movaps	 XMMWORD PTR $T35[rbp], xmm0
  002c9	0f 28 85 50 09
	00 00		 movaps	 xmm0, XMMWORD PTR $T35[rbp]
  002d0	0f 29 85 b0 00
	00 00		 movaps	 XMMWORD PTR vCameraPos$8[rbp], xmm0

; 281  : 
; 282  : 		_vector vCurPosition = m_pTransform->Get_State(CTransform::STATE_POSITION);

  002d7	41 b8 03 00 00
	00		 mov	 r8d, 3
  002dd	48 8d 95 60 01
	00 00		 lea	 rdx, QWORD PTR vCurPosition$12[rbp]
  002e4	48 8b 85 80 0d
	00 00		 mov	 rax, QWORD PTR this$[rbp]
  002eb	48 8b 48 78	 mov	 rcx, QWORD PTR [rax+120]
  002ef	ff 15 00 00 00
	00		 call	 QWORD PTR __imp_?Get_State@CTransform@Engine@@QEAA?AT__m128@@W4STATE@12@@Z

; 283  : 		_vector vPosition = XMVectorLerp(vCurPosition, vCameraPos, (_float)TimeDelta * 4.0f);

  002f5	f2 0f 5a 85 88
	0d 00 00	 cvtsd2ss xmm0, QWORD PTR TimeDelta$[rbp]
  002fd	f3 0f 59 05 00
	00 00 00	 mulss	 xmm0, DWORD PTR __real@40800000
  00305	0f 28 d0	 movaps	 xmm2, xmm0
  00308	0f 28 8d b0 00
	00 00		 movaps	 xmm1, XMMWORD PTR vCameraPos$8[rbp]
  0030f	0f 28 85 60 01
	00 00		 movaps	 xmm0, XMMWORD PTR vCurPosition$12[rbp]
  00316	e8 00 00 00 00	 call	 ?XMVectorLerp@DirectX@@YQ?AT__m128@@T2@0M@Z ; DirectX::XMVectorLerp
  0031b	0f 29 85 b0 09
	00 00		 movaps	 XMMWORD PTR $T37[rbp], xmm0
  00322	0f 28 85 b0 09
	00 00		 movaps	 xmm0, XMMWORD PTR $T37[rbp]
  00329	0f 29 85 90 01
	00 00		 movaps	 XMMWORD PTR vPosition$13[rbp], xmm0

; 284  : 
; 285  : 		// 
; 286  : 		//_vector q1 = XMQuaternionRotationMatrix(XMLoadFloat4x4(&m_pSocketTransform->Get_WorldMatrix()));
; 287  : 		//_vector q2 = XMQuaternionRotationMatrix(XMLoadFloat4x4(&pPlayerTransform->Get_WorldMatrix()));
; 288  : 		//_vector vPosition = XMQuaternionSlerp(q1, q2, (_float)TimeDelta * 3.0f);
; 289  : 		//
; 290  : 		
; 291  : 		_float4 vLockOnTargetPos;

  00330	48 8d 8d b8 01
	00 00		 lea	 rcx, QWORD PTR vLockOnTargetPos$14[rbp]
  00337	e8 00 00 00 00	 call	 ??0XMFLOAT4@DirectX@@QEAA@XZ ; DirectX::XMFLOAT4::XMFLOAT4

; 292  : 		CBoss* pBossCheck = dynamic_cast<CBoss*>(static_cast<CCharacter*>(m_pTarget)->GetLockOnTarget());

  0033c	48 8b 85 80 0d
	00 00		 mov	 rax, QWORD PTR this$[rbp]
  00343	48 8b 88 20 01
	00 00		 mov	 rcx, QWORD PTR [rax+288]
  0034a	e8 00 00 00 00	 call	 ?GetLockOnTarget@CCharacter@Client@@QEAAPEAVCGameObject@Engine@@XZ ; Client::CCharacter::GetLockOnTarget
  0034f	c7 44 24 20 00
	00 00 00	 mov	 DWORD PTR [rsp+32], 0
  00357	4c 8d 0d 00 00
	00 00		 lea	 r9, OFFSET FLAT:??_R0?AVCBoss@Client@@@8
  0035e	4c 8d 05 00 00
	00 00		 lea	 r8, OFFSET FLAT:??_R0?AVCGameObject@Engine@@@8
  00365	33 d2		 xor	 edx, edx
  00367	48 8b c8	 mov	 rcx, rax
  0036a	e8 00 00 00 00	 call	 __RTDynamicCast
  0036f	48 89 85 e8 01
	00 00		 mov	 QWORD PTR pBossCheck$15[rbp], rax

; 293  : 		if (pBossCheck)

  00376	48 83 bd e8 01
	00 00 00	 cmp	 QWORD PTR pBossCheck$15[rbp], 0
  0037e	74 5e		 je	 SHORT $LN5@DefaultCam

; 294  : 		{
; 295  : 			//
; 296  : 			vLockOnTargetPos = ((CEnemy*)(static_cast<CCharacter*>(m_pTarget)->GetLockOnTarget()))->GetPosition();

  00380	48 8b 85 80 0d
	00 00		 mov	 rax, QWORD PTR this$[rbp]
  00387	48 8b 88 20 01
	00 00		 mov	 rcx, QWORD PTR [rax+288]
  0038e	e8 00 00 00 00	 call	 ?GetLockOnTarget@CCharacter@Client@@QEAAPEAVCGameObject@Engine@@XZ ; Client::CCharacter::GetLockOnTarget
  00393	48 89 85 48 0d
	00 00		 mov	 QWORD PTR tv281[rbp], rax
  0039a	48 8b 85 48 0d
	00 00		 mov	 rax, QWORD PTR tv281[rbp]
  003a1	48 8b 00	 mov	 rax, QWORD PTR [rax]
  003a4	48 8d 95 d4 09
	00 00		 lea	 rdx, QWORD PTR $T38[rbp]
  003ab	48 8b 8d 48 0d
	00 00		 mov	 rcx, QWORD PTR tv281[rbp]
  003b2	ff 50 58	 call	 QWORD PTR [rax+88]
  003b5	48 8b d0	 mov	 rdx, rax
  003b8	48 8d 8d b8 01
	00 00		 lea	 rcx, QWORD PTR vLockOnTargetPos$14[rbp]
  003bf	e8 00 00 00 00	 call	 ??4XMFLOAT4@DirectX@@QEAAAEAU01@AEBU01@@Z ; DirectX::XMFLOAT4::operator=

; 297  : 			vLockOnTargetPos.y += 2.f;

  003c4	f3 0f 10 85 bc
	01 00 00	 movss	 xmm0, DWORD PTR vLockOnTargetPos$14[rbp+4]
  003cc	f3 0f 58 05 00
	00 00 00	 addss	 xmm0, DWORD PTR __real@40000000
  003d4	f3 0f 11 85 bc
	01 00 00	 movss	 DWORD PTR vLockOnTargetPos$14[rbp+4], xmm0

; 298  : 		}
; 299  : 		else

  003dc	eb 5c		 jmp	 SHORT $LN6@DefaultCam
$LN5@DefaultCam:

; 300  : 		{
; 301  : 			//
; 302  : 			vLockOnTargetPos = ((CEnemy*)(static_cast<CCharacter*>(m_pTarget)->GetLockOnTarget()))->GetPosition();

  003de	48 8b 85 80 0d
	00 00		 mov	 rax, QWORD PTR this$[rbp]
  003e5	48 8b 88 20 01
	00 00		 mov	 rcx, QWORD PTR [rax+288]
  003ec	e8 00 00 00 00	 call	 ?GetLockOnTarget@CCharacter@Client@@QEAAPEAVCGameObject@Engine@@XZ ; Client::CCharacter::GetLockOnTarget
  003f1	48 89 85 48 0d
	00 00		 mov	 QWORD PTR tv301[rbp], rax
  003f8	48 8b 85 48 0d
	00 00		 mov	 rax, QWORD PTR tv301[rbp]
  003ff	48 8b 00	 mov	 rax, QWORD PTR [rax]
  00402	48 8d 95 04 0a
	00 00		 lea	 rdx, QWORD PTR $T39[rbp]
  00409	48 8b 8d 48 0d
	00 00		 mov	 rcx, QWORD PTR tv301[rbp]
  00410	ff 50 58	 call	 QWORD PTR [rax+88]
  00413	48 8b d0	 mov	 rdx, rax
  00416	48 8d 8d b8 01
	00 00		 lea	 rcx, QWORD PTR vLockOnTargetPos$14[rbp]
  0041d	e8 00 00 00 00	 call	 ??4XMFLOAT4@DirectX@@QEAAAEAU01@AEBU01@@Z ; DirectX::XMFLOAT4::operator=

; 303  : 			vLockOnTargetPos.y += 1.f;

  00422	f3 0f 10 85 bc
	01 00 00	 movss	 xmm0, DWORD PTR vLockOnTargetPos$14[rbp+4]
  0042a	f3 0f 58 05 00
	00 00 00	 addss	 xmm0, DWORD PTR __real@3f800000
  00432	f3 0f 11 85 bc
	01 00 00	 movss	 DWORD PTR vLockOnTargetPos$14[rbp+4], xmm0
$LN6@DefaultCam:

; 304  : 		}
; 305  : 
; 306  : 		m_pTransform->Set_State(CTransform::STATE_POSITION, vPosition);

  0043a	0f 28 85 90 01
	00 00		 movaps	 xmm0, XMMWORD PTR vPosition$13[rbp]
  00441	0f 29 85 40 0c
	00 00		 movaps	 XMMWORD PTR $T50[rbp], xmm0
  00448	4c 8d 85 40 0c
	00 00		 lea	 r8, QWORD PTR $T50[rbp]
  0044f	ba 03 00 00 00	 mov	 edx, 3
  00454	48 8b 85 80 0d
	00 00		 mov	 rax, QWORD PTR this$[rbp]
  0045b	48 8b 48 78	 mov	 rcx, QWORD PTR [rax+120]
  0045f	ff 15 00 00 00
	00		 call	 QWORD PTR __imp_?Set_State@CTransform@Engine@@QEAAXW4STATE@12@T__m128@@@Z

; 307  : 
; 308  : 		_vector vCurLook = XMVectorLerp(XMLoadFloat4(&vLookTarget), XMLoadFloat4(&vLockOnTargetPos), (_float)TimeDelta * 2.f);

  00465	48 8d 8d b8 01
	00 00		 lea	 rcx, QWORD PTR vLockOnTargetPos$14[rbp]
  0046c	e8 00 00 00 00	 call	 ?XMLoadFloat4@DirectX@@YQ?AT__m128@@PEBUXMFLOAT4@1@@Z ; DirectX::XMLoadFloat4
  00471	0f 29 85 70 0a
	00 00		 movaps	 XMMWORD PTR $T41[rbp], xmm0
  00478	48 8b 85 80 0d
	00 00		 mov	 rax, QWORD PTR this$[rbp]
  0047f	48 05 90 01 00
	00		 add	 rax, 400		; 00000190H
  00485	48 8b c8	 mov	 rcx, rax
  00488	e8 00 00 00 00	 call	 ?XMLoadFloat4@DirectX@@YQ?AT__m128@@PEBUXMFLOAT4@1@@Z ; DirectX::XMLoadFloat4
  0048d	0f 29 85 a0 0a
	00 00		 movaps	 XMMWORD PTR $T42[rbp], xmm0
  00494	f2 0f 5a 85 88
	0d 00 00	 cvtsd2ss xmm0, QWORD PTR TimeDelta$[rbp]
  0049c	f3 0f 59 05 00
	00 00 00	 mulss	 xmm0, DWORD PTR __real@40000000
  004a4	0f 28 d0	 movaps	 xmm2, xmm0
  004a7	0f 28 8d 70 0a
	00 00		 movaps	 xmm1, XMMWORD PTR $T41[rbp]
  004ae	0f 28 85 a0 0a
	00 00		 movaps	 xmm0, XMMWORD PTR $T42[rbp]
  004b5	e8 00 00 00 00	 call	 ?XMVectorLerp@DirectX@@YQ?AT__m128@@T2@0M@Z ; DirectX::XMVectorLerp
  004ba	0f 29 85 40 0a
	00 00		 movaps	 XMMWORD PTR $T40[rbp], xmm0
  004c1	0f 28 85 40 0a
	00 00		 movaps	 xmm0, XMMWORD PTR $T40[rbp]
  004c8	0f 29 85 10 02
	00 00		 movaps	 XMMWORD PTR vCurLook$16[rbp], xmm0

; 309  : 		XMStoreFloat4(&vLookTarget, vCurLook);

  004cf	48 8b 85 80 0d
	00 00		 mov	 rax, QWORD PTR this$[rbp]
  004d6	48 05 90 01 00
	00		 add	 rax, 400		; 00000190H
  004dc	0f 28 8d 10 02
	00 00		 movaps	 xmm1, XMMWORD PTR vCurLook$16[rbp]
  004e3	48 8b c8	 mov	 rcx, rax
  004e6	e8 00 00 00 00	 call	 ?XMStoreFloat4@DirectX@@YQXPEAUXMFLOAT4@1@T__m128@@@Z ; DirectX::XMStoreFloat4

; 310  : 
; 311  : 		m_pTransform->LookAt(XMLoadFloat4(&vLookTarget));

  004eb	48 8b 85 80 0d
	00 00		 mov	 rax, QWORD PTR this$[rbp]
  004f2	48 05 90 01 00
	00		 add	 rax, 400		; 00000190H
  004f8	48 8b c8	 mov	 rcx, rax
  004fb	e8 00 00 00 00	 call	 ?XMLoadFloat4@DirectX@@YQ?AT__m128@@PEBUXMFLOAT4@1@@Z ; DirectX::XMLoadFloat4
  00500	0f 29 85 d0 0a
	00 00		 movaps	 XMMWORD PTR $T43[rbp], xmm0
  00507	0f 28 85 d0 0a
	00 00		 movaps	 xmm0, XMMWORD PTR $T43[rbp]
  0050e	0f 29 85 70 0c
	00 00		 movaps	 XMMWORD PTR $T51[rbp], xmm0
  00515	48 8d 95 70 0c
	00 00		 lea	 rdx, QWORD PTR $T51[rbp]
  0051c	48 8b 85 80 0d
	00 00		 mov	 rax, QWORD PTR this$[rbp]
  00523	48 8b 48 78	 mov	 rcx, QWORD PTR [rax+120]
  00527	ff 15 00 00 00
	00		 call	 QWORD PTR __imp_?LookAt@CTransform@Engine@@QEAAXT__m128@@@Z

; 312  : 	}
; 313  : 	else

  0052d	e9 47 01 00 00	 jmp	 $LN3@DefaultCam
$LN2@DefaultCam:

; 314  : 	{
; 315  : 		_vector vCurPosition = m_pTransform->Get_State(CTransform::STATE_POSITION);

  00532	41 b8 03 00 00
	00		 mov	 r8d, 3
  00538	48 8d 95 40 02
	00 00		 lea	 rdx, QWORD PTR vCurPosition$17[rbp]
  0053f	48 8b 85 80 0d
	00 00		 mov	 rax, QWORD PTR this$[rbp]
  00546	48 8b 48 78	 mov	 rcx, QWORD PTR [rax+120]
  0054a	ff 15 00 00 00
	00		 call	 QWORD PTR __imp_?Get_State@CTransform@Engine@@QEAA?AT__m128@@W4STATE@12@@Z

; 316  : 		_vector vPosition = XMVectorLerp(vCurPosition, m_pSocketTransform->Get_State(CTransform::STATE_POSITION), (_float)TimeDelta * 4.0f);

  00550	f2 0f 5a 85 88
	0d 00 00	 cvtsd2ss xmm0, QWORD PTR TimeDelta$[rbp]
  00558	f3 0f 59 05 00
	00 00 00	 mulss	 xmm0, DWORD PTR __real@40800000
  00560	f3 0f 11 85 44
	0d 00 00	 movss	 DWORD PTR tv349[rbp], xmm0
  00568	41 b8 03 00 00
	00		 mov	 r8d, 3
  0056e	48 8d 95 30 0b
	00 00		 lea	 rdx, QWORD PTR $T45[rbp]
  00575	48 8b 85 80 0d
	00 00		 mov	 rax, QWORD PTR this$[rbp]
  0057c	48 8b 88 30 01
	00 00		 mov	 rcx, QWORD PTR [rax+304]
  00583	ff 15 00 00 00
	00		 call	 QWORD PTR __imp_?Get_State@CTransform@Engine@@QEAA?AT__m128@@W4STATE@12@@Z
  00589	f3 0f 10 85 44
	0d 00 00	 movss	 xmm0, DWORD PTR tv349[rbp]
  00591	0f 28 d0	 movaps	 xmm2, xmm0
  00594	0f 10 08	 movups	 xmm1, XMMWORD PTR [rax]
  00597	0f 28 85 40 02
	00 00		 movaps	 xmm0, XMMWORD PTR vCurPosition$17[rbp]
  0059e	e8 00 00 00 00	 call	 ?XMVectorLerp@DirectX@@YQ?AT__m128@@T2@0M@Z ; DirectX::XMVectorLerp
  005a3	0f 29 85 00 0b
	00 00		 movaps	 XMMWORD PTR $T44[rbp], xmm0
  005aa	0f 28 85 00 0b
	00 00		 movaps	 xmm0, XMMWORD PTR $T44[rbp]
  005b1	0f 29 85 70 02
	00 00		 movaps	 XMMWORD PTR vPosition$18[rbp], xmm0

; 317  : 		//_vector vPosition = XMQuaternionSlerp(vCurPosition, m_pSocketTransform->Get_State(CTransform::STATE_POSITION), (_float)TimeDelta * 3.0f);
; 318  : 
; 319  : 		m_pTransform->Set_State(CTransform::STATE_POSITION, vPosition);

  005b8	0f 28 85 70 02
	00 00		 movaps	 xmm0, XMMWORD PTR vPosition$18[rbp]
  005bf	0f 29 85 a0 0c
	00 00		 movaps	 XMMWORD PTR $T52[rbp], xmm0
  005c6	4c 8d 85 a0 0c
	00 00		 lea	 r8, QWORD PTR $T52[rbp]
  005cd	ba 03 00 00 00	 mov	 edx, 3
  005d2	48 8b 85 80 0d
	00 00		 mov	 rax, QWORD PTR this$[rbp]
  005d9	48 8b 48 78	 mov	 rcx, QWORD PTR [rax+120]
  005dd	ff 15 00 00 00
	00		 call	 QWORD PTR __imp_?Set_State@CTransform@Engine@@QEAAXW4STATE@12@T__m128@@@Z

; 320  : 
; 321  : 		_vector vCurLook = XMVectorLerp(XMLoadFloat4(&vLookTarget), vTargetPos, (_float)TimeDelta * 2.f);

  005e3	48 8b 85 80 0d
	00 00		 mov	 rax, QWORD PTR this$[rbp]
  005ea	48 05 90 01 00
	00		 add	 rax, 400		; 00000190H
  005f0	48 8b c8	 mov	 rcx, rax
  005f3	e8 00 00 00 00	 call	 ?XMLoadFloat4@DirectX@@YQ?AT__m128@@PEBUXMFLOAT4@1@@Z ; DirectX::XMLoadFloat4
  005f8	0f 29 85 90 0b
	00 00		 movaps	 XMMWORD PTR $T47[rbp], xmm0
  005ff	f2 0f 5a 85 88
	0d 00 00	 cvtsd2ss xmm0, QWORD PTR TimeDelta$[rbp]
  00607	f3 0f 59 05 00
	00 00 00	 mulss	 xmm0, DWORD PTR __real@40000000
  0060f	0f 28 d0	 movaps	 xmm2, xmm0
  00612	0f 28 4d 30	 movaps	 xmm1, XMMWORD PTR vTargetPos$[rbp]
  00616	0f 28 85 90 0b
	00 00		 movaps	 xmm0, XMMWORD PTR $T47[rbp]
  0061d	e8 00 00 00 00	 call	 ?XMVectorLerp@DirectX@@YQ?AT__m128@@T2@0M@Z ; DirectX::XMVectorLerp
  00622	0f 29 85 60 0b
	00 00		 movaps	 XMMWORD PTR $T46[rbp], xmm0
  00629	0f 28 85 60 0b
	00 00		 movaps	 xmm0, XMMWORD PTR $T46[rbp]
  00630	0f 29 85 a0 02
	00 00		 movaps	 XMMWORD PTR vCurLook$19[rbp], xmm0

; 322  : 		XMStoreFloat4(&vLookTarget, vCurLook);

  00637	48 8b 85 80 0d
	00 00		 mov	 rax, QWORD PTR this$[rbp]
  0063e	48 05 90 01 00
	00		 add	 rax, 400		; 00000190H
  00644	0f 28 8d a0 02
	00 00		 movaps	 xmm1, XMMWORD PTR vCurLook$19[rbp]
  0064b	48 8b c8	 mov	 rcx, rax
  0064e	e8 00 00 00 00	 call	 ?XMStoreFloat4@DirectX@@YQXPEAUXMFLOAT4@1@T__m128@@@Z ; DirectX::XMStoreFloat4

; 323  : 		m_pTransform->LookAt(vCurLook);

  00653	0f 28 85 a0 02
	00 00		 movaps	 xmm0, XMMWORD PTR vCurLook$19[rbp]
  0065a	0f 29 85 d0 0c
	00 00		 movaps	 XMMWORD PTR $T53[rbp], xmm0
  00661	48 8d 95 d0 0c
	00 00		 lea	 rdx, QWORD PTR $T53[rbp]
  00668	48 8b 85 80 0d
	00 00		 mov	 rax, QWORD PTR this$[rbp]
  0066f	48 8b 48 78	 mov	 rcx, QWORD PTR [rax+120]
  00673	ff 15 00 00 00
	00		 call	 QWORD PTR __imp_?LookAt@CTransform@Engine@@QEAAXT__m128@@@Z
$LN3@DefaultCam:

; 324  : 	}
; 325  : 	m_CameraDesc.vAt = _float3{ vLookTarget.x, vLookTarget.y, vLookTarget.z };

  00679	48 8b 85 80 0d
	00 00		 mov	 rax, QWORD PTR this$[rbp]
  00680	f3 0f 10 98 98
	01 00 00	 movss	 xmm3, DWORD PTR [rax+408]
  00688	48 8b 85 80 0d
	00 00		 mov	 rax, QWORD PTR this$[rbp]
  0068f	f3 0f 10 90 94
	01 00 00	 movss	 xmm2, DWORD PTR [rax+404]
  00697	48 8b 85 80 0d
	00 00		 mov	 rax, QWORD PTR this$[rbp]
  0069e	f3 0f 10 88 90
	01 00 00	 movss	 xmm1, DWORD PTR [rax+400]
  006a6	48 8d 8d b4 0b
	00 00		 lea	 rcx, QWORD PTR $T48[rbp]
  006ad	e8 00 00 00 00	 call	 ??0XMFLOAT3@DirectX@@QEAA@MMM@Z ; DirectX::XMFLOAT3::XMFLOAT3
  006b2	48 8b 8d 80 0d
	00 00		 mov	 rcx, QWORD PTR this$[rbp]
  006b9	48 81 c1 9c 00
	00 00		 add	 rcx, 156		; 0000009cH
  006c0	48 8b d0	 mov	 rdx, rax
  006c3	e8 00 00 00 00	 call	 ??4XMFLOAT3@DirectX@@QEAAAEAU01@AEBU01@@Z ; DirectX::XMFLOAT3::operator=

; 326  : 
; 327  : 	pGameInstance->AddCollider(m_pCollider);

  006c8	45 33 c0	 xor	 r8d, r8d
  006cb	48 8b 85 80 0d
	00 00		 mov	 rax, QWORD PTR this$[rbp]
  006d2	48 8b 90 38 01
	00 00		 mov	 rdx, QWORD PTR [rax+312]
  006d9	48 8b 4d 08	 mov	 rcx, QWORD PTR pGameInstance$[rbp]
  006dd	ff 15 00 00 00
	00		 call	 QWORD PTR __imp_?AddCollider@CGameInstance@Engine@@QEAAJPEAVCCollider@2@I@Z

; 328  : 	m_pCollider->Update(pGameInstance->Get_Transform_Matrix_Inverse(CPipeLine::TS_VIEW));

  006e3	45 33 c0	 xor	 r8d, r8d
  006e6	48 8d 95 e0 0b
	00 00		 lea	 rdx, QWORD PTR $T49[rbp]
  006ed	48 8b 4d 08	 mov	 rcx, QWORD PTR pGameInstance$[rbp]
  006f1	ff 15 00 00 00
	00		 call	 QWORD PTR __imp_?Get_Transform_Matrix_Inverse@CGameInstance@Engine@@QEAA?AUXMMATRIX@DirectX@@W4TRANSFORM_STATE@CPipeLine@2@@Z
  006f7	48 8d 8d 00 0d
	00 00		 lea	 rcx, QWORD PTR $T54[rbp]
  006fe	48 8b f9	 mov	 rdi, rcx
  00701	48 8b f0	 mov	 rsi, rax
  00704	b9 40 00 00 00	 mov	 ecx, 64			; 00000040H
  00709	f3 a4		 rep movsb
  0070b	48 8b 85 80 0d
	00 00		 mov	 rax, QWORD PTR this$[rbp]
  00712	48 8b 80 38 01
	00 00		 mov	 rax, QWORD PTR [rax+312]
  00719	48 8b 8d 80 0d
	00 00		 mov	 rcx, QWORD PTR this$[rbp]
  00720	48 8b 89 38 01
	00 00		 mov	 rcx, QWORD PTR [rcx+312]
  00727	48 8b 00	 mov	 rax, QWORD PTR [rax]
  0072a	48 8d 95 00 0d
	00 00		 lea	 rdx, QWORD PTR $T54[rbp]
  00731	ff 50 30	 call	 QWORD PTR [rax+48]

; 329  : }

  00734	48 8d 4d d0	 lea	 rcx, QWORD PTR [rbp-48]
  00738	48 8d 15 00 00
	00 00		 lea	 rdx, OFFSET FLAT:?DefaultCameraMovement@CPlayerCamera@Client@@AEAAXN@Z$rtcFrameData
  0073f	e8 00 00 00 00	 call	 _RTC_CheckStackVars
  00744	48 8b 8d 50 0d
	00 00		 mov	 rcx, QWORD PTR __$ArrayPad$[rbp]
  0074b	48 33 cd	 xor	 rcx, rbp
  0074e	e8 00 00 00 00	 call	 __security_check_cookie
  00753	48 8d a5 60 0d
	00 00		 lea	 rsp, QWORD PTR [rbp+3424]
  0075a	5f		 pop	 rdi
  0075b	5e		 pop	 rsi
  0075c	5d		 pop	 rbp
  0075d	c3		 ret	 0
?DefaultCameraMovement@CPlayerCamera@Client@@AEAAXN@Z ENDP ; Client::CPlayerCamera::DefaultCameraMovement
_TEXT	ENDS
; Function compile flags: /Odtp /RTCsu /ZI
