; Listing generated by Microsoft (R) Optimizing Compiler Version 19.00.24245.0 

include listing.inc

INCLUDELIB MSVCRTD
INCLUDELIB OLDNAMES

PUBLIC	?AliceBlue@Colors@DirectX@@3UXMVECTORF32@2@B	; DirectX::Colors::AliceBlue
PUBLIC	?AntiqueWhite@Colors@DirectX@@3UXMVECTORF32@2@B	; DirectX::Colors::AntiqueWhite
PUBLIC	?Aqua@Colors@DirectX@@3UXMVECTORF32@2@B		; DirectX::Colors::Aqua
PUBLIC	?Aquamarine@Colors@DirectX@@3UXMVECTORF32@2@B	; DirectX::Colors::Aquamarine
PUBLIC	?Azure@Colors@DirectX@@3UXMVECTORF32@2@B	; DirectX::Colors::Azure
PUBLIC	?Beige@Colors@DirectX@@3UXMVECTORF32@2@B	; DirectX::Colors::Beige
PUBLIC	?Bisque@Colors@DirectX@@3UXMVECTORF32@2@B	; DirectX::Colors::Bisque
PUBLIC	?Black@Colors@DirectX@@3UXMVECTORF32@2@B	; DirectX::Colors::Black
PUBLIC	?BlanchedAlmond@Colors@DirectX@@3UXMVECTORF32@2@B ; DirectX::Colors::BlanchedAlmond
PUBLIC	?Blue@Colors@DirectX@@3UXMVECTORF32@2@B		; DirectX::Colors::Blue
PUBLIC	?BlueViolet@Colors@DirectX@@3UXMVECTORF32@2@B	; DirectX::Colors::BlueViolet
PUBLIC	?Brown@Colors@DirectX@@3UXMVECTORF32@2@B	; DirectX::Colors::Brown
PUBLIC	?BurlyWood@Colors@DirectX@@3UXMVECTORF32@2@B	; DirectX::Colors::BurlyWood
PUBLIC	?CadetBlue@Colors@DirectX@@3UXMVECTORF32@2@B	; DirectX::Colors::CadetBlue
PUBLIC	?Chartreuse@Colors@DirectX@@3UXMVECTORF32@2@B	; DirectX::Colors::Chartreuse
PUBLIC	?Chocolate@Colors@DirectX@@3UXMVECTORF32@2@B	; DirectX::Colors::Chocolate
PUBLIC	?Coral@Colors@DirectX@@3UXMVECTORF32@2@B	; DirectX::Colors::Coral
PUBLIC	?CornflowerBlue@Colors@DirectX@@3UXMVECTORF32@2@B ; DirectX::Colors::CornflowerBlue
PUBLIC	?Cornsilk@Colors@DirectX@@3UXMVECTORF32@2@B	; DirectX::Colors::Cornsilk
PUBLIC	?Crimson@Colors@DirectX@@3UXMVECTORF32@2@B	; DirectX::Colors::Crimson
PUBLIC	?Cyan@Colors@DirectX@@3UXMVECTORF32@2@B		; DirectX::Colors::Cyan
PUBLIC	?DarkBlue@Colors@DirectX@@3UXMVECTORF32@2@B	; DirectX::Colors::DarkBlue
PUBLIC	?DarkCyan@Colors@DirectX@@3UXMVECTORF32@2@B	; DirectX::Colors::DarkCyan
PUBLIC	?DarkGoldenrod@Colors@DirectX@@3UXMVECTORF32@2@B ; DirectX::Colors::DarkGoldenrod
PUBLIC	?DarkGray@Colors@DirectX@@3UXMVECTORF32@2@B	; DirectX::Colors::DarkGray
PUBLIC	?DarkGreen@Colors@DirectX@@3UXMVECTORF32@2@B	; DirectX::Colors::DarkGreen
PUBLIC	?DarkKhaki@Colors@DirectX@@3UXMVECTORF32@2@B	; DirectX::Colors::DarkKhaki
PUBLIC	?DarkMagenta@Colors@DirectX@@3UXMVECTORF32@2@B	; DirectX::Colors::DarkMagenta
PUBLIC	?DarkOliveGreen@Colors@DirectX@@3UXMVECTORF32@2@B ; DirectX::Colors::DarkOliveGreen
PUBLIC	?DarkOrange@Colors@DirectX@@3UXMVECTORF32@2@B	; DirectX::Colors::DarkOrange
PUBLIC	?DarkOrchid@Colors@DirectX@@3UXMVECTORF32@2@B	; DirectX::Colors::DarkOrchid
PUBLIC	?DarkRed@Colors@DirectX@@3UXMVECTORF32@2@B	; DirectX::Colors::DarkRed
PUBLIC	?DarkSalmon@Colors@DirectX@@3UXMVECTORF32@2@B	; DirectX::Colors::DarkSalmon
PUBLIC	?DarkSeaGreen@Colors@DirectX@@3UXMVECTORF32@2@B	; DirectX::Colors::DarkSeaGreen
PUBLIC	?DarkSlateBlue@Colors@DirectX@@3UXMVECTORF32@2@B ; DirectX::Colors::DarkSlateBlue
PUBLIC	?DarkSlateGray@Colors@DirectX@@3UXMVECTORF32@2@B ; DirectX::Colors::DarkSlateGray
PUBLIC	?DarkTurquoise@Colors@DirectX@@3UXMVECTORF32@2@B ; DirectX::Colors::DarkTurquoise
PUBLIC	?DarkViolet@Colors@DirectX@@3UXMVECTORF32@2@B	; DirectX::Colors::DarkViolet
PUBLIC	?DeepPink@Colors@DirectX@@3UXMVECTORF32@2@B	; DirectX::Colors::DeepPink
PUBLIC	?DeepSkyBlue@Colors@DirectX@@3UXMVECTORF32@2@B	; DirectX::Colors::DeepSkyBlue
PUBLIC	?DimGray@Colors@DirectX@@3UXMVECTORF32@2@B	; DirectX::Colors::DimGray
PUBLIC	?DodgerBlue@Colors@DirectX@@3UXMVECTORF32@2@B	; DirectX::Colors::DodgerBlue
PUBLIC	?Firebrick@Colors@DirectX@@3UXMVECTORF32@2@B	; DirectX::Colors::Firebrick
PUBLIC	?FloralWhite@Colors@DirectX@@3UXMVECTORF32@2@B	; DirectX::Colors::FloralWhite
PUBLIC	?ForestGreen@Colors@DirectX@@3UXMVECTORF32@2@B	; DirectX::Colors::ForestGreen
PUBLIC	?Fuchsia@Colors@DirectX@@3UXMVECTORF32@2@B	; DirectX::Colors::Fuchsia
PUBLIC	?Gainsboro@Colors@DirectX@@3UXMVECTORF32@2@B	; DirectX::Colors::Gainsboro
PUBLIC	?GhostWhite@Colors@DirectX@@3UXMVECTORF32@2@B	; DirectX::Colors::GhostWhite
PUBLIC	?Gold@Colors@DirectX@@3UXMVECTORF32@2@B		; DirectX::Colors::Gold
PUBLIC	?Goldenrod@Colors@DirectX@@3UXMVECTORF32@2@B	; DirectX::Colors::Goldenrod
PUBLIC	?Gray@Colors@DirectX@@3UXMVECTORF32@2@B		; DirectX::Colors::Gray
PUBLIC	?Green@Colors@DirectX@@3UXMVECTORF32@2@B	; DirectX::Colors::Green
PUBLIC	?GreenYellow@Colors@DirectX@@3UXMVECTORF32@2@B	; DirectX::Colors::GreenYellow
PUBLIC	?Honeydew@Colors@DirectX@@3UXMVECTORF32@2@B	; DirectX::Colors::Honeydew
PUBLIC	?HotPink@Colors@DirectX@@3UXMVECTORF32@2@B	; DirectX::Colors::HotPink
PUBLIC	?IndianRed@Colors@DirectX@@3UXMVECTORF32@2@B	; DirectX::Colors::IndianRed
PUBLIC	?Indigo@Colors@DirectX@@3UXMVECTORF32@2@B	; DirectX::Colors::Indigo
PUBLIC	?Ivory@Colors@DirectX@@3UXMVECTORF32@2@B	; DirectX::Colors::Ivory
PUBLIC	?Khaki@Colors@DirectX@@3UXMVECTORF32@2@B	; DirectX::Colors::Khaki
PUBLIC	?Lavender@Colors@DirectX@@3UXMVECTORF32@2@B	; DirectX::Colors::Lavender
PUBLIC	?LavenderBlush@Colors@DirectX@@3UXMVECTORF32@2@B ; DirectX::Colors::LavenderBlush
PUBLIC	?LawnGreen@Colors@DirectX@@3UXMVECTORF32@2@B	; DirectX::Colors::LawnGreen
PUBLIC	?LemonChiffon@Colors@DirectX@@3UXMVECTORF32@2@B	; DirectX::Colors::LemonChiffon
PUBLIC	?LightBlue@Colors@DirectX@@3UXMVECTORF32@2@B	; DirectX::Colors::LightBlue
PUBLIC	?LightCoral@Colors@DirectX@@3UXMVECTORF32@2@B	; DirectX::Colors::LightCoral
PUBLIC	?LightCyan@Colors@DirectX@@3UXMVECTORF32@2@B	; DirectX::Colors::LightCyan
PUBLIC	?LightGoldenrodYellow@Colors@DirectX@@3UXMVECTORF32@2@B ; DirectX::Colors::LightGoldenrodYellow
PUBLIC	?LightGreen@Colors@DirectX@@3UXMVECTORF32@2@B	; DirectX::Colors::LightGreen
PUBLIC	?LightGray@Colors@DirectX@@3UXMVECTORF32@2@B	; DirectX::Colors::LightGray
PUBLIC	?LightPink@Colors@DirectX@@3UXMVECTORF32@2@B	; DirectX::Colors::LightPink
PUBLIC	?LightSalmon@Colors@DirectX@@3UXMVECTORF32@2@B	; DirectX::Colors::LightSalmon
PUBLIC	?LightSeaGreen@Colors@DirectX@@3UXMVECTORF32@2@B ; DirectX::Colors::LightSeaGreen
PUBLIC	?LightSkyBlue@Colors@DirectX@@3UXMVECTORF32@2@B	; DirectX::Colors::LightSkyBlue
PUBLIC	?LightSlateGray@Colors@DirectX@@3UXMVECTORF32@2@B ; DirectX::Colors::LightSlateGray
PUBLIC	?LightSteelBlue@Colors@DirectX@@3UXMVECTORF32@2@B ; DirectX::Colors::LightSteelBlue
PUBLIC	?LightYellow@Colors@DirectX@@3UXMVECTORF32@2@B	; DirectX::Colors::LightYellow
PUBLIC	?Lime@Colors@DirectX@@3UXMVECTORF32@2@B		; DirectX::Colors::Lime
PUBLIC	?LimeGreen@Colors@DirectX@@3UXMVECTORF32@2@B	; DirectX::Colors::LimeGreen
PUBLIC	?Linen@Colors@DirectX@@3UXMVECTORF32@2@B	; DirectX::Colors::Linen
PUBLIC	?Magenta@Colors@DirectX@@3UXMVECTORF32@2@B	; DirectX::Colors::Magenta
PUBLIC	?Maroon@Colors@DirectX@@3UXMVECTORF32@2@B	; DirectX::Colors::Maroon
PUBLIC	?MediumAquamarine@Colors@DirectX@@3UXMVECTORF32@2@B ; DirectX::Colors::MediumAquamarine
PUBLIC	?MediumBlue@Colors@DirectX@@3UXMVECTORF32@2@B	; DirectX::Colors::MediumBlue
PUBLIC	?MediumOrchid@Colors@DirectX@@3UXMVECTORF32@2@B	; DirectX::Colors::MediumOrchid
PUBLIC	?MediumPurple@Colors@DirectX@@3UXMVECTORF32@2@B	; DirectX::Colors::MediumPurple
PUBLIC	?MediumSeaGreen@Colors@DirectX@@3UXMVECTORF32@2@B ; DirectX::Colors::MediumSeaGreen
PUBLIC	?MediumSlateBlue@Colors@DirectX@@3UXMVECTORF32@2@B ; DirectX::Colors::MediumSlateBlue
PUBLIC	?MediumSpringGreen@Colors@DirectX@@3UXMVECTORF32@2@B ; DirectX::Colors::MediumSpringGreen
PUBLIC	?MediumTurquoise@Colors@DirectX@@3UXMVECTORF32@2@B ; DirectX::Colors::MediumTurquoise
PUBLIC	?MediumVioletRed@Colors@DirectX@@3UXMVECTORF32@2@B ; DirectX::Colors::MediumVioletRed
PUBLIC	?MidnightBlue@Colors@DirectX@@3UXMVECTORF32@2@B	; DirectX::Colors::MidnightBlue
PUBLIC	?MintCream@Colors@DirectX@@3UXMVECTORF32@2@B	; DirectX::Colors::MintCream
PUBLIC	?MistyRose@Colors@DirectX@@3UXMVECTORF32@2@B	; DirectX::Colors::MistyRose
PUBLIC	?Moccasin@Colors@DirectX@@3UXMVECTORF32@2@B	; DirectX::Colors::Moccasin
PUBLIC	?NavajoWhite@Colors@DirectX@@3UXMVECTORF32@2@B	; DirectX::Colors::NavajoWhite
PUBLIC	?Navy@Colors@DirectX@@3UXMVECTORF32@2@B		; DirectX::Colors::Navy
PUBLIC	?OldLace@Colors@DirectX@@3UXMVECTORF32@2@B	; DirectX::Colors::OldLace
PUBLIC	?Olive@Colors@DirectX@@3UXMVECTORF32@2@B	; DirectX::Colors::Olive
PUBLIC	?OliveDrab@Colors@DirectX@@3UXMVECTORF32@2@B	; DirectX::Colors::OliveDrab
PUBLIC	?Orange@Colors@DirectX@@3UXMVECTORF32@2@B	; DirectX::Colors::Orange
PUBLIC	?OrangeRed@Colors@DirectX@@3UXMVECTORF32@2@B	; DirectX::Colors::OrangeRed
PUBLIC	?Orchid@Colors@DirectX@@3UXMVECTORF32@2@B	; DirectX::Colors::Orchid
PUBLIC	?PaleGoldenrod@Colors@DirectX@@3UXMVECTORF32@2@B ; DirectX::Colors::PaleGoldenrod
PUBLIC	?PaleGreen@Colors@DirectX@@3UXMVECTORF32@2@B	; DirectX::Colors::PaleGreen
PUBLIC	?PaleTurquoise@Colors@DirectX@@3UXMVECTORF32@2@B ; DirectX::Colors::PaleTurquoise
PUBLIC	?PaleVioletRed@Colors@DirectX@@3UXMVECTORF32@2@B ; DirectX::Colors::PaleVioletRed
PUBLIC	?PapayaWhip@Colors@DirectX@@3UXMVECTORF32@2@B	; DirectX::Colors::PapayaWhip
PUBLIC	?PeachPuff@Colors@DirectX@@3UXMVECTORF32@2@B	; DirectX::Colors::PeachPuff
PUBLIC	?Peru@Colors@DirectX@@3UXMVECTORF32@2@B		; DirectX::Colors::Peru
PUBLIC	?Pink@Colors@DirectX@@3UXMVECTORF32@2@B		; DirectX::Colors::Pink
PUBLIC	?Plum@Colors@DirectX@@3UXMVECTORF32@2@B		; DirectX::Colors::Plum
PUBLIC	?PowderBlue@Colors@DirectX@@3UXMVECTORF32@2@B	; DirectX::Colors::PowderBlue
PUBLIC	?Purple@Colors@DirectX@@3UXMVECTORF32@2@B	; DirectX::Colors::Purple
PUBLIC	?Red@Colors@DirectX@@3UXMVECTORF32@2@B		; DirectX::Colors::Red
PUBLIC	?RosyBrown@Colors@DirectX@@3UXMVECTORF32@2@B	; DirectX::Colors::RosyBrown
PUBLIC	?RoyalBlue@Colors@DirectX@@3UXMVECTORF32@2@B	; DirectX::Colors::RoyalBlue
PUBLIC	?SaddleBrown@Colors@DirectX@@3UXMVECTORF32@2@B	; DirectX::Colors::SaddleBrown
PUBLIC	?Salmon@Colors@DirectX@@3UXMVECTORF32@2@B	; DirectX::Colors::Salmon
PUBLIC	?SandyBrown@Colors@DirectX@@3UXMVECTORF32@2@B	; DirectX::Colors::SandyBrown
PUBLIC	?SeaGreen@Colors@DirectX@@3UXMVECTORF32@2@B	; DirectX::Colors::SeaGreen
PUBLIC	?SeaShell@Colors@DirectX@@3UXMVECTORF32@2@B	; DirectX::Colors::SeaShell
PUBLIC	?Sienna@Colors@DirectX@@3UXMVECTORF32@2@B	; DirectX::Colors::Sienna
PUBLIC	?g_BoxOffset@DirectX@@3QBUXMVECTORF32@1@B	; DirectX::g_BoxOffset
PUBLIC	?Silver@Colors@DirectX@@3UXMVECTORF32@2@B	; DirectX::Colors::Silver
PUBLIC	?g_RayEpsilon@DirectX@@3UXMVECTORF32@1@B	; DirectX::g_RayEpsilon
PUBLIC	?SkyBlue@Colors@DirectX@@3UXMVECTORF32@2@B	; DirectX::Colors::SkyBlue
PUBLIC	?g_RayNegEpsilon@DirectX@@3UXMVECTORF32@1@B	; DirectX::g_RayNegEpsilon
PUBLIC	?SlateBlue@Colors@DirectX@@3UXMVECTORF32@2@B	; DirectX::Colors::SlateBlue
PUBLIC	?g_FltMin@DirectX@@3UXMVECTORF32@1@B		; DirectX::g_FltMin
PUBLIC	?SlateGray@Colors@DirectX@@3UXMVECTORF32@2@B	; DirectX::Colors::SlateGray
PUBLIC	?g_FltMax@DirectX@@3UXMVECTORF32@1@B		; DirectX::g_FltMax
PUBLIC	?Snow@Colors@DirectX@@3UXMVECTORF32@2@B		; DirectX::Colors::Snow
PUBLIC	?SpringGreen@Colors@DirectX@@3UXMVECTORF32@2@B	; DirectX::Colors::SpringGreen
PUBLIC	?SteelBlue@Colors@DirectX@@3UXMVECTORF32@2@B	; DirectX::Colors::SteelBlue
PUBLIC	?Tan@Colors@DirectX@@3UXMVECTORF32@2@B		; DirectX::Colors::Tan
PUBLIC	?Teal@Colors@DirectX@@3UXMVECTORF32@2@B		; DirectX::Colors::Teal
PUBLIC	?Thistle@Colors@DirectX@@3UXMVECTORF32@2@B	; DirectX::Colors::Thistle
PUBLIC	?Tomato@Colors@DirectX@@3UXMVECTORF32@2@B	; DirectX::Colors::Tomato
PUBLIC	?Transparent@Colors@DirectX@@3UXMVECTORF32@2@B	; DirectX::Colors::Transparent
PUBLIC	?Turquoise@Colors@DirectX@@3UXMVECTORF32@2@B	; DirectX::Colors::Turquoise
PUBLIC	?Violet@Colors@DirectX@@3UXMVECTORF32@2@B	; DirectX::Colors::Violet
PUBLIC	?Wheat@Colors@DirectX@@3UXMVECTORF32@2@B	; DirectX::Colors::Wheat
PUBLIC	?White@Colors@DirectX@@3UXMVECTORF32@2@B	; DirectX::Colors::White
PUBLIC	?WhiteSmoke@Colors@DirectX@@3UXMVECTORF32@2@B	; DirectX::Colors::WhiteSmoke
PUBLIC	?Yellow@Colors@DirectX@@3UXMVECTORF32@2@B	; DirectX::Colors::Yellow
PUBLIC	?YellowGreen@Colors@DirectX@@3UXMVECTORF32@2@B	; DirectX::Colors::YellowGreen
PUBLIC	?g_UnitVectorEpsilon@Internal@DirectX@@3UXMVECTORF32@2@B ; DirectX::Internal::g_UnitVectorEpsilon
PUBLIC	?g_UnitQuaternionEpsilon@Internal@DirectX@@3UXMVECTORF32@2@B ; DirectX::Internal::g_UnitQuaternionEpsilon
PUBLIC	?g_UnitPlaneEpsilon@Internal@DirectX@@3UXMVECTORF32@2@B ; DirectX::Internal::g_UnitPlaneEpsilon
PUBLIC	?g_XMSinCoefficients0@DirectX@@3UXMVECTORF32@1@B ; DirectX::g_XMSinCoefficients0
PUBLIC	?g_XMSinCoefficients1@DirectX@@3UXMVECTORF32@1@B ; DirectX::g_XMSinCoefficients1
PUBLIC	?g_XMCosCoefficients0@DirectX@@3UXMVECTORF32@1@B ; DirectX::g_XMCosCoefficients0
PUBLIC	?g_XMCosCoefficients1@DirectX@@3UXMVECTORF32@1@B ; DirectX::g_XMCosCoefficients1
PUBLIC	?g_XMTanCoefficients0@DirectX@@3UXMVECTORF32@1@B ; DirectX::g_XMTanCoefficients0
PUBLIC	?g_XMTanCoefficients1@DirectX@@3UXMVECTORF32@1@B ; DirectX::g_XMTanCoefficients1
PUBLIC	?g_XMTanCoefficients2@DirectX@@3UXMVECTORF32@1@B ; DirectX::g_XMTanCoefficients2
PUBLIC	?g_XMArcCoefficients0@DirectX@@3UXMVECTORF32@1@B ; DirectX::g_XMArcCoefficients0
PUBLIC	?g_XMArcCoefficients1@DirectX@@3UXMVECTORF32@1@B ; DirectX::g_XMArcCoefficients1
PUBLIC	?g_XMATanCoefficients0@DirectX@@3UXMVECTORF32@1@B ; DirectX::g_XMATanCoefficients0
PUBLIC	?g_XMATanCoefficients1@DirectX@@3UXMVECTORF32@1@B ; DirectX::g_XMATanCoefficients1
PUBLIC	?g_XMATanEstCoefficients0@DirectX@@3UXMVECTORF32@1@B ; DirectX::g_XMATanEstCoefficients0
PUBLIC	?g_XMATanEstCoefficients1@DirectX@@3UXMVECTORF32@1@B ; DirectX::g_XMATanEstCoefficients1
PUBLIC	?g_XMTanEstCoefficients@DirectX@@3UXMVECTORF32@1@B ; DirectX::g_XMTanEstCoefficients
PUBLIC	?g_XMArcEstCoefficients@DirectX@@3UXMVECTORF32@1@B ; DirectX::g_XMArcEstCoefficients
PUBLIC	?g_XMPiConstants0@DirectX@@3UXMVECTORF32@1@B	; DirectX::g_XMPiConstants0
PUBLIC	?g_XMIdentityR0@DirectX@@3UXMVECTORF32@1@B	; DirectX::g_XMIdentityR0
PUBLIC	?g_XMIdentityR1@DirectX@@3UXMVECTORF32@1@B	; DirectX::g_XMIdentityR1
PUBLIC	?g_XMIdentityR2@DirectX@@3UXMVECTORF32@1@B	; DirectX::g_XMIdentityR2
PUBLIC	?g_XMIdentityR3@DirectX@@3UXMVECTORF32@1@B	; DirectX::g_XMIdentityR3
PUBLIC	?g_XMNegIdentityR0@DirectX@@3UXMVECTORF32@1@B	; DirectX::g_XMNegIdentityR0
PUBLIC	?g_XMNegIdentityR1@DirectX@@3UXMVECTORF32@1@B	; DirectX::g_XMNegIdentityR1
PUBLIC	?g_XMNegIdentityR2@DirectX@@3UXMVECTORF32@1@B	; DirectX::g_XMNegIdentityR2
PUBLIC	?g_XMNegIdentityR3@DirectX@@3UXMVECTORF32@1@B	; DirectX::g_XMNegIdentityR3
PUBLIC	?g_XMNegativeZero@DirectX@@3UXMVECTORU32@1@B	; DirectX::g_XMNegativeZero
PUBLIC	?g_XMNegate3@DirectX@@3UXMVECTORU32@1@B		; DirectX::g_XMNegate3
PUBLIC	?g_XMMask3@DirectX@@3UXMVECTORU32@1@B		; DirectX::g_XMMask3
PUBLIC	?g_XMMaskX@DirectX@@3UXMVECTORU32@1@B		; DirectX::g_XMMaskX
PUBLIC	?g_XMMaskY@DirectX@@3UXMVECTORU32@1@B		; DirectX::g_XMMaskY
PUBLIC	?g_XMMaskZ@DirectX@@3UXMVECTORU32@1@B		; DirectX::g_XMMaskZ
PUBLIC	?g_XMMaskW@DirectX@@3UXMVECTORU32@1@B		; DirectX::g_XMMaskW
PUBLIC	?g_XMOne@DirectX@@3UXMVECTORF32@1@B		; DirectX::g_XMOne
PUBLIC	?g_XMOne3@DirectX@@3UXMVECTORF32@1@B		; DirectX::g_XMOne3
PUBLIC	?g_XMZero@DirectX@@3UXMVECTORF32@1@B		; DirectX::g_XMZero
PUBLIC	?g_XMTwo@DirectX@@3UXMVECTORF32@1@B		; DirectX::g_XMTwo
PUBLIC	?g_XMFour@DirectX@@3UXMVECTORF32@1@B		; DirectX::g_XMFour
PUBLIC	?g_XMSix@DirectX@@3UXMVECTORF32@1@B		; DirectX::g_XMSix
PUBLIC	?g_XMNegativeOne@DirectX@@3UXMVECTORF32@1@B	; DirectX::g_XMNegativeOne
PUBLIC	?g_XMOneHalf@DirectX@@3UXMVECTORF32@1@B		; DirectX::g_XMOneHalf
PUBLIC	?g_XMNegativeOneHalf@DirectX@@3UXMVECTORF32@1@B	; DirectX::g_XMNegativeOneHalf
PUBLIC	?g_XMNegativeTwoPi@DirectX@@3UXMVECTORF32@1@B	; DirectX::g_XMNegativeTwoPi
PUBLIC	?g_XMNegativePi@DirectX@@3UXMVECTORF32@1@B	; DirectX::g_XMNegativePi
PUBLIC	?g_XMHalfPi@DirectX@@3UXMVECTORF32@1@B		; DirectX::g_XMHalfPi
PUBLIC	?g_XMPi@DirectX@@3UXMVECTORF32@1@B		; DirectX::g_XMPi
PUBLIC	?g_XMReciprocalPi@DirectX@@3UXMVECTORF32@1@B	; DirectX::g_XMReciprocalPi
PUBLIC	?g_XMTwoPi@DirectX@@3UXMVECTORF32@1@B		; DirectX::g_XMTwoPi
PUBLIC	?g_XMReciprocalTwoPi@DirectX@@3UXMVECTORF32@1@B	; DirectX::g_XMReciprocalTwoPi
PUBLIC	?g_XMEpsilon@DirectX@@3UXMVECTORF32@1@B		; DirectX::g_XMEpsilon
PUBLIC	?g_XMInfinity@DirectX@@3UXMVECTORI32@1@B	; DirectX::g_XMInfinity
PUBLIC	?g_XMQNaN@DirectX@@3UXMVECTORI32@1@B		; DirectX::g_XMQNaN
PUBLIC	?g_XMQNaNTest@DirectX@@3UXMVECTORI32@1@B	; DirectX::g_XMQNaNTest
PUBLIC	?g_XMAbsMask@DirectX@@3UXMVECTORI32@1@B		; DirectX::g_XMAbsMask
PUBLIC	?g_XMFltMin@DirectX@@3UXMVECTORI32@1@B		; DirectX::g_XMFltMin
PUBLIC	?g_XMFltMax@DirectX@@3UXMVECTORI32@1@B		; DirectX::g_XMFltMax
PUBLIC	?g_XMNegOneMask@DirectX@@3UXMVECTORU32@1@B	; DirectX::g_XMNegOneMask
PUBLIC	?g_XMMaskA8R8G8B8@DirectX@@3UXMVECTORU32@1@B	; DirectX::g_XMMaskA8R8G8B8
PUBLIC	?g_XMFlipA8R8G8B8@DirectX@@3UXMVECTORU32@1@B	; DirectX::g_XMFlipA8R8G8B8
PUBLIC	?g_XMFixAA8R8G8B8@DirectX@@3UXMVECTORF32@1@B	; DirectX::g_XMFixAA8R8G8B8
PUBLIC	?g_XMNormalizeA8R8G8B8@DirectX@@3UXMVECTORF32@1@B ; DirectX::g_XMNormalizeA8R8G8B8
PUBLIC	?g_XMMaskA2B10G10R10@DirectX@@3UXMVECTORU32@1@B	; DirectX::g_XMMaskA2B10G10R10
PUBLIC	?g_XMFlipA2B10G10R10@DirectX@@3UXMVECTORU32@1@B	; DirectX::g_XMFlipA2B10G10R10
PUBLIC	?g_XMFixAA2B10G10R10@DirectX@@3UXMVECTORF32@1@B	; DirectX::g_XMFixAA2B10G10R10
PUBLIC	?g_XMNormalizeA2B10G10R10@DirectX@@3UXMVECTORF32@1@B ; DirectX::g_XMNormalizeA2B10G10R10
PUBLIC	?g_XMMaskX16Y16@DirectX@@3UXMVECTORU32@1@B	; DirectX::g_XMMaskX16Y16
PUBLIC	?g_XMFlipX16Y16@DirectX@@3UXMVECTORI32@1@B	; DirectX::g_XMFlipX16Y16
PUBLIC	?g_XMFixX16Y16@DirectX@@3UXMVECTORF32@1@B	; DirectX::g_XMFixX16Y16
PUBLIC	?g_XMNormalizeX16Y16@DirectX@@3UXMVECTORF32@1@B	; DirectX::g_XMNormalizeX16Y16
PUBLIC	?g_XMMaskX16Y16Z16W16@DirectX@@3UXMVECTORU32@1@B ; DirectX::g_XMMaskX16Y16Z16W16
PUBLIC	?g_XMFlipX16Y16Z16W16@DirectX@@3UXMVECTORI32@1@B ; DirectX::g_XMFlipX16Y16Z16W16
PUBLIC	?g_XMFixX16Y16Z16W16@DirectX@@3UXMVECTORF32@1@B	; DirectX::g_XMFixX16Y16Z16W16
PUBLIC	?g_XMNormalizeX16Y16Z16W16@DirectX@@3UXMVECTORF32@1@B ; DirectX::g_XMNormalizeX16Y16Z16W16
PUBLIC	?g_XMNoFraction@DirectX@@3UXMVECTORF32@1@B	; DirectX::g_XMNoFraction
PUBLIC	?g_XMMaskByte@DirectX@@3UXMVECTORI32@1@B	; DirectX::g_XMMaskByte
PUBLIC	?g_XMNegateX@DirectX@@3UXMVECTORF32@1@B		; DirectX::g_XMNegateX
PUBLIC	?g_XMNegateY@DirectX@@3UXMVECTORF32@1@B		; DirectX::g_XMNegateY
PUBLIC	?g_XMNegateZ@DirectX@@3UXMVECTORF32@1@B		; DirectX::g_XMNegateZ
PUBLIC	?g_XMNegateW@DirectX@@3UXMVECTORF32@1@B		; DirectX::g_XMNegateW
PUBLIC	?g_XMSelect0101@DirectX@@3UXMVECTORU32@1@B	; DirectX::g_XMSelect0101
PUBLIC	?g_XMSelect1010@DirectX@@3UXMVECTORU32@1@B	; DirectX::g_XMSelect1010
PUBLIC	?g_XMOneHalfMinusEpsilon@DirectX@@3UXMVECTORI32@1@B ; DirectX::g_XMOneHalfMinusEpsilon
PUBLIC	?g_XMSelect1000@DirectX@@3UXMVECTORU32@1@B	; DirectX::g_XMSelect1000
PUBLIC	?g_XMSelect1100@DirectX@@3UXMVECTORU32@1@B	; DirectX::g_XMSelect1100
PUBLIC	?g_XMSelect1110@DirectX@@3UXMVECTORU32@1@B	; DirectX::g_XMSelect1110
PUBLIC	?g_XMSelect1011@DirectX@@3UXMVECTORU32@1@B	; DirectX::g_XMSelect1011
PUBLIC	?g_XMFixupY16@DirectX@@3UXMVECTORF32@1@B	; DirectX::g_XMFixupY16
PUBLIC	?g_XMFixupY16W16@DirectX@@3UXMVECTORF32@1@B	; DirectX::g_XMFixupY16W16
PUBLIC	?g_XMFlipY@DirectX@@3UXMVECTORU32@1@B		; DirectX::g_XMFlipY
PUBLIC	?g_XMFlipZ@DirectX@@3UXMVECTORU32@1@B		; DirectX::g_XMFlipZ
PUBLIC	?g_XMFlipW@DirectX@@3UXMVECTORU32@1@B		; DirectX::g_XMFlipW
PUBLIC	?g_XMFlipYZ@DirectX@@3UXMVECTORU32@1@B		; DirectX::g_XMFlipYZ
PUBLIC	?g_XMFlipZW@DirectX@@3UXMVECTORU32@1@B		; DirectX::g_XMFlipZW
PUBLIC	?g_XMFlipYW@DirectX@@3UXMVECTORU32@1@B		; DirectX::g_XMFlipYW
PUBLIC	?g_XMMaskDec4@DirectX@@3UXMVECTORI32@1@B	; DirectX::g_XMMaskDec4
PUBLIC	?g_XMXorDec4@DirectX@@3UXMVECTORI32@1@B		; DirectX::g_XMXorDec4
PUBLIC	?g_XMAddUDec4@DirectX@@3UXMVECTORF32@1@B	; DirectX::g_XMAddUDec4
PUBLIC	?g_XMAddDec4@DirectX@@3UXMVECTORF32@1@B		; DirectX::g_XMAddDec4
PUBLIC	?g_XMMulDec4@DirectX@@3UXMVECTORF32@1@B		; DirectX::g_XMMulDec4
PUBLIC	?g_XMMaskByte4@DirectX@@3UXMVECTORU32@1@B	; DirectX::g_XMMaskByte4
PUBLIC	?g_XMXorByte4@DirectX@@3UXMVECTORI32@1@B	; DirectX::g_XMXorByte4
PUBLIC	?g_XMAddByte4@DirectX@@3UXMVECTORF32@1@B	; DirectX::g_XMAddByte4
PUBLIC	?g_XMFixUnsigned@DirectX@@3UXMVECTORF32@1@B	; DirectX::g_XMFixUnsigned
PUBLIC	?g_XMMaxInt@DirectX@@3UXMVECTORF32@1@B		; DirectX::g_XMMaxInt
PUBLIC	?g_XMMaxUInt@DirectX@@3UXMVECTORF32@1@B		; DirectX::g_XMMaxUInt
PUBLIC	?g_XMUnsignedFix@DirectX@@3UXMVECTORF32@1@B	; DirectX::g_XMUnsignedFix
PUBLIC	?g_XMsrgbScale@DirectX@@3UXMVECTORF32@1@B	; DirectX::g_XMsrgbScale
PUBLIC	?g_XMsrgbA@DirectX@@3UXMVECTORF32@1@B		; DirectX::g_XMsrgbA
PUBLIC	?g_XMsrgbA1@DirectX@@3UXMVECTORF32@1@B		; DirectX::g_XMsrgbA1
PUBLIC	?g_XMExponentBias@DirectX@@3UXMVECTORI32@1@B	; DirectX::g_XMExponentBias
PUBLIC	?g_XMSubnormalExponent@DirectX@@3UXMVECTORI32@1@B ; DirectX::g_XMSubnormalExponent
PUBLIC	?g_XMNumTrailing@DirectX@@3UXMVECTORI32@1@B	; DirectX::g_XMNumTrailing
PUBLIC	?g_XMMinNormal@DirectX@@3UXMVECTORI32@1@B	; DirectX::g_XMMinNormal
PUBLIC	?g_XMNegInfinity@DirectX@@3UXMVECTORU32@1@B	; DirectX::g_XMNegInfinity
PUBLIC	?g_XMNegQNaN@DirectX@@3UXMVECTORU32@1@B		; DirectX::g_XMNegQNaN
PUBLIC	?g_XMBin128@DirectX@@3UXMVECTORI32@1@B		; DirectX::g_XMBin128
PUBLIC	?g_XMBinNeg150@DirectX@@3UXMVECTORU32@1@B	; DirectX::g_XMBinNeg150
PUBLIC	?g_XM253@DirectX@@3UXMVECTORI32@1@B		; DirectX::g_XM253
PUBLIC	?g_XMExpEst1@DirectX@@3UXMVECTORF32@1@B		; DirectX::g_XMExpEst1
PUBLIC	?g_XMExpEst2@DirectX@@3UXMVECTORF32@1@B		; DirectX::g_XMExpEst2
PUBLIC	?g_XMExpEst3@DirectX@@3UXMVECTORF32@1@B		; DirectX::g_XMExpEst3
PUBLIC	?g_XMExpEst4@DirectX@@3UXMVECTORF32@1@B		; DirectX::g_XMExpEst4
PUBLIC	?g_XMExpEst5@DirectX@@3UXMVECTORF32@1@B		; DirectX::g_XMExpEst5
PUBLIC	?g_XMExpEst6@DirectX@@3UXMVECTORF32@1@B		; DirectX::g_XMExpEst6
PUBLIC	?g_XMExpEst7@DirectX@@3UXMVECTORF32@1@B		; DirectX::g_XMExpEst7
PUBLIC	?g_XMLogEst0@DirectX@@3UXMVECTORF32@1@B		; DirectX::g_XMLogEst0
PUBLIC	?g_XMLogEst1@DirectX@@3UXMVECTORF32@1@B		; DirectX::g_XMLogEst1
PUBLIC	?g_XMLogEst2@DirectX@@3UXMVECTORF32@1@B		; DirectX::g_XMLogEst2
PUBLIC	?g_XMLogEst3@DirectX@@3UXMVECTORF32@1@B		; DirectX::g_XMLogEst3
PUBLIC	?g_XMLogEst4@DirectX@@3UXMVECTORF32@1@B		; DirectX::g_XMLogEst4
PUBLIC	?g_XMLogEst5@DirectX@@3UXMVECTORF32@1@B		; DirectX::g_XMLogEst5
PUBLIC	?g_XMLogEst6@DirectX@@3UXMVECTORF32@1@B		; DirectX::g_XMLogEst6
PUBLIC	?g_XMLogEst7@DirectX@@3UXMVECTORF32@1@B		; DirectX::g_XMLogEst7
PUBLIC	?g_XMLgE@DirectX@@3UXMVECTORF32@1@B		; DirectX::g_XMLgE
PUBLIC	?g_XMInvLgE@DirectX@@3UXMVECTORF32@1@B		; DirectX::g_XMInvLgE
;	COMDAT ?g_XMInvLgE@DirectX@@3UXMVECTORF32@1@B
CONST	SEGMENT
?g_XMInvLgE@DirectX@@3UXMVECTORF32@1@B DD 03f317218r ; 0.693147 ; DirectX::g_XMInvLgE
	DD	03f317218r			; 0.693147
	DD	03f317218r			; 0.693147
	DD	03f317218r			; 0.693147
CONST	ENDS
;	COMDAT ?g_XMLgE@DirectX@@3UXMVECTORF32@1@B
CONST	SEGMENT
?g_XMLgE@DirectX@@3UXMVECTORF32@1@B DD 03fb8aa3br ; 1.4427 ; DirectX::g_XMLgE
	DD	03fb8aa3br			; 1.4427
	DD	03fb8aa3br			; 1.4427
	DD	03fb8aa3br			; 1.4427
CONST	ENDS
;	COMDAT ?g_XMLogEst7@DirectX@@3UXMVECTORF32@1@B
CONST	SEGMENT
?g_XMLogEst7@DirectX@@3UXMVECTORF32@1@B DD 0bc2d4f59r ; -0.010578 ; DirectX::g_XMLogEst7
	DD	0bc2d4f59r			; -0.010578
	DD	0bc2d4f59r			; -0.010578
	DD	0bc2d4f59r			; -0.010578
CONST	ENDS
;	COMDAT ?g_XMLogEst6@DirectX@@3UXMVECTORF32@1@B
CONST	SEGMENT
?g_XMLogEst6@DirectX@@3UXMVECTORF32@1@B DD 03d6a1405r ; 0.057148 ; DirectX::g_XMLogEst6
	DD	03d6a1405r			; 0.057148
	DD	03d6a1405r			; 0.057148
	DD	03d6a1405r			; 0.057148
CONST	ENDS
;	COMDAT ?g_XMLogEst5@DirectX@@3UXMVECTORF32@1@B
CONST	SEGMENT
?g_XMLogEst5@DirectX@@3UXMVECTORF32@1@B DD 0be153261r ; -0.1457 ; DirectX::g_XMLogEst5
	DD	0be153261r			; -0.1457
	DD	0be153261r			; -0.1457
	DD	0be153261r			; -0.1457
CONST	ENDS
;	COMDAT ?g_XMLogEst4@DirectX@@3UXMVECTORF32@1@B
CONST	SEGMENT
?g_XMLogEst4@DirectX@@3UXMVECTORF32@1@B DD 03e7e8e61r ; 0.24859 ; DirectX::g_XMLogEst4
	DD	03e7e8e61r			; 0.24859
	DD	03e7e8e61r			; 0.24859
	DD	03e7e8e61r			; 0.24859
CONST	ENDS
;	COMDAT ?g_XMLogEst3@DirectX@@3UXMVECTORF32@1@B
CONST	SEGMENT
?g_XMLogEst3@DirectX@@3UXMVECTORF32@1@B DD 0beb359der ; -0.350295 ; DirectX::g_XMLogEst3
	DD	0beb359der			; -0.350295
	DD	0beb359der			; -0.350295
	DD	0beb359der			; -0.350295
CONST	ENDS
;	COMDAT ?g_XMLogEst2@DirectX@@3UXMVECTORF32@1@B
CONST	SEGMENT
?g_XMLogEst2@DirectX@@3UXMVECTORF32@1@B DD 03ef571d2r ; 0.479384 ; DirectX::g_XMLogEst2
	DD	03ef571d2r			; 0.479384
	DD	03ef571d2r			; 0.479384
	DD	03ef571d2r			; 0.479384
CONST	ENDS
;	COMDAT ?g_XMLogEst1@DirectX@@3UXMVECTORF32@1@B
CONST	SEGMENT
?g_XMLogEst1@DirectX@@3UXMVECTORF32@1@B DD 0bf38a351r ; -0.721242 ; DirectX::g_XMLogEst1
	DD	0bf38a351r			; -0.721242
	DD	0bf38a351r			; -0.721242
	DD	0bf38a351r			; -0.721242
CONST	ENDS
;	COMDAT ?g_XMLogEst0@DirectX@@3UXMVECTORF32@1@B
CONST	SEGMENT
?g_XMLogEst0@DirectX@@3UXMVECTORF32@1@B DD 03fb8aa2ar ; 1.44269 ; DirectX::g_XMLogEst0
	DD	03fb8aa2ar			; 1.44269
	DD	03fb8aa2ar			; 1.44269
	DD	03fb8aa2ar			; 1.44269
CONST	ENDS
;	COMDAT ?g_XMExpEst7@DirectX@@3UXMVECTORF32@1@B
CONST	SEGMENT
?g_XMExpEst7@DirectX@@3UXMVECTORF32@1@B DD 0b7364261r ; -1.08635e-05 ; DirectX::g_XMExpEst7
	DD	0b7364261r			; -1.08635e-05
	DD	0b7364261r			; -1.08635e-05
	DD	0b7364261r			; -1.08635e-05
CONST	ENDS
;	COMDAT ?g_XMExpEst6@DirectX@@3UXMVECTORF32@1@B
CONST	SEGMENT
?g_XMExpEst6@DirectX@@3UXMVECTORF32@1@B DD 0391aa7d7r ; 0.000147491 ; DirectX::g_XMExpEst6
	DD	0391aa7d7r			; 0.000147491
	DD	0391aa7d7r			; 0.000147491
	DD	0391aa7d7r			; 0.000147491
CONST	ENDS
;	COMDAT ?g_XMExpEst5@DirectX@@3UXMVECTORF32@1@B
CONST	SEGMENT
?g_XMExpEst5@DirectX@@3UXMVECTORF32@1@B DD 0baae1854r ; -0.00132824 ; DirectX::g_XMExpEst5
	DD	0baae1854r			; -0.00132824
	DD	0baae1854r			; -0.00132824
	DD	0baae1854r			; -0.00132824
CONST	ENDS
;	COMDAT ?g_XMExpEst4@DirectX@@3UXMVECTORF32@1@B
CONST	SEGMENT
?g_XMExpEst4@DirectX@@3UXMVECTORF32@1@B DD 03c1d8c54r ; 0.00961598 ; DirectX::g_XMExpEst4
	DD	03c1d8c54r			; 0.00961598
	DD	03c1d8c54r			; 0.00961598
	DD	03c1d8c54r			; 0.00961598
CONST	ENDS
;	COMDAT ?g_XMExpEst3@DirectX@@3UXMVECTORF32@1@B
CONST	SEGMENT
?g_XMExpEst3@DirectX@@3UXMVECTORF32@1@B DD 0bd6357car ; -0.0555036 ; DirectX::g_XMExpEst3
	DD	0bd6357car			; -0.0555036
	DD	0bd6357car			; -0.0555036
	DD	0bd6357car			; -0.0555036
CONST	ENDS
;	COMDAT ?g_XMExpEst2@DirectX@@3UXMVECTORF32@1@B
CONST	SEGMENT
?g_XMExpEst2@DirectX@@3UXMVECTORF32@1@B DD 03e75fdedr ; 0.240226 ; DirectX::g_XMExpEst2
	DD	03e75fdedr			; 0.240226
	DD	03e75fdedr			; 0.240226
	DD	03e75fdedr			; 0.240226
CONST	ENDS
;	COMDAT ?g_XMExpEst1@DirectX@@3UXMVECTORF32@1@B
CONST	SEGMENT
?g_XMExpEst1@DirectX@@3UXMVECTORF32@1@B DD 0bf317218r ; -0.693147 ; DirectX::g_XMExpEst1
	DD	0bf317218r			; -0.693147
	DD	0bf317218r			; -0.693147
	DD	0bf317218r			; -0.693147
CONST	ENDS
;	COMDAT ?g_XM253@DirectX@@3UXMVECTORI32@1@B
CONST	SEGMENT
?g_XM253@DirectX@@3UXMVECTORI32@1@B DD 0fdH		; DirectX::g_XM253
	DD	0fdH
	DD	0fdH
	DD	0fdH
CONST	ENDS
;	COMDAT ?g_XMBinNeg150@DirectX@@3UXMVECTORU32@1@B
CONST	SEGMENT
?g_XMBinNeg150@DirectX@@3UXMVECTORU32@1@B DD 0c3160000H	; DirectX::g_XMBinNeg150
	DD	0c3160000H
	DD	0c3160000H
	DD	0c3160000H
CONST	ENDS
;	COMDAT ?g_XMBin128@DirectX@@3UXMVECTORI32@1@B
CONST	SEGMENT
?g_XMBin128@DirectX@@3UXMVECTORI32@1@B DD 043000000H	; DirectX::g_XMBin128
	DD	043000000H
	DD	043000000H
	DD	043000000H
CONST	ENDS
;	COMDAT ?g_XMNegQNaN@DirectX@@3UXMVECTORU32@1@B
CONST	SEGMENT
?g_XMNegQNaN@DirectX@@3UXMVECTORU32@1@B DD 0ffc00000H	; DirectX::g_XMNegQNaN
	DD	0ffc00000H
	DD	0ffc00000H
	DD	0ffc00000H
CONST	ENDS
;	COMDAT ?g_XMNegInfinity@DirectX@@3UXMVECTORU32@1@B
CONST	SEGMENT
?g_XMNegInfinity@DirectX@@3UXMVECTORU32@1@B DD 0ff800000H ; DirectX::g_XMNegInfinity
	DD	0ff800000H
	DD	0ff800000H
	DD	0ff800000H
CONST	ENDS
;	COMDAT ?g_XMMinNormal@DirectX@@3UXMVECTORI32@1@B
CONST	SEGMENT
?g_XMMinNormal@DirectX@@3UXMVECTORI32@1@B DD 0800000H	; DirectX::g_XMMinNormal
	DD	0800000H
	DD	0800000H
	DD	0800000H
CONST	ENDS
;	COMDAT ?g_XMNumTrailing@DirectX@@3UXMVECTORI32@1@B
CONST	SEGMENT
?g_XMNumTrailing@DirectX@@3UXMVECTORI32@1@B DD 017H	; DirectX::g_XMNumTrailing
	DD	017H
	DD	017H
	DD	017H
CONST	ENDS
;	COMDAT ?g_XMSubnormalExponent@DirectX@@3UXMVECTORI32@1@B
CONST	SEGMENT
?g_XMSubnormalExponent@DirectX@@3UXMVECTORI32@1@B DD 0ffffff82H ; DirectX::g_XMSubnormalExponent
	DD	0ffffff82H
	DD	0ffffff82H
	DD	0ffffff82H
CONST	ENDS
;	COMDAT ?g_XMExponentBias@DirectX@@3UXMVECTORI32@1@B
CONST	SEGMENT
?g_XMExponentBias@DirectX@@3UXMVECTORI32@1@B DD 07fH	; DirectX::g_XMExponentBias
	DD	07fH
	DD	07fH
	DD	07fH
CONST	ENDS
;	COMDAT ?g_XMsrgbA1@DirectX@@3UXMVECTORF32@1@B
CONST	SEGMENT
?g_XMsrgbA1@DirectX@@3UXMVECTORF32@1@B DD 03f870a3dr ; 1.055 ; DirectX::g_XMsrgbA1
	DD	03f870a3dr			; 1.055
	DD	03f870a3dr			; 1.055
	DD	03f800000r			; 1
CONST	ENDS
;	COMDAT ?g_XMsrgbA@DirectX@@3UXMVECTORF32@1@B
CONST	SEGMENT
?g_XMsrgbA@DirectX@@3UXMVECTORF32@1@B DD 03d6147aer ; 0.055 ; DirectX::g_XMsrgbA
	DD	03d6147aer			; 0.055
	DD	03d6147aer			; 0.055
	DD	000000000r			; 0
CONST	ENDS
;	COMDAT ?g_XMsrgbScale@DirectX@@3UXMVECTORF32@1@B
CONST	SEGMENT
?g_XMsrgbScale@DirectX@@3UXMVECTORF32@1@B DD 0414eb852r ; 12.92 ; DirectX::g_XMsrgbScale
	DD	0414eb852r			; 12.92
	DD	0414eb852r			; 12.92
	DD	03f800000r			; 1
CONST	ENDS
;	COMDAT ?g_XMUnsignedFix@DirectX@@3UXMVECTORF32@1@B
CONST	SEGMENT
?g_XMUnsignedFix@DirectX@@3UXMVECTORF32@1@B DD 04f000000r ; 2.14748e+09 ; DirectX::g_XMUnsignedFix
	DD	04f000000r			; 2.14748e+09
	DD	04f000000r			; 2.14748e+09
	DD	04f000000r			; 2.14748e+09
CONST	ENDS
;	COMDAT ?g_XMMaxUInt@DirectX@@3UXMVECTORF32@1@B
CONST	SEGMENT
?g_XMMaxUInt@DirectX@@3UXMVECTORF32@1@B DD 04f7fffffr ; 4.29497e+09 ; DirectX::g_XMMaxUInt
	DD	04f7fffffr			; 4.29497e+09
	DD	04f7fffffr			; 4.29497e+09
	DD	04f7fffffr			; 4.29497e+09
CONST	ENDS
;	COMDAT ?g_XMMaxInt@DirectX@@3UXMVECTORF32@1@B
CONST	SEGMENT
?g_XMMaxInt@DirectX@@3UXMVECTORF32@1@B DD 04effffffr ; 2.14748e+09 ; DirectX::g_XMMaxInt
	DD	04effffffr			; 2.14748e+09
	DD	04effffffr			; 2.14748e+09
	DD	04effffffr			; 2.14748e+09
CONST	ENDS
;	COMDAT ?g_XMFixUnsigned@DirectX@@3UXMVECTORF32@1@B
CONST	SEGMENT
?g_XMFixUnsigned@DirectX@@3UXMVECTORF32@1@B DD 04f000000r ; 2.14748e+09 ; DirectX::g_XMFixUnsigned
	DD	04f000000r			; 2.14748e+09
	DD	04f000000r			; 2.14748e+09
	DD	04f000000r			; 2.14748e+09
CONST	ENDS
;	COMDAT ?g_XMAddByte4@DirectX@@3UXMVECTORF32@1@B
CONST	SEGMENT
?g_XMAddByte4@DirectX@@3UXMVECTORF32@1@B DD 0c3000000r ; -128 ; DirectX::g_XMAddByte4
	DD	0c7000000r			; -32768
	DD	0cb000000r			; -8.38861e+06
	DD	000000000r			; 0
CONST	ENDS
;	COMDAT ?g_XMXorByte4@DirectX@@3UXMVECTORI32@1@B
CONST	SEGMENT
?g_XMXorByte4@DirectX@@3UXMVECTORI32@1@B DD 080H	; DirectX::g_XMXorByte4
	DD	08000H
	DD	0800000H
	DD	00H
CONST	ENDS
;	COMDAT ?g_XMMaskByte4@DirectX@@3UXMVECTORU32@1@B
CONST	SEGMENT
?g_XMMaskByte4@DirectX@@3UXMVECTORU32@1@B DD 0ffH	; DirectX::g_XMMaskByte4
	DD	0ff00H
	DD	0ff0000H
	DD	0ff000000H
CONST	ENDS
;	COMDAT ?g_XMMulDec4@DirectX@@3UXMVECTORF32@1@B
CONST	SEGMENT
?g_XMMulDec4@DirectX@@3UXMVECTORF32@1@B DD 03f800000r ; 1 ; DirectX::g_XMMulDec4
	DD	03a800000r			; 0.000976563
	DD	035800000r			; 9.53674e-07
	DD	030800000r			; 9.31323e-10
CONST	ENDS
;	COMDAT ?g_XMAddDec4@DirectX@@3UXMVECTORF32@1@B
CONST	SEGMENT
?g_XMAddDec4@DirectX@@3UXMVECTORF32@1@B DD 0c4000000r ; -512 ; DirectX::g_XMAddDec4
	DD	0c9000000r			; -524288
	DD	0ce000000r			; -5.36871e+08
	DD	000000000r			; 0
CONST	ENDS
;	COMDAT ?g_XMAddUDec4@DirectX@@3UXMVECTORF32@1@B
CONST	SEGMENT
?g_XMAddUDec4@DirectX@@3UXMVECTORF32@1@B DD 000000000r ; 0 ; DirectX::g_XMAddUDec4
	DD	000000000r			; 0
	DD	000000000r			; 0
	DD	04f000000r			; 2.14748e+09
CONST	ENDS
;	COMDAT ?g_XMXorDec4@DirectX@@3UXMVECTORI32@1@B
CONST	SEGMENT
?g_XMXorDec4@DirectX@@3UXMVECTORI32@1@B DD 0200H	; DirectX::g_XMXorDec4
	DD	080000H
	DD	020000000H
	DD	00H
CONST	ENDS
;	COMDAT ?g_XMMaskDec4@DirectX@@3UXMVECTORI32@1@B
CONST	SEGMENT
?g_XMMaskDec4@DirectX@@3UXMVECTORI32@1@B DD 03ffH	; DirectX::g_XMMaskDec4
	DD	0ffc00H
	DD	03ff00000H
	DD	0c0000000H
CONST	ENDS
;	COMDAT ?g_XMFlipYW@DirectX@@3UXMVECTORU32@1@B
CONST	SEGMENT
?g_XMFlipYW@DirectX@@3UXMVECTORU32@1@B DD 00H		; DirectX::g_XMFlipYW
	DD	080000000H
	DD	00H
	DD	080000000H
CONST	ENDS
;	COMDAT ?g_XMFlipZW@DirectX@@3UXMVECTORU32@1@B
CONST	SEGMENT
?g_XMFlipZW@DirectX@@3UXMVECTORU32@1@B DD 00H		; DirectX::g_XMFlipZW
	DD	00H
	DD	080000000H
	DD	080000000H
CONST	ENDS
;	COMDAT ?g_XMFlipYZ@DirectX@@3UXMVECTORU32@1@B
CONST	SEGMENT
?g_XMFlipYZ@DirectX@@3UXMVECTORU32@1@B DD 00H		; DirectX::g_XMFlipYZ
	DD	080000000H
	DD	080000000H
	DD	00H
CONST	ENDS
;	COMDAT ?g_XMFlipW@DirectX@@3UXMVECTORU32@1@B
CONST	SEGMENT
?g_XMFlipW@DirectX@@3UXMVECTORU32@1@B DD 00H		; DirectX::g_XMFlipW
	DD	00H
	DD	00H
	DD	080000000H
CONST	ENDS
;	COMDAT ?g_XMFlipZ@DirectX@@3UXMVECTORU32@1@B
CONST	SEGMENT
?g_XMFlipZ@DirectX@@3UXMVECTORU32@1@B DD 00H		; DirectX::g_XMFlipZ
	DD	00H
	DD	080000000H
	DD	00H
CONST	ENDS
;	COMDAT ?g_XMFlipY@DirectX@@3UXMVECTORU32@1@B
CONST	SEGMENT
?g_XMFlipY@DirectX@@3UXMVECTORU32@1@B DD 00H		; DirectX::g_XMFlipY
	DD	080000000H
	DD	00H
	DD	00H
CONST	ENDS
;	COMDAT ?g_XMFixupY16W16@DirectX@@3UXMVECTORF32@1@B
CONST	SEGMENT
?g_XMFixupY16W16@DirectX@@3UXMVECTORF32@1@B DD 03f800000r ; 1 ; DirectX::g_XMFixupY16W16
	DD	03f800000r			; 1
	DD	037800000r			; 1.52588e-05
	DD	037800000r			; 1.52588e-05
CONST	ENDS
;	COMDAT ?g_XMFixupY16@DirectX@@3UXMVECTORF32@1@B
CONST	SEGMENT
?g_XMFixupY16@DirectX@@3UXMVECTORF32@1@B DD 03f800000r ; 1 ; DirectX::g_XMFixupY16
	DD	037800000r			; 1.52588e-05
	DD	000000000r			; 0
	DD	000000000r			; 0
CONST	ENDS
;	COMDAT ?g_XMSelect1011@DirectX@@3UXMVECTORU32@1@B
CONST	SEGMENT
?g_XMSelect1011@DirectX@@3UXMVECTORU32@1@B DD 0ffffffffH ; DirectX::g_XMSelect1011
	DD	00H
	DD	0ffffffffH
	DD	0ffffffffH
CONST	ENDS
;	COMDAT ?g_XMSelect1110@DirectX@@3UXMVECTORU32@1@B
CONST	SEGMENT
?g_XMSelect1110@DirectX@@3UXMVECTORU32@1@B DD 0ffffffffH ; DirectX::g_XMSelect1110
	DD	0ffffffffH
	DD	0ffffffffH
	DD	00H
CONST	ENDS
;	COMDAT ?g_XMSelect1100@DirectX@@3UXMVECTORU32@1@B
CONST	SEGMENT
?g_XMSelect1100@DirectX@@3UXMVECTORU32@1@B DD 0ffffffffH ; DirectX::g_XMSelect1100
	DD	0ffffffffH
	DD	00H
	DD	00H
CONST	ENDS
;	COMDAT ?g_XMSelect1000@DirectX@@3UXMVECTORU32@1@B
CONST	SEGMENT
?g_XMSelect1000@DirectX@@3UXMVECTORU32@1@B DD 0ffffffffH ; DirectX::g_XMSelect1000
	DD	00H
	DD	00H
	DD	00H
CONST	ENDS
;	COMDAT ?g_XMOneHalfMinusEpsilon@DirectX@@3UXMVECTORI32@1@B
CONST	SEGMENT
?g_XMOneHalfMinusEpsilon@DirectX@@3UXMVECTORI32@1@B DD 03efffffdH ; DirectX::g_XMOneHalfMinusEpsilon
	DD	03efffffdH
	DD	03efffffdH
	DD	03efffffdH
CONST	ENDS
;	COMDAT ?g_XMSelect1010@DirectX@@3UXMVECTORU32@1@B
CONST	SEGMENT
?g_XMSelect1010@DirectX@@3UXMVECTORU32@1@B DD 0ffffffffH ; DirectX::g_XMSelect1010
	DD	00H
	DD	0ffffffffH
	DD	00H
CONST	ENDS
;	COMDAT ?g_XMSelect0101@DirectX@@3UXMVECTORU32@1@B
CONST	SEGMENT
?g_XMSelect0101@DirectX@@3UXMVECTORU32@1@B DD 00H	; DirectX::g_XMSelect0101
	DD	0ffffffffH
	DD	00H
	DD	0ffffffffH
CONST	ENDS
;	COMDAT ?g_XMNegateW@DirectX@@3UXMVECTORF32@1@B
CONST	SEGMENT
?g_XMNegateW@DirectX@@3UXMVECTORF32@1@B DD 03f800000r ; 1 ; DirectX::g_XMNegateW
	DD	03f800000r			; 1
	DD	03f800000r			; 1
	DD	0bf800000r			; -1
CONST	ENDS
;	COMDAT ?g_XMNegateZ@DirectX@@3UXMVECTORF32@1@B
CONST	SEGMENT
?g_XMNegateZ@DirectX@@3UXMVECTORF32@1@B DD 03f800000r ; 1 ; DirectX::g_XMNegateZ
	DD	03f800000r			; 1
	DD	0bf800000r			; -1
	DD	03f800000r			; 1
CONST	ENDS
;	COMDAT ?g_XMNegateY@DirectX@@3UXMVECTORF32@1@B
CONST	SEGMENT
?g_XMNegateY@DirectX@@3UXMVECTORF32@1@B DD 03f800000r ; 1 ; DirectX::g_XMNegateY
	DD	0bf800000r			; -1
	DD	03f800000r			; 1
	DD	03f800000r			; 1
CONST	ENDS
;	COMDAT ?g_XMNegateX@DirectX@@3UXMVECTORF32@1@B
CONST	SEGMENT
?g_XMNegateX@DirectX@@3UXMVECTORF32@1@B DD 0bf800000r ; -1 ; DirectX::g_XMNegateX
	DD	03f800000r			; 1
	DD	03f800000r			; 1
	DD	03f800000r			; 1
CONST	ENDS
;	COMDAT ?g_XMMaskByte@DirectX@@3UXMVECTORI32@1@B
CONST	SEGMENT
?g_XMMaskByte@DirectX@@3UXMVECTORI32@1@B DD 0ffH	; DirectX::g_XMMaskByte
	DD	0ffH
	DD	0ffH
	DD	0ffH
CONST	ENDS
;	COMDAT ?g_XMNoFraction@DirectX@@3UXMVECTORF32@1@B
CONST	SEGMENT
?g_XMNoFraction@DirectX@@3UXMVECTORF32@1@B DD 04b000000r ; 8.38861e+06 ; DirectX::g_XMNoFraction
	DD	04b000000r			; 8.38861e+06
	DD	04b000000r			; 8.38861e+06
	DD	04b000000r			; 8.38861e+06
CONST	ENDS
;	COMDAT ?g_XMNormalizeX16Y16Z16W16@DirectX@@3UXMVECTORF32@1@B
CONST	SEGMENT
?g_XMNormalizeX16Y16Z16W16@DirectX@@3UXMVECTORF32@1@B DD 038000100r ; 3.05185e-05 ; DirectX::g_XMNormalizeX16Y16Z16W16
	DD	038000100r			; 3.05185e-05
	DD	030000100r			; 4.65675e-10
	DD	030000100r			; 4.65675e-10
CONST	ENDS
;	COMDAT ?g_XMFixX16Y16Z16W16@DirectX@@3UXMVECTORF32@1@B
CONST	SEGMENT
?g_XMFixX16Y16Z16W16@DirectX@@3UXMVECTORF32@1@B DD 0c7000000r ; -32768 ; DirectX::g_XMFixX16Y16Z16W16
	DD	0c7000000r			; -32768
	DD	000000000r			; 0
	DD	000000000r			; 0
CONST	ENDS
;	COMDAT ?g_XMFlipX16Y16Z16W16@DirectX@@3UXMVECTORI32@1@B
CONST	SEGMENT
?g_XMFlipX16Y16Z16W16@DirectX@@3UXMVECTORI32@1@B DD 08000H ; DirectX::g_XMFlipX16Y16Z16W16
	DD	08000H
	DD	00H
	DD	00H
CONST	ENDS
;	COMDAT ?g_XMMaskX16Y16Z16W16@DirectX@@3UXMVECTORU32@1@B
CONST	SEGMENT
?g_XMMaskX16Y16Z16W16@DirectX@@3UXMVECTORU32@1@B DD 0ffffH ; DirectX::g_XMMaskX16Y16Z16W16
	DD	0ffffH
	DD	0ffff0000H
	DD	0ffff0000H
CONST	ENDS
;	COMDAT ?g_XMNormalizeX16Y16@DirectX@@3UXMVECTORF32@1@B
CONST	SEGMENT
?g_XMNormalizeX16Y16@DirectX@@3UXMVECTORF32@1@B DD 038000100r ; 3.05185e-05 ; DirectX::g_XMNormalizeX16Y16
	DD	030000100r			; 4.65675e-10
	DD	000000000r			; 0
	DD	000000000r			; 0
CONST	ENDS
;	COMDAT ?g_XMFixX16Y16@DirectX@@3UXMVECTORF32@1@B
CONST	SEGMENT
?g_XMFixX16Y16@DirectX@@3UXMVECTORF32@1@B DD 0c7000000r ; -32768 ; DirectX::g_XMFixX16Y16
	DD	000000000r			; 0
	DD	000000000r			; 0
	DD	000000000r			; 0
CONST	ENDS
;	COMDAT ?g_XMFlipX16Y16@DirectX@@3UXMVECTORI32@1@B
CONST	SEGMENT
?g_XMFlipX16Y16@DirectX@@3UXMVECTORI32@1@B DD 08000H	; DirectX::g_XMFlipX16Y16
	DD	00H
	DD	00H
	DD	00H
CONST	ENDS
;	COMDAT ?g_XMMaskX16Y16@DirectX@@3UXMVECTORU32@1@B
CONST	SEGMENT
?g_XMMaskX16Y16@DirectX@@3UXMVECTORU32@1@B DD 0ffffH	; DirectX::g_XMMaskX16Y16
	DD	0ffff0000H
	DD	00H
	DD	00H
CONST	ENDS
;	COMDAT ?g_XMNormalizeA2B10G10R10@DirectX@@3UXMVECTORF32@1@B
CONST	SEGMENT
?g_XMNormalizeA2B10G10R10@DirectX@@3UXMVECTORF32@1@B DD 03b004020r ; 0.00195695 ; DirectX::g_XMNormalizeA2B10G10R10
	DD	036004020r			; 1.91108e-06
	DD	031004020r			; 1.86629e-09
	DD	02faaaaabr			; 3.10441e-10
CONST	ENDS
;	COMDAT ?g_XMFixAA2B10G10R10@DirectX@@3UXMVECTORF32@1@B
CONST	SEGMENT
?g_XMFixAA2B10G10R10@DirectX@@3UXMVECTORF32@1@B DD 0c4000000r ; -512 ; DirectX::g_XMFixAA2B10G10R10
	DD	0c9000000r			; -524288
	DD	0ce000000r			; -5.36871e+08
	DD	04f000000r			; 2.14748e+09
CONST	ENDS
;	COMDAT ?g_XMFlipA2B10G10R10@DirectX@@3UXMVECTORU32@1@B
CONST	SEGMENT
?g_XMFlipA2B10G10R10@DirectX@@3UXMVECTORU32@1@B DD 0200H ; DirectX::g_XMFlipA2B10G10R10
	DD	080000H
	DD	020000000H
	DD	080000000H
CONST	ENDS
;	COMDAT ?g_XMMaskA2B10G10R10@DirectX@@3UXMVECTORU32@1@B
CONST	SEGMENT
?g_XMMaskA2B10G10R10@DirectX@@3UXMVECTORU32@1@B DD 03ffH ; DirectX::g_XMMaskA2B10G10R10
	DD	0ffc00H
	DD	03ff00000H
	DD	0c0000000H
CONST	ENDS
;	COMDAT ?g_XMNormalizeA8R8G8B8@DirectX@@3UXMVECTORF32@1@B
CONST	SEGMENT
?g_XMNormalizeA8R8G8B8@DirectX@@3UXMVECTORF32@1@B DD 033808081r ; 5.98384e-08 ; DirectX::g_XMNormalizeA8R8G8B8
	DD	037808081r			; 1.53186e-05
	DD	03b808081r			; 0.00392157
	DD	02f808081r			; 2.33744e-10
CONST	ENDS
;	COMDAT ?g_XMFixAA8R8G8B8@DirectX@@3UXMVECTORF32@1@B
CONST	SEGMENT
?g_XMFixAA8R8G8B8@DirectX@@3UXMVECTORF32@1@B DD 000000000r ; 0 ; DirectX::g_XMFixAA8R8G8B8
	DD	000000000r			; 0
	DD	000000000r			; 0
	DD	04f000000r			; 2.14748e+09
CONST	ENDS
;	COMDAT ?g_XMFlipA8R8G8B8@DirectX@@3UXMVECTORU32@1@B
CONST	SEGMENT
?g_XMFlipA8R8G8B8@DirectX@@3UXMVECTORU32@1@B DD 00H	; DirectX::g_XMFlipA8R8G8B8
	DD	00H
	DD	00H
	DD	080000000H
CONST	ENDS
;	COMDAT ?g_XMMaskA8R8G8B8@DirectX@@3UXMVECTORU32@1@B
CONST	SEGMENT
?g_XMMaskA8R8G8B8@DirectX@@3UXMVECTORU32@1@B DD 0ff0000H ; DirectX::g_XMMaskA8R8G8B8
	DD	0ff00H
	DD	0ffH
	DD	0ff000000H
CONST	ENDS
;	COMDAT ?g_XMNegOneMask@DirectX@@3UXMVECTORU32@1@B
CONST	SEGMENT
?g_XMNegOneMask@DirectX@@3UXMVECTORU32@1@B DD 0ffffffffH ; DirectX::g_XMNegOneMask
	DD	0ffffffffH
	DD	0ffffffffH
	DD	0ffffffffH
CONST	ENDS
;	COMDAT ?g_XMFltMax@DirectX@@3UXMVECTORI32@1@B
CONST	SEGMENT
?g_XMFltMax@DirectX@@3UXMVECTORI32@1@B DD 07f7fffffH	; DirectX::g_XMFltMax
	DD	07f7fffffH
	DD	07f7fffffH
	DD	07f7fffffH
CONST	ENDS
;	COMDAT ?g_XMFltMin@DirectX@@3UXMVECTORI32@1@B
CONST	SEGMENT
?g_XMFltMin@DirectX@@3UXMVECTORI32@1@B DD 0800000H	; DirectX::g_XMFltMin
	DD	0800000H
	DD	0800000H
	DD	0800000H
CONST	ENDS
;	COMDAT ?g_XMAbsMask@DirectX@@3UXMVECTORI32@1@B
CONST	SEGMENT
?g_XMAbsMask@DirectX@@3UXMVECTORI32@1@B DD 07fffffffH	; DirectX::g_XMAbsMask
	DD	07fffffffH
	DD	07fffffffH
	DD	07fffffffH
CONST	ENDS
;	COMDAT ?g_XMQNaNTest@DirectX@@3UXMVECTORI32@1@B
CONST	SEGMENT
?g_XMQNaNTest@DirectX@@3UXMVECTORI32@1@B DD 07fffffH	; DirectX::g_XMQNaNTest
	DD	07fffffH
	DD	07fffffH
	DD	07fffffH
CONST	ENDS
;	COMDAT ?g_XMQNaN@DirectX@@3UXMVECTORI32@1@B
CONST	SEGMENT
?g_XMQNaN@DirectX@@3UXMVECTORI32@1@B DD 07fc00000H	; DirectX::g_XMQNaN
	DD	07fc00000H
	DD	07fc00000H
	DD	07fc00000H
CONST	ENDS
;	COMDAT ?g_XMInfinity@DirectX@@3UXMVECTORI32@1@B
CONST	SEGMENT
?g_XMInfinity@DirectX@@3UXMVECTORI32@1@B DD 07f800000H	; DirectX::g_XMInfinity
	DD	07f800000H
	DD	07f800000H
	DD	07f800000H
CONST	ENDS
;	COMDAT ?g_XMEpsilon@DirectX@@3UXMVECTORF32@1@B
CONST	SEGMENT
?g_XMEpsilon@DirectX@@3UXMVECTORF32@1@B DD 034000000r ; 1.19209e-07 ; DirectX::g_XMEpsilon
	DD	034000000r			; 1.19209e-07
	DD	034000000r			; 1.19209e-07
	DD	034000000r			; 1.19209e-07
CONST	ENDS
;	COMDAT ?g_XMReciprocalTwoPi@DirectX@@3UXMVECTORF32@1@B
CONST	SEGMENT
?g_XMReciprocalTwoPi@DirectX@@3UXMVECTORF32@1@B DD 03e22f983r ; 0.159155 ; DirectX::g_XMReciprocalTwoPi
	DD	03e22f983r			; 0.159155
	DD	03e22f983r			; 0.159155
	DD	03e22f983r			; 0.159155
CONST	ENDS
;	COMDAT ?g_XMTwoPi@DirectX@@3UXMVECTORF32@1@B
CONST	SEGMENT
?g_XMTwoPi@DirectX@@3UXMVECTORF32@1@B DD 040c90fdbr ; 6.28319 ; DirectX::g_XMTwoPi
	DD	040c90fdbr			; 6.28319
	DD	040c90fdbr			; 6.28319
	DD	040c90fdbr			; 6.28319
CONST	ENDS
;	COMDAT ?g_XMReciprocalPi@DirectX@@3UXMVECTORF32@1@B
CONST	SEGMENT
?g_XMReciprocalPi@DirectX@@3UXMVECTORF32@1@B DD 03ea2f983r ; 0.31831 ; DirectX::g_XMReciprocalPi
	DD	03ea2f983r			; 0.31831
	DD	03ea2f983r			; 0.31831
	DD	03ea2f983r			; 0.31831
CONST	ENDS
;	COMDAT ?g_XMPi@DirectX@@3UXMVECTORF32@1@B
CONST	SEGMENT
?g_XMPi@DirectX@@3UXMVECTORF32@1@B DD 040490fdbr ; 3.14159 ; DirectX::g_XMPi
	DD	040490fdbr			; 3.14159
	DD	040490fdbr			; 3.14159
	DD	040490fdbr			; 3.14159
CONST	ENDS
;	COMDAT ?g_XMHalfPi@DirectX@@3UXMVECTORF32@1@B
CONST	SEGMENT
?g_XMHalfPi@DirectX@@3UXMVECTORF32@1@B DD 03fc90fdbr ; 1.5708 ; DirectX::g_XMHalfPi
	DD	03fc90fdbr			; 1.5708
	DD	03fc90fdbr			; 1.5708
	DD	03fc90fdbr			; 1.5708
CONST	ENDS
;	COMDAT ?g_XMNegativePi@DirectX@@3UXMVECTORF32@1@B
CONST	SEGMENT
?g_XMNegativePi@DirectX@@3UXMVECTORF32@1@B DD 0c0490fdbr ; -3.14159 ; DirectX::g_XMNegativePi
	DD	0c0490fdbr			; -3.14159
	DD	0c0490fdbr			; -3.14159
	DD	0c0490fdbr			; -3.14159
CONST	ENDS
;	COMDAT ?g_XMNegativeTwoPi@DirectX@@3UXMVECTORF32@1@B
CONST	SEGMENT
?g_XMNegativeTwoPi@DirectX@@3UXMVECTORF32@1@B DD 0c0c90fdbr ; -6.28319 ; DirectX::g_XMNegativeTwoPi
	DD	0c0c90fdbr			; -6.28319
	DD	0c0c90fdbr			; -6.28319
	DD	0c0c90fdbr			; -6.28319
CONST	ENDS
;	COMDAT ?g_XMNegativeOneHalf@DirectX@@3UXMVECTORF32@1@B
CONST	SEGMENT
?g_XMNegativeOneHalf@DirectX@@3UXMVECTORF32@1@B DD 0bf000000r ; -0.5 ; DirectX::g_XMNegativeOneHalf
	DD	0bf000000r			; -0.5
	DD	0bf000000r			; -0.5
	DD	0bf000000r			; -0.5
CONST	ENDS
;	COMDAT ?g_XMOneHalf@DirectX@@3UXMVECTORF32@1@B
CONST	SEGMENT
?g_XMOneHalf@DirectX@@3UXMVECTORF32@1@B DD 03f000000r ; 0.5 ; DirectX::g_XMOneHalf
	DD	03f000000r			; 0.5
	DD	03f000000r			; 0.5
	DD	03f000000r			; 0.5
CONST	ENDS
;	COMDAT ?g_XMNegativeOne@DirectX@@3UXMVECTORF32@1@B
CONST	SEGMENT
?g_XMNegativeOne@DirectX@@3UXMVECTORF32@1@B DD 0bf800000r ; -1 ; DirectX::g_XMNegativeOne
	DD	0bf800000r			; -1
	DD	0bf800000r			; -1
	DD	0bf800000r			; -1
CONST	ENDS
;	COMDAT ?g_XMSix@DirectX@@3UXMVECTORF32@1@B
CONST	SEGMENT
?g_XMSix@DirectX@@3UXMVECTORF32@1@B DD 040c00000r ; 6	; DirectX::g_XMSix
	DD	040c00000r			; 6
	DD	040c00000r			; 6
	DD	040c00000r			; 6
CONST	ENDS
;	COMDAT ?g_XMFour@DirectX@@3UXMVECTORF32@1@B
CONST	SEGMENT
?g_XMFour@DirectX@@3UXMVECTORF32@1@B DD 040800000r ; 4	; DirectX::g_XMFour
	DD	040800000r			; 4
	DD	040800000r			; 4
	DD	040800000r			; 4
CONST	ENDS
;	COMDAT ?g_XMTwo@DirectX@@3UXMVECTORF32@1@B
CONST	SEGMENT
?g_XMTwo@DirectX@@3UXMVECTORF32@1@B DD 040000000r ; 2	; DirectX::g_XMTwo
	DD	040000000r			; 2
	DD	040000000r			; 2
	DD	040000000r			; 2
CONST	ENDS
;	COMDAT ?g_XMZero@DirectX@@3UXMVECTORF32@1@B
CONST	SEGMENT
?g_XMZero@DirectX@@3UXMVECTORF32@1@B DD 000000000r ; 0	; DirectX::g_XMZero
	DD	000000000r			; 0
	DD	000000000r			; 0
	DD	000000000r			; 0
CONST	ENDS
;	COMDAT ?g_XMOne3@DirectX@@3UXMVECTORF32@1@B
CONST	SEGMENT
?g_XMOne3@DirectX@@3UXMVECTORF32@1@B DD 03f800000r ; 1	; DirectX::g_XMOne3
	DD	03f800000r			; 1
	DD	03f800000r			; 1
	DD	000000000r			; 0
CONST	ENDS
;	COMDAT ?g_XMOne@DirectX@@3UXMVECTORF32@1@B
CONST	SEGMENT
?g_XMOne@DirectX@@3UXMVECTORF32@1@B DD 03f800000r ; 1	; DirectX::g_XMOne
	DD	03f800000r			; 1
	DD	03f800000r			; 1
	DD	03f800000r			; 1
CONST	ENDS
;	COMDAT ?g_XMMaskW@DirectX@@3UXMVECTORU32@1@B
CONST	SEGMENT
?g_XMMaskW@DirectX@@3UXMVECTORU32@1@B DD 00H		; DirectX::g_XMMaskW
	DD	00H
	DD	00H
	DD	0ffffffffH
CONST	ENDS
;	COMDAT ?g_XMMaskZ@DirectX@@3UXMVECTORU32@1@B
CONST	SEGMENT
?g_XMMaskZ@DirectX@@3UXMVECTORU32@1@B DD 00H		; DirectX::g_XMMaskZ
	DD	00H
	DD	0ffffffffH
	DD	00H
CONST	ENDS
;	COMDAT ?g_XMMaskY@DirectX@@3UXMVECTORU32@1@B
CONST	SEGMENT
?g_XMMaskY@DirectX@@3UXMVECTORU32@1@B DD 00H		; DirectX::g_XMMaskY
	DD	0ffffffffH
	DD	00H
	DD	00H
CONST	ENDS
;	COMDAT ?g_XMMaskX@DirectX@@3UXMVECTORU32@1@B
CONST	SEGMENT
?g_XMMaskX@DirectX@@3UXMVECTORU32@1@B DD 0ffffffffH	; DirectX::g_XMMaskX
	DD	00H
	DD	00H
	DD	00H
CONST	ENDS
;	COMDAT ?g_XMMask3@DirectX@@3UXMVECTORU32@1@B
CONST	SEGMENT
?g_XMMask3@DirectX@@3UXMVECTORU32@1@B DD 0ffffffffH	; DirectX::g_XMMask3
	DD	0ffffffffH
	DD	0ffffffffH
	DD	00H
CONST	ENDS
;	COMDAT ?g_XMNegate3@DirectX@@3UXMVECTORU32@1@B
CONST	SEGMENT
?g_XMNegate3@DirectX@@3UXMVECTORU32@1@B DD 080000000H	; DirectX::g_XMNegate3
	DD	080000000H
	DD	080000000H
	DD	00H
CONST	ENDS
;	COMDAT ?g_XMNegativeZero@DirectX@@3UXMVECTORU32@1@B
CONST	SEGMENT
?g_XMNegativeZero@DirectX@@3UXMVECTORU32@1@B DD 080000000H ; DirectX::g_XMNegativeZero
	DD	080000000H
	DD	080000000H
	DD	080000000H
CONST	ENDS
;	COMDAT ?g_XMNegIdentityR3@DirectX@@3UXMVECTORF32@1@B
CONST	SEGMENT
?g_XMNegIdentityR3@DirectX@@3UXMVECTORF32@1@B DD 000000000r ; 0 ; DirectX::g_XMNegIdentityR3
	DD	000000000r			; 0
	DD	000000000r			; 0
	DD	0bf800000r			; -1
CONST	ENDS
;	COMDAT ?g_XMNegIdentityR2@DirectX@@3UXMVECTORF32@1@B
CONST	SEGMENT
?g_XMNegIdentityR2@DirectX@@3UXMVECTORF32@1@B DD 000000000r ; 0 ; DirectX::g_XMNegIdentityR2
	DD	000000000r			; 0
	DD	0bf800000r			; -1
	DD	000000000r			; 0
CONST	ENDS
;	COMDAT ?g_XMNegIdentityR1@DirectX@@3UXMVECTORF32@1@B
CONST	SEGMENT
?g_XMNegIdentityR1@DirectX@@3UXMVECTORF32@1@B DD 000000000r ; 0 ; DirectX::g_XMNegIdentityR1
	DD	0bf800000r			; -1
	DD	000000000r			; 0
	DD	000000000r			; 0
CONST	ENDS
;	COMDAT ?g_XMNegIdentityR0@DirectX@@3UXMVECTORF32@1@B
CONST	SEGMENT
?g_XMNegIdentityR0@DirectX@@3UXMVECTORF32@1@B DD 0bf800000r ; -1 ; DirectX::g_XMNegIdentityR0
	DD	000000000r			; 0
	DD	000000000r			; 0
	DD	000000000r			; 0
CONST	ENDS
;	COMDAT ?g_XMIdentityR3@DirectX@@3UXMVECTORF32@1@B
CONST	SEGMENT
?g_XMIdentityR3@DirectX@@3UXMVECTORF32@1@B DD 000000000r ; 0 ; DirectX::g_XMIdentityR3
	DD	000000000r			; 0
	DD	000000000r			; 0
	DD	03f800000r			; 1
CONST	ENDS
;	COMDAT ?g_XMIdentityR2@DirectX@@3UXMVECTORF32@1@B
CONST	SEGMENT
?g_XMIdentityR2@DirectX@@3UXMVECTORF32@1@B DD 000000000r ; 0 ; DirectX::g_XMIdentityR2
	DD	000000000r			; 0
	DD	03f800000r			; 1
	DD	000000000r			; 0
CONST	ENDS
;	COMDAT ?g_XMIdentityR1@DirectX@@3UXMVECTORF32@1@B
CONST	SEGMENT
?g_XMIdentityR1@DirectX@@3UXMVECTORF32@1@B DD 000000000r ; 0 ; DirectX::g_XMIdentityR1
	DD	03f800000r			; 1
	DD	000000000r			; 0
	DD	000000000r			; 0
CONST	ENDS
;	COMDAT ?g_XMIdentityR0@DirectX@@3UXMVECTORF32@1@B
CONST	SEGMENT
?g_XMIdentityR0@DirectX@@3UXMVECTORF32@1@B DD 03f800000r ; 1 ; DirectX::g_XMIdentityR0
	DD	000000000r			; 0
	DD	000000000r			; 0
	DD	000000000r			; 0
CONST	ENDS
;	COMDAT ?g_XMPiConstants0@DirectX@@3UXMVECTORF32@1@B
CONST	SEGMENT
?g_XMPiConstants0@DirectX@@3UXMVECTORF32@1@B DD 040490fdbr ; 3.14159 ; DirectX::g_XMPiConstants0
	DD	040c90fdbr			; 6.28319
	DD	03ea2f983r			; 0.31831
	DD	03e22f983r			; 0.159155
CONST	ENDS
;	COMDAT ?g_XMArcEstCoefficients@DirectX@@3UXMVECTORF32@1@B
CONST	SEGMENT
?g_XMArcEstCoefficients@DirectX@@3UXMVECTORF32@1@B DD 03fc90da4r ; 1.57073 ; DirectX::g_XMArcEstCoefficients
	DD	0be593484r			; -0.212114
	DD	03d981627r			; 0.074261
	DD	0bc996e30r			; -0.0187293
CONST	ENDS
;	COMDAT ?g_XMTanEstCoefficients@DirectX@@3UXMVECTORF32@1@B
CONST	SEGMENT
?g_XMTanEstCoefficients@DirectX@@3UXMVECTORF32@1@B DD 0401ef9dbr ; 2.484 ; DirectX::g_XMTanEstCoefficients
	DD	0be482f23r			; -0.195492
	DD	0401de9e6r			; 2.4674
	DD	03ea2f983r			; 0.31831
CONST	ENDS
;	COMDAT ?g_XMATanEstCoefficients1@DirectX@@3UXMVECTORF32@1@B
CONST	SEGMENT
?g_XMATanEstCoefficients1@DirectX@@3UXMVECTORF32@1@B DD 0bea91d04r ; -0.330299 ; DirectX::g_XMATanEstCoefficients1
	DD	03e3876e2r			; 0.180141
	DD	0bdae5a36r			; -0.085133
	DD	03caaae5fr			; 0.0208351
CONST	ENDS
;	COMDAT ?g_XMATanEstCoefficients0@DirectX@@3UXMVECTORF32@1@B
CONST	SEGMENT
?g_XMATanEstCoefficients0@DirectX@@3UXMVECTORF32@1@B DD 03f7ff738r ; 0.999866 ; DirectX::g_XMATanEstCoefficients0
	DD	03f7ff738r			; 0.999866
	DD	03f7ff738r			; 0.999866
	DD	03f7ff738r			; 0.999866
CONST	ENDS
;	COMDAT ?g_XMATanCoefficients1@DirectX@@3UXMVECTORF32@1@B
CONST	SEGMENT
?g_XMATanCoefficients1@DirectX@@3UXMVECTORF32@1@B DD 0bd9a3174r ; -0.0752896 ; DirectX::g_XMATanCoefficients1
	DD	03d2fc1fer			; 0.0429096
	DD	0bc846e02r			; -0.0161657
	DD	03b3bd74ar			; 0.00286623
CONST	ENDS
;	COMDAT ?g_XMATanCoefficients0@DirectX@@3UXMVECTORF32@1@B
CONST	SEGMENT
?g_XMATanCoefficients0@DirectX@@3UXMVECTORF32@1@B DD 0beaaaa6cr ; -0.333331 ; DirectX::g_XMATanCoefficients0
	DD	03e4cbbe5r			; 0.199936
	DD	0be117fc7r			; -0.142089
	DD	03dda3d83r			; 0.106563
CONST	ENDS
;	COMDAT ?g_XMArcCoefficients1@DirectX@@3UXMVECTORF32@1@B
CONST	SEGMENT
?g_XMArcCoefficients1@DirectX@@3UXMVECTORF32@1@B DD 03cfd10f8r ; 0.0308919 ; DirectX::g_XMArcCoefficients1
	DD	0bc8bfc66r			; -0.0170881
	DD	03bda90c5r			; 0.00667009
	DD	0baa57a2cr			; -0.00126249
CONST	ENDS
;	COMDAT ?g_XMArcCoefficients0@DirectX@@3UXMVECTORF32@1@B
CONST	SEGMENT
?g_XMArcCoefficients0@DirectX@@3UXMVECTORF32@1@B DD 03fc90fdar ; 1.5708 ; DirectX::g_XMArcCoefficients0
	DD	0be5bbfcar			; -0.214599
	DD	03db63a9er			; 0.088979
	DD	0bd4d8392r			; -0.0501743
CONST	ENDS
;	COMDAT ?g_XMTanCoefficients2@DirectX@@3UXMVECTORF32@1@B
CONST	SEGMENT
?g_XMTanCoefficients2@DirectX@@3UXMVECTORF32@1@B DD 03a1aac12r ; 0.000590027 ; DirectX::g_XMTanCoefficients2
	DD	0397abeb9r			; 0.000239129
	DD	038cb3f0cr			; 9.69154e-05
	DD	03824bec9r			; 3.92783e-05
CONST	ENDS
;	COMDAT ?g_XMTanCoefficients1@DirectX@@3UXMVECTORF32@1@B
CONST	SEGMENT
?g_XMTanCoefficients1@DirectX@@3UXMVECTORF32@1@B DD 03cb327a4r ; 0.0218695 ; DirectX::g_XMTanCoefficients1
	DD	03c11371br			; 0.00886324
	DD	03b6b69e9r			; 0.00359213
	DD	03abed1b3r			; 0.00145583
CONST	ENDS
;	COMDAT ?g_XMTanCoefficients0@DirectX@@3UXMVECTORF32@1@B
CONST	SEGMENT
?g_XMTanCoefficients0@DirectX@@3UXMVECTORF32@1@B DD 03f800000r ; 1 ; DirectX::g_XMTanCoefficients0
	DD	03eaaaaabr			; 0.333333
	DD	03e088889r			; 0.133333
	DD	03d5d0dd1r			; 0.0539683
CONST	ENDS
;	COMDAT ?g_XMCosCoefficients1@DirectX@@3UXMVECTORF32@1@B
CONST	SEGMENT
?g_XMCosCoefficients1@DirectX@@3UXMVECTORF32@1@B DD 0b48bdd11r ; -2.60516e-07 ; DirectX::g_XMCosCoefficients1
	DD	0befff67er			; -0.499927
	DD	03d29f587r			; 0.0414939
	DD	0baa69fdbr			; -0.00127124
CONST	ENDS
;	COMDAT ?g_XMCosCoefficients0@DirectX@@3UXMVECTORF32@1@B
CONST	SEGMENT
?g_XMCosCoefficients0@DirectX@@3UXMVECTORF32@1@B DD 0bf000000r ; -0.5 ; DirectX::g_XMCosCoefficients0
	DD	03d2aaaa3r			; 0.0416666
	DD	0bab609aar			; -0.00138884
	DD	037cfb4c2r			; 2.47605e-05
CONST	ENDS
;	COMDAT ?g_XMSinCoefficients1@DirectX@@3UXMVECTORF32@1@B
CONST	SEGMENT
?g_XMSinCoefficients1@DirectX@@3UXMVECTORF32@1@B DD 0b2cd365br ; -2.38899e-08 ; DirectX::g_XMSinCoefficients1
	DD	0be2aa888r			; -0.166659
	DD	03c08373cr			; 0.00831395
	DD	0b9423ec8r			; -0.000185247
CONST	ENDS
;	COMDAT ?g_XMSinCoefficients0@DirectX@@3UXMVECTORF32@1@B
CONST	SEGMENT
?g_XMSinCoefficients0@DirectX@@3UXMVECTORF32@1@B DD 0be2aaaabr ; -0.166667 ; DirectX::g_XMSinCoefficients0
	DD	03c088886r			; 0.00833333
	DD	0b9500bf1r			; -0.000198409
	DD	03638b88er			; 2.75256e-06
CONST	ENDS
;	COMDAT ?g_UnitPlaneEpsilon@Internal@DirectX@@3UXMVECTORF32@2@B
CONST	SEGMENT
?g_UnitPlaneEpsilon@Internal@DirectX@@3UXMVECTORF32@2@B DD 038d1b717r ; 0.0001 ; DirectX::Internal::g_UnitPlaneEpsilon
	DD	038d1b717r			; 0.0001
	DD	038d1b717r			; 0.0001
	DD	038d1b717r			; 0.0001
CONST	ENDS
;	COMDAT ?g_UnitQuaternionEpsilon@Internal@DirectX@@3UXMVECTORF32@2@B
CONST	SEGMENT
?g_UnitQuaternionEpsilon@Internal@DirectX@@3UXMVECTORF32@2@B DD 038d1b717r ; 0.0001 ; DirectX::Internal::g_UnitQuaternionEpsilon
	DD	038d1b717r			; 0.0001
	DD	038d1b717r			; 0.0001
	DD	038d1b717r			; 0.0001
CONST	ENDS
;	COMDAT ?g_UnitVectorEpsilon@Internal@DirectX@@3UXMVECTORF32@2@B
CONST	SEGMENT
?g_UnitVectorEpsilon@Internal@DirectX@@3UXMVECTORF32@2@B DD 038d1b717r ; 0.0001 ; DirectX::Internal::g_UnitVectorEpsilon
	DD	038d1b717r			; 0.0001
	DD	038d1b717r			; 0.0001
	DD	038d1b717r			; 0.0001
CONST	ENDS
;	COMDAT ?YellowGreen@Colors@DirectX@@3UXMVECTORF32@2@B
CONST	SEGMENT
?YellowGreen@Colors@DirectX@@3UXMVECTORF32@2@B DD 03f1a9a9br ; 0.603922 ; DirectX::Colors::YellowGreen
	DD	03f4dcdcfr			; 0.803922
	DD	03e48c8car			; 0.196078
	DD	03f800000r			; 1
CONST	ENDS
;	COMDAT ?Yellow@Colors@DirectX@@3UXMVECTORF32@2@B
CONST	SEGMENT
?Yellow@Colors@DirectX@@3UXMVECTORF32@2@B DD 03f800000r ; 1 ; DirectX::Colors::Yellow
	DD	03f800000r			; 1
	DD	000000000r			; 0
	DD	03f800000r			; 1
CONST	ENDS
;	COMDAT ?WhiteSmoke@Colors@DirectX@@3UXMVECTORF32@2@B
CONST	SEGMENT
?WhiteSmoke@Colors@DirectX@@3UXMVECTORF32@2@B DD 03f75f5f7r ; 0.960784 ; DirectX::Colors::WhiteSmoke
	DD	03f75f5f7r			; 0.960784
	DD	03f75f5f7r			; 0.960784
	DD	03f800000r			; 1
CONST	ENDS
;	COMDAT ?White@Colors@DirectX@@3UXMVECTORF32@2@B
CONST	SEGMENT
?White@Colors@DirectX@@3UXMVECTORF32@2@B DD 03f800000r ; 1 ; DirectX::Colors::White
	DD	03f800000r			; 1
	DD	03f800000r			; 1
	DD	03f800000r			; 1
CONST	ENDS
;	COMDAT ?Wheat@Colors@DirectX@@3UXMVECTORF32@2@B
CONST	SEGMENT
?Wheat@Colors@DirectX@@3UXMVECTORF32@2@B DD 03f75f5f7r ; 0.960784 ; DirectX::Colors::Wheat
	DD	03f5edee0r			; 0.870588
	DD	03f33b3b4r			; 0.701961
	DD	03f800000r			; 1
CONST	ENDS
;	COMDAT ?Violet@Colors@DirectX@@3UXMVECTORF32@2@B
CONST	SEGMENT
?Violet@Colors@DirectX@@3UXMVECTORF32@2@B DD 03f6eeef0r ; 0.933333 ; DirectX::Colors::Violet
	DD	03f028283r			; 0.509804
	DD	03f6eeef0r			; 0.933333
	DD	03f800000r			; 1
CONST	ENDS
;	COMDAT ?Turquoise@Colors@DirectX@@3UXMVECTORF32@2@B
CONST	SEGMENT
?Turquoise@Colors@DirectX@@3UXMVECTORF32@2@B DD 03e808081r ; 0.25098 ; DirectX::Colors::Turquoise
	DD	03f60e0e2r			; 0.878431
	DD	03f50d0d2r			; 0.815686
	DD	03f800000r			; 1
CONST	ENDS
;	COMDAT ?Transparent@Colors@DirectX@@3UXMVECTORF32@2@B
CONST	SEGMENT
?Transparent@Colors@DirectX@@3UXMVECTORF32@2@B DD 000000000r ; 0 ; DirectX::Colors::Transparent
	DD	000000000r			; 0
	DD	000000000r			; 0
	DD	000000000r			; 0
CONST	ENDS
;	COMDAT ?Tomato@Colors@DirectX@@3UXMVECTORF32@2@B
CONST	SEGMENT
?Tomato@Colors@DirectX@@3UXMVECTORF32@2@B DD 03f800000r ; 1 ; DirectX::Colors::Tomato
	DD	03ec6c6c8r			; 0.388235
	DD	03e8e8e8fr			; 0.278431
	DD	03f800000r			; 1
CONST	ENDS
;	COMDAT ?Thistle@Colors@DirectX@@3UXMVECTORF32@2@B
CONST	SEGMENT
?Thistle@Colors@DirectX@@3UXMVECTORF32@2@B DD 03f58d8dar ; 0.847059 ; DirectX::Colors::Thistle
	DD	03f3fbfc0r			; 0.74902
	DD	03f58d8dar			; 0.847059
	DD	03f800000r			; 1
CONST	ENDS
;	COMDAT ?Teal@Colors@DirectX@@3UXMVECTORF32@2@B
CONST	SEGMENT
?Teal@Colors@DirectX@@3UXMVECTORF32@2@B DD 000000000r ; 0 ; DirectX::Colors::Teal
	DD	03f008081r			; 0.501961
	DD	03f008081r			; 0.501961
	DD	03f800000r			; 1
CONST	ENDS
;	COMDAT ?Tan@Colors@DirectX@@3UXMVECTORF32@2@B
CONST	SEGMENT
?Tan@Colors@DirectX@@3UXMVECTORF32@2@B DD 03f52d2d4r ; 0.823529 ; DirectX::Colors::Tan
	DD	03f34b4b5r			; 0.705882
	DD	03f0c8c8dr			; 0.54902
	DD	03f800000r			; 1
CONST	ENDS
;	COMDAT ?SteelBlue@Colors@DirectX@@3UXMVECTORF32@2@B
CONST	SEGMENT
?SteelBlue@Colors@DirectX@@3UXMVECTORF32@2@B DD 03e8c8c8dr ; 0.27451 ; DirectX::Colors::SteelBlue
	DD	03f028283r			; 0.509804
	DD	03f34b4b5r			; 0.705882
	DD	03f800000r			; 1
CONST	ENDS
;	COMDAT ?SpringGreen@Colors@DirectX@@3UXMVECTORF32@2@B
CONST	SEGMENT
?SpringGreen@Colors@DirectX@@3UXMVECTORF32@2@B DD 000000000r ; 0 ; DirectX::Colors::SpringGreen
	DD	03f800000r			; 1
	DD	03efeff00r			; 0.498039
	DD	03f800000r			; 1
CONST	ENDS
;	COMDAT ?Snow@Colors@DirectX@@3UXMVECTORF32@2@B
CONST	SEGMENT
?Snow@Colors@DirectX@@3UXMVECTORF32@2@B DD 03f800000r ; 1 ; DirectX::Colors::Snow
	DD	03f7afafcr			; 0.980392
	DD	03f7afafcr			; 0.980392
	DD	03f800000r			; 1
CONST	ENDS
;	COMDAT ?g_FltMax@DirectX@@3UXMVECTORF32@1@B
CONST	SEGMENT
?g_FltMax@DirectX@@3UXMVECTORF32@1@B DD 07f7fffffr ; 3.40282e+38 ; DirectX::g_FltMax
	DD	07f7fffffr			; 3.40282e+38
	DD	07f7fffffr			; 3.40282e+38
	DD	07f7fffffr			; 3.40282e+38
CONST	ENDS
;	COMDAT ?SlateGray@Colors@DirectX@@3UXMVECTORF32@2@B
CONST	SEGMENT
?SlateGray@Colors@DirectX@@3UXMVECTORF32@2@B DD 03ee0e0e2r ; 0.439216 ; DirectX::Colors::SlateGray
	DD	03f008081r			; 0.501961
	DD	03f109091r			; 0.564706
	DD	03f800000r			; 1
CONST	ENDS
;	COMDAT ?g_FltMin@DirectX@@3UXMVECTORF32@1@B
CONST	SEGMENT
?g_FltMin@DirectX@@3UXMVECTORF32@1@B DD 0ff7fffffr ; -3.40282e+38 ; DirectX::g_FltMin
	DD	0ff7fffffr			; -3.40282e+38
	DD	0ff7fffffr			; -3.40282e+38
	DD	0ff7fffffr			; -3.40282e+38
CONST	ENDS
;	COMDAT ?SlateBlue@Colors@DirectX@@3UXMVECTORF32@2@B
CONST	SEGMENT
?SlateBlue@Colors@DirectX@@3UXMVECTORF32@2@B DD 03ed4d4d6r ; 0.415686 ; DirectX::Colors::SlateBlue
	DD	03eb4b4b5r			; 0.352941
	DD	03f4dcdcfr			; 0.803922
	DD	03f800000r			; 1
CONST	ENDS
;	COMDAT ?g_RayNegEpsilon@DirectX@@3UXMVECTORF32@1@B
CONST	SEGMENT
?g_RayNegEpsilon@DirectX@@3UXMVECTORF32@1@B DD 09e3ce508r ; -1e-20 ; DirectX::g_RayNegEpsilon
	DD	09e3ce508r			; -1e-20
	DD	09e3ce508r			; -1e-20
	DD	09e3ce508r			; -1e-20
CONST	ENDS
;	COMDAT ?SkyBlue@Colors@DirectX@@3UXMVECTORF32@2@B
CONST	SEGMENT
?SkyBlue@Colors@DirectX@@3UXMVECTORF32@2@B DD 03f078788r ; 0.529412 ; DirectX::Colors::SkyBlue
	DD	03f4eced0r			; 0.807843
	DD	03f6bebedr			; 0.921569
	DD	03f800000r			; 1
CONST	ENDS
;	COMDAT ?g_RayEpsilon@DirectX@@3UXMVECTORF32@1@B
CONST	SEGMENT
?g_RayEpsilon@DirectX@@3UXMVECTORF32@1@B DD 01e3ce508r ; 1e-20 ; DirectX::g_RayEpsilon
	DD	01e3ce508r			; 1e-20
	DD	01e3ce508r			; 1e-20
	DD	01e3ce508r			; 1e-20
CONST	ENDS
;	COMDAT ?Silver@Colors@DirectX@@3UXMVECTORF32@2@B
CONST	SEGMENT
?Silver@Colors@DirectX@@3UXMVECTORF32@2@B DD 03f40c0c2r ; 0.752941 ; DirectX::Colors::Silver
	DD	03f40c0c2r			; 0.752941
	DD	03f40c0c2r			; 0.752941
	DD	03f800000r			; 1
CONST	ENDS
;	COMDAT ?g_BoxOffset@DirectX@@3QBUXMVECTORF32@1@B
CONST	SEGMENT
?g_BoxOffset@DirectX@@3QBUXMVECTORF32@1@B DD 0bf800000r ; -1 ; DirectX::g_BoxOffset
	DD	0bf800000r			; -1
	DD	03f800000r			; 1
	DD	000000000r			; 0
	DD	03f800000r			; 1
	DD	0bf800000r			; -1
	DD	03f800000r			; 1
	DD	000000000r			; 0
	DD	03f800000r			; 1
	DD	03f800000r			; 1
	DD	03f800000r			; 1
	DD	000000000r			; 0
	DD	0bf800000r			; -1
	DD	03f800000r			; 1
	DD	03f800000r			; 1
	DD	000000000r			; 0
	DD	0bf800000r			; -1
	DD	0bf800000r			; -1
	DD	0bf800000r			; -1
	DD	000000000r			; 0
	DD	03f800000r			; 1
	DD	0bf800000r			; -1
	DD	0bf800000r			; -1
	DD	000000000r			; 0
	DD	03f800000r			; 1
	DD	03f800000r			; 1
	DD	0bf800000r			; -1
	DD	000000000r			; 0
	DD	0bf800000r			; -1
	DD	03f800000r			; 1
	DD	0bf800000r			; -1
	DD	000000000r			; 0
CONST	ENDS
;	COMDAT ?Sienna@Colors@DirectX@@3UXMVECTORF32@2@B
CONST	SEGMENT
?Sienna@Colors@DirectX@@3UXMVECTORF32@2@B DD 03f20a0a1r ; 0.627451 ; DirectX::Colors::Sienna
	DD	03ea4a4a5r			; 0.321569
	DD	03e34b4b5r			; 0.176471
	DD	03f800000r			; 1
CONST	ENDS
;	COMDAT ?SeaShell@Colors@DirectX@@3UXMVECTORF32@2@B
CONST	SEGMENT
?SeaShell@Colors@DirectX@@3UXMVECTORF32@2@B DD 03f800000r ; 1 ; DirectX::Colors::SeaShell
	DD	03f75f5f7r			; 0.960784
	DD	03f6eeef0r			; 0.933333
	DD	03f800000r			; 1
CONST	ENDS
;	COMDAT ?SeaGreen@Colors@DirectX@@3UXMVECTORF32@2@B
CONST	SEGMENT
?SeaGreen@Colors@DirectX@@3UXMVECTORF32@2@B DD 03e38b8b9r ; 0.180392 ; DirectX::Colors::SeaGreen
	DD	03f0b8b8cr			; 0.545098
	DD	03eaeaeafr			; 0.341176
	DD	03f800000r			; 1
CONST	ENDS
;	COMDAT ?SandyBrown@Colors@DirectX@@3UXMVECTORF32@2@B
CONST	SEGMENT
?SandyBrown@Colors@DirectX@@3UXMVECTORF32@2@B DD 03f74f4f6r ; 0.956863 ; DirectX::Colors::SandyBrown
	DD	03f24a4a5r			; 0.643137
	DD	03ec0c0c2r			; 0.376471
	DD	03f800000r			; 1
CONST	ENDS
;	COMDAT ?Salmon@Colors@DirectX@@3UXMVECTORF32@2@B
CONST	SEGMENT
?Salmon@Colors@DirectX@@3UXMVECTORF32@2@B DD 03f7afafcr ; 0.980392 ; DirectX::Colors::Salmon
	DD	03f008081r			; 0.501961
	DD	03ee4e4e6r			; 0.447059
	DD	03f800000r			; 1
CONST	ENDS
;	COMDAT ?SaddleBrown@Colors@DirectX@@3UXMVECTORF32@2@B
CONST	SEGMENT
?SaddleBrown@Colors@DirectX@@3UXMVECTORF32@2@B DD 03f0b8b8cr ; 0.545098 ; DirectX::Colors::SaddleBrown
	DD	03e8a8a8br			; 0.270588
	DD	03d989899r			; 0.0745098
	DD	03f800000r			; 1
CONST	ENDS
;	COMDAT ?RoyalBlue@Colors@DirectX@@3UXMVECTORF32@2@B
CONST	SEGMENT
?RoyalBlue@Colors@DirectX@@3UXMVECTORF32@2@B DD 03e828283r ; 0.254902 ; DirectX::Colors::RoyalBlue
	DD	03ed2d2d4r			; 0.411765
	DD	03f61e1e3r			; 0.882353
	DD	03f800000r			; 1
CONST	ENDS
;	COMDAT ?RosyBrown@Colors@DirectX@@3UXMVECTORF32@2@B
CONST	SEGMENT
?RosyBrown@Colors@DirectX@@3UXMVECTORF32@2@B DD 03f3cbcbdr ; 0.737255 ; DirectX::Colors::RosyBrown
	DD	03f0f8f90r			; 0.560784
	DD	03f0f8f90r			; 0.560784
	DD	03f800000r			; 1
CONST	ENDS
;	COMDAT ?Red@Colors@DirectX@@3UXMVECTORF32@2@B
CONST	SEGMENT
?Red@Colors@DirectX@@3UXMVECTORF32@2@B DD 03f800000r ; 1 ; DirectX::Colors::Red
	DD	000000000r			; 0
	DD	000000000r			; 0
	DD	03f800000r			; 1
CONST	ENDS
;	COMDAT ?Purple@Colors@DirectX@@3UXMVECTORF32@2@B
CONST	SEGMENT
?Purple@Colors@DirectX@@3UXMVECTORF32@2@B DD 03f008081r ; 0.501961 ; DirectX::Colors::Purple
	DD	000000000r			; 0
	DD	03f008081r			; 0.501961
	DD	03f800000r			; 1
CONST	ENDS
;	COMDAT ?PowderBlue@Colors@DirectX@@3UXMVECTORF32@2@B
CONST	SEGMENT
?PowderBlue@Colors@DirectX@@3UXMVECTORF32@2@B DD 03f30b0b1r ; 0.690196 ; DirectX::Colors::PowderBlue
	DD	03f60e0e2r			; 0.878431
	DD	03f66e6e8r			; 0.901961
	DD	03f800000r			; 1
CONST	ENDS
;	COMDAT ?Plum@Colors@DirectX@@3UXMVECTORF32@2@B
CONST	SEGMENT
?Plum@Colors@DirectX@@3UXMVECTORF32@2@B DD 03f5ddddfr ; 0.866667 ; DirectX::Colors::Plum
	DD	03f20a0a1r			; 0.627451
	DD	03f5ddddfr			; 0.866667
	DD	03f800000r			; 1
CONST	ENDS
;	COMDAT ?Pink@Colors@DirectX@@3UXMVECTORF32@2@B
CONST	SEGMENT
?Pink@Colors@DirectX@@3UXMVECTORF32@2@B DD 03f800000r ; 1 ; DirectX::Colors::Pink
	DD	03f40c0c2r			; 0.752941
	DD	03f4bcbcdr			; 0.796079
	DD	03f800000r			; 1
CONST	ENDS
;	COMDAT ?Peru@Colors@DirectX@@3UXMVECTORF32@2@B
CONST	SEGMENT
?Peru@Colors@DirectX@@3UXMVECTORF32@2@B DD 03f4dcdcfr ; 0.803922 ; DirectX::Colors::Peru
	DD	03f058586r			; 0.521569
	DD	03e7cfcfer			; 0.247059
	DD	03f800000r			; 1
CONST	ENDS
;	COMDAT ?PeachPuff@Colors@DirectX@@3UXMVECTORF32@2@B
CONST	SEGMENT
?PeachPuff@Colors@DirectX@@3UXMVECTORF32@2@B DD 03f800000r ; 1 ; DirectX::Colors::PeachPuff
	DD	03f5adadcr			; 0.854902
	DD	03f39b9bar			; 0.72549
	DD	03f800000r			; 1
CONST	ENDS
;	COMDAT ?PapayaWhip@Colors@DirectX@@3UXMVECTORF32@2@B
CONST	SEGMENT
?PapayaWhip@Colors@DirectX@@3UXMVECTORF32@2@B DD 03f800000r ; 1 ; DirectX::Colors::PapayaWhip
	DD	03f6feff1r			; 0.937255
	DD	03f55d5d7r			; 0.835294
	DD	03f800000r			; 1
CONST	ENDS
;	COMDAT ?PaleVioletRed@Colors@DirectX@@3UXMVECTORF32@2@B
CONST	SEGMENT
?PaleVioletRed@Colors@DirectX@@3UXMVECTORF32@2@B DD 03f5bdbddr ; 0.858824 ; DirectX::Colors::PaleVioletRed
	DD	03ee0e0e2r			; 0.439216
	DD	03f139394r			; 0.576471
	DD	03f800000r			; 1
CONST	ENDS
;	COMDAT ?PaleTurquoise@Colors@DirectX@@3UXMVECTORF32@2@B
CONST	SEGMENT
?PaleTurquoise@Colors@DirectX@@3UXMVECTORF32@2@B DD 03f2fafb0r ; 0.686275 ; DirectX::Colors::PaleTurquoise
	DD	03f6eeef0r			; 0.933333
	DD	03f6eeef0r			; 0.933333
	DD	03f800000r			; 1
CONST	ENDS
;	COMDAT ?PaleGreen@Colors@DirectX@@3UXMVECTORF32@2@B
CONST	SEGMENT
?PaleGreen@Colors@DirectX@@3UXMVECTORF32@2@B DD 03f189899r ; 0.596078 ; DirectX::Colors::PaleGreen
	DD	03f7bfbfdr			; 0.984314
	DD	03f189899r			; 0.596078
	DD	03f800000r			; 1
CONST	ENDS
;	COMDAT ?PaleGoldenrod@Colors@DirectX@@3UXMVECTORF32@2@B
CONST	SEGMENT
?PaleGoldenrod@Colors@DirectX@@3UXMVECTORF32@2@B DD 03f6eeef0r ; 0.933333 ; DirectX::Colors::PaleGoldenrod
	DD	03f68e8ear			; 0.909804
	DD	03f2aaaabr			; 0.666667
	DD	03f800000r			; 1
CONST	ENDS
;	COMDAT ?Orchid@Colors@DirectX@@3UXMVECTORF32@2@B
CONST	SEGMENT
?Orchid@Colors@DirectX@@3UXMVECTORF32@2@B DD 03f5adadcr ; 0.854902 ; DirectX::Colors::Orchid
	DD	03ee0e0e2r			; 0.439216
	DD	03f56d6d8r			; 0.839216
	DD	03f800000r			; 1
CONST	ENDS
;	COMDAT ?OrangeRed@Colors@DirectX@@3UXMVECTORF32@2@B
CONST	SEGMENT
?OrangeRed@Colors@DirectX@@3UXMVECTORF32@2@B DD 03f800000r ; 1 ; DirectX::Colors::OrangeRed
	DD	03e8a8a8br			; 0.270588
	DD	000000000r			; 0
	DD	03f800000r			; 1
CONST	ENDS
;	COMDAT ?Orange@Colors@DirectX@@3UXMVECTORF32@2@B
CONST	SEGMENT
?Orange@Colors@DirectX@@3UXMVECTORF32@2@B DD 03f800000r ; 1 ; DirectX::Colors::Orange
	DD	03f25a5a6r			; 0.647059
	DD	000000000r			; 0
	DD	03f800000r			; 1
CONST	ENDS
;	COMDAT ?OliveDrab@Colors@DirectX@@3UXMVECTORF32@2@B
CONST	SEGMENT
?OliveDrab@Colors@DirectX@@3UXMVECTORF32@2@B DD 03ed6d6d8r ; 0.419608 ; DirectX::Colors::OliveDrab
	DD	03f0e8e8fr			; 0.556863
	DD	03e0c8c8dr			; 0.137255
	DD	03f800000r			; 1
CONST	ENDS
;	COMDAT ?Olive@Colors@DirectX@@3UXMVECTORF32@2@B
CONST	SEGMENT
?Olive@Colors@DirectX@@3UXMVECTORF32@2@B DD 03f008081r ; 0.501961 ; DirectX::Colors::Olive
	DD	03f008081r			; 0.501961
	DD	000000000r			; 0
	DD	03f800000r			; 1
CONST	ENDS
;	COMDAT ?OldLace@Colors@DirectX@@3UXMVECTORF32@2@B
CONST	SEGMENT
?OldLace@Colors@DirectX@@3UXMVECTORF32@2@B DD 03f7dfdffr ; 0.992157 ; DirectX::Colors::OldLace
	DD	03f75f5f7r			; 0.960784
	DD	03f66e6e8r			; 0.901961
	DD	03f800000r			; 1
CONST	ENDS
;	COMDAT ?Navy@Colors@DirectX@@3UXMVECTORF32@2@B
CONST	SEGMENT
?Navy@Colors@DirectX@@3UXMVECTORF32@2@B DD 000000000r ; 0 ; DirectX::Colors::Navy
	DD	000000000r			; 0
	DD	03f008081r			; 0.501961
	DD	03f800000r			; 1
CONST	ENDS
;	COMDAT ?NavajoWhite@Colors@DirectX@@3UXMVECTORF32@2@B
CONST	SEGMENT
?NavajoWhite@Colors@DirectX@@3UXMVECTORF32@2@B DD 03f800000r ; 1 ; DirectX::Colors::NavajoWhite
	DD	03f5edee0r			; 0.870588
	DD	03f2dadaer			; 0.678431
	DD	03f800000r			; 1
CONST	ENDS
;	COMDAT ?Moccasin@Colors@DirectX@@3UXMVECTORF32@2@B
CONST	SEGMENT
?Moccasin@Colors@DirectX@@3UXMVECTORF32@2@B DD 03f800000r ; 1 ; DirectX::Colors::Moccasin
	DD	03f64e4e6r			; 0.894118
	DD	03f35b5b6r			; 0.709804
	DD	03f800000r			; 1
CONST	ENDS
;	COMDAT ?MistyRose@Colors@DirectX@@3UXMVECTORF32@2@B
CONST	SEGMENT
?MistyRose@Colors@DirectX@@3UXMVECTORF32@2@B DD 03f800000r ; 1 ; DirectX::Colors::MistyRose
	DD	03f64e4e6r			; 0.894118
	DD	03f61e1e3r			; 0.882353
	DD	03f800000r			; 1
CONST	ENDS
;	COMDAT ?MintCream@Colors@DirectX@@3UXMVECTORF32@2@B
CONST	SEGMENT
?MintCream@Colors@DirectX@@3UXMVECTORF32@2@B DD 03f75f5f7r ; 0.960784 ; DirectX::Colors::MintCream
	DD	03f800000r			; 1
	DD	03f7afafcr			; 0.980392
	DD	03f800000r			; 1
CONST	ENDS
;	COMDAT ?MidnightBlue@Colors@DirectX@@3UXMVECTORF32@2@B
CONST	SEGMENT
?MidnightBlue@Colors@DirectX@@3UXMVECTORF32@2@B DD 03dc8c8car ; 0.0980392 ; DirectX::Colors::MidnightBlue
	DD	03dc8c8car			; 0.0980392
	DD	03ee0e0e2r			; 0.439216
	DD	03f800000r			; 1
CONST	ENDS
;	COMDAT ?MediumVioletRed@Colors@DirectX@@3UXMVECTORF32@2@B
CONST	SEGMENT
?MediumVioletRed@Colors@DirectX@@3UXMVECTORF32@2@B DD 03f47c7c9r ; 0.780392 ; DirectX::Colors::MediumVioletRed
	DD	03da8a8a9r			; 0.0823529
	DD	03f058586r			; 0.521569
	DD	03f800000r			; 1
CONST	ENDS
;	COMDAT ?MediumTurquoise@Colors@DirectX@@3UXMVECTORF32@2@B
CONST	SEGMENT
?MediumTurquoise@Colors@DirectX@@3UXMVECTORF32@2@B DD 03e909091r ; 0.282353 ; DirectX::Colors::MediumTurquoise
	DD	03f51d1d3r			; 0.819608
	DD	03f4ccccer			; 0.8
	DD	03f800000r			; 1
CONST	ENDS
;	COMDAT ?MediumSpringGreen@Colors@DirectX@@3UXMVECTORF32@2@B
CONST	SEGMENT
?MediumSpringGreen@Colors@DirectX@@3UXMVECTORF32@2@B DD 000000000r ; 0 ; DirectX::Colors::MediumSpringGreen
	DD	03f7afafcr			; 0.980392
	DD	03f1a9a9br			; 0.603922
	DD	03f800000r			; 1
CONST	ENDS
;	COMDAT ?MediumSlateBlue@Colors@DirectX@@3UXMVECTORF32@2@B
CONST	SEGMENT
?MediumSlateBlue@Colors@DirectX@@3UXMVECTORF32@2@B DD 03ef6f6f8r ; 0.482353 ; DirectX::Colors::MediumSlateBlue
	DD	03ed0d0d2r			; 0.407843
	DD	03f6eeef0r			; 0.933333
	DD	03f800000r			; 1
CONST	ENDS
;	COMDAT ?MediumSeaGreen@Colors@DirectX@@3UXMVECTORF32@2@B
CONST	SEGMENT
?MediumSeaGreen@Colors@DirectX@@3UXMVECTORF32@2@B DD 03e70f0f2r ; 0.235294 ; DirectX::Colors::MediumSeaGreen
	DD	03f33b3b4r			; 0.701961
	DD	03ee2e2e4r			; 0.443137
	DD	03f800000r			; 1
CONST	ENDS
;	COMDAT ?MediumPurple@Colors@DirectX@@3UXMVECTORF32@2@B
CONST	SEGMENT
?MediumPurple@Colors@DirectX@@3UXMVECTORF32@2@B DD 03f139394r ; 0.576471 ; DirectX::Colors::MediumPurple
	DD	03ee0e0e2r			; 0.439216
	DD	03f5bdbddr			; 0.858824
	DD	03f800000r			; 1
CONST	ENDS
;	COMDAT ?MediumOrchid@Colors@DirectX@@3UXMVECTORF32@2@B
CONST	SEGMENT
?MediumOrchid@Colors@DirectX@@3UXMVECTORF32@2@B DD 03f3ababbr ; 0.729412 ; DirectX::Colors::MediumOrchid
	DD	03eaaaaabr			; 0.333333
	DD	03f53d3d5r			; 0.827451
	DD	03f800000r			; 1
CONST	ENDS
;	COMDAT ?MediumBlue@Colors@DirectX@@3UXMVECTORF32@2@B
CONST	SEGMENT
?MediumBlue@Colors@DirectX@@3UXMVECTORF32@2@B DD 000000000r ; 0 ; DirectX::Colors::MediumBlue
	DD	000000000r			; 0
	DD	03f4dcdcfr			; 0.803922
	DD	03f800000r			; 1
CONST	ENDS
;	COMDAT ?MediumAquamarine@Colors@DirectX@@3UXMVECTORF32@2@B
CONST	SEGMENT
?MediumAquamarine@Colors@DirectX@@3UXMVECTORF32@2@B DD 03ecccccer ; 0.4 ; DirectX::Colors::MediumAquamarine
	DD	03f4dcdcfr			; 0.803922
	DD	03f2aaaabr			; 0.666667
	DD	03f800000r			; 1
CONST	ENDS
;	COMDAT ?Maroon@Colors@DirectX@@3UXMVECTORF32@2@B
CONST	SEGMENT
?Maroon@Colors@DirectX@@3UXMVECTORF32@2@B DD 03f008081r ; 0.501961 ; DirectX::Colors::Maroon
	DD	000000000r			; 0
	DD	000000000r			; 0
	DD	03f800000r			; 1
CONST	ENDS
;	COMDAT ?Magenta@Colors@DirectX@@3UXMVECTORF32@2@B
CONST	SEGMENT
?Magenta@Colors@DirectX@@3UXMVECTORF32@2@B DD 03f800000r ; 1 ; DirectX::Colors::Magenta
	DD	000000000r			; 0
	DD	03f800000r			; 1
	DD	03f800000r			; 1
CONST	ENDS
;	COMDAT ?Linen@Colors@DirectX@@3UXMVECTORF32@2@B
CONST	SEGMENT
?Linen@Colors@DirectX@@3UXMVECTORF32@2@B DD 03f7afafcr ; 0.980392 ; DirectX::Colors::Linen
	DD	03f70f0f2r			; 0.941177
	DD	03f66e6e8r			; 0.901961
	DD	03f800000r			; 1
CONST	ENDS
;	COMDAT ?LimeGreen@Colors@DirectX@@3UXMVECTORF32@2@B
CONST	SEGMENT
?LimeGreen@Colors@DirectX@@3UXMVECTORF32@2@B DD 03e48c8car ; 0.196078 ; DirectX::Colors::LimeGreen
	DD	03f4dcdcfr			; 0.803922
	DD	03e48c8car			; 0.196078
	DD	03f800000r			; 1
CONST	ENDS
;	COMDAT ?Lime@Colors@DirectX@@3UXMVECTORF32@2@B
CONST	SEGMENT
?Lime@Colors@DirectX@@3UXMVECTORF32@2@B DD 000000000r ; 0 ; DirectX::Colors::Lime
	DD	03f800000r			; 1
	DD	000000000r			; 0
	DD	03f800000r			; 1
CONST	ENDS
;	COMDAT ?LightYellow@Colors@DirectX@@3UXMVECTORF32@2@B
CONST	SEGMENT
?LightYellow@Colors@DirectX@@3UXMVECTORF32@2@B DD 03f800000r ; 1 ; DirectX::Colors::LightYellow
	DD	03f800000r			; 1
	DD	03f60e0e2r			; 0.878431
	DD	03f800000r			; 1
CONST	ENDS
;	COMDAT ?LightSteelBlue@Colors@DirectX@@3UXMVECTORF32@2@B
CONST	SEGMENT
?LightSteelBlue@Colors@DirectX@@3UXMVECTORF32@2@B DD 03f30b0b1r ; 0.690196 ; DirectX::Colors::LightSteelBlue
	DD	03f44c4c6r			; 0.768628
	DD	03f5edee0r			; 0.870588
	DD	03f800000r			; 1
CONST	ENDS
;	COMDAT ?LightSlateGray@Colors@DirectX@@3UXMVECTORF32@2@B
CONST	SEGMENT
?LightSlateGray@Colors@DirectX@@3UXMVECTORF32@2@B DD 03eeeeef0r ; 0.466667 ; DirectX::Colors::LightSlateGray
	DD	03f088889r			; 0.533333
	DD	03f19999ar			; 0.6
	DD	03f800000r			; 1
CONST	ENDS
;	COMDAT ?LightSkyBlue@Colors@DirectX@@3UXMVECTORF32@2@B
CONST	SEGMENT
?LightSkyBlue@Colors@DirectX@@3UXMVECTORF32@2@B DD 03f078788r ; 0.529412 ; DirectX::Colors::LightSkyBlue
	DD	03f4eced0r			; 0.807843
	DD	03f7afafcr			; 0.980392
	DD	03f800000r			; 1
CONST	ENDS
;	COMDAT ?LightSeaGreen@Colors@DirectX@@3UXMVECTORF32@2@B
CONST	SEGMENT
?LightSeaGreen@Colors@DirectX@@3UXMVECTORF32@2@B DD 03e008081r ; 0.12549 ; DirectX::Colors::LightSeaGreen
	DD	03f32b2b3r			; 0.698039
	DD	03f2aaaabr			; 0.666667
	DD	03f800000r			; 1
CONST	ENDS
;	COMDAT ?LightSalmon@Colors@DirectX@@3UXMVECTORF32@2@B
CONST	SEGMENT
?LightSalmon@Colors@DirectX@@3UXMVECTORF32@2@B DD 03f800000r ; 1 ; DirectX::Colors::LightSalmon
	DD	03f20a0a1r			; 0.627451
	DD	03ef4f4f6r			; 0.478431
	DD	03f800000r			; 1
CONST	ENDS
;	COMDAT ?LightPink@Colors@DirectX@@3UXMVECTORF32@2@B
CONST	SEGMENT
?LightPink@Colors@DirectX@@3UXMVECTORF32@2@B DD 03f800000r ; 1 ; DirectX::Colors::LightPink
	DD	03f36b6b7r			; 0.713726
	DD	03f41c1c3r			; 0.756863
	DD	03f800000r			; 1
CONST	ENDS
;	COMDAT ?LightGray@Colors@DirectX@@3UXMVECTORF32@2@B
CONST	SEGMENT
?LightGray@Colors@DirectX@@3UXMVECTORF32@2@B DD 03f53d3d5r ; 0.827451 ; DirectX::Colors::LightGray
	DD	03f53d3d5r			; 0.827451
	DD	03f53d3d5r			; 0.827451
	DD	03f800000r			; 1
CONST	ENDS
;	COMDAT ?LightGreen@Colors@DirectX@@3UXMVECTORF32@2@B
CONST	SEGMENT
?LightGreen@Colors@DirectX@@3UXMVECTORF32@2@B DD 03f109091r ; 0.564706 ; DirectX::Colors::LightGreen
	DD	03f6eeef0r			; 0.933333
	DD	03f109091r			; 0.564706
	DD	03f800000r			; 1
CONST	ENDS
;	COMDAT ?LightGoldenrodYellow@Colors@DirectX@@3UXMVECTORF32@2@B
CONST	SEGMENT
?LightGoldenrodYellow@Colors@DirectX@@3UXMVECTORF32@2@B DD 03f7afafcr ; 0.980392 ; DirectX::Colors::LightGoldenrodYellow
	DD	03f7afafcr			; 0.980392
	DD	03f52d2d4r			; 0.823529
	DD	03f800000r			; 1
CONST	ENDS
;	COMDAT ?LightCyan@Colors@DirectX@@3UXMVECTORF32@2@B
CONST	SEGMENT
?LightCyan@Colors@DirectX@@3UXMVECTORF32@2@B DD 03f60e0e2r ; 0.878431 ; DirectX::Colors::LightCyan
	DD	03f800000r			; 1
	DD	03f800000r			; 1
	DD	03f800000r			; 1
CONST	ENDS
;	COMDAT ?LightCoral@Colors@DirectX@@3UXMVECTORF32@2@B
CONST	SEGMENT
?LightCoral@Colors@DirectX@@3UXMVECTORF32@2@B DD 03f70f0f2r ; 0.941177 ; DirectX::Colors::LightCoral
	DD	03f008081r			; 0.501961
	DD	03f008081r			; 0.501961
	DD	03f800000r			; 1
CONST	ENDS
;	COMDAT ?LightBlue@Colors@DirectX@@3UXMVECTORF32@2@B
CONST	SEGMENT
?LightBlue@Colors@DirectX@@3UXMVECTORF32@2@B DD 03f2dadaer ; 0.678431 ; DirectX::Colors::LightBlue
	DD	03f58d8dar			; 0.847059
	DD	03f66e6e8r			; 0.901961
	DD	03f800000r			; 1
CONST	ENDS
;	COMDAT ?LemonChiffon@Colors@DirectX@@3UXMVECTORF32@2@B
CONST	SEGMENT
?LemonChiffon@Colors@DirectX@@3UXMVECTORF32@2@B DD 03f800000r ; 1 ; DirectX::Colors::LemonChiffon
	DD	03f7afafcr			; 0.980392
	DD	03f4dcdcfr			; 0.803922
	DD	03f800000r			; 1
CONST	ENDS
;	COMDAT ?LawnGreen@Colors@DirectX@@3UXMVECTORF32@2@B
CONST	SEGMENT
?LawnGreen@Colors@DirectX@@3UXMVECTORF32@2@B DD 03ef8f8far ; 0.486275 ; DirectX::Colors::LawnGreen
	DD	03f7cfcfer			; 0.988235
	DD	000000000r			; 0
	DD	03f800000r			; 1
CONST	ENDS
;	COMDAT ?LavenderBlush@Colors@DirectX@@3UXMVECTORF32@2@B
CONST	SEGMENT
?LavenderBlush@Colors@DirectX@@3UXMVECTORF32@2@B DD 03f800000r ; 1 ; DirectX::Colors::LavenderBlush
	DD	03f70f0f2r			; 0.941177
	DD	03f75f5f7r			; 0.960784
	DD	03f800000r			; 1
CONST	ENDS
;	COMDAT ?Lavender@Colors@DirectX@@3UXMVECTORF32@2@B
CONST	SEGMENT
?Lavender@Colors@DirectX@@3UXMVECTORF32@2@B DD 03f66e6e8r ; 0.901961 ; DirectX::Colors::Lavender
	DD	03f66e6e8r			; 0.901961
	DD	03f7afafcr			; 0.980392
	DD	03f800000r			; 1
CONST	ENDS
;	COMDAT ?Khaki@Colors@DirectX@@3UXMVECTORF32@2@B
CONST	SEGMENT
?Khaki@Colors@DirectX@@3UXMVECTORF32@2@B DD 03f70f0f2r ; 0.941177 ; DirectX::Colors::Khaki
	DD	03f66e6e8r			; 0.901961
	DD	03f0c8c8dr			; 0.54902
	DD	03f800000r			; 1
CONST	ENDS
;	COMDAT ?Ivory@Colors@DirectX@@3UXMVECTORF32@2@B
CONST	SEGMENT
?Ivory@Colors@DirectX@@3UXMVECTORF32@2@B DD 03f800000r ; 1 ; DirectX::Colors::Ivory
	DD	03f800000r			; 1
	DD	03f70f0f2r			; 0.941177
	DD	03f800000r			; 1
CONST	ENDS
;	COMDAT ?Indigo@Colors@DirectX@@3UXMVECTORF32@2@B
CONST	SEGMENT
?Indigo@Colors@DirectX@@3UXMVECTORF32@2@B DD 03e969697r ; 0.294118 ; DirectX::Colors::Indigo
	DD	000000000r			; 0
	DD	03f028283r			; 0.509804
	DD	03f800000r			; 1
CONST	ENDS
;	COMDAT ?IndianRed@Colors@DirectX@@3UXMVECTORF32@2@B
CONST	SEGMENT
?IndianRed@Colors@DirectX@@3UXMVECTORF32@2@B DD 03f4dcdcfr ; 0.803922 ; DirectX::Colors::IndianRed
	DD	03eb8b8b9r			; 0.360784
	DD	03eb8b8b9r			; 0.360784
	DD	03f800000r			; 1
CONST	ENDS
;	COMDAT ?HotPink@Colors@DirectX@@3UXMVECTORF32@2@B
CONST	SEGMENT
?HotPink@Colors@DirectX@@3UXMVECTORF32@2@B DD 03f800000r ; 1 ; DirectX::Colors::HotPink
	DD	03ed2d2d4r			; 0.411765
	DD	03f34b4b5r			; 0.705882
	DD	03f800000r			; 1
CONST	ENDS
;	COMDAT ?Honeydew@Colors@DirectX@@3UXMVECTORF32@2@B
CONST	SEGMENT
?Honeydew@Colors@DirectX@@3UXMVECTORF32@2@B DD 03f70f0f2r ; 0.941177 ; DirectX::Colors::Honeydew
	DD	03f800000r			; 1
	DD	03f70f0f2r			; 0.941177
	DD	03f800000r			; 1
CONST	ENDS
;	COMDAT ?GreenYellow@Colors@DirectX@@3UXMVECTORF32@2@B
CONST	SEGMENT
?GreenYellow@Colors@DirectX@@3UXMVECTORF32@2@B DD 03f2dadaer ; 0.678431 ; DirectX::Colors::GreenYellow
	DD	03f800000r			; 1
	DD	03e3cbcbdr			; 0.184314
	DD	03f800000r			; 1
CONST	ENDS
;	COMDAT ?Green@Colors@DirectX@@3UXMVECTORF32@2@B
CONST	SEGMENT
?Green@Colors@DirectX@@3UXMVECTORF32@2@B DD 000000000r ; 0 ; DirectX::Colors::Green
	DD	03f008081r			; 0.501961
	DD	000000000r			; 0
	DD	03f800000r			; 1
CONST	ENDS
;	COMDAT ?Gray@Colors@DirectX@@3UXMVECTORF32@2@B
CONST	SEGMENT
?Gray@Colors@DirectX@@3UXMVECTORF32@2@B DD 03f008081r ; 0.501961 ; DirectX::Colors::Gray
	DD	03f008081r			; 0.501961
	DD	03f008081r			; 0.501961
	DD	03f800000r			; 1
CONST	ENDS
;	COMDAT ?Goldenrod@Colors@DirectX@@3UXMVECTORF32@2@B
CONST	SEGMENT
?Goldenrod@Colors@DirectX@@3UXMVECTORF32@2@B DD 03f5adadcr ; 0.854902 ; DirectX::Colors::Goldenrod
	DD	03f25a5a6r			; 0.647059
	DD	03e008081r			; 0.12549
	DD	03f800000r			; 1
CONST	ENDS
;	COMDAT ?Gold@Colors@DirectX@@3UXMVECTORF32@2@B
CONST	SEGMENT
?Gold@Colors@DirectX@@3UXMVECTORF32@2@B DD 03f800000r ; 1 ; DirectX::Colors::Gold
	DD	03f57d7d9r			; 0.843137
	DD	000000000r			; 0
	DD	03f800000r			; 1
CONST	ENDS
;	COMDAT ?GhostWhite@Colors@DirectX@@3UXMVECTORF32@2@B
CONST	SEGMENT
?GhostWhite@Colors@DirectX@@3UXMVECTORF32@2@B DD 03f78f8far ; 0.972549 ; DirectX::Colors::GhostWhite
	DD	03f78f8far			; 0.972549
	DD	03f800000r			; 1
	DD	03f800000r			; 1
CONST	ENDS
;	COMDAT ?Gainsboro@Colors@DirectX@@3UXMVECTORF32@2@B
CONST	SEGMENT
?Gainsboro@Colors@DirectX@@3UXMVECTORF32@2@B DD 03f5cdcder ; 0.862745 ; DirectX::Colors::Gainsboro
	DD	03f5cdcder			; 0.862745
	DD	03f5cdcder			; 0.862745
	DD	03f800000r			; 1
CONST	ENDS
;	COMDAT ?Fuchsia@Colors@DirectX@@3UXMVECTORF32@2@B
CONST	SEGMENT
?Fuchsia@Colors@DirectX@@3UXMVECTORF32@2@B DD 03f800000r ; 1 ; DirectX::Colors::Fuchsia
	DD	000000000r			; 0
	DD	03f800000r			; 1
	DD	03f800000r			; 1
CONST	ENDS
;	COMDAT ?ForestGreen@Colors@DirectX@@3UXMVECTORF32@2@B
CONST	SEGMENT
?ForestGreen@Colors@DirectX@@3UXMVECTORF32@2@B DD 03e088889r ; 0.133333 ; DirectX::Colors::ForestGreen
	DD	03f0b8b8cr			; 0.545098
	DD	03e088889r			; 0.133333
	DD	03f800000r			; 1
CONST	ENDS
;	COMDAT ?FloralWhite@Colors@DirectX@@3UXMVECTORF32@2@B
CONST	SEGMENT
?FloralWhite@Colors@DirectX@@3UXMVECTORF32@2@B DD 03f800000r ; 1 ; DirectX::Colors::FloralWhite
	DD	03f7afafcr			; 0.980392
	DD	03f70f0f2r			; 0.941177
	DD	03f800000r			; 1
CONST	ENDS
;	COMDAT ?Firebrick@Colors@DirectX@@3UXMVECTORF32@2@B
CONST	SEGMENT
?Firebrick@Colors@DirectX@@3UXMVECTORF32@2@B DD 03f32b2b3r ; 0.698039 ; DirectX::Colors::Firebrick
	DD	03e088889r			; 0.133333
	DD	03e088889r			; 0.133333
	DD	03f800000r			; 1
CONST	ENDS
;	COMDAT ?DodgerBlue@Colors@DirectX@@3UXMVECTORF32@2@B
CONST	SEGMENT
?DodgerBlue@Colors@DirectX@@3UXMVECTORF32@2@B DD 03df0f0f2r ; 0.117647 ; DirectX::Colors::DodgerBlue
	DD	03f109091r			; 0.564706
	DD	03f800000r			; 1
	DD	03f800000r			; 1
CONST	ENDS
;	COMDAT ?DimGray@Colors@DirectX@@3UXMVECTORF32@2@B
CONST	SEGMENT
?DimGray@Colors@DirectX@@3UXMVECTORF32@2@B DD 03ed2d2d4r ; 0.411765 ; DirectX::Colors::DimGray
	DD	03ed2d2d4r			; 0.411765
	DD	03ed2d2d4r			; 0.411765
	DD	03f800000r			; 1
CONST	ENDS
;	COMDAT ?DeepSkyBlue@Colors@DirectX@@3UXMVECTORF32@2@B
CONST	SEGMENT
?DeepSkyBlue@Colors@DirectX@@3UXMVECTORF32@2@B DD 000000000r ; 0 ; DirectX::Colors::DeepSkyBlue
	DD	03f3fbfc0r			; 0.74902
	DD	03f800000r			; 1
	DD	03f800000r			; 1
CONST	ENDS
;	COMDAT ?DeepPink@Colors@DirectX@@3UXMVECTORF32@2@B
CONST	SEGMENT
?DeepPink@Colors@DirectX@@3UXMVECTORF32@2@B DD 03f800000r ; 1 ; DirectX::Colors::DeepPink
	DD	03da0a0a1r			; 0.0784314
	DD	03f139394r			; 0.576471
	DD	03f800000r			; 1
CONST	ENDS
;	COMDAT ?DarkViolet@Colors@DirectX@@3UXMVECTORF32@2@B
CONST	SEGMENT
?DarkViolet@Colors@DirectX@@3UXMVECTORF32@2@B DD 03f149495r ; 0.580392 ; DirectX::Colors::DarkViolet
	DD	000000000r			; 0
	DD	03f53d3d5r			; 0.827451
	DD	03f800000r			; 1
CONST	ENDS
;	COMDAT ?DarkTurquoise@Colors@DirectX@@3UXMVECTORF32@2@B
CONST	SEGMENT
?DarkTurquoise@Colors@DirectX@@3UXMVECTORF32@2@B DD 000000000r ; 0 ; DirectX::Colors::DarkTurquoise
	DD	03f4eced0r			; 0.807843
	DD	03f51d1d3r			; 0.819608
	DD	03f800000r			; 1
CONST	ENDS
;	COMDAT ?DarkSlateGray@Colors@DirectX@@3UXMVECTORF32@2@B
CONST	SEGMENT
?DarkSlateGray@Colors@DirectX@@3UXMVECTORF32@2@B DD 03e3cbcbdr ; 0.184314 ; DirectX::Colors::DarkSlateGray
	DD	03e9e9e9fr			; 0.309804
	DD	03e9e9e9fr			; 0.309804
	DD	03f800000r			; 1
CONST	ENDS
;	COMDAT ?DarkSlateBlue@Colors@DirectX@@3UXMVECTORF32@2@B
CONST	SEGMENT
?DarkSlateBlue@Colors@DirectX@@3UXMVECTORF32@2@B DD 03e909091r ; 0.282353 ; DirectX::Colors::DarkSlateBlue
	DD	03e74f4f6r			; 0.239216
	DD	03f0b8b8cr			; 0.545098
	DD	03f800000r			; 1
CONST	ENDS
;	COMDAT ?DarkSeaGreen@Colors@DirectX@@3UXMVECTORF32@2@B
CONST	SEGMENT
?DarkSeaGreen@Colors@DirectX@@3UXMVECTORF32@2@B DD 03f0f8f90r ; 0.560784 ; DirectX::Colors::DarkSeaGreen
	DD	03f3cbcbdr			; 0.737255
	DD	03f0b8b8cr			; 0.545098
	DD	03f800000r			; 1
CONST	ENDS
;	COMDAT ?DarkSalmon@Colors@DirectX@@3UXMVECTORF32@2@B
CONST	SEGMENT
?DarkSalmon@Colors@DirectX@@3UXMVECTORF32@2@B DD 03f69e9ebr ; 0.913726 ; DirectX::Colors::DarkSalmon
	DD	03f169697r			; 0.588235
	DD	03ef4f4f6r			; 0.478431
	DD	03f800000r			; 1
CONST	ENDS
;	COMDAT ?DarkRed@Colors@DirectX@@3UXMVECTORF32@2@B
CONST	SEGMENT
?DarkRed@Colors@DirectX@@3UXMVECTORF32@2@B DD 03f0b8b8cr ; 0.545098 ; DirectX::Colors::DarkRed
	DD	000000000r			; 0
	DD	000000000r			; 0
	DD	03f800000r			; 1
CONST	ENDS
;	COMDAT ?DarkOrchid@Colors@DirectX@@3UXMVECTORF32@2@B
CONST	SEGMENT
?DarkOrchid@Colors@DirectX@@3UXMVECTORF32@2@B DD 03f19999ar ; 0.6 ; DirectX::Colors::DarkOrchid
	DD	03e48c8car			; 0.196078
	DD	03f4ccccer			; 0.8
	DD	03f800000r			; 1
CONST	ENDS
;	COMDAT ?DarkOrange@Colors@DirectX@@3UXMVECTORF32@2@B
CONST	SEGMENT
?DarkOrange@Colors@DirectX@@3UXMVECTORF32@2@B DD 03f800000r ; 1 ; DirectX::Colors::DarkOrange
	DD	03f0c8c8dr			; 0.54902
	DD	000000000r			; 0
	DD	03f800000r			; 1
CONST	ENDS
;	COMDAT ?DarkOliveGreen@Colors@DirectX@@3UXMVECTORF32@2@B
CONST	SEGMENT
?DarkOliveGreen@Colors@DirectX@@3UXMVECTORF32@2@B DD 03eaaaaabr ; 0.333333 ; DirectX::Colors::DarkOliveGreen
	DD	03ed6d6d8r			; 0.419608
	DD	03e3cbcbdr			; 0.184314
	DD	03f800000r			; 1
CONST	ENDS
;	COMDAT ?DarkMagenta@Colors@DirectX@@3UXMVECTORF32@2@B
CONST	SEGMENT
?DarkMagenta@Colors@DirectX@@3UXMVECTORF32@2@B DD 03f0b8b8cr ; 0.545098 ; DirectX::Colors::DarkMagenta
	DD	000000000r			; 0
	DD	03f0b8b8cr			; 0.545098
	DD	03f800000r			; 1
CONST	ENDS
;	COMDAT ?DarkKhaki@Colors@DirectX@@3UXMVECTORF32@2@B
CONST	SEGMENT
?DarkKhaki@Colors@DirectX@@3UXMVECTORF32@2@B DD 03f3dbdber ; 0.741176 ; DirectX::Colors::DarkKhaki
	DD	03f37b7b8r			; 0.717647
	DD	03ed6d6d8r			; 0.419608
	DD	03f800000r			; 1
CONST	ENDS
;	COMDAT ?DarkGreen@Colors@DirectX@@3UXMVECTORF32@2@B
CONST	SEGMENT
?DarkGreen@Colors@DirectX@@3UXMVECTORF32@2@B DD 000000000r ; 0 ; DirectX::Colors::DarkGreen
	DD	03ec8c8car			; 0.392157
	DD	000000000r			; 0
	DD	03f800000r			; 1
CONST	ENDS
;	COMDAT ?DarkGray@Colors@DirectX@@3UXMVECTORF32@2@B
CONST	SEGMENT
?DarkGray@Colors@DirectX@@3UXMVECTORF32@2@B DD 03f29a9aar ; 0.662745 ; DirectX::Colors::DarkGray
	DD	03f29a9aar			; 0.662745
	DD	03f29a9aar			; 0.662745
	DD	03f800000r			; 1
CONST	ENDS
;	COMDAT ?DarkGoldenrod@Colors@DirectX@@3UXMVECTORF32@2@B
CONST	SEGMENT
?DarkGoldenrod@Colors@DirectX@@3UXMVECTORF32@2@B DD 03f38b8b9r ; 0.721569 ; DirectX::Colors::DarkGoldenrod
	DD	03f068687r			; 0.52549
	DD	03d30b0b1r			; 0.0431373
	DD	03f800000r			; 1
CONST	ENDS
;	COMDAT ?DarkCyan@Colors@DirectX@@3UXMVECTORF32@2@B
CONST	SEGMENT
?DarkCyan@Colors@DirectX@@3UXMVECTORF32@2@B DD 000000000r ; 0 ; DirectX::Colors::DarkCyan
	DD	03f0b8b8cr			; 0.545098
	DD	03f0b8b8cr			; 0.545098
	DD	03f800000r			; 1
CONST	ENDS
;	COMDAT ?DarkBlue@Colors@DirectX@@3UXMVECTORF32@2@B
CONST	SEGMENT
?DarkBlue@Colors@DirectX@@3UXMVECTORF32@2@B DD 000000000r ; 0 ; DirectX::Colors::DarkBlue
	DD	000000000r			; 0
	DD	03f0b8b8cr			; 0.545098
	DD	03f800000r			; 1
CONST	ENDS
;	COMDAT ?Cyan@Colors@DirectX@@3UXMVECTORF32@2@B
CONST	SEGMENT
?Cyan@Colors@DirectX@@3UXMVECTORF32@2@B DD 000000000r ; 0 ; DirectX::Colors::Cyan
	DD	03f800000r			; 1
	DD	03f800000r			; 1
	DD	03f800000r			; 1
CONST	ENDS
;	COMDAT ?Crimson@Colors@DirectX@@3UXMVECTORF32@2@B
CONST	SEGMENT
?Crimson@Colors@DirectX@@3UXMVECTORF32@2@B DD 03f5cdcder ; 0.862745 ; DirectX::Colors::Crimson
	DD	03da0a0a1r			; 0.0784314
	DD	03e70f0f2r			; 0.235294
	DD	03f800000r			; 1
CONST	ENDS
;	COMDAT ?Cornsilk@Colors@DirectX@@3UXMVECTORF32@2@B
CONST	SEGMENT
?Cornsilk@Colors@DirectX@@3UXMVECTORF32@2@B DD 03f800000r ; 1 ; DirectX::Colors::Cornsilk
	DD	03f78f8far			; 0.972549
	DD	03f5cdcder			; 0.862745
	DD	03f800000r			; 1
CONST	ENDS
;	COMDAT ?CornflowerBlue@Colors@DirectX@@3UXMVECTORF32@2@B
CONST	SEGMENT
?CornflowerBlue@Colors@DirectX@@3UXMVECTORF32@2@B DD 03ec8c8car ; 0.392157 ; DirectX::Colors::CornflowerBlue
	DD	03f159596r			; 0.584314
	DD	03f6dedefr			; 0.929412
	DD	03f800000r			; 1
CONST	ENDS
;	COMDAT ?Coral@Colors@DirectX@@3UXMVECTORF32@2@B
CONST	SEGMENT
?Coral@Colors@DirectX@@3UXMVECTORF32@2@B DD 03f800000r ; 1 ; DirectX::Colors::Coral
	DD	03efeff00r			; 0.498039
	DD	03ea0a0a1r			; 0.313726
	DD	03f800000r			; 1
CONST	ENDS
;	COMDAT ?Chocolate@Colors@DirectX@@3UXMVECTORF32@2@B
CONST	SEGMENT
?Chocolate@Colors@DirectX@@3UXMVECTORF32@2@B DD 03f52d2d4r ; 0.823529 ; DirectX::Colors::Chocolate
	DD	03ed2d2d4r			; 0.411765
	DD	03df0f0f2r			; 0.117647
	DD	03f800000r			; 1
CONST	ENDS
;	COMDAT ?Chartreuse@Colors@DirectX@@3UXMVECTORF32@2@B
CONST	SEGMENT
?Chartreuse@Colors@DirectX@@3UXMVECTORF32@2@B DD 03efeff00r ; 0.498039 ; DirectX::Colors::Chartreuse
	DD	03f800000r			; 1
	DD	000000000r			; 0
	DD	03f800000r			; 1
CONST	ENDS
;	COMDAT ?CadetBlue@Colors@DirectX@@3UXMVECTORF32@2@B
CONST	SEGMENT
?CadetBlue@Colors@DirectX@@3UXMVECTORF32@2@B DD 03ebebebfr ; 0.372549 ; DirectX::Colors::CadetBlue
	DD	03f1e9e9fr			; 0.619608
	DD	03f20a0a1r			; 0.627451
	DD	03f800000r			; 1
CONST	ENDS
;	COMDAT ?BurlyWood@Colors@DirectX@@3UXMVECTORF32@2@B
CONST	SEGMENT
?BurlyWood@Colors@DirectX@@3UXMVECTORF32@2@B DD 03f5edee0r ; 0.870588 ; DirectX::Colors::BurlyWood
	DD	03f38b8b9r			; 0.721569
	DD	03f078788r			; 0.529412
	DD	03f800000r			; 1
CONST	ENDS
;	COMDAT ?Brown@Colors@DirectX@@3UXMVECTORF32@2@B
CONST	SEGMENT
?Brown@Colors@DirectX@@3UXMVECTORF32@2@B DD 03f25a5a6r ; 0.647059 ; DirectX::Colors::Brown
	DD	03e28a8a9r			; 0.164706
	DD	03e28a8a9r			; 0.164706
	DD	03f800000r			; 1
CONST	ENDS
;	COMDAT ?BlueViolet@Colors@DirectX@@3UXMVECTORF32@2@B
CONST	SEGMENT
?BlueViolet@Colors@DirectX@@3UXMVECTORF32@2@B DD 03f0a8a8br ; 0.541176 ; DirectX::Colors::BlueViolet
	DD	03e2cacadr			; 0.168627
	DD	03f62e2e4r			; 0.886275
	DD	03f800000r			; 1
CONST	ENDS
;	COMDAT ?Blue@Colors@DirectX@@3UXMVECTORF32@2@B
CONST	SEGMENT
?Blue@Colors@DirectX@@3UXMVECTORF32@2@B DD 000000000r ; 0 ; DirectX::Colors::Blue
	DD	000000000r			; 0
	DD	03f800000r			; 1
	DD	03f800000r			; 1
CONST	ENDS
;	COMDAT ?BlanchedAlmond@Colors@DirectX@@3UXMVECTORF32@2@B
CONST	SEGMENT
?BlanchedAlmond@Colors@DirectX@@3UXMVECTORF32@2@B DD 03f800000r ; 1 ; DirectX::Colors::BlanchedAlmond
	DD	03f6bebedr			; 0.921569
	DD	03f4dcdcfr			; 0.803922
	DD	03f800000r			; 1
CONST	ENDS
;	COMDAT ?Black@Colors@DirectX@@3UXMVECTORF32@2@B
CONST	SEGMENT
?Black@Colors@DirectX@@3UXMVECTORF32@2@B DD 000000000r ; 0 ; DirectX::Colors::Black
	DD	000000000r			; 0
	DD	000000000r			; 0
	DD	03f800000r			; 1
CONST	ENDS
;	COMDAT ?Bisque@Colors@DirectX@@3UXMVECTORF32@2@B
CONST	SEGMENT
?Bisque@Colors@DirectX@@3UXMVECTORF32@2@B DD 03f800000r ; 1 ; DirectX::Colors::Bisque
	DD	03f64e4e6r			; 0.894118
	DD	03f44c4c6r			; 0.768628
	DD	03f800000r			; 1
CONST	ENDS
;	COMDAT ?Beige@Colors@DirectX@@3UXMVECTORF32@2@B
CONST	SEGMENT
?Beige@Colors@DirectX@@3UXMVECTORF32@2@B DD 03f75f5f7r ; 0.960784 ; DirectX::Colors::Beige
	DD	03f75f5f7r			; 0.960784
	DD	03f5cdcder			; 0.862745
	DD	03f800000r			; 1
CONST	ENDS
;	COMDAT ?Azure@Colors@DirectX@@3UXMVECTORF32@2@B
CONST	SEGMENT
?Azure@Colors@DirectX@@3UXMVECTORF32@2@B DD 03f70f0f2r ; 0.941177 ; DirectX::Colors::Azure
	DD	03f800000r			; 1
	DD	03f800000r			; 1
	DD	03f800000r			; 1
CONST	ENDS
;	COMDAT ?Aquamarine@Colors@DirectX@@3UXMVECTORF32@2@B
CONST	SEGMENT
?Aquamarine@Colors@DirectX@@3UXMVECTORF32@2@B DD 03efeff00r ; 0.498039 ; DirectX::Colors::Aquamarine
	DD	03f800000r			; 1
	DD	03f54d4d6r			; 0.831373
	DD	03f800000r			; 1
CONST	ENDS
;	COMDAT ?Aqua@Colors@DirectX@@3UXMVECTORF32@2@B
CONST	SEGMENT
?Aqua@Colors@DirectX@@3UXMVECTORF32@2@B DD 000000000r ; 0 ; DirectX::Colors::Aqua
	DD	03f800000r			; 1
	DD	03f800000r			; 1
	DD	03f800000r			; 1
CONST	ENDS
;	COMDAT ?AntiqueWhite@Colors@DirectX@@3UXMVECTORF32@2@B
CONST	SEGMENT
?AntiqueWhite@Colors@DirectX@@3UXMVECTORF32@2@B DD 03f7afafcr ; 0.980392 ; DirectX::Colors::AntiqueWhite
	DD	03f6bebedr			; 0.921569
	DD	03f57d7d9r			; 0.843137
	DD	03f800000r			; 1
CONST	ENDS
;	COMDAT ?AliceBlue@Colors@DirectX@@3UXMVECTORF32@2@B
CONST	SEGMENT
?AliceBlue@Colors@DirectX@@3UXMVECTORF32@2@B DD 03f70f0f2r ; 0.941177 ; DirectX::Colors::AliceBlue
	DD	03f78f8far			; 0.972549
	DD	03f800000r			; 1
	DD	03f800000r			; 1
CONST	ENDS
PUBLIC	??_H@YAXPEAX_K1P6APEAX0@Z@Z			; `vector constructor iterator'
PUBLIC	?__empty_global_delete@@YAXPEAX@Z		; __empty_global_delete
PUBLIC	?__empty_global_delete@@YAXPEAX_K@Z		; __empty_global_delete
PUBLIC	fabsf
PUBLIC	?cos@@YAMM@Z					; cos
PUBLIC	?XMConvertToRadians@DirectX@@YAMM@Z		; DirectX::XMConvertToRadians
PUBLIC	??BXMVECTORF32@DirectX@@QEBA?AT__m128@@XZ	; DirectX::XMVECTORF32::operator __m128
PUBLIC	??BXMVECTORI32@DirectX@@QEBA?AT__m128@@XZ	; DirectX::XMVECTORI32::operator __m128
PUBLIC	??BXMVECTORU32@DirectX@@QEBA?AT__m128@@XZ	; DirectX::XMVECTORU32::operator __m128
PUBLIC	??HDirectX@@YQ?AT__m128@@T1@0@Z			; DirectX::operator+
PUBLIC	??GDirectX@@YQ?AT__m128@@T1@0@Z			; DirectX::operator-
PUBLIC	??DDirectX@@YQ?AT__m128@@T1@M@Z			; DirectX::operator*
PUBLIC	??0XMMATRIX@DirectX@@QEAA@XZ			; DirectX::XMMATRIX::XMMATRIX
PUBLIC	??DXMMATRIX@DirectX@@QEBQ?AU01@U01@@Z		; DirectX::XMMATRIX::operator*
PUBLIC	??0XMFLOAT3@DirectX@@QEAA@XZ			; DirectX::XMFLOAT3::XMFLOAT3
PUBLIC	??0XMFLOAT3@DirectX@@QEAA@MMM@Z			; DirectX::XMFLOAT3::XMFLOAT3
PUBLIC	??4XMFLOAT3@DirectX@@QEAAAEAU01@AEBU01@@Z	; DirectX::XMFLOAT3::operator=
PUBLIC	??0XMFLOAT4@DirectX@@QEAA@XZ			; DirectX::XMFLOAT4::XMFLOAT4
PUBLIC	??4XMFLOAT4@DirectX@@QEAAAEAU01@AEBU01@@Z	; DirectX::XMFLOAT4::operator=
PUBLIC	??0XMFLOAT4X4@DirectX@@QEAA@XZ			; DirectX::XMFLOAT4X4::XMFLOAT4X4
PUBLIC	?XMLoadFloat3@DirectX@@YQ?AT__m128@@PEBUXMFLOAT3@1@@Z ; DirectX::XMLoadFloat3
PUBLIC	?XMLoadFloat4@DirectX@@YQ?AT__m128@@PEBUXMFLOAT4@1@@Z ; DirectX::XMLoadFloat4
PUBLIC	?XMStoreFloat4@DirectX@@YQXPEAUXMFLOAT4@1@T__m128@@@Z ; DirectX::XMStoreFloat4
PUBLIC	?XMStoreFloat4x4@DirectX@@YQXPEAUXMFLOAT4X4@1@UXMMATRIX@1@@Z ; DirectX::XMStoreFloat4x4
PUBLIC	?XMVectorSet@DirectX@@YQ?AT__m128@@MMMM@Z	; DirectX::XMVectorSet
PUBLIC	?XMVectorGetX@DirectX@@YQMT__m128@@@Z		; DirectX::XMVectorGetX
PUBLIC	?XMVectorGetY@DirectX@@YQMT__m128@@@Z		; DirectX::XMVectorGetY
PUBLIC	?XMVectorSetY@DirectX@@YQ?AT__m128@@T2@M@Z	; DirectX::XMVectorSetY
PUBLIC	?XMVectorAdd@DirectX@@YQ?AT__m128@@T2@0@Z	; DirectX::XMVectorAdd
PUBLIC	?XMVectorSubtract@DirectX@@YQ?AT__m128@@T2@0@Z	; DirectX::XMVectorSubtract
PUBLIC	?XMVectorScale@DirectX@@YQ?AT__m128@@T2@M@Z	; DirectX::XMVectorScale
PUBLIC	?XMVectorLerp@DirectX@@YQ?AT__m128@@T2@0M@Z	; DirectX::XMVectorLerp
PUBLIC	?XMVector3Length@DirectX@@YQ?AT__m128@@T2@@Z	; DirectX::XMVector3Length
PUBLIC	?XMVector3Normalize@DirectX@@YQ?AT__m128@@T2@@Z	; DirectX::XMVector3Normalize
PUBLIC	?XMMatrixMultiply@DirectX@@YQ?AUXMMATRIX@1@U21@AEBU21@@Z ; DirectX::XMMatrixMultiply
PUBLIC	?XMMatrixIdentity@DirectX@@YQ?AUXMMATRIX@1@XZ	; DirectX::XMMatrixIdentity
PUBLIC	?XMMatrixTranslation@DirectX@@YQ?AUXMMATRIX@1@MMM@Z ; DirectX::XMMatrixTranslation
PUBLIC	?XMMatrixScaling@DirectX@@YQ?AUXMMATRIX@1@MMM@Z	; DirectX::XMMatrixScaling
PUBLIC	?XMMatrixOrthographicLH@DirectX@@YQ?AUXMMATRIX@1@MMMM@Z ; DirectX::XMMatrixOrthographicLH
PUBLIC	?XMScalarNearEqual@DirectX@@YA_NMMM@Z		; DirectX::XMScalarNearEqual
PUBLIC	??0CPlayerCamera@Client@@AEAA@PEAUID3D11Device@@PEAUID3D11DeviceContext@@@Z ; Client::CPlayerCamera::CPlayerCamera
PUBLIC	??0CPlayerCamera@Client@@AEAA@AEBV01@@Z		; Client::CPlayerCamera::CPlayerCamera
PUBLIC	??1CPlayerCamera@Client@@EEAA@XZ		; Client::CPlayerCamera::~CPlayerCamera
PUBLIC	?Initialize_Prototype@CPlayerCamera@Client@@UEAAJXZ ; Client::CPlayerCamera::Initialize_Prototype
PUBLIC	?Initialize@CPlayerCamera@Client@@UEAAJPEAX@Z	; Client::CPlayerCamera::Initialize
PUBLIC	?Tick@CPlayerCamera@Client@@UEAAXN@Z		; Client::CPlayerCamera::Tick
PUBLIC	?LateTick@CPlayerCamera@Client@@UEAAXN@Z	; Client::CPlayerCamera::LateTick
PUBLIC	?Render@CPlayerCamera@Client@@UEAAJXZ		; Client::CPlayerCamera::Render
PUBLIC	?AttackShake@CPlayerCamera@Client@@QEAAXXZ	; Client::CPlayerCamera::AttackShake
PUBLIC	?Add_Components@CPlayerCamera@Client@@QEAAJXZ	; Client::CPlayerCamera::Add_Components
PUBLIC	?Setup_ShaderResources@CPlayerCamera@Client@@QEAAJXZ ; Client::CPlayerCamera::Setup_ShaderResources
PUBLIC	?DefaultCameraMovement@CPlayerCamera@Client@@AEAAXN@Z ; Client::CPlayerCamera::DefaultCameraMovement
PUBLIC	?WinActionMovement@CPlayerCamera@Client@@AEAAXN@Z ; Client::CPlayerCamera::WinActionMovement
PUBLIC	?Create@CPlayerCamera@Client@@SAPEAV12@PEAUID3D11Device@@PEAUID3D11DeviceContext@@@Z ; Client::CPlayerCamera::Create
PUBLIC	?Clone@CPlayerCamera@Client@@UEAAPEAVCGameObject@Engine@@PEAX@Z ; Client::CPlayerCamera::Clone
PUBLIC	?Free@CPlayerCamera@Client@@UEAAXXZ		; Client::CPlayerCamera::Free
PUBLIC	??_GCPlayerCamera@Client@@EEAAPEAXI@Z		; Client::CPlayerCamera::`scalar deleting destructor'
PUBLIC	??0tagColliderDesc@CCollider@Engine@@QEAA@XZ	; Engine::CCollider::tagColliderDesc::tagColliderDesc
PUBLIC	?SetWinMotion@CCharacter@Client@@QEAAX_N@Z	; Client::CCharacter::SetWinMotion
PUBLIC	?GetLockOnTarget@CCharacter@Client@@QEAAPEAVCGameObject@Engine@@XZ ; Client::CCharacter::GetLockOnTarget
PUBLIC	?SetLevelFinish@CApplicationManager@Client@@QEAAXW4LEVEL@12@@Z ; Client::CApplicationManager::SetLevelFinish
PUBLIC	?IsLevelFinish@CApplicationManager@Client@@QEAA_NW4LEVEL@12@@Z ; Client::CApplicationManager::IsLevelFinish
PUBLIC	?SetWinMotion@CApplicationManager@Client@@QEAAX_N@Z ; Client::CApplicationManager::SetWinMotion
PUBLIC	??$Safe_Release@PEAVCPlayerCamera@Client@@@Engine@@YAKAEAPEAVCPlayerCamera@Client@@@Z ; Engine::Safe_Release<Client::CPlayerCamera * __ptr64>
PUBLIC	??$Safe_Release@PEAVCTransform@Engine@@@Engine@@YAKAEAPEAVCTransform@0@@Z ; Engine::Safe_Release<Engine::CTransform * __ptr64>
PUBLIC	??$Safe_Release@PEAVCRenderer@Engine@@@Engine@@YAKAEAPEAVCRenderer@0@@Z ; Engine::Safe_Release<Engine::CRenderer * __ptr64>
PUBLIC	??$Safe_Release@PEAVCShader@Engine@@@Engine@@YAKAEAPEAVCShader@0@@Z ; Engine::Safe_Release<Engine::CShader * __ptr64>
PUBLIC	??$Safe_Release@PEAVCVIBuffer_Rect@Engine@@@Engine@@YAKAEAPEAVCVIBuffer_Rect@0@@Z ; Engine::Safe_Release<Engine::CVIBuffer_Rect * __ptr64>
PUBLIC	??$Safe_Release@PEAVCTexture@Engine@@@Engine@@YAKAEAPEAVCTexture@0@@Z ; Engine::Safe_Release<Engine::CTexture * __ptr64>
PUBLIC	??_C@_1JE@DMOBBMDE@?$AAc?$AA?3?$AA?2?$AAp?$AAr?$AAo?$AAg?$AAr?$AAa?$AAm?$AA?5?$AAf?$AAi?$AAl?$AAe?$AAs?$AA?5?$AA?$CI?$AAx?$AA8?$AA6?$AA?$CJ?$AA?2?$AAw?$AAi?$AAn?$AAd?$AAo?$AAw?$AAs?$AA?5?$AAk@ ; `string'
PUBLIC	??_C@_1BA@LBADLIHI@?$AAp?$AAS?$AAo?$AAu?$AAr?$AAc?$AAe?$AA?$AA@ ; `string'
PUBLIC	?__LINE__Var@?0??XMLoadFloat3@DirectX@@YQ?AT__m128@@PEBUXMFLOAT3@2@@Z@4JA ; `DirectX::XMLoadFloat3'::`1'::__LINE__Var
PUBLIC	?__LINE__Var@?0??XMLoadFloat4@DirectX@@YQ?AT__m128@@PEBUXMFLOAT4@2@@Z@4JA ; `DirectX::XMLoadFloat4'::`1'::__LINE__Var
PUBLIC	??_C@_1BK@FHLBGAOP@?$AAp?$AAD?$AAe?$AAs?$AAt?$AAi?$AAn?$AAa?$AAt?$AAi?$AAo?$AAn?$AA?$AA@ ; `string'
PUBLIC	?__LINE__Var@?0??XMStoreFloat4@DirectX@@YQXPEAUXMFLOAT4@2@T__m128@@@Z@4JA ; `DirectX::XMStoreFloat4'::`1'::__LINE__Var
PUBLIC	?__LINE__Var@?0??XMStoreFloat4x4@DirectX@@YQXPEAUXMFLOAT4X4@2@UXMMATRIX@2@@Z@4JA ; `DirectX::XMStoreFloat4x4'::`1'::__LINE__Var
PUBLIC	??_C@_1JC@EJCKKKJP@?$AAc?$AA?3?$AA?2?$AAp?$AAr?$AAo?$AAg?$AAr?$AAa?$AAm?$AA?5?$AAf?$AAi?$AAl?$AAe?$AAs?$AA?5?$AA?$CI?$AAx?$AA8?$AA6?$AA?$CJ?$AA?2?$AAw?$AAi?$AAn?$AAd?$AAo?$AAw?$AAs?$AA?5?$AAk@ ; `string'
PUBLIC	??_C@_1FM@GHGDCEAE@?$AA?$CB?$AAX?$AAM?$AAS?$AAc?$AAa?$AAl?$AAa?$AAr?$AAN?$AAe?$AAa?$AAr?$AAE?$AAq?$AAu?$AAa?$AAl?$AA?$CI?$AAV?$AAi?$AAe?$AAw?$AAW?$AAi?$AAd?$AAt?$AAh?$AA?0?$AA?5?$AA0?$AA?4@ ; `string'
PUBLIC	??_C@_1FO@OGFPCKGG@?$AA?$CB?$AAX?$AAM?$AAS?$AAc?$AAa?$AAl?$AAa?$AAr?$AAN?$AAe?$AAa?$AAr?$AAE?$AAq?$AAu?$AAa?$AAl?$AA?$CI?$AAV?$AAi?$AAe?$AAw?$AAH?$AAe?$AAi?$AAg?$AAh?$AAt?$AA?0?$AA?5?$AA0@ ; `string'
PUBLIC	??_C@_1FE@IMEJOJAH@?$AA?$CB?$AAX?$AAM?$AAS?$AAc?$AAa?$AAl?$AAa?$AAr?$AAN?$AAe?$AAa?$AAr?$AAE?$AAq?$AAu?$AAa?$AAl?$AA?$CI?$AAF?$AAa?$AAr?$AAZ?$AA?0?$AA?5?$AAN?$AAe?$AAa?$AAr?$AAZ?$AA?0?$AA?5@ ; `string'
PUBLIC	?__LINE__Var@?0??XMMatrixOrthographicLH@DirectX@@YQ?AUXMMATRIX@2@MMMM@Z@4JA ; `DirectX::XMMatrixOrthographicLH'::`1'::__LINE__Var
PUBLIC	??_7CPlayerCamera@Client@@6B@			; Client::CPlayerCamera::`vftable'
PUBLIC	?__LINE__Var@?0??Initialize@CPlayerCamera@Client@@UEAAJPEAX@Z@4JA ; `Client::CPlayerCamera::Initialize'::`1'::__LINE__Var
PUBLIC	??_C@_1JE@LOBGNKN@?$AAc?$AA?3?$AA?2?$AAu?$AAs?$AAe?$AAr?$AAs?$AA?2?$AAa?$AAr?$AAc?$AAc?$AAo?$AA?2?$AAd?$AAo?$AAc?$AAu?$AAm?$AAe?$AAn?$AAt?$AAs?$AA?2?$AAg?$AAi?$AAt?$AAh?$AAu?$AAb?$AA?2@ ; `string'
PUBLIC	??_C@_19OPBALDBC@?$AAp?$AAA?$AAr?$AAg?$AA?$AA@	; `string'
PUBLIC	??_C@_1BM@CJMPMHDD@?$AAc?$AAo?$AAm?$AA_?$AAt?$AAr?$AAa?$AAn?$AAs?$AAf?$AAo?$AAr?$AAm?$AA?$AA@ ; `string'
PUBLIC	??_C@_1DI@OLGFHDLM@?$AAc?$AAo?$AAm?$AA_?$AAc?$AAa?$AAm?$AAe?$AAr?$AAa?$AA_?$AAs?$AAo?$AAc?$AAk?$AAe?$AAt?$AA_?$AAt?$AAr?$AAa?$AAn?$AAs?$AAf?$AAo?$AAr?$AAm?$AA?$AA@ ; `string'
PUBLIC	??_C@_1BK@BKCENIHA@?$AAc?$AAo?$AAm?$AA_?$AAc?$AAo?$AAl?$AAl?$AAi?$AAd?$AAe?$AAr?$AA?$AA@ ; `string'
PUBLIC	??_C@_1CO@HJBGOIAH@?$AAp?$AAr?$AAo?$AAt?$AAo?$AA_?$AAc?$AAo?$AAm?$AA_?$AAo?$AAb?$AAb?$AA_?$AAc?$AAo?$AAl?$AAl?$AAi?$AAd?$AAe?$AAr?$AA?$AA@ ; `string'
PUBLIC	??_C@_1BK@GIOMOCNE@?$AAc?$AAo?$AAm?$AA_?$AAr?$AAe?$AAn?$AAd?$AAe?$AAr?$AAe?$AAr?$AA?$AA@ ; `string'
PUBLIC	??_C@_1CG@COFFFCLL@?$AAp?$AAr?$AAo?$AAt?$AAo?$AA_?$AAc?$AAo?$AAm?$AA_?$AAr?$AAe?$AAn?$AAd?$AAe?$AAr?$AAe?$AAr?$AA?$AA@ ; `string'
PUBLIC	??_C@_1BG@KPBPOMBH@?$AAc?$AAo?$AAm?$AA_?$AAb?$AAu?$AAf?$AAf?$AAe?$AAr?$AA?$AA@ ; `string'
PUBLIC	??_C@_1DA@BAIPNHMH@?$AAp?$AAr?$AAo?$AAt?$AAo?$AA_?$AAc?$AAo?$AAm?$AA_?$AAv?$AAi?$AAb?$AAu?$AAf?$AAf?$AAe?$AAr?$AA_?$AAr?$AAe?$AAc?$AAt?$AA?$AA@ ; `string'
PUBLIC	??_C@_1BI@MJAKLHOB@?$AAc?$AAo?$AAm?$AA_?$AAt?$AAe?$AAx?$AAt?$AAu?$AAr?$AAe?$AA?$AA@ ; `string'
PUBLIC	??_C@_1DA@CAAHNHCD@?$AAp?$AAr?$AAo?$AAt?$AAo?$AA_?$AAc?$AAo?$AAm?$AA_?$AAt?$AAe?$AAx?$AAt?$AAu?$AAr?$AAe?$AA_?$AAb?$AAl?$AAa?$AAc?$AAk?$AA?$AA@ ; `string'
PUBLIC	??_C@_1BG@GGOMMBBL@?$AAc?$AAo?$AAm?$AA_?$AAs?$AAh?$AAa?$AAd?$AAe?$AAr?$AA?$AA@ ; `string'
PUBLIC	??_C@_1CI@NFFEDNON@?$AAp?$AAr?$AAo?$AAt?$AAo?$AA_?$AAc?$AAo?$AAm?$AA_?$AAs?$AAh?$AAa?$AAd?$AAe?$AAr?$AA_?$AAu?$AAi?$AA?$AA@ ; `string'
PUBLIC	??_C@_0O@PFNLPMLD@g_WorldMatrix?$AA@		; `string'
PUBLIC	??_C@_0N@ELIMCBLG@g_ViewMatrix?$AA@		; `string'
PUBLIC	??_C@_0N@OOHDPIO@g_ProjMatrix?$AA@		; `string'
PUBLIC	??_C@_09HCHKCCII@g_Texture?$AA@			; `string'
PUBLIC	??_C@_0N@PLHHBDPH@g_FillAmount?$AA@		; `string'
PUBLIC	??_C@_07FMLFDDAN@g_Alpha?$AA@			; `string'
PUBLIC	??_C@_0P@IKACEMKG@g_DiscardValue?$AA@		; `string'
PUBLIC	??_R0?AVCGameObject@Engine@@@8			; Engine::CGameObject `RTTI Type Descriptor'
PUBLIC	??_R0?AVCBoss@Client@@@8			; Client::CBoss `RTTI Type Descriptor'
PUBLIC	?__LINE__Var@?0??Create@CPlayerCamera@Client@@SAPEAV23@PEAUID3D11Device@@PEAUID3D11DeviceContext@@@Z@4JA ; `Client::CPlayerCamera::Create'::`1'::__LINE__Var
PUBLIC	??_C@_0EK@IICOGJBM@c?3?2users?2arcco?2documents?2github?2@ ; `string'
PUBLIC	??_C@_1BA@HHOMBECE@?$AAM?$AAe?$AAs?$AAs?$AAa?$AAg?$AAe?$AA?$AA@ ; `string'
PUBLIC	??_C@_1EE@CMOMLOPH@?$AAF?$AAa?$AAi?$AAl?$AAe?$AAd?$AA?5?$AAt?$AAo?$AA?5?$AAC?$AAr?$AAe?$AAa?$AAt?$AAe?$AAd?$AA?5?$AA?3?$AA?5?$AAC?$AAP?$AAl?$AAa?$AAy?$AAe?$AAr?$AAC?$AAa?$AAm?$AAe?$AAr@ ; `string'
PUBLIC	?__LINE__Var@?0??Clone@CPlayerCamera@Client@@UEAAPEAVCGameObject@Engine@@PEAX@Z@4JA ; `Client::CPlayerCamera::Clone'::`1'::__LINE__Var
PUBLIC	??_C@_1EC@NFPGCMME@?$AAF?$AAa?$AAi?$AAl?$AAe?$AAd?$AA?5?$AAt?$AAo?$AA?5?$AAC?$AAl?$AAo?$AAn?$AAe?$AAd?$AA?5?$AA?3?$AA?5?$AAC?$AAP?$AAl?$AAa?$AAy?$AAe?$AAr?$AAC?$AAa?$AAm?$AAe?$AAr?$AAa@ ; `string'
PUBLIC	??_R4CPlayerCamera@Client@@6B@			; Client::CPlayerCamera::`RTTI Complete Object Locator'
PUBLIC	??_R0?AVCPlayerCamera@Client@@@8		; Client::CPlayerCamera `RTTI Type Descriptor'
PUBLIC	??_R3CPlayerCamera@Client@@8			; Client::CPlayerCamera::`RTTI Class Hierarchy Descriptor'
PUBLIC	??_R2CPlayerCamera@Client@@8			; Client::CPlayerCamera::`RTTI Base Class Array'
PUBLIC	??_R1A@?0A@EA@CPlayerCamera@Client@@8		; Client::CPlayerCamera::`RTTI Base Class Descriptor at (0,-1,0,64)'
PUBLIC	??_R1A@?0A@EA@CCamera@Engine@@8			; Engine::CCamera::`RTTI Base Class Descriptor at (0,-1,0,64)'
PUBLIC	??_R0?AVCCamera@Engine@@@8			; Engine::CCamera `RTTI Type Descriptor'
PUBLIC	??_R3CCamera@Engine@@8				; Engine::CCamera::`RTTI Class Hierarchy Descriptor'
PUBLIC	??_R2CCamera@Engine@@8				; Engine::CCamera::`RTTI Base Class Array'
PUBLIC	??_R1A@?0A@EA@CGameObject@Engine@@8		; Engine::CGameObject::`RTTI Base Class Descriptor at (0,-1,0,64)'
PUBLIC	??_R3CGameObject@Engine@@8			; Engine::CGameObject::`RTTI Class Hierarchy Descriptor'
PUBLIC	??_R2CGameObject@Engine@@8			; Engine::CGameObject::`RTTI Base Class Array'
PUBLIC	??_R1A@?0A@EA@CBase@Engine@@8			; Engine::CBase::`RTTI Base Class Descriptor at (0,-1,0,64)'
PUBLIC	??_R0?AVCBase@Engine@@@8			; Engine::CBase `RTTI Type Descriptor'
PUBLIC	??_R3CBase@Engine@@8				; Engine::CBase::`RTTI Class Hierarchy Descriptor'
PUBLIC	??_R2CBase@Engine@@8				; Engine::CBase::`RTTI Base Class Array'
PUBLIC	__real@3727c5ac
PUBLIC	__real@3c8efa35
PUBLIC	__real@3d4ccccd
PUBLIC	__real@3dcccccd
PUBLIC	__real@3f000000
PUBLIC	__real@3f800000
PUBLIC	__real@3f99999a
PUBLIC	__real@3fc00000
PUBLIC	__real@3ff8000000000000
PUBLIC	__real@40000000
PUBLIC	__real@40200000
PUBLIC	__real@40400000
PUBLIC	__real@40800000
PUBLIC	__real@40c00000
PUBLIC	__real@40e00000
PUBLIC	__real@40f00000
PUBLIC	__real@42340000
PUBLIC	__real@43b40000
PUBLIC	__real@44200000
PUBLIC	__real@44340000
PUBLIC	__real@44a00000
PUBLIC	__real@44bb8000
PUBLIC	__xmm@00000000000000000000000000000000
PUBLIC	__xmm@80000000800000008000000080000000
EXTRN	??3@YAXPEAX_K@Z:PROC				; operator delete
EXTRN	__imp_MessageBoxW:PROC
EXTRN	__imp__wassert:PROC
EXTRN	fabs:PROC
EXTRN	__imp_cosf:PROC
EXTRN	??2@YAPEAX_KHPEBDH@Z:PROC			; operator new
EXTRN	??3@YAXPEAXHPEBDH@Z:PROC			; operator delete
EXTRN	__imp_?Release@CBase@Engine@@QEAAKXZ:PROC
EXTRN	__imp_?Find_Component@CGameObject@Engine@@QEAAPEAVCComponent@2@PEB_W@Z:PROC
EXTRN	__imp_?Add_Component@CGameObject@Engine@@IEAAJIPEB_W0PEAPEAVCComponent@2@PEAX@Z:PROC
EXTRN	__imp_?Get_State@CTransform@Engine@@QEAA?AT__m128@@W4STATE@12@@Z:PROC
EXTRN	__imp_?Set_State@CTransform@Engine@@QEAAXW4STATE@12@T__m128@@@Z:PROC
EXTRN	__imp_?LookAt@CTransform@Engine@@QEAAXT__m128@@@Z:PROC
EXTRN	__imp_?Create@CTransform@Engine@@SAPEAV12@PEAUID3D11Device@@PEAUID3D11DeviceContext@@@Z:PROC
EXTRN	__imp_??0CCamera@Engine@@IEAA@PEAUID3D11Device@@PEAUID3D11DeviceContext@@@Z:PROC
EXTRN	__imp_??0CCamera@Engine@@IEAA@AEBV01@@Z:PROC
EXTRN	__imp_??1CCamera@Engine@@MEAA@XZ:PROC
EXTRN	__imp_?Initialize_Prototype@CCamera@Engine@@UEAAJXZ:PROC
EXTRN	__imp_?Tick@CCamera@Engine@@UEAAXN@Z:PROC
EXTRN	__imp_?LateTick@CCamera@Engine@@UEAAXN@Z:PROC
EXTRN	__imp_?Render@CCamera@Engine@@UEAAJXZ:PROC
EXTRN	__imp_?StartShake@CCamera@Engine@@QEAAXMM@Z:PROC
EXTRN	__imp_?ShakeReset@CCamera@Engine@@QEAAXXZ:PROC
EXTRN	__imp_?Free@CCamera@Engine@@UEAAXXZ:PROC
EXTRN	??_ECPlayerCamera@Client@@EEAAPEAXI@Z:PROC	; Client::CPlayerCamera::`vector deleting destructor'
EXTRN	__imp_?Render@CVIBuffer@Engine@@UEAAJXZ:PROC
EXTRN	__imp_?Add_RenderGroup@CRenderer@Engine@@QEAAJW4RENDER_GROUP@12@PEAVCGameObject@2@@Z:PROC
EXTRN	__imp_?Setup_ShaderResource@CTexture@Engine@@QEAAJPEAVCShader@2@PEBDI@Z:PROC
EXTRN	__imp_?Begin@CShader@Engine@@QEAAJI@Z:PROC
EXTRN	__imp_?SetMatrix@CShader@Engine@@QEAAJPEBDPEBUXMFLOAT4X4@DirectX@@@Z:PROC
EXTRN	__imp_?SetRawValue@CShader@Engine@@QEAAJPEBDPEBXI@Z:PROC
EXTRN	__imp_?GetInstance@CGameInstance@Engine@@SAPEAV12@XZ:PROC
EXTRN	__imp_?Get_Transform_Matrix_Inverse@CGameInstance@Engine@@QEAA?AUXMMATRIX@DirectX@@W4TRANSFORM_STATE@CPipeLine@2@@Z:PROC
EXTRN	__imp_?Input_KeyState_Custom@CGameInstance@Engine@@QEAA?AW4KEY_STATE@2@H@Z:PROC
EXTRN	__imp_?AddCollider@CGameInstance@Engine@@QEAAJPEAVCCollider@2@I@Z:PROC
EXTRN	?IsCameraLockOn@CCharacter@Client@@QEAA_NXZ:PROC ; Client::CCharacter::IsCameraLockOn
EXTRN	?LockOnCameraPosition@CCharacter@Client@@QEAA?AUXMFLOAT3@DirectX@@XZ:PROC ; Client::CCharacter::LockOnCameraPosition
EXTRN	?GetInstance@CApplicationManager@Client@@SAPEAV12@XZ:PROC ; Client::CApplicationManager::GetInstance
EXTRN	?GetInstance@CSkillBallSystem@Client@@SAPEAV12@XZ:PROC ; Client::CSkillBallSystem::GetInstance
EXTRN	?Clear@CSkillBallSystem@Client@@QEAAXXZ:PROC	; Client::CSkillBallSystem::Clear
EXTRN	?GetLengthFromCamera@CGameObject@Engine@@UEAAMXZ:PROC ; Engine::CGameObject::GetLengthFromCamera
EXTRN	?RenderGUI@CGameObject@Engine@@UEAAXXZ:PROC	; Engine::CGameObject::RenderGUI
EXTRN	_RTC_CheckStackVars:PROC
EXTRN	_RTC_InitBase:PROC
EXTRN	_RTC_Shutdown:PROC
EXTRN	__CxxFrameHandler3:PROC
EXTRN	__GSHandlerCheck:PROC
EXTRN	__GSHandlerCheck_EH:PROC
EXTRN	__RTDynamicCast:PROC
EXTRN	__security_check_cookie:PROC
EXTRN	??_7type_info@@6B@:BYTE				; type_info::`vftable'
EXTRN	__security_cookie:QWORD
EXTRN	_fltused:DWORD
;	COMDAT pdata
pdata	SEGMENT
$pdata$??_H@YAXPEAX_K1P6APEAX0@Z@Z DD imagerel $LN7
	DD	imagerel $LN7+181
	DD	imagerel $unwind$??_H@YAXPEAX_K1P6APEAX0@Z@Z
pdata	ENDS
;	COMDAT pdata
pdata	SEGMENT
$pdata$?__empty_global_delete@@YAXPEAX@Z DD imagerel $LN3
	DD	imagerel $LN3+50
	DD	imagerel $unwind$?__empty_global_delete@@YAXPEAX@Z
pdata	ENDS
;	COMDAT pdata
pdata	SEGMENT
$pdata$?__empty_global_delete@@YAXPEAX_K@Z DD imagerel $LN3
	DD	imagerel $LN3+55
	DD	imagerel $unwind$?__empty_global_delete@@YAXPEAX_K@Z
pdata	ENDS
;	COMDAT pdata
pdata	SEGMENT
$pdata$fabsf DD	imagerel $LN3
	DD	imagerel $LN3+62
	DD	imagerel $unwind$fabsf
pdata	ENDS
;	COMDAT pdata
pdata	SEGMENT
$pdata$?cos@@YAMM@Z DD imagerel $LN3
	DD	imagerel $LN3+59
	DD	imagerel $unwind$?cos@@YAMM@Z
pdata	ENDS
;	COMDAT pdata
pdata	SEGMENT
$pdata$?XMConvertToRadians@DirectX@@YAMM@Z DD imagerel $LN3
	DD	imagerel $LN3+61
	DD	imagerel $unwind$?XMConvertToRadians@DirectX@@YAMM@Z
pdata	ENDS
;	COMDAT pdata
pdata	SEGMENT
$pdata$??BXMVECTORF32@DirectX@@QEBA?AT__m128@@XZ DD imagerel $LN3
	DD	imagerel $LN3+82
	DD	imagerel $unwind$??BXMVECTORF32@DirectX@@QEBA?AT__m128@@XZ
pdata	ENDS
;	COMDAT pdata
pdata	SEGMENT
$pdata$??BXMVECTORI32@DirectX@@QEBA?AT__m128@@XZ DD imagerel $LN3
	DD	imagerel $LN3+82
	DD	imagerel $unwind$??BXMVECTORI32@DirectX@@QEBA?AT__m128@@XZ
pdata	ENDS
;	COMDAT pdata
pdata	SEGMENT
$pdata$??BXMVECTORU32@DirectX@@QEBA?AT__m128@@XZ DD imagerel $LN3
	DD	imagerel $LN3+82
	DD	imagerel $unwind$??BXMVECTORU32@DirectX@@QEBA?AT__m128@@XZ
pdata	ENDS
;	COMDAT pdata
pdata	SEGMENT
$pdata$??HDirectX@@YQ?AT__m128@@T1@0@Z DD imagerel $LN3
	DD	imagerel $LN3+99
	DD	imagerel $unwind$??HDirectX@@YQ?AT__m128@@T1@0@Z
pdata	ENDS
;	COMDAT pdata
pdata	SEGMENT
$pdata$??GDirectX@@YQ?AT__m128@@T1@0@Z DD imagerel $LN3
	DD	imagerel $LN3+99
	DD	imagerel $unwind$??GDirectX@@YQ?AT__m128@@T1@0@Z
pdata	ENDS
;	COMDAT pdata
pdata	SEGMENT
$pdata$??DDirectX@@YQ?AT__m128@@T1@M@Z DD imagerel $LN3
	DD	imagerel $LN3+92
	DD	imagerel $unwind$??DDirectX@@YQ?AT__m128@@T1@M@Z
pdata	ENDS
;	COMDAT pdata
pdata	SEGMENT
$pdata$??0XMMATRIX@DirectX@@QEAA@XZ DD imagerel $LN3
	DD	imagerel $LN3+57
	DD	imagerel $unwind$??0XMMATRIX@DirectX@@QEAA@XZ
pdata	ENDS
;	COMDAT pdata
pdata	SEGMENT
$pdata$??DXMMATRIX@DirectX@@QEBQ?AU01@U01@@Z DD imagerel $LN3
	DD	imagerel $LN3+224
	DD	imagerel $unwind$??DXMMATRIX@DirectX@@QEBQ?AU01@U01@@Z
pdata	ENDS
;	COMDAT pdata
pdata	SEGMENT
$pdata$??0XMFLOAT3@DirectX@@QEAA@XZ DD imagerel $LN3
	DD	imagerel $LN3+57
	DD	imagerel $unwind$??0XMFLOAT3@DirectX@@QEAA@XZ
pdata	ENDS
;	COMDAT pdata
pdata	SEGMENT
$pdata$??0XMFLOAT3@DirectX@@QEAA@MMM@Z DD imagerel $LN3
	DD	imagerel $LN3+134
	DD	imagerel $unwind$??0XMFLOAT3@DirectX@@QEAA@MMM@Z
pdata	ENDS
;	COMDAT pdata
pdata	SEGMENT
$pdata$??4XMFLOAT3@DirectX@@QEAAAEAU01@AEBU01@@Z DD imagerel $LN3
	DD	imagerel $LN3+132
	DD	imagerel $unwind$??4XMFLOAT3@DirectX@@QEAAAEAU01@AEBU01@@Z
pdata	ENDS
;	COMDAT pdata
pdata	SEGMENT
$pdata$??0XMFLOAT4@DirectX@@QEAA@XZ DD imagerel $LN3
	DD	imagerel $LN3+57
	DD	imagerel $unwind$??0XMFLOAT4@DirectX@@QEAA@XZ
pdata	ENDS
;	COMDAT pdata
pdata	SEGMENT
$pdata$??4XMFLOAT4@DirectX@@QEAAAEAU01@AEBU01@@Z DD imagerel $LN3
	DD	imagerel $LN3+156
	DD	imagerel $unwind$??4XMFLOAT4@DirectX@@QEAAAEAU01@AEBU01@@Z
pdata	ENDS
;	COMDAT pdata
pdata	SEGMENT
$pdata$??0XMFLOAT4X4@DirectX@@QEAA@XZ DD imagerel $LN3
	DD	imagerel $LN3+57
	DD	imagerel $unwind$??0XMFLOAT4X4@DirectX@@QEAA@XZ
pdata	ENDS
;	COMDAT pdata
pdata	SEGMENT
$pdata$?XMLoadFloat3@DirectX@@YQ?AT__m128@@PEBUXMFLOAT3@1@@Z DD imagerel $LN4
	DD	imagerel $LN4+277
	DD	imagerel $unwind$?XMLoadFloat3@DirectX@@YQ?AT__m128@@PEBUXMFLOAT3@1@@Z
pdata	ENDS
;	COMDAT pdata
pdata	SEGMENT
$pdata$?XMLoadFloat4@DirectX@@YQ?AT__m128@@PEBUXMFLOAT4@1@@Z DD imagerel $LN4
	DD	imagerel $LN4+119
	DD	imagerel $unwind$?XMLoadFloat4@DirectX@@YQ?AT__m128@@PEBUXMFLOAT4@1@@Z
pdata	ENDS
;	COMDAT pdata
pdata	SEGMENT
$pdata$?XMStoreFloat4@DirectX@@YQXPEAUXMFLOAT4@1@T__m128@@@Z DD imagerel $LN4
	DD	imagerel $LN4+125
	DD	imagerel $unwind$?XMStoreFloat4@DirectX@@YQXPEAUXMFLOAT4@1@T__m128@@@Z
pdata	ENDS
;	COMDAT pdata
pdata	SEGMENT
$pdata$?XMStoreFloat4x4@DirectX@@YQXPEAUXMFLOAT4X4@1@UXMMATRIX@1@@Z DD imagerel $LN4
	DD	imagerel $LN4+247
	DD	imagerel $unwind$?XMStoreFloat4x4@DirectX@@YQXPEAUXMFLOAT4X4@1@UXMMATRIX@1@@Z
pdata	ENDS
;	COMDAT pdata
pdata	SEGMENT
$pdata$?XMVectorSet@DirectX@@YQ?AT__m128@@MMMM@Z DD imagerel $LN3
	DD	imagerel $LN3+121
	DD	imagerel $unwind$?XMVectorSet@DirectX@@YQ?AT__m128@@MMMM@Z
pdata	ENDS
;	COMDAT pdata
pdata	SEGMENT
$pdata$?XMVectorGetX@DirectX@@YQMT__m128@@@Z DD imagerel $LN3
	DD	imagerel $LN3+76
	DD	imagerel $unwind$?XMVectorGetX@DirectX@@YQMT__m128@@@Z
pdata	ENDS
;	COMDAT pdata
pdata	SEGMENT
$pdata$?XMVectorGetY@DirectX@@YQMT__m128@@@Z DD imagerel $LN3
	DD	imagerel $LN3+103
	DD	imagerel $unwind$?XMVectorGetY@DirectX@@YQMT__m128@@@Z
pdata	ENDS
;	COMDAT pdata
pdata	SEGMENT
$pdata$?XMVectorSetY@DirectX@@YQ?AT__m128@@T2@M@Z DD imagerel $LN3
	DD	imagerel $LN3+185
	DD	imagerel $unwind$?XMVectorSetY@DirectX@@YQ?AT__m128@@T2@M@Z
pdata	ENDS
;	COMDAT pdata
pdata	SEGMENT
$pdata$?XMVectorAdd@DirectX@@YQ?AT__m128@@T2@0@Z DD imagerel $LN3
	DD	imagerel $LN3+94
	DD	imagerel $unwind$?XMVectorAdd@DirectX@@YQ?AT__m128@@T2@0@Z
pdata	ENDS
;	COMDAT pdata
pdata	SEGMENT
$pdata$?XMVectorSubtract@DirectX@@YQ?AT__m128@@T2@0@Z DD imagerel $LN3
	DD	imagerel $LN3+94
	DD	imagerel $unwind$?XMVectorSubtract@DirectX@@YQ?AT__m128@@T2@0@Z
pdata	ENDS
;	COMDAT pdata
pdata	SEGMENT
$pdata$?XMVectorScale@DirectX@@YQ?AT__m128@@T2@M@Z DD imagerel $LN3
	DD	imagerel $LN3+113
	DD	imagerel $unwind$?XMVectorScale@DirectX@@YQ?AT__m128@@T2@M@Z
pdata	ENDS
;	COMDAT pdata
pdata	SEGMENT
$pdata$?XMVectorLerp@DirectX@@YQ?AT__m128@@T2@0M@Z DD imagerel $LN3
	DD	imagerel $LN3+193
	DD	imagerel $unwind$?XMVectorLerp@DirectX@@YQ?AT__m128@@T2@0M@Z
pdata	ENDS
;	COMDAT pdata
pdata	SEGMENT
$pdata$?XMVector3Length@DirectX@@YQ?AT__m128@@T2@@Z DD imagerel $LN3
	DD	imagerel $LN3+243
	DD	imagerel $unwind$?XMVector3Length@DirectX@@YQ?AT__m128@@T2@@Z
pdata	ENDS
;	COMDAT pdata
pdata	SEGMENT
$pdata$?XMVector3Normalize@DirectX@@YQ?AT__m128@@T2@@Z DD imagerel $LN3
	DD	imagerel $LN3+535
	DD	imagerel $unwind$?XMVector3Normalize@DirectX@@YQ?AT__m128@@T2@@Z
pdata	ENDS
;	COMDAT pdata
pdata	SEGMENT
$pdata$?XMMatrixMultiply@DirectX@@YQ?AUXMMATRIX@1@U21@AEBU21@@Z DD imagerel $LN3
	DD	imagerel $LN3+2098
	DD	imagerel $unwind$?XMMatrixMultiply@DirectX@@YQ?AUXMMATRIX@1@U21@AEBU21@@Z
pdata	ENDS
;	COMDAT pdata
pdata	SEGMENT
$pdata$?XMMatrixIdentity@DirectX@@YQ?AUXMMATRIX@1@XZ DD imagerel $LN3
	DD	imagerel $LN3+209
	DD	imagerel $unwind$?XMMatrixIdentity@DirectX@@YQ?AUXMMATRIX@1@XZ
pdata	ENDS
;	COMDAT pdata
pdata	SEGMENT
$pdata$?XMMatrixTranslation@DirectX@@YQ?AUXMMATRIX@1@MMM@Z DD imagerel $LN3
	DD	imagerel $LN3+270
	DD	imagerel $unwind$?XMMatrixTranslation@DirectX@@YQ?AUXMMATRIX@1@MMM@Z
pdata	ENDS
;	COMDAT pdata
pdata	SEGMENT
$pdata$?XMMatrixScaling@DirectX@@YQ?AUXMMATRIX@1@MMM@Z DD imagerel $LN3
	DD	imagerel $LN3+328
	DD	imagerel $unwind$?XMMatrixScaling@DirectX@@YQ?AUXMMATRIX@1@MMM@Z
pdata	ENDS
;	COMDAT pdata
pdata	SEGMENT
$pdata$?XMMatrixOrthographicLH@DirectX@@YQ?AUXMMATRIX@1@MMMM@Z DD imagerel $LN6
	DD	imagerel $LN6+844
	DD	imagerel $unwind$?XMMatrixOrthographicLH@DirectX@@YQ?AUXMMATRIX@1@MMMM@Z
pdata	ENDS
;	COMDAT pdata
pdata	SEGMENT
$pdata$?XMScalarNearEqual@DirectX@@YA_NMMM@Z DD imagerel $LN5
	DD	imagerel $LN5+130
	DD	imagerel $unwind$?XMScalarNearEqual@DirectX@@YA_NMMM@Z
pdata	ENDS
;	COMDAT pdata
pdata	SEGMENT
$pdata$??0CPlayerCamera@Client@@AEAA@PEAUID3D11Device@@PEAUID3D11DeviceContext@@@Z DD imagerel $LN4
	DD	imagerel $LN4+670
	DD	imagerel $unwind$??0CPlayerCamera@Client@@AEAA@PEAUID3D11Device@@PEAUID3D11DeviceContext@@@Z
pdata	ENDS
;	COMDAT pdata
pdata	SEGMENT
$pdata$?dtor$0@?0???0CPlayerCamera@Client@@AEAA@PEAUID3D11Device@@PEAUID3D11DeviceContext@@@Z@4HA DD imagerel ?dtor$0@?0???0CPlayerCamera@Client@@AEAA@PEAUID3D11Device@@PEAUID3D11DeviceContext@@@Z@4HA
	DD	imagerel ?dtor$0@?0???0CPlayerCamera@Client@@AEAA@PEAUID3D11Device@@PEAUID3D11DeviceContext@@@Z@4HA+40
	DD	imagerel $unwind$?dtor$0@?0???0CPlayerCamera@Client@@AEAA@PEAUID3D11Device@@PEAUID3D11DeviceContext@@@Z@4HA
pdata	ENDS
;	COMDAT pdata
pdata	SEGMENT
$pdata$??0CPlayerCamera@Client@@AEAA@AEBV01@@Z DD imagerel $LN4
	DD	imagerel $LN4+658
	DD	imagerel $unwind$??0CPlayerCamera@Client@@AEAA@AEBV01@@Z
pdata	ENDS
;	COMDAT pdata
pdata	SEGMENT
$pdata$?dtor$0@?0???0CPlayerCamera@Client@@AEAA@AEBV01@@Z@4HA DD imagerel ?dtor$0@?0???0CPlayerCamera@Client@@AEAA@AEBV01@@Z@4HA
	DD	imagerel ?dtor$0@?0???0CPlayerCamera@Client@@AEAA@AEBV01@@Z@4HA+40
	DD	imagerel $unwind$?dtor$0@?0???0CPlayerCamera@Client@@AEAA@AEBV01@@Z@4HA
pdata	ENDS
;	COMDAT pdata
pdata	SEGMENT
$pdata$??1CPlayerCamera@Client@@EEAA@XZ DD imagerel $LN3
	DD	imagerel $LN3+65
	DD	imagerel $unwind$??1CPlayerCamera@Client@@EEAA@XZ
pdata	ENDS
;	COMDAT pdata
pdata	SEGMENT
$pdata$?Initialize_Prototype@CPlayerCamera@Client@@UEAAJXZ DD imagerel $LN4
	DD	imagerel $LN4+78
	DD	imagerel $unwind$?Initialize_Prototype@CPlayerCamera@Client@@UEAAJXZ
pdata	ENDS
;	COMDAT pdata
pdata	SEGMENT
$pdata$?Initialize@CPlayerCamera@Client@@UEAAJPEAX@Z DD imagerel $LN11
	DD	imagerel $LN11+1921
	DD	imagerel $unwind$?Initialize@CPlayerCamera@Client@@UEAAJPEAX@Z
pdata	ENDS
;	COMDAT pdata
pdata	SEGMENT
$pdata$?Tick@CPlayerCamera@Client@@UEAAXN@Z DD imagerel $LN12
	DD	imagerel $LN12+466
	DD	imagerel $unwind$?Tick@CPlayerCamera@Client@@UEAAXN@Z
pdata	ENDS
;	COMDAT pdata
pdata	SEGMENT
$pdata$?LateTick@CPlayerCamera@Client@@UEAAXN@Z DD imagerel $LN12
	DD	imagerel $LN12+605
	DD	imagerel $unwind$?LateTick@CPlayerCamera@Client@@UEAAXN@Z
pdata	ENDS
;	COMDAT pdata
pdata	SEGMENT
$pdata$?Render@CPlayerCamera@Client@@UEAAJXZ DD imagerel $LN11
	DD	imagerel $LN11+586
	DD	imagerel $unwind$?Render@CPlayerCamera@Client@@UEAAJXZ
pdata	ENDS
;	COMDAT pdata
pdata	SEGMENT
$pdata$?AttackShake@CPlayerCamera@Client@@QEAAXXZ DD imagerel $LN3
	DD	imagerel $LN3+94
	DD	imagerel $unwind$?AttackShake@CPlayerCamera@Client@@QEAAXXZ
pdata	ENDS
;	COMDAT pdata
pdata	SEGMENT
$pdata$?Add_Components@CPlayerCamera@Client@@QEAAJXZ DD imagerel $LN3
	DD	imagerel $LN3+52
	DD	imagerel $unwind$?Add_Components@CPlayerCamera@Client@@QEAAJXZ
pdata	ENDS
;	COMDAT pdata
pdata	SEGMENT
$pdata$?Setup_ShaderResources@CPlayerCamera@Client@@QEAAJXZ DD imagerel $LN3
	DD	imagerel $LN3+52
	DD	imagerel $unwind$?Setup_ShaderResources@CPlayerCamera@Client@@QEAAJXZ
pdata	ENDS
;	COMDAT pdata
pdata	SEGMENT
$pdata$?DefaultCameraMovement@CPlayerCamera@Client@@AEAAXN@Z DD imagerel $LN8
	DD	imagerel $LN8+1886
	DD	imagerel $unwind$?DefaultCameraMovement@CPlayerCamera@Client@@AEAAXN@Z
pdata	ENDS
;	COMDAT pdata
pdata	SEGMENT
$pdata$?WinActionMovement@CPlayerCamera@Client@@AEAAXN@Z DD imagerel $LN5
	DD	imagerel $LN5+649
	DD	imagerel $unwind$?WinActionMovement@CPlayerCamera@Client@@AEAAXN@Z
pdata	ENDS
;	COMDAT pdata
pdata	SEGMENT
$pdata$?Create@CPlayerCamera@Client@@SAPEAV12@PEAUID3D11Device@@PEAUID3D11DeviceContext@@@Z DD imagerel $LN7
	DD	imagerel $LN7+294
	DD	imagerel $unwind$?Create@CPlayerCamera@Client@@SAPEAV12@PEAUID3D11Device@@PEAUID3D11DeviceContext@@@Z
pdata	ENDS
;	COMDAT pdata
pdata	SEGMENT
$pdata$?dtor$0@?0??Create@CPlayerCamera@Client@@SAPEAV12@PEAUID3D11Device@@PEAUID3D11DeviceContext@@@Z@4HA DD imagerel ?dtor$0@?0??Create@CPlayerCamera@Client@@SAPEAV12@PEAUID3D11Device@@PEAUID3D11DeviceContext@@@Z@4HA
	DD	imagerel ?dtor$0@?0??Create@CPlayerCamera@Client@@SAPEAV12@PEAUID3D11Device@@PEAUID3D11DeviceContext@@@Z@4HA+61
	DD	imagerel $unwind$?dtor$0@?0??Create@CPlayerCamera@Client@@SAPEAV12@PEAUID3D11Device@@PEAUID3D11DeviceContext@@@Z@4HA
pdata	ENDS
;	COMDAT pdata
pdata	SEGMENT
$pdata$?Clone@CPlayerCamera@Client@@UEAAPEAVCGameObject@Engine@@PEAX@Z DD imagerel $LN7
	DD	imagerel $LN7+294
	DD	imagerel $unwind$?Clone@CPlayerCamera@Client@@UEAAPEAVCGameObject@Engine@@PEAX@Z
pdata	ENDS
;	COMDAT pdata
pdata	SEGMENT
$pdata$?dtor$0@?0??Clone@CPlayerCamera@Client@@UEAAPEAVCGameObject@Engine@@PEAX@Z@4HA DD imagerel ?dtor$0@?0??Clone@CPlayerCamera@Client@@UEAAPEAVCGameObject@Engine@@PEAX@Z@4HA
	DD	imagerel ?dtor$0@?0??Clone@CPlayerCamera@Client@@UEAAPEAVCGameObject@Engine@@PEAX@Z@4HA+61
	DD	imagerel $unwind$?dtor$0@?0??Clone@CPlayerCamera@Client@@UEAAPEAVCGameObject@Engine@@PEAX@Z@4HA
pdata	ENDS
;	COMDAT pdata
pdata	SEGMENT
$pdata$?Free@CPlayerCamera@Client@@UEAAXXZ DD imagerel $LN3
	DD	imagerel $LN3+168
	DD	imagerel $unwind$?Free@CPlayerCamera@Client@@UEAAXXZ
pdata	ENDS
;	COMDAT pdata
pdata	SEGMENT
$pdata$??_GCPlayerCamera@Client@@EEAAPEAXI@Z DD imagerel $LN4
	DD	imagerel $LN4+105
	DD	imagerel $unwind$??_GCPlayerCamera@Client@@EEAAPEAXI@Z
pdata	ENDS
;	COMDAT pdata
pdata	SEGMENT
$pdata$??0tagColliderDesc@CCollider@Engine@@QEAA@XZ DD imagerel $LN3
	DD	imagerel $LN3+116
	DD	imagerel $unwind$??0tagColliderDesc@CCollider@Engine@@QEAA@XZ
pdata	ENDS
;	COMDAT pdata
pdata	SEGMENT
$pdata$?SetWinMotion@CCharacter@Client@@QEAAX_N@Z DD imagerel $LN3
	DD	imagerel $LN3+74
	DD	imagerel $unwind$?SetWinMotion@CCharacter@Client@@QEAAX_N@Z
pdata	ENDS
;	COMDAT pdata
pdata	SEGMENT
$pdata$?GetLockOnTarget@CCharacter@Client@@QEAAPEAVCGameObject@Engine@@XZ DD imagerel $LN5
	DD	imagerel $LN5+108
	DD	imagerel $unwind$?GetLockOnTarget@CCharacter@Client@@QEAAPEAVCGameObject@Engine@@XZ
pdata	ENDS
;	COMDAT pdata
pdata	SEGMENT
$pdata$?SetLevelFinish@CApplicationManager@Client@@QEAAXW4LEVEL@12@@Z DD imagerel $LN3
	DD	imagerel $LN3+72
	DD	imagerel $unwind$?SetLevelFinish@CApplicationManager@Client@@QEAAXW4LEVEL@12@@Z
pdata	ENDS
;	COMDAT pdata
pdata	SEGMENT
$pdata$?IsLevelFinish@CApplicationManager@Client@@QEAA_NW4LEVEL@12@@Z DD imagerel $LN3
	DD	imagerel $LN3+72
	DD	imagerel $unwind$?IsLevelFinish@CApplicationManager@Client@@QEAA_NW4LEVEL@12@@Z
pdata	ENDS
;	COMDAT pdata
pdata	SEGMENT
$pdata$?SetWinMotion@CApplicationManager@Client@@QEAAX_N@Z DD imagerel $LN3
	DD	imagerel $LN3+71
	DD	imagerel $unwind$?SetWinMotion@CApplicationManager@Client@@QEAAX_N@Z
pdata	ENDS
;	COMDAT pdata
pdata	SEGMENT
$pdata$??$Safe_Release@PEAVCPlayerCamera@Client@@@Engine@@YAKAEAPEAVCPlayerCamera@Client@@@Z DD imagerel $LN5
	DD	imagerel $LN5+114
	DD	imagerel $unwind$??$Safe_Release@PEAVCPlayerCamera@Client@@@Engine@@YAKAEAPEAVCPlayerCamera@Client@@@Z
pdata	ENDS
;	COMDAT pdata
pdata	SEGMENT
$pdata$??$Safe_Release@PEAVCTransform@Engine@@@Engine@@YAKAEAPEAVCTransform@0@@Z DD imagerel $LN5
	DD	imagerel $LN5+114
	DD	imagerel $unwind$??$Safe_Release@PEAVCTransform@Engine@@@Engine@@YAKAEAPEAVCTransform@0@@Z
pdata	ENDS
;	COMDAT pdata
pdata	SEGMENT
$pdata$??$Safe_Release@PEAVCRenderer@Engine@@@Engine@@YAKAEAPEAVCRenderer@0@@Z DD imagerel $LN5
	DD	imagerel $LN5+114
	DD	imagerel $unwind$??$Safe_Release@PEAVCRenderer@Engine@@@Engine@@YAKAEAPEAVCRenderer@0@@Z
pdata	ENDS
;	COMDAT pdata
pdata	SEGMENT
$pdata$??$Safe_Release@PEAVCShader@Engine@@@Engine@@YAKAEAPEAVCShader@0@@Z DD imagerel $LN5
	DD	imagerel $LN5+114
	DD	imagerel $unwind$??$Safe_Release@PEAVCShader@Engine@@@Engine@@YAKAEAPEAVCShader@0@@Z
pdata	ENDS
;	COMDAT pdata
pdata	SEGMENT
$pdata$??$Safe_Release@PEAVCVIBuffer_Rect@Engine@@@Engine@@YAKAEAPEAVCVIBuffer_Rect@0@@Z DD imagerel $LN5
	DD	imagerel $LN5+114
	DD	imagerel $unwind$??$Safe_Release@PEAVCVIBuffer_Rect@Engine@@@Engine@@YAKAEAPEAVCVIBuffer_Rect@0@@Z
pdata	ENDS
;	COMDAT pdata
pdata	SEGMENT
$pdata$??$Safe_Release@PEAVCTexture@Engine@@@Engine@@YAKAEAPEAVCTexture@0@@Z DD imagerel $LN5
	DD	imagerel $LN5+114
	DD	imagerel $unwind$??$Safe_Release@PEAVCTexture@Engine@@@Engine@@YAKAEAPEAVCTexture@0@@Z
pdata	ENDS
;	COMDAT __xmm@80000000800000008000000080000000
CONST	SEGMENT
__xmm@80000000800000008000000080000000 DB 00H, 00H, 00H, 080H, 00H, 00H, 00H
	DB	080H, 00H, 00H, 00H, 080H, 00H, 00H, 00H, 080H
CONST	ENDS
;	COMDAT __xmm@00000000000000000000000000000000
CONST	SEGMENT
__xmm@00000000000000000000000000000000 DB 00H, 00H, 00H, 00H, 00H, 00H, 00H
	DB	00H, 00H, 00H, 00H, 00H, 00H, 00H, 00H, 00H
CONST	ENDS
;	COMDAT __real@44bb8000
CONST	SEGMENT
__real@44bb8000 DD 044bb8000r			; 1500
CONST	ENDS
;	COMDAT __real@44a00000
CONST	SEGMENT
__real@44a00000 DD 044a00000r			; 1280
CONST	ENDS
;	COMDAT __real@44340000
CONST	SEGMENT
__real@44340000 DD 044340000r			; 720
CONST	ENDS
;	COMDAT __real@44200000
CONST	SEGMENT
__real@44200000 DD 044200000r			; 640
CONST	ENDS
;	COMDAT __real@43b40000
CONST	SEGMENT
__real@43b40000 DD 043b40000r			; 360
CONST	ENDS
;	COMDAT __real@42340000
CONST	SEGMENT
__real@42340000 DD 042340000r			; 45
CONST	ENDS
;	COMDAT __real@40f00000
CONST	SEGMENT
__real@40f00000 DD 040f00000r			; 7.5
CONST	ENDS
;	COMDAT __real@40e00000
CONST	SEGMENT
__real@40e00000 DD 040e00000r			; 7
CONST	ENDS
;	COMDAT __real@40c00000
CONST	SEGMENT
__real@40c00000 DD 040c00000r			; 6
CONST	ENDS
;	COMDAT __real@40800000
CONST	SEGMENT
__real@40800000 DD 040800000r			; 4
CONST	ENDS
;	COMDAT __real@40400000
CONST	SEGMENT
__real@40400000 DD 040400000r			; 3
CONST	ENDS
;	COMDAT __real@40200000
CONST	SEGMENT
__real@40200000 DD 040200000r			; 2.5
CONST	ENDS
;	COMDAT __real@40000000
CONST	SEGMENT
__real@40000000 DD 040000000r			; 2
CONST	ENDS
;	COMDAT __real@3ff8000000000000
CONST	SEGMENT
__real@3ff8000000000000 DQ 03ff8000000000000r	; 1.5
CONST	ENDS
;	COMDAT __real@3fc00000
CONST	SEGMENT
__real@3fc00000 DD 03fc00000r			; 1.5
CONST	ENDS
;	COMDAT __real@3f99999a
CONST	SEGMENT
__real@3f99999a DD 03f99999ar			; 1.2
CONST	ENDS
;	COMDAT __real@3f800000
CONST	SEGMENT
__real@3f800000 DD 03f800000r			; 1
CONST	ENDS
;	COMDAT __real@3f000000
CONST	SEGMENT
__real@3f000000 DD 03f000000r			; 0.5
CONST	ENDS
;	COMDAT __real@3dcccccd
CONST	SEGMENT
__real@3dcccccd DD 03dcccccdr			; 0.1
CONST	ENDS
;	COMDAT __real@3d4ccccd
CONST	SEGMENT
__real@3d4ccccd DD 03d4ccccdr			; 0.05
CONST	ENDS
;	COMDAT __real@3c8efa35
CONST	SEGMENT
__real@3c8efa35 DD 03c8efa35r			; 0.0174533
CONST	ENDS
;	COMDAT __real@3727c5ac
CONST	SEGMENT
__real@3727c5ac DD 03727c5acr			; 1e-05
CONST	ENDS
;	COMDAT rtc$TMZ
rtc$TMZ	SEGMENT
_RTC_Shutdown.rtc$TMZ DQ FLAT:_RTC_Shutdown
rtc$TMZ	ENDS
;	COMDAT rtc$IMZ
rtc$IMZ	SEGMENT
_RTC_InitBase.rtc$IMZ DQ FLAT:_RTC_InitBase
rtc$IMZ	ENDS
;	COMDAT ??_R2CBase@Engine@@8
rdata$r	SEGMENT
??_R2CBase@Engine@@8 DD imagerel ??_R1A@?0A@EA@CBase@Engine@@8 ; Engine::CBase::`RTTI Base Class Array'
	ORG $+3
rdata$r	ENDS
;	COMDAT ??_R3CBase@Engine@@8
rdata$r	SEGMENT
??_R3CBase@Engine@@8 DD 00H				; Engine::CBase::`RTTI Class Hierarchy Descriptor'
	DD	00H
	DD	01H
	DD	imagerel ??_R2CBase@Engine@@8
rdata$r	ENDS
;	COMDAT ??_R0?AVCBase@Engine@@@8
data$r	SEGMENT
??_R0?AVCBase@Engine@@@8 DQ FLAT:??_7type_info@@6B@	; Engine::CBase `RTTI Type Descriptor'
	DQ	0000000000000000H
	DB	'.?AVCBase@Engine@@', 00H
data$r	ENDS
;	COMDAT ??_R1A@?0A@EA@CBase@Engine@@8
rdata$r	SEGMENT
??_R1A@?0A@EA@CBase@Engine@@8 DD imagerel ??_R0?AVCBase@Engine@@@8 ; Engine::CBase::`RTTI Base Class Descriptor at (0,-1,0,64)'
	DD	00H
	DD	00H
	DD	0ffffffffH
	DD	00H
	DD	040H
	DD	imagerel ??_R3CBase@Engine@@8
rdata$r	ENDS
;	COMDAT ??_R2CGameObject@Engine@@8
rdata$r	SEGMENT
??_R2CGameObject@Engine@@8 DD imagerel ??_R1A@?0A@EA@CGameObject@Engine@@8 ; Engine::CGameObject::`RTTI Base Class Array'
	DD	imagerel ??_R1A@?0A@EA@CBase@Engine@@8
	ORG $+3
rdata$r	ENDS
;	COMDAT ??_R3CGameObject@Engine@@8
rdata$r	SEGMENT
??_R3CGameObject@Engine@@8 DD 00H			; Engine::CGameObject::`RTTI Class Hierarchy Descriptor'
	DD	00H
	DD	02H
	DD	imagerel ??_R2CGameObject@Engine@@8
rdata$r	ENDS
;	COMDAT ??_R1A@?0A@EA@CGameObject@Engine@@8
rdata$r	SEGMENT
??_R1A@?0A@EA@CGameObject@Engine@@8 DD imagerel ??_R0?AVCGameObject@Engine@@@8 ; Engine::CGameObject::`RTTI Base Class Descriptor at (0,-1,0,64)'
	DD	01H
	DD	00H
	DD	0ffffffffH
	DD	00H
	DD	040H
	DD	imagerel ??_R3CGameObject@Engine@@8
rdata$r	ENDS
;	COMDAT ??_R2CCamera@Engine@@8
rdata$r	SEGMENT
??_R2CCamera@Engine@@8 DD imagerel ??_R1A@?0A@EA@CCamera@Engine@@8 ; Engine::CCamera::`RTTI Base Class Array'
	DD	imagerel ??_R1A@?0A@EA@CGameObject@Engine@@8
	DD	imagerel ??_R1A@?0A@EA@CBase@Engine@@8
	ORG $+3
rdata$r	ENDS
;	COMDAT ??_R3CCamera@Engine@@8
rdata$r	SEGMENT
??_R3CCamera@Engine@@8 DD 00H				; Engine::CCamera::`RTTI Class Hierarchy Descriptor'
	DD	00H
	DD	03H
	DD	imagerel ??_R2CCamera@Engine@@8
rdata$r	ENDS
;	COMDAT ??_R0?AVCCamera@Engine@@@8
data$r	SEGMENT
??_R0?AVCCamera@Engine@@@8 DQ FLAT:??_7type_info@@6B@	; Engine::CCamera `RTTI Type Descriptor'
	DQ	0000000000000000H
	DB	'.?AVCCamera@Engine@@', 00H
data$r	ENDS
;	COMDAT ??_R1A@?0A@EA@CCamera@Engine@@8
rdata$r	SEGMENT
??_R1A@?0A@EA@CCamera@Engine@@8 DD imagerel ??_R0?AVCCamera@Engine@@@8 ; Engine::CCamera::`RTTI Base Class Descriptor at (0,-1,0,64)'
	DD	02H
	DD	00H
	DD	0ffffffffH
	DD	00H
	DD	040H
	DD	imagerel ??_R3CCamera@Engine@@8
rdata$r	ENDS
;	COMDAT ??_R1A@?0A@EA@CPlayerCamera@Client@@8
rdata$r	SEGMENT
??_R1A@?0A@EA@CPlayerCamera@Client@@8 DD imagerel ??_R0?AVCPlayerCamera@Client@@@8 ; Client::CPlayerCamera::`RTTI Base Class Descriptor at (0,-1,0,64)'
	DD	03H
	DD	00H
	DD	0ffffffffH
	DD	00H
	DD	040H
	DD	imagerel ??_R3CPlayerCamera@Client@@8
rdata$r	ENDS
;	COMDAT ??_R2CPlayerCamera@Client@@8
rdata$r	SEGMENT
??_R2CPlayerCamera@Client@@8 DD imagerel ??_R1A@?0A@EA@CPlayerCamera@Client@@8 ; Client::CPlayerCamera::`RTTI Base Class Array'
	DD	imagerel ??_R1A@?0A@EA@CCamera@Engine@@8
	DD	imagerel ??_R1A@?0A@EA@CGameObject@Engine@@8
	DD	imagerel ??_R1A@?0A@EA@CBase@Engine@@8
	ORG $+3
rdata$r	ENDS
;	COMDAT ??_R3CPlayerCamera@Client@@8
rdata$r	SEGMENT
??_R3CPlayerCamera@Client@@8 DD 00H			; Client::CPlayerCamera::`RTTI Class Hierarchy Descriptor'
	DD	00H
	DD	04H
	DD	imagerel ??_R2CPlayerCamera@Client@@8
rdata$r	ENDS
;	COMDAT ??_R0?AVCPlayerCamera@Client@@@8
data$r	SEGMENT
??_R0?AVCPlayerCamera@Client@@@8 DQ FLAT:??_7type_info@@6B@ ; Client::CPlayerCamera `RTTI Type Descriptor'
	DQ	0000000000000000H
	DB	'.?AVCPlayerCamera@Client@@', 00H
data$r	ENDS
;	COMDAT ??_R4CPlayerCamera@Client@@6B@
rdata$r	SEGMENT
??_R4CPlayerCamera@Client@@6B@ DD 01H			; Client::CPlayerCamera::`RTTI Complete Object Locator'
	DD	00H
	DD	00H
	DD	imagerel ??_R0?AVCPlayerCamera@Client@@@8
	DD	imagerel ??_R3CPlayerCamera@Client@@8
	DD	imagerel ??_R4CPlayerCamera@Client@@6B@
rdata$r	ENDS
;	COMDAT ??_C@_1EC@NFPGCMME@?$AAF?$AAa?$AAi?$AAl?$AAe?$AAd?$AA?5?$AAt?$AAo?$AA?5?$AAC?$AAl?$AAo?$AAn?$AAe?$AAd?$AA?5?$AA?3?$AA?5?$AAC?$AAP?$AAl?$AAa?$AAy?$AAe?$AAr?$AAC?$AAa?$AAm?$AAe?$AAr?$AAa@
CONST	SEGMENT
??_C@_1EC@NFPGCMME@?$AAF?$AAa?$AAi?$AAl?$AAe?$AAd?$AA?5?$AAt?$AAo?$AA?5?$AAC?$AAl?$AAo?$AAn?$AAe?$AAd?$AA?5?$AA?3?$AA?5?$AAC?$AAP?$AAl?$AAa?$AAy?$AAe?$AAr?$AAC?$AAa?$AAm?$AAe?$AAr?$AAa@ DB 'F'
	DB	00H, 'a', 00H, 'i', 00H, 'l', 00H, 'e', 00H, 'd', 00H, ' ', 00H
	DB	't', 00H, 'o', 00H, ' ', 00H, 'C', 00H, 'l', 00H, 'o', 00H, 'n'
	DB	00H, 'e', 00H, 'd', 00H, ' ', 00H, ':', 00H, ' ', 00H, 'C', 00H
	DB	'P', 00H, 'l', 00H, 'a', 00H, 'y', 00H, 'e', 00H, 'r', 00H, 'C'
	DB	00H, 'a', 00H, 'm', 00H, 'e', 00H, 'r', 00H, 'a', 00H, 00H, 00H ; `string'
CONST	ENDS
;	COMDAT ?__LINE__Var@?0??Clone@CPlayerCamera@Client@@UEAAPEAVCGameObject@Engine@@PEAX@Z@4JA
_DATA	SEGMENT
?__LINE__Var@?0??Clone@CPlayerCamera@Client@@UEAAPEAVCGameObject@Engine@@PEAX@Z@4JA DD 0176H ; `Client::CPlayerCamera::Clone'::`1'::__LINE__Var
_DATA	ENDS
;	COMDAT ??_C@_1EE@CMOMLOPH@?$AAF?$AAa?$AAi?$AAl?$AAe?$AAd?$AA?5?$AAt?$AAo?$AA?5?$AAC?$AAr?$AAe?$AAa?$AAt?$AAe?$AAd?$AA?5?$AA?3?$AA?5?$AAC?$AAP?$AAl?$AAa?$AAy?$AAe?$AAr?$AAC?$AAa?$AAm?$AAe?$AAr@
CONST	SEGMENT
??_C@_1EE@CMOMLOPH@?$AAF?$AAa?$AAi?$AAl?$AAe?$AAd?$AA?5?$AAt?$AAo?$AA?5?$AAC?$AAr?$AAe?$AAa?$AAt?$AAe?$AAd?$AA?5?$AA?3?$AA?5?$AAC?$AAP?$AAl?$AAa?$AAy?$AAe?$AAr?$AAC?$AAa?$AAm?$AAe?$AAr@ DB 'F'
	DB	00H, 'a', 00H, 'i', 00H, 'l', 00H, 'e', 00H, 'd', 00H, ' ', 00H
	DB	't', 00H, 'o', 00H, ' ', 00H, 'C', 00H, 'r', 00H, 'e', 00H, 'a'
	DB	00H, 't', 00H, 'e', 00H, 'd', 00H, ' ', 00H, ':', 00H, ' ', 00H
	DB	'C', 00H, 'P', 00H, 'l', 00H, 'a', 00H, 'y', 00H, 'e', 00H, 'r'
	DB	00H, 'C', 00H, 'a', 00H, 'm', 00H, 'e', 00H, 'r', 00H, 'a', 00H
	DB	00H, 00H					; `string'
CONST	ENDS
;	COMDAT ??_C@_1BA@HHOMBECE@?$AAM?$AAe?$AAs?$AAs?$AAa?$AAg?$AAe?$AA?$AA@
CONST	SEGMENT
??_C@_1BA@HHOMBECE@?$AAM?$AAe?$AAs?$AAs?$AAa?$AAg?$AAe?$AA?$AA@ DB 'M', 00H
	DB	'e', 00H, 's', 00H, 's', 00H, 'a', 00H, 'g', 00H, 'e', 00H, 00H
	DB	00H						; `string'
CONST	ENDS
;	COMDAT ??_C@_0EK@IICOGJBM@c?3?2users?2arcco?2documents?2github?2@
CONST	SEGMENT
??_C@_0EK@IICOGJBM@c?3?2users?2arcco?2documents?2github?2@ DB 'c:\users\a'
	DB	'rcco\documents\github\framework\client\private\playercamera.c'
	DB	'pp', 00H					; `string'
CONST	ENDS
;	COMDAT ?__LINE__Var@?0??Create@CPlayerCamera@Client@@SAPEAV23@PEAUID3D11Device@@PEAUID3D11DeviceContext@@@Z@4JA
_DATA	SEGMENT
?__LINE__Var@?0??Create@CPlayerCamera@Client@@SAPEAV23@PEAUID3D11Device@@PEAUID3D11DeviceContext@@@Z@4JA DD 016aH ; `Client::CPlayerCamera::Create'::`1'::__LINE__Var
_DATA	ENDS
;	COMDAT ??_R0?AVCBoss@Client@@@8
data$r	SEGMENT
??_R0?AVCBoss@Client@@@8 DQ FLAT:??_7type_info@@6B@	; Client::CBoss `RTTI Type Descriptor'
	DQ	0000000000000000H
	DB	'.?AVCBoss@Client@@', 00H
data$r	ENDS
;	COMDAT ??_R0?AVCGameObject@Engine@@@8
data$r	SEGMENT
??_R0?AVCGameObject@Engine@@@8 DQ FLAT:??_7type_info@@6B@ ; Engine::CGameObject `RTTI Type Descriptor'
	DQ	0000000000000000H
	DB	'.?AVCGameObject@Engine@@', 00H
data$r	ENDS
;	COMDAT ??_C@_0P@IKACEMKG@g_DiscardValue?$AA@
CONST	SEGMENT
??_C@_0P@IKACEMKG@g_DiscardValue?$AA@ DB 'g_DiscardValue', 00H ; `string'
CONST	ENDS
;	COMDAT ??_C@_07FMLFDDAN@g_Alpha?$AA@
CONST	SEGMENT
??_C@_07FMLFDDAN@g_Alpha?$AA@ DB 'g_Alpha', 00H		; `string'
CONST	ENDS
;	COMDAT ??_C@_0N@PLHHBDPH@g_FillAmount?$AA@
CONST	SEGMENT
??_C@_0N@PLHHBDPH@g_FillAmount?$AA@ DB 'g_FillAmount', 00H ; `string'
CONST	ENDS
;	COMDAT ??_C@_09HCHKCCII@g_Texture?$AA@
CONST	SEGMENT
??_C@_09HCHKCCII@g_Texture?$AA@ DB 'g_Texture', 00H	; `string'
CONST	ENDS
;	COMDAT ??_C@_0N@OOHDPIO@g_ProjMatrix?$AA@
CONST	SEGMENT
??_C@_0N@OOHDPIO@g_ProjMatrix?$AA@ DB 'g_ProjMatrix', 00H ; `string'
CONST	ENDS
;	COMDAT ??_C@_0N@ELIMCBLG@g_ViewMatrix?$AA@
CONST	SEGMENT
??_C@_0N@ELIMCBLG@g_ViewMatrix?$AA@ DB 'g_ViewMatrix', 00H ; `string'
CONST	ENDS
;	COMDAT ??_C@_0O@PFNLPMLD@g_WorldMatrix?$AA@
CONST	SEGMENT
??_C@_0O@PFNLPMLD@g_WorldMatrix?$AA@ DB 'g_WorldMatrix', 00H ; `string'
CONST	ENDS
;	COMDAT ??_C@_1CI@NFFEDNON@?$AAp?$AAr?$AAo?$AAt?$AAo?$AA_?$AAc?$AAo?$AAm?$AA_?$AAs?$AAh?$AAa?$AAd?$AAe?$AAr?$AA_?$AAu?$AAi?$AA?$AA@
CONST	SEGMENT
??_C@_1CI@NFFEDNON@?$AAp?$AAr?$AAo?$AAt?$AAo?$AA_?$AAc?$AAo?$AAm?$AA_?$AAs?$AAh?$AAa?$AAd?$AAe?$AAr?$AA_?$AAu?$AAi?$AA?$AA@ DB 'p'
	DB	00H, 'r', 00H, 'o', 00H, 't', 00H, 'o', 00H, '_', 00H, 'c', 00H
	DB	'o', 00H, 'm', 00H, '_', 00H, 's', 00H, 'h', 00H, 'a', 00H, 'd'
	DB	00H, 'e', 00H, 'r', 00H, '_', 00H, 'u', 00H, 'i', 00H, 00H, 00H ; `string'
CONST	ENDS
;	COMDAT ??_C@_1BG@GGOMMBBL@?$AAc?$AAo?$AAm?$AA_?$AAs?$AAh?$AAa?$AAd?$AAe?$AAr?$AA?$AA@
CONST	SEGMENT
??_C@_1BG@GGOMMBBL@?$AAc?$AAo?$AAm?$AA_?$AAs?$AAh?$AAa?$AAd?$AAe?$AAr?$AA?$AA@ DB 'c'
	DB	00H, 'o', 00H, 'm', 00H, '_', 00H, 's', 00H, 'h', 00H, 'a', 00H
	DB	'd', 00H, 'e', 00H, 'r', 00H, 00H, 00H	; `string'
CONST	ENDS
;	COMDAT ??_C@_1DA@CAAHNHCD@?$AAp?$AAr?$AAo?$AAt?$AAo?$AA_?$AAc?$AAo?$AAm?$AA_?$AAt?$AAe?$AAx?$AAt?$AAu?$AAr?$AAe?$AA_?$AAb?$AAl?$AAa?$AAc?$AAk?$AA?$AA@
CONST	SEGMENT
??_C@_1DA@CAAHNHCD@?$AAp?$AAr?$AAo?$AAt?$AAo?$AA_?$AAc?$AAo?$AAm?$AA_?$AAt?$AAe?$AAx?$AAt?$AAu?$AAr?$AAe?$AA_?$AAb?$AAl?$AAa?$AAc?$AAk?$AA?$AA@ DB 'p'
	DB	00H, 'r', 00H, 'o', 00H, 't', 00H, 'o', 00H, '_', 00H, 'c', 00H
	DB	'o', 00H, 'm', 00H, '_', 00H, 't', 00H, 'e', 00H, 'x', 00H, 't'
	DB	00H, 'u', 00H, 'r', 00H, 'e', 00H, '_', 00H, 'b', 00H, 'l', 00H
	DB	'a', 00H, 'c', 00H, 'k', 00H, 00H, 00H	; `string'
CONST	ENDS
;	COMDAT ??_C@_1BI@MJAKLHOB@?$AAc?$AAo?$AAm?$AA_?$AAt?$AAe?$AAx?$AAt?$AAu?$AAr?$AAe?$AA?$AA@
CONST	SEGMENT
??_C@_1BI@MJAKLHOB@?$AAc?$AAo?$AAm?$AA_?$AAt?$AAe?$AAx?$AAt?$AAu?$AAr?$AAe?$AA?$AA@ DB 'c'
	DB	00H, 'o', 00H, 'm', 00H, '_', 00H, 't', 00H, 'e', 00H, 'x', 00H
	DB	't', 00H, 'u', 00H, 'r', 00H, 'e', 00H, 00H, 00H ; `string'
CONST	ENDS
;	COMDAT ??_C@_1DA@BAIPNHMH@?$AAp?$AAr?$AAo?$AAt?$AAo?$AA_?$AAc?$AAo?$AAm?$AA_?$AAv?$AAi?$AAb?$AAu?$AAf?$AAf?$AAe?$AAr?$AA_?$AAr?$AAe?$AAc?$AAt?$AA?$AA@
CONST	SEGMENT
??_C@_1DA@BAIPNHMH@?$AAp?$AAr?$AAo?$AAt?$AAo?$AA_?$AAc?$AAo?$AAm?$AA_?$AAv?$AAi?$AAb?$AAu?$AAf?$AAf?$AAe?$AAr?$AA_?$AAr?$AAe?$AAc?$AAt?$AA?$AA@ DB 'p'
	DB	00H, 'r', 00H, 'o', 00H, 't', 00H, 'o', 00H, '_', 00H, 'c', 00H
	DB	'o', 00H, 'm', 00H, '_', 00H, 'v', 00H, 'i', 00H, 'b', 00H, 'u'
	DB	00H, 'f', 00H, 'f', 00H, 'e', 00H, 'r', 00H, '_', 00H, 'r', 00H
	DB	'e', 00H, 'c', 00H, 't', 00H, 00H, 00H	; `string'
CONST	ENDS
;	COMDAT ??_C@_1BG@KPBPOMBH@?$AAc?$AAo?$AAm?$AA_?$AAb?$AAu?$AAf?$AAf?$AAe?$AAr?$AA?$AA@
CONST	SEGMENT
??_C@_1BG@KPBPOMBH@?$AAc?$AAo?$AAm?$AA_?$AAb?$AAu?$AAf?$AAf?$AAe?$AAr?$AA?$AA@ DB 'c'
	DB	00H, 'o', 00H, 'm', 00H, '_', 00H, 'b', 00H, 'u', 00H, 'f', 00H
	DB	'f', 00H, 'e', 00H, 'r', 00H, 00H, 00H	; `string'
CONST	ENDS
;	COMDAT ??_C@_1CG@COFFFCLL@?$AAp?$AAr?$AAo?$AAt?$AAo?$AA_?$AAc?$AAo?$AAm?$AA_?$AAr?$AAe?$AAn?$AAd?$AAe?$AAr?$AAe?$AAr?$AA?$AA@
CONST	SEGMENT
??_C@_1CG@COFFFCLL@?$AAp?$AAr?$AAo?$AAt?$AAo?$AA_?$AAc?$AAo?$AAm?$AA_?$AAr?$AAe?$AAn?$AAd?$AAe?$AAr?$AAe?$AAr?$AA?$AA@ DB 'p'
	DB	00H, 'r', 00H, 'o', 00H, 't', 00H, 'o', 00H, '_', 00H, 'c', 00H
	DB	'o', 00H, 'm', 00H, '_', 00H, 'r', 00H, 'e', 00H, 'n', 00H, 'd'
	DB	00H, 'e', 00H, 'r', 00H, 'e', 00H, 'r', 00H, 00H, 00H ; `string'
CONST	ENDS
;	COMDAT ??_C@_1BK@GIOMOCNE@?$AAc?$AAo?$AAm?$AA_?$AAr?$AAe?$AAn?$AAd?$AAe?$AAr?$AAe?$AAr?$AA?$AA@
CONST	SEGMENT
??_C@_1BK@GIOMOCNE@?$AAc?$AAo?$AAm?$AA_?$AAr?$AAe?$AAn?$AAd?$AAe?$AAr?$AAe?$AAr?$AA?$AA@ DB 'c'
	DB	00H, 'o', 00H, 'm', 00H, '_', 00H, 'r', 00H, 'e', 00H, 'n', 00H
	DB	'd', 00H, 'e', 00H, 'r', 00H, 'e', 00H, 'r', 00H, 00H, 00H ; `string'
CONST	ENDS
;	COMDAT ??_C@_1CO@HJBGOIAH@?$AAp?$AAr?$AAo?$AAt?$AAo?$AA_?$AAc?$AAo?$AAm?$AA_?$AAo?$AAb?$AAb?$AA_?$AAc?$AAo?$AAl?$AAl?$AAi?$AAd?$AAe?$AAr?$AA?$AA@
CONST	SEGMENT
??_C@_1CO@HJBGOIAH@?$AAp?$AAr?$AAo?$AAt?$AAo?$AA_?$AAc?$AAo?$AAm?$AA_?$AAo?$AAb?$AAb?$AA_?$AAc?$AAo?$AAl?$AAl?$AAi?$AAd?$AAe?$AAr?$AA?$AA@ DB 'p'
	DB	00H, 'r', 00H, 'o', 00H, 't', 00H, 'o', 00H, '_', 00H, 'c', 00H
	DB	'o', 00H, 'm', 00H, '_', 00H, 'o', 00H, 'b', 00H, 'b', 00H, '_'
	DB	00H, 'c', 00H, 'o', 00H, 'l', 00H, 'l', 00H, 'i', 00H, 'd', 00H
	DB	'e', 00H, 'r', 00H, 00H, 00H			; `string'
CONST	ENDS
;	COMDAT ??_C@_1BK@BKCENIHA@?$AAc?$AAo?$AAm?$AA_?$AAc?$AAo?$AAl?$AAl?$AAi?$AAd?$AAe?$AAr?$AA?$AA@
CONST	SEGMENT
??_C@_1BK@BKCENIHA@?$AAc?$AAo?$AAm?$AA_?$AAc?$AAo?$AAl?$AAl?$AAi?$AAd?$AAe?$AAr?$AA?$AA@ DB 'c'
	DB	00H, 'o', 00H, 'm', 00H, '_', 00H, 'c', 00H, 'o', 00H, 'l', 00H
	DB	'l', 00H, 'i', 00H, 'd', 00H, 'e', 00H, 'r', 00H, 00H, 00H ; `string'
CONST	ENDS
;	COMDAT ??_C@_1DI@OLGFHDLM@?$AAc?$AAo?$AAm?$AA_?$AAc?$AAa?$AAm?$AAe?$AAr?$AAa?$AA_?$AAs?$AAo?$AAc?$AAk?$AAe?$AAt?$AA_?$AAt?$AAr?$AAa?$AAn?$AAs?$AAf?$AAo?$AAr?$AAm?$AA?$AA@
CONST	SEGMENT
??_C@_1DI@OLGFHDLM@?$AAc?$AAo?$AAm?$AA_?$AAc?$AAa?$AAm?$AAe?$AAr?$AAa?$AA_?$AAs?$AAo?$AAc?$AAk?$AAe?$AAt?$AA_?$AAt?$AAr?$AAa?$AAn?$AAs?$AAf?$AAo?$AAr?$AAm?$AA?$AA@ DB 'c'
	DB	00H, 'o', 00H, 'm', 00H, '_', 00H, 'c', 00H, 'a', 00H, 'm', 00H
	DB	'e', 00H, 'r', 00H, 'a', 00H, '_', 00H, 's', 00H, 'o', 00H, 'c'
	DB	00H, 'k', 00H, 'e', 00H, 't', 00H, '_', 00H, 't', 00H, 'r', 00H
	DB	'a', 00H, 'n', 00H, 's', 00H, 'f', 00H, 'o', 00H, 'r', 00H, 'm'
	DB	00H, 00H, 00H				; `string'
CONST	ENDS
;	COMDAT ??_C@_1BM@CJMPMHDD@?$AAc?$AAo?$AAm?$AA_?$AAt?$AAr?$AAa?$AAn?$AAs?$AAf?$AAo?$AAr?$AAm?$AA?$AA@
CONST	SEGMENT
??_C@_1BM@CJMPMHDD@?$AAc?$AAo?$AAm?$AA_?$AAt?$AAr?$AAa?$AAn?$AAs?$AAf?$AAo?$AAr?$AAm?$AA?$AA@ DB 'c'
	DB	00H, 'o', 00H, 'm', 00H, '_', 00H, 't', 00H, 'r', 00H, 'a', 00H
	DB	'n', 00H, 's', 00H, 'f', 00H, 'o', 00H, 'r', 00H, 'm', 00H, 00H
	DB	00H						; `string'
CONST	ENDS
;	COMDAT ??_C@_19OPBALDBC@?$AAp?$AAA?$AAr?$AAg?$AA?$AA@
CONST	SEGMENT
??_C@_19OPBALDBC@?$AAp?$AAA?$AAr?$AAg?$AA?$AA@ DB 'p', 00H, 'A', 00H, 'r', 00H
	DB	'g', 00H, 00H, 00H				; `string'
CONST	ENDS
;	COMDAT ??_C@_1JE@LOBGNKN@?$AAc?$AA?3?$AA?2?$AAu?$AAs?$AAe?$AAr?$AAs?$AA?2?$AAa?$AAr?$AAc?$AAc?$AAo?$AA?2?$AAd?$AAo?$AAc?$AAu?$AAm?$AAe?$AAn?$AAt?$AAs?$AA?2?$AAg?$AAi?$AAt?$AAh?$AAu?$AAb?$AA?2@
CONST	SEGMENT
??_C@_1JE@LOBGNKN@?$AAc?$AA?3?$AA?2?$AAu?$AAs?$AAe?$AAr?$AAs?$AA?2?$AAa?$AAr?$AAc?$AAc?$AAo?$AA?2?$AAd?$AAo?$AAc?$AAu?$AAm?$AAe?$AAn?$AAt?$AAs?$AA?2?$AAg?$AAi?$AAt?$AAh?$AAu?$AAb?$AA?2@ DB 'c'
	DB	00H, ':', 00H, '\', 00H, 'u', 00H, 's', 00H, 'e', 00H, 'r', 00H
	DB	's', 00H, '\', 00H, 'a', 00H, 'r', 00H, 'c', 00H, 'c', 00H, 'o'
	DB	00H, '\', 00H, 'd', 00H, 'o', 00H, 'c', 00H, 'u', 00H, 'm', 00H
	DB	'e', 00H, 'n', 00H, 't', 00H, 's', 00H, '\', 00H, 'g', 00H, 'i'
	DB	00H, 't', 00H, 'h', 00H, 'u', 00H, 'b', 00H, '\', 00H, 'f', 00H
	DB	'r', 00H, 'a', 00H, 'm', 00H, 'e', 00H, 'w', 00H, 'o', 00H, 'r'
	DB	00H, 'k', 00H, '\', 00H, 'c', 00H, 'l', 00H, 'i', 00H, 'e', 00H
	DB	'n', 00H, 't', 00H, '\', 00H, 'p', 00H, 'r', 00H, 'i', 00H, 'v'
	DB	00H, 'a', 00H, 't', 00H, 'e', 00H, '\', 00H, 'p', 00H, 'l', 00H
	DB	'a', 00H, 'y', 00H, 'e', 00H, 'r', 00H, 'c', 00H, 'a', 00H, 'm'
	DB	00H, 'e', 00H, 'r', 00H, 'a', 00H, '.', 00H, 'c', 00H, 'p', 00H
	DB	'p', 00H, 00H, 00H				; `string'
CONST	ENDS
;	COMDAT ?__LINE__Var@?0??Initialize@CPlayerCamera@Client@@UEAAJPEAX@Z@4JA
_DATA	SEGMENT
?__LINE__Var@?0??Initialize@CPlayerCamera@Client@@UEAAJPEAX@Z@4JA DD 021H ; `Client::CPlayerCamera::Initialize'::`1'::__LINE__Var
_DATA	ENDS
;	COMDAT ??_7CPlayerCamera@Client@@6B@
CONST	SEGMENT
??_7CPlayerCamera@Client@@6B@ DQ FLAT:??_R4CPlayerCamera@Client@@6B@ ; Client::CPlayerCamera::`vftable'
	DQ	FLAT:??_ECPlayerCamera@Client@@EEAAPEAXI@Z
	DQ	FLAT:?Free@CPlayerCamera@Client@@UEAAXXZ
	DQ	FLAT:?Initialize_Prototype@CPlayerCamera@Client@@UEAAJXZ
	DQ	FLAT:?Initialize@CPlayerCamera@Client@@UEAAJPEAX@Z
	DQ	FLAT:?Tick@CPlayerCamera@Client@@UEAAXN@Z
	DQ	FLAT:?LateTick@CPlayerCamera@Client@@UEAAXN@Z
	DQ	FLAT:?Render@CPlayerCamera@Client@@UEAAJXZ
	DQ	FLAT:?RenderGUI@CGameObject@Engine@@UEAAXXZ
	DQ	FLAT:?GetLengthFromCamera@CGameObject@Engine@@UEAAMXZ
	DQ	FLAT:?Clone@CPlayerCamera@Client@@UEAAPEAVCGameObject@Engine@@PEAX@Z
CONST	ENDS
;	COMDAT ?__LINE__Var@?0??XMMatrixOrthographicLH@DirectX@@YQ?AUXMMATRIX@2@MMMM@Z@4JA
_DATA	SEGMENT
?__LINE__Var@?0??XMMatrixOrthographicLH@DirectX@@YQ?AUXMMATRIX@2@MMMM@Z@4JA DD 09e4H ; `DirectX::XMMatrixOrthographicLH'::`1'::__LINE__Var
_DATA	ENDS
;	COMDAT ??_C@_1FE@IMEJOJAH@?$AA?$CB?$AAX?$AAM?$AAS?$AAc?$AAa?$AAl?$AAa?$AAr?$AAN?$AAe?$AAa?$AAr?$AAE?$AAq?$AAu?$AAa?$AAl?$AA?$CI?$AAF?$AAa?$AAr?$AAZ?$AA?0?$AA?5?$AAN?$AAe?$AAa?$AAr?$AAZ?$AA?0?$AA?5@
CONST	SEGMENT
??_C@_1FE@IMEJOJAH@?$AA?$CB?$AAX?$AAM?$AAS?$AAc?$AAa?$AAl?$AAa?$AAr?$AAN?$AAe?$AAa?$AAr?$AAE?$AAq?$AAu?$AAa?$AAl?$AA?$CI?$AAF?$AAa?$AAr?$AAZ?$AA?0?$AA?5?$AAN?$AAe?$AAa?$AAr?$AAZ?$AA?0?$AA?5@ DB '!'
	DB	00H, 'X', 00H, 'M', 00H, 'S', 00H, 'c', 00H, 'a', 00H, 'l', 00H
	DB	'a', 00H, 'r', 00H, 'N', 00H, 'e', 00H, 'a', 00H, 'r', 00H, 'E'
	DB	00H, 'q', 00H, 'u', 00H, 'a', 00H, 'l', 00H, '(', 00H, 'F', 00H
	DB	'a', 00H, 'r', 00H, 'Z', 00H, ',', 00H, ' ', 00H, 'N', 00H, 'e'
	DB	00H, 'a', 00H, 'r', 00H, 'Z', 00H, ',', 00H, ' ', 00H, '0', 00H
	DB	'.', 00H, '0', 00H, '0', 00H, '0', 00H, '0', 00H, '1', 00H, 'f'
	DB	00H, ')', 00H, 00H, 00H			; `string'
CONST	ENDS
;	COMDAT ??_C@_1FO@OGFPCKGG@?$AA?$CB?$AAX?$AAM?$AAS?$AAc?$AAa?$AAl?$AAa?$AAr?$AAN?$AAe?$AAa?$AAr?$AAE?$AAq?$AAu?$AAa?$AAl?$AA?$CI?$AAV?$AAi?$AAe?$AAw?$AAH?$AAe?$AAi?$AAg?$AAh?$AAt?$AA?0?$AA?5?$AA0@
CONST	SEGMENT
??_C@_1FO@OGFPCKGG@?$AA?$CB?$AAX?$AAM?$AAS?$AAc?$AAa?$AAl?$AAa?$AAr?$AAN?$AAe?$AAa?$AAr?$AAE?$AAq?$AAu?$AAa?$AAl?$AA?$CI?$AAV?$AAi?$AAe?$AAw?$AAH?$AAe?$AAi?$AAg?$AAh?$AAt?$AA?0?$AA?5?$AA0@ DB '!'
	DB	00H, 'X', 00H, 'M', 00H, 'S', 00H, 'c', 00H, 'a', 00H, 'l', 00H
	DB	'a', 00H, 'r', 00H, 'N', 00H, 'e', 00H, 'a', 00H, 'r', 00H, 'E'
	DB	00H, 'q', 00H, 'u', 00H, 'a', 00H, 'l', 00H, '(', 00H, 'V', 00H
	DB	'i', 00H, 'e', 00H, 'w', 00H, 'H', 00H, 'e', 00H, 'i', 00H, 'g'
	DB	00H, 'h', 00H, 't', 00H, ',', 00H, ' ', 00H, '0', 00H, '.', 00H
	DB	'0', 00H, 'f', 00H, ',', 00H, ' ', 00H, '0', 00H, '.', 00H, '0'
	DB	00H, '0', 00H, '0', 00H, '0', 00H, '1', 00H, 'f', 00H, ')', 00H
	DB	00H, 00H					; `string'
CONST	ENDS
;	COMDAT ??_C@_1FM@GHGDCEAE@?$AA?$CB?$AAX?$AAM?$AAS?$AAc?$AAa?$AAl?$AAa?$AAr?$AAN?$AAe?$AAa?$AAr?$AAE?$AAq?$AAu?$AAa?$AAl?$AA?$CI?$AAV?$AAi?$AAe?$AAw?$AAW?$AAi?$AAd?$AAt?$AAh?$AA?0?$AA?5?$AA0?$AA?4@
CONST	SEGMENT
??_C@_1FM@GHGDCEAE@?$AA?$CB?$AAX?$AAM?$AAS?$AAc?$AAa?$AAl?$AAa?$AAr?$AAN?$AAe?$AAa?$AAr?$AAE?$AAq?$AAu?$AAa?$AAl?$AA?$CI?$AAV?$AAi?$AAe?$AAw?$AAW?$AAi?$AAd?$AAt?$AAh?$AA?0?$AA?5?$AA0?$AA?4@ DB '!'
	DB	00H, 'X', 00H, 'M', 00H, 'S', 00H, 'c', 00H, 'a', 00H, 'l', 00H
	DB	'a', 00H, 'r', 00H, 'N', 00H, 'e', 00H, 'a', 00H, 'r', 00H, 'E'
	DB	00H, 'q', 00H, 'u', 00H, 'a', 00H, 'l', 00H, '(', 00H, 'V', 00H
	DB	'i', 00H, 'e', 00H, 'w', 00H, 'W', 00H, 'i', 00H, 'd', 00H, 't'
	DB	00H, 'h', 00H, ',', 00H, ' ', 00H, '0', 00H, '.', 00H, '0', 00H
	DB	'f', 00H, ',', 00H, ' ', 00H, '0', 00H, '.', 00H, '0', 00H, '0'
	DB	00H, '0', 00H, '0', 00H, '1', 00H, 'f', 00H, ')', 00H, 00H, 00H ; `string'
CONST	ENDS
;	COMDAT ??_C@_1JC@EJCKKKJP@?$AAc?$AA?3?$AA?2?$AAp?$AAr?$AAo?$AAg?$AAr?$AAa?$AAm?$AA?5?$AAf?$AAi?$AAl?$AAe?$AAs?$AA?5?$AA?$CI?$AAx?$AA8?$AA6?$AA?$CJ?$AA?2?$AAw?$AAi?$AAn?$AAd?$AAo?$AAw?$AAs?$AA?5?$AAk@
CONST	SEGMENT
??_C@_1JC@EJCKKKJP@?$AAc?$AA?3?$AA?2?$AAp?$AAr?$AAo?$AAg?$AAr?$AAa?$AAm?$AA?5?$AAf?$AAi?$AAl?$AAe?$AAs?$AA?5?$AA?$CI?$AAx?$AA8?$AA6?$AA?$CJ?$AA?2?$AAw?$AAi?$AAn?$AAd?$AAo?$AAw?$AAs?$AA?5?$AAk@ DB 'c'
	DB	00H, ':', 00H, '\', 00H, 'p', 00H, 'r', 00H, 'o', 00H, 'g', 00H
	DB	'r', 00H, 'a', 00H, 'm', 00H, ' ', 00H, 'f', 00H, 'i', 00H, 'l'
	DB	00H, 'e', 00H, 's', 00H, ' ', 00H, '(', 00H, 'x', 00H, '8', 00H
	DB	'6', 00H, ')', 00H, '\', 00H, 'w', 00H, 'i', 00H, 'n', 00H, 'd'
	DB	00H, 'o', 00H, 'w', 00H, 's', 00H, ' ', 00H, 'k', 00H, 'i', 00H
	DB	't', 00H, 's', 00H, '\', 00H, '8', 00H, '.', 00H, '1', 00H, '\'
	DB	00H, 'i', 00H, 'n', 00H, 'c', 00H, 'l', 00H, 'u', 00H, 'd', 00H
	DB	'e', 00H, '\', 00H, 'u', 00H, 'm', 00H, '\', 00H, 'd', 00H, 'i'
	DB	00H, 'r', 00H, 'e', 00H, 'c', 00H, 't', 00H, 'x', 00H, 'm', 00H
	DB	'a', 00H, 't', 00H, 'h', 00H, 'm', 00H, 'a', 00H, 't', 00H, 'r'
	DB	00H, 'i', 00H, 'x', 00H, '.', 00H, 'i', 00H, 'n', 00H, 'l', 00H
	DB	00H, 00H					; `string'
CONST	ENDS
;	COMDAT ?__LINE__Var@?0??XMStoreFloat4x4@DirectX@@YQXPEAUXMFLOAT4X4@2@UXMMATRIX@2@@Z@4JA
_DATA	SEGMENT
?__LINE__Var@?0??XMStoreFloat4x4@DirectX@@YQXPEAUXMFLOAT4X4@2@UXMMATRIX@2@@Z@4JA DD 071aH ; `DirectX::XMStoreFloat4x4'::`1'::__LINE__Var
_DATA	ENDS
;	COMDAT ?__LINE__Var@?0??XMStoreFloat4@DirectX@@YQXPEAUXMFLOAT4@2@T__m128@@@Z@4JA
_DATA	SEGMENT
?__LINE__Var@?0??XMStoreFloat4@DirectX@@YQXPEAUXMFLOAT4@2@T__m128@@@Z@4JA DD 0602H ; `DirectX::XMStoreFloat4'::`1'::__LINE__Var
_DATA	ENDS
;	COMDAT ??_C@_1BK@FHLBGAOP@?$AAp?$AAD?$AAe?$AAs?$AAt?$AAi?$AAn?$AAa?$AAt?$AAi?$AAo?$AAn?$AA?$AA@
CONST	SEGMENT
??_C@_1BK@FHLBGAOP@?$AAp?$AAD?$AAe?$AAs?$AAt?$AAi?$AAn?$AAa?$AAt?$AAi?$AAo?$AAn?$AA?$AA@ DB 'p'
	DB	00H, 'D', 00H, 'e', 00H, 's', 00H, 't', 00H, 'i', 00H, 'n', 00H
	DB	'a', 00H, 't', 00H, 'i', 00H, 'o', 00H, 'n', 00H, 00H, 00H ; `string'
CONST	ENDS
;	COMDAT ?__LINE__Var@?0??XMLoadFloat4@DirectX@@YQ?AT__m128@@PEBUXMFLOAT4@2@@Z@4JA
_DATA	SEGMENT
?__LINE__Var@?0??XMLoadFloat4@DirectX@@YQ?AT__m128@@PEBUXMFLOAT4@2@@Z@4JA DD 02a8H ; `DirectX::XMLoadFloat4'::`1'::__LINE__Var
_DATA	ENDS
;	COMDAT ?__LINE__Var@?0??XMLoadFloat3@DirectX@@YQ?AT__m128@@PEBUXMFLOAT3@2@@Z@4JA
_DATA	SEGMENT
?__LINE__Var@?0??XMLoadFloat3@DirectX@@YQ?AT__m128@@PEBUXMFLOAT3@2@@Z@4JA DD 01f3H ; `DirectX::XMLoadFloat3'::`1'::__LINE__Var
_DATA	ENDS
;	COMDAT ??_C@_1BA@LBADLIHI@?$AAp?$AAS?$AAo?$AAu?$AAr?$AAc?$AAe?$AA?$AA@
CONST	SEGMENT
??_C@_1BA@LBADLIHI@?$AAp?$AAS?$AAo?$AAu?$AAr?$AAc?$AAe?$AA?$AA@ DB 'p', 00H
	DB	'S', 00H, 'o', 00H, 'u', 00H, 'r', 00H, 'c', 00H, 'e', 00H, 00H
	DB	00H						; `string'
CONST	ENDS
;	COMDAT ??_C@_1JE@DMOBBMDE@?$AAc?$AA?3?$AA?2?$AAp?$AAr?$AAo?$AAg?$AAr?$AAa?$AAm?$AA?5?$AAf?$AAi?$AAl?$AAe?$AAs?$AA?5?$AA?$CI?$AAx?$AA8?$AA6?$AA?$CJ?$AA?2?$AAw?$AAi?$AAn?$AAd?$AAo?$AAw?$AAs?$AA?5?$AAk@
CONST	SEGMENT
??_C@_1JE@DMOBBMDE@?$AAc?$AA?3?$AA?2?$AAp?$AAr?$AAo?$AAg?$AAr?$AAa?$AAm?$AA?5?$AAf?$AAi?$AAl?$AAe?$AAs?$AA?5?$AA?$CI?$AAx?$AA8?$AA6?$AA?$CJ?$AA?2?$AAw?$AAi?$AAn?$AAd?$AAo?$AAw?$AAs?$AA?5?$AAk@ DB 'c'
	DB	00H, ':', 00H, '\', 00H, 'p', 00H, 'r', 00H, 'o', 00H, 'g', 00H
	DB	'r', 00H, 'a', 00H, 'm', 00H, ' ', 00H, 'f', 00H, 'i', 00H, 'l'
	DB	00H, 'e', 00H, 's', 00H, ' ', 00H, '(', 00H, 'x', 00H, '8', 00H
	DB	'6', 00H, ')', 00H, '\', 00H, 'w', 00H, 'i', 00H, 'n', 00H, 'd'
	DB	00H, 'o', 00H, 'w', 00H, 's', 00H, ' ', 00H, 'k', 00H, 'i', 00H
	DB	't', 00H, 's', 00H, '\', 00H, '8', 00H, '.', 00H, '1', 00H, '\'
	DB	00H, 'i', 00H, 'n', 00H, 'c', 00H, 'l', 00H, 'u', 00H, 'd', 00H
	DB	'e', 00H, '\', 00H, 'u', 00H, 'm', 00H, '\', 00H, 'd', 00H, 'i'
	DB	00H, 'r', 00H, 'e', 00H, 'c', 00H, 't', 00H, 'x', 00H, 'm', 00H
	DB	'a', 00H, 't', 00H, 'h', 00H, 'c', 00H, 'o', 00H, 'n', 00H, 'v'
	DB	00H, 'e', 00H, 'r', 00H, 't', 00H, '.', 00H, 'i', 00H, 'n', 00H
	DB	'l', 00H, 00H, 00H				; `string'
CONST	ENDS
;	COMDAT xdata
xdata	SEGMENT
$unwind$??$Safe_Release@PEAVCTexture@Engine@@@Engine@@YAKAEAPEAVCTexture@0@@Z DD 025052a01H
	DD	010e2313H
	DD	070070021H
	DD	05006H
xdata	ENDS
;	COMDAT xdata
xdata	SEGMENT
$unwind$??$Safe_Release@PEAVCVIBuffer_Rect@Engine@@@Engine@@YAKAEAPEAVCVIBuffer_Rect@0@@Z DD 025052a01H
	DD	010e2313H
	DD	070070021H
	DD	05006H
xdata	ENDS
;	COMDAT xdata
xdata	SEGMENT
$unwind$??$Safe_Release@PEAVCShader@Engine@@@Engine@@YAKAEAPEAVCShader@0@@Z DD 025052a01H
	DD	010e2313H
	DD	070070021H
	DD	05006H
xdata	ENDS
;	COMDAT xdata
xdata	SEGMENT
$unwind$??$Safe_Release@PEAVCRenderer@Engine@@@Engine@@YAKAEAPEAVCRenderer@0@@Z DD 025052a01H
	DD	010e2313H
	DD	070070021H
	DD	05006H
xdata	ENDS
;	COMDAT xdata
xdata	SEGMENT
$unwind$??$Safe_Release@PEAVCTransform@Engine@@@Engine@@YAKAEAPEAVCTransform@0@@Z DD 025052a01H
	DD	010e2313H
	DD	070070021H
	DD	05006H
xdata	ENDS
;	COMDAT xdata
xdata	SEGMENT
$unwind$??$Safe_Release@PEAVCPlayerCamera@Client@@@Engine@@YAKAEAPEAVCPlayerCamera@Client@@@Z DD 025052a01H
	DD	010e2313H
	DD	070070021H
	DD	05006H
xdata	ENDS
;	COMDAT xdata
xdata	SEGMENT
$unwind$?SetWinMotion@CApplicationManager@Client@@QEAAX_N@Z DD 05052c01H
	DD	01120315H
	DD	0700b0019H
	DD	0500aH
xdata	ENDS
;	COMDAT xdata
xdata	SEGMENT
$unwind$?IsLevelFinish@CApplicationManager@Client@@QEAA_NW4LEVEL@12@@Z DD 05052c01H
	DD	01120315H
	DD	0700b0019H
	DD	0500aH
xdata	ENDS
;	COMDAT xdata
xdata	SEGMENT
$unwind$?SetLevelFinish@CApplicationManager@Client@@QEAAXW4LEVEL@12@@Z DD 05052c01H
	DD	01120315H
	DD	0700b0019H
	DD	0500aH
xdata	ENDS
;	COMDAT xdata
xdata	SEGMENT
$unwind$?GetLockOnTarget@CCharacter@Client@@QEAAPEAVCGameObject@Engine@@XZ DD 05052801H
	DD	010e0311H
	DD	07007001bH
	DD	05006H
xdata	ENDS
;	COMDAT xdata
xdata	SEGMENT
$unwind$?SetWinMotion@CCharacter@Client@@QEAAX_N@Z DD 05052c01H
	DD	01120315H
	DD	0700b0019H
	DD	0500aH
xdata	ENDS
;	COMDAT xdata
xdata	SEGMENT
$unwind$??0tagColliderDesc@CCollider@Engine@@QEAA@XZ DD 025052a01H
	DD	010e2313H
	DD	07007001dH
	DD	05006H
xdata	ENDS
;	COMDAT xdata
xdata	SEGMENT
$unwind$??_GCPlayerCamera@Client@@EEAAPEAXI@Z DD 025052e01H
	DD	01122317H
	DD	0700b001dH
	DD	0500aH
xdata	ENDS
;	COMDAT xdata
xdata	SEGMENT
$unwind$?Free@CPlayerCamera@Client@@UEAAXXZ DD 025052a01H
	DD	010e2313H
	DD	07007001dH
	DD	05006H
xdata	ENDS
;	COMDAT xdata
xdata	SEGMENT
$unwind$?dtor$0@?0??Clone@CPlayerCamera@Client@@UEAAPEAVCGameObject@Engine@@PEAX@Z@4HA DD 031001H
	DD	0700c4210H
	DD	0500bH
xdata	ENDS
;	COMDAT xdata
xdata	SEGMENT
$ip2state$?Clone@CPlayerCamera@Client@@UEAAPEAVCGameObject@Engine@@PEAX@Z DD imagerel ?Clone@CPlayerCamera@Client@@UEAAPEAVCGameObject@Engine@@PEAX@Z
	DD	0ffffffffH
	DD	imagerel ?Clone@CPlayerCamera@Client@@UEAAPEAVCGameObject@Engine@@PEAX@Z+115
	DD	00H
	DD	imagerel ?Clone@CPlayerCamera@Client@@UEAAPEAVCGameObject@Engine@@PEAX@Z+178
	DD	0ffffffffH
xdata	ENDS
;	COMDAT xdata
xdata	SEGMENT
$stateUnwindMap$?Clone@CPlayerCamera@Client@@UEAAPEAVCGameObject@Engine@@PEAX@Z DD 0ffffffffH
	DD	imagerel ?dtor$0@?0??Clone@CPlayerCamera@Client@@UEAAPEAVCGameObject@Engine@@PEAX@Z@4HA
xdata	ENDS
;	COMDAT xdata
xdata	SEGMENT
$unwind$?Clone@CPlayerCamera@Client@@UEAAPEAVCGameObject@Engine@@PEAX@Z DD 025054b19H
	DD	01132318H
	DD	0700c002fH
	DD	0500bH
	DD	imagerel __GSHandlerCheck_EH
	DD	imagerel $cppxdata$?Clone@CPlayerCamera@Client@@UEAAPEAVCGameObject@Engine@@PEAX@Z
	DD	0162H
xdata	ENDS
;	COMDAT CONST
CONST	SEGMENT
?Clone@CPlayerCamera@Client@@UEAAPEAVCGameObject@Engine@@PEAX@Z$rtcName$0 DB 070H ; Client::CPlayerCamera::Clone
	DB	049H
	DB	06eH
	DB	073H
	DB	074H
	DB	061H
	DB	06eH
	DB	063H
	DB	065H
	DB	00H
	ORG $+6
?Clone@CPlayerCamera@Client@@UEAAPEAVCGameObject@Engine@@PEAX@Z$rtcVarDesc DD 028H ; Client::CPlayerCamera::Clone
	DD	08H
	DQ	FLAT:?Clone@CPlayerCamera@Client@@UEAAPEAVCGameObject@Engine@@PEAX@Z$rtcName$0
	ORG $+48
?Clone@CPlayerCamera@Client@@UEAAPEAVCGameObject@Engine@@PEAX@Z$rtcFrameData DD 01H ; Client::CPlayerCamera::Clone
	DD	00H
	DQ	FLAT:?Clone@CPlayerCamera@Client@@UEAAPEAVCGameObject@Engine@@PEAX@Z$rtcVarDesc
$cppxdata$?Clone@CPlayerCamera@Client@@UEAAPEAVCGameObject@Engine@@PEAX@Z DD 019930522H
	DD	01H
	DD	imagerel $stateUnwindMap$?Clone@CPlayerCamera@Client@@UEAAPEAVCGameObject@Engine@@PEAX@Z
	DD	00H
	DD	00H
	DD	03H
	DD	imagerel $ip2state$?Clone@CPlayerCamera@Client@@UEAAPEAVCGameObject@Engine@@PEAX@Z
	DD	0148H
	DD	00H
	DD	01H
CONST	ENDS
;	COMDAT xdata
xdata	SEGMENT
$unwind$?dtor$0@?0??Create@CPlayerCamera@Client@@SAPEAV12@PEAUID3D11Device@@PEAUID3D11DeviceContext@@@Z@4HA DD 031001H
	DD	0700c4210H
	DD	0500bH
xdata	ENDS
;	COMDAT xdata
xdata	SEGMENT
$ip2state$?Create@CPlayerCamera@Client@@SAPEAV12@PEAUID3D11Device@@PEAUID3D11DeviceContext@@@Z DD imagerel ?Create@CPlayerCamera@Client@@SAPEAV12@PEAUID3D11Device@@PEAUID3D11DeviceContext@@@Z
	DD	0ffffffffH
	DD	imagerel ?Create@CPlayerCamera@Client@@SAPEAV12@PEAUID3D11Device@@PEAUID3D11DeviceContext@@@Z+115
	DD	00H
	DD	imagerel ?Create@CPlayerCamera@Client@@SAPEAV12@PEAUID3D11Device@@PEAUID3D11DeviceContext@@@Z+185
	DD	0ffffffffH
xdata	ENDS
;	COMDAT xdata
xdata	SEGMENT
$stateUnwindMap$?Create@CPlayerCamera@Client@@SAPEAV12@PEAUID3D11Device@@PEAUID3D11DeviceContext@@@Z DD 0ffffffffH
	DD	imagerel ?dtor$0@?0??Create@CPlayerCamera@Client@@SAPEAV12@PEAUID3D11Device@@PEAUID3D11DeviceContext@@@Z@4HA
xdata	ENDS
;	COMDAT xdata
xdata	SEGMENT
$unwind$?Create@CPlayerCamera@Client@@SAPEAV12@PEAUID3D11Device@@PEAUID3D11DeviceContext@@@Z DD 025054b19H
	DD	01132318H
	DD	0700c002fH
	DD	0500bH
	DD	imagerel __GSHandlerCheck_EH
	DD	imagerel $cppxdata$?Create@CPlayerCamera@Client@@SAPEAV12@PEAUID3D11Device@@PEAUID3D11DeviceContext@@@Z
	DD	0162H
xdata	ENDS
;	COMDAT CONST
CONST	SEGMENT
?Create@CPlayerCamera@Client@@SAPEAV12@PEAUID3D11Device@@PEAUID3D11DeviceContext@@@Z$rtcName$0 DB 070H ; Client::CPlayerCamera::Create
	DB	049H
	DB	06eH
	DB	073H
	DB	074H
	DB	061H
	DB	06eH
	DB	063H
	DB	065H
	DB	00H
	ORG $+6
?Create@CPlayerCamera@Client@@SAPEAV12@PEAUID3D11Device@@PEAUID3D11DeviceContext@@@Z$rtcVarDesc DD 028H ; Client::CPlayerCamera::Create
	DD	08H
	DQ	FLAT:?Create@CPlayerCamera@Client@@SAPEAV12@PEAUID3D11Device@@PEAUID3D11DeviceContext@@@Z$rtcName$0
	ORG $+48
?Create@CPlayerCamera@Client@@SAPEAV12@PEAUID3D11Device@@PEAUID3D11DeviceContext@@@Z$rtcFrameData DD 01H ; Client::CPlayerCamera::Create
	DD	00H
	DQ	FLAT:?Create@CPlayerCamera@Client@@SAPEAV12@PEAUID3D11Device@@PEAUID3D11DeviceContext@@@Z$rtcVarDesc
$cppxdata$?Create@CPlayerCamera@Client@@SAPEAV12@PEAUID3D11Device@@PEAUID3D11DeviceContext@@@Z DD 019930522H
	DD	01H
	DD	imagerel $stateUnwindMap$?Create@CPlayerCamera@Client@@SAPEAV12@PEAUID3D11Device@@PEAUID3D11DeviceContext@@@Z
	DD	00H
	DD	00H
	DD	03H
	DD	imagerel $ip2state$?Create@CPlayerCamera@Client@@SAPEAV12@PEAUID3D11Device@@PEAUID3D11DeviceContext@@@Z
	DD	0148H
	DD	00H
	DD	01H
CONST	ENDS
;	COMDAT xdata
xdata	SEGMENT
$unwind$?WinActionMovement@CPlayerCamera@Client@@AEAAXN@Z DD 025054119H
	DD	01142319H
	DD	0700d007bH
	DD	0500cH
	DD	imagerel __GSHandlerCheck
	DD	03c8H
xdata	ENDS
;	COMDAT CONST
CONST	SEGMENT
?WinActionMovement@CPlayerCamera@Client@@AEAAXN@Z$rtcName$0 DB 076H ; Client::CPlayerCamera::WinActionMovement
	DB	054H
	DB	061H
	DB	072H
	DB	067H
	DB	065H
	DB	074H
	DB	050H
	DB	06fH
	DB	073H
	DB	00H
	ORG $+5
?WinActionMovement@CPlayerCamera@Client@@AEAAXN@Z$rtcVarDesc DD 050H ; Client::CPlayerCamera::WinActionMovement
	DD	010H
	DQ	FLAT:?WinActionMovement@CPlayerCamera@Client@@AEAAXN@Z$rtcName$0
	ORG $+48
?WinActionMovement@CPlayerCamera@Client@@AEAAXN@Z$rtcFrameData DD 01H ; Client::CPlayerCamera::WinActionMovement
	DD	00H
	DQ	FLAT:?WinActionMovement@CPlayerCamera@Client@@AEAAXN@Z$rtcVarDesc
CONST	ENDS
;	COMDAT xdata
xdata	SEGMENT
$unwind$?DefaultCameraMovement@CPlayerCamera@Client@@AEAAXN@Z DD 035064219H
	DD	0115331aH
	DD	0700e01b2H
	DD	0500c600dH
	DD	imagerel __GSHandlerCheck
	DD	0d80H
xdata	ENDS
;	COMDAT CONST
CONST	SEGMENT
?DefaultCameraMovement@CPlayerCamera@Client@@AEAAXN@Z$rtcName$0 DB 076H ; Client::CPlayerCamera::DefaultCameraMovement
	DB	054H
	DB	061H
	DB	072H
	DB	067H
	DB	065H
	DB	074H
	DB	050H
	DB	06fH
	DB	073H
	DB	00H
	ORG $+5
?DefaultCameraMovement@CPlayerCamera@Client@@AEAAXN@Z$rtcName$1 DB 076H ; Client::CPlayerCamera::DefaultCameraMovement
	DB	043H
	DB	075H
	DB	072H
	DB	050H
	DB	06fH
	DB	073H
	DB	069H
	DB	074H
	DB	069H
	DB	06fH
	DB	06eH
	DB	00H
	ORG $+3
?DefaultCameraMovement@CPlayerCamera@Client@@AEAAXN@Z$rtcName$2 DB 076H ; Client::CPlayerCamera::DefaultCameraMovement
	DB	04cH
	DB	06fH
	DB	063H
	DB	06bH
	DB	04fH
	DB	06eH
	DB	054H
	DB	061H
	DB	072H
	DB	067H
	DB	065H
	DB	074H
	DB	050H
	DB	06fH
	DB	073H
	DB	00H
	ORG $+7
?DefaultCameraMovement@CPlayerCamera@Client@@AEAAXN@Z$rtcName$3 DB 076H ; Client::CPlayerCamera::DefaultCameraMovement
	DB	043H
	DB	075H
	DB	072H
	DB	050H
	DB	06fH
	DB	073H
	DB	069H
	DB	074H
	DB	069H
	DB	06fH
	DB	06eH
	DB	00H
	ORG $+11
?DefaultCameraMovement@CPlayerCamera@Client@@AEAAXN@Z$rtcVarDesc DD 0270H ; Client::CPlayerCamera::DefaultCameraMovement
	DD	010H
	DQ	FLAT:?DefaultCameraMovement@CPlayerCamera@Client@@AEAAXN@Z$rtcName$3
	DD	01e8H
	DD	010H
	DQ	FLAT:?DefaultCameraMovement@CPlayerCamera@Client@@AEAAXN@Z$rtcName$2
	DD	0190H
	DD	010H
	DQ	FLAT:?DefaultCameraMovement@CPlayerCamera@Client@@AEAAXN@Z$rtcName$1
	DD	060H
	DD	010H
	DQ	FLAT:?DefaultCameraMovement@CPlayerCamera@Client@@AEAAXN@Z$rtcName$0
	ORG $+192
?DefaultCameraMovement@CPlayerCamera@Client@@AEAAXN@Z$rtcFrameData DD 04H ; Client::CPlayerCamera::DefaultCameraMovement
	DD	00H
	DQ	FLAT:?DefaultCameraMovement@CPlayerCamera@Client@@AEAAXN@Z$rtcVarDesc
CONST	ENDS
;	COMDAT xdata
xdata	SEGMENT
$unwind$?Setup_ShaderResources@CPlayerCamera@Client@@QEAAJXZ DD 05052801H
	DD	010e0311H
	DD	070070019H
	DD	05006H
xdata	ENDS
;	COMDAT xdata
xdata	SEGMENT
$unwind$?Add_Components@CPlayerCamera@Client@@QEAAJXZ DD 05052801H
	DD	010e0311H
	DD	070070019H
	DD	05006H
xdata	ENDS
;	COMDAT xdata
xdata	SEGMENT
$unwind$?AttackShake@CPlayerCamera@Client@@QEAAXXZ DD 025052a01H
	DD	010e2313H
	DD	07007001dH
	DD	05006H
xdata	ENDS
;	COMDAT xdata
xdata	SEGMENT
$unwind$?Render@CPlayerCamera@Client@@UEAAJXZ DD 025053b19H
	DD	010e2313H
	DD	070070025H
	DD	05006H
	DD	imagerel __GSHandlerCheck
	DD	0118H
xdata	ENDS
;	COMDAT CONST
CONST	SEGMENT
?Render@CPlayerCamera@Client@@UEAAJXZ$rtcName$0 DB 066H	; Client::CPlayerCamera::Render
	DB	056H
	DB	061H
	DB	06cH
	DB	075H
	DB	065H
	DB	00H
	ORG $+1
?Render@CPlayerCamera@Client@@UEAAJXZ$rtcName$1 DB 066H	; Client::CPlayerCamera::Render
	DB	044H
	DB	069H
	DB	073H
	DB	063H
	DB	061H
	DB	072H
	DB	064H
	DB	056H
	DB	061H
	DB	06cH
	DB	075H
	DB	065H
	DB	00H
	ORG $+10
?Render@CPlayerCamera@Client@@UEAAJXZ$rtcVarDesc DD 044H ; Client::CPlayerCamera::Render
	DD	04H
	DQ	FLAT:?Render@CPlayerCamera@Client@@UEAAJXZ$rtcName$1
	DD	024H
	DD	04H
	DQ	FLAT:?Render@CPlayerCamera@Client@@UEAAJXZ$rtcName$0
	ORG $+96
?Render@CPlayerCamera@Client@@UEAAJXZ$rtcFrameData DD 02H ; Client::CPlayerCamera::Render
	DD	00H
	DQ	FLAT:?Render@CPlayerCamera@Client@@UEAAJXZ$rtcVarDesc
CONST	ENDS
;	COMDAT xdata
xdata	SEGMENT
$unwind$?LateTick@CPlayerCamera@Client@@UEAAXN@Z DD 025053001H
	DD	01142319H
	DD	0700d0025H
	DD	0500cH
xdata	ENDS
;	COMDAT xdata
xdata	SEGMENT
$unwind$?Tick@CPlayerCamera@Client@@UEAAXN@Z DD 025053001H
	DD	01142319H
	DD	0700d001dH
	DD	0500cH
xdata	ENDS
;	COMDAT xdata
xdata	SEGMENT
$unwind$?Initialize@CPlayerCamera@Client@@UEAAJPEAX@Z DD 035064119H
	DD	01143319H
	DD	0700d0106H
	DD	0500b600cH
	DD	imagerel __GSHandlerCheck
	DD	0828H
xdata	ENDS
;	COMDAT CONST
CONST	SEGMENT
?Initialize@CPlayerCamera@Client@@UEAAJPEAX@Z$rtcName$0 DB 063H ; Client::CPlayerCamera::Initialize
	DB	06fH
	DB	06cH
	DB	06cH
	DB	044H
	DB	065H
	DB	073H
	DB	063H
	DB	00H
	ORG $+7
?Initialize@CPlayerCamera@Client@@UEAAJPEAX@Z$rtcVarDesc DD 038H ; Client::CPlayerCamera::Initialize
	DD	030H
	DQ	FLAT:?Initialize@CPlayerCamera@Client@@UEAAJPEAX@Z$rtcName$0
	ORG $+48
?Initialize@CPlayerCamera@Client@@UEAAJPEAX@Z$rtcFrameData DD 01H ; Client::CPlayerCamera::Initialize
	DD	00H
	DQ	FLAT:?Initialize@CPlayerCamera@Client@@UEAAJPEAX@Z$rtcVarDesc
CONST	ENDS
;	COMDAT xdata
xdata	SEGMENT
$unwind$?Initialize_Prototype@CPlayerCamera@Client@@UEAAJXZ DD 025052a01H
	DD	010e2313H
	DD	07007001dH
	DD	05006H
xdata	ENDS
;	COMDAT xdata
xdata	SEGMENT
$unwind$??1CPlayerCamera@Client@@EEAA@XZ DD 025052a01H
	DD	010e2313H
	DD	07007001dH
	DD	05006H
xdata	ENDS
;	COMDAT xdata
xdata	SEGMENT
$unwind$?dtor$0@?0???0CPlayerCamera@Client@@AEAA@AEBV01@@Z@4HA DD 031001H
	DD	0700c4210H
	DD	0500bH
xdata	ENDS
;	COMDAT xdata
xdata	SEGMENT
$ip2state$??0CPlayerCamera@Client@@AEAA@AEBV01@@Z DD imagerel ??0CPlayerCamera@Client@@AEAA@AEBV01@@Z
	DD	0ffffffffH
	DD	imagerel ??0CPlayerCamera@Client@@AEAA@AEBV01@@Z+79
	DD	00H
	DD	imagerel ??0CPlayerCamera@Client@@AEAA@AEBV01@@Z+641
	DD	0ffffffffH
xdata	ENDS
;	COMDAT xdata
xdata	SEGMENT
$stateUnwindMap$??0CPlayerCamera@Client@@AEAA@AEBV01@@Z DD 0ffffffffH
	DD	imagerel ?dtor$0@?0???0CPlayerCamera@Client@@AEAA@AEBV01@@Z@4HA
xdata	ENDS
;	COMDAT CONST
CONST	SEGMENT
$cppxdata$??0CPlayerCamera@Client@@AEAA@AEBV01@@Z DD 019930522H
	DD	01H
	DD	imagerel $stateUnwindMap$??0CPlayerCamera@Client@@AEAA@AEBV01@@Z
	DD	00H
	DD	00H
	DD	03H
	DD	imagerel $ip2state$??0CPlayerCamera@Client@@AEAA@AEBV01@@Z
	DD	0e8H
	DD	00H
	DD	01H
CONST	ENDS
;	COMDAT xdata
xdata	SEGMENT
$unwind$??0CPlayerCamera@Client@@AEAA@AEBV01@@Z DD 025053a11H
	DD	01132318H
	DD	0700c0021H
	DD	0500bH
	DD	imagerel __CxxFrameHandler3
	DD	imagerel $cppxdata$??0CPlayerCamera@Client@@AEAA@AEBV01@@Z
xdata	ENDS
;	COMDAT xdata
xdata	SEGMENT
$unwind$?dtor$0@?0???0CPlayerCamera@Client@@AEAA@PEAUID3D11Device@@PEAUID3D11DeviceContext@@@Z@4HA DD 031001H
	DD	0700c4210H
	DD	0500bH
xdata	ENDS
;	COMDAT xdata
xdata	SEGMENT
$ip2state$??0CPlayerCamera@Client@@AEAA@PEAUID3D11Device@@PEAUID3D11DeviceContext@@@Z DD imagerel ??0CPlayerCamera@Client@@AEAA@PEAUID3D11Device@@PEAUID3D11DeviceContext@@@Z
	DD	0ffffffffH
	DD	imagerel ??0CPlayerCamera@Client@@AEAA@PEAUID3D11Device@@PEAUID3D11DeviceContext@@@Z+91
	DD	00H
	DD	imagerel ??0CPlayerCamera@Client@@AEAA@PEAUID3D11Device@@PEAUID3D11DeviceContext@@@Z+653
	DD	0ffffffffH
xdata	ENDS
;	COMDAT xdata
xdata	SEGMENT
$stateUnwindMap$??0CPlayerCamera@Client@@AEAA@PEAUID3D11Device@@PEAUID3D11DeviceContext@@@Z DD 0ffffffffH
	DD	imagerel ?dtor$0@?0???0CPlayerCamera@Client@@AEAA@PEAUID3D11Device@@PEAUID3D11DeviceContext@@@Z@4HA
xdata	ENDS
;	COMDAT CONST
CONST	SEGMENT
$cppxdata$??0CPlayerCamera@Client@@AEAA@PEAUID3D11Device@@PEAUID3D11DeviceContext@@@Z DD 019930522H
	DD	01H
	DD	imagerel $stateUnwindMap$??0CPlayerCamera@Client@@AEAA@PEAUID3D11Device@@PEAUID3D11DeviceContext@@@Z
	DD	00H
	DD	00H
	DD	03H
	DD	imagerel $ip2state$??0CPlayerCamera@Client@@AEAA@PEAUID3D11Device@@PEAUID3D11DeviceContext@@@Z
	DD	0e8H
	DD	00H
	DD	01H
CONST	ENDS
;	COMDAT xdata
xdata	SEGMENT
$unwind$??0CPlayerCamera@Client@@AEAA@PEAUID3D11Device@@PEAUID3D11DeviceContext@@@Z DD 025053f11H
	DD	0118231dH
	DD	070110021H
	DD	05010H
	DD	imagerel __CxxFrameHandler3
	DD	imagerel $cppxdata$??0CPlayerCamera@Client@@AEAA@PEAUID3D11Device@@PEAUID3D11DeviceContext@@@Z
xdata	ENDS
;	COMDAT xdata
xdata	SEGMENT
$unwind$?XMScalarNearEqual@DirectX@@YA_NMMM@Z DD 025052f01H
	DD	011b2320H
	DD	070140021H
	DD	05013H
xdata	ENDS
;	COMDAT xdata
xdata	SEGMENT
$unwind$?XMMatrixOrthographicLH@DirectX@@YQ?AUXMMATRIX@1@MMMM@Z DD 035054619H
	DD	01213326H
	DD	0701a008fH
	DD	05019H
	DD	imagerel __GSHandlerCheck
	DD	0468H
xdata	ENDS
;	COMDAT CONST
CONST	SEGMENT
?XMMatrixOrthographicLH@DirectX@@YQ?AUXMMATRIX@1@MMMM@Z$rtcName$0 DB 04dH ; DirectX::XMMatrixOrthographicLH
	DB	00H
	ORG $+14
?XMMatrixOrthographicLH@DirectX@@YQ?AUXMMATRIX@1@MMMM@Z$rtcVarDesc DD 040H ; DirectX::XMMatrixOrthographicLH
	DD	040H
	DQ	FLAT:?XMMatrixOrthographicLH@DirectX@@YQ?AUXMMATRIX@1@MMMM@Z$rtcName$0
	ORG $+48
?XMMatrixOrthographicLH@DirectX@@YQ?AUXMMATRIX@1@MMMM@Z$rtcFrameData DD 01H ; DirectX::XMMatrixOrthographicLH
	DD	00H
	DQ	FLAT:?XMMatrixOrthographicLH@DirectX@@YQ?AUXMMATRIX@1@MMMM@Z$rtcVarDesc
CONST	ENDS
;	COMDAT xdata
xdata	SEGMENT
$unwind$?XMMatrixScaling@DirectX@@YQ?AUXMMATRIX@1@MMM@Z DD 035054019H
	DD	011b3320H
	DD	07014003dH
	DD	05013H
	DD	imagerel __GSHandlerCheck
	DD	01d8H
xdata	ENDS
;	COMDAT CONST
CONST	SEGMENT
?XMMatrixScaling@DirectX@@YQ?AUXMMATRIX@1@MMM@Z$rtcName$0 DB 04dH ; DirectX::XMMatrixScaling
	DB	00H
	ORG $+14
?XMMatrixScaling@DirectX@@YQ?AUXMMATRIX@1@MMM@Z$rtcVarDesc DD 040H ; DirectX::XMMatrixScaling
	DD	040H
	DQ	FLAT:?XMMatrixScaling@DirectX@@YQ?AUXMMATRIX@1@MMM@Z$rtcName$0
	ORG $+48
?XMMatrixScaling@DirectX@@YQ?AUXMMATRIX@1@MMM@Z$rtcFrameData DD 01H ; DirectX::XMMatrixScaling
	DD	00H
	DQ	FLAT:?XMMatrixScaling@DirectX@@YQ?AUXMMATRIX@1@MMM@Z$rtcVarDesc
CONST	ENDS
;	COMDAT xdata
xdata	SEGMENT
$unwind$?XMMatrixTranslation@DirectX@@YQ?AUXMMATRIX@1@MMM@Z DD 035054019H
	DD	011b3320H
	DD	070140031H
	DD	05013H
	DD	imagerel __GSHandlerCheck
	DD	0178H
xdata	ENDS
;	COMDAT CONST
CONST	SEGMENT
?XMMatrixTranslation@DirectX@@YQ?AUXMMATRIX@1@MMM@Z$rtcName$0 DB 04dH ; DirectX::XMMatrixTranslation
	DB	00H
	ORG $+14
?XMMatrixTranslation@DirectX@@YQ?AUXMMATRIX@1@MMM@Z$rtcVarDesc DD 040H ; DirectX::XMMatrixTranslation
	DD	040H
	DQ	FLAT:?XMMatrixTranslation@DirectX@@YQ?AUXMMATRIX@1@MMM@Z$rtcName$0
	ORG $+48
?XMMatrixTranslation@DirectX@@YQ?AUXMMATRIX@1@MMM@Z$rtcFrameData DD 01H ; DirectX::XMMatrixTranslation
	DD	00H
	DQ	FLAT:?XMMatrixTranslation@DirectX@@YQ?AUXMMATRIX@1@MMM@Z$rtcVarDesc
CONST	ENDS
;	COMDAT xdata
xdata	SEGMENT
$unwind$?XMMatrixIdentity@DirectX@@YQ?AUXMMATRIX@1@XZ DD 035052f19H
	DD	010a330fH
	DD	07003002bH
	DD	05002H
	DD	imagerel __GSHandlerCheck
	DD	0148H
xdata	ENDS
;	COMDAT CONST
CONST	SEGMENT
?XMMatrixIdentity@DirectX@@YQ?AUXMMATRIX@1@XZ$rtcName$0 DB 04dH ; DirectX::XMMatrixIdentity
	DB	00H
	ORG $+14
?XMMatrixIdentity@DirectX@@YQ?AUXMMATRIX@1@XZ$rtcVarDesc DD 040H ; DirectX::XMMatrixIdentity
	DD	040H
	DQ	FLAT:?XMMatrixIdentity@DirectX@@YQ?AUXMMATRIX@1@XZ$rtcName$0
	ORG $+48
?XMMatrixIdentity@DirectX@@YQ?AUXMMATRIX@1@XZ$rtcFrameData DD 01H ; DirectX::XMMatrixIdentity
	DD	00H
	DQ	FLAT:?XMMatrixIdentity@DirectX@@YQ?AUXMMATRIX@1@XZ$rtcVarDesc
CONST	ENDS
;	COMDAT xdata
xdata	SEGMENT
$unwind$?XMMatrixMultiply@DirectX@@YQ?AUXMMATRIX@1@U21@AEBU21@@Z DD 035053f19H
	DD	010e3313H
	DD	0700701b7H
	DD	05006H
	DD	imagerel __GSHandlerCheck
	DD	0da8H
xdata	ENDS
;	COMDAT CONST
CONST	SEGMENT
?XMMatrixMultiply@DirectX@@YQ?AUXMMATRIX@1@U21@AEBU21@@Z$rtcName$0 DB 04dH ; DirectX::XMMatrixMultiply
	DB	031H
	DB	00H
	ORG $+5
?XMMatrixMultiply@DirectX@@YQ?AUXMMATRIX@1@U21@AEBU21@@Z$rtcName$1 DB 06dH ; DirectX::XMMatrixMultiply
	DB	052H
	DB	065H
	DB	073H
	DB	075H
	DB	06cH
	DB	074H
	DB	00H
?XMMatrixMultiply@DirectX@@YQ?AUXMMATRIX@1@U21@AEBU21@@Z$rtcVarDesc DD 0a0H ; DirectX::XMMatrixMultiply
	DD	040H
	DQ	FLAT:?XMMatrixMultiply@DirectX@@YQ?AUXMMATRIX@1@U21@AEBU21@@Z$rtcName$1
	DD	040H
	DD	040H
	DQ	FLAT:?XMMatrixMultiply@DirectX@@YQ?AUXMMATRIX@1@U21@AEBU21@@Z$rtcName$0
	ORG $+96
?XMMatrixMultiply@DirectX@@YQ?AUXMMATRIX@1@U21@AEBU21@@Z$rtcFrameData DD 02H ; DirectX::XMMatrixMultiply
	DD	00H
	DQ	FLAT:?XMMatrixMultiply@DirectX@@YQ?AUXMMATRIX@1@U21@AEBU21@@Z$rtcVarDesc
CONST	ENDS
;	COMDAT xdata
xdata	SEGMENT
$unwind$?XMVector3Normalize@DirectX@@YQ?AT__m128@@T2@@Z DD 035052a01H
	DD	010a330fH
	DD	0700300dfH
	DD	05002H
xdata	ENDS
;	COMDAT xdata
xdata	SEGMENT
$unwind$?XMVector3Length@DirectX@@YQ?AT__m128@@T2@@Z DD 015052a01H
	DD	010a130fH
	DD	070030057H
	DD	05002H
xdata	ENDS
;	COMDAT xdata
xdata	SEGMENT
$unwind$?XMVectorLerp@DirectX@@YQ?AT__m128@@T2@0M@Z DD 015053b01H
	DD	010f1314H
	DD	070080051H
	DD	05007H
xdata	ENDS
;	COMDAT xdata
xdata	SEGMENT
$unwind$?XMVectorScale@DirectX@@YQ?AT__m128@@T2@M@Z DD 015052f01H
	DD	010f1314H
	DD	070080033H
	DD	05007H
xdata	ENDS
;	COMDAT xdata
xdata	SEGMENT
$unwind$?XMVectorSubtract@DirectX@@YQ?AT__m128@@T2@0@Z DD 015053601H
	DD	010a130fH
	DD	07003002dH
	DD	05002H
xdata	ENDS
;	COMDAT xdata
xdata	SEGMENT
$unwind$?XMVectorAdd@DirectX@@YQ?AT__m128@@T2@0@Z DD 015053601H
	DD	010a130fH
	DD	07003002dH
	DD	05002H
xdata	ENDS
;	COMDAT xdata
xdata	SEGMENT
$unwind$?XMVectorSetY@DirectX@@YQ?AT__m128@@T2@M@Z DD 015052f01H
	DD	010f1314H
	DD	070080045H
	DD	05007H
xdata	ENDS
;	COMDAT xdata
xdata	SEGMENT
$unwind$?XMVectorGetY@DirectX@@YQMT__m128@@@Z DD 015052a01H
	DD	010a130fH
	DD	07003002dH
	DD	05002H
xdata	ENDS
;	COMDAT xdata
xdata	SEGMENT
$unwind$?XMVectorGetX@DirectX@@YQMT__m128@@@Z DD 015052a01H
	DD	010a130fH
	DD	070030021H
	DD	05002H
xdata	ENDS
;	COMDAT xdata
xdata	SEGMENT
$unwind$?XMVectorSet@DirectX@@YQ?AT__m128@@MMMM@Z DD 015053501H
	DD	01211326H
	DD	0701a0021H
	DD	05019H
xdata	ENDS
;	COMDAT xdata
xdata	SEGMENT
$unwind$?XMStoreFloat4x4@DirectX@@YQXPEAUXMFLOAT4X4@1@UXMMATRIX@1@@Z DD 025053601H
	DD	010e2313H
	DD	070070029H
	DD	05006H
xdata	ENDS
;	COMDAT CONST
CONST	SEGMENT
?XMStoreFloat4x4@DirectX@@YQXPEAUXMFLOAT4X4@1@UXMMATRIX@1@@Z$rtcName$0 DB 04dH ; DirectX::XMStoreFloat4x4
	DB	00H
	ORG $+14
?XMStoreFloat4x4@DirectX@@YQXPEAUXMFLOAT4X4@1@UXMMATRIX@1@@Z$rtcVarDesc DD 030H ; DirectX::XMStoreFloat4x4
	DD	040H
	DQ	FLAT:?XMStoreFloat4x4@DirectX@@YQXPEAUXMFLOAT4X4@1@UXMMATRIX@1@@Z$rtcName$0
	ORG $+48
?XMStoreFloat4x4@DirectX@@YQXPEAUXMFLOAT4X4@1@UXMMATRIX@1@@Z$rtcFrameData DD 01H ; DirectX::XMStoreFloat4x4
	DD	00H
	DQ	FLAT:?XMStoreFloat4x4@DirectX@@YQXPEAUXMFLOAT4X4@1@UXMMATRIX@1@@Z$rtcVarDesc
CONST	ENDS
;	COMDAT xdata
xdata	SEGMENT
$unwind$?XMStoreFloat4@DirectX@@YQXPEAUXMFLOAT4@1@T__m128@@@Z DD 025053601H
	DD	010e2313H
	DD	070070023H
	DD	05006H
xdata	ENDS
;	COMDAT xdata
xdata	SEGMENT
$unwind$?XMLoadFloat4@DirectX@@YQ?AT__m128@@PEBUXMFLOAT4@1@@Z DD 035052a01H
	DD	010e3313H
	DD	070070025H
	DD	05006H
xdata	ENDS
;	COMDAT xdata
xdata	SEGMENT
$unwind$?XMLoadFloat3@DirectX@@YQ?AT__m128@@PEBUXMFLOAT3@1@@Z DD 035052a01H
	DD	010e3313H
	DD	070070055H
	DD	05006H
xdata	ENDS
;	COMDAT xdata
xdata	SEGMENT
$unwind$??0XMFLOAT4X4@DirectX@@QEAA@XZ DD 05052801H
	DD	010e0311H
	DD	070070019H
	DD	05006H
xdata	ENDS
;	COMDAT xdata
xdata	SEGMENT
$unwind$??4XMFLOAT4@DirectX@@QEAAAEAU01@AEBU01@@Z DD 05052d01H
	DD	01130316H
	DD	0700c0019H
	DD	0500bH
xdata	ENDS
;	COMDAT xdata
xdata	SEGMENT
$unwind$??0XMFLOAT4@DirectX@@QEAA@XZ DD 05052801H
	DD	010e0311H
	DD	070070019H
	DD	05006H
xdata	ENDS
;	COMDAT xdata
xdata	SEGMENT
$unwind$??4XMFLOAT3@DirectX@@QEAAAEAU01@AEBU01@@Z DD 05052d01H
	DD	01130316H
	DD	0700c0019H
	DD	0500bH
xdata	ENDS
;	COMDAT xdata
xdata	SEGMENT
$unwind$??0XMFLOAT3@DirectX@@QEAA@MMM@Z DD 05053a01H
	DD	01200323H
	DD	070190019H
	DD	05018H
xdata	ENDS
;	COMDAT xdata
xdata	SEGMENT
$unwind$??0XMFLOAT3@DirectX@@QEAA@XZ DD 05052801H
	DD	010e0311H
	DD	070070019H
	DD	05006H
xdata	ENDS
;	COMDAT xdata
xdata	SEGMENT
$unwind$??DXMMATRIX@DirectX@@QEBQ?AU01@U01@@Z DD 035063701H
	DD	010f3314H
	DD	070080042H
	DD	050066007H
xdata	ENDS
;	COMDAT CONST
CONST	SEGMENT
??DXMMATRIX@DirectX@@QEBQ?AU01@U01@@Z$rtcName$0 DB 04dH	; DirectX::XMMATRIX::operator*
	DB	00H
	ORG $+14
??DXMMATRIX@DirectX@@QEBQ?AU01@U01@@Z$rtcVarDesc DD 040H ; DirectX::XMMATRIX::operator*
	DD	040H
	DQ	FLAT:??DXMMATRIX@DirectX@@QEBQ?AU01@U01@@Z$rtcName$0
	ORG $+48
??DXMMATRIX@DirectX@@QEBQ?AU01@U01@@Z$rtcFrameData DD 01H ; DirectX::XMMATRIX::operator*
	DD	00H
	DQ	FLAT:??DXMMATRIX@DirectX@@QEBQ?AU01@U01@@Z$rtcVarDesc
CONST	ENDS
;	COMDAT xdata
xdata	SEGMENT
$unwind$??0XMMATRIX@DirectX@@QEAA@XZ DD 05052801H
	DD	010e0311H
	DD	070070019H
	DD	05006H
xdata	ENDS
;	COMDAT xdata
xdata	SEGMENT
$unwind$??DDirectX@@YQ?AT__m128@@T1@M@Z DD 035052f01H
	DD	010f3314H
	DD	07008002bH
	DD	05007H
xdata	ENDS
;	COMDAT xdata
xdata	SEGMENT
$unwind$??GDirectX@@YQ?AT__m128@@T1@0@Z DD 035053601H
	DD	010a330fH
	DD	070030031H
	DD	05002H
xdata	ENDS
;	COMDAT xdata
xdata	SEGMENT
$unwind$??HDirectX@@YQ?AT__m128@@T1@0@Z DD 035053601H
	DD	010a330fH
	DD	070030031H
	DD	05002H
xdata	ENDS
;	COMDAT xdata
xdata	SEGMENT
$unwind$??BXMVECTORU32@DirectX@@QEBA?AT__m128@@XZ DD 05052d01H
	DD	01130316H
	DD	0700c0019H
	DD	0500bH
xdata	ENDS
;	COMDAT xdata
xdata	SEGMENT
$unwind$??BXMVECTORI32@DirectX@@QEBA?AT__m128@@XZ DD 05052d01H
	DD	01130316H
	DD	0700c0019H
	DD	0500bH
xdata	ENDS
;	COMDAT xdata
xdata	SEGMENT
$unwind$??BXMVECTORF32@DirectX@@QEBA?AT__m128@@XZ DD 05052d01H
	DD	01130316H
	DD	0700c0019H
	DD	0500bH
xdata	ENDS
;	COMDAT xdata
xdata	SEGMENT
$unwind$?XMConvertToRadians@DirectX@@YAMM@Z DD 015052301H
	DD	010f1314H
	DD	07008001bH
	DD	05007H
xdata	ENDS
;	COMDAT xdata
xdata	SEGMENT
$unwind$?cos@@YAMM@Z DD 035052301H
	DD	010f3314H
	DD	07008001fH
	DD	05007H
xdata	ENDS
;	COMDAT xdata
xdata	SEGMENT
$unwind$fabsf DD 035052301H
	DD	010f3314H
	DD	07008001fH
	DD	05007H
xdata	ENDS
;	COMDAT xdata
xdata	SEGMENT
$unwind$?__empty_global_delete@@YAXPEAX_K@Z DD 05052d01H
	DD	01130316H
	DD	0700c0019H
	DD	0500bH
xdata	ENDS
;	COMDAT xdata
xdata	SEGMENT
$unwind$?__empty_global_delete@@YAXPEAX@Z DD 05052801H
	DD	010e0311H
	DD	070070019H
	DD	05006H
xdata	ENDS
;	COMDAT xdata
xdata	SEGMENT
$unwind$??_H@YAXPEAX_K1P6APEAX0@Z@Z DD 025053901H
	DD	011d2322H
	DD	07016001fH
	DD	05015H
xdata	ENDS
; Function compile flags: /Odtp /RTCsu /ZI
; File c:\users\arcco\documents\github\framework\reference\headers\engine_template.h
;	COMDAT ??$Safe_Release@PEAVCTexture@Engine@@@Engine@@YAKAEAPEAVCTexture@0@@Z
_TEXT	SEGMENT
dwRefCnt$ = 4
classType$ = 256
??$Safe_Release@PEAVCTexture@Engine@@@Engine@@YAKAEAPEAVCTexture@0@@Z PROC ; Engine::Safe_Release<Engine::CTexture * __ptr64>, COMDAT

; 18   : 	{

$LN5:
  00000	48 89 4c 24 08	 mov	 QWORD PTR [rsp+8], rcx
  00005	55		 push	 rbp
  00006	57		 push	 rdi
  00007	48 81 ec 08 01
	00 00		 sub	 rsp, 264		; 00000108H
  0000e	48 8d 6c 24 20	 lea	 rbp, QWORD PTR [rsp+32]
  00013	48 8b fc	 mov	 rdi, rsp
  00016	b9 42 00 00 00	 mov	 ecx, 66			; 00000042H
  0001b	b8 cc cc cc cc	 mov	 eax, -858993460		; ccccccccH
  00020	f3 ab		 rep stosd
  00022	48 8b 8c 24 28
	01 00 00	 mov	 rcx, QWORD PTR [rsp+296]

; 19   : 		unsigned long dwRefCnt = 0;

  0002a	c7 45 04 00 00
	00 00		 mov	 DWORD PTR dwRefCnt$[rbp], 0

; 20   : 
; 21   : 		if (nullptr != classType)

  00031	48 8b 85 00 01
	00 00		 mov	 rax, QWORD PTR classType$[rbp]
  00038	48 83 38 00	 cmp	 QWORD PTR [rax], 0
  0003c	74 27		 je	 SHORT $LN2@Safe_Relea

; 22   : 		{
; 23   : 			dwRefCnt = classType->Release();

  0003e	48 8b 85 00 01
	00 00		 mov	 rax, QWORD PTR classType$[rbp]
  00045	48 8b 08	 mov	 rcx, QWORD PTR [rax]
  00048	ff 15 00 00 00
	00		 call	 QWORD PTR __imp_?Release@CBase@Engine@@QEAAKXZ
  0004e	89 45 04	 mov	 DWORD PTR dwRefCnt$[rbp], eax

; 24   : 
; 25   : 			if (0 == dwRefCnt)

  00051	83 7d 04 00	 cmp	 DWORD PTR dwRefCnt$[rbp], 0
  00055	75 0e		 jne	 SHORT $LN3@Safe_Relea

; 26   : 			{
; 27   : 				classType = nullptr;

  00057	48 8b 85 00 01
	00 00		 mov	 rax, QWORD PTR classType$[rbp]
  0005e	48 c7 00 00 00
	00 00		 mov	 QWORD PTR [rax], 0
$LN3@Safe_Relea:
$LN2@Safe_Relea:

; 28   : 			}
; 29   : 		}
; 30   : 
; 31   : 		return dwRefCnt;

  00065	8b 45 04	 mov	 eax, DWORD PTR dwRefCnt$[rbp]

; 32   : 	}

  00068	48 8d a5 e8 00
	00 00		 lea	 rsp, QWORD PTR [rbp+232]
  0006f	5f		 pop	 rdi
  00070	5d		 pop	 rbp
  00071	c3		 ret	 0
??$Safe_Release@PEAVCTexture@Engine@@@Engine@@YAKAEAPEAVCTexture@0@@Z ENDP ; Engine::Safe_Release<Engine::CTexture * __ptr64>
_TEXT	ENDS
; Function compile flags: /Odtp /RTCsu /ZI
; File c:\users\arcco\documents\github\framework\reference\headers\engine_template.h
;	COMDAT ??$Safe_Release@PEAVCVIBuffer_Rect@Engine@@@Engine@@YAKAEAPEAVCVIBuffer_Rect@0@@Z
_TEXT	SEGMENT
dwRefCnt$ = 4
classType$ = 256
??$Safe_Release@PEAVCVIBuffer_Rect@Engine@@@Engine@@YAKAEAPEAVCVIBuffer_Rect@0@@Z PROC ; Engine::Safe_Release<Engine::CVIBuffer_Rect * __ptr64>, COMDAT

; 18   : 	{

$LN5:
  00000	48 89 4c 24 08	 mov	 QWORD PTR [rsp+8], rcx
  00005	55		 push	 rbp
  00006	57		 push	 rdi
  00007	48 81 ec 08 01
	00 00		 sub	 rsp, 264		; 00000108H
  0000e	48 8d 6c 24 20	 lea	 rbp, QWORD PTR [rsp+32]
  00013	48 8b fc	 mov	 rdi, rsp
  00016	b9 42 00 00 00	 mov	 ecx, 66			; 00000042H
  0001b	b8 cc cc cc cc	 mov	 eax, -858993460		; ccccccccH
  00020	f3 ab		 rep stosd
  00022	48 8b 8c 24 28
	01 00 00	 mov	 rcx, QWORD PTR [rsp+296]

; 19   : 		unsigned long dwRefCnt = 0;

  0002a	c7 45 04 00 00
	00 00		 mov	 DWORD PTR dwRefCnt$[rbp], 0

; 20   : 
; 21   : 		if (nullptr != classType)

  00031	48 8b 85 00 01
	00 00		 mov	 rax, QWORD PTR classType$[rbp]
  00038	48 83 38 00	 cmp	 QWORD PTR [rax], 0
  0003c	74 27		 je	 SHORT $LN2@Safe_Relea

; 22   : 		{
; 23   : 			dwRefCnt = classType->Release();

  0003e	48 8b 85 00 01
	00 00		 mov	 rax, QWORD PTR classType$[rbp]
  00045	48 8b 08	 mov	 rcx, QWORD PTR [rax]
  00048	ff 15 00 00 00
	00		 call	 QWORD PTR __imp_?Release@CBase@Engine@@QEAAKXZ
  0004e	89 45 04	 mov	 DWORD PTR dwRefCnt$[rbp], eax

; 24   : 
; 25   : 			if (0 == dwRefCnt)

  00051	83 7d 04 00	 cmp	 DWORD PTR dwRefCnt$[rbp], 0
  00055	75 0e		 jne	 SHORT $LN3@Safe_Relea

; 26   : 			{
; 27   : 				classType = nullptr;

  00057	48 8b 85 00 01
	00 00		 mov	 rax, QWORD PTR classType$[rbp]
  0005e	48 c7 00 00 00
	00 00		 mov	 QWORD PTR [rax], 0
$LN3@Safe_Relea:
$LN2@Safe_Relea:

; 28   : 			}
; 29   : 		}
; 30   : 
; 31   : 		return dwRefCnt;

  00065	8b 45 04	 mov	 eax, DWORD PTR dwRefCnt$[rbp]

; 32   : 	}

  00068	48 8d a5 e8 00
	00 00		 lea	 rsp, QWORD PTR [rbp+232]
  0006f	5f		 pop	 rdi
  00070	5d		 pop	 rbp
  00071	c3		 ret	 0
??$Safe_Release@PEAVCVIBuffer_Rect@Engine@@@Engine@@YAKAEAPEAVCVIBuffer_Rect@0@@Z ENDP ; Engine::Safe_Release<Engine::CVIBuffer_Rect * __ptr64>
_TEXT	ENDS
; Function compile flags: /Odtp /RTCsu /ZI
; File c:\users\arcco\documents\github\framework\reference\headers\engine_template.h
;	COMDAT ??$Safe_Release@PEAVCShader@Engine@@@Engine@@YAKAEAPEAVCShader@0@@Z
_TEXT	SEGMENT
dwRefCnt$ = 4
classType$ = 256
??$Safe_Release@PEAVCShader@Engine@@@Engine@@YAKAEAPEAVCShader@0@@Z PROC ; Engine::Safe_Release<Engine::CShader * __ptr64>, COMDAT

; 18   : 	{

$LN5:
  00000	48 89 4c 24 08	 mov	 QWORD PTR [rsp+8], rcx
  00005	55		 push	 rbp
  00006	57		 push	 rdi
  00007	48 81 ec 08 01
	00 00		 sub	 rsp, 264		; 00000108H
  0000e	48 8d 6c 24 20	 lea	 rbp, QWORD PTR [rsp+32]
  00013	48 8b fc	 mov	 rdi, rsp
  00016	b9 42 00 00 00	 mov	 ecx, 66			; 00000042H
  0001b	b8 cc cc cc cc	 mov	 eax, -858993460		; ccccccccH
  00020	f3 ab		 rep stosd
  00022	48 8b 8c 24 28
	01 00 00	 mov	 rcx, QWORD PTR [rsp+296]

; 19   : 		unsigned long dwRefCnt = 0;

  0002a	c7 45 04 00 00
	00 00		 mov	 DWORD PTR dwRefCnt$[rbp], 0

; 20   : 
; 21   : 		if (nullptr != classType)

  00031	48 8b 85 00 01
	00 00		 mov	 rax, QWORD PTR classType$[rbp]
  00038	48 83 38 00	 cmp	 QWORD PTR [rax], 0
  0003c	74 27		 je	 SHORT $LN2@Safe_Relea

; 22   : 		{
; 23   : 			dwRefCnt = classType->Release();

  0003e	48 8b 85 00 01
	00 00		 mov	 rax, QWORD PTR classType$[rbp]
  00045	48 8b 08	 mov	 rcx, QWORD PTR [rax]
  00048	ff 15 00 00 00
	00		 call	 QWORD PTR __imp_?Release@CBase@Engine@@QEAAKXZ
  0004e	89 45 04	 mov	 DWORD PTR dwRefCnt$[rbp], eax

; 24   : 
; 25   : 			if (0 == dwRefCnt)

  00051	83 7d 04 00	 cmp	 DWORD PTR dwRefCnt$[rbp], 0
  00055	75 0e		 jne	 SHORT $LN3@Safe_Relea

; 26   : 			{
; 27   : 				classType = nullptr;

  00057	48 8b 85 00 01
	00 00		 mov	 rax, QWORD PTR classType$[rbp]
  0005e	48 c7 00 00 00
	00 00		 mov	 QWORD PTR [rax], 0
$LN3@Safe_Relea:
$LN2@Safe_Relea:

; 28   : 			}
; 29   : 		}
; 30   : 
; 31   : 		return dwRefCnt;

  00065	8b 45 04	 mov	 eax, DWORD PTR dwRefCnt$[rbp]

; 32   : 	}

  00068	48 8d a5 e8 00
	00 00		 lea	 rsp, QWORD PTR [rbp+232]
  0006f	5f		 pop	 rdi
  00070	5d		 pop	 rbp
  00071	c3		 ret	 0
??$Safe_Release@PEAVCShader@Engine@@@Engine@@YAKAEAPEAVCShader@0@@Z ENDP ; Engine::Safe_Release<Engine::CShader * __ptr64>
_TEXT	ENDS
; Function compile flags: /Odtp /RTCsu /ZI
; File c:\users\arcco\documents\github\framework\reference\headers\engine_template.h
;	COMDAT ??$Safe_Release@PEAVCRenderer@Engine@@@Engine@@YAKAEAPEAVCRenderer@0@@Z
_TEXT	SEGMENT
dwRefCnt$ = 4
classType$ = 256
??$Safe_Release@PEAVCRenderer@Engine@@@Engine@@YAKAEAPEAVCRenderer@0@@Z PROC ; Engine::Safe_Release<Engine::CRenderer * __ptr64>, COMDAT

; 18   : 	{

$LN5:
  00000	48 89 4c 24 08	 mov	 QWORD PTR [rsp+8], rcx
  00005	55		 push	 rbp
  00006	57		 push	 rdi
  00007	48 81 ec 08 01
	00 00		 sub	 rsp, 264		; 00000108H
  0000e	48 8d 6c 24 20	 lea	 rbp, QWORD PTR [rsp+32]
  00013	48 8b fc	 mov	 rdi, rsp
  00016	b9 42 00 00 00	 mov	 ecx, 66			; 00000042H
  0001b	b8 cc cc cc cc	 mov	 eax, -858993460		; ccccccccH
  00020	f3 ab		 rep stosd
  00022	48 8b 8c 24 28
	01 00 00	 mov	 rcx, QWORD PTR [rsp+296]

; 19   : 		unsigned long dwRefCnt = 0;

  0002a	c7 45 04 00 00
	00 00		 mov	 DWORD PTR dwRefCnt$[rbp], 0

; 20   : 
; 21   : 		if (nullptr != classType)

  00031	48 8b 85 00 01
	00 00		 mov	 rax, QWORD PTR classType$[rbp]
  00038	48 83 38 00	 cmp	 QWORD PTR [rax], 0
  0003c	74 27		 je	 SHORT $LN2@Safe_Relea

; 22   : 		{
; 23   : 			dwRefCnt = classType->Release();

  0003e	48 8b 85 00 01
	00 00		 mov	 rax, QWORD PTR classType$[rbp]
  00045	48 8b 08	 mov	 rcx, QWORD PTR [rax]
  00048	ff 15 00 00 00
	00		 call	 QWORD PTR __imp_?Release@CBase@Engine@@QEAAKXZ
  0004e	89 45 04	 mov	 DWORD PTR dwRefCnt$[rbp], eax

; 24   : 
; 25   : 			if (0 == dwRefCnt)

  00051	83 7d 04 00	 cmp	 DWORD PTR dwRefCnt$[rbp], 0
  00055	75 0e		 jne	 SHORT $LN3@Safe_Relea

; 26   : 			{
; 27   : 				classType = nullptr;

  00057	48 8b 85 00 01
	00 00		 mov	 rax, QWORD PTR classType$[rbp]
  0005e	48 c7 00 00 00
	00 00		 mov	 QWORD PTR [rax], 0
$LN3@Safe_Relea:
$LN2@Safe_Relea:

; 28   : 			}
; 29   : 		}
; 30   : 
; 31   : 		return dwRefCnt;

  00065	8b 45 04	 mov	 eax, DWORD PTR dwRefCnt$[rbp]

; 32   : 	}

  00068	48 8d a5 e8 00
	00 00		 lea	 rsp, QWORD PTR [rbp+232]
  0006f	5f		 pop	 rdi
  00070	5d		 pop	 rbp
  00071	c3		 ret	 0
??$Safe_Release@PEAVCRenderer@Engine@@@Engine@@YAKAEAPEAVCRenderer@0@@Z ENDP ; Engine::Safe_Release<Engine::CRenderer * __ptr64>
_TEXT	ENDS
; Function compile flags: /Odtp /RTCsu /ZI
; File c:\users\arcco\documents\github\framework\reference\headers\engine_template.h
;	COMDAT ??$Safe_Release@PEAVCTransform@Engine@@@Engine@@YAKAEAPEAVCTransform@0@@Z
_TEXT	SEGMENT
dwRefCnt$ = 4
classType$ = 256
??$Safe_Release@PEAVCTransform@Engine@@@Engine@@YAKAEAPEAVCTransform@0@@Z PROC ; Engine::Safe_Release<Engine::CTransform * __ptr64>, COMDAT

; 18   : 	{

$LN5:
  00000	48 89 4c 24 08	 mov	 QWORD PTR [rsp+8], rcx
  00005	55		 push	 rbp
  00006	57		 push	 rdi
  00007	48 81 ec 08 01
	00 00		 sub	 rsp, 264		; 00000108H
  0000e	48 8d 6c 24 20	 lea	 rbp, QWORD PTR [rsp+32]
  00013	48 8b fc	 mov	 rdi, rsp
  00016	b9 42 00 00 00	 mov	 ecx, 66			; 00000042H
  0001b	b8 cc cc cc cc	 mov	 eax, -858993460		; ccccccccH
  00020	f3 ab		 rep stosd
  00022	48 8b 8c 24 28
	01 00 00	 mov	 rcx, QWORD PTR [rsp+296]

; 19   : 		unsigned long dwRefCnt = 0;

  0002a	c7 45 04 00 00
	00 00		 mov	 DWORD PTR dwRefCnt$[rbp], 0

; 20   : 
; 21   : 		if (nullptr != classType)

  00031	48 8b 85 00 01
	00 00		 mov	 rax, QWORD PTR classType$[rbp]
  00038	48 83 38 00	 cmp	 QWORD PTR [rax], 0
  0003c	74 27		 je	 SHORT $LN2@Safe_Relea

; 22   : 		{
; 23   : 			dwRefCnt = classType->Release();

  0003e	48 8b 85 00 01
	00 00		 mov	 rax, QWORD PTR classType$[rbp]
  00045	48 8b 08	 mov	 rcx, QWORD PTR [rax]
  00048	ff 15 00 00 00
	00		 call	 QWORD PTR __imp_?Release@CBase@Engine@@QEAAKXZ
  0004e	89 45 04	 mov	 DWORD PTR dwRefCnt$[rbp], eax

; 24   : 
; 25   : 			if (0 == dwRefCnt)

  00051	83 7d 04 00	 cmp	 DWORD PTR dwRefCnt$[rbp], 0
  00055	75 0e		 jne	 SHORT $LN3@Safe_Relea

; 26   : 			{
; 27   : 				classType = nullptr;

  00057	48 8b 85 00 01
	00 00		 mov	 rax, QWORD PTR classType$[rbp]
  0005e	48 c7 00 00 00
	00 00		 mov	 QWORD PTR [rax], 0
$LN3@Safe_Relea:
$LN2@Safe_Relea:

; 28   : 			}
; 29   : 		}
; 30   : 
; 31   : 		return dwRefCnt;

  00065	8b 45 04	 mov	 eax, DWORD PTR dwRefCnt$[rbp]

; 32   : 	}

  00068	48 8d a5 e8 00
	00 00		 lea	 rsp, QWORD PTR [rbp+232]
  0006f	5f		 pop	 rdi
  00070	5d		 pop	 rbp
  00071	c3		 ret	 0
??$Safe_Release@PEAVCTransform@Engine@@@Engine@@YAKAEAPEAVCTransform@0@@Z ENDP ; Engine::Safe_Release<Engine::CTransform * __ptr64>
_TEXT	ENDS
; Function compile flags: /Odtp /RTCsu /ZI
; File c:\users\arcco\documents\github\framework\reference\headers\engine_template.h
;	COMDAT ??$Safe_Release@PEAVCPlayerCamera@Client@@@Engine@@YAKAEAPEAVCPlayerCamera@Client@@@Z
_TEXT	SEGMENT
dwRefCnt$ = 4
classType$ = 256
??$Safe_Release@PEAVCPlayerCamera@Client@@@Engine@@YAKAEAPEAVCPlayerCamera@Client@@@Z PROC ; Engine::Safe_Release<Client::CPlayerCamera * __ptr64>, COMDAT

; 18   : 	{

$LN5:
  00000	48 89 4c 24 08	 mov	 QWORD PTR [rsp+8], rcx
  00005	55		 push	 rbp
  00006	57		 push	 rdi
  00007	48 81 ec 08 01
	00 00		 sub	 rsp, 264		; 00000108H
  0000e	48 8d 6c 24 20	 lea	 rbp, QWORD PTR [rsp+32]
  00013	48 8b fc	 mov	 rdi, rsp
  00016	b9 42 00 00 00	 mov	 ecx, 66			; 00000042H
  0001b	b8 cc cc cc cc	 mov	 eax, -858993460		; ccccccccH
  00020	f3 ab		 rep stosd
  00022	48 8b 8c 24 28
	01 00 00	 mov	 rcx, QWORD PTR [rsp+296]

; 19   : 		unsigned long dwRefCnt = 0;

  0002a	c7 45 04 00 00
	00 00		 mov	 DWORD PTR dwRefCnt$[rbp], 0

; 20   : 
; 21   : 		if (nullptr != classType)

  00031	48 8b 85 00 01
	00 00		 mov	 rax, QWORD PTR classType$[rbp]
  00038	48 83 38 00	 cmp	 QWORD PTR [rax], 0
  0003c	74 27		 je	 SHORT $LN2@Safe_Relea

; 22   : 		{
; 23   : 			dwRefCnt = classType->Release();

  0003e	48 8b 85 00 01
	00 00		 mov	 rax, QWORD PTR classType$[rbp]
  00045	48 8b 08	 mov	 rcx, QWORD PTR [rax]
  00048	ff 15 00 00 00
	00		 call	 QWORD PTR __imp_?Release@CBase@Engine@@QEAAKXZ
  0004e	89 45 04	 mov	 DWORD PTR dwRefCnt$[rbp], eax

; 24   : 
; 25   : 			if (0 == dwRefCnt)

  00051	83 7d 04 00	 cmp	 DWORD PTR dwRefCnt$[rbp], 0
  00055	75 0e		 jne	 SHORT $LN3@Safe_Relea

; 26   : 			{
; 27   : 				classType = nullptr;

  00057	48 8b 85 00 01
	00 00		 mov	 rax, QWORD PTR classType$[rbp]
  0005e	48 c7 00 00 00
	00 00		 mov	 QWORD PTR [rax], 0
$LN3@Safe_Relea:
$LN2@Safe_Relea:

; 28   : 			}
; 29   : 		}
; 30   : 
; 31   : 		return dwRefCnt;

  00065	8b 45 04	 mov	 eax, DWORD PTR dwRefCnt$[rbp]

; 32   : 	}

  00068	48 8d a5 e8 00
	00 00		 lea	 rsp, QWORD PTR [rbp+232]
  0006f	5f		 pop	 rdi
  00070	5d		 pop	 rbp
  00071	c3		 ret	 0
??$Safe_Release@PEAVCPlayerCamera@Client@@@Engine@@YAKAEAPEAVCPlayerCamera@Client@@@Z ENDP ; Engine::Safe_Release<Client::CPlayerCamera * __ptr64>
_TEXT	ENDS
; Function compile flags: /Odtp /RTCsu /ZI
; File c:\users\arcco\documents\github\framework\client\public\applicationmanager.h
;	COMDAT ?SetWinMotion@CApplicationManager@Client@@QEAAX_N@Z
_TEXT	SEGMENT
this$ = 224
value$ = 232
?SetWinMotion@CApplicationManager@Client@@QEAAX_N@Z PROC ; Client::CApplicationManager::SetWinMotion, COMDAT

; 36   : 	void SetWinMotion(_bool value) { m_isWinMotionPlay = value; }

$LN3:
  00000	88 54 24 10	 mov	 BYTE PTR [rsp+16], dl
  00004	48 89 4c 24 08	 mov	 QWORD PTR [rsp+8], rcx
  00009	55		 push	 rbp
  0000a	57		 push	 rdi
  0000b	48 81 ec c8 00
	00 00		 sub	 rsp, 200		; 000000c8H
  00012	48 8b ec	 mov	 rbp, rsp
  00015	48 8b fc	 mov	 rdi, rsp
  00018	b9 32 00 00 00	 mov	 ecx, 50			; 00000032H
  0001d	b8 cc cc cc cc	 mov	 eax, -858993460		; ccccccccH
  00022	f3 ab		 rep stosd
  00024	48 8b 8c 24 e8
	00 00 00	 mov	 rcx, QWORD PTR [rsp+232]
  0002c	48 8b 85 e0 00
	00 00		 mov	 rax, QWORD PTR this$[rbp]
  00033	0f b6 8d e8 00
	00 00		 movzx	 ecx, BYTE PTR value$[rbp]
  0003a	88 48 4b	 mov	 BYTE PTR [rax+75], cl
  0003d	48 8d a5 c8 00
	00 00		 lea	 rsp, QWORD PTR [rbp+200]
  00044	5f		 pop	 rdi
  00045	5d		 pop	 rbp
  00046	c3		 ret	 0
?SetWinMotion@CApplicationManager@Client@@QEAAX_N@Z ENDP ; Client::CApplicationManager::SetWinMotion
_TEXT	ENDS
; Function compile flags: /Odtp /RTCsu /ZI
; File c:\users\arcco\documents\github\framework\client\public\applicationmanager.h
;	COMDAT ?IsLevelFinish@CApplicationManager@Client@@QEAA_NW4LEVEL@12@@Z
_TEXT	SEGMENT
this$ = 224
eLevel$ = 232
?IsLevelFinish@CApplicationManager@Client@@QEAA_NW4LEVEL@12@@Z PROC ; Client::CApplicationManager::IsLevelFinish, COMDAT

; 34   : 	_bool IsLevelFinish(LEVEL eLevel) { return m_bLevelEnd[(_uint)eLevel]; }

$LN3:
  00000	89 54 24 10	 mov	 DWORD PTR [rsp+16], edx
  00004	48 89 4c 24 08	 mov	 QWORD PTR [rsp+8], rcx
  00009	55		 push	 rbp
  0000a	57		 push	 rdi
  0000b	48 81 ec c8 00
	00 00		 sub	 rsp, 200		; 000000c8H
  00012	48 8b ec	 mov	 rbp, rsp
  00015	48 8b fc	 mov	 rdi, rsp
  00018	b9 32 00 00 00	 mov	 ecx, 50			; 00000032H
  0001d	b8 cc cc cc cc	 mov	 eax, -858993460		; ccccccccH
  00022	f3 ab		 rep stosd
  00024	48 8b 8c 24 e8
	00 00 00	 mov	 rcx, QWORD PTR [rsp+232]
  0002c	8b 85 e8 00 00
	00		 mov	 eax, DWORD PTR eLevel$[rbp]
  00032	48 8b 8d e0 00
	00 00		 mov	 rcx, QWORD PTR this$[rbp]
  00039	0f b6 44 01 49	 movzx	 eax, BYTE PTR [rcx+rax+73]
  0003e	48 8d a5 c8 00
	00 00		 lea	 rsp, QWORD PTR [rbp+200]
  00045	5f		 pop	 rdi
  00046	5d		 pop	 rbp
  00047	c3		 ret	 0
?IsLevelFinish@CApplicationManager@Client@@QEAA_NW4LEVEL@12@@Z ENDP ; Client::CApplicationManager::IsLevelFinish
_TEXT	ENDS
; Function compile flags: /Odtp /RTCsu /ZI
; File c:\users\arcco\documents\github\framework\client\public\applicationmanager.h
;	COMDAT ?SetLevelFinish@CApplicationManager@Client@@QEAAXW4LEVEL@12@@Z
_TEXT	SEGMENT
this$ = 224
eLevel$ = 232
?SetLevelFinish@CApplicationManager@Client@@QEAAXW4LEVEL@12@@Z PROC ; Client::CApplicationManager::SetLevelFinish, COMDAT

; 33   : 	void SetLevelFinish(LEVEL eLevel) { m_bLevelEnd[(_uint)eLevel] = true; }

$LN3:
  00000	89 54 24 10	 mov	 DWORD PTR [rsp+16], edx
  00004	48 89 4c 24 08	 mov	 QWORD PTR [rsp+8], rcx
  00009	55		 push	 rbp
  0000a	57		 push	 rdi
  0000b	48 81 ec c8 00
	00 00		 sub	 rsp, 200		; 000000c8H
  00012	48 8b ec	 mov	 rbp, rsp
  00015	48 8b fc	 mov	 rdi, rsp
  00018	b9 32 00 00 00	 mov	 ecx, 50			; 00000032H
  0001d	b8 cc cc cc cc	 mov	 eax, -858993460		; ccccccccH
  00022	f3 ab		 rep stosd
  00024	48 8b 8c 24 e8
	00 00 00	 mov	 rcx, QWORD PTR [rsp+232]
  0002c	8b 85 e8 00 00
	00		 mov	 eax, DWORD PTR eLevel$[rbp]
  00032	48 8b 8d e0 00
	00 00		 mov	 rcx, QWORD PTR this$[rbp]
  00039	c6 44 01 49 01	 mov	 BYTE PTR [rcx+rax+73], 1
  0003e	48 8d a5 c8 00
	00 00		 lea	 rsp, QWORD PTR [rbp+200]
  00045	5f		 pop	 rdi
  00046	5d		 pop	 rbp
  00047	c3		 ret	 0
?SetLevelFinish@CApplicationManager@Client@@QEAAXW4LEVEL@12@@Z ENDP ; Client::CApplicationManager::SetLevelFinish
_TEXT	ENDS
; Function compile flags: /Odtp /RTCsu /ZI
; File c:\users\arcco\documents\github\framework\client\public\character.h
;	COMDAT ?GetLockOnTarget@CCharacter@Client@@QEAAPEAVCGameObject@Engine@@XZ
_TEXT	SEGMENT
tv67 = 192
this$ = 240
?GetLockOnTarget@CCharacter@Client@@QEAAPEAVCGameObject@Engine@@XZ PROC ; Client::CCharacter::GetLockOnTarget, COMDAT

; 212  : 	CGameObject* GetLockOnTarget() { return m_pNearEnemy != nullptr ? (CGameObject*)m_pNearEnemy : nullptr; }

$LN5:
  00000	48 89 4c 24 08	 mov	 QWORD PTR [rsp+8], rcx
  00005	55		 push	 rbp
  00006	57		 push	 rdi
  00007	48 81 ec d8 00
	00 00		 sub	 rsp, 216		; 000000d8H
  0000e	48 8b ec	 mov	 rbp, rsp
  00011	48 8b fc	 mov	 rdi, rsp
  00014	b9 36 00 00 00	 mov	 ecx, 54			; 00000036H
  00019	b8 cc cc cc cc	 mov	 eax, -858993460		; ccccccccH
  0001e	f3 ab		 rep stosd
  00020	48 8b 8c 24 f8
	00 00 00	 mov	 rcx, QWORD PTR [rsp+248]
  00028	48 8b 85 f0 00
	00 00		 mov	 rax, QWORD PTR this$[rbp]
  0002f	48 83 b8 90 01
	00 00 00	 cmp	 QWORD PTR [rax+400], 0
  00037	74 17		 je	 SHORT $LN3@GetLockOnT
  00039	48 8b 85 f0 00
	00 00		 mov	 rax, QWORD PTR this$[rbp]
  00040	48 8b 80 90 01
	00 00		 mov	 rax, QWORD PTR [rax+400]
  00047	48 89 85 c0 00
	00 00		 mov	 QWORD PTR tv67[rbp], rax
  0004e	eb 0b		 jmp	 SHORT $LN4@GetLockOnT
$LN3@GetLockOnT:
  00050	48 c7 85 c0 00
	00 00 00 00 00
	00		 mov	 QWORD PTR tv67[rbp], 0
$LN4@GetLockOnT:
  0005b	48 8b 85 c0 00
	00 00		 mov	 rax, QWORD PTR tv67[rbp]
  00062	48 8d a5 d8 00
	00 00		 lea	 rsp, QWORD PTR [rbp+216]
  00069	5f		 pop	 rdi
  0006a	5d		 pop	 rbp
  0006b	c3		 ret	 0
?GetLockOnTarget@CCharacter@Client@@QEAAPEAVCGameObject@Engine@@XZ ENDP ; Client::CCharacter::GetLockOnTarget
_TEXT	ENDS
; Function compile flags: /Odtp /RTCsu /ZI
; File c:\users\arcco\documents\github\framework\client\public\character.h
;	COMDAT ?SetWinMotion@CCharacter@Client@@QEAAX_N@Z
_TEXT	SEGMENT
this$ = 224
value$ = 232
?SetWinMotion@CCharacter@Client@@QEAAX_N@Z PROC		; Client::CCharacter::SetWinMotion, COMDAT

; 176  : 	void SetWinMotion(_bool value) { m_bWin = value; };

$LN3:
  00000	88 54 24 10	 mov	 BYTE PTR [rsp+16], dl
  00004	48 89 4c 24 08	 mov	 QWORD PTR [rsp+8], rcx
  00009	55		 push	 rbp
  0000a	57		 push	 rdi
  0000b	48 81 ec c8 00
	00 00		 sub	 rsp, 200		; 000000c8H
  00012	48 8b ec	 mov	 rbp, rsp
  00015	48 8b fc	 mov	 rdi, rsp
  00018	b9 32 00 00 00	 mov	 ecx, 50			; 00000032H
  0001d	b8 cc cc cc cc	 mov	 eax, -858993460		; ccccccccH
  00022	f3 ab		 rep stosd
  00024	48 8b 8c 24 e8
	00 00 00	 mov	 rcx, QWORD PTR [rsp+232]
  0002c	48 8b 85 e0 00
	00 00		 mov	 rax, QWORD PTR this$[rbp]
  00033	0f b6 8d e8 00
	00 00		 movzx	 ecx, BYTE PTR value$[rbp]
  0003a	88 88 df 02 00
	00		 mov	 BYTE PTR [rax+735], cl
  00040	48 8d a5 c8 00
	00 00		 lea	 rsp, QWORD PTR [rbp+200]
  00047	5f		 pop	 rdi
  00048	5d		 pop	 rbp
  00049	c3		 ret	 0
?SetWinMotion@CCharacter@Client@@QEAAX_N@Z ENDP		; Client::CCharacter::SetWinMotion
_TEXT	ENDS
; Function compile flags: /Odtp /RTCsu /ZI
;	COMDAT ??0tagColliderDesc@CCollider@Engine@@QEAA@XZ
_TEXT	SEGMENT
this$ = 224
??0tagColliderDesc@CCollider@Engine@@QEAA@XZ PROC	; Engine::CCollider::tagColliderDesc::tagColliderDesc, COMDAT
$LN3:
  00000	48 89 4c 24 08	 mov	 QWORD PTR [rsp+8], rcx
  00005	55		 push	 rbp
  00006	57		 push	 rdi
  00007	48 81 ec e8 00
	00 00		 sub	 rsp, 232		; 000000e8H
  0000e	48 8d 6c 24 20	 lea	 rbp, QWORD PTR [rsp+32]
  00013	48 8b fc	 mov	 rdi, rsp
  00016	b9 3a 00 00 00	 mov	 ecx, 58			; 0000003aH
  0001b	b8 cc cc cc cc	 mov	 eax, -858993460		; ccccccccH
  00020	f3 ab		 rep stosd
  00022	48 8b 8c 24 08
	01 00 00	 mov	 rcx, QWORD PTR [rsp+264]
  0002a	48 8b 85 e0 00
	00 00		 mov	 rax, QWORD PTR this$[rbp]
  00031	48 83 c0 08	 add	 rax, 8
  00035	48 8b c8	 mov	 rcx, rax
  00038	e8 00 00 00 00	 call	 ??0XMFLOAT3@DirectX@@QEAA@XZ ; DirectX::XMFLOAT3::XMFLOAT3
  0003d	48 8b 85 e0 00
	00 00		 mov	 rax, QWORD PTR this$[rbp]
  00044	48 83 c0 14	 add	 rax, 20
  00048	48 8b c8	 mov	 rcx, rax
  0004b	e8 00 00 00 00	 call	 ??0XMFLOAT3@DirectX@@QEAA@XZ ; DirectX::XMFLOAT3::XMFLOAT3
  00050	48 8b 85 e0 00
	00 00		 mov	 rax, QWORD PTR this$[rbp]
  00057	48 83 c0 20	 add	 rax, 32			; 00000020H
  0005b	48 8b c8	 mov	 rcx, rax
  0005e	e8 00 00 00 00	 call	 ??0XMFLOAT3@DirectX@@QEAA@XZ ; DirectX::XMFLOAT3::XMFLOAT3
  00063	48 8b 85 e0 00
	00 00		 mov	 rax, QWORD PTR this$[rbp]
  0006a	48 8d a5 c8 00
	00 00		 lea	 rsp, QWORD PTR [rbp+200]
  00071	5f		 pop	 rdi
  00072	5d		 pop	 rbp
  00073	c3		 ret	 0
??0tagColliderDesc@CCollider@Engine@@QEAA@XZ ENDP	; Engine::CCollider::tagColliderDesc::tagColliderDesc
_TEXT	ENDS
; Function compile flags: /Odtp /RTCsu /ZI
;	COMDAT ??_GCPlayerCamera@Client@@EEAAPEAXI@Z
_TEXT	SEGMENT
this$ = 224
__flags$ = 232
??_GCPlayerCamera@Client@@EEAAPEAXI@Z PROC		; Client::CPlayerCamera::`scalar deleting destructor', COMDAT
$LN4:
  00000	89 54 24 10	 mov	 DWORD PTR [rsp+16], edx
  00004	48 89 4c 24 08	 mov	 QWORD PTR [rsp+8], rcx
  00009	55		 push	 rbp
  0000a	57		 push	 rdi
  0000b	48 81 ec e8 00
	00 00		 sub	 rsp, 232		; 000000e8H
  00012	48 8d 6c 24 20	 lea	 rbp, QWORD PTR [rsp+32]
  00017	48 8b fc	 mov	 rdi, rsp
  0001a	b9 3a 00 00 00	 mov	 ecx, 58			; 0000003aH
  0001f	b8 cc cc cc cc	 mov	 eax, -858993460		; ccccccccH
  00024	f3 ab		 rep stosd
  00026	48 8b 8c 24 08
	01 00 00	 mov	 rcx, QWORD PTR [rsp+264]
  0002e	48 8b 8d e0 00
	00 00		 mov	 rcx, QWORD PTR this$[rbp]
  00035	e8 00 00 00 00	 call	 ??1CPlayerCamera@Client@@EEAA@XZ ; Client::CPlayerCamera::~CPlayerCamera
  0003a	8b 85 e8 00 00
	00		 mov	 eax, DWORD PTR __flags$[rbp]
  00040	83 e0 01	 and	 eax, 1
  00043	85 c0		 test	 eax, eax
  00045	74 11		 je	 SHORT $LN2@scalar
  00047	ba c8 02 00 00	 mov	 edx, 712		; 000002c8H
  0004c	48 8b 8d e0 00
	00 00		 mov	 rcx, QWORD PTR this$[rbp]
  00053	e8 00 00 00 00	 call	 ??3@YAXPEAX_K@Z		; operator delete
$LN2@scalar:
  00058	48 8b 85 e0 00
	00 00		 mov	 rax, QWORD PTR this$[rbp]
  0005f	48 8d a5 c8 00
	00 00		 lea	 rsp, QWORD PTR [rbp+200]
  00066	5f		 pop	 rdi
  00067	5d		 pop	 rbp
  00068	c3		 ret	 0
??_GCPlayerCamera@Client@@EEAAPEAXI@Z ENDP		; Client::CPlayerCamera::`scalar deleting destructor'
_TEXT	ENDS
; Function compile flags: /Odtp /RTCsu /ZI
; File c:\users\arcco\documents\github\framework\client\private\playercamera.cpp
;	COMDAT ?Free@CPlayerCamera@Client@@UEAAXXZ
_TEXT	SEGMENT
this$ = 224
?Free@CPlayerCamera@Client@@UEAAXXZ PROC		; Client::CPlayerCamera::Free, COMDAT

; 386  : {

$LN3:
  00000	48 89 4c 24 08	 mov	 QWORD PTR [rsp+8], rcx
  00005	55		 push	 rbp
  00006	57		 push	 rdi
  00007	48 81 ec e8 00
	00 00		 sub	 rsp, 232		; 000000e8H
  0000e	48 8d 6c 24 20	 lea	 rbp, QWORD PTR [rsp+32]
  00013	48 8b fc	 mov	 rdi, rsp
  00016	b9 3a 00 00 00	 mov	 ecx, 58			; 0000003aH
  0001b	b8 cc cc cc cc	 mov	 eax, -858993460		; ccccccccH
  00020	f3 ab		 rep stosd
  00022	48 8b 8c 24 08
	01 00 00	 mov	 rcx, QWORD PTR [rsp+264]

; 387  : 	__super::Free();

  0002a	48 8b 8d e0 00
	00 00		 mov	 rcx, QWORD PTR this$[rbp]
  00031	ff 15 00 00 00
	00		 call	 QWORD PTR __imp_?Free@CCamera@Engine@@UEAAXXZ

; 388  : 
; 389  : 	Safe_Release(m_pTransform);

  00037	48 8b 85 e0 00
	00 00		 mov	 rax, QWORD PTR this$[rbp]
  0003e	48 83 c0 78	 add	 rax, 120		; 00000078H
  00042	48 8b c8	 mov	 rcx, rax
  00045	e8 00 00 00 00	 call	 ??$Safe_Release@PEAVCTransform@Engine@@@Engine@@YAKAEAPEAVCTransform@0@@Z ; Engine::Safe_Release<Engine::CTransform * __ptr64>

; 390  : 
; 391  : 	Safe_Release(m_pRenderer);

  0004a	48 8b 85 e0 00
	00 00		 mov	 rax, QWORD PTR this$[rbp]
  00051	48 05 a8 02 00
	00		 add	 rax, 680		; 000002a8H
  00057	48 8b c8	 mov	 rcx, rax
  0005a	e8 00 00 00 00	 call	 ??$Safe_Release@PEAVCRenderer@Engine@@@Engine@@YAKAEAPEAVCRenderer@0@@Z ; Engine::Safe_Release<Engine::CRenderer * __ptr64>

; 392  : 	Safe_Release(m_pShader);

  0005f	48 8b 85 e0 00
	00 00		 mov	 rax, QWORD PTR this$[rbp]
  00066	48 05 b0 02 00
	00		 add	 rax, 688		; 000002b0H
  0006c	48 8b c8	 mov	 rcx, rax
  0006f	e8 00 00 00 00	 call	 ??$Safe_Release@PEAVCShader@Engine@@@Engine@@YAKAEAPEAVCShader@0@@Z ; Engine::Safe_Release<Engine::CShader * __ptr64>

; 393  : 	Safe_Release(m_pVIBuffer);

  00074	48 8b 85 e0 00
	00 00		 mov	 rax, QWORD PTR this$[rbp]
  0007b	48 05 b8 02 00
	00		 add	 rax, 696		; 000002b8H
  00081	48 8b c8	 mov	 rcx, rax
  00084	e8 00 00 00 00	 call	 ??$Safe_Release@PEAVCVIBuffer_Rect@Engine@@@Engine@@YAKAEAPEAVCVIBuffer_Rect@0@@Z ; Engine::Safe_Release<Engine::CVIBuffer_Rect * __ptr64>

; 394  : 	Safe_Release(m_pTexture);

  00089	48 8b 85 e0 00
	00 00		 mov	 rax, QWORD PTR this$[rbp]
  00090	48 05 c0 02 00
	00		 add	 rax, 704		; 000002c0H
  00096	48 8b c8	 mov	 rcx, rax
  00099	e8 00 00 00 00	 call	 ??$Safe_Release@PEAVCTexture@Engine@@@Engine@@YAKAEAPEAVCTexture@0@@Z ; Engine::Safe_Release<Engine::CTexture * __ptr64>

; 395  : }

  0009e	48 8d a5 c8 00
	00 00		 lea	 rsp, QWORD PTR [rbp+200]
  000a5	5f		 pop	 rdi
  000a6	5d		 pop	 rbp
  000a7	c3		 ret	 0
?Free@CPlayerCamera@Client@@UEAAXXZ ENDP		; Client::CPlayerCamera::Free
_TEXT	ENDS
; Function compile flags: /Odtp /RTCsu /ZI
; File c:\users\arcco\documents\github\framework\client\private\playercamera.cpp
;	COMDAT ?Clone@CPlayerCamera@Client@@UEAAPEAVCGameObject@Engine@@PEAX@Z
_TEXT	SEGMENT
pInstance$ = 8
$T4 = 232
$T5 = 264
$T6 = 296
tv83 = 312
__$ArrayPad$ = 320
this$ = 368
pArg$ = 376
?Clone@CPlayerCamera@Client@@UEAAPEAVCGameObject@Engine@@PEAX@Z PROC ; Client::CPlayerCamera::Clone, COMDAT

; 374  : {

$LN7:
  00000	48 89 54 24 10	 mov	 QWORD PTR [rsp+16], rdx
  00005	48 89 4c 24 08	 mov	 QWORD PTR [rsp+8], rcx
  0000a	55		 push	 rbp
  0000b	57		 push	 rdi
  0000c	48 81 ec 78 01
	00 00		 sub	 rsp, 376		; 00000178H
  00013	48 8d 6c 24 20	 lea	 rbp, QWORD PTR [rsp+32]
  00018	48 8b fc	 mov	 rdi, rsp
  0001b	b9 5e 00 00 00	 mov	 ecx, 94			; 0000005eH
  00020	b8 cc cc cc cc	 mov	 eax, -858993460		; ccccccccH
  00025	f3 ab		 rep stosd
  00027	48 8b 8c 24 98
	01 00 00	 mov	 rcx, QWORD PTR [rsp+408]
  0002f	48 c7 85 28 01
	00 00 fe ff ff
	ff		 mov	 QWORD PTR $T6[rbp], -2
  0003a	48 8b 05 00 00
	00 00		 mov	 rax, QWORD PTR __security_cookie
  00041	48 33 c5	 xor	 rax, rbp
  00044	48 89 85 40 01
	00 00		 mov	 QWORD PTR __$ArrayPad$[rbp], rax

; 375  : 	CPlayerCamera*	pInstance = new CPlayerCamera(*this);

  0004b	8b 05 00 00 00
	00		 mov	 eax, DWORD PTR ?__LINE__Var@?0??Clone@CPlayerCamera@Client@@UEAAPEAVCGameObject@Engine@@PEAX@Z@4JA
  00051	ff c0		 inc	 eax
  00053	44 8b c8	 mov	 r9d, eax
  00056	4c 8d 05 00 00
	00 00		 lea	 r8, OFFSET FLAT:??_C@_0EK@IICOGJBM@c?3?2users?2arcco?2documents?2github?2@
  0005d	ba 01 00 00 00	 mov	 edx, 1
  00062	b9 c8 02 00 00	 mov	 ecx, 712		; 000002c8H
  00067	e8 00 00 00 00	 call	 ??2@YAPEAX_KHPEBDH@Z	; operator new
  0006c	48 89 85 08 01
	00 00		 mov	 QWORD PTR $T5[rbp], rax
  00073	48 83 bd 08 01
	00 00 00	 cmp	 QWORD PTR $T5[rbp], 0
  0007b	74 1c		 je	 SHORT $LN4@Clone
  0007d	48 8b 95 70 01
	00 00		 mov	 rdx, QWORD PTR this$[rbp]
  00084	48 8b 8d 08 01
	00 00		 mov	 rcx, QWORD PTR $T5[rbp]
  0008b	e8 00 00 00 00	 call	 ??0CPlayerCamera@Client@@AEAA@AEBV01@@Z ; Client::CPlayerCamera::CPlayerCamera
  00090	48 89 85 38 01
	00 00		 mov	 QWORD PTR tv83[rbp], rax
  00097	eb 0b		 jmp	 SHORT $LN5@Clone
$LN4@Clone:
  00099	48 c7 85 38 01
	00 00 00 00 00
	00		 mov	 QWORD PTR tv83[rbp], 0
$LN5@Clone:
  000a4	48 8b 85 38 01
	00 00		 mov	 rax, QWORD PTR tv83[rbp]
  000ab	48 89 85 e8 00
	00 00		 mov	 QWORD PTR $T4[rbp], rax
  000b2	48 8b 85 e8 00
	00 00		 mov	 rax, QWORD PTR $T4[rbp]
  000b9	48 89 45 08	 mov	 QWORD PTR pInstance$[rbp], rax

; 376  : 	if (FAILED(pInstance->Initialize(pArg)))

  000bd	48 8b 95 78 01
	00 00		 mov	 rdx, QWORD PTR pArg$[rbp]
  000c4	48 8b 4d 08	 mov	 rcx, QWORD PTR pInstance$[rbp]
  000c8	e8 00 00 00 00	 call	 ?Initialize@CPlayerCamera@Client@@UEAAJPEAX@Z ; Client::CPlayerCamera::Initialize
  000cd	85 c0		 test	 eax, eax
  000cf	7d 22		 jge	 SHORT $LN2@Clone

; 377  : 	{
; 378  : 		MSG_BOX("Failed to Cloned : CPlayerCamera");

  000d1	45 33 c9	 xor	 r9d, r9d
  000d4	4c 8d 05 00 00
	00 00		 lea	 r8, OFFSET FLAT:??_C@_1BA@HHOMBECE@?$AAM?$AAe?$AAs?$AAs?$AAa?$AAg?$AAe?$AA?$AA@
  000db	48 8d 15 00 00
	00 00		 lea	 rdx, OFFSET FLAT:??_C@_1EC@NFPGCMME@?$AAF?$AAa?$AAi?$AAl?$AAe?$AAd?$AA?5?$AAt?$AAo?$AA?5?$AAC?$AAl?$AAo?$AAn?$AAe?$AAd?$AA?5?$AA?3?$AA?5?$AAC?$AAP?$AAl?$AAa?$AAy?$AAe?$AAr?$AAC?$AAa?$AAm?$AAe?$AAr?$AAa@
  000e2	33 c9		 xor	 ecx, ecx
  000e4	ff 15 00 00 00
	00		 call	 QWORD PTR __imp_MessageBoxW

; 379  : 		Safe_Release(pInstance);

  000ea	48 8d 4d 08	 lea	 rcx, QWORD PTR pInstance$[rbp]
  000ee	e8 00 00 00 00	 call	 ??$Safe_Release@PEAVCPlayerCamera@Client@@@Engine@@YAKAEAPEAVCPlayerCamera@Client@@@Z ; Engine::Safe_Release<Client::CPlayerCamera * __ptr64>
$LN2@Clone:

; 380  : 	}
; 381  : 
; 382  : 	return pInstance;

  000f3	48 8b 45 08	 mov	 rax, QWORD PTR pInstance$[rbp]

; 383  : }

  000f7	48 8b f8	 mov	 rdi, rax
  000fa	48 8d 4d e0	 lea	 rcx, QWORD PTR [rbp-32]
  000fe	48 8d 15 00 00
	00 00		 lea	 rdx, OFFSET FLAT:?Clone@CPlayerCamera@Client@@UEAAPEAVCGameObject@Engine@@PEAX@Z$rtcFrameData
  00105	e8 00 00 00 00	 call	 _RTC_CheckStackVars
  0010a	48 8b c7	 mov	 rax, rdi
  0010d	48 8b 8d 40 01
	00 00		 mov	 rcx, QWORD PTR __$ArrayPad$[rbp]
  00114	48 33 cd	 xor	 rcx, rbp
  00117	e8 00 00 00 00	 call	 __security_check_cookie
  0011c	48 8d a5 58 01
	00 00		 lea	 rsp, QWORD PTR [rbp+344]
  00123	5f		 pop	 rdi
  00124	5d		 pop	 rbp
  00125	c3		 ret	 0
?Clone@CPlayerCamera@Client@@UEAAPEAVCGameObject@Engine@@PEAX@Z ENDP ; Client::CPlayerCamera::Clone
_TEXT	ENDS
;	COMDAT text$x
text$x	SEGMENT
pInstance$ = 8
$T4 = 232
$T5 = 264
$T6 = 296
tv83 = 312
__$ArrayPad$ = 320
this$ = 368
pArg$ = 376
?dtor$0@?0??Clone@CPlayerCamera@Client@@UEAAPEAVCGameObject@Engine@@PEAX@Z@4HA PROC ; `Client::CPlayerCamera::Clone'::`1'::dtor$0
  00000	48 89 4c 24 08	 mov	 QWORD PTR [rsp+8], rcx
  00005	48 89 54 24 10	 mov	 QWORD PTR [rsp+16], rdx
  0000a	55		 push	 rbp
  0000b	57		 push	 rdi
  0000c	48 83 ec 28	 sub	 rsp, 40			; 00000028H
  00010	48 8d 6a 20	 lea	 rbp, QWORD PTR [rdx+32]
  00014	44 8b 0d 00 00
	00 00		 mov	 r9d, DWORD PTR ?__LINE__Var@?0??Clone@CPlayerCamera@Client@@UEAAPEAVCGameObject@Engine@@PEAX@Z@4JA
  0001b	41 ff c1	 inc	 r9d
  0001e	4c 8d 05 00 00
	00 00		 lea	 r8, OFFSET FLAT:??_C@_0EK@IICOGJBM@c?3?2users?2arcco?2documents?2github?2@
  00025	ba 01 00 00 00	 mov	 edx, 1
  0002a	48 8b 8d 08 01
	00 00		 mov	 rcx, QWORD PTR $T5[rbp]
  00031	e8 00 00 00 00	 call	 ??3@YAXPEAXHPEBDH@Z	; operator delete
  00036	48 83 c4 28	 add	 rsp, 40			; 00000028H
  0003a	5f		 pop	 rdi
  0003b	5d		 pop	 rbp
  0003c	c3		 ret	 0
?dtor$0@?0??Clone@CPlayerCamera@Client@@UEAAPEAVCGameObject@Engine@@PEAX@Z@4HA ENDP ; `Client::CPlayerCamera::Clone'::`1'::dtor$0
text$x	ENDS
; Function compile flags: /Odtp /RTCsu /ZI
;	COMDAT text$x
text$x	SEGMENT
pInstance$ = 8
$T4 = 232
$T5 = 264
$T6 = 296
tv83 = 312
__$ArrayPad$ = 320
this$ = 368
pArg$ = 376
?dtor$0@?0??Clone@CPlayerCamera@Client@@UEAAPEAVCGameObject@Engine@@PEAX@Z@4HA PROC ; `Client::CPlayerCamera::Clone'::`1'::dtor$0
  00000	48 89 4c 24 08	 mov	 QWORD PTR [rsp+8], rcx
  00005	48 89 54 24 10	 mov	 QWORD PTR [rsp+16], rdx
  0000a	55		 push	 rbp
  0000b	57		 push	 rdi
  0000c	48 83 ec 28	 sub	 rsp, 40			; 00000028H
  00010	48 8d 6a 20	 lea	 rbp, QWORD PTR [rdx+32]
  00014	44 8b 0d 00 00
	00 00		 mov	 r9d, DWORD PTR ?__LINE__Var@?0??Clone@CPlayerCamera@Client@@UEAAPEAVCGameObject@Engine@@PEAX@Z@4JA
  0001b	41 ff c1	 inc	 r9d
  0001e	4c 8d 05 00 00
	00 00		 lea	 r8, OFFSET FLAT:??_C@_0EK@IICOGJBM@c?3?2users?2arcco?2documents?2github?2@
  00025	ba 01 00 00 00	 mov	 edx, 1
  0002a	48 8b 8d 08 01
	00 00		 mov	 rcx, QWORD PTR $T5[rbp]
  00031	e8 00 00 00 00	 call	 ??3@YAXPEAXHPEBDH@Z	; operator delete
  00036	48 83 c4 28	 add	 rsp, 40			; 00000028H
  0003a	5f		 pop	 rdi
  0003b	5d		 pop	 rbp
  0003c	c3		 ret	 0
?dtor$0@?0??Clone@CPlayerCamera@Client@@UEAAPEAVCGameObject@Engine@@PEAX@Z@4HA ENDP ; `Client::CPlayerCamera::Clone'::`1'::dtor$0
text$x	ENDS
; Function compile flags: /Odtp /RTCsu /ZI
; File c:\users\arcco\documents\github\framework\client\private\playercamera.cpp
;	COMDAT ?Create@CPlayerCamera@Client@@SAPEAV12@PEAUID3D11Device@@PEAUID3D11DeviceContext@@@Z
_TEXT	SEGMENT
pInstance$ = 8
$T4 = 232
$T5 = 264
$T6 = 296
tv84 = 312
__$ArrayPad$ = 320
pDevice$ = 368
pContext$ = 376
?Create@CPlayerCamera@Client@@SAPEAV12@PEAUID3D11Device@@PEAUID3D11DeviceContext@@@Z PROC ; Client::CPlayerCamera::Create, COMDAT

; 362  : {

$LN7:
  00000	48 89 54 24 10	 mov	 QWORD PTR [rsp+16], rdx
  00005	48 89 4c 24 08	 mov	 QWORD PTR [rsp+8], rcx
  0000a	55		 push	 rbp
  0000b	57		 push	 rdi
  0000c	48 81 ec 78 01
	00 00		 sub	 rsp, 376		; 00000178H
  00013	48 8d 6c 24 20	 lea	 rbp, QWORD PTR [rsp+32]
  00018	48 8b fc	 mov	 rdi, rsp
  0001b	b9 5e 00 00 00	 mov	 ecx, 94			; 0000005eH
  00020	b8 cc cc cc cc	 mov	 eax, -858993460		; ccccccccH
  00025	f3 ab		 rep stosd
  00027	48 8b 8c 24 98
	01 00 00	 mov	 rcx, QWORD PTR [rsp+408]
  0002f	48 c7 85 28 01
	00 00 fe ff ff
	ff		 mov	 QWORD PTR $T6[rbp], -2
  0003a	48 8b 05 00 00
	00 00		 mov	 rax, QWORD PTR __security_cookie
  00041	48 33 c5	 xor	 rax, rbp
  00044	48 89 85 40 01
	00 00		 mov	 QWORD PTR __$ArrayPad$[rbp], rax

; 363  : 	CPlayerCamera*	pInstance = new CPlayerCamera(pDevice, pContext);

  0004b	8b 05 00 00 00
	00		 mov	 eax, DWORD PTR ?__LINE__Var@?0??Create@CPlayerCamera@Client@@SAPEAV23@PEAUID3D11Device@@PEAUID3D11DeviceContext@@@Z@4JA
  00051	ff c0		 inc	 eax
  00053	44 8b c8	 mov	 r9d, eax
  00056	4c 8d 05 00 00
	00 00		 lea	 r8, OFFSET FLAT:??_C@_0EK@IICOGJBM@c?3?2users?2arcco?2documents?2github?2@
  0005d	ba 01 00 00 00	 mov	 edx, 1
  00062	b9 c8 02 00 00	 mov	 ecx, 712		; 000002c8H
  00067	e8 00 00 00 00	 call	 ??2@YAPEAX_KHPEBDH@Z	; operator new
  0006c	48 89 85 08 01
	00 00		 mov	 QWORD PTR $T5[rbp], rax
  00073	48 83 bd 08 01
	00 00 00	 cmp	 QWORD PTR $T5[rbp], 0
  0007b	74 23		 je	 SHORT $LN4@Create
  0007d	4c 8b 85 78 01
	00 00		 mov	 r8, QWORD PTR pContext$[rbp]
  00084	48 8b 95 70 01
	00 00		 mov	 rdx, QWORD PTR pDevice$[rbp]
  0008b	48 8b 8d 08 01
	00 00		 mov	 rcx, QWORD PTR $T5[rbp]
  00092	e8 00 00 00 00	 call	 ??0CPlayerCamera@Client@@AEAA@PEAUID3D11Device@@PEAUID3D11DeviceContext@@@Z ; Client::CPlayerCamera::CPlayerCamera
  00097	48 89 85 38 01
	00 00		 mov	 QWORD PTR tv84[rbp], rax
  0009e	eb 0b		 jmp	 SHORT $LN5@Create
$LN4@Create:
  000a0	48 c7 85 38 01
	00 00 00 00 00
	00		 mov	 QWORD PTR tv84[rbp], 0
$LN5@Create:
  000ab	48 8b 85 38 01
	00 00		 mov	 rax, QWORD PTR tv84[rbp]
  000b2	48 89 85 e8 00
	00 00		 mov	 QWORD PTR $T4[rbp], rax
  000b9	48 8b 85 e8 00
	00 00		 mov	 rax, QWORD PTR $T4[rbp]
  000c0	48 89 45 08	 mov	 QWORD PTR pInstance$[rbp], rax

; 364  : 	if (FAILED(pInstance->Initialize_Prototype()))

  000c4	48 8b 4d 08	 mov	 rcx, QWORD PTR pInstance$[rbp]
  000c8	e8 00 00 00 00	 call	 ?Initialize_Prototype@CPlayerCamera@Client@@UEAAJXZ ; Client::CPlayerCamera::Initialize_Prototype
  000cd	85 c0		 test	 eax, eax
  000cf	7d 22		 jge	 SHORT $LN2@Create

; 365  : 	{
; 366  : 		MSG_BOX("Failed to Created : CPlayerCamera");

  000d1	45 33 c9	 xor	 r9d, r9d
  000d4	4c 8d 05 00 00
	00 00		 lea	 r8, OFFSET FLAT:??_C@_1BA@HHOMBECE@?$AAM?$AAe?$AAs?$AAs?$AAa?$AAg?$AAe?$AA?$AA@
  000db	48 8d 15 00 00
	00 00		 lea	 rdx, OFFSET FLAT:??_C@_1EE@CMOMLOPH@?$AAF?$AAa?$AAi?$AAl?$AAe?$AAd?$AA?5?$AAt?$AAo?$AA?5?$AAC?$AAr?$AAe?$AAa?$AAt?$AAe?$AAd?$AA?5?$AA?3?$AA?5?$AAC?$AAP?$AAl?$AAa?$AAy?$AAe?$AAr?$AAC?$AAa?$AAm?$AAe?$AAr@
  000e2	33 c9		 xor	 ecx, ecx
  000e4	ff 15 00 00 00
	00		 call	 QWORD PTR __imp_MessageBoxW

; 367  : 		Safe_Release(pInstance);

  000ea	48 8d 4d 08	 lea	 rcx, QWORD PTR pInstance$[rbp]
  000ee	e8 00 00 00 00	 call	 ??$Safe_Release@PEAVCPlayerCamera@Client@@@Engine@@YAKAEAPEAVCPlayerCamera@Client@@@Z ; Engine::Safe_Release<Client::CPlayerCamera * __ptr64>
$LN2@Create:

; 368  : 	}
; 369  : 
; 370  : 	return pInstance;

  000f3	48 8b 45 08	 mov	 rax, QWORD PTR pInstance$[rbp]

; 371  : }

  000f7	48 8b f8	 mov	 rdi, rax
  000fa	48 8d 4d e0	 lea	 rcx, QWORD PTR [rbp-32]
  000fe	48 8d 15 00 00
	00 00		 lea	 rdx, OFFSET FLAT:?Create@CPlayerCamera@Client@@SAPEAV12@PEAUID3D11Device@@PEAUID3D11DeviceContext@@@Z$rtcFrameData
  00105	e8 00 00 00 00	 call	 _RTC_CheckStackVars
  0010a	48 8b c7	 mov	 rax, rdi
  0010d	48 8b 8d 40 01
	00 00		 mov	 rcx, QWORD PTR __$ArrayPad$[rbp]
  00114	48 33 cd	 xor	 rcx, rbp
  00117	e8 00 00 00 00	 call	 __security_check_cookie
  0011c	48 8d a5 58 01
	00 00		 lea	 rsp, QWORD PTR [rbp+344]
  00123	5f		 pop	 rdi
  00124	5d		 pop	 rbp
  00125	c3		 ret	 0
?Create@CPlayerCamera@Client@@SAPEAV12@PEAUID3D11Device@@PEAUID3D11DeviceContext@@@Z ENDP ; Client::CPlayerCamera::Create
_TEXT	ENDS
;	COMDAT text$x
text$x	SEGMENT
pInstance$ = 8
$T4 = 232
$T5 = 264
$T6 = 296
tv84 = 312
__$ArrayPad$ = 320
pDevice$ = 368
pContext$ = 376
?dtor$0@?0??Create@CPlayerCamera@Client@@SAPEAV12@PEAUID3D11Device@@PEAUID3D11DeviceContext@@@Z@4HA PROC ; `Client::CPlayerCamera::Create'::`1'::dtor$0
  00000	48 89 4c 24 08	 mov	 QWORD PTR [rsp+8], rcx
  00005	48 89 54 24 10	 mov	 QWORD PTR [rsp+16], rdx
  0000a	55		 push	 rbp
  0000b	57		 push	 rdi
  0000c	48 83 ec 28	 sub	 rsp, 40			; 00000028H
  00010	48 8d 6a 20	 lea	 rbp, QWORD PTR [rdx+32]
  00014	44 8b 0d 00 00
	00 00		 mov	 r9d, DWORD PTR ?__LINE__Var@?0??Create@CPlayerCamera@Client@@SAPEAV23@PEAUID3D11Device@@PEAUID3D11DeviceContext@@@Z@4JA
  0001b	41 ff c1	 inc	 r9d
  0001e	4c 8d 05 00 00
	00 00		 lea	 r8, OFFSET FLAT:??_C@_0EK@IICOGJBM@c?3?2users?2arcco?2documents?2github?2@
  00025	ba 01 00 00 00	 mov	 edx, 1
  0002a	48 8b 8d 08 01
	00 00		 mov	 rcx, QWORD PTR $T5[rbp]
  00031	e8 00 00 00 00	 call	 ??3@YAXPEAXHPEBDH@Z	; operator delete
  00036	48 83 c4 28	 add	 rsp, 40			; 00000028H
  0003a	5f		 pop	 rdi
  0003b	5d		 pop	 rbp
  0003c	c3		 ret	 0
?dtor$0@?0??Create@CPlayerCamera@Client@@SAPEAV12@PEAUID3D11Device@@PEAUID3D11DeviceContext@@@Z@4HA ENDP ; `Client::CPlayerCamera::Create'::`1'::dtor$0
text$x	ENDS
; Function compile flags: /Odtp /RTCsu /ZI
;	COMDAT text$x
text$x	SEGMENT
pInstance$ = 8
$T4 = 232
$T5 = 264
$T6 = 296
tv84 = 312
__$ArrayPad$ = 320
pDevice$ = 368
pContext$ = 376
?dtor$0@?0??Create@CPlayerCamera@Client@@SAPEAV12@PEAUID3D11Device@@PEAUID3D11DeviceContext@@@Z@4HA PROC ; `Client::CPlayerCamera::Create'::`1'::dtor$0
  00000	48 89 4c 24 08	 mov	 QWORD PTR [rsp+8], rcx
  00005	48 89 54 24 10	 mov	 QWORD PTR [rsp+16], rdx
  0000a	55		 push	 rbp
  0000b	57		 push	 rdi
  0000c	48 83 ec 28	 sub	 rsp, 40			; 00000028H
  00010	48 8d 6a 20	 lea	 rbp, QWORD PTR [rdx+32]
  00014	44 8b 0d 00 00
	00 00		 mov	 r9d, DWORD PTR ?__LINE__Var@?0??Create@CPlayerCamera@Client@@SAPEAV23@PEAUID3D11Device@@PEAUID3D11DeviceContext@@@Z@4JA
  0001b	41 ff c1	 inc	 r9d
  0001e	4c 8d 05 00 00
	00 00		 lea	 r8, OFFSET FLAT:??_C@_0EK@IICOGJBM@c?3?2users?2arcco?2documents?2github?2@
  00025	ba 01 00 00 00	 mov	 edx, 1
  0002a	48 8b 8d 08 01
	00 00		 mov	 rcx, QWORD PTR $T5[rbp]
  00031	e8 00 00 00 00	 call	 ??3@YAXPEAXHPEBDH@Z	; operator delete
  00036	48 83 c4 28	 add	 rsp, 40			; 00000028H
  0003a	5f		 pop	 rdi
  0003b	5d		 pop	 rbp
  0003c	c3		 ret	 0
?dtor$0@?0??Create@CPlayerCamera@Client@@SAPEAV12@PEAUID3D11Device@@PEAUID3D11DeviceContext@@@Z@4HA ENDP ; `Client::CPlayerCamera::Create'::`1'::dtor$0
text$x	ENDS
; Function compile flags: /Odtp /RTCsu /ZI
; File c:\users\arcco\documents\github\framework\client\private\playercamera.cpp
;	COMDAT ?WinActionMovement@CPlayerCamera@Client@@AEAAXN@Z
_TEXT	SEGMENT
pGameInstance$ = 8
vTargetPos$ = 48
vTargetLook$ = 96
vCurCamPos$ = 144
$T4 = 576
$T5 = 624
$T6 = 672
$T7 = 720
$T8 = 768
$T9 = 816
$T10 = 864
$T11 = 912
tv133 = 932
__$ArrayPad$ = 936
this$ = 976
TimeDelta$ = 984
?WinActionMovement@CPlayerCamera@Client@@AEAAXN@Z PROC	; Client::CPlayerCamera::WinActionMovement, COMDAT

; 332  : {

$LN5:
  00000	f2 0f 11 4c 24
	10		 movsd	 QWORD PTR [rsp+16], xmm1
  00006	48 89 4c 24 08	 mov	 QWORD PTR [rsp+8], rcx
  0000b	55		 push	 rbp
  0000c	57		 push	 rdi
  0000d	48 81 ec d8 03
	00 00		 sub	 rsp, 984		; 000003d8H
  00014	48 8d 6c 24 20	 lea	 rbp, QWORD PTR [rsp+32]
  00019	48 8b fc	 mov	 rdi, rsp
  0001c	b9 f6 00 00 00	 mov	 ecx, 246		; 000000f6H
  00021	b8 cc cc cc cc	 mov	 eax, -858993460		; ccccccccH
  00026	f3 ab		 rep stosd
  00028	48 8b 8c 24 f8
	03 00 00	 mov	 rcx, QWORD PTR [rsp+1016]
  00030	48 8b 05 00 00
	00 00		 mov	 rax, QWORD PTR __security_cookie
  00037	48 33 c5	 xor	 rax, rbp
  0003a	48 89 85 a8 03
	00 00		 mov	 QWORD PTR __$ArrayPad$[rbp], rax

; 333  : 	if (m_isGoal)

  00041	48 8b 85 d0 03
	00 00		 mov	 rax, QWORD PTR this$[rbp]
  00048	0f b6 80 a8 01
	00 00		 movzx	 eax, BYTE PTR [rax+424]
  0004f	85 c0		 test	 eax, eax
  00051	74 05		 je	 SHORT $LN2@WinActionM

; 334  : 		return;

  00053	e9 08 02 00 00	 jmp	 $LN1@WinActionM
$LN2@WinActionM:

; 335  : 
; 336  : 	m_fWinActionAcc += TimeDelta * 1.5f;

  00058	f2 0f 10 85 d8
	03 00 00	 movsd	 xmm0, QWORD PTR TimeDelta$[rbp]
  00060	f2 0f 59 05 00
	00 00 00	 mulsd	 xmm0, QWORD PTR __real@3ff8000000000000
  00068	48 8b 85 d0 03
	00 00		 mov	 rax, QWORD PTR this$[rbp]
  0006f	f3 0f 5a 88 a4
	01 00 00	 cvtss2sd xmm1, DWORD PTR [rax+420]
  00077	f2 0f 58 c8	 addsd	 xmm1, xmm0
  0007b	0f 28 c1	 movaps	 xmm0, xmm1
  0007e	f2 0f 5a c0	 cvtsd2ss xmm0, xmm0
  00082	48 8b 85 d0 03
	00 00		 mov	 rax, QWORD PTR this$[rbp]
  00089	f3 0f 11 80 a4
	01 00 00	 movss	 DWORD PTR [rax+420], xmm0

; 337  : 
; 338  : 	if (m_fWinActionAcc >= 6.f)

  00091	48 8b 85 d0 03
	00 00		 mov	 rax, QWORD PTR this$[rbp]
  00098	f3 0f 10 80 a4
	01 00 00	 movss	 xmm0, DWORD PTR [rax+420]
  000a0	0f 2f 05 00 00
	00 00		 comiss	 xmm0, DWORD PTR __real@40c00000
  000a7	72 3c		 jb	 SHORT $LN3@WinActionM

; 339  : 	{
; 340  : 		m_isGoal = true;

  000a9	48 8b 85 d0 03
	00 00		 mov	 rax, QWORD PTR this$[rbp]
  000b0	c6 80 a8 01 00
	00 01		 mov	 BYTE PTR [rax+424], 1

; 341  : 		m_bFadeIn = true;

  000b7	48 8b 85 d0 03
	00 00		 mov	 rax, QWORD PTR this$[rbp]
  000be	c6 80 c1 01 00
	00 01		 mov	 BYTE PTR [rax+449], 1

; 342  : 		m_bFinish = true;

  000c5	48 8b 85 d0 03
	00 00		 mov	 rax, QWORD PTR this$[rbp]
  000cc	c6 80 c0 01 00
	00 01		 mov	 BYTE PTR [rax+448], 1

; 343  : 		//m_bWinAction = false;
; 344  : 		m_fWinActionAcc = 0.f;

  000d3	48 8b 85 d0 03
	00 00		 mov	 rax, QWORD PTR this$[rbp]
  000da	0f 57 c0	 xorps	 xmm0, xmm0
  000dd	f3 0f 11 80 a4
	01 00 00	 movss	 DWORD PTR [rax+420], xmm0
$LN3@WinActionM:

; 345  : 	}
; 346  : 
; 347  : 	CGameInstance* pGameInstance = CGameInstance::GetInstance();

  000e5	ff 15 00 00 00
	00		 call	 QWORD PTR __imp_?GetInstance@CGameInstance@Engine@@SAPEAV12@XZ
  000eb	48 89 45 08	 mov	 QWORD PTR pGameInstance$[rbp], rax

; 348  : 	_vector vTargetPos = m_pTargetTransform->Get_State(CTransform::STATE_POSITION);

  000ef	41 b8 03 00 00
	00		 mov	 r8d, 3
  000f5	48 8d 55 30	 lea	 rdx, QWORD PTR vTargetPos$[rbp]
  000f9	48 8b 85 d0 03
	00 00		 mov	 rax, QWORD PTR this$[rbp]
  00100	48 8b 88 28 01
	00 00		 mov	 rcx, QWORD PTR [rax+296]
  00107	ff 15 00 00 00
	00		 call	 QWORD PTR __imp_?Get_State@CTransform@Engine@@QEAA?AT__m128@@W4STATE@12@@Z

; 349  : 	_vector vTargetLook = XMVector3Normalize(m_pTargetTransform->Get_State(CTransform::STATE_LOOK));

  0010d	41 b8 02 00 00
	00		 mov	 r8d, 2
  00113	48 8d 95 70 02
	00 00		 lea	 rdx, QWORD PTR $T5[rbp]
  0011a	48 8b 85 d0 03
	00 00		 mov	 rax, QWORD PTR this$[rbp]
  00121	48 8b 88 28 01
	00 00		 mov	 rcx, QWORD PTR [rax+296]
  00128	ff 15 00 00 00
	00		 call	 QWORD PTR __imp_?Get_State@CTransform@Engine@@QEAA?AT__m128@@W4STATE@12@@Z
  0012e	0f 10 00	 movups	 xmm0, XMMWORD PTR [rax]
  00131	e8 00 00 00 00	 call	 ?XMVector3Normalize@DirectX@@YQ?AT__m128@@T2@@Z ; DirectX::XMVector3Normalize
  00136	0f 29 85 40 02
	00 00		 movaps	 XMMWORD PTR $T4[rbp], xmm0
  0013d	0f 28 85 40 02
	00 00		 movaps	 xmm0, XMMWORD PTR $T4[rbp]
  00144	0f 29 45 60	 movaps	 XMMWORD PTR vTargetLook$[rbp], xmm0

; 350  : 
; 351  : 	vTargetPos = XMVectorSetY(vTargetPos, 1.5f);

  00148	f3 0f 10 0d 00
	00 00 00	 movss	 xmm1, DWORD PTR __real@3fc00000
  00150	0f 28 45 30	 movaps	 xmm0, XMMWORD PTR vTargetPos$[rbp]
  00154	e8 00 00 00 00	 call	 ?XMVectorSetY@DirectX@@YQ?AT__m128@@T2@M@Z ; DirectX::XMVectorSetY
  00159	0f 29 85 a0 02
	00 00		 movaps	 XMMWORD PTR $T6[rbp], xmm0
  00160	0f 28 85 a0 02
	00 00		 movaps	 xmm0, XMMWORD PTR $T6[rbp]
  00167	0f 29 45 30	 movaps	 XMMWORD PTR vTargetPos$[rbp], xmm0

; 352  : 	_vector vCurCamPos = vTargetPos + vTargetLook * 1.2f;

  0016b	f3 0f 10 0d 00
	00 00 00	 movss	 xmm1, DWORD PTR __real@3f99999a
  00173	0f 28 45 60	 movaps	 xmm0, XMMWORD PTR vTargetLook$[rbp]
  00177	e8 00 00 00 00	 call	 ??DDirectX@@YQ?AT__m128@@T1@M@Z ; DirectX::operator*
  0017c	0f 29 85 00 03
	00 00		 movaps	 XMMWORD PTR $T8[rbp], xmm0
  00183	0f 28 8d 00 03
	00 00		 movaps	 xmm1, XMMWORD PTR $T8[rbp]
  0018a	0f 28 45 30	 movaps	 xmm0, XMMWORD PTR vTargetPos$[rbp]
  0018e	e8 00 00 00 00	 call	 ??HDirectX@@YQ?AT__m128@@T1@0@Z ; DirectX::operator+
  00193	0f 29 85 d0 02
	00 00		 movaps	 XMMWORD PTR $T7[rbp], xmm0
  0019a	0f 28 85 d0 02
	00 00		 movaps	 xmm0, XMMWORD PTR $T7[rbp]
  001a1	0f 29 85 90 00
	00 00		 movaps	 XMMWORD PTR vCurCamPos$[rbp], xmm0

; 353  : 
; 354  : 	vCurCamPos = XMVectorSetY(vCurCamPos, XMVectorGetY(vCurCamPos) + 0.05f * cos(m_fWinActionAcc));

  001a8	0f 28 85 90 00
	00 00		 movaps	 xmm0, XMMWORD PTR vCurCamPos$[rbp]
  001af	e8 00 00 00 00	 call	 ?XMVectorGetY@DirectX@@YQMT__m128@@@Z ; DirectX::XMVectorGetY
  001b4	f3 0f 11 85 a4
	03 00 00	 movss	 DWORD PTR tv133[rbp], xmm0
  001bc	48 8b 85 d0 03
	00 00		 mov	 rax, QWORD PTR this$[rbp]
  001c3	f3 0f 10 80 a4
	01 00 00	 movss	 xmm0, DWORD PTR [rax+420]
  001cb	e8 00 00 00 00	 call	 ?cos@@YAMM@Z		; cos
  001d0	f3 0f 10 0d 00
	00 00 00	 movss	 xmm1, DWORD PTR __real@3d4ccccd
  001d8	f3 0f 59 c8	 mulss	 xmm1, xmm0
  001dc	0f 28 c1	 movaps	 xmm0, xmm1
  001df	f3 0f 10 8d a4
	03 00 00	 movss	 xmm1, DWORD PTR tv133[rbp]
  001e7	f3 0f 58 c8	 addss	 xmm1, xmm0
  001eb	0f 28 c1	 movaps	 xmm0, xmm1
  001ee	0f 28 c8	 movaps	 xmm1, xmm0
  001f1	0f 28 85 90 00
	00 00		 movaps	 xmm0, XMMWORD PTR vCurCamPos$[rbp]
  001f8	e8 00 00 00 00	 call	 ?XMVectorSetY@DirectX@@YQ?AT__m128@@T2@M@Z ; DirectX::XMVectorSetY
  001fd	0f 29 85 30 03
	00 00		 movaps	 XMMWORD PTR $T9[rbp], xmm0
  00204	0f 28 85 30 03
	00 00		 movaps	 xmm0, XMMWORD PTR $T9[rbp]
  0020b	0f 29 85 90 00
	00 00		 movaps	 XMMWORD PTR vCurCamPos$[rbp], xmm0

; 355  : 
; 356  : 	m_pTransform->Set_State(CTransform::STATE_POSITION, vCurCamPos);

  00212	0f 28 85 90 00
	00 00		 movaps	 xmm0, XMMWORD PTR vCurCamPos$[rbp]
  00219	0f 29 85 60 03
	00 00		 movaps	 XMMWORD PTR $T10[rbp], xmm0
  00220	4c 8d 85 60 03
	00 00		 lea	 r8, QWORD PTR $T10[rbp]
  00227	ba 03 00 00 00	 mov	 edx, 3
  0022c	48 8b 85 d0 03
	00 00		 mov	 rax, QWORD PTR this$[rbp]
  00233	48 8b 48 78	 mov	 rcx, QWORD PTR [rax+120]
  00237	ff 15 00 00 00
	00		 call	 QWORD PTR __imp_?Set_State@CTransform@Engine@@QEAAXW4STATE@12@T__m128@@@Z

; 357  : 	m_pTransform->LookAt(vTargetPos);

  0023d	0f 28 45 30	 movaps	 xmm0, XMMWORD PTR vTargetPos$[rbp]
  00241	0f 29 85 90 03
	00 00		 movaps	 XMMWORD PTR $T11[rbp], xmm0
  00248	48 8d 95 90 03
	00 00		 lea	 rdx, QWORD PTR $T11[rbp]
  0024f	48 8b 85 d0 03
	00 00		 mov	 rax, QWORD PTR this$[rbp]
  00256	48 8b 48 78	 mov	 rcx, QWORD PTR [rax+120]
  0025a	ff 15 00 00 00
	00		 call	 QWORD PTR __imp_?LookAt@CTransform@Engine@@QEAAXT__m128@@@Z
$LN1@WinActionM:

; 358  : 
; 359  : }

  00260	48 8d 4d e0	 lea	 rcx, QWORD PTR [rbp-32]
  00264	48 8d 15 00 00
	00 00		 lea	 rdx, OFFSET FLAT:?WinActionMovement@CPlayerCamera@Client@@AEAAXN@Z$rtcFrameData
  0026b	e8 00 00 00 00	 call	 _RTC_CheckStackVars
  00270	48 8b 8d a8 03
	00 00		 mov	 rcx, QWORD PTR __$ArrayPad$[rbp]
  00277	48 33 cd	 xor	 rcx, rbp
  0027a	e8 00 00 00 00	 call	 __security_check_cookie
  0027f	48 8d a5 b8 03
	00 00		 lea	 rsp, QWORD PTR [rbp+952]
  00286	5f		 pop	 rdi
  00287	5d		 pop	 rbp
  00288	c3		 ret	 0
?WinActionMovement@CPlayerCamera@Client@@AEAAXN@Z ENDP	; Client::CPlayerCamera::WinActionMovement
_TEXT	ENDS
; Function compile flags: /Odtp /RTCsu /ZI
; File c:\users\arcco\documents\github\framework\client\private\playercamera.cpp
;	COMDAT ?DefaultCameraMovement@CPlayerCamera@Client@@AEAAXN@Z
_TEXT	SEGMENT
pGameInstance$ = 8
vTargetPos$ = 48
vTargetLook$ = 96
pPlayerTransform$7 = 136
vCameraPos$8 = 176
vDistance$9 = 224
fLength$10 = 260
vDir$11 = 304
vCurPosition$12 = 352
vPosition$13 = 400
vLockOnTargetPos$14 = 440
pBossCheck$15 = 488
vCurLook$16 = 528
vCurPosition$17 = 576
vPosition$18 = 624
vCurLook$19 = 672
$T20 = 1680
$T21 = 1728
$T22 = 1776
$T23 = 1824
$T24 = 1872
$T25 = 1908
$T26 = 1952
$T27 = 2000
$T28 = 2048
$T29 = 2084
$T30 = 2144
$T31 = 2192
$T32 = 2240
$T33 = 2288
$T34 = 2336
$T35 = 2384
$T36 = 2432
$T37 = 2480
$T38 = 2516
$T39 = 2564
$T40 = 2624
$T41 = 2672
$T42 = 2720
$T43 = 2768
$T44 = 2816
$T45 = 2864
$T46 = 2912
$T47 = 2960
$T48 = 2996
$T49 = 3040
$T50 = 3136
$T51 = 3184
$T52 = 3232
$T53 = 3280
$T54 = 3328
tv349 = 3396
tv301 = 3400
tv281 = 3400
tv168 = 3400
__$ArrayPad$ = 3408
this$ = 3456
TimeDelta$ = 3464
?DefaultCameraMovement@CPlayerCamera@Client@@AEAAXN@Z PROC ; Client::CPlayerCamera::DefaultCameraMovement, COMDAT

; 236  : {

$LN8:
  00000	f2 0f 11 4c 24
	10		 movsd	 QWORD PTR [rsp+16], xmm1
  00006	48 89 4c 24 08	 mov	 QWORD PTR [rsp+8], rcx
  0000b	55		 push	 rbp
  0000c	56		 push	 rsi
  0000d	57		 push	 rdi
  0000e	48 81 ec 90 0d
	00 00		 sub	 rsp, 3472		; 00000d90H
  00015	48 8d 6c 24 30	 lea	 rbp, QWORD PTR [rsp+48]
  0001a	48 8b fc	 mov	 rdi, rsp
  0001d	b9 64 03 00 00	 mov	 ecx, 868		; 00000364H
  00022	b8 cc cc cc cc	 mov	 eax, -858993460		; ccccccccH
  00027	f3 ab		 rep stosd
  00029	48 8b 8c 24 b8
	0d 00 00	 mov	 rcx, QWORD PTR [rsp+3512]
  00031	48 8b 05 00 00
	00 00		 mov	 rax, QWORD PTR __security_cookie
  00038	48 33 c5	 xor	 rax, rbp
  0003b	48 89 85 50 0d
	00 00		 mov	 QWORD PTR __$ArrayPad$[rbp], rax

; 237  : 	CGameInstance* pGameInstance = CGameInstance::GetInstance();

  00042	ff 15 00 00 00
	00		 call	 QWORD PTR __imp_?GetInstance@CGameInstance@Engine@@SAPEAV12@XZ
  00048	48 89 45 08	 mov	 QWORD PTR pGameInstance$[rbp], rax

; 238  : 	_vector vTargetPos = m_pTargetTransform->Get_State(CTransform::STATE_POSITION);

  0004c	41 b8 03 00 00
	00		 mov	 r8d, 3
  00052	48 8d 55 30	 lea	 rdx, QWORD PTR vTargetPos$[rbp]
  00056	48 8b 85 80 0d
	00 00		 mov	 rax, QWORD PTR this$[rbp]
  0005d	48 8b 88 28 01
	00 00		 mov	 rcx, QWORD PTR [rax+296]
  00064	ff 15 00 00 00
	00		 call	 QWORD PTR __imp_?Get_State@CTransform@Engine@@QEAA?AT__m128@@W4STATE@12@@Z

; 239  : 	_vector vTargetLook = XMVector3Normalize(m_pTargetTransform->Get_State(CTransform::STATE_LOOK));

  0006a	41 b8 02 00 00
	00		 mov	 r8d, 2
  00070	48 8d 95 c0 06
	00 00		 lea	 rdx, QWORD PTR $T21[rbp]
  00077	48 8b 85 80 0d
	00 00		 mov	 rax, QWORD PTR this$[rbp]
  0007e	48 8b 88 28 01
	00 00		 mov	 rcx, QWORD PTR [rax+296]
  00085	ff 15 00 00 00
	00		 call	 QWORD PTR __imp_?Get_State@CTransform@Engine@@QEAA?AT__m128@@W4STATE@12@@Z
  0008b	0f 10 00	 movups	 xmm0, XMMWORD PTR [rax]
  0008e	e8 00 00 00 00	 call	 ?XMVector3Normalize@DirectX@@YQ?AT__m128@@T2@@Z ; DirectX::XMVector3Normalize
  00093	0f 29 85 90 06
	00 00		 movaps	 XMMWORD PTR $T20[rbp], xmm0
  0009a	0f 28 85 90 06
	00 00		 movaps	 xmm0, XMMWORD PTR $T20[rbp]
  000a1	0f 29 45 60	 movaps	 XMMWORD PTR vTargetLook$[rbp], xmm0

; 240  : 	vTargetPos = XMVectorSetY(vTargetPos, 1.5f);

  000a5	f3 0f 10 0d 00
	00 00 00	 movss	 xmm1, DWORD PTR __real@3fc00000
  000ad	0f 28 45 30	 movaps	 xmm0, XMMWORD PTR vTargetPos$[rbp]
  000b1	e8 00 00 00 00	 call	 ?XMVectorSetY@DirectX@@YQ?AT__m128@@T2@M@Z ; DirectX::XMVectorSetY
  000b6	0f 29 85 f0 06
	00 00		 movaps	 XMMWORD PTR $T22[rbp], xmm0
  000bd	0f 28 85 f0 06
	00 00		 movaps	 xmm0, XMMWORD PTR $T22[rbp]
  000c4	0f 29 45 30	 movaps	 XMMWORD PTR vTargetPos$[rbp], xmm0

; 241  : 
; 242  : 	//_vector vCameraPosition = vTargetPos - XMLoadFloat3(&vDistance);
; 243  : 
; 244  : 	//vCameraPosition = vTargetPos - (vTargetLook * vDistance.z);
; 245  : 	//vCameraPosition = XMVectorSetY(vCameraPosition, vDistance.y);
; 246  : 	//
; 247  : 	//if (pGameInstance->Input_MouseState_Custom(DIMK_RB) == KEY_STATE::HOLD)
; 248  : 	//	m_bMouseLock = false;
; 249  : 	//else
; 250  : 	//	m_bMouseLock = true;
; 251  : 	//
; 252  : 	//if (!m_bMouseLock)
; 253  : 	//{
; 254  : 	//	_long MouseMove = 0;
; 255  : 	//	if (MouseMove = pGameInstance->Input_MouseMove(DIMM_X))
; 256  : 	//	{
; 257  : 	//		m_pTargetTransform->Rotate(VECTOR_UP, MouseMove * TimeDelta * 0.1f);
; 258  : 	//	}
; 259  : 	//}
; 260  : 	
; 261  : 	//if (MouseMove = pGameInstance->Input_MouseMove(DIMM_Y))
; 262  : 	//	m_pTransform->Rotate(m_pTransform->Get_State(CTransform::STATE_RIGHT), MouseMove * TimeDelta * 0.1f);
; 263  : 
; 264  : 	//  
; 265  : 	if (static_cast<CCharacter*>(m_pTarget)->IsCameraLockOn())

  000c8	48 8b 85 80 0d
	00 00		 mov	 rax, QWORD PTR this$[rbp]
  000cf	48 8b 88 20 01
	00 00		 mov	 rcx, QWORD PTR [rax+288]
  000d6	e8 00 00 00 00	 call	 ?IsCameraLockOn@CCharacter@Client@@QEAA_NXZ ; Client::CCharacter::IsCameraLockOn
  000db	0f b6 c0	 movzx	 eax, al
  000de	85 c0		 test	 eax, eax
  000e0	0f 84 4c 04 00
	00		 je	 $LN2@DefaultCam

; 266  : 	{
; 267  : 		CTransform* pPlayerTransform = (CTransform*)static_cast<CCharacter*>(m_pTarget)->Find_Component(L"com_transform");

  000e6	48 8d 15 00 00
	00 00		 lea	 rdx, OFFSET FLAT:??_C@_1BM@CJMPMHDD@?$AAc?$AAo?$AAm?$AA_?$AAt?$AAr?$AAa?$AAn?$AAs?$AAf?$AAo?$AAr?$AAm?$AA?$AA@
  000ed	48 8b 85 80 0d
	00 00		 mov	 rax, QWORD PTR this$[rbp]
  000f4	48 8b 88 20 01
	00 00		 mov	 rcx, QWORD PTR [rax+288]
  000fb	ff 15 00 00 00
	00		 call	 QWORD PTR __imp_?Find_Component@CGameObject@Engine@@QEAAPEAVCComponent@2@PEB_W@Z
  00101	48 89 85 88 00
	00 00		 mov	 QWORD PTR pPlayerTransform$7[rbp], rax

; 268  : 		_vector vCameraPos = pPlayerTransform->Get_State(CTransform::STATE_POSITION) - XMLoadFloat3(&static_cast<CCharacter*>(m_pTarget)->LockOnCameraPosition());

  00108	48 8d 95 74 07
	00 00		 lea	 rdx, QWORD PTR $T25[rbp]
  0010f	48 8b 85 80 0d
	00 00		 mov	 rax, QWORD PTR this$[rbp]
  00116	48 8b 88 20 01
	00 00		 mov	 rcx, QWORD PTR [rax+288]
  0011d	e8 00 00 00 00	 call	 ?LockOnCameraPosition@CCharacter@Client@@QEAA?AUXMFLOAT3@DirectX@@XZ ; Client::CCharacter::LockOnCameraPosition
  00122	48 8b c8	 mov	 rcx, rax
  00125	e8 00 00 00 00	 call	 ?XMLoadFloat3@DirectX@@YQ?AT__m128@@PEBUXMFLOAT3@1@@Z ; DirectX::XMLoadFloat3
  0012a	0f 29 85 50 07
	00 00		 movaps	 XMMWORD PTR $T24[rbp], xmm0
  00131	41 b8 03 00 00
	00		 mov	 r8d, 3
  00137	48 8d 95 a0 07
	00 00		 lea	 rdx, QWORD PTR $T26[rbp]
  0013e	48 8b 8d 88 00
	00 00		 mov	 rcx, QWORD PTR pPlayerTransform$7[rbp]
  00145	ff 15 00 00 00
	00		 call	 QWORD PTR __imp_?Get_State@CTransform@Engine@@QEAA?AT__m128@@W4STATE@12@@Z
  0014b	0f 28 8d 50 07
	00 00		 movaps	 xmm1, XMMWORD PTR $T24[rbp]
  00152	0f 10 00	 movups	 xmm0, XMMWORD PTR [rax]
  00155	e8 00 00 00 00	 call	 ??GDirectX@@YQ?AT__m128@@T1@0@Z ; DirectX::operator-
  0015a	0f 29 85 20 07
	00 00		 movaps	 XMMWORD PTR $T23[rbp], xmm0
  00161	0f 28 85 20 07
	00 00		 movaps	 xmm0, XMMWORD PTR $T23[rbp]
  00168	0f 29 85 b0 00
	00 00		 movaps	 XMMWORD PTR vCameraPos$8[rbp], xmm0

; 269  : 
; 270  : 		_vector vDistance = XMLoadFloat4(&((CEnemy*)(static_cast<CCharacter*>(m_pTarget)->GetLockOnTarget()))->GetPosition()) - vCameraPos;

  0016f	48 8b 85 80 0d
	00 00		 mov	 rax, QWORD PTR this$[rbp]
  00176	48 8b 88 20 01
	00 00		 mov	 rcx, QWORD PTR [rax+288]
  0017d	e8 00 00 00 00	 call	 ?GetLockOnTarget@CCharacter@Client@@QEAAPEAVCGameObject@Engine@@XZ ; Client::CCharacter::GetLockOnTarget
  00182	48 89 85 48 0d
	00 00		 mov	 QWORD PTR tv168[rbp], rax
  00189	48 8b 85 48 0d
	00 00		 mov	 rax, QWORD PTR tv168[rbp]
  00190	48 8b 00	 mov	 rax, QWORD PTR [rax]
  00193	48 8d 95 24 08
	00 00		 lea	 rdx, QWORD PTR $T29[rbp]
  0019a	48 8b 8d 48 0d
	00 00		 mov	 rcx, QWORD PTR tv168[rbp]
  001a1	ff 50 58	 call	 QWORD PTR [rax+88]
  001a4	48 8b c8	 mov	 rcx, rax
  001a7	e8 00 00 00 00	 call	 ?XMLoadFloat4@DirectX@@YQ?AT__m128@@PEBUXMFLOAT4@1@@Z ; DirectX::XMLoadFloat4
  001ac	0f 29 85 00 08
	00 00		 movaps	 XMMWORD PTR $T28[rbp], xmm0
  001b3	0f 28 8d b0 00
	00 00		 movaps	 xmm1, XMMWORD PTR vCameraPos$8[rbp]
  001ba	0f 28 85 00 08
	00 00		 movaps	 xmm0, XMMWORD PTR $T28[rbp]
  001c1	e8 00 00 00 00	 call	 ??GDirectX@@YQ?AT__m128@@T1@0@Z ; DirectX::operator-
  001c6	0f 29 85 d0 07
	00 00		 movaps	 XMMWORD PTR $T27[rbp], xmm0
  001cd	0f 28 85 d0 07
	00 00		 movaps	 xmm0, XMMWORD PTR $T27[rbp]
  001d4	0f 29 85 e0 00
	00 00		 movaps	 XMMWORD PTR vDistance$9[rbp], xmm0

; 271  : 		_float fLength = XMVectorGetX(XMVector3Length(vDistance));

  001db	0f 28 85 e0 00
	00 00		 movaps	 xmm0, XMMWORD PTR vDistance$9[rbp]
  001e2	e8 00 00 00 00	 call	 ?XMVector3Length@DirectX@@YQ?AT__m128@@T2@@Z ; DirectX::XMVector3Length
  001e7	0f 29 85 60 08
	00 00		 movaps	 XMMWORD PTR $T30[rbp], xmm0
  001ee	0f 28 85 60 08
	00 00		 movaps	 xmm0, XMMWORD PTR $T30[rbp]
  001f5	e8 00 00 00 00	 call	 ?XMVectorGetX@DirectX@@YQMT__m128@@@Z ; DirectX::XMVectorGetX
  001fa	f3 0f 11 85 04
	01 00 00	 movss	 DWORD PTR fLength$10[rbp], xmm0

; 272  : 
; 273  : 		// 
; 274  : 		if (fLength <= 7.0f)

  00202	f3 0f 10 05 00
	00 00 00	 movss	 xmm0, DWORD PTR __real@40e00000
  0020a	0f 2f 85 04 01
	00 00		 comiss	 xmm0, DWORD PTR fLength$10[rbp]
  00211	72 7a		 jb	 SHORT $LN4@DefaultCam

; 275  : 		{
; 276  : 			_vector vDir = XMVector3Normalize(vDistance);

  00213	0f 28 85 e0 00
	00 00		 movaps	 xmm0, XMMWORD PTR vDistance$9[rbp]
  0021a	e8 00 00 00 00	 call	 ?XMVector3Normalize@DirectX@@YQ?AT__m128@@T2@@Z ; DirectX::XMVector3Normalize
  0021f	0f 29 85 90 08
	00 00		 movaps	 XMMWORD PTR $T31[rbp], xmm0
  00226	0f 28 85 90 08
	00 00		 movaps	 xmm0, XMMWORD PTR $T31[rbp]
  0022d	0f 29 85 30 01
	00 00		 movaps	 XMMWORD PTR vDir$11[rbp], xmm0

; 277  : 			vCameraPos = pPlayerTransform->Get_State(CTransform::STATE_POSITION) - (vDir * 7.0f);

  00234	f3 0f 10 0d 00
	00 00 00	 movss	 xmm1, DWORD PTR __real@40e00000
  0023c	0f 28 85 30 01
	00 00		 movaps	 xmm0, XMMWORD PTR vDir$11[rbp]
  00243	e8 00 00 00 00	 call	 ??DDirectX@@YQ?AT__m128@@T1@M@Z ; DirectX::operator*
  00248	0f 29 85 f0 08
	00 00		 movaps	 XMMWORD PTR $T33[rbp], xmm0
  0024f	41 b8 03 00 00
	00		 mov	 r8d, 3
  00255	48 8d 95 20 09
	00 00		 lea	 rdx, QWORD PTR $T34[rbp]
  0025c	48 8b 8d 88 00
	00 00		 mov	 rcx, QWORD PTR pPlayerTransform$7[rbp]
  00263	ff 15 00 00 00
	00		 call	 QWORD PTR __imp_?Get_State@CTransform@Engine@@QEAA?AT__m128@@W4STATE@12@@Z
  00269	0f 28 8d f0 08
	00 00		 movaps	 xmm1, XMMWORD PTR $T33[rbp]
  00270	0f 10 00	 movups	 xmm0, XMMWORD PTR [rax]
  00273	e8 00 00 00 00	 call	 ??GDirectX@@YQ?AT__m128@@T1@0@Z ; DirectX::operator-
  00278	0f 29 85 c0 08
	00 00		 movaps	 XMMWORD PTR $T32[rbp], xmm0
  0027f	0f 28 85 c0 08
	00 00		 movaps	 xmm0, XMMWORD PTR $T32[rbp]
  00286	0f 29 85 b0 00
	00 00		 movaps	 XMMWORD PTR vCameraPos$8[rbp], xmm0
$LN4@DefaultCam:

; 278  : 		}
; 279  : 
; 280  : 		vCameraPos = XMVectorSetY(vCameraPos, XMVectorGetY(m_pTransform->Get_State(CTransform::STATE_POSITION)));

  0028d	41 b8 03 00 00
	00		 mov	 r8d, 3
  00293	48 8d 95 80 09
	00 00		 lea	 rdx, QWORD PTR $T36[rbp]
  0029a	48 8b 85 80 0d
	00 00		 mov	 rax, QWORD PTR this$[rbp]
  002a1	48 8b 48 78	 mov	 rcx, QWORD PTR [rax+120]
  002a5	ff 15 00 00 00
	00		 call	 QWORD PTR __imp_?Get_State@CTransform@Engine@@QEAA?AT__m128@@W4STATE@12@@Z
  002ab	0f 10 00	 movups	 xmm0, XMMWORD PTR [rax]
  002ae	e8 00 00 00 00	 call	 ?XMVectorGetY@DirectX@@YQMT__m128@@@Z ; DirectX::XMVectorGetY
  002b3	0f 28 c8	 movaps	 xmm1, xmm0
  002b6	0f 28 85 b0 00
	00 00		 movaps	 xmm0, XMMWORD PTR vCameraPos$8[rbp]
  002bd	e8 00 00 00 00	 call	 ?XMVectorSetY@DirectX@@YQ?AT__m128@@T2@M@Z ; DirectX::XMVectorSetY
  002c2	0f 29 85 50 09
	00 00		 movaps	 XMMWORD PTR $T35[rbp], xmm0
  002c9	0f 28 85 50 09
	00 00		 movaps	 xmm0, XMMWORD PTR $T35[rbp]
  002d0	0f 29 85 b0 00
	00 00		 movaps	 XMMWORD PTR vCameraPos$8[rbp], xmm0

; 281  : 
; 282  : 		_vector vCurPosition = m_pTransform->Get_State(CTransform::STATE_POSITION);

  002d7	41 b8 03 00 00
	00		 mov	 r8d, 3
  002dd	48 8d 95 60 01
	00 00		 lea	 rdx, QWORD PTR vCurPosition$12[rbp]
  002e4	48 8b 85 80 0d
	00 00		 mov	 rax, QWORD PTR this$[rbp]
  002eb	48 8b 48 78	 mov	 rcx, QWORD PTR [rax+120]
  002ef	ff 15 00 00 00
	00		 call	 QWORD PTR __imp_?Get_State@CTransform@Engine@@QEAA?AT__m128@@W4STATE@12@@Z

; 283  : 		_vector vPosition = XMVectorLerp(vCurPosition, vCameraPos, (_float)TimeDelta * 4.0f);

  002f5	f2 0f 5a 85 88
	0d 00 00	 cvtsd2ss xmm0, QWORD PTR TimeDelta$[rbp]
  002fd	f3 0f 59 05 00
	00 00 00	 mulss	 xmm0, DWORD PTR __real@40800000
  00305	0f 28 d0	 movaps	 xmm2, xmm0
  00308	0f 28 8d b0 00
	00 00		 movaps	 xmm1, XMMWORD PTR vCameraPos$8[rbp]
  0030f	0f 28 85 60 01
	00 00		 movaps	 xmm0, XMMWORD PTR vCurPosition$12[rbp]
  00316	e8 00 00 00 00	 call	 ?XMVectorLerp@DirectX@@YQ?AT__m128@@T2@0M@Z ; DirectX::XMVectorLerp
  0031b	0f 29 85 b0 09
	00 00		 movaps	 XMMWORD PTR $T37[rbp], xmm0
  00322	0f 28 85 b0 09
	00 00		 movaps	 xmm0, XMMWORD PTR $T37[rbp]
  00329	0f 29 85 90 01
	00 00		 movaps	 XMMWORD PTR vPosition$13[rbp], xmm0

; 284  : 
; 285  : 		// 
; 286  : 		//_vector q1 = XMQuaternionRotationMatrix(XMLoadFloat4x4(&m_pSocketTransform->Get_WorldMatrix()));
; 287  : 		//_vector q2 = XMQuaternionRotationMatrix(XMLoadFloat4x4(&pPlayerTransform->Get_WorldMatrix()));
; 288  : 		//_vector vPosition = XMQuaternionSlerp(q1, q2, (_float)TimeDelta * 3.0f);
; 289  : 		//
; 290  : 		
; 291  : 		_float4 vLockOnTargetPos;

  00330	48 8d 8d b8 01
	00 00		 lea	 rcx, QWORD PTR vLockOnTargetPos$14[rbp]
  00337	e8 00 00 00 00	 call	 ??0XMFLOAT4@DirectX@@QEAA@XZ ; DirectX::XMFLOAT4::XMFLOAT4

; 292  : 		CBoss* pBossCheck = dynamic_cast<CBoss*>(static_cast<CCharacter*>(m_pTarget)->GetLockOnTarget());

  0033c	48 8b 85 80 0d
	00 00		 mov	 rax, QWORD PTR this$[rbp]
  00343	48 8b 88 20 01
	00 00		 mov	 rcx, QWORD PTR [rax+288]
  0034a	e8 00 00 00 00	 call	 ?GetLockOnTarget@CCharacter@Client@@QEAAPEAVCGameObject@Engine@@XZ ; Client::CCharacter::GetLockOnTarget
  0034f	c7 44 24 20 00
	00 00 00	 mov	 DWORD PTR [rsp+32], 0
  00357	4c 8d 0d 00 00
	00 00		 lea	 r9, OFFSET FLAT:??_R0?AVCBoss@Client@@@8
  0035e	4c 8d 05 00 00
	00 00		 lea	 r8, OFFSET FLAT:??_R0?AVCGameObject@Engine@@@8
  00365	33 d2		 xor	 edx, edx
  00367	48 8b c8	 mov	 rcx, rax
  0036a	e8 00 00 00 00	 call	 __RTDynamicCast
  0036f	48 89 85 e8 01
	00 00		 mov	 QWORD PTR pBossCheck$15[rbp], rax

; 293  : 		if (pBossCheck)

  00376	48 83 bd e8 01
	00 00 00	 cmp	 QWORD PTR pBossCheck$15[rbp], 0
  0037e	74 5e		 je	 SHORT $LN5@DefaultCam

; 294  : 		{
; 295  : 			//
; 296  : 			vLockOnTargetPos = ((CEnemy*)(static_cast<CCharacter*>(m_pTarget)->GetLockOnTarget()))->GetPosition();

  00380	48 8b 85 80 0d
	00 00		 mov	 rax, QWORD PTR this$[rbp]
  00387	48 8b 88 20 01
	00 00		 mov	 rcx, QWORD PTR [rax+288]
  0038e	e8 00 00 00 00	 call	 ?GetLockOnTarget@CCharacter@Client@@QEAAPEAVCGameObject@Engine@@XZ ; Client::CCharacter::GetLockOnTarget
  00393	48 89 85 48 0d
	00 00		 mov	 QWORD PTR tv281[rbp], rax
  0039a	48 8b 85 48 0d
	00 00		 mov	 rax, QWORD PTR tv281[rbp]
  003a1	48 8b 00	 mov	 rax, QWORD PTR [rax]
  003a4	48 8d 95 d4 09
	00 00		 lea	 rdx, QWORD PTR $T38[rbp]
  003ab	48 8b 8d 48 0d
	00 00		 mov	 rcx, QWORD PTR tv281[rbp]
  003b2	ff 50 58	 call	 QWORD PTR [rax+88]
  003b5	48 8b d0	 mov	 rdx, rax
  003b8	48 8d 8d b8 01
	00 00		 lea	 rcx, QWORD PTR vLockOnTargetPos$14[rbp]
  003bf	e8 00 00 00 00	 call	 ??4XMFLOAT4@DirectX@@QEAAAEAU01@AEBU01@@Z ; DirectX::XMFLOAT4::operator=

; 297  : 			vLockOnTargetPos.y += 2.f;

  003c4	f3 0f 10 85 bc
	01 00 00	 movss	 xmm0, DWORD PTR vLockOnTargetPos$14[rbp+4]
  003cc	f3 0f 58 05 00
	00 00 00	 addss	 xmm0, DWORD PTR __real@40000000
  003d4	f3 0f 11 85 bc
	01 00 00	 movss	 DWORD PTR vLockOnTargetPos$14[rbp+4], xmm0

; 298  : 		}
; 299  : 		else

  003dc	eb 5c		 jmp	 SHORT $LN6@DefaultCam
$LN5@DefaultCam:

; 300  : 		{
; 301  : 			//
; 302  : 			vLockOnTargetPos = ((CEnemy*)(static_cast<CCharacter*>(m_pTarget)->GetLockOnTarget()))->GetPosition();

  003de	48 8b 85 80 0d
	00 00		 mov	 rax, QWORD PTR this$[rbp]
  003e5	48 8b 88 20 01
	00 00		 mov	 rcx, QWORD PTR [rax+288]
  003ec	e8 00 00 00 00	 call	 ?GetLockOnTarget@CCharacter@Client@@QEAAPEAVCGameObject@Engine@@XZ ; Client::CCharacter::GetLockOnTarget
  003f1	48 89 85 48 0d
	00 00		 mov	 QWORD PTR tv301[rbp], rax
  003f8	48 8b 85 48 0d
	00 00		 mov	 rax, QWORD PTR tv301[rbp]
  003ff	48 8b 00	 mov	 rax, QWORD PTR [rax]
  00402	48 8d 95 04 0a
	00 00		 lea	 rdx, QWORD PTR $T39[rbp]
  00409	48 8b 8d 48 0d
	00 00		 mov	 rcx, QWORD PTR tv301[rbp]
  00410	ff 50 58	 call	 QWORD PTR [rax+88]
  00413	48 8b d0	 mov	 rdx, rax
  00416	48 8d 8d b8 01
	00 00		 lea	 rcx, QWORD PTR vLockOnTargetPos$14[rbp]
  0041d	e8 00 00 00 00	 call	 ??4XMFLOAT4@DirectX@@QEAAAEAU01@AEBU01@@Z ; DirectX::XMFLOAT4::operator=

; 303  : 			vLockOnTargetPos.y += 1.f;

  00422	f3 0f 10 85 bc
	01 00 00	 movss	 xmm0, DWORD PTR vLockOnTargetPos$14[rbp+4]
  0042a	f3 0f 58 05 00
	00 00 00	 addss	 xmm0, DWORD PTR __real@3f800000
  00432	f3 0f 11 85 bc
	01 00 00	 movss	 DWORD PTR vLockOnTargetPos$14[rbp+4], xmm0
$LN6@DefaultCam:

; 304  : 		}
; 305  : 
; 306  : 		m_pTransform->Set_State(CTransform::STATE_POSITION, vPosition);

  0043a	0f 28 85 90 01
	00 00		 movaps	 xmm0, XMMWORD PTR vPosition$13[rbp]
  00441	0f 29 85 40 0c
	00 00		 movaps	 XMMWORD PTR $T50[rbp], xmm0
  00448	4c 8d 85 40 0c
	00 00		 lea	 r8, QWORD PTR $T50[rbp]
  0044f	ba 03 00 00 00	 mov	 edx, 3
  00454	48 8b 85 80 0d
	00 00		 mov	 rax, QWORD PTR this$[rbp]
  0045b	48 8b 48 78	 mov	 rcx, QWORD PTR [rax+120]
  0045f	ff 15 00 00 00
	00		 call	 QWORD PTR __imp_?Set_State@CTransform@Engine@@QEAAXW4STATE@12@T__m128@@@Z

; 307  : 
; 308  : 		_vector vCurLook = XMVectorLerp(XMLoadFloat4(&vLookTarget), XMLoadFloat4(&vLockOnTargetPos), (_float)TimeDelta * 2.f);

  00465	48 8d 8d b8 01
	00 00		 lea	 rcx, QWORD PTR vLockOnTargetPos$14[rbp]
  0046c	e8 00 00 00 00	 call	 ?XMLoadFloat4@DirectX@@YQ?AT__m128@@PEBUXMFLOAT4@1@@Z ; DirectX::XMLoadFloat4
  00471	0f 29 85 70 0a
	00 00		 movaps	 XMMWORD PTR $T41[rbp], xmm0
  00478	48 8b 85 80 0d
	00 00		 mov	 rax, QWORD PTR this$[rbp]
  0047f	48 05 90 01 00
	00		 add	 rax, 400		; 00000190H
  00485	48 8b c8	 mov	 rcx, rax
  00488	e8 00 00 00 00	 call	 ?XMLoadFloat4@DirectX@@YQ?AT__m128@@PEBUXMFLOAT4@1@@Z ; DirectX::XMLoadFloat4
  0048d	0f 29 85 a0 0a
	00 00		 movaps	 XMMWORD PTR $T42[rbp], xmm0
  00494	f2 0f 5a 85 88
	0d 00 00	 cvtsd2ss xmm0, QWORD PTR TimeDelta$[rbp]
  0049c	f3 0f 59 05 00
	00 00 00	 mulss	 xmm0, DWORD PTR __real@40000000
  004a4	0f 28 d0	 movaps	 xmm2, xmm0
  004a7	0f 28 8d 70 0a
	00 00		 movaps	 xmm1, XMMWORD PTR $T41[rbp]
  004ae	0f 28 85 a0 0a
	00 00		 movaps	 xmm0, XMMWORD PTR $T42[rbp]
  004b5	e8 00 00 00 00	 call	 ?XMVectorLerp@DirectX@@YQ?AT__m128@@T2@0M@Z ; DirectX::XMVectorLerp
  004ba	0f 29 85 40 0a
	00 00		 movaps	 XMMWORD PTR $T40[rbp], xmm0
  004c1	0f 28 85 40 0a
	00 00		 movaps	 xmm0, XMMWORD PTR $T40[rbp]
  004c8	0f 29 85 10 02
	00 00		 movaps	 XMMWORD PTR vCurLook$16[rbp], xmm0

; 309  : 		XMStoreFloat4(&vLookTarget, vCurLook);

  004cf	48 8b 85 80 0d
	00 00		 mov	 rax, QWORD PTR this$[rbp]
  004d6	48 05 90 01 00
	00		 add	 rax, 400		; 00000190H
  004dc	0f 28 8d 10 02
	00 00		 movaps	 xmm1, XMMWORD PTR vCurLook$16[rbp]
  004e3	48 8b c8	 mov	 rcx, rax
  004e6	e8 00 00 00 00	 call	 ?XMStoreFloat4@DirectX@@YQXPEAUXMFLOAT4@1@T__m128@@@Z ; DirectX::XMStoreFloat4

; 310  : 
; 311  : 		m_pTransform->LookAt(XMLoadFloat4(&vLookTarget));

  004eb	48 8b 85 80 0d
	00 00		 mov	 rax, QWORD PTR this$[rbp]
  004f2	48 05 90 01 00
	00		 add	 rax, 400		; 00000190H
  004f8	48 8b c8	 mov	 rcx, rax
  004fb	e8 00 00 00 00	 call	 ?XMLoadFloat4@DirectX@@YQ?AT__m128@@PEBUXMFLOAT4@1@@Z ; DirectX::XMLoadFloat4
  00500	0f 29 85 d0 0a
	00 00		 movaps	 XMMWORD PTR $T43[rbp], xmm0
  00507	0f 28 85 d0 0a
	00 00		 movaps	 xmm0, XMMWORD PTR $T43[rbp]
  0050e	0f 29 85 70 0c
	00 00		 movaps	 XMMWORD PTR $T51[rbp], xmm0
  00515	48 8d 95 70 0c
	00 00		 lea	 rdx, QWORD PTR $T51[rbp]
  0051c	48 8b 85 80 0d
	00 00		 mov	 rax, QWORD PTR this$[rbp]
  00523	48 8b 48 78	 mov	 rcx, QWORD PTR [rax+120]
  00527	ff 15 00 00 00
	00		 call	 QWORD PTR __imp_?LookAt@CTransform@Engine@@QEAAXT__m128@@@Z

; 312  : 	}
; 313  : 	else

  0052d	e9 47 01 00 00	 jmp	 $LN3@DefaultCam
$LN2@DefaultCam:

; 314  : 	{
; 315  : 		_vector vCurPosition = m_pTransform->Get_State(CTransform::STATE_POSITION);

  00532	41 b8 03 00 00
	00		 mov	 r8d, 3
  00538	48 8d 95 40 02
	00 00		 lea	 rdx, QWORD PTR vCurPosition$17[rbp]
  0053f	48 8b 85 80 0d
	00 00		 mov	 rax, QWORD PTR this$[rbp]
  00546	48 8b 48 78	 mov	 rcx, QWORD PTR [rax+120]
  0054a	ff 15 00 00 00
	00		 call	 QWORD PTR __imp_?Get_State@CTransform@Engine@@QEAA?AT__m128@@W4STATE@12@@Z

; 316  : 		_vector vPosition = XMVectorLerp(vCurPosition, m_pSocketTransform->Get_State(CTransform::STATE_POSITION), (_float)TimeDelta * 4.0f);

  00550	f2 0f 5a 85 88
	0d 00 00	 cvtsd2ss xmm0, QWORD PTR TimeDelta$[rbp]
  00558	f3 0f 59 05 00
	00 00 00	 mulss	 xmm0, DWORD PTR __real@40800000
  00560	f3 0f 11 85 44
	0d 00 00	 movss	 DWORD PTR tv349[rbp], xmm0
  00568	41 b8 03 00 00
	00		 mov	 r8d, 3
  0056e	48 8d 95 30 0b
	00 00		 lea	 rdx, QWORD PTR $T45[rbp]
  00575	48 8b 85 80 0d
	00 00		 mov	 rax, QWORD PTR this$[rbp]
  0057c	48 8b 88 30 01
	00 00		 mov	 rcx, QWORD PTR [rax+304]
  00583	ff 15 00 00 00
	00		 call	 QWORD PTR __imp_?Get_State@CTransform@Engine@@QEAA?AT__m128@@W4STATE@12@@Z
  00589	f3 0f 10 85 44
	0d 00 00	 movss	 xmm0, DWORD PTR tv349[rbp]
  00591	0f 28 d0	 movaps	 xmm2, xmm0
  00594	0f 10 08	 movups	 xmm1, XMMWORD PTR [rax]
  00597	0f 28 85 40 02
	00 00		 movaps	 xmm0, XMMWORD PTR vCurPosition$17[rbp]
  0059e	e8 00 00 00 00	 call	 ?XMVectorLerp@DirectX@@YQ?AT__m128@@T2@0M@Z ; DirectX::XMVectorLerp
  005a3	0f 29 85 00 0b
	00 00		 movaps	 XMMWORD PTR $T44[rbp], xmm0
  005aa	0f 28 85 00 0b
	00 00		 movaps	 xmm0, XMMWORD PTR $T44[rbp]
  005b1	0f 29 85 70 02
	00 00		 movaps	 XMMWORD PTR vPosition$18[rbp], xmm0

; 317  : 		//_vector vPosition = XMQuaternionSlerp(vCurPosition, m_pSocketTransform->Get_State(CTransform::STATE_POSITION), (_float)TimeDelta * 3.0f);
; 318  : 
; 319  : 		m_pTransform->Set_State(CTransform::STATE_POSITION, vPosition);

  005b8	0f 28 85 70 02
	00 00		 movaps	 xmm0, XMMWORD PTR vPosition$18[rbp]
  005bf	0f 29 85 a0 0c
	00 00		 movaps	 XMMWORD PTR $T52[rbp], xmm0
  005c6	4c 8d 85 a0 0c
	00 00		 lea	 r8, QWORD PTR $T52[rbp]
  005cd	ba 03 00 00 00	 mov	 edx, 3
  005d2	48 8b 85 80 0d
	00 00		 mov	 rax, QWORD PTR this$[rbp]
  005d9	48 8b 48 78	 mov	 rcx, QWORD PTR [rax+120]
  005dd	ff 15 00 00 00
	00		 call	 QWORD PTR __imp_?Set_State@CTransform@Engine@@QEAAXW4STATE@12@T__m128@@@Z

; 320  : 
; 321  : 		_vector vCurLook = XMVectorLerp(XMLoadFloat4(&vLookTarget), vTargetPos, (_float)TimeDelta * 2.f);

  005e3	48 8b 85 80 0d
	00 00		 mov	 rax, QWORD PTR this$[rbp]
  005ea	48 05 90 01 00
	00		 add	 rax, 400		; 00000190H
  005f0	48 8b c8	 mov	 rcx, rax
  005f3	e8 00 00 00 00	 call	 ?XMLoadFloat4@DirectX@@YQ?AT__m128@@PEBUXMFLOAT4@1@@Z ; DirectX::XMLoadFloat4
  005f8	0f 29 85 90 0b
	00 00		 movaps	 XMMWORD PTR $T47[rbp], xmm0
  005ff	f2 0f 5a 85 88
	0d 00 00	 cvtsd2ss xmm0, QWORD PTR TimeDelta$[rbp]
  00607	f3 0f 59 05 00
	00 00 00	 mulss	 xmm0, DWORD PTR __real@40000000
  0060f	0f 28 d0	 movaps	 xmm2, xmm0
  00612	0f 28 4d 30	 movaps	 xmm1, XMMWORD PTR vTargetPos$[rbp]
  00616	0f 28 85 90 0b
	00 00		 movaps	 xmm0, XMMWORD PTR $T47[rbp]
  0061d	e8 00 00 00 00	 call	 ?XMVectorLerp@DirectX@@YQ?AT__m128@@T2@0M@Z ; DirectX::XMVectorLerp
  00622	0f 29 85 60 0b
	00 00		 movaps	 XMMWORD PTR $T46[rbp], xmm0
  00629	0f 28 85 60 0b
	00 00		 movaps	 xmm0, XMMWORD PTR $T46[rbp]
  00630	0f 29 85 a0 02
	00 00		 movaps	 XMMWORD PTR vCurLook$19[rbp], xmm0

; 322  : 		XMStoreFloat4(&vLookTarget, vCurLook);

  00637	48 8b 85 80 0d
	00 00		 mov	 rax, QWORD PTR this$[rbp]
  0063e	48 05 90 01 00
	00		 add	 rax, 400		; 00000190H
  00644	0f 28 8d a0 02
	00 00		 movaps	 xmm1, XMMWORD PTR vCurLook$19[rbp]
  0064b	48 8b c8	 mov	 rcx, rax
  0064e	e8 00 00 00 00	 call	 ?XMStoreFloat4@DirectX@@YQXPEAUXMFLOAT4@1@T__m128@@@Z ; DirectX::XMStoreFloat4

; 323  : 		m_pTransform->LookAt(vCurLook);

  00653	0f 28 85 a0 02
	00 00		 movaps	 xmm0, XMMWORD PTR vCurLook$19[rbp]
  0065a	0f 29 85 d0 0c
	00 00		 movaps	 XMMWORD PTR $T53[rbp], xmm0
  00661	48 8d 95 d0 0c
	00 00		 lea	 rdx, QWORD PTR $T53[rbp]
  00668	48 8b 85 80 0d
	00 00		 mov	 rax, QWORD PTR this$[rbp]
  0066f	48 8b 48 78	 mov	 rcx, QWORD PTR [rax+120]
  00673	ff 15 00 00 00
	00		 call	 QWORD PTR __imp_?LookAt@CTransform@Engine@@QEAAXT__m128@@@Z
$LN3@DefaultCam:

; 324  : 	}
; 325  : 	m_CameraDesc.vAt = _float3{ vLookTarget.x, vLookTarget.y, vLookTarget.z };

  00679	48 8b 85 80 0d
	00 00		 mov	 rax, QWORD PTR this$[rbp]
  00680	f3 0f 10 98 98
	01 00 00	 movss	 xmm3, DWORD PTR [rax+408]
  00688	48 8b 85 80 0d
	00 00		 mov	 rax, QWORD PTR this$[rbp]
  0068f	f3 0f 10 90 94
	01 00 00	 movss	 xmm2, DWORD PTR [rax+404]
  00697	48 8b 85 80 0d
	00 00		 mov	 rax, QWORD PTR this$[rbp]
  0069e	f3 0f 10 88 90
	01 00 00	 movss	 xmm1, DWORD PTR [rax+400]
  006a6	48 8d 8d b4 0b
	00 00		 lea	 rcx, QWORD PTR $T48[rbp]
  006ad	e8 00 00 00 00	 call	 ??0XMFLOAT3@DirectX@@QEAA@MMM@Z ; DirectX::XMFLOAT3::XMFLOAT3
  006b2	48 8b 8d 80 0d
	00 00		 mov	 rcx, QWORD PTR this$[rbp]
  006b9	48 81 c1 9c 00
	00 00		 add	 rcx, 156		; 0000009cH
  006c0	48 8b d0	 mov	 rdx, rax
  006c3	e8 00 00 00 00	 call	 ??4XMFLOAT3@DirectX@@QEAAAEAU01@AEBU01@@Z ; DirectX::XMFLOAT3::operator=

; 326  : 
; 327  : 	pGameInstance->AddCollider(m_pCollider);

  006c8	45 33 c0	 xor	 r8d, r8d
  006cb	48 8b 85 80 0d
	00 00		 mov	 rax, QWORD PTR this$[rbp]
  006d2	48 8b 90 38 01
	00 00		 mov	 rdx, QWORD PTR [rax+312]
  006d9	48 8b 4d 08	 mov	 rcx, QWORD PTR pGameInstance$[rbp]
  006dd	ff 15 00 00 00
	00		 call	 QWORD PTR __imp_?AddCollider@CGameInstance@Engine@@QEAAJPEAVCCollider@2@I@Z

; 328  : 	m_pCollider->Update(pGameInstance->Get_Transform_Matrix_Inverse(CPipeLine::TS_VIEW));

  006e3	45 33 c0	 xor	 r8d, r8d
  006e6	48 8d 95 e0 0b
	00 00		 lea	 rdx, QWORD PTR $T49[rbp]
  006ed	48 8b 4d 08	 mov	 rcx, QWORD PTR pGameInstance$[rbp]
  006f1	ff 15 00 00 00
	00		 call	 QWORD PTR __imp_?Get_Transform_Matrix_Inverse@CGameInstance@Engine@@QEAA?AUXMMATRIX@DirectX@@W4TRANSFORM_STATE@CPipeLine@2@@Z
  006f7	48 8d 8d 00 0d
	00 00		 lea	 rcx, QWORD PTR $T54[rbp]
  006fe	48 8b f9	 mov	 rdi, rcx
  00701	48 8b f0	 mov	 rsi, rax
  00704	b9 40 00 00 00	 mov	 ecx, 64			; 00000040H
  00709	f3 a4		 rep movsb
  0070b	48 8b 85 80 0d
	00 00		 mov	 rax, QWORD PTR this$[rbp]
  00712	48 8b 80 38 01
	00 00		 mov	 rax, QWORD PTR [rax+312]
  00719	48 8b 8d 80 0d
	00 00		 mov	 rcx, QWORD PTR this$[rbp]
  00720	48 8b 89 38 01
	00 00		 mov	 rcx, QWORD PTR [rcx+312]
  00727	48 8b 00	 mov	 rax, QWORD PTR [rax]
  0072a	48 8d 95 00 0d
	00 00		 lea	 rdx, QWORD PTR $T54[rbp]
  00731	ff 50 30	 call	 QWORD PTR [rax+48]

; 329  : }

  00734	48 8d 4d d0	 lea	 rcx, QWORD PTR [rbp-48]
  00738	48 8d 15 00 00
	00 00		 lea	 rdx, OFFSET FLAT:?DefaultCameraMovement@CPlayerCamera@Client@@AEAAXN@Z$rtcFrameData
  0073f	e8 00 00 00 00	 call	 _RTC_CheckStackVars
  00744	48 8b 8d 50 0d
	00 00		 mov	 rcx, QWORD PTR __$ArrayPad$[rbp]
  0074b	48 33 cd	 xor	 rcx, rbp
  0074e	e8 00 00 00 00	 call	 __security_check_cookie
  00753	48 8d a5 60 0d
	00 00		 lea	 rsp, QWORD PTR [rbp+3424]
  0075a	5f		 pop	 rdi
  0075b	5e		 pop	 rsi
  0075c	5d		 pop	 rbp
  0075d	c3		 ret	 0
?DefaultCameraMovement@CPlayerCamera@Client@@AEAAXN@Z ENDP ; Client::CPlayerCamera::DefaultCameraMovement
_TEXT	ENDS
; Function compile flags: /Odtp /RTCsu /ZI
; File c:\users\arcco\documents\github\framework\client\private\playercamera.cpp
;	COMDAT ?Setup_ShaderResources@CPlayerCamera@Client@@QEAAJXZ
_TEXT	SEGMENT
this$ = 224
?Setup_ShaderResources@CPlayerCamera@Client@@QEAAJXZ PROC ; Client::CPlayerCamera::Setup_ShaderResources, COMDAT

; 231  : {

$LN3:
  00000	48 89 4c 24 08	 mov	 QWORD PTR [rsp+8], rcx
  00005	55		 push	 rbp
  00006	57		 push	 rdi
  00007	48 81 ec c8 00
	00 00		 sub	 rsp, 200		; 000000c8H
  0000e	48 8b ec	 mov	 rbp, rsp
  00011	48 8b fc	 mov	 rdi, rsp
  00014	b9 32 00 00 00	 mov	 ecx, 50			; 00000032H
  00019	b8 cc cc cc cc	 mov	 eax, -858993460		; ccccccccH
  0001e	f3 ab		 rep stosd
  00020	48 8b 8c 24 e8
	00 00 00	 mov	 rcx, QWORD PTR [rsp+232]

; 232  : 	return S_OK;

  00028	33 c0		 xor	 eax, eax

; 233  : }

  0002a	48 8d a5 c8 00
	00 00		 lea	 rsp, QWORD PTR [rbp+200]
  00031	5f		 pop	 rdi
  00032	5d		 pop	 rbp
  00033	c3		 ret	 0
?Setup_ShaderResources@CPlayerCamera@Client@@QEAAJXZ ENDP ; Client::CPlayerCamera::Setup_ShaderResources
_TEXT	ENDS
; Function compile flags: /Odtp /RTCsu /ZI
; File c:\users\arcco\documents\github\framework\client\private\playercamera.cpp
;	COMDAT ?Add_Components@CPlayerCamera@Client@@QEAAJXZ
_TEXT	SEGMENT
this$ = 224
?Add_Components@CPlayerCamera@Client@@QEAAJXZ PROC	; Client::CPlayerCamera::Add_Components, COMDAT

; 226  : {

$LN3:
  00000	48 89 4c 24 08	 mov	 QWORD PTR [rsp+8], rcx
  00005	55		 push	 rbp
  00006	57		 push	 rdi
  00007	48 81 ec c8 00
	00 00		 sub	 rsp, 200		; 000000c8H
  0000e	48 8b ec	 mov	 rbp, rsp
  00011	48 8b fc	 mov	 rdi, rsp
  00014	b9 32 00 00 00	 mov	 ecx, 50			; 00000032H
  00019	b8 cc cc cc cc	 mov	 eax, -858993460		; ccccccccH
  0001e	f3 ab		 rep stosd
  00020	48 8b 8c 24 e8
	00 00 00	 mov	 rcx, QWORD PTR [rsp+232]

; 227  : 	return S_OK;

  00028	33 c0		 xor	 eax, eax

; 228  : }

  0002a	48 8d a5 c8 00
	00 00		 lea	 rsp, QWORD PTR [rbp+200]
  00031	5f		 pop	 rdi
  00032	5d		 pop	 rbp
  00033	c3		 ret	 0
?Add_Components@CPlayerCamera@Client@@QEAAJXZ ENDP	; Client::CPlayerCamera::Add_Components
_TEXT	ENDS
; Function compile flags: /Odtp /RTCsu /ZI
; File c:\users\arcco\documents\github\framework\client\private\playercamera.cpp
;	COMDAT ?AttackShake@CPlayerCamera@Client@@QEAAXXZ
_TEXT	SEGMENT
this$ = 224
?AttackShake@CPlayerCamera@Client@@QEAAXXZ PROC		; Client::CPlayerCamera::AttackShake, COMDAT

; 220  : {

$LN3:
  00000	48 89 4c 24 08	 mov	 QWORD PTR [rsp+8], rcx
  00005	55		 push	 rbp
  00006	57		 push	 rdi
  00007	48 81 ec e8 00
	00 00		 sub	 rsp, 232		; 000000e8H
  0000e	48 8d 6c 24 20	 lea	 rbp, QWORD PTR [rsp+32]
  00013	48 8b fc	 mov	 rdi, rsp
  00016	b9 3a 00 00 00	 mov	 ecx, 58			; 0000003aH
  0001b	b8 cc cc cc cc	 mov	 eax, -858993460		; ccccccccH
  00020	f3 ab		 rep stosd
  00022	48 8b 8c 24 08
	01 00 00	 mov	 rcx, QWORD PTR [rsp+264]

; 221  : 	ShakeReset();

  0002a	48 8b 8d e0 00
	00 00		 mov	 rcx, QWORD PTR this$[rbp]
  00031	ff 15 00 00 00
	00		 call	 QWORD PTR __imp_?ShakeReset@CCamera@Engine@@QEAAXXZ

; 222  : 	StartShake(4.f, 2.5f);

  00037	f3 0f 10 15 00
	00 00 00	 movss	 xmm2, DWORD PTR __real@40200000
  0003f	f3 0f 10 0d 00
	00 00 00	 movss	 xmm1, DWORD PTR __real@40800000
  00047	48 8b 8d e0 00
	00 00		 mov	 rcx, QWORD PTR this$[rbp]
  0004e	ff 15 00 00 00
	00		 call	 QWORD PTR __imp_?StartShake@CCamera@Engine@@QEAAXMM@Z

; 223  : }

  00054	48 8d a5 c8 00
	00 00		 lea	 rsp, QWORD PTR [rbp+200]
  0005b	5f		 pop	 rdi
  0005c	5d		 pop	 rbp
  0005d	c3		 ret	 0
?AttackShake@CPlayerCamera@Client@@QEAAXXZ ENDP		; Client::CPlayerCamera::AttackShake
_TEXT	ENDS
; Function compile flags: /Odtp /RTCsu /ZI
; File c:\users\arcco\documents\github\framework\client\private\playercamera.cpp
;	COMDAT ?Render@CPlayerCamera@Client@@UEAAJXZ
_TEXT	SEGMENT
fValue$ = 4
fDiscardValue$ = 36
__$ArrayPad$ = 248
this$ = 288
?Render@CPlayerCamera@Client@@UEAAJXZ PROC		; Client::CPlayerCamera::Render, COMDAT

; 186  : {

$LN11:
  00000	48 89 4c 24 08	 mov	 QWORD PTR [rsp+8], rcx
  00005	55		 push	 rbp
  00006	57		 push	 rdi
  00007	48 81 ec 28 01
	00 00		 sub	 rsp, 296		; 00000128H
  0000e	48 8d 6c 24 20	 lea	 rbp, QWORD PTR [rsp+32]
  00013	48 8b fc	 mov	 rdi, rsp
  00016	b9 4a 00 00 00	 mov	 ecx, 74			; 0000004aH
  0001b	b8 cc cc cc cc	 mov	 eax, -858993460		; ccccccccH
  00020	f3 ab		 rep stosd
  00022	48 8b 8c 24 48
	01 00 00	 mov	 rcx, QWORD PTR [rsp+328]
  0002a	48 8b 05 00 00
	00 00		 mov	 rax, QWORD PTR __security_cookie
  00031	48 33 c5	 xor	 rax, rbp
  00034	48 89 85 f8 00
	00 00		 mov	 QWORD PTR __$ArrayPad$[rbp], rax

; 187  : 	if (FAILED(__super::Render()))

  0003b	48 8b 8d 20 01
	00 00		 mov	 rcx, QWORD PTR this$[rbp]
  00042	ff 15 00 00 00
	00		 call	 QWORD PTR __imp_?Render@CCamera@Engine@@UEAAJXZ
  00048	85 c0		 test	 eax, eax
  0004a	7d 0a		 jge	 SHORT $LN2@Render

; 188  : 		return E_FAIL;

  0004c	b8 05 40 00 80	 mov	 eax, -2147467259	; ffffffff80004005H
  00051	e9 c5 01 00 00	 jmp	 $LN1@Render
$LN2@Render:

; 189  : 
; 190  : 	if (FAILED(m_pShader->SetMatrix("g_WorldMatrix", &m_WorldMatrix)))

  00056	48 8b 85 20 01
	00 00		 mov	 rax, QWORD PTR this$[rbp]
  0005d	48 05 e8 01 00
	00		 add	 rax, 488		; 000001e8H
  00063	4c 8b c0	 mov	 r8, rax
  00066	48 8d 15 00 00
	00 00		 lea	 rdx, OFFSET FLAT:??_C@_0O@PFNLPMLD@g_WorldMatrix?$AA@
  0006d	48 8b 85 20 01
	00 00		 mov	 rax, QWORD PTR this$[rbp]
  00074	48 8b 88 b0 02
	00 00		 mov	 rcx, QWORD PTR [rax+688]
  0007b	ff 15 00 00 00
	00		 call	 QWORD PTR __imp_?SetMatrix@CShader@Engine@@QEAAJPEBDPEBUXMFLOAT4X4@DirectX@@@Z
  00081	85 c0		 test	 eax, eax
  00083	7d 0a		 jge	 SHORT $LN3@Render

; 191  : 		return E_FAIL;

  00085	b8 05 40 00 80	 mov	 eax, -2147467259	; ffffffff80004005H
  0008a	e9 8c 01 00 00	 jmp	 $LN1@Render
$LN3@Render:

; 192  : 	if (FAILED(m_pShader->SetMatrix("g_ViewMatrix", &m_ViewMatrix)))

  0008f	48 8b 85 20 01
	00 00		 mov	 rax, QWORD PTR this$[rbp]
  00096	48 05 28 02 00
	00		 add	 rax, 552		; 00000228H
  0009c	4c 8b c0	 mov	 r8, rax
  0009f	48 8d 15 00 00
	00 00		 lea	 rdx, OFFSET FLAT:??_C@_0N@ELIMCBLG@g_ViewMatrix?$AA@
  000a6	48 8b 85 20 01
	00 00		 mov	 rax, QWORD PTR this$[rbp]
  000ad	48 8b 88 b0 02
	00 00		 mov	 rcx, QWORD PTR [rax+688]
  000b4	ff 15 00 00 00
	00		 call	 QWORD PTR __imp_?SetMatrix@CShader@Engine@@QEAAJPEBDPEBUXMFLOAT4X4@DirectX@@@Z
  000ba	85 c0		 test	 eax, eax
  000bc	7d 0a		 jge	 SHORT $LN4@Render

; 193  : 		return E_FAIL;

  000be	b8 05 40 00 80	 mov	 eax, -2147467259	; ffffffff80004005H
  000c3	e9 53 01 00 00	 jmp	 $LN1@Render
$LN4@Render:

; 194  : 	if (FAILED(m_pShader->SetMatrix("g_ProjMatrix", &m_ProjMatrix)))

  000c8	48 8b 85 20 01
	00 00		 mov	 rax, QWORD PTR this$[rbp]
  000cf	48 05 68 02 00
	00		 add	 rax, 616		; 00000268H
  000d5	4c 8b c0	 mov	 r8, rax
  000d8	48 8d 15 00 00
	00 00		 lea	 rdx, OFFSET FLAT:??_C@_0N@OOHDPIO@g_ProjMatrix?$AA@
  000df	48 8b 85 20 01
	00 00		 mov	 rax, QWORD PTR this$[rbp]
  000e6	48 8b 88 b0 02
	00 00		 mov	 rcx, QWORD PTR [rax+688]
  000ed	ff 15 00 00 00
	00		 call	 QWORD PTR __imp_?SetMatrix@CShader@Engine@@QEAAJPEBDPEBUXMFLOAT4X4@DirectX@@@Z
  000f3	85 c0		 test	 eax, eax
  000f5	7d 0a		 jge	 SHORT $LN5@Render

; 195  : 		return E_FAIL;

  000f7	b8 05 40 00 80	 mov	 eax, -2147467259	; ffffffff80004005H
  000fc	e9 1a 01 00 00	 jmp	 $LN1@Render
$LN5@Render:

; 196  : 
; 197  : 	_float fValue = 1.f;

  00101	f3 0f 10 05 00
	00 00 00	 movss	 xmm0, DWORD PTR __real@3f800000
  00109	f3 0f 11 45 04	 movss	 DWORD PTR fValue$[rbp], xmm0

; 198  : 	_float fDiscardValue = 0.f;

  0010e	0f 57 c0	 xorps	 xmm0, xmm0
  00111	f3 0f 11 45 24	 movss	 DWORD PTR fDiscardValue$[rbp], xmm0

; 199  : 
; 200  : 	//  
; 201  : 	if (FAILED(m_pTexture->Setup_ShaderResource(m_pShader, "g_Texture")))

  00116	45 33 c9	 xor	 r9d, r9d
  00119	4c 8d 05 00 00
	00 00		 lea	 r8, OFFSET FLAT:??_C@_09HCHKCCII@g_Texture?$AA@
  00120	48 8b 85 20 01
	00 00		 mov	 rax, QWORD PTR this$[rbp]
  00127	48 8b 90 b0 02
	00 00		 mov	 rdx, QWORD PTR [rax+688]
  0012e	48 8b 85 20 01
	00 00		 mov	 rax, QWORD PTR this$[rbp]
  00135	48 8b 88 c0 02
	00 00		 mov	 rcx, QWORD PTR [rax+704]
  0013c	ff 15 00 00 00
	00		 call	 QWORD PTR __imp_?Setup_ShaderResource@CTexture@Engine@@QEAAJPEAVCShader@2@PEBDI@Z
  00142	85 c0		 test	 eax, eax
  00144	7d 0a		 jge	 SHORT $LN6@Render

; 202  : 		return E_FAIL;

  00146	b8 05 40 00 80	 mov	 eax, -2147467259	; ffffffff80004005H
  0014b	e9 cb 00 00 00	 jmp	 $LN1@Render
$LN6@Render:

; 203  : 
; 204  : 	if (FAILED(m_pShader->SetRawValue("g_FillAmount", &fValue, sizeof(_float))))

  00150	41 b9 04 00 00
	00		 mov	 r9d, 4
  00156	4c 8d 45 04	 lea	 r8, QWORD PTR fValue$[rbp]
  0015a	48 8d 15 00 00
	00 00		 lea	 rdx, OFFSET FLAT:??_C@_0N@PLHHBDPH@g_FillAmount?$AA@
  00161	48 8b 85 20 01
	00 00		 mov	 rax, QWORD PTR this$[rbp]
  00168	48 8b 88 b0 02
	00 00		 mov	 rcx, QWORD PTR [rax+688]
  0016f	ff 15 00 00 00
	00		 call	 QWORD PTR __imp_?SetRawValue@CShader@Engine@@QEAAJPEBDPEBXI@Z
  00175	85 c0		 test	 eax, eax
  00177	7d 0a		 jge	 SHORT $LN7@Render

; 205  : 		return E_FAIL;

  00179	b8 05 40 00 80	 mov	 eax, -2147467259	; ffffffff80004005H
  0017e	e9 98 00 00 00	 jmp	 $LN1@Render
$LN7@Render:

; 206  : 
; 207  : 	if (FAILED(m_pShader->SetRawValue("g_Alpha", &m_fAlpha, sizeof(_float))))

  00183	48 8b 85 20 01
	00 00		 mov	 rax, QWORD PTR this$[rbp]
  0018a	48 05 c4 01 00
	00		 add	 rax, 452		; 000001c4H
  00190	41 b9 04 00 00
	00		 mov	 r9d, 4
  00196	4c 8b c0	 mov	 r8, rax
  00199	48 8d 15 00 00
	00 00		 lea	 rdx, OFFSET FLAT:??_C@_07FMLFDDAN@g_Alpha?$AA@
  001a0	48 8b 85 20 01
	00 00		 mov	 rax, QWORD PTR this$[rbp]
  001a7	48 8b 88 b0 02
	00 00		 mov	 rcx, QWORD PTR [rax+688]
  001ae	ff 15 00 00 00
	00		 call	 QWORD PTR __imp_?SetRawValue@CShader@Engine@@QEAAJPEBDPEBXI@Z
  001b4	85 c0		 test	 eax, eax
  001b6	7d 07		 jge	 SHORT $LN8@Render

; 208  : 		return E_FAIL;

  001b8	b8 05 40 00 80	 mov	 eax, -2147467259	; ffffffff80004005H
  001bd	eb 5c		 jmp	 SHORT $LN1@Render
$LN8@Render:

; 209  : 
; 210  : 	if (FAILED(m_pShader->SetRawValue("g_DiscardValue", &fDiscardValue, sizeof(_float))))

  001bf	41 b9 04 00 00
	00		 mov	 r9d, 4
  001c5	4c 8d 45 24	 lea	 r8, QWORD PTR fDiscardValue$[rbp]
  001c9	48 8d 15 00 00
	00 00		 lea	 rdx, OFFSET FLAT:??_C@_0P@IKACEMKG@g_DiscardValue?$AA@
  001d0	48 8b 85 20 01
	00 00		 mov	 rax, QWORD PTR this$[rbp]
  001d7	48 8b 88 b0 02
	00 00		 mov	 rcx, QWORD PTR [rax+688]
  001de	ff 15 00 00 00
	00		 call	 QWORD PTR __imp_?SetRawValue@CShader@Engine@@QEAAJPEBDPEBXI@Z
  001e4	85 c0		 test	 eax, eax
  001e6	7d 07		 jge	 SHORT $LN9@Render

; 211  : 		return E_FAIL;

  001e8	b8 05 40 00 80	 mov	 eax, -2147467259	; ffffffff80004005H
  001ed	eb 2c		 jmp	 SHORT $LN1@Render
$LN9@Render:

; 212  : 
; 213  : 	m_pShader->Begin(0);

  001ef	33 d2		 xor	 edx, edx
  001f1	48 8b 85 20 01
	00 00		 mov	 rax, QWORD PTR this$[rbp]
  001f8	48 8b 88 b0 02
	00 00		 mov	 rcx, QWORD PTR [rax+688]
  001ff	ff 15 00 00 00
	00		 call	 QWORD PTR __imp_?Begin@CShader@Engine@@QEAAJI@Z

; 214  : 	m_pVIBuffer->Render();

  00205	48 8b 85 20 01
	00 00		 mov	 rax, QWORD PTR this$[rbp]
  0020c	48 8b 88 b8 02
	00 00		 mov	 rcx, QWORD PTR [rax+696]
  00213	ff 15 00 00 00
	00		 call	 QWORD PTR __imp_?Render@CVIBuffer@Engine@@UEAAJXZ

; 215  : 
; 216  : 	return S_OK;

  00219	33 c0		 xor	 eax, eax
$LN1@Render:

; 217  : }

  0021b	48 8b f8	 mov	 rdi, rax
  0021e	48 8d 4d e0	 lea	 rcx, QWORD PTR [rbp-32]
  00222	48 8d 15 00 00
	00 00		 lea	 rdx, OFFSET FLAT:?Render@CPlayerCamera@Client@@UEAAJXZ$rtcFrameData
  00229	e8 00 00 00 00	 call	 _RTC_CheckStackVars
  0022e	48 8b c7	 mov	 rax, rdi
  00231	48 8b 8d f8 00
	00 00		 mov	 rcx, QWORD PTR __$ArrayPad$[rbp]
  00238	48 33 cd	 xor	 rcx, rbp
  0023b	e8 00 00 00 00	 call	 __security_check_cookie
  00240	48 8d a5 08 01
	00 00		 lea	 rsp, QWORD PTR [rbp+264]
  00247	5f		 pop	 rdi
  00248	5d		 pop	 rbp
  00249	c3		 ret	 0
?Render@CPlayerCamera@Client@@UEAAJXZ ENDP		; Client::CPlayerCamera::Render
_TEXT	ENDS
; Function compile flags: /Odtp /RTCsu /ZI
; File c:\users\arcco\documents\github\framework\client\private\playercamera.cpp
;	COMDAT ?LateTick@CPlayerCamera@Client@@UEAAXN@Z
_TEXT	SEGMENT
pGameInstance$ = 8
pSkillSystem$1 = 40
tv136 = 244
this$ = 288
TimeDelta$ = 296
?LateTick@CPlayerCamera@Client@@UEAAXN@Z PROC		; Client::CPlayerCamera::LateTick, COMDAT

; 137  : {

$LN12:
  00000	f2 0f 11 4c 24
	10		 movsd	 QWORD PTR [rsp+16], xmm1
  00006	48 89 4c 24 08	 mov	 QWORD PTR [rsp+8], rcx
  0000b	55		 push	 rbp
  0000c	57		 push	 rdi
  0000d	48 81 ec 28 01
	00 00		 sub	 rsp, 296		; 00000128H
  00014	48 8d 6c 24 20	 lea	 rbp, QWORD PTR [rsp+32]
  00019	48 8b fc	 mov	 rdi, rsp
  0001c	b9 4a 00 00 00	 mov	 ecx, 74			; 0000004aH
  00021	b8 cc cc cc cc	 mov	 eax, -858993460		; ccccccccH
  00026	f3 ab		 rep stosd
  00028	48 8b 8c 24 48
	01 00 00	 mov	 rcx, QWORD PTR [rsp+328]

; 138  : 	__super::LateTick(TimeDelta);

  00030	f2 0f 10 8d 28
	01 00 00	 movsd	 xmm1, QWORD PTR TimeDelta$[rbp]
  00038	48 8b 8d 20 01
	00 00		 mov	 rcx, QWORD PTR this$[rbp]
  0003f	ff 15 00 00 00
	00		 call	 QWORD PTR __imp_?LateTick@CCamera@Engine@@UEAAXN@Z

; 139  : 
; 140  : 	CGameInstance* pGameInstance = CGameInstance::GetInstance();

  00045	ff 15 00 00 00
	00		 call	 QWORD PTR __imp_?GetInstance@CGameInstance@Engine@@SAPEAV12@XZ
  0004b	48 89 45 08	 mov	 QWORD PTR pGameInstance$[rbp], rax

; 141  : 
; 142  : 	if (pGameInstance->Input_KeyState_Custom(DIK_8) == KEY_STATE::TAP)

  0004f	ba 09 00 00 00	 mov	 edx, 9
  00054	48 8b 4d 08	 mov	 rcx, QWORD PTR pGameInstance$[rbp]
  00058	ff 15 00 00 00
	00		 call	 QWORD PTR __imp_?Input_KeyState_Custom@CGameInstance@Engine@@QEAA?AW4KEY_STATE@2@H@Z
  0005e	83 f8 01	 cmp	 eax, 1
  00061	75 1c		 jne	 SHORT $LN2@LateTick

; 143  : 	{
; 144  : 		m_bFadeIn = true;

  00063	48 8b 85 20 01
	00 00		 mov	 rax, QWORD PTR this$[rbp]
  0006a	c6 80 c1 01 00
	00 01		 mov	 BYTE PTR [rax+449], 1

; 145  : 		m_bFadeInStart = true;

  00071	48 8b 85 20 01
	00 00		 mov	 rax, QWORD PTR this$[rbp]
  00078	c6 80 c8 01 00
	00 01		 mov	 BYTE PTR [rax+456], 1
$LN2@LateTick:

; 146  : 	}
; 147  : 
; 148  : 	if (m_bFadeInStart)

  0007f	48 8b 85 20 01
	00 00		 mov	 rax, QWORD PTR this$[rbp]
  00086	0f b6 80 c8 01
	00 00		 movzx	 eax, BYTE PTR [rax+456]
  0008d	85 c0		 test	 eax, eax
  0008f	0f 84 e5 00 00
	00		 je	 $LN3@LateTick

; 149  : 	{
; 150  : 		CSkillBallSystem* pSkillSystem = CSkillBallSystem::GetInstance();

  00095	e8 00 00 00 00	 call	 ?GetInstance@CSkillBallSystem@Client@@SAPEAV12@XZ ; Client::CSkillBallSystem::GetInstance
  0009a	48 89 45 28	 mov	 QWORD PTR pSkillSystem$1[rbp], rax

; 151  : 		pSkillSystem->Clear();

  0009e	48 8b 4d 28	 mov	 rcx, QWORD PTR pSkillSystem$1[rbp]
  000a2	e8 00 00 00 00	 call	 ?Clear@CSkillBallSystem@Client@@QEAAXXZ ; Client::CSkillBallSystem::Clear

; 152  : 
; 153  : 		m_fFadeInWaitAcc += TimeDelta;

  000a7	48 8b 85 20 01
	00 00		 mov	 rax, QWORD PTR this$[rbp]
  000ae	f3 0f 5a 80 cc
	01 00 00	 cvtss2sd xmm0, DWORD PTR [rax+460]
  000b6	f2 0f 58 85 28
	01 00 00	 addsd	 xmm0, QWORD PTR TimeDelta$[rbp]
  000be	f2 0f 5a c0	 cvtsd2ss xmm0, xmm0
  000c2	48 8b 85 20 01
	00 00		 mov	 rax, QWORD PTR this$[rbp]
  000c9	f3 0f 11 80 cc
	01 00 00	 movss	 DWORD PTR [rax+460], xmm0

; 154  : 		if (m_fFadeInWaitAcc >= 1.f)

  000d1	48 8b 85 20 01
	00 00		 mov	 rax, QWORD PTR this$[rbp]
  000d8	f3 0f 10 80 cc
	01 00 00	 movss	 xmm0, DWORD PTR [rax+460]
  000e0	0f 2f 05 00 00
	00 00		 comiss	 xmm0, DWORD PTR __real@3f800000
  000e7	0f 82 8d 00 00
	00		 jb	 $LN4@LateTick

; 155  : 		{
; 156  : 			m_bFadeIn = false;

  000ed	48 8b 85 20 01
	00 00		 mov	 rax, QWORD PTR this$[rbp]
  000f4	c6 80 c1 01 00
	00 00		 mov	 BYTE PTR [rax+449], 0

; 157  : 			m_bFadeInStart = false;

  000fb	48 8b 85 20 01
	00 00		 mov	 rax, QWORD PTR this$[rbp]
  00102	c6 80 c8 01 00
	00 00		 mov	 BYTE PTR [rax+456], 0

; 158  : 			m_bFadeOut = true;

  00109	48 8b 85 20 01
	00 00		 mov	 rax, QWORD PTR this$[rbp]
  00110	c6 80 c2 01 00
	00 01		 mov	 BYTE PTR [rax+450], 1

; 159  : 			m_fFadeInWaitAcc = 0.f;

  00117	48 8b 85 20 01
	00 00		 mov	 rax, QWORD PTR this$[rbp]
  0011e	0f 57 c0	 xorps	 xmm0, xmm0
  00121	f3 0f 11 80 cc
	01 00 00	 movss	 DWORD PTR [rax+460], xmm0

; 160  : 			static_cast<CCharacter*>(m_pTarget)->SetWinMotion(true);

  00129	b2 01		 mov	 dl, 1
  0012b	48 8b 85 20 01
	00 00		 mov	 rax, QWORD PTR this$[rbp]
  00132	48 8b 88 20 01
	00 00		 mov	 rcx, QWORD PTR [rax+288]
  00139	e8 00 00 00 00	 call	 ?SetWinMotion@CCharacter@Client@@QEAAX_N@Z ; Client::CCharacter::SetWinMotion

; 161  : 			m_bWinAction = !m_bWinAction;

  0013e	48 8b 85 20 01
	00 00		 mov	 rax, QWORD PTR this$[rbp]
  00145	0f b6 80 a0 01
	00 00		 movzx	 eax, BYTE PTR [rax+416]
  0014c	85 c0		 test	 eax, eax
  0014e	75 0c		 jne	 SHORT $LN10@LateTick
  00150	c7 85 f4 00 00
	00 01 00 00 00	 mov	 DWORD PTR tv136[rbp], 1
  0015a	eb 0a		 jmp	 SHORT $LN11@LateTick
$LN10@LateTick:
  0015c	c7 85 f4 00 00
	00 00 00 00 00	 mov	 DWORD PTR tv136[rbp], 0
$LN11@LateTick:
  00166	48 8b 85 20 01
	00 00		 mov	 rax, QWORD PTR this$[rbp]
  0016d	0f b6 8d f4 00
	00 00		 movzx	 ecx, BYTE PTR tv136[rbp]
  00174	88 88 a0 01 00
	00		 mov	 BYTE PTR [rax+416], cl
$LN4@LateTick:
$LN3@LateTick:

; 162  : 		}
; 163  : 	}
; 164  : 
; 165  : 	if (m_bFadeOutStart)

  0017a	48 8b 85 20 01
	00 00		 mov	 rax, QWORD PTR this$[rbp]
  00181	0f b6 80 c9 01
	00 00		 movzx	 eax, BYTE PTR [rax+457]
  00188	85 c0		 test	 eax, eax
  0018a	74 70		 je	 SHORT $LN5@LateTick

; 166  : 	{
; 167  : 		m_fFadeOutWaitAcc += TimeDelta;

  0018c	48 8b 85 20 01
	00 00		 mov	 rax, QWORD PTR this$[rbp]
  00193	f3 0f 5a 80 d0
	01 00 00	 cvtss2sd xmm0, DWORD PTR [rax+464]
  0019b	f2 0f 58 85 28
	01 00 00	 addsd	 xmm0, QWORD PTR TimeDelta$[rbp]
  001a3	f2 0f 5a c0	 cvtsd2ss xmm0, xmm0
  001a7	48 8b 85 20 01
	00 00		 mov	 rax, QWORD PTR this$[rbp]
  001ae	f3 0f 11 80 d0
	01 00 00	 movss	 DWORD PTR [rax+464], xmm0

; 168  : 		if (m_fFadeOutWaitAcc >= 1.f)

  001b6	48 8b 85 20 01
	00 00		 mov	 rax, QWORD PTR this$[rbp]
  001bd	f3 0f 10 80 d0
	01 00 00	 movss	 xmm0, DWORD PTR [rax+464]
  001c5	0f 2f 05 00 00
	00 00		 comiss	 xmm0, DWORD PTR __real@3f800000
  001cc	72 2e		 jb	 SHORT $LN6@LateTick

; 169  : 		{
; 170  : 			m_bFadeOut = false;

  001ce	48 8b 85 20 01
	00 00		 mov	 rax, QWORD PTR this$[rbp]
  001d5	c6 80 c2 01 00
	00 00		 mov	 BYTE PTR [rax+450], 0

; 171  : 			m_bFadeOutStart = false;

  001dc	48 8b 85 20 01
	00 00		 mov	 rax, QWORD PTR this$[rbp]
  001e3	c6 80 c9 01 00
	00 00		 mov	 BYTE PTR [rax+457], 0

; 172  : 			m_fFadeOutWaitAcc = 0.f;

  001ea	48 8b 85 20 01
	00 00		 mov	 rax, QWORD PTR this$[rbp]
  001f1	0f 57 c0	 xorps	 xmm0, xmm0
  001f4	f3 0f 11 80 d0
	01 00 00	 movss	 DWORD PTR [rax+464], xmm0
$LN6@LateTick:
$LN5@LateTick:

; 173  : 
; 174  : 		}
; 175  : 	}
; 176  : 
; 177  : 	//   
; 178  : 	if (!m_bFadeIn && !m_bFadeOut)

  001fc	48 8b 85 20 01
	00 00		 mov	 rax, QWORD PTR this$[rbp]
  00203	0f b6 80 c1 01
	00 00		 movzx	 eax, BYTE PTR [rax+449]
  0020a	85 c0		 test	 eax, eax
  0020c	75 14		 jne	 SHORT $LN7@LateTick
  0020e	48 8b 85 20 01
	00 00		 mov	 rax, QWORD PTR this$[rbp]
  00215	0f b6 80 c2 01
	00 00		 movzx	 eax, BYTE PTR [rax+450]
  0021c	85 c0		 test	 eax, eax
  0021e	75 02		 jne	 SHORT $LN7@LateTick

; 179  : 		return;

  00220	eb 31		 jmp	 SHORT $LN1@LateTick
$LN7@LateTick:

; 180  : 
; 181  : 	if (nullptr != m_pRenderer)

  00222	48 8b 85 20 01
	00 00		 mov	 rax, QWORD PTR this$[rbp]
  00229	48 83 b8 a8 02
	00 00 00	 cmp	 QWORD PTR [rax+680], 0
  00231	74 20		 je	 SHORT $LN8@LateTick

; 182  : 		m_pRenderer->Add_RenderGroup(CRenderer::RENDER_ENDING, this);

  00233	4c 8b 85 20 01
	00 00		 mov	 r8, QWORD PTR this$[rbp]
  0023a	ba 05 00 00 00	 mov	 edx, 5
  0023f	48 8b 85 20 01
	00 00		 mov	 rax, QWORD PTR this$[rbp]
  00246	48 8b 88 a8 02
	00 00		 mov	 rcx, QWORD PTR [rax+680]
  0024d	ff 15 00 00 00
	00		 call	 QWORD PTR __imp_?Add_RenderGroup@CRenderer@Engine@@QEAAJW4RENDER_GROUP@12@PEAVCGameObject@2@@Z
$LN8@LateTick:
$LN1@LateTick:

; 183  : }

  00253	48 8d a5 08 01
	00 00		 lea	 rsp, QWORD PTR [rbp+264]
  0025a	5f		 pop	 rdi
  0025b	5d		 pop	 rbp
  0025c	c3		 ret	 0
?LateTick@CPlayerCamera@Client@@UEAAXN@Z ENDP		; Client::CPlayerCamera::LateTick
_TEXT	ENDS
; Function compile flags: /Odtp /RTCsu /ZI
; File c:\users\arcco\documents\github\framework\client\private\playercamera.cpp
;	COMDAT ?Tick@CPlayerCamera@Client@@UEAAXN@Z
_TEXT	SEGMENT
this$ = 224
TimeDelta$ = 232
?Tick@CPlayerCamera@Client@@UEAAXN@Z PROC		; Client::CPlayerCamera::Tick, COMDAT

; 99   : {

$LN12:
  00000	f2 0f 11 4c 24
	10		 movsd	 QWORD PTR [rsp+16], xmm1
  00006	48 89 4c 24 08	 mov	 QWORD PTR [rsp+8], rcx
  0000b	55		 push	 rbp
  0000c	57		 push	 rdi
  0000d	48 81 ec e8 00
	00 00		 sub	 rsp, 232		; 000000e8H
  00014	48 8d 6c 24 20	 lea	 rbp, QWORD PTR [rsp+32]
  00019	48 8b fc	 mov	 rdi, rsp
  0001c	b9 3a 00 00 00	 mov	 ecx, 58			; 0000003aH
  00021	b8 cc cc cc cc	 mov	 eax, -858993460		; ccccccccH
  00026	f3 ab		 rep stosd
  00028	48 8b 8c 24 08
	01 00 00	 mov	 rcx, QWORD PTR [rsp+264]

; 100  : 	__super::Tick(TimeDelta);

  00030	f2 0f 10 8d e8
	00 00 00	 movsd	 xmm1, QWORD PTR TimeDelta$[rbp]
  00038	48 8b 8d e0 00
	00 00		 mov	 rcx, QWORD PTR this$[rbp]
  0003f	ff 15 00 00 00
	00		 call	 QWORD PTR __imp_?Tick@CCamera@Engine@@UEAAXN@Z

; 101  : 
; 102  : 	if (m_bFinish && m_fAlpha >= 1.f)

  00045	48 8b 85 e0 00
	00 00		 mov	 rax, QWORD PTR this$[rbp]
  0004c	0f b6 80 c0 01
	00 00		 movzx	 eax, BYTE PTR [rax+448]
  00053	85 c0		 test	 eax, eax
  00055	74 76		 je	 SHORT $LN2@Tick
  00057	48 8b 85 e0 00
	00 00		 mov	 rax, QWORD PTR this$[rbp]
  0005e	f3 0f 10 80 c4
	01 00 00	 movss	 xmm0, DWORD PTR [rax+452]
  00066	0f 2f 05 00 00
	00 00		 comiss	 xmm0, DWORD PTR __real@3f800000
  0006d	72 5e		 jb	 SHORT $LN2@Tick

; 103  : 	{
; 104  : 		m_fAlpha = 1.f;

  0006f	48 8b 85 e0 00
	00 00		 mov	 rax, QWORD PTR this$[rbp]
  00076	f3 0f 10 05 00
	00 00 00	 movss	 xmm0, DWORD PTR __real@3f800000
  0007e	f3 0f 11 80 c4
	01 00 00	 movss	 DWORD PTR [rax+452], xmm0

; 105  : 		m_bFinish = false;

  00086	48 8b 85 e0 00
	00 00		 mov	 rax, QWORD PTR this$[rbp]
  0008d	c6 80 c0 01 00
	00 00		 mov	 BYTE PTR [rax+448], 0

; 106  : 		if(!CApplicationManager::GetInstance()->IsLevelFinish(CApplicationManager::LEVEL::GAMEPLAY))

  00094	e8 00 00 00 00	 call	 ?GetInstance@CApplicationManager@Client@@SAPEAV12@XZ ; Client::CApplicationManager::GetInstance
  00099	33 d2		 xor	 edx, edx
  0009b	48 8b c8	 mov	 rcx, rax
  0009e	e8 00 00 00 00	 call	 ?IsLevelFinish@CApplicationManager@Client@@QEAA_NW4LEVEL@12@@Z ; Client::CApplicationManager::IsLevelFinish
  000a3	0f b6 c0	 movzx	 eax, al
  000a6	85 c0		 test	 eax, eax
  000a8	75 11		 jne	 SHORT $LN3@Tick

; 107  : 			CApplicationManager::GetInstance()->SetLevelFinish(CApplicationManager::LEVEL::GAMEPLAY);

  000aa	e8 00 00 00 00	 call	 ?GetInstance@CApplicationManager@Client@@SAPEAV12@XZ ; Client::CApplicationManager::GetInstance
  000af	33 d2		 xor	 edx, edx
  000b1	48 8b c8	 mov	 rcx, rax
  000b4	e8 00 00 00 00	 call	 ?SetLevelFinish@CApplicationManager@Client@@QEAAXW4LEVEL@12@@Z ; Client::CApplicationManager::SetLevelFinish

; 108  : 		else

  000b9	eb 12		 jmp	 SHORT $LN4@Tick
$LN3@Tick:

; 109  : 			CApplicationManager::GetInstance()->SetLevelFinish(CApplicationManager::LEVEL::BOSS);

  000bb	e8 00 00 00 00	 call	 ?GetInstance@CApplicationManager@Client@@SAPEAV12@XZ ; Client::CApplicationManager::GetInstance
  000c0	ba 01 00 00 00	 mov	 edx, 1
  000c5	48 8b c8	 mov	 rcx, rax
  000c8	e8 00 00 00 00	 call	 ?SetLevelFinish@CApplicationManager@Client@@QEAAXW4LEVEL@12@@Z ; Client::CApplicationManager::SetLevelFinish
$LN4@Tick:
$LN2@Tick:

; 110  : 	}
; 111  : 
; 112  : 	if (m_bFadeIn)

  000cd	48 8b 85 e0 00
	00 00		 mov	 rax, QWORD PTR this$[rbp]
  000d4	0f b6 80 c1 01
	00 00		 movzx	 eax, BYTE PTR [rax+449]
  000db	85 c0		 test	 eax, eax
  000dd	74 50		 je	 SHORT $LN5@Tick

; 113  : 	{
; 114  : 		m_fAlpha += TimeDelta;

  000df	48 8b 85 e0 00
	00 00		 mov	 rax, QWORD PTR this$[rbp]
  000e6	f3 0f 5a 80 c4
	01 00 00	 cvtss2sd xmm0, DWORD PTR [rax+452]
  000ee	f2 0f 58 85 e8
	00 00 00	 addsd	 xmm0, QWORD PTR TimeDelta$[rbp]
  000f6	f2 0f 5a c0	 cvtsd2ss xmm0, xmm0
  000fa	48 8b 85 e0 00
	00 00		 mov	 rax, QWORD PTR this$[rbp]
  00101	f3 0f 11 80 c4
	01 00 00	 movss	 DWORD PTR [rax+452], xmm0

; 115  : 
; 116  : 		if (m_fAlpha >= 1.f)

  00109	48 8b 85 e0 00
	00 00		 mov	 rax, QWORD PTR this$[rbp]
  00110	f3 0f 10 80 c4
	01 00 00	 movss	 xmm0, DWORD PTR [rax+452]
  00118	0f 2f 05 00 00
	00 00		 comiss	 xmm0, DWORD PTR __real@3f800000
  0011f	72 0e		 jb	 SHORT $LN6@Tick

; 117  : 			m_bFadeIn = false;

  00121	48 8b 85 e0 00
	00 00		 mov	 rax, QWORD PTR this$[rbp]
  00128	c6 80 c1 01 00
	00 00		 mov	 BYTE PTR [rax+449], 0
$LN6@Tick:
$LN5@Tick:

; 118  : 	}
; 119  : 
; 120  : 	if (m_bFadeOut)

  0012f	48 8b 85 e0 00
	00 00		 mov	 rax, QWORD PTR this$[rbp]
  00136	0f b6 80 c2 01
	00 00		 movzx	 eax, BYTE PTR [rax+450]
  0013d	85 c0		 test	 eax, eax
  0013f	74 4b		 je	 SHORT $LN7@Tick

; 121  : 	{
; 122  : 		m_fAlpha -= TimeDelta;

  00141	48 8b 85 e0 00
	00 00		 mov	 rax, QWORD PTR this$[rbp]
  00148	f3 0f 5a 80 c4
	01 00 00	 cvtss2sd xmm0, DWORD PTR [rax+452]
  00150	f2 0f 5c 85 e8
	00 00 00	 subsd	 xmm0, QWORD PTR TimeDelta$[rbp]
  00158	f2 0f 5a c0	 cvtsd2ss xmm0, xmm0
  0015c	48 8b 85 e0 00
	00 00		 mov	 rax, QWORD PTR this$[rbp]
  00163	f3 0f 11 80 c4
	01 00 00	 movss	 DWORD PTR [rax+452], xmm0

; 123  : 
; 124  : 		if (m_fAlpha < 0.f)

  0016b	48 8b 85 e0 00
	00 00		 mov	 rax, QWORD PTR this$[rbp]
  00172	0f 57 c0	 xorps	 xmm0, xmm0
  00175	0f 2f 80 c4 01
	00 00		 comiss	 xmm0, DWORD PTR [rax+452]
  0017c	76 0e		 jbe	 SHORT $LN8@Tick

; 125  : 		{
; 126  : 			m_bFadeOut = false;

  0017e	48 8b 85 e0 00
	00 00		 mov	 rax, QWORD PTR this$[rbp]
  00185	c6 80 c2 01 00
	00 00		 mov	 BYTE PTR [rax+450], 0
$LN8@Tick:
$LN7@Tick:

; 127  : 		}
; 128  : 	}
; 129  : 
; 130  : 	if (!m_bWinAction)

  0018c	48 8b 85 e0 00
	00 00		 mov	 rax, QWORD PTR this$[rbp]
  00193	0f b6 80 a0 01
	00 00		 movzx	 eax, BYTE PTR [rax+416]
  0019a	85 c0		 test	 eax, eax
  0019c	75 16		 jne	 SHORT $LN9@Tick

; 131  : 		DefaultCameraMovement(TimeDelta);

  0019e	f2 0f 10 8d e8
	00 00 00	 movsd	 xmm1, QWORD PTR TimeDelta$[rbp]
  001a6	48 8b 8d e0 00
	00 00		 mov	 rcx, QWORD PTR this$[rbp]
  001ad	e8 00 00 00 00	 call	 ?DefaultCameraMovement@CPlayerCamera@Client@@AEAAXN@Z ; Client::CPlayerCamera::DefaultCameraMovement

; 132  : 	else

  001b2	eb 14		 jmp	 SHORT $LN10@Tick
$LN9@Tick:

; 133  : 		WinActionMovement(TimeDelta);

  001b4	f2 0f 10 8d e8
	00 00 00	 movsd	 xmm1, QWORD PTR TimeDelta$[rbp]
  001bc	48 8b 8d e0 00
	00 00		 mov	 rcx, QWORD PTR this$[rbp]
  001c3	e8 00 00 00 00	 call	 ?WinActionMovement@CPlayerCamera@Client@@AEAAXN@Z ; Client::CPlayerCamera::WinActionMovement
$LN10@Tick:

; 134  : }

  001c8	48 8d a5 c8 00
	00 00		 lea	 rsp, QWORD PTR [rbp+200]
  001cf	5f		 pop	 rdi
  001d0	5d		 pop	 rbp
  001d1	c3		 ret	 0
?Tick@CPlayerCamera@Client@@UEAAXN@Z ENDP		; Client::CPlayerCamera::Tick
_TEXT	ENDS
; Function compile flags: /Odtp /RTCsu /ZI
; File c:\users\arcco\documents\github\framework\client\private\playercamera.cpp
;	COMDAT ?Initialize@CPlayerCamera@Client@@UEAAJPEAX@Z
_TEXT	SEGMENT
collDesc$ = 8
$T4 = 672
$T5 = 720
$T6 = 768
$T7 = 816
$T8 = 852
$T9 = 884
$T10 = 916
$T11 = 960
$T12 = 1056
$T13 = 1152
$T14 = 1248
$T15 = 1344
$T16 = 1440
$T17 = 1488
$T18 = 1536
$T19 = 1584
$T20 = 1680
$T21 = 1776
$T22 = 1872
$T23 = 1968
tv339 = 2036
__$ArrayPad$ = 2040
this$ = 2080
pArg$ = 2088
?Initialize@CPlayerCamera@Client@@UEAAJPEAX@Z PROC	; Client::CPlayerCamera::Initialize, COMDAT

; 33   : {

$LN11:
  00000	48 89 54 24 10	 mov	 QWORD PTR [rsp+16], rdx
  00005	48 89 4c 24 08	 mov	 QWORD PTR [rsp+8], rcx
  0000a	55		 push	 rbp
  0000b	56		 push	 rsi
  0000c	57		 push	 rdi
  0000d	48 81 ec 30 08
	00 00		 sub	 rsp, 2096		; 00000830H
  00014	48 8d 6c 24 30	 lea	 rbp, QWORD PTR [rsp+48]
  00019	48 8b fc	 mov	 rdi, rsp
  0001c	b9 0c 02 00 00	 mov	 ecx, 524		; 0000020cH
  00021	b8 cc cc cc cc	 mov	 eax, -858993460		; ccccccccH
  00026	f3 ab		 rep stosd
  00028	48 8b 8c 24 58
	08 00 00	 mov	 rcx, QWORD PTR [rsp+2136]
  00030	48 8b 05 00 00
	00 00		 mov	 rax, QWORD PTR __security_cookie
  00037	48 33 c5	 xor	 rax, rbp
  0003a	48 89 85 f8 07
	00 00		 mov	 QWORD PTR __$ArrayPad$[rbp], rax

; 34   : 	m_pTransform = CTransform::Create(m_pDevice, m_pContext);

  00041	48 8b 85 20 08
	00 00		 mov	 rax, QWORD PTR this$[rbp]
  00048	48 8b 50 68	 mov	 rdx, QWORD PTR [rax+104]
  0004c	48 8b 85 20 08
	00 00		 mov	 rax, QWORD PTR this$[rbp]
  00053	48 8b 48 60	 mov	 rcx, QWORD PTR [rax+96]
  00057	ff 15 00 00 00
	00		 call	 QWORD PTR __imp_?Create@CTransform@Engine@@SAPEAV12@PEAUID3D11Device@@PEAUID3D11DeviceContext@@@Z
  0005d	48 8b 8d 20 08
	00 00		 mov	 rcx, QWORD PTR this$[rbp]
  00064	48 89 41 78	 mov	 QWORD PTR [rcx+120], rax

; 35   : 	if (nullptr == m_pTransform)

  00068	48 8b 85 20 08
	00 00		 mov	 rax, QWORD PTR this$[rbp]
  0006f	48 83 78 78 00	 cmp	 QWORD PTR [rax+120], 0
  00074	75 0a		 jne	 SHORT $LN2@Initialize

; 36   : 		return E_FAIL;

  00076	b8 05 40 00 80	 mov	 eax, -2147467259	; ffffffff80004005H
  0007b	e9 d1 06 00 00	 jmp	 $LN1@Initialize
$LN2@Initialize:

; 37   : 	
; 38   : 	assert(pArg);

  00080	48 83 bd 28 08
	00 00 00	 cmp	 QWORD PTR pArg$[rbp], 0
  00088	75 22		 jne	 SHORT $LN10@Initialize
  0008a	8b 05 00 00 00
	00		 mov	 eax, DWORD PTR ?__LINE__Var@?0??Initialize@CPlayerCamera@Client@@UEAAJPEAX@Z@4JA
  00090	83 c0 05	 add	 eax, 5
  00093	44 8b c0	 mov	 r8d, eax
  00096	48 8d 15 00 00
	00 00		 lea	 rdx, OFFSET FLAT:??_C@_1JE@LOBGNKN@?$AAc?$AA?3?$AA?2?$AAu?$AAs?$AAe?$AAr?$AAs?$AA?2?$AAa?$AAr?$AAc?$AAc?$AAo?$AA?2?$AAd?$AAo?$AAc?$AAu?$AAm?$AAe?$AAn?$AAt?$AAs?$AA?2?$AAg?$AAi?$AAt?$AAh?$AAu?$AAb?$AA?2@
  0009d	48 8d 0d 00 00
	00 00		 lea	 rcx, OFFSET FLAT:??_C@_19OPBALDBC@?$AAp?$AAA?$AAr?$AAg?$AA?$AA@
  000a4	ff 15 00 00 00
	00		 call	 QWORD PTR __imp__wassert
  000aa	33 c0		 xor	 eax, eax
$LN10@Initialize:

; 39   : 	m_pTarget = (CGameObject*)pArg;

  000ac	48 8b 85 20 08
	00 00		 mov	 rax, QWORD PTR this$[rbp]
  000b3	48 8b 8d 28 08
	00 00		 mov	 rcx, QWORD PTR pArg$[rbp]
  000ba	48 89 88 20 01
	00 00		 mov	 QWORD PTR [rax+288], rcx

; 40   : 
; 41   : 	m_pTargetTransform = static_cast<CTransform*>(m_pTarget->Find_Component(L"com_transform"));

  000c1	48 8d 15 00 00
	00 00		 lea	 rdx, OFFSET FLAT:??_C@_1BM@CJMPMHDD@?$AAc?$AAo?$AAm?$AA_?$AAt?$AAr?$AAa?$AAn?$AAs?$AAf?$AAo?$AAr?$AAm?$AA?$AA@
  000c8	48 8b 85 20 08
	00 00		 mov	 rax, QWORD PTR this$[rbp]
  000cf	48 8b 88 20 01
	00 00		 mov	 rcx, QWORD PTR [rax+288]
  000d6	ff 15 00 00 00
	00		 call	 QWORD PTR __imp_?Find_Component@CGameObject@Engine@@QEAAPEAVCComponent@2@PEB_W@Z
  000dc	48 8b 8d 20 08
	00 00		 mov	 rcx, QWORD PTR this$[rbp]
  000e3	48 89 81 28 01
	00 00		 mov	 QWORD PTR [rcx+296], rax

; 42   : 	m_pSocketTransform = static_cast<CTransform*>(m_pTarget->Find_Component(L"com_camera_socket_transform"));

  000ea	48 8d 15 00 00
	00 00		 lea	 rdx, OFFSET FLAT:??_C@_1DI@OLGFHDLM@?$AAc?$AAo?$AAm?$AA_?$AAc?$AAa?$AAm?$AAe?$AAr?$AAa?$AA_?$AAs?$AAo?$AAc?$AAk?$AAe?$AAt?$AA_?$AAt?$AAr?$AAa?$AAn?$AAs?$AAf?$AAo?$AAr?$AAm?$AA?$AA@
  000f1	48 8b 85 20 08
	00 00		 mov	 rax, QWORD PTR this$[rbp]
  000f8	48 8b 88 20 01
	00 00		 mov	 rcx, QWORD PTR [rax+288]
  000ff	ff 15 00 00 00
	00		 call	 QWORD PTR __imp_?Find_Component@CGameObject@Engine@@QEAAPEAVCComponent@2@PEB_W@Z
  00105	48 8b 8d 20 08
	00 00		 mov	 rcx, QWORD PTR this$[rbp]
  0010c	48 89 81 30 01
	00 00		 mov	 QWORD PTR [rcx+304], rax

; 43   : 
; 44   : 	m_CameraDesc.fFovy = XMConvertToRadians(45.f);

  00113	f3 0f 10 05 00
	00 00 00	 movss	 xmm0, DWORD PTR __real@42340000
  0011b	e8 00 00 00 00	 call	 ?XMConvertToRadians@DirectX@@YAMM@Z ; DirectX::XMConvertToRadians
  00120	48 8b 85 20 08
	00 00		 mov	 rax, QWORD PTR this$[rbp]
  00127	f3 0f 11 80 b4
	00 00 00	 movss	 DWORD PTR [rax+180], xmm0

; 45   : 	m_CameraDesc.fAspect = g_iWinSizeX / (_float)g_iWinSizeY;

  0012f	f3 0f 10 05 00
	00 00 00	 movss	 xmm0, DWORD PTR __real@44a00000
  00137	f3 0f 5e 05 00
	00 00 00	 divss	 xmm0, DWORD PTR __real@44340000
  0013f	48 8b 85 20 08
	00 00		 mov	 rax, QWORD PTR this$[rbp]
  00146	f3 0f 11 80 b8
	00 00 00	 movss	 DWORD PTR [rax+184], xmm0

; 46   : 	m_CameraDesc.fNear = 0.1f;

  0014e	48 8b 85 20 08
	00 00		 mov	 rax, QWORD PTR this$[rbp]
  00155	f3 0f 10 05 00
	00 00 00	 movss	 xmm0, DWORD PTR __real@3dcccccd
  0015d	f3 0f 11 80 bc
	00 00 00	 movss	 DWORD PTR [rax+188], xmm0

; 47   : 	m_CameraDesc.fFar = 1500.f;

  00165	48 8b 85 20 08
	00 00		 mov	 rax, QWORD PTR this$[rbp]
  0016c	f3 0f 10 05 00
	00 00 00	 movss	 xmm0, DWORD PTR __real@44bb8000
  00174	f3 0f 11 80 c0
	00 00 00	 movss	 DWORD PTR [rax+192], xmm0

; 48   : 
; 49   : 	m_pTransform->Set_State(CTransform::STATE_POSITION, m_pTargetTransform->Get_State(CTransform::STATE_POSITION));

  0017c	41 b8 03 00 00
	00		 mov	 r8d, 3
  00182	48 8d 95 a0 02
	00 00		 lea	 rdx, QWORD PTR $T4[rbp]
  00189	48 8b 85 20 08
	00 00		 mov	 rax, QWORD PTR this$[rbp]
  00190	48 8b 88 28 01
	00 00		 mov	 rcx, QWORD PTR [rax+296]
  00197	ff 15 00 00 00
	00		 call	 QWORD PTR __imp_?Get_State@CTransform@Engine@@QEAA?AT__m128@@W4STATE@12@@Z
  0019d	0f 10 00	 movups	 xmm0, XMMWORD PTR [rax]
  001a0	0f 11 85 a0 05
	00 00		 movups	 XMMWORD PTR $T16[rbp], xmm0
  001a7	4c 8d 85 a0 05
	00 00		 lea	 r8, QWORD PTR $T16[rbp]
  001ae	ba 03 00 00 00	 mov	 edx, 3
  001b3	48 8b 85 20 08
	00 00		 mov	 rax, QWORD PTR this$[rbp]
  001ba	48 8b 48 78	 mov	 rcx, QWORD PTR [rax+120]
  001be	ff 15 00 00 00
	00		 call	 QWORD PTR __imp_?Set_State@CTransform@Engine@@QEAAXW4STATE@12@T__m128@@@Z

; 50   : 	XMStoreFloat4(&vLookTarget, m_pTransform->Get_State(CTransform::STATE_POSITION));

  001c4	41 b8 03 00 00
	00		 mov	 r8d, 3
  001ca	48 8d 95 d0 02
	00 00		 lea	 rdx, QWORD PTR $T5[rbp]
  001d1	48 8b 85 20 08
	00 00		 mov	 rax, QWORD PTR this$[rbp]
  001d8	48 8b 48 78	 mov	 rcx, QWORD PTR [rax+120]
  001dc	ff 15 00 00 00
	00		 call	 QWORD PTR __imp_?Get_State@CTransform@Engine@@QEAA?AT__m128@@W4STATE@12@@Z
  001e2	48 8b 8d 20 08
	00 00		 mov	 rcx, QWORD PTR this$[rbp]
  001e9	48 81 c1 90 01
	00 00		 add	 rcx, 400		; 00000190H
  001f0	0f 10 08	 movups	 xmm1, XMMWORD PTR [rax]
  001f3	e8 00 00 00 00	 call	 ?XMStoreFloat4@DirectX@@YQXPEAUXMFLOAT4@1@T__m128@@@Z ; DirectX::XMStoreFloat4

; 51   : 	
; 52   : 	CApplicationManager::GetInstance()->SetWinMotion(false);

  001f8	e8 00 00 00 00	 call	 ?GetInstance@CApplicationManager@Client@@SAPEAV12@XZ ; Client::CApplicationManager::GetInstance
  001fd	33 d2		 xor	 edx, edx
  001ff	48 8b c8	 mov	 rcx, rax
  00202	e8 00 00 00 00	 call	 ?SetWinMotion@CApplicationManager@Client@@QEAAX_N@Z ; Client::CApplicationManager::SetWinMotion

; 53   : 	if (CApplicationManager::GetInstance()->IsLevelFinish(CApplicationManager::LEVEL::GAMEPLAY))

  00207	e8 00 00 00 00	 call	 ?GetInstance@CApplicationManager@Client@@SAPEAV12@XZ ; Client::CApplicationManager::GetInstance
  0020c	33 d2		 xor	 edx, edx
  0020e	48 8b c8	 mov	 rcx, rax
  00211	e8 00 00 00 00	 call	 ?IsLevelFinish@CApplicationManager@Client@@QEAA_NW4LEVEL@12@@Z ; Client::CApplicationManager::IsLevelFinish
  00216	0f b6 c0	 movzx	 eax, al
  00219	85 c0		 test	 eax, eax
  0021b	0f 84 8b 00 00
	00		 je	 $LN3@Initialize

; 54   : 	{
; 55   : 		m_pTransform->Set_State(CTransform::STATE_POSITION, XMVectorSet(0.f, 0.f, 0.f, 1.f));

  00221	f3 0f 10 1d 00
	00 00 00	 movss	 xmm3, DWORD PTR __real@3f800000
  00229	0f 57 d2	 xorps	 xmm2, xmm2
  0022c	0f 57 c9	 xorps	 xmm1, xmm1
  0022f	0f 57 c0	 xorps	 xmm0, xmm0
  00232	e8 00 00 00 00	 call	 ?XMVectorSet@DirectX@@YQ?AT__m128@@MMMM@Z ; DirectX::XMVectorSet
  00237	0f 29 85 00 03
	00 00		 movaps	 XMMWORD PTR $T6[rbp], xmm0
  0023e	0f 28 85 00 03
	00 00		 movaps	 xmm0, XMMWORD PTR $T6[rbp]
  00245	0f 29 85 d0 05
	00 00		 movaps	 XMMWORD PTR $T17[rbp], xmm0
  0024c	4c 8d 85 d0 05
	00 00		 lea	 r8, QWORD PTR $T17[rbp]
  00253	ba 03 00 00 00	 mov	 edx, 3
  00258	48 8b 85 20 08
	00 00		 mov	 rax, QWORD PTR this$[rbp]
  0025f	48 8b 48 78	 mov	 rcx, QWORD PTR [rax+120]
  00263	ff 15 00 00 00
	00		 call	 QWORD PTR __imp_?Set_State@CTransform@Engine@@QEAAXW4STATE@12@T__m128@@@Z

; 56   : 		m_pTransform->LookAt(m_pTargetTransform->Get_State(CTransform::STATE_POSITION));

  00269	41 b8 03 00 00
	00		 mov	 r8d, 3
  0026f	48 8d 95 30 03
	00 00		 lea	 rdx, QWORD PTR $T7[rbp]
  00276	48 8b 85 20 08
	00 00		 mov	 rax, QWORD PTR this$[rbp]
  0027d	48 8b 88 28 01
	00 00		 mov	 rcx, QWORD PTR [rax+296]
  00284	ff 15 00 00 00
	00		 call	 QWORD PTR __imp_?Get_State@CTransform@Engine@@QEAA?AT__m128@@W4STATE@12@@Z
  0028a	0f 10 00	 movups	 xmm0, XMMWORD PTR [rax]
  0028d	0f 11 85 00 06
	00 00		 movups	 XMMWORD PTR $T18[rbp], xmm0
  00294	48 8d 95 00 06
	00 00		 lea	 rdx, QWORD PTR $T18[rbp]
  0029b	48 8b 85 20 08
	00 00		 mov	 rax, QWORD PTR this$[rbp]
  002a2	48 8b 48 78	 mov	 rcx, QWORD PTR [rax+120]
  002a6	ff 15 00 00 00
	00		 call	 QWORD PTR __imp_?LookAt@CTransform@Engine@@QEAAXT__m128@@@Z
$LN3@Initialize:

; 57   : 	}
; 58   : 	else
; 59   : 	{
; 60   : 		//m_pTransform->Set_State(CTransform::STATE_POSITION, XMVectorSet(0.f, 0.f, 0.f, 1.f));
; 61   : 		//m_pTransform->LookAt(m_pTargetTransform->Get_State(CTransform::STATE_POSITION));
; 62   : 	}
; 63   : 
; 64   : 	CCollider::COLLIDER_DESC collDesc;

  002ac	48 8d 4d 08	 lea	 rcx, QWORD PTR collDesc$[rbp]
  002b0	e8 00 00 00 00	 call	 ??0tagColliderDesc@CCollider@Engine@@QEAA@XZ

; 65   : 	collDesc.owner = this;

  002b5	48 8b 85 20 08
	00 00		 mov	 rax, QWORD PTR this$[rbp]
  002bc	48 89 45 08	 mov	 QWORD PTR collDesc$[rbp], rax

; 66   : 	collDesc.vCenter = _float3(0.f, 0.f, 0.f);

  002c0	0f 57 db	 xorps	 xmm3, xmm3
  002c3	0f 57 d2	 xorps	 xmm2, xmm2
  002c6	0f 57 c9	 xorps	 xmm1, xmm1
  002c9	48 8d 8d 54 03
	00 00		 lea	 rcx, QWORD PTR $T8[rbp]
  002d0	e8 00 00 00 00	 call	 ??0XMFLOAT3@DirectX@@QEAA@MMM@Z ; DirectX::XMFLOAT3::XMFLOAT3
  002d5	48 8b d0	 mov	 rdx, rax
  002d8	48 8d 4d 10	 lea	 rcx, QWORD PTR collDesc$[rbp+8]
  002dc	e8 00 00 00 00	 call	 ??4XMFLOAT3@DirectX@@QEAAAEAU01@AEBU01@@Z ; DirectX::XMFLOAT3::operator=

; 67   : 	collDesc.vExtents = _float3(2.5f, 3.f, 7.5f);

  002e1	f3 0f 10 1d 00
	00 00 00	 movss	 xmm3, DWORD PTR __real@40f00000
  002e9	f3 0f 10 15 00
	00 00 00	 movss	 xmm2, DWORD PTR __real@40400000
  002f1	f3 0f 10 0d 00
	00 00 00	 movss	 xmm1, DWORD PTR __real@40200000
  002f9	48 8d 8d 74 03
	00 00		 lea	 rcx, QWORD PTR $T9[rbp]
  00300	e8 00 00 00 00	 call	 ??0XMFLOAT3@DirectX@@QEAA@MMM@Z ; DirectX::XMFLOAT3::XMFLOAT3
  00305	48 8b d0	 mov	 rdx, rax
  00308	48 8d 4d 1c	 lea	 rcx, QWORD PTR collDesc$[rbp+20]
  0030c	e8 00 00 00 00	 call	 ??4XMFLOAT3@DirectX@@QEAAAEAU01@AEBU01@@Z ; DirectX::XMFLOAT3::operator=

; 68   : 	collDesc.vRotation = _float3(0.f, 0.f, 0.f);

  00311	0f 57 db	 xorps	 xmm3, xmm3
  00314	0f 57 d2	 xorps	 xmm2, xmm2
  00317	0f 57 c9	 xorps	 xmm1, xmm1
  0031a	48 8d 8d 94 03
	00 00		 lea	 rcx, QWORD PTR $T10[rbp]
  00321	e8 00 00 00 00	 call	 ??0XMFLOAT3@DirectX@@QEAA@MMM@Z ; DirectX::XMFLOAT3::XMFLOAT3
  00326	48 8b d0	 mov	 rdx, rax
  00329	48 8d 4d 28	 lea	 rcx, QWORD PTR collDesc$[rbp+32]
  0032d	e8 00 00 00 00	 call	 ??4XMFLOAT3@DirectX@@QEAAAEAU01@AEBU01@@Z ; DirectX::XMFLOAT3::operator=

; 69   : 
; 70   : 	(CGameObject::Add_Component(LEVEL_GAMEPLAY, TEXT("proto_com_obb_collider"), TEXT("com_collider"), (CComponent**)&m_pCollider, &collDesc));

  00332	48 8b 85 20 08
	00 00		 mov	 rax, QWORD PTR this$[rbp]
  00339	48 05 38 01 00
	00		 add	 rax, 312		; 00000138H
  0033f	48 8d 4d 08	 lea	 rcx, QWORD PTR collDesc$[rbp]
  00343	48 89 4c 24 28	 mov	 QWORD PTR [rsp+40], rcx
  00348	48 89 44 24 20	 mov	 QWORD PTR [rsp+32], rax
  0034d	4c 8d 0d 00 00
	00 00		 lea	 r9, OFFSET FLAT:??_C@_1BK@BKCENIHA@?$AAc?$AAo?$AAm?$AA_?$AAc?$AAo?$AAl?$AAl?$AAi?$AAd?$AAe?$AAr?$AA?$AA@
  00354	4c 8d 05 00 00
	00 00		 lea	 r8, OFFSET FLAT:??_C@_1CO@HJBGOIAH@?$AAp?$AAr?$AAo?$AAt?$AAo?$AA_?$AAc?$AAo?$AAm?$AA_?$AAo?$AAb?$AAb?$AA_?$AAc?$AAo?$AAl?$AAl?$AAi?$AAd?$AAe?$AAr?$AA?$AA@
  0035b	ba 03 00 00 00	 mov	 edx, 3
  00360	48 8b 8d 20 08
	00 00		 mov	 rcx, QWORD PTR this$[rbp]
  00367	ff 15 00 00 00
	00		 call	 QWORD PTR __imp_?Add_Component@CGameObject@Engine@@IEAAJIPEB_W0PEAPEAVCComponent@2@PEAX@Z

; 71   : 
; 72   : 	//Fade in out
; 73   : 	if (FAILED(__super::Add_Component(LEVEL_STATIC, TEXT("proto_com_renderer"),

  0036d	48 8b 85 20 08
	00 00		 mov	 rax, QWORD PTR this$[rbp]
  00374	48 05 a8 02 00
	00		 add	 rax, 680		; 000002a8H
  0037a	48 c7 44 24 28
	00 00 00 00	 mov	 QWORD PTR [rsp+40], 0
  00383	48 89 44 24 20	 mov	 QWORD PTR [rsp+32], rax
  00388	4c 8d 0d 00 00
	00 00		 lea	 r9, OFFSET FLAT:??_C@_1BK@GIOMOCNE@?$AAc?$AAo?$AAm?$AA_?$AAr?$AAe?$AAn?$AAd?$AAe?$AAr?$AAe?$AAr?$AA?$AA@
  0038f	4c 8d 05 00 00
	00 00		 lea	 r8, OFFSET FLAT:??_C@_1CG@COFFFCLL@?$AAp?$AAr?$AAo?$AAt?$AAo?$AA_?$AAc?$AAo?$AAm?$AA_?$AAr?$AAe?$AAn?$AAd?$AAe?$AAr?$AAe?$AAr?$AA?$AA@
  00396	33 d2		 xor	 edx, edx
  00398	48 8b 8d 20 08
	00 00		 mov	 rcx, QWORD PTR this$[rbp]
  0039f	ff 15 00 00 00
	00		 call	 QWORD PTR __imp_?Add_Component@CGameObject@Engine@@IEAAJIPEB_W0PEAPEAVCComponent@2@PEAX@Z
  003a5	85 c0		 test	 eax, eax
  003a7	7d 0a		 jge	 SHORT $LN5@Initialize

; 74   : 		TEXT("com_renderer"), (CComponent**)&m_pRenderer)))
; 75   : 		return E_FAIL;

  003a9	b8 05 40 00 80	 mov	 eax, -2147467259	; ffffffff80004005H
  003ae	e9 9e 03 00 00	 jmp	 $LN1@Initialize
$LN5@Initialize:

; 76   : 	if (FAILED(__super::Add_Component(LEVEL_STATIC, TEXT("proto_com_vibuffer_rect"),

  003b3	48 8b 85 20 08
	00 00		 mov	 rax, QWORD PTR this$[rbp]
  003ba	48 05 b8 02 00
	00		 add	 rax, 696		; 000002b8H
  003c0	48 c7 44 24 28
	00 00 00 00	 mov	 QWORD PTR [rsp+40], 0
  003c9	48 89 44 24 20	 mov	 QWORD PTR [rsp+32], rax
  003ce	4c 8d 0d 00 00
	00 00		 lea	 r9, OFFSET FLAT:??_C@_1BG@KPBPOMBH@?$AAc?$AAo?$AAm?$AA_?$AAb?$AAu?$AAf?$AAf?$AAe?$AAr?$AA?$AA@
  003d5	4c 8d 05 00 00
	00 00		 lea	 r8, OFFSET FLAT:??_C@_1DA@BAIPNHMH@?$AAp?$AAr?$AAo?$AAt?$AAo?$AA_?$AAc?$AAo?$AAm?$AA_?$AAv?$AAi?$AAb?$AAu?$AAf?$AAf?$AAe?$AAr?$AA_?$AAr?$AAe?$AAc?$AAt?$AA?$AA@
  003dc	33 d2		 xor	 edx, edx
  003de	48 8b 8d 20 08
	00 00		 mov	 rcx, QWORD PTR this$[rbp]
  003e5	ff 15 00 00 00
	00		 call	 QWORD PTR __imp_?Add_Component@CGameObject@Engine@@IEAAJIPEB_W0PEAPEAVCComponent@2@PEAX@Z
  003eb	85 c0		 test	 eax, eax
  003ed	7d 0a		 jge	 SHORT $LN6@Initialize

; 77   : 		TEXT("com_buffer"), (CComponent**)&m_pVIBuffer)))
; 78   : 		return E_FAIL;

  003ef	b8 05 40 00 80	 mov	 eax, -2147467259	; ffffffff80004005H
  003f4	e9 58 03 00 00	 jmp	 $LN1@Initialize
$LN6@Initialize:

; 79   : 	if (FAILED(__super::Add_Component(LEVEL_STATIC, TEXT("proto_com_texture_black"),

  003f9	48 8b 85 20 08
	00 00		 mov	 rax, QWORD PTR this$[rbp]
  00400	48 05 c0 02 00
	00		 add	 rax, 704		; 000002c0H
  00406	48 c7 44 24 28
	00 00 00 00	 mov	 QWORD PTR [rsp+40], 0
  0040f	48 89 44 24 20	 mov	 QWORD PTR [rsp+32], rax
  00414	4c 8d 0d 00 00
	00 00		 lea	 r9, OFFSET FLAT:??_C@_1BI@MJAKLHOB@?$AAc?$AAo?$AAm?$AA_?$AAt?$AAe?$AAx?$AAt?$AAu?$AAr?$AAe?$AA?$AA@
  0041b	4c 8d 05 00 00
	00 00		 lea	 r8, OFFSET FLAT:??_C@_1DA@CAAHNHCD@?$AAp?$AAr?$AAo?$AAt?$AAo?$AA_?$AAc?$AAo?$AAm?$AA_?$AAt?$AAe?$AAx?$AAt?$AAu?$AAr?$AAe?$AA_?$AAb?$AAl?$AAa?$AAc?$AAk?$AA?$AA@
  00422	33 d2		 xor	 edx, edx
  00424	48 8b 8d 20 08
	00 00		 mov	 rcx, QWORD PTR this$[rbp]
  0042b	ff 15 00 00 00
	00		 call	 QWORD PTR __imp_?Add_Component@CGameObject@Engine@@IEAAJIPEB_W0PEAPEAVCComponent@2@PEAX@Z
  00431	85 c0		 test	 eax, eax
  00433	7d 0a		 jge	 SHORT $LN7@Initialize

; 80   : 		TEXT("com_texture"), (CComponent**)&m_pTexture)))
; 81   : 		return E_FAIL;

  00435	b8 05 40 00 80	 mov	 eax, -2147467259	; ffffffff80004005H
  0043a	e9 12 03 00 00	 jmp	 $LN1@Initialize
$LN7@Initialize:

; 82   : 	if (FAILED(__super::Add_Component(LEVEL_STATIC, TEXT("proto_com_shader_ui"),

  0043f	48 8b 85 20 08
	00 00		 mov	 rax, QWORD PTR this$[rbp]
  00446	48 05 b0 02 00
	00		 add	 rax, 688		; 000002b0H
  0044c	48 c7 44 24 28
	00 00 00 00	 mov	 QWORD PTR [rsp+40], 0
  00455	48 89 44 24 20	 mov	 QWORD PTR [rsp+32], rax
  0045a	4c 8d 0d 00 00
	00 00		 lea	 r9, OFFSET FLAT:??_C@_1BG@GGOMMBBL@?$AAc?$AAo?$AAm?$AA_?$AAs?$AAh?$AAa?$AAd?$AAe?$AAr?$AA?$AA@
  00461	4c 8d 05 00 00
	00 00		 lea	 r8, OFFSET FLAT:??_C@_1CI@NFFEDNON@?$AAp?$AAr?$AAo?$AAt?$AAo?$AA_?$AAc?$AAo?$AAm?$AA_?$AAs?$AAh?$AAa?$AAd?$AAe?$AAr?$AA_?$AAu?$AAi?$AA?$AA@
  00468	33 d2		 xor	 edx, edx
  0046a	48 8b 8d 20 08
	00 00		 mov	 rcx, QWORD PTR this$[rbp]
  00471	ff 15 00 00 00
	00		 call	 QWORD PTR __imp_?Add_Component@CGameObject@Engine@@IEAAJIPEB_W0PEAPEAVCComponent@2@PEAX@Z
  00477	85 c0		 test	 eax, eax
  00479	7d 0a		 jge	 SHORT $LN8@Initialize

; 83   : 		TEXT("com_shader"), (CComponent**)&m_pShader)))
; 84   : 		return E_FAIL;

  0047b	b8 05 40 00 80	 mov	 eax, -2147467259	; ffffffff80004005H
  00480	e9 cc 02 00 00	 jmp	 $LN1@Initialize
$LN8@Initialize:

; 85   : 
; 86   : 	m_fWidth = g_iWinSizeX;

  00485	48 8b 85 20 08
	00 00		 mov	 rax, QWORD PTR this$[rbp]
  0048c	f3 0f 10 05 00
	00 00 00	 movss	 xmm0, DWORD PTR __real@44a00000
  00494	f3 0f 11 80 e0
	01 00 00	 movss	 DWORD PTR [rax+480], xmm0

; 87   : 	m_fHeight = g_iWinSizeY;

  0049c	48 8b 85 20 08
	00 00		 mov	 rax, QWORD PTR this$[rbp]
  004a3	f3 0f 10 05 00
	00 00 00	 movss	 xmm0, DWORD PTR __real@44340000
  004ab	f3 0f 11 80 e4
	01 00 00	 movss	 DWORD PTR [rax+484], xmm0

; 88   : 	m_fX = g_iWinSizeX >> 1;

  004b3	48 8b 85 20 08
	00 00		 mov	 rax, QWORD PTR this$[rbp]
  004ba	f3 0f 10 05 00
	00 00 00	 movss	 xmm0, DWORD PTR __real@44200000
  004c2	f3 0f 11 80 d8
	01 00 00	 movss	 DWORD PTR [rax+472], xmm0

; 89   : 	m_fY = g_iWinSizeY >> 1;

  004ca	48 8b 85 20 08
	00 00		 mov	 rax, QWORD PTR this$[rbp]
  004d1	f3 0f 10 05 00
	00 00 00	 movss	 xmm0, DWORD PTR __real@43b40000
  004d9	f3 0f 11 80 dc
	01 00 00	 movss	 DWORD PTR [rax+476], xmm0

; 90   : 
; 91   : 	XMStoreFloat4x4(&m_WorldMatrix, XMMatrixScaling(m_fWidth, m_fHeight, 1.f) * XMMatrixTranslation(m_fX - g_iWinSizeX * 0.5f, -m_fY + g_iWinSizeY * 0.5f, 0.f));

  004e1	48 8b 85 20 08
	00 00		 mov	 rax, QWORD PTR this$[rbp]
  004e8	f3 0f 10 80 dc
	01 00 00	 movss	 xmm0, DWORD PTR [rax+476]
  004f0	0f 57 05 00 00
	00 00		 xorps	 xmm0, DWORD PTR __xmm@80000000800000008000000080000000
  004f7	f3 0f 58 05 00
	00 00 00	 addss	 xmm0, DWORD PTR __real@43b40000
  004ff	48 8b 85 20 08
	00 00		 mov	 rax, QWORD PTR this$[rbp]
  00506	f3 0f 10 88 d8
	01 00 00	 movss	 xmm1, DWORD PTR [rax+472]
  0050e	f3 0f 5c 0d 00
	00 00 00	 subss	 xmm1, DWORD PTR __real@44200000
  00516	f3 0f 11 8d f4
	07 00 00	 movss	 DWORD PTR tv339[rbp], xmm1
  0051e	0f 57 d2	 xorps	 xmm2, xmm2
  00521	0f 28 c8	 movaps	 xmm1, xmm0
  00524	f3 0f 10 85 f4
	07 00 00	 movss	 xmm0, DWORD PTR tv339[rbp]
  0052c	e8 00 00 00 00	 call	 ?XMMatrixTranslation@DirectX@@YQ?AUXMMATRIX@1@MMM@Z ; DirectX::XMMatrixTranslation
  00531	0f 29 9d 20 07
	00 00		 movaps	 XMMWORD PTR $T21[rbp+48], xmm3
  00538	0f 29 95 10 07
	00 00		 movaps	 XMMWORD PTR $T21[rbp+32], xmm2
  0053f	0f 29 8d 00 07
	00 00		 movaps	 XMMWORD PTR $T21[rbp+16], xmm1
  00546	0f 29 85 f0 06
	00 00		 movaps	 XMMWORD PTR $T21[rbp], xmm0
  0054d	48 8d 85 80 04
	00 00		 lea	 rax, QWORD PTR $T13[rbp]
  00554	48 8d 8d f0 06
	00 00		 lea	 rcx, QWORD PTR $T21[rbp]
  0055b	48 8b f8	 mov	 rdi, rax
  0055e	48 8b f1	 mov	 rsi, rcx
  00561	b9 40 00 00 00	 mov	 ecx, 64			; 00000040H
  00566	f3 a4		 rep movsb
  00568	f3 0f 10 15 00
	00 00 00	 movss	 xmm2, DWORD PTR __real@3f800000
  00570	48 8b 85 20 08
	00 00		 mov	 rax, QWORD PTR this$[rbp]
  00577	f3 0f 10 88 e4
	01 00 00	 movss	 xmm1, DWORD PTR [rax+484]
  0057f	48 8b 85 20 08
	00 00		 mov	 rax, QWORD PTR this$[rbp]
  00586	f3 0f 10 80 e0
	01 00 00	 movss	 xmm0, DWORD PTR [rax+480]
  0058e	e8 00 00 00 00	 call	 ?XMMatrixScaling@DirectX@@YQ?AUXMMATRIX@1@MMM@Z ; DirectX::XMMatrixScaling
  00593	0f 29 9d 60 06
	00 00		 movaps	 XMMWORD PTR $T19[rbp+48], xmm3
  0059a	0f 29 95 50 06
	00 00		 movaps	 XMMWORD PTR $T19[rbp+32], xmm2
  005a1	0f 29 8d 40 06
	00 00		 movaps	 XMMWORD PTR $T19[rbp+16], xmm1
  005a8	0f 29 85 30 06
	00 00		 movaps	 XMMWORD PTR $T19[rbp], xmm0
  005af	48 8d 85 20 04
	00 00		 lea	 rax, QWORD PTR $T12[rbp]
  005b6	48 8d 8d 30 06
	00 00		 lea	 rcx, QWORD PTR $T19[rbp]
  005bd	48 8b f8	 mov	 rdi, rax
  005c0	48 8b f1	 mov	 rsi, rcx
  005c3	b9 40 00 00 00	 mov	 ecx, 64			; 00000040H
  005c8	f3 a4		 rep movsb
  005ca	0f 28 85 80 04
	00 00		 movaps	 xmm0, XMMWORD PTR $T13[rbp]
  005d1	0f 28 8d 90 04
	00 00		 movaps	 xmm1, XMMWORD PTR $T13[rbp+16]
  005d8	0f 28 95 a0 04
	00 00		 movaps	 xmm2, XMMWORD PTR $T13[rbp+32]
  005df	0f 28 9d b0 04
	00 00		 movaps	 xmm3, XMMWORD PTR $T13[rbp+48]
  005e6	48 8d 8d 20 04
	00 00		 lea	 rcx, QWORD PTR $T12[rbp]
  005ed	e8 00 00 00 00	 call	 ??DXMMATRIX@DirectX@@QEBQ?AU01@U01@@Z ; DirectX::XMMATRIX::operator*
  005f2	0f 29 9d c0 06
	00 00		 movaps	 XMMWORD PTR $T20[rbp+48], xmm3
  005f9	0f 29 95 b0 06
	00 00		 movaps	 XMMWORD PTR $T20[rbp+32], xmm2
  00600	0f 29 8d a0 06
	00 00		 movaps	 XMMWORD PTR $T20[rbp+16], xmm1
  00607	0f 29 85 90 06
	00 00		 movaps	 XMMWORD PTR $T20[rbp], xmm0
  0060e	48 8d 85 c0 03
	00 00		 lea	 rax, QWORD PTR $T11[rbp]
  00615	48 8d 8d 90 06
	00 00		 lea	 rcx, QWORD PTR $T20[rbp]
  0061c	48 8b f8	 mov	 rdi, rax
  0061f	48 8b f1	 mov	 rsi, rcx
  00622	b9 40 00 00 00	 mov	 ecx, 64			; 00000040H
  00627	f3 a4		 rep movsb
  00629	48 8b 85 20 08
	00 00		 mov	 rax, QWORD PTR this$[rbp]
  00630	48 05 e8 01 00
	00		 add	 rax, 488		; 000001e8H
  00636	0f 28 85 c0 03
	00 00		 movaps	 xmm0, XMMWORD PTR $T11[rbp]
  0063d	0f 28 8d d0 03
	00 00		 movaps	 xmm1, XMMWORD PTR $T11[rbp+16]
  00644	0f 28 95 e0 03
	00 00		 movaps	 xmm2, XMMWORD PTR $T11[rbp+32]
  0064b	0f 28 9d f0 03
	00 00		 movaps	 xmm3, XMMWORD PTR $T11[rbp+48]
  00652	48 8b c8	 mov	 rcx, rax
  00655	e8 00 00 00 00	 call	 ?XMStoreFloat4x4@DirectX@@YQXPEAUXMFLOAT4X4@1@UXMMATRIX@1@@Z ; DirectX::XMStoreFloat4x4

; 92   : 	XMStoreFloat4x4(&m_ViewMatrix, XMMatrixIdentity());

  0065a	e8 00 00 00 00	 call	 ?XMMatrixIdentity@DirectX@@YQ?AUXMMATRIX@1@XZ ; DirectX::XMMatrixIdentity
  0065f	0f 29 9d 80 07
	00 00		 movaps	 XMMWORD PTR $T22[rbp+48], xmm3
  00666	0f 29 95 70 07
	00 00		 movaps	 XMMWORD PTR $T22[rbp+32], xmm2
  0066d	0f 29 8d 60 07
	00 00		 movaps	 XMMWORD PTR $T22[rbp+16], xmm1
  00674	0f 29 85 50 07
	00 00		 movaps	 XMMWORD PTR $T22[rbp], xmm0
  0067b	48 8d 85 e0 04
	00 00		 lea	 rax, QWORD PTR $T14[rbp]
  00682	48 8d 8d 50 07
	00 00		 lea	 rcx, QWORD PTR $T22[rbp]
  00689	48 8b f8	 mov	 rdi, rax
  0068c	48 8b f1	 mov	 rsi, rcx
  0068f	b9 40 00 00 00	 mov	 ecx, 64			; 00000040H
  00694	f3 a4		 rep movsb
  00696	48 8b 85 20 08
	00 00		 mov	 rax, QWORD PTR this$[rbp]
  0069d	48 05 28 02 00
	00		 add	 rax, 552		; 00000228H
  006a3	0f 28 85 e0 04
	00 00		 movaps	 xmm0, XMMWORD PTR $T14[rbp]
  006aa	0f 28 8d f0 04
	00 00		 movaps	 xmm1, XMMWORD PTR $T14[rbp+16]
  006b1	0f 28 95 00 05
	00 00		 movaps	 xmm2, XMMWORD PTR $T14[rbp+32]
  006b8	0f 28 9d 10 05
	00 00		 movaps	 xmm3, XMMWORD PTR $T14[rbp+48]
  006bf	48 8b c8	 mov	 rcx, rax
  006c2	e8 00 00 00 00	 call	 ?XMStoreFloat4x4@DirectX@@YQXPEAUXMFLOAT4X4@1@UXMMATRIX@1@@Z ; DirectX::XMStoreFloat4x4

; 93   : 	XMStoreFloat4x4(&m_ProjMatrix, XMMatrixOrthographicLH((_float)g_iWinSizeX, (_float)g_iWinSizeY, 0.f, 1.f));

  006c7	f3 0f 10 1d 00
	00 00 00	 movss	 xmm3, DWORD PTR __real@3f800000
  006cf	0f 57 d2	 xorps	 xmm2, xmm2
  006d2	f3 0f 10 0d 00
	00 00 00	 movss	 xmm1, DWORD PTR __real@44340000
  006da	f3 0f 10 05 00
	00 00 00	 movss	 xmm0, DWORD PTR __real@44a00000
  006e2	e8 00 00 00 00	 call	 ?XMMatrixOrthographicLH@DirectX@@YQ?AUXMMATRIX@1@MMMM@Z ; DirectX::XMMatrixOrthographicLH
  006e7	0f 29 9d e0 07
	00 00		 movaps	 XMMWORD PTR $T23[rbp+48], xmm3
  006ee	0f 29 95 d0 07
	00 00		 movaps	 XMMWORD PTR $T23[rbp+32], xmm2
  006f5	0f 29 8d c0 07
	00 00		 movaps	 XMMWORD PTR $T23[rbp+16], xmm1
  006fc	0f 29 85 b0 07
	00 00		 movaps	 XMMWORD PTR $T23[rbp], xmm0
  00703	48 8d 85 40 05
	00 00		 lea	 rax, QWORD PTR $T15[rbp]
  0070a	48 8d 8d b0 07
	00 00		 lea	 rcx, QWORD PTR $T23[rbp]
  00711	48 8b f8	 mov	 rdi, rax
  00714	48 8b f1	 mov	 rsi, rcx
  00717	b9 40 00 00 00	 mov	 ecx, 64			; 00000040H
  0071c	f3 a4		 rep movsb
  0071e	48 8b 85 20 08
	00 00		 mov	 rax, QWORD PTR this$[rbp]
  00725	48 05 68 02 00
	00		 add	 rax, 616		; 00000268H
  0072b	0f 28 85 40 05
	00 00		 movaps	 xmm0, XMMWORD PTR $T15[rbp]
  00732	0f 28 8d 50 05
	00 00		 movaps	 xmm1, XMMWORD PTR $T15[rbp+16]
  00739	0f 28 95 60 05
	00 00		 movaps	 xmm2, XMMWORD PTR $T15[rbp+32]
  00740	0f 28 9d 70 05
	00 00		 movaps	 xmm3, XMMWORD PTR $T15[rbp+48]
  00747	48 8b c8	 mov	 rcx, rax
  0074a	e8 00 00 00 00	 call	 ?XMStoreFloat4x4@DirectX@@YQXPEAUXMFLOAT4X4@1@UXMMATRIX@1@@Z ; DirectX::XMStoreFloat4x4

; 94   : 
; 95   : 	return S_OK;

  0074f	33 c0		 xor	 eax, eax
$LN1@Initialize:

; 96   : }

  00751	48 8b f8	 mov	 rdi, rax
  00754	48 8d 4d d0	 lea	 rcx, QWORD PTR [rbp-48]
  00758	48 8d 15 00 00
	00 00		 lea	 rdx, OFFSET FLAT:?Initialize@CPlayerCamera@Client@@UEAAJPEAX@Z$rtcFrameData
  0075f	e8 00 00 00 00	 call	 _RTC_CheckStackVars
  00764	48 8b c7	 mov	 rax, rdi
  00767	48 8b 8d f8 07
	00 00		 mov	 rcx, QWORD PTR __$ArrayPad$[rbp]
  0076e	48 33 cd	 xor	 rcx, rbp
  00771	e8 00 00 00 00	 call	 __security_check_cookie
  00776	48 8d a5 00 08
	00 00		 lea	 rsp, QWORD PTR [rbp+2048]
  0077d	5f		 pop	 rdi
  0077e	5e		 pop	 rsi
  0077f	5d		 pop	 rbp
  00780	c3		 ret	 0
?Initialize@CPlayerCamera@Client@@UEAAJPEAX@Z ENDP	; Client::CPlayerCamera::Initialize
_TEXT	ENDS
; Function compile flags: /Odtp /RTCsu /ZI
; File c:\users\arcco\documents\github\framework\client\private\playercamera.cpp
;	COMDAT ?Initialize_Prototype@CPlayerCamera@Client@@UEAAJXZ
_TEXT	SEGMENT
this$ = 224
?Initialize_Prototype@CPlayerCamera@Client@@UEAAJXZ PROC ; Client::CPlayerCamera::Initialize_Prototype, COMDAT

; 25   : {

$LN4:
  00000	48 89 4c 24 08	 mov	 QWORD PTR [rsp+8], rcx
  00005	55		 push	 rbp
  00006	57		 push	 rdi
  00007	48 81 ec e8 00
	00 00		 sub	 rsp, 232		; 000000e8H
  0000e	48 8d 6c 24 20	 lea	 rbp, QWORD PTR [rsp+32]
  00013	48 8b fc	 mov	 rdi, rsp
  00016	b9 3a 00 00 00	 mov	 ecx, 58			; 0000003aH
  0001b	b8 cc cc cc cc	 mov	 eax, -858993460		; ccccccccH
  00020	f3 ab		 rep stosd
  00022	48 8b 8c 24 08
	01 00 00	 mov	 rcx, QWORD PTR [rsp+264]

; 26   : 	if (FAILED(__super::Initialize_Prototype()))

  0002a	48 8b 8d e0 00
	00 00		 mov	 rcx, QWORD PTR this$[rbp]
  00031	ff 15 00 00 00
	00		 call	 QWORD PTR __imp_?Initialize_Prototype@CCamera@Engine@@UEAAJXZ
  00037	85 c0		 test	 eax, eax
  00039	7d 07		 jge	 SHORT $LN2@Initialize

; 27   : 		return E_FAIL;

  0003b	b8 05 40 00 80	 mov	 eax, -2147467259	; ffffffff80004005H
  00040	eb 02		 jmp	 SHORT $LN1@Initialize
$LN2@Initialize:

; 28   : 
; 29   : 	return S_OK;

  00042	33 c0		 xor	 eax, eax
$LN1@Initialize:

; 30   : }

  00044	48 8d a5 c8 00
	00 00		 lea	 rsp, QWORD PTR [rbp+200]
  0004b	5f		 pop	 rdi
  0004c	5d		 pop	 rbp
  0004d	c3		 ret	 0
?Initialize_Prototype@CPlayerCamera@Client@@UEAAJXZ ENDP ; Client::CPlayerCamera::Initialize_Prototype
_TEXT	ENDS
; Function compile flags: /Odtp /RTCsu /ZI
; File c:\users\arcco\documents\github\framework\client\private\playercamera.cpp
;	COMDAT ??1CPlayerCamera@Client@@EEAA@XZ
_TEXT	SEGMENT
this$ = 224
??1CPlayerCamera@Client@@EEAA@XZ PROC			; Client::CPlayerCamera::~CPlayerCamera, COMDAT

; 17   : }

$LN3:
  00000	48 89 4c 24 08	 mov	 QWORD PTR [rsp+8], rcx
  00005	55		 push	 rbp
  00006	57		 push	 rdi
  00007	48 81 ec e8 00
	00 00		 sub	 rsp, 232		; 000000e8H
  0000e	48 8d 6c 24 20	 lea	 rbp, QWORD PTR [rsp+32]
  00013	48 8b fc	 mov	 rdi, rsp
  00016	b9 3a 00 00 00	 mov	 ecx, 58			; 0000003aH
  0001b	b8 cc cc cc cc	 mov	 eax, -858993460		; ccccccccH
  00020	f3 ab		 rep stosd
  00022	48 8b 8c 24 08
	01 00 00	 mov	 rcx, QWORD PTR [rsp+264]
  0002a	48 8b 8d e0 00
	00 00		 mov	 rcx, QWORD PTR this$[rbp]
  00031	ff 15 00 00 00
	00		 call	 QWORD PTR __imp_??1CCamera@Engine@@MEAA@XZ
  00037	48 8d a5 c8 00
	00 00		 lea	 rsp, QWORD PTR [rbp+200]
  0003e	5f		 pop	 rdi
  0003f	5d		 pop	 rbp
  00040	c3		 ret	 0
??1CPlayerCamera@Client@@EEAA@XZ ENDP			; Client::CPlayerCamera::~CPlayerCamera
_TEXT	ENDS
; Function compile flags: /Odtp /RTCsu /ZI
; File c:\users\arcco\documents\github\framework\client\private\playercamera.cpp
; File c:\users\arcco\documents\github\framework\client\public\playercamera.h
; File c:\users\arcco\documents\github\framework\client\private\playercamera.cpp
; File c:\users\arcco\documents\github\framework\client\public\playercamera.h
; File c:\users\arcco\documents\github\framework\client\private\playercamera.cpp
; File c:\users\arcco\documents\github\framework\client\public\playercamera.h
; File c:\users\arcco\documents\github\framework\client\private\playercamera.cpp
;	COMDAT ??0CPlayerCamera@Client@@AEAA@AEBV01@@Z
_TEXT	SEGMENT
$T1 = 200
this$ = 256
rhs$ = 264
??0CPlayerCamera@Client@@AEAA@AEBV01@@Z PROC		; Client::CPlayerCamera::CPlayerCamera, COMDAT

; 21   : {

$LN4:
  00000	48 89 54 24 10	 mov	 QWORD PTR [rsp+16], rdx
  00005	48 89 4c 24 08	 mov	 QWORD PTR [rsp+8], rcx
  0000a	55		 push	 rbp
  0000b	57		 push	 rdi
  0000c	48 81 ec 08 01
	00 00		 sub	 rsp, 264		; 00000108H
  00013	48 8d 6c 24 20	 lea	 rbp, QWORD PTR [rsp+32]
  00018	48 8b fc	 mov	 rdi, rsp
  0001b	b9 42 00 00 00	 mov	 ecx, 66			; 00000042H
  00020	b8 cc cc cc cc	 mov	 eax, -858993460		; ccccccccH
  00025	f3 ab		 rep stosd
  00027	48 8b 8c 24 28
	01 00 00	 mov	 rcx, QWORD PTR [rsp+296]
  0002f	48 c7 85 c8 00
	00 00 fe ff ff
	ff		 mov	 QWORD PTR $T1[rbp], -2

; 20   : 	: CCamera(rhs)

  0003a	48 8b 95 08 01
	00 00		 mov	 rdx, QWORD PTR rhs$[rbp]
  00041	48 8b 8d 00 01
	00 00		 mov	 rcx, QWORD PTR this$[rbp]
  00048	ff 15 00 00 00
	00		 call	 QWORD PTR __imp_??0CCamera@Engine@@IEAA@AEBV01@@Z
  0004e	90		 npad	 1

; 21   : {

  0004f	48 8b 85 00 01
	00 00		 mov	 rax, QWORD PTR this$[rbp]
  00056	48 8d 0d 00 00
	00 00		 lea	 rcx, OFFSET FLAT:??_7CPlayerCamera@Client@@6B@
  0005d	48 89 08	 mov	 QWORD PTR [rax], rcx
; File c:\users\arcco\documents\github\framework\client\public\playercamera.h

; 47   : 	CGameObject* m_pTarget = nullptr;

  00060	48 8b 85 00 01
	00 00		 mov	 rax, QWORD PTR this$[rbp]
  00067	48 c7 80 20 01
	00 00 00 00 00
	00		 mov	 QWORD PTR [rax+288], 0

; 48   : 	CTransform* m_pTargetTransform = nullptr;

  00072	48 8b 85 00 01
	00 00		 mov	 rax, QWORD PTR this$[rbp]
  00079	48 c7 80 28 01
	00 00 00 00 00
	00		 mov	 QWORD PTR [rax+296], 0

; 49   : 	CTransform* m_pSocketTransform = nullptr;

  00084	48 8b 85 00 01
	00 00		 mov	 rax, QWORD PTR this$[rbp]
  0008b	48 c7 80 30 01
	00 00 00 00 00
	00		 mov	 QWORD PTR [rax+304], 0

; 50   : 	CCollider* m_pCollider = nullptr;

  00096	48 8b 85 00 01
	00 00		 mov	 rax, QWORD PTR this$[rbp]
  0009d	48 c7 80 38 01
	00 00 00 00 00
	00		 mov	 QWORD PTR [rax+312], 0

; 51   : 
; 52   : 	_bool m_bMouseLock = true;

  000a8	48 8b 85 00 01
	00 00		 mov	 rax, QWORD PTR this$[rbp]
  000af	c6 80 40 01 00
	00 01		 mov	 BYTE PTR [rax+320], 1

; 53   : 
; 54   : 	CBone* m_pBone = nullptr;

  000b6	48 8b 85 00 01
	00 00		 mov	 rax, QWORD PTR this$[rbp]
  000bd	48 c7 80 48 01
	00 00 00 00 00
	00		 mov	 QWORD PTR [rax+328], 0
; File c:\users\arcco\documents\github\framework\client\private\playercamera.cpp

; 21   : {

  000c8	48 8b 85 00 01
	00 00		 mov	 rax, QWORD PTR this$[rbp]
  000cf	48 05 50 01 00
	00		 add	 rax, 336		; 00000150H
  000d5	48 8b c8	 mov	 rcx, rax
  000d8	e8 00 00 00 00	 call	 ??0XMFLOAT4X4@DirectX@@QEAA@XZ ; DirectX::XMFLOAT4X4::XMFLOAT4X4
  000dd	48 8b 85 00 01
	00 00		 mov	 rax, QWORD PTR this$[rbp]
  000e4	48 05 90 01 00
	00		 add	 rax, 400		; 00000190H
  000ea	48 8b c8	 mov	 rcx, rax
  000ed	e8 00 00 00 00	 call	 ??0XMFLOAT4@DirectX@@QEAA@XZ ; DirectX::XMFLOAT4::XMFLOAT4
; File c:\users\arcco\documents\github\framework\client\public\playercamera.h

; 59   : 	_bool m_bWinAction = false;

  000f2	48 8b 85 00 01
	00 00		 mov	 rax, QWORD PTR this$[rbp]
  000f9	c6 80 a0 01 00
	00 00		 mov	 BYTE PTR [rax+416], 0

; 60   : 	_float m_fWinActionAcc = 0.f;

  00100	48 8b 85 00 01
	00 00		 mov	 rax, QWORD PTR this$[rbp]
  00107	0f 57 c0	 xorps	 xmm0, xmm0
  0010a	f3 0f 11 80 a4
	01 00 00	 movss	 DWORD PTR [rax+420], xmm0

; 61   : 
; 62   : 	_bool m_isGoal = false;

  00112	48 8b 85 00 01
	00 00		 mov	 rax, QWORD PTR this$[rbp]
  00119	c6 80 a8 01 00
	00 00		 mov	 BYTE PTR [rax+424], 0

; 63   : 	_float m_vGoalPosY = 1.5f;

  00120	48 8b 85 00 01
	00 00		 mov	 rax, QWORD PTR this$[rbp]
  00127	f3 0f 10 05 00
	00 00 00	 movss	 xmm0, DWORD PTR __real@3fc00000
  0012f	f3 0f 11 80 ac
	01 00 00	 movss	 DWORD PTR [rax+428], xmm0

; 64   : 	_float3 m_vCurPos = { 0.f, 0.f, 0.f };

  00137	48 8b 85 00 01
	00 00		 mov	 rax, QWORD PTR this$[rbp]
  0013e	48 05 b0 01 00
	00		 add	 rax, 432		; 000001b0H
  00144	0f 57 db	 xorps	 xmm3, xmm3
  00147	0f 57 d2	 xorps	 xmm2, xmm2
  0014a	0f 57 c9	 xorps	 xmm1, xmm1
  0014d	48 8b c8	 mov	 rcx, rax
  00150	e8 00 00 00 00	 call	 ??0XMFLOAT3@DirectX@@QEAA@MMM@Z ; DirectX::XMFLOAT3::XMFLOAT3

; 65   : 
; 66   : 	const _float m_fWinActionTime = 0.5f;

  00155	48 8b 85 00 01
	00 00		 mov	 rax, QWORD PTR this$[rbp]
  0015c	f3 0f 10 05 00
	00 00 00	 movss	 xmm0, DWORD PTR __real@3f000000
  00164	f3 0f 11 80 bc
	01 00 00	 movss	 DWORD PTR [rax+444], xmm0

; 67   : 
; 68   : 	_bool m_bFinish = false;

  0016c	48 8b 85 00 01
	00 00		 mov	 rax, QWORD PTR this$[rbp]
  00173	c6 80 c0 01 00
	00 00		 mov	 BYTE PTR [rax+448], 0

; 69   : 	_bool m_bFadeIn = false;

  0017a	48 8b 85 00 01
	00 00		 mov	 rax, QWORD PTR this$[rbp]
  00181	c6 80 c1 01 00
	00 00		 mov	 BYTE PTR [rax+449], 0

; 70   : 	_bool m_bFadeOut = false;

  00188	48 8b 85 00 01
	00 00		 mov	 rax, QWORD PTR this$[rbp]
  0018f	c6 80 c2 01 00
	00 00		 mov	 BYTE PTR [rax+450], 0

; 71   : 
; 72   : 	_float m_fAlpha = 0.f;

  00196	48 8b 85 00 01
	00 00		 mov	 rax, QWORD PTR this$[rbp]
  0019d	0f 57 c0	 xorps	 xmm0, xmm0
  001a0	f3 0f 11 80 c4
	01 00 00	 movss	 DWORD PTR [rax+452], xmm0

; 73   : 
; 74   : 	_bool m_bFadeInStart = false;

  001a8	48 8b 85 00 01
	00 00		 mov	 rax, QWORD PTR this$[rbp]
  001af	c6 80 c8 01 00
	00 00		 mov	 BYTE PTR [rax+456], 0

; 75   : 	_bool m_bFadeOutStart = false;

  001b6	48 8b 85 00 01
	00 00		 mov	 rax, QWORD PTR this$[rbp]
  001bd	c6 80 c9 01 00
	00 00		 mov	 BYTE PTR [rax+457], 0

; 76   : 	_float m_fFadeInWaitAcc = 0.f;

  001c4	48 8b 85 00 01
	00 00		 mov	 rax, QWORD PTR this$[rbp]
  001cb	0f 57 c0	 xorps	 xmm0, xmm0
  001ce	f3 0f 11 80 cc
	01 00 00	 movss	 DWORD PTR [rax+460], xmm0

; 77   : 	_float m_fFadeOutWaitAcc = 0.f;

  001d6	48 8b 85 00 01
	00 00		 mov	 rax, QWORD PTR this$[rbp]
  001dd	0f 57 c0	 xorps	 xmm0, xmm0
  001e0	f3 0f 11 80 d0
	01 00 00	 movss	 DWORD PTR [rax+464], xmm0

; 78   : 
; 79   : 	_float m_fFadeInAcc = 0.f;

  001e8	48 8b 85 00 01
	00 00		 mov	 rax, QWORD PTR this$[rbp]
  001ef	0f 57 c0	 xorps	 xmm0, xmm0
  001f2	f3 0f 11 80 d4
	01 00 00	 movss	 DWORD PTR [rax+468], xmm0
; File c:\users\arcco\documents\github\framework\client\private\playercamera.cpp

; 21   : {

  001fa	48 8b 85 00 01
	00 00		 mov	 rax, QWORD PTR this$[rbp]
  00201	48 05 e8 01 00
	00		 add	 rax, 488		; 000001e8H
  00207	48 8b c8	 mov	 rcx, rax
  0020a	e8 00 00 00 00	 call	 ??0XMFLOAT4X4@DirectX@@QEAA@XZ ; DirectX::XMFLOAT4X4::XMFLOAT4X4
  0020f	48 8b 85 00 01
	00 00		 mov	 rax, QWORD PTR this$[rbp]
  00216	48 05 28 02 00
	00		 add	 rax, 552		; 00000228H
  0021c	48 8b c8	 mov	 rcx, rax
  0021f	e8 00 00 00 00	 call	 ??0XMFLOAT4X4@DirectX@@QEAA@XZ ; DirectX::XMFLOAT4X4::XMFLOAT4X4
  00224	48 8b 85 00 01
	00 00		 mov	 rax, QWORD PTR this$[rbp]
  0022b	48 05 68 02 00
	00		 add	 rax, 616		; 00000268H
  00231	48 8b c8	 mov	 rcx, rax
  00234	e8 00 00 00 00	 call	 ??0XMFLOAT4X4@DirectX@@QEAA@XZ ; DirectX::XMFLOAT4X4::XMFLOAT4X4
; File c:\users\arcco\documents\github\framework\client\public\playercamera.h

; 88   : 	CRenderer*		m_pRenderer = { nullptr };

  00239	48 8b 85 00 01
	00 00		 mov	 rax, QWORD PTR this$[rbp]
  00240	48 c7 80 a8 02
	00 00 00 00 00
	00		 mov	 QWORD PTR [rax+680], 0

; 89   : 	CShader*		m_pShader = { nullptr };

  0024b	48 8b 85 00 01
	00 00		 mov	 rax, QWORD PTR this$[rbp]
  00252	48 c7 80 b0 02
	00 00 00 00 00
	00		 mov	 QWORD PTR [rax+688], 0

; 90   : 	CVIBuffer_Rect* m_pVIBuffer = { nullptr };

  0025d	48 8b 85 00 01
	00 00		 mov	 rax, QWORD PTR this$[rbp]
  00264	48 c7 80 b8 02
	00 00 00 00 00
	00		 mov	 QWORD PTR [rax+696], 0

; 91   : 	CTexture*		m_pTexture = { nullptr };

  0026f	48 8b 85 00 01
	00 00		 mov	 rax, QWORD PTR this$[rbp]
  00276	48 c7 80 c0 02
	00 00 00 00 00
	00		 mov	 QWORD PTR [rax+704], 0
; File c:\users\arcco\documents\github\framework\client\private\playercamera.cpp

; 22   : }

  00281	48 8b 85 00 01
	00 00		 mov	 rax, QWORD PTR this$[rbp]
  00288	48 8d a5 e8 00
	00 00		 lea	 rsp, QWORD PTR [rbp+232]
  0028f	5f		 pop	 rdi
  00290	5d		 pop	 rbp
  00291	c3		 ret	 0
??0CPlayerCamera@Client@@AEAA@AEBV01@@Z ENDP		; Client::CPlayerCamera::CPlayerCamera
_TEXT	ENDS
;	COMDAT text$x
text$x	SEGMENT
$T1 = 200
this$ = 256
rhs$ = 264
?dtor$0@?0???0CPlayerCamera@Client@@AEAA@AEBV01@@Z@4HA PROC ; `Client::CPlayerCamera::CPlayerCamera'::`1'::dtor$0
  00000	48 89 4c 24 08	 mov	 QWORD PTR [rsp+8], rcx
  00005	48 89 54 24 10	 mov	 QWORD PTR [rsp+16], rdx
  0000a	55		 push	 rbp
  0000b	57		 push	 rdi
  0000c	48 83 ec 28	 sub	 rsp, 40			; 00000028H
  00010	48 8d 6a 20	 lea	 rbp, QWORD PTR [rdx+32]
  00014	48 8b 8d 00 01
	00 00		 mov	 rcx, QWORD PTR this$[rbp]
  0001b	ff 15 00 00 00
	00		 call	 QWORD PTR __imp_??1CCamera@Engine@@MEAA@XZ
  00021	48 83 c4 28	 add	 rsp, 40			; 00000028H
  00025	5f		 pop	 rdi
  00026	5d		 pop	 rbp
  00027	c3		 ret	 0
?dtor$0@?0???0CPlayerCamera@Client@@AEAA@AEBV01@@Z@4HA ENDP ; `Client::CPlayerCamera::CPlayerCamera'::`1'::dtor$0
text$x	ENDS
; Function compile flags: /Odtp /RTCsu /ZI
;	COMDAT text$x
text$x	SEGMENT
$T1 = 200
this$ = 256
rhs$ = 264
?dtor$0@?0???0CPlayerCamera@Client@@AEAA@AEBV01@@Z@4HA PROC ; `Client::CPlayerCamera::CPlayerCamera'::`1'::dtor$0
  00000	48 89 4c 24 08	 mov	 QWORD PTR [rsp+8], rcx
  00005	48 89 54 24 10	 mov	 QWORD PTR [rsp+16], rdx
  0000a	55		 push	 rbp
  0000b	57		 push	 rdi
  0000c	48 83 ec 28	 sub	 rsp, 40			; 00000028H
  00010	48 8d 6a 20	 lea	 rbp, QWORD PTR [rdx+32]
  00014	48 8b 8d 00 01
	00 00		 mov	 rcx, QWORD PTR this$[rbp]
  0001b	ff 15 00 00 00
	00		 call	 QWORD PTR __imp_??1CCamera@Engine@@MEAA@XZ
  00021	48 83 c4 28	 add	 rsp, 40			; 00000028H
  00025	5f		 pop	 rdi
  00026	5d		 pop	 rbp
  00027	c3		 ret	 0
?dtor$0@?0???0CPlayerCamera@Client@@AEAA@AEBV01@@Z@4HA ENDP ; `Client::CPlayerCamera::CPlayerCamera'::`1'::dtor$0
text$x	ENDS
; Function compile flags: /Odtp /RTCsu /ZI
; File c:\users\arcco\documents\github\framework\client\private\playercamera.cpp
; File c:\users\arcco\documents\github\framework\client\public\playercamera.h
; File c:\users\arcco\documents\github\framework\client\private\playercamera.cpp
; File c:\users\arcco\documents\github\framework\client\public\playercamera.h
; File c:\users\arcco\documents\github\framework\client\private\playercamera.cpp
; File c:\users\arcco\documents\github\framework\client\public\playercamera.h
; File c:\users\arcco\documents\github\framework\client\private\playercamera.cpp
;	COMDAT ??0CPlayerCamera@Client@@AEAA@PEAUID3D11Device@@PEAUID3D11DeviceContext@@@Z
_TEXT	SEGMENT
$T1 = 200
this$ = 256
pDevice$ = 264
pContext$ = 272
??0CPlayerCamera@Client@@AEAA@PEAUID3D11Device@@PEAUID3D11DeviceContext@@@Z PROC ; Client::CPlayerCamera::CPlayerCamera, COMDAT

; 16   : {

$LN4:
  00000	4c 89 44 24 18	 mov	 QWORD PTR [rsp+24], r8
  00005	48 89 54 24 10	 mov	 QWORD PTR [rsp+16], rdx
  0000a	48 89 4c 24 08	 mov	 QWORD PTR [rsp+8], rcx
  0000f	55		 push	 rbp
  00010	57		 push	 rdi
  00011	48 81 ec 08 01
	00 00		 sub	 rsp, 264		; 00000108H
  00018	48 8d 6c 24 20	 lea	 rbp, QWORD PTR [rsp+32]
  0001d	48 8b fc	 mov	 rdi, rsp
  00020	b9 42 00 00 00	 mov	 ecx, 66			; 00000042H
  00025	b8 cc cc cc cc	 mov	 eax, -858993460		; ccccccccH
  0002a	f3 ab		 rep stosd
  0002c	48 8b 8c 24 28
	01 00 00	 mov	 rcx, QWORD PTR [rsp+296]
  00034	48 c7 85 c8 00
	00 00 fe ff ff
	ff		 mov	 QWORD PTR $T1[rbp], -2

; 15   : 	: CCamera(pDevice, pContext)

  0003f	4c 8b 85 10 01
	00 00		 mov	 r8, QWORD PTR pContext$[rbp]
  00046	48 8b 95 08 01
	00 00		 mov	 rdx, QWORD PTR pDevice$[rbp]
  0004d	48 8b 8d 00 01
	00 00		 mov	 rcx, QWORD PTR this$[rbp]
  00054	ff 15 00 00 00
	00		 call	 QWORD PTR __imp_??0CCamera@Engine@@IEAA@PEAUID3D11Device@@PEAUID3D11DeviceContext@@@Z
  0005a	90		 npad	 1

; 16   : {

  0005b	48 8b 85 00 01
	00 00		 mov	 rax, QWORD PTR this$[rbp]
  00062	48 8d 0d 00 00
	00 00		 lea	 rcx, OFFSET FLAT:??_7CPlayerCamera@Client@@6B@
  00069	48 89 08	 mov	 QWORD PTR [rax], rcx
; File c:\users\arcco\documents\github\framework\client\public\playercamera.h

; 47   : 	CGameObject* m_pTarget = nullptr;

  0006c	48 8b 85 00 01
	00 00		 mov	 rax, QWORD PTR this$[rbp]
  00073	48 c7 80 20 01
	00 00 00 00 00
	00		 mov	 QWORD PTR [rax+288], 0

; 48   : 	CTransform* m_pTargetTransform = nullptr;

  0007e	48 8b 85 00 01
	00 00		 mov	 rax, QWORD PTR this$[rbp]
  00085	48 c7 80 28 01
	00 00 00 00 00
	00		 mov	 QWORD PTR [rax+296], 0

; 49   : 	CTransform* m_pSocketTransform = nullptr;

  00090	48 8b 85 00 01
	00 00		 mov	 rax, QWORD PTR this$[rbp]
  00097	48 c7 80 30 01
	00 00 00 00 00
	00		 mov	 QWORD PTR [rax+304], 0

; 50   : 	CCollider* m_pCollider = nullptr;

  000a2	48 8b 85 00 01
	00 00		 mov	 rax, QWORD PTR this$[rbp]
  000a9	48 c7 80 38 01
	00 00 00 00 00
	00		 mov	 QWORD PTR [rax+312], 0

; 51   : 
; 52   : 	_bool m_bMouseLock = true;

  000b4	48 8b 85 00 01
	00 00		 mov	 rax, QWORD PTR this$[rbp]
  000bb	c6 80 40 01 00
	00 01		 mov	 BYTE PTR [rax+320], 1

; 53   : 
; 54   : 	CBone* m_pBone = nullptr;

  000c2	48 8b 85 00 01
	00 00		 mov	 rax, QWORD PTR this$[rbp]
  000c9	48 c7 80 48 01
	00 00 00 00 00
	00		 mov	 QWORD PTR [rax+328], 0
; File c:\users\arcco\documents\github\framework\client\private\playercamera.cpp

; 16   : {

  000d4	48 8b 85 00 01
	00 00		 mov	 rax, QWORD PTR this$[rbp]
  000db	48 05 50 01 00
	00		 add	 rax, 336		; 00000150H
  000e1	48 8b c8	 mov	 rcx, rax
  000e4	e8 00 00 00 00	 call	 ??0XMFLOAT4X4@DirectX@@QEAA@XZ ; DirectX::XMFLOAT4X4::XMFLOAT4X4
  000e9	48 8b 85 00 01
	00 00		 mov	 rax, QWORD PTR this$[rbp]
  000f0	48 05 90 01 00
	00		 add	 rax, 400		; 00000190H
  000f6	48 8b c8	 mov	 rcx, rax
  000f9	e8 00 00 00 00	 call	 ??0XMFLOAT4@DirectX@@QEAA@XZ ; DirectX::XMFLOAT4::XMFLOAT4
; File c:\users\arcco\documents\github\framework\client\public\playercamera.h

; 59   : 	_bool m_bWinAction = false;

  000fe	48 8b 85 00 01
	00 00		 mov	 rax, QWORD PTR this$[rbp]
  00105	c6 80 a0 01 00
	00 00		 mov	 BYTE PTR [rax+416], 0

; 60   : 	_float m_fWinActionAcc = 0.f;

  0010c	48 8b 85 00 01
	00 00		 mov	 rax, QWORD PTR this$[rbp]
  00113	0f 57 c0	 xorps	 xmm0, xmm0
  00116	f3 0f 11 80 a4
	01 00 00	 movss	 DWORD PTR [rax+420], xmm0

; 61   : 
; 62   : 	_bool m_isGoal = false;

  0011e	48 8b 85 00 01
	00 00		 mov	 rax, QWORD PTR this$[rbp]
  00125	c6 80 a8 01 00
	00 00		 mov	 BYTE PTR [rax+424], 0

; 63   : 	_float m_vGoalPosY = 1.5f;

  0012c	48 8b 85 00 01
	00 00		 mov	 rax, QWORD PTR this$[rbp]
  00133	f3 0f 10 05 00
	00 00 00	 movss	 xmm0, DWORD PTR __real@3fc00000
  0013b	f3 0f 11 80 ac
	01 00 00	 movss	 DWORD PTR [rax+428], xmm0

; 64   : 	_float3 m_vCurPos = { 0.f, 0.f, 0.f };

  00143	48 8b 85 00 01
	00 00		 mov	 rax, QWORD PTR this$[rbp]
  0014a	48 05 b0 01 00
	00		 add	 rax, 432		; 000001b0H
  00150	0f 57 db	 xorps	 xmm3, xmm3
  00153	0f 57 d2	 xorps	 xmm2, xmm2
  00156	0f 57 c9	 xorps	 xmm1, xmm1
  00159	48 8b c8	 mov	 rcx, rax
  0015c	e8 00 00 00 00	 call	 ??0XMFLOAT3@DirectX@@QEAA@MMM@Z ; DirectX::XMFLOAT3::XMFLOAT3

; 65   : 
; 66   : 	const _float m_fWinActionTime = 0.5f;

  00161	48 8b 85 00 01
	00 00		 mov	 rax, QWORD PTR this$[rbp]
  00168	f3 0f 10 05 00
	00 00 00	 movss	 xmm0, DWORD PTR __real@3f000000
  00170	f3 0f 11 80 bc
	01 00 00	 movss	 DWORD PTR [rax+444], xmm0

; 67   : 
; 68   : 	_bool m_bFinish = false;

  00178	48 8b 85 00 01
	00 00		 mov	 rax, QWORD PTR this$[rbp]
  0017f	c6 80 c0 01 00
	00 00		 mov	 BYTE PTR [rax+448], 0

; 69   : 	_bool m_bFadeIn = false;

  00186	48 8b 85 00 01
	00 00		 mov	 rax, QWORD PTR this$[rbp]
  0018d	c6 80 c1 01 00
	00 00		 mov	 BYTE PTR [rax+449], 0

; 70   : 	_bool m_bFadeOut = false;

  00194	48 8b 85 00 01
	00 00		 mov	 rax, QWORD PTR this$[rbp]
  0019b	c6 80 c2 01 00
	00 00		 mov	 BYTE PTR [rax+450], 0

; 71   : 
; 72   : 	_float m_fAlpha = 0.f;

  001a2	48 8b 85 00 01
	00 00		 mov	 rax, QWORD PTR this$[rbp]
  001a9	0f 57 c0	 xorps	 xmm0, xmm0
  001ac	f3 0f 11 80 c4
	01 00 00	 movss	 DWORD PTR [rax+452], xmm0

; 73   : 
; 74   : 	_bool m_bFadeInStart = false;

  001b4	48 8b 85 00 01
	00 00		 mov	 rax, QWORD PTR this$[rbp]
  001bb	c6 80 c8 01 00
	00 00		 mov	 BYTE PTR [rax+456], 0

; 75   : 	_bool m_bFadeOutStart = false;

  001c2	48 8b 85 00 01
	00 00		 mov	 rax, QWORD PTR this$[rbp]
  001c9	c6 80 c9 01 00
	00 00		 mov	 BYTE PTR [rax+457], 0

; 76   : 	_float m_fFadeInWaitAcc = 0.f;

  001d0	48 8b 85 00 01
	00 00		 mov	 rax, QWORD PTR this$[rbp]
  001d7	0f 57 c0	 xorps	 xmm0, xmm0
  001da	f3 0f 11 80 cc
	01 00 00	 movss	 DWORD PTR [rax+460], xmm0

; 77   : 	_float m_fFadeOutWaitAcc = 0.f;

  001e2	48 8b 85 00 01
	00 00		 mov	 rax, QWORD PTR this$[rbp]
  001e9	0f 57 c0	 xorps	 xmm0, xmm0
  001ec	f3 0f 11 80 d0
	01 00 00	 movss	 DWORD PTR [rax+464], xmm0

; 78   : 
; 79   : 	_float m_fFadeInAcc = 0.f;

  001f4	48 8b 85 00 01
	00 00		 mov	 rax, QWORD PTR this$[rbp]
  001fb	0f 57 c0	 xorps	 xmm0, xmm0
  001fe	f3 0f 11 80 d4
	01 00 00	 movss	 DWORD PTR [rax+468], xmm0
; File c:\users\arcco\documents\github\framework\client\private\playercamera.cpp

; 16   : {

  00206	48 8b 85 00 01
	00 00		 mov	 rax, QWORD PTR this$[rbp]
  0020d	48 05 e8 01 00
	00		 add	 rax, 488		; 000001e8H
  00213	48 8b c8	 mov	 rcx, rax
  00216	e8 00 00 00 00	 call	 ??0XMFLOAT4X4@DirectX@@QEAA@XZ ; DirectX::XMFLOAT4X4::XMFLOAT4X4
  0021b	48 8b 85 00 01
	00 00		 mov	 rax, QWORD PTR this$[rbp]
  00222	48 05 28 02 00
	00		 add	 rax, 552		; 00000228H
  00228	48 8b c8	 mov	 rcx, rax
  0022b	e8 00 00 00 00	 call	 ??0XMFLOAT4X4@DirectX@@QEAA@XZ ; DirectX::XMFLOAT4X4::XMFLOAT4X4
  00230	48 8b 85 00 01
	00 00		 mov	 rax, QWORD PTR this$[rbp]
  00237	48 05 68 02 00
	00		 add	 rax, 616		; 00000268H
  0023d	48 8b c8	 mov	 rcx, rax
  00240	e8 00 00 00 00	 call	 ??0XMFLOAT4X4@DirectX@@QEAA@XZ ; DirectX::XMFLOAT4X4::XMFLOAT4X4
; File c:\users\arcco\documents\github\framework\client\public\playercamera.h

; 88   : 	CRenderer*		m_pRenderer = { nullptr };

  00245	48 8b 85 00 01
	00 00		 mov	 rax, QWORD PTR this$[rbp]
  0024c	48 c7 80 a8 02
	00 00 00 00 00
	00		 mov	 QWORD PTR [rax+680], 0

; 89   : 	CShader*		m_pShader = { nullptr };

  00257	48 8b 85 00 01
	00 00		 mov	 rax, QWORD PTR this$[rbp]
  0025e	48 c7 80 b0 02
	00 00 00 00 00
	00		 mov	 QWORD PTR [rax+688], 0

; 90   : 	CVIBuffer_Rect* m_pVIBuffer = { nullptr };

  00269	48 8b 85 00 01
	00 00		 mov	 rax, QWORD PTR this$[rbp]
  00270	48 c7 80 b8 02
	00 00 00 00 00
	00		 mov	 QWORD PTR [rax+696], 0

; 91   : 	CTexture*		m_pTexture = { nullptr };

  0027b	48 8b 85 00 01
	00 00		 mov	 rax, QWORD PTR this$[rbp]
  00282	48 c7 80 c0 02
	00 00 00 00 00
	00		 mov	 QWORD PTR [rax+704], 0
; File c:\users\arcco\documents\github\framework\client\private\playercamera.cpp

; 17   : }

  0028d	48 8b 85 00 01
	00 00		 mov	 rax, QWORD PTR this$[rbp]
  00294	48 8d a5 e8 00
	00 00		 lea	 rsp, QWORD PTR [rbp+232]
  0029b	5f		 pop	 rdi
  0029c	5d		 pop	 rbp
  0029d	c3		 ret	 0
??0CPlayerCamera@Client@@AEAA@PEAUID3D11Device@@PEAUID3D11DeviceContext@@@Z ENDP ; Client::CPlayerCamera::CPlayerCamera
_TEXT	ENDS
;	COMDAT text$x
text$x	SEGMENT
$T1 = 200
this$ = 256
pDevice$ = 264
pContext$ = 272
?dtor$0@?0???0CPlayerCamera@Client@@AEAA@PEAUID3D11Device@@PEAUID3D11DeviceContext@@@Z@4HA PROC ; `Client::CPlayerCamera::CPlayerCamera'::`1'::dtor$0
  00000	48 89 4c 24 08	 mov	 QWORD PTR [rsp+8], rcx
  00005	48 89 54 24 10	 mov	 QWORD PTR [rsp+16], rdx
  0000a	55		 push	 rbp
  0000b	57		 push	 rdi
  0000c	48 83 ec 28	 sub	 rsp, 40			; 00000028H
  00010	48 8d 6a 20	 lea	 rbp, QWORD PTR [rdx+32]
  00014	48 8b 8d 00 01
	00 00		 mov	 rcx, QWORD PTR this$[rbp]
  0001b	ff 15 00 00 00
	00		 call	 QWORD PTR __imp_??1CCamera@Engine@@MEAA@XZ
  00021	48 83 c4 28	 add	 rsp, 40			; 00000028H
  00025	5f		 pop	 rdi
  00026	5d		 pop	 rbp
  00027	c3		 ret	 0
?dtor$0@?0???0CPlayerCamera@Client@@AEAA@PEAUID3D11Device@@PEAUID3D11DeviceContext@@@Z@4HA ENDP ; `Client::CPlayerCamera::CPlayerCamera'::`1'::dtor$0
text$x	ENDS
; Function compile flags: /Odtp /RTCsu /ZI
;	COMDAT text$x
text$x	SEGMENT
$T1 = 200
this$ = 256
pDevice$ = 264
pContext$ = 272
?dtor$0@?0???0CPlayerCamera@Client@@AEAA@PEAUID3D11Device@@PEAUID3D11DeviceContext@@@Z@4HA PROC ; `Client::CPlayerCamera::CPlayerCamera'::`1'::dtor$0
  00000	48 89 4c 24 08	 mov	 QWORD PTR [rsp+8], rcx
  00005	48 89 54 24 10	 mov	 QWORD PTR [rsp+16], rdx
  0000a	55		 push	 rbp
  0000b	57		 push	 rdi
  0000c	48 83 ec 28	 sub	 rsp, 40			; 00000028H
  00010	48 8d 6a 20	 lea	 rbp, QWORD PTR [rdx+32]
  00014	48 8b 8d 00 01
	00 00		 mov	 rcx, QWORD PTR this$[rbp]
  0001b	ff 15 00 00 00
	00		 call	 QWORD PTR __imp_??1CCamera@Engine@@MEAA@XZ
  00021	48 83 c4 28	 add	 rsp, 40			; 00000028H
  00025	5f		 pop	 rdi
  00026	5d		 pop	 rbp
  00027	c3		 ret	 0
?dtor$0@?0???0CPlayerCamera@Client@@AEAA@PEAUID3D11Device@@PEAUID3D11DeviceContext@@@Z@4HA ENDP ; `Client::CPlayerCamera::CPlayerCamera'::`1'::dtor$0
text$x	ENDS
; Function compile flags: /Odtp /RTCsu /ZI
; File c:\program files (x86)\windows kits\8.1\include\um\directxmathmisc.inl
;	COMDAT ?XMScalarNearEqual@DirectX@@YA_NMMM@Z
_TEXT	SEGMENT
Delta$ = 4
tv68 = 212
S1$ = 256
S2$ = 264
Epsilon$ = 272
?XMScalarNearEqual@DirectX@@YA_NMMM@Z PROC		; DirectX::XMScalarNearEqual, COMDAT

; 2085 : {

$LN5:
  00000	f3 0f 11 54 24
	18		 movss	 DWORD PTR [rsp+24], xmm2
  00006	f3 0f 11 4c 24
	10		 movss	 DWORD PTR [rsp+16], xmm1
  0000c	f3 0f 11 44 24
	08		 movss	 DWORD PTR [rsp+8], xmm0
  00012	55		 push	 rbp
  00013	57		 push	 rdi
  00014	48 81 ec 08 01
	00 00		 sub	 rsp, 264		; 00000108H
  0001b	48 8d 6c 24 20	 lea	 rbp, QWORD PTR [rsp+32]
  00020	48 8b fc	 mov	 rdi, rsp
  00023	b9 42 00 00 00	 mov	 ecx, 66			; 00000042H
  00028	b8 cc cc cc cc	 mov	 eax, -858993460		; ccccccccH
  0002d	f3 ab		 rep stosd

; 2086 :     float Delta = S1 - S2;

  0002f	f3 0f 10 85 00
	01 00 00	 movss	 xmm0, DWORD PTR S1$[rbp]
  00037	f3 0f 5c 85 08
	01 00 00	 subss	 xmm0, DWORD PTR S2$[rbp]
  0003f	f3 0f 11 45 04	 movss	 DWORD PTR Delta$[rbp], xmm0

; 2087 :     return (fabsf(Delta) <= Epsilon);

  00044	f3 0f 10 45 04	 movss	 xmm0, DWORD PTR Delta$[rbp]
  00049	e8 00 00 00 00	 call	 fabsf
  0004e	f3 0f 10 8d 10
	01 00 00	 movss	 xmm1, DWORD PTR Epsilon$[rbp]
  00056	0f 2f c8	 comiss	 xmm1, xmm0
  00059	72 0c		 jb	 SHORT $LN3@XMScalarNe
  0005b	c7 85 d4 00 00
	00 01 00 00 00	 mov	 DWORD PTR tv68[rbp], 1
  00065	eb 0a		 jmp	 SHORT $LN4@XMScalarNe
$LN3@XMScalarNe:
  00067	c7 85 d4 00 00
	00 00 00 00 00	 mov	 DWORD PTR tv68[rbp], 0
$LN4@XMScalarNe:
  00071	0f b6 85 d4 00
	00 00		 movzx	 eax, BYTE PTR tv68[rbp]

; 2088 : }

  00078	48 8d a5 e8 00
	00 00		 lea	 rsp, QWORD PTR [rbp+232]
  0007f	5f		 pop	 rdi
  00080	5d		 pop	 rbp
  00081	c3		 ret	 0
?XMScalarNearEqual@DirectX@@YA_NMMM@Z ENDP		; DirectX::XMScalarNearEqual
_TEXT	ENDS
; Function compile flags: /Odtp /RTCsu /ZI
; File c:\program files (x86)\windows kits\8.1\include\um\directxmathmatrix.inl
;	COMDAT ?XMMatrixOrthographicLH@DirectX@@YQ?AUXMMATRIX@1@MMMM@Z
_TEXT	SEGMENT
M$ = 16
fRange$ = 100
rMem$ = 144
vValues$ = 192
vTemp$ = 240
$T4 = 672
$T5 = 720
$T6 = 768
$T7 = 816
$T8 = 864
$T9 = 912
$T10 = 960
$T11 = 1008
$T12 = 1056
__$ArrayPad$ = 1080
ViewWidth$ = 1120
ViewHeight$ = 1128
NearZ$ = 1136
FarZ$ = 1144
?XMMatrixOrthographicLH@DirectX@@YQ?AUXMMATRIX@1@MMMM@Z PROC ; DirectX::XMMatrixOrthographicLH, COMDAT

; 2532 : {

$LN6:
  00000	f3 0f 11 5c 24
	20		 movss	 DWORD PTR [rsp+32], xmm3
  00006	f3 0f 11 54 24
	18		 movss	 DWORD PTR [rsp+24], xmm2
  0000c	f3 0f 11 4c 24
	10		 movss	 DWORD PTR [rsp+16], xmm1
  00012	f3 0f 11 44 24
	08		 movss	 DWORD PTR [rsp+8], xmm0
  00018	55		 push	 rbp
  00019	57		 push	 rdi
  0001a	48 81 ec 78 04
	00 00		 sub	 rsp, 1144		; 00000478H
  00021	48 8d 6c 24 30	 lea	 rbp, QWORD PTR [rsp+48]
  00026	48 8b fc	 mov	 rdi, rsp
  00029	b9 1e 01 00 00	 mov	 ecx, 286		; 0000011eH
  0002e	b8 cc cc cc cc	 mov	 eax, -858993460		; ccccccccH
  00033	f3 ab		 rep stosd
  00035	48 8b 05 00 00
	00 00		 mov	 rax, QWORD PTR __security_cookie
  0003c	48 33 c5	 xor	 rax, rbp
  0003f	48 89 85 38 04
	00 00		 mov	 QWORD PTR __$ArrayPad$[rbp], rax

; 2533 :     assert(!XMScalarNearEqual(ViewWidth, 0.0f, 0.00001f));

  00046	f3 0f 10 15 00
	00 00 00	 movss	 xmm2, DWORD PTR __real@3727c5ac
  0004e	0f 57 c9	 xorps	 xmm1, xmm1
  00051	f3 0f 10 85 60
	04 00 00	 movss	 xmm0, DWORD PTR ViewWidth$[rbp]
  00059	e8 00 00 00 00	 call	 ?XMScalarNearEqual@DirectX@@YA_NMMM@Z ; DirectX::XMScalarNearEqual
  0005e	0f b6 c0	 movzx	 eax, al
  00061	85 c0		 test	 eax, eax
  00063	74 21		 je	 SHORT $LN3@XMMatrixOr
  00065	8b 05 00 00 00
	00		 mov	 eax, DWORD PTR ?__LINE__Var@?0??XMMatrixOrthographicLH@DirectX@@YQ?AUXMMATRIX@2@MMMM@Z@4JA
  0006b	ff c0		 inc	 eax
  0006d	44 8b c0	 mov	 r8d, eax
  00070	48 8d 15 00 00
	00 00		 lea	 rdx, OFFSET FLAT:??_C@_1JC@EJCKKKJP@?$AAc?$AA?3?$AA?2?$AAp?$AAr?$AAo?$AAg?$AAr?$AAa?$AAm?$AA?5?$AAf?$AAi?$AAl?$AAe?$AAs?$AA?5?$AA?$CI?$AAx?$AA8?$AA6?$AA?$CJ?$AA?2?$AAw?$AAi?$AAn?$AAd?$AAo?$AAw?$AAs?$AA?5?$AAk@
  00077	48 8d 0d 00 00
	00 00		 lea	 rcx, OFFSET FLAT:??_C@_1FM@GHGDCEAE@?$AA?$CB?$AAX?$AAM?$AAS?$AAc?$AAa?$AAl?$AAa?$AAr?$AAN?$AAe?$AAa?$AAr?$AAE?$AAq?$AAu?$AAa?$AAl?$AA?$CI?$AAV?$AAi?$AAe?$AAw?$AAW?$AAi?$AAd?$AAt?$AAh?$AA?0?$AA?5?$AA0?$AA?4@
  0007e	ff 15 00 00 00
	00		 call	 QWORD PTR __imp__wassert
  00084	33 c0		 xor	 eax, eax
$LN3@XMMatrixOr:

; 2534 :     assert(!XMScalarNearEqual(ViewHeight, 0.0f, 0.00001f));

  00086	f3 0f 10 15 00
	00 00 00	 movss	 xmm2, DWORD PTR __real@3727c5ac
  0008e	0f 57 c9	 xorps	 xmm1, xmm1
  00091	f3 0f 10 85 68
	04 00 00	 movss	 xmm0, DWORD PTR ViewHeight$[rbp]
  00099	e8 00 00 00 00	 call	 ?XMScalarNearEqual@DirectX@@YA_NMMM@Z ; DirectX::XMScalarNearEqual
  0009e	0f b6 c0	 movzx	 eax, al
  000a1	85 c0		 test	 eax, eax
  000a3	74 22		 je	 SHORT $LN4@XMMatrixOr
  000a5	8b 05 00 00 00
	00		 mov	 eax, DWORD PTR ?__LINE__Var@?0??XMMatrixOrthographicLH@DirectX@@YQ?AUXMMATRIX@2@MMMM@Z@4JA
  000ab	83 c0 02	 add	 eax, 2
  000ae	44 8b c0	 mov	 r8d, eax
  000b1	48 8d 15 00 00
	00 00		 lea	 rdx, OFFSET FLAT:??_C@_1JC@EJCKKKJP@?$AAc?$AA?3?$AA?2?$AAp?$AAr?$AAo?$AAg?$AAr?$AAa?$AAm?$AA?5?$AAf?$AAi?$AAl?$AAe?$AAs?$AA?5?$AA?$CI?$AAx?$AA8?$AA6?$AA?$CJ?$AA?2?$AAw?$AAi?$AAn?$AAd?$AAo?$AAw?$AAs?$AA?5?$AAk@
  000b8	48 8d 0d 00 00
	00 00		 lea	 rcx, OFFSET FLAT:??_C@_1FO@OGFPCKGG@?$AA?$CB?$AAX?$AAM?$AAS?$AAc?$AAa?$AAl?$AAa?$AAr?$AAN?$AAe?$AAa?$AAr?$AAE?$AAq?$AAu?$AAa?$AAl?$AA?$CI?$AAV?$AAi?$AAe?$AAw?$AAH?$AAe?$AAi?$AAg?$AAh?$AAt?$AA?0?$AA?5?$AA0@
  000bf	ff 15 00 00 00
	00		 call	 QWORD PTR __imp__wassert
  000c5	33 c0		 xor	 eax, eax
$LN4@XMMatrixOr:

; 2535 :     assert(!XMScalarNearEqual(FarZ, NearZ, 0.00001f));

  000c7	f3 0f 10 15 00
	00 00 00	 movss	 xmm2, DWORD PTR __real@3727c5ac
  000cf	f3 0f 10 8d 70
	04 00 00	 movss	 xmm1, DWORD PTR NearZ$[rbp]
  000d7	f3 0f 10 85 78
	04 00 00	 movss	 xmm0, DWORD PTR FarZ$[rbp]
  000df	e8 00 00 00 00	 call	 ?XMScalarNearEqual@DirectX@@YA_NMMM@Z ; DirectX::XMScalarNearEqual
  000e4	0f b6 c0	 movzx	 eax, al
  000e7	85 c0		 test	 eax, eax
  000e9	74 22		 je	 SHORT $LN5@XMMatrixOr
  000eb	8b 05 00 00 00
	00		 mov	 eax, DWORD PTR ?__LINE__Var@?0??XMMatrixOrthographicLH@DirectX@@YQ?AUXMMATRIX@2@MMMM@Z@4JA
  000f1	83 c0 03	 add	 eax, 3
  000f4	44 8b c0	 mov	 r8d, eax
  000f7	48 8d 15 00 00
	00 00		 lea	 rdx, OFFSET FLAT:??_C@_1JC@EJCKKKJP@?$AAc?$AA?3?$AA?2?$AAp?$AAr?$AAo?$AAg?$AAr?$AAa?$AAm?$AA?5?$AAf?$AAi?$AAl?$AAe?$AAs?$AA?5?$AA?$CI?$AAx?$AA8?$AA6?$AA?$CJ?$AA?2?$AAw?$AAi?$AAn?$AAd?$AAo?$AAw?$AAs?$AA?5?$AAk@
  000fe	48 8d 0d 00 00
	00 00		 lea	 rcx, OFFSET FLAT:??_C@_1FE@IMEJOJAH@?$AA?$CB?$AAX?$AAM?$AAS?$AAc?$AAa?$AAl?$AAa?$AAr?$AAN?$AAe?$AAa?$AAr?$AAE?$AAq?$AAu?$AAa?$AAl?$AA?$CI?$AAF?$AAa?$AAr?$AAZ?$AA?0?$AA?5?$AAN?$AAe?$AAa?$AAr?$AAZ?$AA?0?$AA?5@
  00105	ff 15 00 00 00
	00		 call	 QWORD PTR __imp__wassert
  0010b	33 c0		 xor	 eax, eax
$LN5@XMMatrixOr:

; 2536 : 
; 2537 : #if defined(_XM_NO_INTRINSICS_)
; 2538 : 
; 2539 :     float fRange = 1.0f / (FarZ-NearZ);
; 2540 : 
; 2541 :     XMMATRIX M;
; 2542 :     M.m[0][0] = 2.0f / ViewWidth;
; 2543 :     M.m[0][1] = 0.0f;
; 2544 :     M.m[0][2] = 0.0f;
; 2545 :     M.m[0][3] = 0.0f;
; 2546 : 
; 2547 :     M.m[1][0] = 0.0f;
; 2548 :     M.m[1][1] = 2.0f / ViewHeight;
; 2549 :     M.m[1][2] = 0.0f;
; 2550 :     M.m[1][3] = 0.0f;
; 2551 : 
; 2552 :     M.m[2][0] = 0.0f;
; 2553 :     M.m[2][1] = 0.0f;
; 2554 :     M.m[2][2] = fRange;
; 2555 :     M.m[2][3] = 0.0f;
; 2556 : 
; 2557 :     M.m[3][0] = 0.0f;
; 2558 :     M.m[3][1] = 0.0f;
; 2559 :     M.m[3][2] = -fRange * NearZ;
; 2560 :     M.m[3][3] = 1.0f;
; 2561 :     return M;
; 2562 : 
; 2563 : #elif defined(_XM_ARM_NEON_INTRINSICS_)
; 2564 :     float fRange = 1.0f / (FarZ-NearZ);
; 2565 : 
; 2566 :     const XMVECTOR Zero = vdupq_n_f32(0);
; 2567 :     XMMATRIX M;
; 2568 :     M.r[0] = vsetq_lane_f32( 2.0f / ViewWidth, Zero, 0 );
; 2569 :     M.r[1] = vsetq_lane_f32( 2.0f / ViewHeight, Zero, 1 );
; 2570 :     M.r[2] = vsetq_lane_f32( fRange, Zero, 2 );
; 2571 :     M.r[3] = vsetq_lane_f32( -fRange * NearZ, g_XMIdentityR3.v, 2 );
; 2572 :     return M;
; 2573 : #elif defined(_XM_SSE_INTRINSICS_)
; 2574 :     XMMATRIX M;

  0010d	48 8d 4d 10	 lea	 rcx, QWORD PTR M$[rbp]
  00111	e8 00 00 00 00	 call	 ??0XMMATRIX@DirectX@@QEAA@XZ ; DirectX::XMMATRIX::XMMATRIX

; 2575 :     float fRange = 1.0f / (FarZ-NearZ);

  00116	f3 0f 10 85 78
	04 00 00	 movss	 xmm0, DWORD PTR FarZ$[rbp]
  0011e	f3 0f 5c 85 70
	04 00 00	 subss	 xmm0, DWORD PTR NearZ$[rbp]
  00126	f3 0f 10 0d 00
	00 00 00	 movss	 xmm1, DWORD PTR __real@3f800000
  0012e	f3 0f 5e c8	 divss	 xmm1, xmm0
  00132	0f 28 c1	 movaps	 xmm0, xmm1
  00135	f3 0f 11 45 64	 movss	 DWORD PTR fRange$[rbp], xmm0

; 2576 :     // Note: This is recorded on the stack
; 2577 :     XMVECTOR rMem = {
; 2578 :         2.0f / ViewWidth,

  0013a	f3 0f 10 05 00
	00 00 00	 movss	 xmm0, DWORD PTR __real@40000000
  00142	f3 0f 5e 85 60
	04 00 00	 divss	 xmm0, DWORD PTR ViewWidth$[rbp]
  0014a	f3 0f 11 85 90
	00 00 00	 movss	 DWORD PTR rMem$[rbp], xmm0

; 2579 :         2.0f / ViewHeight,

  00152	f3 0f 10 05 00
	00 00 00	 movss	 xmm0, DWORD PTR __real@40000000
  0015a	f3 0f 5e 85 68
	04 00 00	 divss	 xmm0, DWORD PTR ViewHeight$[rbp]
  00162	f3 0f 11 85 94
	00 00 00	 movss	 DWORD PTR rMem$[rbp+4], xmm0

; 2580 :         fRange,

  0016a	f3 0f 10 45 64	 movss	 xmm0, DWORD PTR fRange$[rbp]
  0016f	f3 0f 11 85 98
	00 00 00	 movss	 DWORD PTR rMem$[rbp+8], xmm0

; 2581 :         -fRange * NearZ

  00177	f3 0f 10 45 64	 movss	 xmm0, DWORD PTR fRange$[rbp]
  0017c	0f 57 05 00 00
	00 00		 xorps	 xmm0, DWORD PTR __xmm@80000000800000008000000080000000
  00183	f3 0f 59 85 70
	04 00 00	 mulss	 xmm0, DWORD PTR NearZ$[rbp]
  0018b	f3 0f 11 85 9c
	00 00 00	 movss	 DWORD PTR rMem$[rbp+12], xmm0

; 2582 :     };
; 2583 :     // Copy from memory to SSE register
; 2584 :     XMVECTOR vValues = rMem;

  00193	0f 28 85 90 00
	00 00		 movaps	 xmm0, XMMWORD PTR rMem$[rbp]
  0019a	0f 29 85 c0 00
	00 00		 movaps	 XMMWORD PTR vValues$[rbp], xmm0

; 2585 :     XMVECTOR vTemp = _mm_setzero_ps(); 

  001a1	0f 57 c0	 xorps	 xmm0, xmm0
  001a4	0f 29 85 a0 02
	00 00		 movaps	 XMMWORD PTR $T4[rbp], xmm0
  001ab	0f 28 85 a0 02
	00 00		 movaps	 xmm0, XMMWORD PTR $T4[rbp]
  001b2	0f 29 85 f0 00
	00 00		 movaps	 XMMWORD PTR vTemp$[rbp], xmm0

; 2586 :     // Copy x only
; 2587 :     vTemp = _mm_move_ss(vTemp,vValues);

  001b9	0f 28 85 f0 00
	00 00		 movaps	 xmm0, XMMWORD PTR vTemp$[rbp]
  001c0	0f 28 8d c0 00
	00 00		 movaps	 xmm1, XMMWORD PTR vValues$[rbp]
  001c7	f3 0f 10 c1	 movss	 xmm0, xmm1
  001cb	0f 29 85 d0 02
	00 00		 movaps	 XMMWORD PTR $T5[rbp], xmm0
  001d2	0f 28 85 d0 02
	00 00		 movaps	 xmm0, XMMWORD PTR $T5[rbp]
  001d9	0f 29 85 f0 00
	00 00		 movaps	 XMMWORD PTR vTemp$[rbp], xmm0

; 2588 :     // 2.0f / ViewWidth,0,0,0
; 2589 :     M.r[0] = vTemp;

  001e0	b8 10 00 00 00	 mov	 eax, 16
  001e5	48 6b c0 00	 imul	 rax, rax, 0
  001e9	0f 28 85 f0 00
	00 00		 movaps	 xmm0, XMMWORD PTR vTemp$[rbp]
  001f0	0f 11 44 05 10	 movups	 XMMWORD PTR M$[rbp+rax], xmm0

; 2590 :     // 0,2.0f / ViewHeight,0,0
; 2591 :     vTemp = vValues;

  001f5	0f 28 85 c0 00
	00 00		 movaps	 xmm0, XMMWORD PTR vValues$[rbp]
  001fc	0f 29 85 f0 00
	00 00		 movaps	 XMMWORD PTR vTemp$[rbp], xmm0

; 2592 :     vTemp = _mm_and_ps(vTemp,g_XMMaskY);

  00203	48 8d 95 30 03
	00 00		 lea	 rdx, QWORD PTR $T7[rbp]
  0020a	48 8d 0d 00 00
	00 00		 lea	 rcx, OFFSET FLAT:?g_XMMaskY@DirectX@@3UXMVECTORU32@1@B ; DirectX::g_XMMaskY
  00211	e8 00 00 00 00	 call	 ??BXMVECTORU32@DirectX@@QEBA?AT__m128@@XZ ; DirectX::XMVECTORU32::operator __m128
  00216	0f 28 85 f0 00
	00 00		 movaps	 xmm0, XMMWORD PTR vTemp$[rbp]
  0021d	0f 54 00	 andps	 xmm0, XMMWORD PTR [rax]
  00220	0f 29 85 00 03
	00 00		 movaps	 XMMWORD PTR $T6[rbp], xmm0
  00227	0f 28 85 00 03
	00 00		 movaps	 xmm0, XMMWORD PTR $T6[rbp]
  0022e	0f 29 85 f0 00
	00 00		 movaps	 XMMWORD PTR vTemp$[rbp], xmm0

; 2593 :     M.r[1] = vTemp;

  00235	b8 10 00 00 00	 mov	 eax, 16
  0023a	48 6b c0 01	 imul	 rax, rax, 1
  0023e	0f 28 85 f0 00
	00 00		 movaps	 xmm0, XMMWORD PTR vTemp$[rbp]
  00245	0f 11 44 05 10	 movups	 XMMWORD PTR M$[rbp+rax], xmm0

; 2594 :     // x=fRange,y=-fRange * NearZ,0,1.0f
; 2595 :     vTemp = _mm_setzero_ps();

  0024a	0f 57 c0	 xorps	 xmm0, xmm0
  0024d	0f 29 85 60 03
	00 00		 movaps	 XMMWORD PTR $T8[rbp], xmm0
  00254	0f 28 85 60 03
	00 00		 movaps	 xmm0, XMMWORD PTR $T8[rbp]
  0025b	0f 29 85 f0 00
	00 00		 movaps	 XMMWORD PTR vTemp$[rbp], xmm0

; 2596 :     vValues = _mm_shuffle_ps(vValues,g_XMIdentityR3,_MM_SHUFFLE(3,2,3,2));

  00262	48 8d 95 c0 03
	00 00		 lea	 rdx, QWORD PTR $T10[rbp]
  00269	48 8d 0d 00 00
	00 00		 lea	 rcx, OFFSET FLAT:?g_XMIdentityR3@DirectX@@3UXMVECTORF32@1@B ; DirectX::g_XMIdentityR3
  00270	e8 00 00 00 00	 call	 ??BXMVECTORF32@DirectX@@QEBA?AT__m128@@XZ ; DirectX::XMVECTORF32::operator __m128
  00275	0f 28 85 c0 00
	00 00		 movaps	 xmm0, XMMWORD PTR vValues$[rbp]
  0027c	0f c6 00 ee	 shufps	 xmm0, XMMWORD PTR [rax], 238 ; 000000eeH
  00280	0f 29 85 90 03
	00 00		 movaps	 XMMWORD PTR $T9[rbp], xmm0
  00287	0f 28 85 90 03
	00 00		 movaps	 xmm0, XMMWORD PTR $T9[rbp]
  0028e	0f 29 85 c0 00
	00 00		 movaps	 XMMWORD PTR vValues$[rbp], xmm0

; 2597 :     // 0,0,fRange,0.0f
; 2598 :     vTemp = _mm_shuffle_ps(vTemp,vValues,_MM_SHUFFLE(2,0,0,0));

  00295	0f 28 85 f0 00
	00 00		 movaps	 xmm0, XMMWORD PTR vTemp$[rbp]
  0029c	0f c6 85 c0 00
	00 00 80	 shufps	 xmm0, XMMWORD PTR vValues$[rbp], 128 ; 00000080H
  002a4	0f 29 85 f0 03
	00 00		 movaps	 XMMWORD PTR $T11[rbp], xmm0
  002ab	0f 28 85 f0 03
	00 00		 movaps	 xmm0, XMMWORD PTR $T11[rbp]
  002b2	0f 29 85 f0 00
	00 00		 movaps	 XMMWORD PTR vTemp$[rbp], xmm0

; 2599 :     M.r[2] = vTemp;

  002b9	b8 10 00 00 00	 mov	 eax, 16
  002be	48 6b c0 02	 imul	 rax, rax, 2
  002c2	0f 28 85 f0 00
	00 00		 movaps	 xmm0, XMMWORD PTR vTemp$[rbp]
  002c9	0f 11 44 05 10	 movups	 XMMWORD PTR M$[rbp+rax], xmm0

; 2600 :     // 0,0,-fRange * NearZ,1.0f
; 2601 :     vTemp = _mm_shuffle_ps(vTemp,vValues,_MM_SHUFFLE(3,1,0,0));

  002ce	0f 28 85 f0 00
	00 00		 movaps	 xmm0, XMMWORD PTR vTemp$[rbp]
  002d5	0f c6 85 c0 00
	00 00 d0	 shufps	 xmm0, XMMWORD PTR vValues$[rbp], 208 ; 000000d0H
  002dd	0f 29 85 20 04
	00 00		 movaps	 XMMWORD PTR $T12[rbp], xmm0
  002e4	0f 28 85 20 04
	00 00		 movaps	 xmm0, XMMWORD PTR $T12[rbp]
  002eb	0f 29 85 f0 00
	00 00		 movaps	 XMMWORD PTR vTemp$[rbp], xmm0

; 2602 :     M.r[3] = vTemp;

  002f2	b8 10 00 00 00	 mov	 eax, 16
  002f7	48 6b c0 03	 imul	 rax, rax, 3
  002fb	0f 28 85 f0 00
	00 00		 movaps	 xmm0, XMMWORD PTR vTemp$[rbp]
  00302	0f 11 44 05 10	 movups	 XMMWORD PTR M$[rbp+rax], xmm0

; 2603 :     return M;

  00307	0f 28 5d 40	 movaps	 xmm3, XMMWORD PTR M$[rbp+48]
  0030b	0f 28 55 30	 movaps	 xmm2, XMMWORD PTR M$[rbp+32]
  0030f	0f 28 4d 20	 movaps	 xmm1, XMMWORD PTR M$[rbp+16]
  00313	0f 28 45 10	 movaps	 xmm0, XMMWORD PTR M$[rbp]

; 2604 : #endif
; 2605 : }

  00317	f3 0f 7f 44 24
	20		 movdqu	 XMMWORD PTR [rsp+32], xmm0
  0031d	48 8d 4d d0	 lea	 rcx, QWORD PTR [rbp-48]
  00321	48 8d 15 00 00
	00 00		 lea	 rdx, OFFSET FLAT:?XMMatrixOrthographicLH@DirectX@@YQ?AUXMMATRIX@1@MMMM@Z$rtcFrameData
  00328	e8 00 00 00 00	 call	 _RTC_CheckStackVars
  0032d	f3 0f 6f 44 24
	20		 movdqu	 xmm0, XMMWORD PTR [rsp+32]
  00333	48 8b 8d 38 04
	00 00		 mov	 rcx, QWORD PTR __$ArrayPad$[rbp]
  0033a	48 33 cd	 xor	 rcx, rbp
  0033d	e8 00 00 00 00	 call	 __security_check_cookie
  00342	48 8d a5 48 04
	00 00		 lea	 rsp, QWORD PTR [rbp+1096]
  00349	5f		 pop	 rdi
  0034a	5d		 pop	 rbp
  0034b	c3		 ret	 0
?XMMatrixOrthographicLH@DirectX@@YQ?AUXMMATRIX@1@MMMM@Z ENDP ; DirectX::XMMatrixOrthographicLH
_TEXT	ENDS
; Function compile flags: /Odtp /RTCsu /ZI
; File c:\program files (x86)\windows kits\8.1\include\um\directxmathmatrix.inl
;	COMDAT ?XMMatrixScaling@DirectX@@YQ?AUXMMATRIX@1@MMM@Z
_TEXT	SEGMENT
M$ = 16
$T4 = 304
$T5 = 352
$T6 = 400
__$ArrayPad$ = 424
ScaleX$ = 464
ScaleY$ = 472
ScaleZ$ = 480
?XMMatrixScaling@DirectX@@YQ?AUXMMATRIX@1@MMM@Z PROC	; DirectX::XMMatrixScaling, COMDAT

; 1148 : {

$LN3:
  00000	f3 0f 11 54 24
	18		 movss	 DWORD PTR [rsp+24], xmm2
  00006	f3 0f 11 4c 24
	10		 movss	 DWORD PTR [rsp+16], xmm1
  0000c	f3 0f 11 44 24
	08		 movss	 DWORD PTR [rsp+8], xmm0
  00012	55		 push	 rbp
  00013	57		 push	 rdi
  00014	48 81 ec e8 01
	00 00		 sub	 rsp, 488		; 000001e8H
  0001b	48 8d 6c 24 30	 lea	 rbp, QWORD PTR [rsp+48]
  00020	48 8b fc	 mov	 rdi, rsp
  00023	b9 7a 00 00 00	 mov	 ecx, 122		; 0000007aH
  00028	b8 cc cc cc cc	 mov	 eax, -858993460		; ccccccccH
  0002d	f3 ab		 rep stosd
  0002f	48 8b 05 00 00
	00 00		 mov	 rax, QWORD PTR __security_cookie
  00036	48 33 c5	 xor	 rax, rbp
  00039	48 89 85 a8 01
	00 00		 mov	 QWORD PTR __$ArrayPad$[rbp], rax

; 1149 : #if defined(_XM_NO_INTRINSICS_)
; 1150 : 
; 1151 :     XMMATRIX M;
; 1152 :     M.m[0][0] = ScaleX;
; 1153 :     M.m[0][1] = 0.0f;
; 1154 :     M.m[0][2] = 0.0f;
; 1155 :     M.m[0][3] = 0.0f;
; 1156 : 
; 1157 :     M.m[1][0] = 0.0f;
; 1158 :     M.m[1][1] = ScaleY;
; 1159 :     M.m[1][2] = 0.0f;
; 1160 :     M.m[1][3] = 0.0f;
; 1161 : 
; 1162 :     M.m[2][0] = 0.0f;
; 1163 :     M.m[2][1] = 0.0f;
; 1164 :     M.m[2][2] = ScaleZ;
; 1165 :     M.m[2][3] = 0.0f;
; 1166 : 
; 1167 :     M.m[3][0] = 0.0f;
; 1168 :     M.m[3][1] = 0.0f;
; 1169 :     M.m[3][2] = 0.0f;
; 1170 :     M.m[3][3] = 1.0f;
; 1171 :     return M;
; 1172 : 
; 1173 : #elif defined(_XM_ARM_NEON_INTRINSICS_)
; 1174 :     const XMVECTOR Zero = vdupq_n_f32(0);
; 1175 :     XMMATRIX M;
; 1176 :     M.r[0] = vsetq_lane_f32( ScaleX, Zero, 0 );
; 1177 :     M.r[1] = vsetq_lane_f32( ScaleY, Zero, 1 );
; 1178 :     M.r[2] = vsetq_lane_f32( ScaleZ, Zero, 2 );
; 1179 :     M.r[3] = g_XMIdentityR3.v;
; 1180 :     return M;
; 1181 : #elif defined(_XM_SSE_INTRINSICS_)
; 1182 :     XMMATRIX M;

  00040	48 8d 4d 10	 lea	 rcx, QWORD PTR M$[rbp]
  00044	e8 00 00 00 00	 call	 ??0XMMATRIX@DirectX@@QEAA@XZ ; DirectX::XMMATRIX::XMMATRIX

; 1183 :     M.r[0] = _mm_set_ps( 0, 0, 0, ScaleX );

  00049	0f 57 c0	 xorps	 xmm0, xmm0
  0004c	f3 0f 10 8d d0
	01 00 00	 movss	 xmm1, DWORD PTR ScaleX$[rbp]
  00054	0f 14 c8	 unpcklps xmm1, xmm0
  00057	0f 28 05 00 00
	00 00		 movaps	 xmm0, XMMWORD PTR __xmm@00000000000000000000000000000000
  0005e	0f 14 c8	 unpcklps xmm1, xmm0
  00061	0f 28 c1	 movaps	 xmm0, xmm1
  00064	0f 29 85 30 01
	00 00		 movaps	 XMMWORD PTR $T4[rbp], xmm0
  0006b	b8 10 00 00 00	 mov	 eax, 16
  00070	48 6b c0 00	 imul	 rax, rax, 0
  00074	0f 28 85 30 01
	00 00		 movaps	 xmm0, XMMWORD PTR $T4[rbp]
  0007b	0f 11 44 05 10	 movups	 XMMWORD PTR M$[rbp+rax], xmm0

; 1184 :     M.r[1] = _mm_set_ps( 0, 0, ScaleY, 0 );

  00080	0f 57 c0	 xorps	 xmm0, xmm0
  00083	f3 0f 10 8d d8
	01 00 00	 movss	 xmm1, DWORD PTR ScaleY$[rbp]
  0008b	0f 28 15 00 00
	00 00		 movaps	 xmm2, XMMWORD PTR __xmm@00000000000000000000000000000000
  00092	0f 14 c8	 unpcklps xmm1, xmm0
  00095	0f 28 c2	 movaps	 xmm0, xmm2
  00098	0f 14 c1	 unpcklps xmm0, xmm1
  0009b	0f 29 85 60 01
	00 00		 movaps	 XMMWORD PTR $T5[rbp], xmm0
  000a2	b8 10 00 00 00	 mov	 eax, 16
  000a7	48 6b c0 01	 imul	 rax, rax, 1
  000ab	0f 28 85 60 01
	00 00		 movaps	 xmm0, XMMWORD PTR $T5[rbp]
  000b2	0f 11 44 05 10	 movups	 XMMWORD PTR M$[rbp+rax], xmm0

; 1185 :     M.r[2] = _mm_set_ps( 0, ScaleZ, 0, 0 );

  000b7	f3 0f 10 85 e0
	01 00 00	 movss	 xmm0, DWORD PTR ScaleZ$[rbp]
  000bf	0f 57 c9	 xorps	 xmm1, xmm1
  000c2	0f 14 c8	 unpcklps xmm1, xmm0
  000c5	0f 28 05 00 00
	00 00		 movaps	 xmm0, XMMWORD PTR __xmm@00000000000000000000000000000000
  000cc	0f 14 c8	 unpcklps xmm1, xmm0
  000cf	0f 28 c1	 movaps	 xmm0, xmm1
  000d2	0f 29 85 90 01
	00 00		 movaps	 XMMWORD PTR $T6[rbp], xmm0
  000d9	b8 10 00 00 00	 mov	 eax, 16
  000de	48 6b c0 02	 imul	 rax, rax, 2
  000e2	0f 28 85 90 01
	00 00		 movaps	 xmm0, XMMWORD PTR $T6[rbp]
  000e9	0f 11 44 05 10	 movups	 XMMWORD PTR M$[rbp+rax], xmm0

; 1186 :     M.r[3] = g_XMIdentityR3.v;

  000ee	b8 10 00 00 00	 mov	 eax, 16
  000f3	48 6b c0 03	 imul	 rax, rax, 3
  000f7	0f 28 05 00 00
	00 00		 movaps	 xmm0, XMMWORD PTR ?g_XMIdentityR3@DirectX@@3UXMVECTORF32@1@B
  000fe	0f 11 44 05 10	 movups	 XMMWORD PTR M$[rbp+rax], xmm0

; 1187 :     return M;

  00103	0f 28 5d 40	 movaps	 xmm3, XMMWORD PTR M$[rbp+48]
  00107	0f 28 55 30	 movaps	 xmm2, XMMWORD PTR M$[rbp+32]
  0010b	0f 28 4d 20	 movaps	 xmm1, XMMWORD PTR M$[rbp+16]
  0010f	0f 28 45 10	 movaps	 xmm0, XMMWORD PTR M$[rbp]

; 1188 : #endif
; 1189 : }

  00113	f3 0f 7f 44 24
	20		 movdqu	 XMMWORD PTR [rsp+32], xmm0
  00119	48 8d 4d d0	 lea	 rcx, QWORD PTR [rbp-48]
  0011d	48 8d 15 00 00
	00 00		 lea	 rdx, OFFSET FLAT:?XMMatrixScaling@DirectX@@YQ?AUXMMATRIX@1@MMM@Z$rtcFrameData
  00124	e8 00 00 00 00	 call	 _RTC_CheckStackVars
  00129	f3 0f 6f 44 24
	20		 movdqu	 xmm0, XMMWORD PTR [rsp+32]
  0012f	48 8b 8d a8 01
	00 00		 mov	 rcx, QWORD PTR __$ArrayPad$[rbp]
  00136	48 33 cd	 xor	 rcx, rbp
  00139	e8 00 00 00 00	 call	 __security_check_cookie
  0013e	48 8d a5 b8 01
	00 00		 lea	 rsp, QWORD PTR [rbp+440]
  00145	5f		 pop	 rdi
  00146	5d		 pop	 rbp
  00147	c3		 ret	 0
?XMMatrixScaling@DirectX@@YQ?AUXMMATRIX@1@MMM@Z ENDP	; DirectX::XMMatrixScaling
_TEXT	ENDS
; Function compile flags: /Odtp /RTCsu /ZI
; File c:\program files (x86)\windows kits\8.1\include\um\directxmathmatrix.inl
;	COMDAT ?XMMatrixTranslation@DirectX@@YQ?AUXMMATRIX@1@MMM@Z
_TEXT	SEGMENT
M$ = 16
$T4 = 304
__$ArrayPad$ = 328
OffsetX$ = 368
OffsetY$ = 376
OffsetZ$ = 384
?XMMatrixTranslation@DirectX@@YQ?AUXMMATRIX@1@MMM@Z PROC ; DirectX::XMMatrixTranslation, COMDAT

; 1063 : {

$LN3:
  00000	f3 0f 11 54 24
	18		 movss	 DWORD PTR [rsp+24], xmm2
  00006	f3 0f 11 4c 24
	10		 movss	 DWORD PTR [rsp+16], xmm1
  0000c	f3 0f 11 44 24
	08		 movss	 DWORD PTR [rsp+8], xmm0
  00012	55		 push	 rbp
  00013	57		 push	 rdi
  00014	48 81 ec 88 01
	00 00		 sub	 rsp, 392		; 00000188H
  0001b	48 8d 6c 24 30	 lea	 rbp, QWORD PTR [rsp+48]
  00020	48 8b fc	 mov	 rdi, rsp
  00023	b9 62 00 00 00	 mov	 ecx, 98			; 00000062H
  00028	b8 cc cc cc cc	 mov	 eax, -858993460		; ccccccccH
  0002d	f3 ab		 rep stosd
  0002f	48 8b 05 00 00
	00 00		 mov	 rax, QWORD PTR __security_cookie
  00036	48 33 c5	 xor	 rax, rbp
  00039	48 89 85 48 01
	00 00		 mov	 QWORD PTR __$ArrayPad$[rbp], rax

; 1064 : #if defined(_XM_NO_INTRINSICS_)
; 1065 : 
; 1066 :     XMMATRIX M;
; 1067 :     M.m[0][0] = 1.0f;
; 1068 :     M.m[0][1] = 0.0f;
; 1069 :     M.m[0][2] = 0.0f;
; 1070 :     M.m[0][3] = 0.0f;
; 1071 : 
; 1072 :     M.m[1][0] = 0.0f;
; 1073 :     M.m[1][1] = 1.0f;
; 1074 :     M.m[1][2] = 0.0f;
; 1075 :     M.m[1][3] = 0.0f;
; 1076 : 
; 1077 :     M.m[2][0] = 0.0f;
; 1078 :     M.m[2][1] = 0.0f;
; 1079 :     M.m[2][2] = 1.0f;
; 1080 :     M.m[2][3] = 0.0f;
; 1081 : 
; 1082 :     M.m[3][0] = OffsetX;
; 1083 :     M.m[3][1] = OffsetY;
; 1084 :     M.m[3][2] = OffsetZ;
; 1085 :     M.m[3][3] = 1.0f;
; 1086 :     return M;
; 1087 : 
; 1088 : #elif defined(_XM_SSE_INTRINSICS_) || defined(_XM_ARM_NEON_INTRINSICS_)
; 1089 :     XMMATRIX M;

  00040	48 8d 4d 10	 lea	 rcx, QWORD PTR M$[rbp]
  00044	e8 00 00 00 00	 call	 ??0XMMATRIX@DirectX@@QEAA@XZ ; DirectX::XMMATRIX::XMMATRIX

; 1090 :     M.r[0] = g_XMIdentityR0.v;

  00049	b8 10 00 00 00	 mov	 eax, 16
  0004e	48 6b c0 00	 imul	 rax, rax, 0
  00052	0f 28 05 00 00
	00 00		 movaps	 xmm0, XMMWORD PTR ?g_XMIdentityR0@DirectX@@3UXMVECTORF32@1@B
  00059	0f 11 44 05 10	 movups	 XMMWORD PTR M$[rbp+rax], xmm0

; 1091 :     M.r[1] = g_XMIdentityR1.v;

  0005e	b8 10 00 00 00	 mov	 eax, 16
  00063	48 6b c0 01	 imul	 rax, rax, 1
  00067	0f 28 05 00 00
	00 00		 movaps	 xmm0, XMMWORD PTR ?g_XMIdentityR1@DirectX@@3UXMVECTORF32@1@B
  0006e	0f 11 44 05 10	 movups	 XMMWORD PTR M$[rbp+rax], xmm0

; 1092 :     M.r[2] = g_XMIdentityR2.v;

  00073	b8 10 00 00 00	 mov	 eax, 16
  00078	48 6b c0 02	 imul	 rax, rax, 2
  0007c	0f 28 05 00 00
	00 00		 movaps	 xmm0, XMMWORD PTR ?g_XMIdentityR2@DirectX@@3UXMVECTORF32@1@B
  00083	0f 11 44 05 10	 movups	 XMMWORD PTR M$[rbp+rax], xmm0

; 1093 :     M.r[3] = XMVectorSet(OffsetX, OffsetY, OffsetZ, 1.f );

  00088	f3 0f 10 1d 00
	00 00 00	 movss	 xmm3, DWORD PTR __real@3f800000
  00090	f3 0f 10 95 80
	01 00 00	 movss	 xmm2, DWORD PTR OffsetZ$[rbp]
  00098	f3 0f 10 8d 78
	01 00 00	 movss	 xmm1, DWORD PTR OffsetY$[rbp]
  000a0	f3 0f 10 85 70
	01 00 00	 movss	 xmm0, DWORD PTR OffsetX$[rbp]
  000a8	e8 00 00 00 00	 call	 ?XMVectorSet@DirectX@@YQ?AT__m128@@MMMM@Z ; DirectX::XMVectorSet
  000ad	0f 29 85 30 01
	00 00		 movaps	 XMMWORD PTR $T4[rbp], xmm0
  000b4	b8 10 00 00 00	 mov	 eax, 16
  000b9	48 6b c0 03	 imul	 rax, rax, 3
  000bd	0f 28 85 30 01
	00 00		 movaps	 xmm0, XMMWORD PTR $T4[rbp]
  000c4	0f 11 44 05 10	 movups	 XMMWORD PTR M$[rbp+rax], xmm0

; 1094 :     return M;

  000c9	0f 28 5d 40	 movaps	 xmm3, XMMWORD PTR M$[rbp+48]
  000cd	0f 28 55 30	 movaps	 xmm2, XMMWORD PTR M$[rbp+32]
  000d1	0f 28 4d 20	 movaps	 xmm1, XMMWORD PTR M$[rbp+16]
  000d5	0f 28 45 10	 movaps	 xmm0, XMMWORD PTR M$[rbp]

; 1095 : #endif
; 1096 : }

  000d9	f3 0f 7f 44 24
	20		 movdqu	 XMMWORD PTR [rsp+32], xmm0
  000df	48 8d 4d d0	 lea	 rcx, QWORD PTR [rbp-48]
  000e3	48 8d 15 00 00
	00 00		 lea	 rdx, OFFSET FLAT:?XMMatrixTranslation@DirectX@@YQ?AUXMMATRIX@1@MMM@Z$rtcFrameData
  000ea	e8 00 00 00 00	 call	 _RTC_CheckStackVars
  000ef	f3 0f 6f 44 24
	20		 movdqu	 xmm0, XMMWORD PTR [rsp+32]
  000f5	48 8b 8d 48 01
	00 00		 mov	 rcx, QWORD PTR __$ArrayPad$[rbp]
  000fc	48 33 cd	 xor	 rcx, rbp
  000ff	e8 00 00 00 00	 call	 __security_check_cookie
  00104	48 8d a5 58 01
	00 00		 lea	 rsp, QWORD PTR [rbp+344]
  0010b	5f		 pop	 rdi
  0010c	5d		 pop	 rbp
  0010d	c3		 ret	 0
?XMMatrixTranslation@DirectX@@YQ?AUXMMATRIX@1@MMM@Z ENDP ; DirectX::XMMatrixTranslation
_TEXT	ENDS
; Function compile flags: /Odtp /RTCsu /ZI
; File c:\program files (x86)\windows kits\8.1\include\um\directxmathmatrix.inl
;	COMDAT ?XMMatrixIdentity@DirectX@@YQ?AUXMMATRIX@1@XZ
_TEXT	SEGMENT
M$ = 16
__$ArrayPad$ = 280
?XMMatrixIdentity@DirectX@@YQ?AUXMMATRIX@1@XZ PROC	; DirectX::XMMatrixIdentity, COMDAT

; 1021 : {

$LN3:
  00000	40 55		 push	 rbp
  00002	57		 push	 rdi
  00003	48 81 ec 58 01
	00 00		 sub	 rsp, 344		; 00000158H
  0000a	48 8d 6c 24 30	 lea	 rbp, QWORD PTR [rsp+48]
  0000f	48 8b fc	 mov	 rdi, rsp
  00012	b9 56 00 00 00	 mov	 ecx, 86			; 00000056H
  00017	b8 cc cc cc cc	 mov	 eax, -858993460		; ccccccccH
  0001c	f3 ab		 rep stosd
  0001e	48 8b 05 00 00
	00 00		 mov	 rax, QWORD PTR __security_cookie
  00025	48 33 c5	 xor	 rax, rbp
  00028	48 89 85 18 01
	00 00		 mov	 QWORD PTR __$ArrayPad$[rbp], rax

; 1022 :     XMMATRIX M;

  0002f	48 8d 4d 10	 lea	 rcx, QWORD PTR M$[rbp]
  00033	e8 00 00 00 00	 call	 ??0XMMATRIX@DirectX@@QEAA@XZ ; DirectX::XMMATRIX::XMMATRIX

; 1023 :     M.r[0] = g_XMIdentityR0.v;

  00038	b8 10 00 00 00	 mov	 eax, 16
  0003d	48 6b c0 00	 imul	 rax, rax, 0
  00041	0f 28 05 00 00
	00 00		 movaps	 xmm0, XMMWORD PTR ?g_XMIdentityR0@DirectX@@3UXMVECTORF32@1@B
  00048	0f 11 44 05 10	 movups	 XMMWORD PTR M$[rbp+rax], xmm0

; 1024 :     M.r[1] = g_XMIdentityR1.v;

  0004d	b8 10 00 00 00	 mov	 eax, 16
  00052	48 6b c0 01	 imul	 rax, rax, 1
  00056	0f 28 05 00 00
	00 00		 movaps	 xmm0, XMMWORD PTR ?g_XMIdentityR1@DirectX@@3UXMVECTORF32@1@B
  0005d	0f 11 44 05 10	 movups	 XMMWORD PTR M$[rbp+rax], xmm0

; 1025 :     M.r[2] = g_XMIdentityR2.v;

  00062	b8 10 00 00 00	 mov	 eax, 16
  00067	48 6b c0 02	 imul	 rax, rax, 2
  0006b	0f 28 05 00 00
	00 00		 movaps	 xmm0, XMMWORD PTR ?g_XMIdentityR2@DirectX@@3UXMVECTORF32@1@B
  00072	0f 11 44 05 10	 movups	 XMMWORD PTR M$[rbp+rax], xmm0

; 1026 :     M.r[3] = g_XMIdentityR3.v;

  00077	b8 10 00 00 00	 mov	 eax, 16
  0007c	48 6b c0 03	 imul	 rax, rax, 3
  00080	0f 28 05 00 00
	00 00		 movaps	 xmm0, XMMWORD PTR ?g_XMIdentityR3@DirectX@@3UXMVECTORF32@1@B
  00087	0f 11 44 05 10	 movups	 XMMWORD PTR M$[rbp+rax], xmm0

; 1027 :     return M;

  0008c	0f 28 5d 40	 movaps	 xmm3, XMMWORD PTR M$[rbp+48]
  00090	0f 28 55 30	 movaps	 xmm2, XMMWORD PTR M$[rbp+32]
  00094	0f 28 4d 20	 movaps	 xmm1, XMMWORD PTR M$[rbp+16]
  00098	0f 28 45 10	 movaps	 xmm0, XMMWORD PTR M$[rbp]

; 1028 : }

  0009c	f3 0f 7f 44 24
	20		 movdqu	 XMMWORD PTR [rsp+32], xmm0
  000a2	48 8d 4d d0	 lea	 rcx, QWORD PTR [rbp-48]
  000a6	48 8d 15 00 00
	00 00		 lea	 rdx, OFFSET FLAT:?XMMatrixIdentity@DirectX@@YQ?AUXMMATRIX@1@XZ$rtcFrameData
  000ad	e8 00 00 00 00	 call	 _RTC_CheckStackVars
  000b2	f3 0f 6f 44 24
	20		 movdqu	 xmm0, XMMWORD PTR [rsp+32]
  000b8	48 8b 8d 18 01
	00 00		 mov	 rcx, QWORD PTR __$ArrayPad$[rbp]
  000bf	48 33 cd	 xor	 rcx, rbp
  000c2	e8 00 00 00 00	 call	 __security_check_cookie
  000c7	48 8d a5 28 01
	00 00		 lea	 rsp, QWORD PTR [rbp+296]
  000ce	5f		 pop	 rdi
  000cf	5d		 pop	 rbp
  000d0	c3		 ret	 0
?XMMatrixIdentity@DirectX@@YQ?AUXMMATRIX@1@XZ ENDP	; DirectX::XMMatrixIdentity
_TEXT	ENDS
; Function compile flags: /Odtp /RTCsu /ZI
; File c:\program files (x86)\windows kits\8.1\include\um\directxmathmatrix.inl
;	COMDAT ?XMMatrixMultiply@DirectX@@YQ?AUXMMATRIX@1@U21@AEBU21@@Z
_TEXT	SEGMENT
M1$ = 16
mResult$ = 112
vW$ = 208
vX$ = 256
vY$ = 304
vZ$ = 352
$T5 = 1360
$T6 = 1408
$T7 = 1456
$T8 = 1504
$T9 = 1552
$T10 = 1600
$T11 = 1648
$T12 = 1696
$T13 = 1744
$T14 = 1792
$T15 = 1840
$T16 = 1888
$T17 = 1936
$T18 = 1984
$T19 = 2032
$T20 = 2080
$T21 = 2128
$T22 = 2176
$T23 = 2224
$T24 = 2272
$T25 = 2320
$T26 = 2368
$T27 = 2416
$T28 = 2464
$T29 = 2512
$T30 = 2560
$T31 = 2608
$T32 = 2656
$T33 = 2704
$T34 = 2752
$T35 = 2800
$T36 = 2848
$T37 = 2896
$T38 = 2944
$T39 = 2992
$T40 = 3040
$T41 = 3088
$T42 = 3136
$T43 = 3184
$T44 = 3232
$T45 = 3280
$T46 = 3328
$T47 = 3376
$T48 = 3424
__$ArrayPad$ = 3448
M2$ = 3496
?XMMatrixMultiply@DirectX@@YQ?AUXMMATRIX@1@U21@AEBU21@@Z PROC ; DirectX::XMMatrixMultiply, COMDAT

; 226  : {

$LN3:
  00000	48 89 54 24 10	 mov	 QWORD PTR [rsp+16], rdx
  00005	55		 push	 rbp
  00006	57		 push	 rdi
  00007	48 81 ec b8 0d
	00 00		 sub	 rsp, 3512		; 00000db8H
  0000e	48 8d 6c 24 30	 lea	 rbp, QWORD PTR [rsp+48]
  00013	48 8b fc	 mov	 rdi, rsp
  00016	b9 6e 03 00 00	 mov	 ecx, 878		; 0000036eH
  0001b	b8 cc cc cc cc	 mov	 eax, -858993460		; ccccccccH
  00020	f3 ab		 rep stosd
  00022	48 8b 05 00 00
	00 00		 mov	 rax, QWORD PTR __security_cookie
  00029	48 33 c5	 xor	 rax, rbp
  0002c	48 89 85 78 0d
	00 00		 mov	 QWORD PTR __$ArrayPad$[rbp], rax
  00033	48 8d 45 10	 lea	 rax, QWORD PTR M1$[rbp]
  00037	48 89 84 24 d0
	0d 00 00	 mov	 QWORD PTR [rsp+3536], rax
  0003f	0f 29 5d 40	 movaps	 XMMWORD PTR M1$[rbp+48], xmm3
  00043	0f 29 55 30	 movaps	 XMMWORD PTR M1$[rbp+32], xmm2
  00047	0f 29 4d 20	 movaps	 XMMWORD PTR M1$[rbp+16], xmm1
  0004b	0f 29 45 10	 movaps	 XMMWORD PTR M1$[rbp], xmm0

; 227  : #if defined(_XM_NO_INTRINSICS_)
; 228  :     XMMATRIX mResult;
; 229  :     // Cache the invariants in registers
; 230  :     float x = M1.m[0][0];
; 231  :     float y = M1.m[0][1];
; 232  :     float z = M1.m[0][2];
; 233  :     float w = M1.m[0][3];
; 234  :     // Perform the operation on the first row
; 235  :     mResult.m[0][0] = (M2.m[0][0]*x)+(M2.m[1][0]*y)+(M2.m[2][0]*z)+(M2.m[3][0]*w);
; 236  :     mResult.m[0][1] = (M2.m[0][1]*x)+(M2.m[1][1]*y)+(M2.m[2][1]*z)+(M2.m[3][1]*w);
; 237  :     mResult.m[0][2] = (M2.m[0][2]*x)+(M2.m[1][2]*y)+(M2.m[2][2]*z)+(M2.m[3][2]*w);
; 238  :     mResult.m[0][3] = (M2.m[0][3]*x)+(M2.m[1][3]*y)+(M2.m[2][3]*z)+(M2.m[3][3]*w);
; 239  :     // Repeat for all the other rows
; 240  :     x = M1.m[1][0];
; 241  :     y = M1.m[1][1];
; 242  :     z = M1.m[1][2];
; 243  :     w = M1.m[1][3];
; 244  :     mResult.m[1][0] = (M2.m[0][0]*x)+(M2.m[1][0]*y)+(M2.m[2][0]*z)+(M2.m[3][0]*w);
; 245  :     mResult.m[1][1] = (M2.m[0][1]*x)+(M2.m[1][1]*y)+(M2.m[2][1]*z)+(M2.m[3][1]*w);
; 246  :     mResult.m[1][2] = (M2.m[0][2]*x)+(M2.m[1][2]*y)+(M2.m[2][2]*z)+(M2.m[3][2]*w);
; 247  :     mResult.m[1][3] = (M2.m[0][3]*x)+(M2.m[1][3]*y)+(M2.m[2][3]*z)+(M2.m[3][3]*w);
; 248  :     x = M1.m[2][0];
; 249  :     y = M1.m[2][1];
; 250  :     z = M1.m[2][2];
; 251  :     w = M1.m[2][3];
; 252  :     mResult.m[2][0] = (M2.m[0][0]*x)+(M2.m[1][0]*y)+(M2.m[2][0]*z)+(M2.m[3][0]*w);
; 253  :     mResult.m[2][1] = (M2.m[0][1]*x)+(M2.m[1][1]*y)+(M2.m[2][1]*z)+(M2.m[3][1]*w);
; 254  :     mResult.m[2][2] = (M2.m[0][2]*x)+(M2.m[1][2]*y)+(M2.m[2][2]*z)+(M2.m[3][2]*w);
; 255  :     mResult.m[2][3] = (M2.m[0][3]*x)+(M2.m[1][3]*y)+(M2.m[2][3]*z)+(M2.m[3][3]*w);
; 256  :     x = M1.m[3][0];
; 257  :     y = M1.m[3][1];
; 258  :     z = M1.m[3][2];
; 259  :     w = M1.m[3][3];
; 260  :     mResult.m[3][0] = (M2.m[0][0]*x)+(M2.m[1][0]*y)+(M2.m[2][0]*z)+(M2.m[3][0]*w);
; 261  :     mResult.m[3][1] = (M2.m[0][1]*x)+(M2.m[1][1]*y)+(M2.m[2][1]*z)+(M2.m[3][1]*w);
; 262  :     mResult.m[3][2] = (M2.m[0][2]*x)+(M2.m[1][2]*y)+(M2.m[2][2]*z)+(M2.m[3][2]*w);
; 263  :     mResult.m[3][3] = (M2.m[0][3]*x)+(M2.m[1][3]*y)+(M2.m[2][3]*z)+(M2.m[3][3]*w);
; 264  :     return mResult;
; 265  : #elif defined(_XM_ARM_NEON_INTRINSICS_)
; 266  :     XMMATRIX mResult;
; 267  :     float32x2_t VL = vget_low_f32( M1.r[0] );
; 268  :     float32x2_t VH = vget_high_f32( M1.r[0] );
; 269  :     // Perform the operation on the first row
; 270  :     XMVECTOR vX = XM_VMULQ_LANE_F32(M2.r[0], VL, 0);
; 271  :     XMVECTOR vY = XM_VMULQ_LANE_F32(M2.r[1], VL, 1);
; 272  :     XMVECTOR vZ = XM_VMLAQ_LANE_F32(vX, M2.r[2], VH, 0);
; 273  :     XMVECTOR vW = XM_VMLAQ_LANE_F32(vY, M2.r[3], VH, 1);
; 274  :     mResult.r[0] = vaddq_f32( vZ, vW );
; 275  :     // Repeat for the other 3 rows
; 276  :     VL = vget_low_f32( M1.r[1] );
; 277  :     VH = vget_high_f32( M1.r[1] );
; 278  :     vX = XM_VMULQ_LANE_F32(M2.r[0], VL, 0);
; 279  :     vY = XM_VMULQ_LANE_F32(M2.r[1], VL, 1);
; 280  :     vZ = XM_VMLAQ_LANE_F32(vX, M2.r[2], VH, 0);
; 281  :     vW = XM_VMLAQ_LANE_F32(vY, M2.r[3], VH, 1);
; 282  :     mResult.r[1] = vaddq_f32( vZ, vW );
; 283  :     VL = vget_low_f32( M1.r[2] );
; 284  :     VH = vget_high_f32( M1.r[2] );
; 285  :     vX = XM_VMULQ_LANE_F32(M2.r[0], VL, 0);
; 286  :     vY = XM_VMULQ_LANE_F32(M2.r[1], VL, 1);
; 287  :     vZ = XM_VMLAQ_LANE_F32(vX, M2.r[2], VH, 0);
; 288  :     vW = XM_VMLAQ_LANE_F32(vY, M2.r[3], VH, 1);
; 289  :     mResult.r[2] = vaddq_f32( vZ, vW );
; 290  :     VL = vget_low_f32( M1.r[3] );
; 291  :     VH = vget_high_f32( M1.r[3] );
; 292  :     vX = XM_VMULQ_LANE_F32(M2.r[0], VL, 0);
; 293  :     vY = XM_VMULQ_LANE_F32(M2.r[1], VL, 1);
; 294  :     vZ = XM_VMLAQ_LANE_F32(vX, M2.r[2], VH, 0);
; 295  :     vW = XM_VMLAQ_LANE_F32(vY, M2.r[3], VH, 1);
; 296  :     mResult.r[3] = vaddq_f32( vZ, vW );
; 297  :     return mResult;
; 298  : #elif defined(_XM_SSE_INTRINSICS_)
; 299  :     XMMATRIX mResult;

  0004f	48 8d 4d 70	 lea	 rcx, QWORD PTR mResult$[rbp]
  00053	e8 00 00 00 00	 call	 ??0XMMATRIX@DirectX@@QEAA@XZ ; DirectX::XMMATRIX::XMMATRIX

; 300  :     // Use vW to hold the original row
; 301  :     XMVECTOR vW = M1.r[0];

  00058	b8 10 00 00 00	 mov	 eax, 16
  0005d	48 6b c0 00	 imul	 rax, rax, 0
  00061	0f 10 44 05 10	 movups	 xmm0, XMMWORD PTR M1$[rbp+rax]
  00066	0f 11 85 d0 00
	00 00		 movups	 XMMWORD PTR vW$[rbp], xmm0

; 302  :     // Splat the component X,Y,Z then W
; 303  :     XMVECTOR vX = XM_PERMUTE_PS(vW,_MM_SHUFFLE(0,0,0,0));

  0006d	0f 28 85 d0 00
	00 00		 movaps	 xmm0, XMMWORD PTR vW$[rbp]
  00074	0f c6 85 d0 00
	00 00 00	 shufps	 xmm0, XMMWORD PTR vW$[rbp], 0
  0007c	0f 29 85 50 05
	00 00		 movaps	 XMMWORD PTR $T5[rbp], xmm0
  00083	0f 28 85 50 05
	00 00		 movaps	 xmm0, XMMWORD PTR $T5[rbp]
  0008a	0f 29 85 00 01
	00 00		 movaps	 XMMWORD PTR vX$[rbp], xmm0

; 304  :     XMVECTOR vY = XM_PERMUTE_PS(vW,_MM_SHUFFLE(1,1,1,1));

  00091	0f 28 85 d0 00
	00 00		 movaps	 xmm0, XMMWORD PTR vW$[rbp]
  00098	0f c6 85 d0 00
	00 00 55	 shufps	 xmm0, XMMWORD PTR vW$[rbp], 85 ; 00000055H
  000a0	0f 29 85 80 05
	00 00		 movaps	 XMMWORD PTR $T6[rbp], xmm0
  000a7	0f 28 85 80 05
	00 00		 movaps	 xmm0, XMMWORD PTR $T6[rbp]
  000ae	0f 29 85 30 01
	00 00		 movaps	 XMMWORD PTR vY$[rbp], xmm0

; 305  :     XMVECTOR vZ = XM_PERMUTE_PS(vW,_MM_SHUFFLE(2,2,2,2));

  000b5	0f 28 85 d0 00
	00 00		 movaps	 xmm0, XMMWORD PTR vW$[rbp]
  000bc	0f c6 85 d0 00
	00 00 aa	 shufps	 xmm0, XMMWORD PTR vW$[rbp], 170 ; 000000aaH
  000c4	0f 29 85 b0 05
	00 00		 movaps	 XMMWORD PTR $T7[rbp], xmm0
  000cb	0f 28 85 b0 05
	00 00		 movaps	 xmm0, XMMWORD PTR $T7[rbp]
  000d2	0f 29 85 60 01
	00 00		 movaps	 XMMWORD PTR vZ$[rbp], xmm0

; 306  :     vW = XM_PERMUTE_PS(vW,_MM_SHUFFLE(3,3,3,3));

  000d9	0f 28 85 d0 00
	00 00		 movaps	 xmm0, XMMWORD PTR vW$[rbp]
  000e0	0f c6 85 d0 00
	00 00 ff	 shufps	 xmm0, XMMWORD PTR vW$[rbp], 255 ; 000000ffH
  000e8	0f 29 85 e0 05
	00 00		 movaps	 XMMWORD PTR $T8[rbp], xmm0
  000ef	0f 28 85 e0 05
	00 00		 movaps	 xmm0, XMMWORD PTR $T8[rbp]
  000f6	0f 29 85 d0 00
	00 00		 movaps	 XMMWORD PTR vW$[rbp], xmm0

; 307  :     // Perform the operation on the first row
; 308  :     vX = _mm_mul_ps(vX,M2.r[0]);

  000fd	b8 10 00 00 00	 mov	 eax, 16
  00102	48 6b c0 00	 imul	 rax, rax, 0
  00106	48 8b 8d a8 0d
	00 00		 mov	 rcx, QWORD PTR M2$[rbp]
  0010d	0f 28 85 00 01
	00 00		 movaps	 xmm0, XMMWORD PTR vX$[rbp]
  00114	0f 59 04 01	 mulps	 xmm0, XMMWORD PTR [rcx+rax]
  00118	0f 29 85 10 06
	00 00		 movaps	 XMMWORD PTR $T9[rbp], xmm0
  0011f	0f 28 85 10 06
	00 00		 movaps	 xmm0, XMMWORD PTR $T9[rbp]
  00126	0f 29 85 00 01
	00 00		 movaps	 XMMWORD PTR vX$[rbp], xmm0

; 309  :     vY = _mm_mul_ps(vY,M2.r[1]);

  0012d	b8 10 00 00 00	 mov	 eax, 16
  00132	48 6b c0 01	 imul	 rax, rax, 1
  00136	48 8b 8d a8 0d
	00 00		 mov	 rcx, QWORD PTR M2$[rbp]
  0013d	0f 28 85 30 01
	00 00		 movaps	 xmm0, XMMWORD PTR vY$[rbp]
  00144	0f 59 04 01	 mulps	 xmm0, XMMWORD PTR [rcx+rax]
  00148	0f 29 85 40 06
	00 00		 movaps	 XMMWORD PTR $T10[rbp], xmm0
  0014f	0f 28 85 40 06
	00 00		 movaps	 xmm0, XMMWORD PTR $T10[rbp]
  00156	0f 29 85 30 01
	00 00		 movaps	 XMMWORD PTR vY$[rbp], xmm0

; 310  :     vZ = _mm_mul_ps(vZ,M2.r[2]);

  0015d	b8 10 00 00 00	 mov	 eax, 16
  00162	48 6b c0 02	 imul	 rax, rax, 2
  00166	48 8b 8d a8 0d
	00 00		 mov	 rcx, QWORD PTR M2$[rbp]
  0016d	0f 28 85 60 01
	00 00		 movaps	 xmm0, XMMWORD PTR vZ$[rbp]
  00174	0f 59 04 01	 mulps	 xmm0, XMMWORD PTR [rcx+rax]
  00178	0f 29 85 70 06
	00 00		 movaps	 XMMWORD PTR $T11[rbp], xmm0
  0017f	0f 28 85 70 06
	00 00		 movaps	 xmm0, XMMWORD PTR $T11[rbp]
  00186	0f 29 85 60 01
	00 00		 movaps	 XMMWORD PTR vZ$[rbp], xmm0

; 311  :     vW = _mm_mul_ps(vW,M2.r[3]);

  0018d	b8 10 00 00 00	 mov	 eax, 16
  00192	48 6b c0 03	 imul	 rax, rax, 3
  00196	48 8b 8d a8 0d
	00 00		 mov	 rcx, QWORD PTR M2$[rbp]
  0019d	0f 28 85 d0 00
	00 00		 movaps	 xmm0, XMMWORD PTR vW$[rbp]
  001a4	0f 59 04 01	 mulps	 xmm0, XMMWORD PTR [rcx+rax]
  001a8	0f 29 85 a0 06
	00 00		 movaps	 XMMWORD PTR $T12[rbp], xmm0
  001af	0f 28 85 a0 06
	00 00		 movaps	 xmm0, XMMWORD PTR $T12[rbp]
  001b6	0f 29 85 d0 00
	00 00		 movaps	 XMMWORD PTR vW$[rbp], xmm0

; 312  :     // Perform a binary add to reduce cumulative errors
; 313  :     vX = _mm_add_ps(vX,vZ);

  001bd	0f 28 85 00 01
	00 00		 movaps	 xmm0, XMMWORD PTR vX$[rbp]
  001c4	0f 58 85 60 01
	00 00		 addps	 xmm0, XMMWORD PTR vZ$[rbp]
  001cb	0f 29 85 d0 06
	00 00		 movaps	 XMMWORD PTR $T13[rbp], xmm0
  001d2	0f 28 85 d0 06
	00 00		 movaps	 xmm0, XMMWORD PTR $T13[rbp]
  001d9	0f 29 85 00 01
	00 00		 movaps	 XMMWORD PTR vX$[rbp], xmm0

; 314  :     vY = _mm_add_ps(vY,vW);

  001e0	0f 28 85 30 01
	00 00		 movaps	 xmm0, XMMWORD PTR vY$[rbp]
  001e7	0f 58 85 d0 00
	00 00		 addps	 xmm0, XMMWORD PTR vW$[rbp]
  001ee	0f 29 85 00 07
	00 00		 movaps	 XMMWORD PTR $T14[rbp], xmm0
  001f5	0f 28 85 00 07
	00 00		 movaps	 xmm0, XMMWORD PTR $T14[rbp]
  001fc	0f 29 85 30 01
	00 00		 movaps	 XMMWORD PTR vY$[rbp], xmm0

; 315  :     vX = _mm_add_ps(vX,vY);

  00203	0f 28 85 00 01
	00 00		 movaps	 xmm0, XMMWORD PTR vX$[rbp]
  0020a	0f 58 85 30 01
	00 00		 addps	 xmm0, XMMWORD PTR vY$[rbp]
  00211	0f 29 85 30 07
	00 00		 movaps	 XMMWORD PTR $T15[rbp], xmm0
  00218	0f 28 85 30 07
	00 00		 movaps	 xmm0, XMMWORD PTR $T15[rbp]
  0021f	0f 29 85 00 01
	00 00		 movaps	 XMMWORD PTR vX$[rbp], xmm0

; 316  :     mResult.r[0] = vX;

  00226	b8 10 00 00 00	 mov	 eax, 16
  0022b	48 6b c0 00	 imul	 rax, rax, 0
  0022f	0f 28 85 00 01
	00 00		 movaps	 xmm0, XMMWORD PTR vX$[rbp]
  00236	0f 11 44 05 70	 movups	 XMMWORD PTR mResult$[rbp+rax], xmm0

; 317  :     // Repeat for the other 3 rows
; 318  :     vW = M1.r[1];

  0023b	b8 10 00 00 00	 mov	 eax, 16
  00240	48 6b c0 01	 imul	 rax, rax, 1
  00244	0f 10 44 05 10	 movups	 xmm0, XMMWORD PTR M1$[rbp+rax]
  00249	0f 11 85 d0 00
	00 00		 movups	 XMMWORD PTR vW$[rbp], xmm0

; 319  :     vX = XM_PERMUTE_PS(vW,_MM_SHUFFLE(0,0,0,0));

  00250	0f 28 85 d0 00
	00 00		 movaps	 xmm0, XMMWORD PTR vW$[rbp]
  00257	0f c6 85 d0 00
	00 00 00	 shufps	 xmm0, XMMWORD PTR vW$[rbp], 0
  0025f	0f 29 85 60 07
	00 00		 movaps	 XMMWORD PTR $T16[rbp], xmm0
  00266	0f 28 85 60 07
	00 00		 movaps	 xmm0, XMMWORD PTR $T16[rbp]
  0026d	0f 29 85 00 01
	00 00		 movaps	 XMMWORD PTR vX$[rbp], xmm0

; 320  :     vY = XM_PERMUTE_PS(vW,_MM_SHUFFLE(1,1,1,1));

  00274	0f 28 85 d0 00
	00 00		 movaps	 xmm0, XMMWORD PTR vW$[rbp]
  0027b	0f c6 85 d0 00
	00 00 55	 shufps	 xmm0, XMMWORD PTR vW$[rbp], 85 ; 00000055H
  00283	0f 29 85 90 07
	00 00		 movaps	 XMMWORD PTR $T17[rbp], xmm0
  0028a	0f 28 85 90 07
	00 00		 movaps	 xmm0, XMMWORD PTR $T17[rbp]
  00291	0f 29 85 30 01
	00 00		 movaps	 XMMWORD PTR vY$[rbp], xmm0

; 321  :     vZ = XM_PERMUTE_PS(vW,_MM_SHUFFLE(2,2,2,2));

  00298	0f 28 85 d0 00
	00 00		 movaps	 xmm0, XMMWORD PTR vW$[rbp]
  0029f	0f c6 85 d0 00
	00 00 aa	 shufps	 xmm0, XMMWORD PTR vW$[rbp], 170 ; 000000aaH
  002a7	0f 29 85 c0 07
	00 00		 movaps	 XMMWORD PTR $T18[rbp], xmm0
  002ae	0f 28 85 c0 07
	00 00		 movaps	 xmm0, XMMWORD PTR $T18[rbp]
  002b5	0f 29 85 60 01
	00 00		 movaps	 XMMWORD PTR vZ$[rbp], xmm0

; 322  :     vW = XM_PERMUTE_PS(vW,_MM_SHUFFLE(3,3,3,3));

  002bc	0f 28 85 d0 00
	00 00		 movaps	 xmm0, XMMWORD PTR vW$[rbp]
  002c3	0f c6 85 d0 00
	00 00 ff	 shufps	 xmm0, XMMWORD PTR vW$[rbp], 255 ; 000000ffH
  002cb	0f 29 85 f0 07
	00 00		 movaps	 XMMWORD PTR $T19[rbp], xmm0
  002d2	0f 28 85 f0 07
	00 00		 movaps	 xmm0, XMMWORD PTR $T19[rbp]
  002d9	0f 29 85 d0 00
	00 00		 movaps	 XMMWORD PTR vW$[rbp], xmm0

; 323  :     vX = _mm_mul_ps(vX,M2.r[0]);

  002e0	b8 10 00 00 00	 mov	 eax, 16
  002e5	48 6b c0 00	 imul	 rax, rax, 0
  002e9	48 8b 8d a8 0d
	00 00		 mov	 rcx, QWORD PTR M2$[rbp]
  002f0	0f 28 85 00 01
	00 00		 movaps	 xmm0, XMMWORD PTR vX$[rbp]
  002f7	0f 59 04 01	 mulps	 xmm0, XMMWORD PTR [rcx+rax]
  002fb	0f 29 85 20 08
	00 00		 movaps	 XMMWORD PTR $T20[rbp], xmm0
  00302	0f 28 85 20 08
	00 00		 movaps	 xmm0, XMMWORD PTR $T20[rbp]
  00309	0f 29 85 00 01
	00 00		 movaps	 XMMWORD PTR vX$[rbp], xmm0

; 324  :     vY = _mm_mul_ps(vY,M2.r[1]);

  00310	b8 10 00 00 00	 mov	 eax, 16
  00315	48 6b c0 01	 imul	 rax, rax, 1
  00319	48 8b 8d a8 0d
	00 00		 mov	 rcx, QWORD PTR M2$[rbp]
  00320	0f 28 85 30 01
	00 00		 movaps	 xmm0, XMMWORD PTR vY$[rbp]
  00327	0f 59 04 01	 mulps	 xmm0, XMMWORD PTR [rcx+rax]
  0032b	0f 29 85 50 08
	00 00		 movaps	 XMMWORD PTR $T21[rbp], xmm0
  00332	0f 28 85 50 08
	00 00		 movaps	 xmm0, XMMWORD PTR $T21[rbp]
  00339	0f 29 85 30 01
	00 00		 movaps	 XMMWORD PTR vY$[rbp], xmm0

; 325  :     vZ = _mm_mul_ps(vZ,M2.r[2]);

  00340	b8 10 00 00 00	 mov	 eax, 16
  00345	48 6b c0 02	 imul	 rax, rax, 2
  00349	48 8b 8d a8 0d
	00 00		 mov	 rcx, QWORD PTR M2$[rbp]
  00350	0f 28 85 60 01
	00 00		 movaps	 xmm0, XMMWORD PTR vZ$[rbp]
  00357	0f 59 04 01	 mulps	 xmm0, XMMWORD PTR [rcx+rax]
  0035b	0f 29 85 80 08
	00 00		 movaps	 XMMWORD PTR $T22[rbp], xmm0
  00362	0f 28 85 80 08
	00 00		 movaps	 xmm0, XMMWORD PTR $T22[rbp]
  00369	0f 29 85 60 01
	00 00		 movaps	 XMMWORD PTR vZ$[rbp], xmm0

; 326  :     vW = _mm_mul_ps(vW,M2.r[3]);

  00370	b8 10 00 00 00	 mov	 eax, 16
  00375	48 6b c0 03	 imul	 rax, rax, 3
  00379	48 8b 8d a8 0d
	00 00		 mov	 rcx, QWORD PTR M2$[rbp]
  00380	0f 28 85 d0 00
	00 00		 movaps	 xmm0, XMMWORD PTR vW$[rbp]
  00387	0f 59 04 01	 mulps	 xmm0, XMMWORD PTR [rcx+rax]
  0038b	0f 29 85 b0 08
	00 00		 movaps	 XMMWORD PTR $T23[rbp], xmm0
  00392	0f 28 85 b0 08
	00 00		 movaps	 xmm0, XMMWORD PTR $T23[rbp]
  00399	0f 29 85 d0 00
	00 00		 movaps	 XMMWORD PTR vW$[rbp], xmm0

; 327  :     vX = _mm_add_ps(vX,vZ);

  003a0	0f 28 85 00 01
	00 00		 movaps	 xmm0, XMMWORD PTR vX$[rbp]
  003a7	0f 58 85 60 01
	00 00		 addps	 xmm0, XMMWORD PTR vZ$[rbp]
  003ae	0f 29 85 e0 08
	00 00		 movaps	 XMMWORD PTR $T24[rbp], xmm0
  003b5	0f 28 85 e0 08
	00 00		 movaps	 xmm0, XMMWORD PTR $T24[rbp]
  003bc	0f 29 85 00 01
	00 00		 movaps	 XMMWORD PTR vX$[rbp], xmm0

; 328  :     vY = _mm_add_ps(vY,vW);

  003c3	0f 28 85 30 01
	00 00		 movaps	 xmm0, XMMWORD PTR vY$[rbp]
  003ca	0f 58 85 d0 00
	00 00		 addps	 xmm0, XMMWORD PTR vW$[rbp]
  003d1	0f 29 85 10 09
	00 00		 movaps	 XMMWORD PTR $T25[rbp], xmm0
  003d8	0f 28 85 10 09
	00 00		 movaps	 xmm0, XMMWORD PTR $T25[rbp]
  003df	0f 29 85 30 01
	00 00		 movaps	 XMMWORD PTR vY$[rbp], xmm0

; 329  :     vX = _mm_add_ps(vX,vY);

  003e6	0f 28 85 00 01
	00 00		 movaps	 xmm0, XMMWORD PTR vX$[rbp]
  003ed	0f 58 85 30 01
	00 00		 addps	 xmm0, XMMWORD PTR vY$[rbp]
  003f4	0f 29 85 40 09
	00 00		 movaps	 XMMWORD PTR $T26[rbp], xmm0
  003fb	0f 28 85 40 09
	00 00		 movaps	 xmm0, XMMWORD PTR $T26[rbp]
  00402	0f 29 85 00 01
	00 00		 movaps	 XMMWORD PTR vX$[rbp], xmm0

; 330  :     mResult.r[1] = vX;

  00409	b8 10 00 00 00	 mov	 eax, 16
  0040e	48 6b c0 01	 imul	 rax, rax, 1
  00412	0f 28 85 00 01
	00 00		 movaps	 xmm0, XMMWORD PTR vX$[rbp]
  00419	0f 11 44 05 70	 movups	 XMMWORD PTR mResult$[rbp+rax], xmm0

; 331  :     vW = M1.r[2];

  0041e	b8 10 00 00 00	 mov	 eax, 16
  00423	48 6b c0 02	 imul	 rax, rax, 2
  00427	0f 10 44 05 10	 movups	 xmm0, XMMWORD PTR M1$[rbp+rax]
  0042c	0f 11 85 d0 00
	00 00		 movups	 XMMWORD PTR vW$[rbp], xmm0

; 332  :     vX = XM_PERMUTE_PS(vW,_MM_SHUFFLE(0,0,0,0));

  00433	0f 28 85 d0 00
	00 00		 movaps	 xmm0, XMMWORD PTR vW$[rbp]
  0043a	0f c6 85 d0 00
	00 00 00	 shufps	 xmm0, XMMWORD PTR vW$[rbp], 0
  00442	0f 29 85 70 09
	00 00		 movaps	 XMMWORD PTR $T27[rbp], xmm0
  00449	0f 28 85 70 09
	00 00		 movaps	 xmm0, XMMWORD PTR $T27[rbp]
  00450	0f 29 85 00 01
	00 00		 movaps	 XMMWORD PTR vX$[rbp], xmm0

; 333  :     vY = XM_PERMUTE_PS(vW,_MM_SHUFFLE(1,1,1,1));

  00457	0f 28 85 d0 00
	00 00		 movaps	 xmm0, XMMWORD PTR vW$[rbp]
  0045e	0f c6 85 d0 00
	00 00 55	 shufps	 xmm0, XMMWORD PTR vW$[rbp], 85 ; 00000055H
  00466	0f 29 85 a0 09
	00 00		 movaps	 XMMWORD PTR $T28[rbp], xmm0
  0046d	0f 28 85 a0 09
	00 00		 movaps	 xmm0, XMMWORD PTR $T28[rbp]
  00474	0f 29 85 30 01
	00 00		 movaps	 XMMWORD PTR vY$[rbp], xmm0

; 334  :     vZ = XM_PERMUTE_PS(vW,_MM_SHUFFLE(2,2,2,2));

  0047b	0f 28 85 d0 00
	00 00		 movaps	 xmm0, XMMWORD PTR vW$[rbp]
  00482	0f c6 85 d0 00
	00 00 aa	 shufps	 xmm0, XMMWORD PTR vW$[rbp], 170 ; 000000aaH
  0048a	0f 29 85 d0 09
	00 00		 movaps	 XMMWORD PTR $T29[rbp], xmm0
  00491	0f 28 85 d0 09
	00 00		 movaps	 xmm0, XMMWORD PTR $T29[rbp]
  00498	0f 29 85 60 01
	00 00		 movaps	 XMMWORD PTR vZ$[rbp], xmm0

; 335  :     vW = XM_PERMUTE_PS(vW,_MM_SHUFFLE(3,3,3,3));

  0049f	0f 28 85 d0 00
	00 00		 movaps	 xmm0, XMMWORD PTR vW$[rbp]
  004a6	0f c6 85 d0 00
	00 00 ff	 shufps	 xmm0, XMMWORD PTR vW$[rbp], 255 ; 000000ffH
  004ae	0f 29 85 00 0a
	00 00		 movaps	 XMMWORD PTR $T30[rbp], xmm0
  004b5	0f 28 85 00 0a
	00 00		 movaps	 xmm0, XMMWORD PTR $T30[rbp]
  004bc	0f 29 85 d0 00
	00 00		 movaps	 XMMWORD PTR vW$[rbp], xmm0

; 336  :     vX = _mm_mul_ps(vX,M2.r[0]);

  004c3	b8 10 00 00 00	 mov	 eax, 16
  004c8	48 6b c0 00	 imul	 rax, rax, 0
  004cc	48 8b 8d a8 0d
	00 00		 mov	 rcx, QWORD PTR M2$[rbp]
  004d3	0f 28 85 00 01
	00 00		 movaps	 xmm0, XMMWORD PTR vX$[rbp]
  004da	0f 59 04 01	 mulps	 xmm0, XMMWORD PTR [rcx+rax]
  004de	0f 29 85 30 0a
	00 00		 movaps	 XMMWORD PTR $T31[rbp], xmm0
  004e5	0f 28 85 30 0a
	00 00		 movaps	 xmm0, XMMWORD PTR $T31[rbp]
  004ec	0f 29 85 00 01
	00 00		 movaps	 XMMWORD PTR vX$[rbp], xmm0

; 337  :     vY = _mm_mul_ps(vY,M2.r[1]);

  004f3	b8 10 00 00 00	 mov	 eax, 16
  004f8	48 6b c0 01	 imul	 rax, rax, 1
  004fc	48 8b 8d a8 0d
	00 00		 mov	 rcx, QWORD PTR M2$[rbp]
  00503	0f 28 85 30 01
	00 00		 movaps	 xmm0, XMMWORD PTR vY$[rbp]
  0050a	0f 59 04 01	 mulps	 xmm0, XMMWORD PTR [rcx+rax]
  0050e	0f 29 85 60 0a
	00 00		 movaps	 XMMWORD PTR $T32[rbp], xmm0
  00515	0f 28 85 60 0a
	00 00		 movaps	 xmm0, XMMWORD PTR $T32[rbp]
  0051c	0f 29 85 30 01
	00 00		 movaps	 XMMWORD PTR vY$[rbp], xmm0

; 338  :     vZ = _mm_mul_ps(vZ,M2.r[2]);

  00523	b8 10 00 00 00	 mov	 eax, 16
  00528	48 6b c0 02	 imul	 rax, rax, 2
  0052c	48 8b 8d a8 0d
	00 00		 mov	 rcx, QWORD PTR M2$[rbp]
  00533	0f 28 85 60 01
	00 00		 movaps	 xmm0, XMMWORD PTR vZ$[rbp]
  0053a	0f 59 04 01	 mulps	 xmm0, XMMWORD PTR [rcx+rax]
  0053e	0f 29 85 90 0a
	00 00		 movaps	 XMMWORD PTR $T33[rbp], xmm0
  00545	0f 28 85 90 0a
	00 00		 movaps	 xmm0, XMMWORD PTR $T33[rbp]
  0054c	0f 29 85 60 01
	00 00		 movaps	 XMMWORD PTR vZ$[rbp], xmm0

; 339  :     vW = _mm_mul_ps(vW,M2.r[3]);

  00553	b8 10 00 00 00	 mov	 eax, 16
  00558	48 6b c0 03	 imul	 rax, rax, 3
  0055c	48 8b 8d a8 0d
	00 00		 mov	 rcx, QWORD PTR M2$[rbp]
  00563	0f 28 85 d0 00
	00 00		 movaps	 xmm0, XMMWORD PTR vW$[rbp]
  0056a	0f 59 04 01	 mulps	 xmm0, XMMWORD PTR [rcx+rax]
  0056e	0f 29 85 c0 0a
	00 00		 movaps	 XMMWORD PTR $T34[rbp], xmm0
  00575	0f 28 85 c0 0a
	00 00		 movaps	 xmm0, XMMWORD PTR $T34[rbp]
  0057c	0f 29 85 d0 00
	00 00		 movaps	 XMMWORD PTR vW$[rbp], xmm0

; 340  :     vX = _mm_add_ps(vX,vZ);

  00583	0f 28 85 00 01
	00 00		 movaps	 xmm0, XMMWORD PTR vX$[rbp]
  0058a	0f 58 85 60 01
	00 00		 addps	 xmm0, XMMWORD PTR vZ$[rbp]
  00591	0f 29 85 f0 0a
	00 00		 movaps	 XMMWORD PTR $T35[rbp], xmm0
  00598	0f 28 85 f0 0a
	00 00		 movaps	 xmm0, XMMWORD PTR $T35[rbp]
  0059f	0f 29 85 00 01
	00 00		 movaps	 XMMWORD PTR vX$[rbp], xmm0

; 341  :     vY = _mm_add_ps(vY,vW);

  005a6	0f 28 85 30 01
	00 00		 movaps	 xmm0, XMMWORD PTR vY$[rbp]
  005ad	0f 58 85 d0 00
	00 00		 addps	 xmm0, XMMWORD PTR vW$[rbp]
  005b4	0f 29 85 20 0b
	00 00		 movaps	 XMMWORD PTR $T36[rbp], xmm0
  005bb	0f 28 85 20 0b
	00 00		 movaps	 xmm0, XMMWORD PTR $T36[rbp]
  005c2	0f 29 85 30 01
	00 00		 movaps	 XMMWORD PTR vY$[rbp], xmm0

; 342  :     vX = _mm_add_ps(vX,vY);

  005c9	0f 28 85 00 01
	00 00		 movaps	 xmm0, XMMWORD PTR vX$[rbp]
  005d0	0f 58 85 30 01
	00 00		 addps	 xmm0, XMMWORD PTR vY$[rbp]
  005d7	0f 29 85 50 0b
	00 00		 movaps	 XMMWORD PTR $T37[rbp], xmm0
  005de	0f 28 85 50 0b
	00 00		 movaps	 xmm0, XMMWORD PTR $T37[rbp]
  005e5	0f 29 85 00 01
	00 00		 movaps	 XMMWORD PTR vX$[rbp], xmm0

; 343  :     mResult.r[2] = vX;

  005ec	b8 10 00 00 00	 mov	 eax, 16
  005f1	48 6b c0 02	 imul	 rax, rax, 2
  005f5	0f 28 85 00 01
	00 00		 movaps	 xmm0, XMMWORD PTR vX$[rbp]
  005fc	0f 11 44 05 70	 movups	 XMMWORD PTR mResult$[rbp+rax], xmm0

; 344  :     vW = M1.r[3];

  00601	b8 10 00 00 00	 mov	 eax, 16
  00606	48 6b c0 03	 imul	 rax, rax, 3
  0060a	0f 10 44 05 10	 movups	 xmm0, XMMWORD PTR M1$[rbp+rax]
  0060f	0f 11 85 d0 00
	00 00		 movups	 XMMWORD PTR vW$[rbp], xmm0

; 345  :     vX = XM_PERMUTE_PS(vW,_MM_SHUFFLE(0,0,0,0));

  00616	0f 28 85 d0 00
	00 00		 movaps	 xmm0, XMMWORD PTR vW$[rbp]
  0061d	0f c6 85 d0 00
	00 00 00	 shufps	 xmm0, XMMWORD PTR vW$[rbp], 0
  00625	0f 29 85 80 0b
	00 00		 movaps	 XMMWORD PTR $T38[rbp], xmm0
  0062c	0f 28 85 80 0b
	00 00		 movaps	 xmm0, XMMWORD PTR $T38[rbp]
  00633	0f 29 85 00 01
	00 00		 movaps	 XMMWORD PTR vX$[rbp], xmm0

; 346  :     vY = XM_PERMUTE_PS(vW,_MM_SHUFFLE(1,1,1,1));

  0063a	0f 28 85 d0 00
	00 00		 movaps	 xmm0, XMMWORD PTR vW$[rbp]
  00641	0f c6 85 d0 00
	00 00 55	 shufps	 xmm0, XMMWORD PTR vW$[rbp], 85 ; 00000055H
  00649	0f 29 85 b0 0b
	00 00		 movaps	 XMMWORD PTR $T39[rbp], xmm0
  00650	0f 28 85 b0 0b
	00 00		 movaps	 xmm0, XMMWORD PTR $T39[rbp]
  00657	0f 29 85 30 01
	00 00		 movaps	 XMMWORD PTR vY$[rbp], xmm0

; 347  :     vZ = XM_PERMUTE_PS(vW,_MM_SHUFFLE(2,2,2,2));

  0065e	0f 28 85 d0 00
	00 00		 movaps	 xmm0, XMMWORD PTR vW$[rbp]
  00665	0f c6 85 d0 00
	00 00 aa	 shufps	 xmm0, XMMWORD PTR vW$[rbp], 170 ; 000000aaH
  0066d	0f 29 85 e0 0b
	00 00		 movaps	 XMMWORD PTR $T40[rbp], xmm0
  00674	0f 28 85 e0 0b
	00 00		 movaps	 xmm0, XMMWORD PTR $T40[rbp]
  0067b	0f 29 85 60 01
	00 00		 movaps	 XMMWORD PTR vZ$[rbp], xmm0

; 348  :     vW = XM_PERMUTE_PS(vW,_MM_SHUFFLE(3,3,3,3));

  00682	0f 28 85 d0 00
	00 00		 movaps	 xmm0, XMMWORD PTR vW$[rbp]
  00689	0f c6 85 d0 00
	00 00 ff	 shufps	 xmm0, XMMWORD PTR vW$[rbp], 255 ; 000000ffH
  00691	0f 29 85 10 0c
	00 00		 movaps	 XMMWORD PTR $T41[rbp], xmm0
  00698	0f 28 85 10 0c
	00 00		 movaps	 xmm0, XMMWORD PTR $T41[rbp]
  0069f	0f 29 85 d0 00
	00 00		 movaps	 XMMWORD PTR vW$[rbp], xmm0

; 349  :     vX = _mm_mul_ps(vX,M2.r[0]);

  006a6	b8 10 00 00 00	 mov	 eax, 16
  006ab	48 6b c0 00	 imul	 rax, rax, 0
  006af	48 8b 8d a8 0d
	00 00		 mov	 rcx, QWORD PTR M2$[rbp]
  006b6	0f 28 85 00 01
	00 00		 movaps	 xmm0, XMMWORD PTR vX$[rbp]
  006bd	0f 59 04 01	 mulps	 xmm0, XMMWORD PTR [rcx+rax]
  006c1	0f 29 85 40 0c
	00 00		 movaps	 XMMWORD PTR $T42[rbp], xmm0
  006c8	0f 28 85 40 0c
	00 00		 movaps	 xmm0, XMMWORD PTR $T42[rbp]
  006cf	0f 29 85 00 01
	00 00		 movaps	 XMMWORD PTR vX$[rbp], xmm0

; 350  :     vY = _mm_mul_ps(vY,M2.r[1]);

  006d6	b8 10 00 00 00	 mov	 eax, 16
  006db	48 6b c0 01	 imul	 rax, rax, 1
  006df	48 8b 8d a8 0d
	00 00		 mov	 rcx, QWORD PTR M2$[rbp]
  006e6	0f 28 85 30 01
	00 00		 movaps	 xmm0, XMMWORD PTR vY$[rbp]
  006ed	0f 59 04 01	 mulps	 xmm0, XMMWORD PTR [rcx+rax]
  006f1	0f 29 85 70 0c
	00 00		 movaps	 XMMWORD PTR $T43[rbp], xmm0
  006f8	0f 28 85 70 0c
	00 00		 movaps	 xmm0, XMMWORD PTR $T43[rbp]
  006ff	0f 29 85 30 01
	00 00		 movaps	 XMMWORD PTR vY$[rbp], xmm0

; 351  :     vZ = _mm_mul_ps(vZ,M2.r[2]);

  00706	b8 10 00 00 00	 mov	 eax, 16
  0070b	48 6b c0 02	 imul	 rax, rax, 2
  0070f	48 8b 8d a8 0d
	00 00		 mov	 rcx, QWORD PTR M2$[rbp]
  00716	0f 28 85 60 01
	00 00		 movaps	 xmm0, XMMWORD PTR vZ$[rbp]
  0071d	0f 59 04 01	 mulps	 xmm0, XMMWORD PTR [rcx+rax]
  00721	0f 29 85 a0 0c
	00 00		 movaps	 XMMWORD PTR $T44[rbp], xmm0
  00728	0f 28 85 a0 0c
	00 00		 movaps	 xmm0, XMMWORD PTR $T44[rbp]
  0072f	0f 29 85 60 01
	00 00		 movaps	 XMMWORD PTR vZ$[rbp], xmm0

; 352  :     vW = _mm_mul_ps(vW,M2.r[3]);

  00736	b8 10 00 00 00	 mov	 eax, 16
  0073b	48 6b c0 03	 imul	 rax, rax, 3
  0073f	48 8b 8d a8 0d
	00 00		 mov	 rcx, QWORD PTR M2$[rbp]
  00746	0f 28 85 d0 00
	00 00		 movaps	 xmm0, XMMWORD PTR vW$[rbp]
  0074d	0f 59 04 01	 mulps	 xmm0, XMMWORD PTR [rcx+rax]
  00751	0f 29 85 d0 0c
	00 00		 movaps	 XMMWORD PTR $T45[rbp], xmm0
  00758	0f 28 85 d0 0c
	00 00		 movaps	 xmm0, XMMWORD PTR $T45[rbp]
  0075f	0f 29 85 d0 00
	00 00		 movaps	 XMMWORD PTR vW$[rbp], xmm0

; 353  :     vX = _mm_add_ps(vX,vZ);

  00766	0f 28 85 00 01
	00 00		 movaps	 xmm0, XMMWORD PTR vX$[rbp]
  0076d	0f 58 85 60 01
	00 00		 addps	 xmm0, XMMWORD PTR vZ$[rbp]
  00774	0f 29 85 00 0d
	00 00		 movaps	 XMMWORD PTR $T46[rbp], xmm0
  0077b	0f 28 85 00 0d
	00 00		 movaps	 xmm0, XMMWORD PTR $T46[rbp]
  00782	0f 29 85 00 01
	00 00		 movaps	 XMMWORD PTR vX$[rbp], xmm0

; 354  :     vY = _mm_add_ps(vY,vW);

  00789	0f 28 85 30 01
	00 00		 movaps	 xmm0, XMMWORD PTR vY$[rbp]
  00790	0f 58 85 d0 00
	00 00		 addps	 xmm0, XMMWORD PTR vW$[rbp]
  00797	0f 29 85 30 0d
	00 00		 movaps	 XMMWORD PTR $T47[rbp], xmm0
  0079e	0f 28 85 30 0d
	00 00		 movaps	 xmm0, XMMWORD PTR $T47[rbp]
  007a5	0f 29 85 30 01
	00 00		 movaps	 XMMWORD PTR vY$[rbp], xmm0

; 355  :     vX = _mm_add_ps(vX,vY);

  007ac	0f 28 85 00 01
	00 00		 movaps	 xmm0, XMMWORD PTR vX$[rbp]
  007b3	0f 58 85 30 01
	00 00		 addps	 xmm0, XMMWORD PTR vY$[rbp]
  007ba	0f 29 85 60 0d
	00 00		 movaps	 XMMWORD PTR $T48[rbp], xmm0
  007c1	0f 28 85 60 0d
	00 00		 movaps	 xmm0, XMMWORD PTR $T48[rbp]
  007c8	0f 29 85 00 01
	00 00		 movaps	 XMMWORD PTR vX$[rbp], xmm0

; 356  :     mResult.r[3] = vX;

  007cf	b8 10 00 00 00	 mov	 eax, 16
  007d4	48 6b c0 03	 imul	 rax, rax, 3
  007d8	0f 28 85 00 01
	00 00		 movaps	 xmm0, XMMWORD PTR vX$[rbp]
  007df	0f 11 44 05 70	 movups	 XMMWORD PTR mResult$[rbp+rax], xmm0

; 357  :     return mResult;

  007e4	0f 28 9d a0 00
	00 00		 movaps	 xmm3, XMMWORD PTR mResult$[rbp+48]
  007eb	0f 28 95 90 00
	00 00		 movaps	 xmm2, XMMWORD PTR mResult$[rbp+32]
  007f2	0f 28 8d 80 00
	00 00		 movaps	 xmm1, XMMWORD PTR mResult$[rbp+16]
  007f9	0f 28 45 70	 movaps	 xmm0, XMMWORD PTR mResult$[rbp]

; 358  : #endif
; 359  : }

  007fd	f3 0f 7f 44 24
	20		 movdqu	 XMMWORD PTR [rsp+32], xmm0
  00803	48 8d 4d d0	 lea	 rcx, QWORD PTR [rbp-48]
  00807	48 8d 15 00 00
	00 00		 lea	 rdx, OFFSET FLAT:?XMMatrixMultiply@DirectX@@YQ?AUXMMATRIX@1@U21@AEBU21@@Z$rtcFrameData
  0080e	e8 00 00 00 00	 call	 _RTC_CheckStackVars
  00813	f3 0f 6f 44 24
	20		 movdqu	 xmm0, XMMWORD PTR [rsp+32]
  00819	48 8b 8d 78 0d
	00 00		 mov	 rcx, QWORD PTR __$ArrayPad$[rbp]
  00820	48 33 cd	 xor	 rcx, rbp
  00823	e8 00 00 00 00	 call	 __security_check_cookie
  00828	48 8d a5 88 0d
	00 00		 lea	 rsp, QWORD PTR [rbp+3464]
  0082f	5f		 pop	 rdi
  00830	5d		 pop	 rbp
  00831	c3		 ret	 0
?XMMatrixMultiply@DirectX@@YQ?AUXMMATRIX@1@U21@AEBU21@@Z ENDP ; DirectX::XMMatrixMultiply
_TEXT	ENDS
; Function compile flags: /Odtp /RTCsu /ZI
; File c:\program files (x86)\windows kits\8.1\include\um\directxmathvector.inl
;	COMDAT ?XMVector3Normalize@DirectX@@YQ?AT__m128@@T2@@Z
_TEXT	SEGMENT
V$ = 16
vLengthSq$ = 64
vTemp$ = 112
vResult$ = 160
vZeroMask$ = 208
vTemp1$ = 256
vTemp2$ = 304
$T1 = 928
$T2 = 976
$T3 = 1024
$T4 = 1072
$T5 = 1120
$T6 = 1168
$T7 = 1216
$T8 = 1264
$T9 = 1312
$T10 = 1360
$T11 = 1408
$T12 = 1456
$T13 = 1504
$T14 = 1552
$T15 = 1600
$T16 = 1648
$T17 = 1696
?XMVector3Normalize@DirectX@@YQ?AT__m128@@T2@@Z PROC	; DirectX::XMVector3Normalize, COMDAT

; 9238 : {

$LN3:
  00000	40 55		 push	 rbp
  00002	57		 push	 rdi
  00003	48 81 ec f8 06
	00 00		 sub	 rsp, 1784		; 000006f8H
  0000a	48 8d 6c 24 30	 lea	 rbp, QWORD PTR [rsp+48]
  0000f	48 8b fc	 mov	 rdi, rsp
  00012	b9 be 01 00 00	 mov	 ecx, 446		; 000001beH
  00017	b8 cc cc cc cc	 mov	 eax, -858993460		; ccccccccH
  0001c	f3 ab		 rep stosd
  0001e	48 8d 45 10	 lea	 rax, QWORD PTR V$[rbp]
  00022	48 89 84 24 10
	07 00 00	 mov	 QWORD PTR [rsp+1808], rax
  0002a	0f 29 45 10	 movaps	 XMMWORD PTR V$[rbp], xmm0

; 9239 : #if defined(_XM_NO_INTRINSICS_)
; 9240 :     float fLength;
; 9241 :     XMVECTOR vResult;
; 9242 : 
; 9243 :     vResult = XMVector3Length( V );
; 9244 :     fLength = vResult.vector4_f32[0];
; 9245 : 
; 9246 :     // Prevent divide by zero
; 9247 :     if (fLength > 0) {
; 9248 :         fLength = 1.0f/fLength;
; 9249 :     }
; 9250 :     
; 9251 :     vResult.vector4_f32[0] = V.vector4_f32[0]*fLength;
; 9252 :     vResult.vector4_f32[1] = V.vector4_f32[1]*fLength;
; 9253 :     vResult.vector4_f32[2] = V.vector4_f32[2]*fLength;
; 9254 :     vResult.vector4_f32[3] = V.vector4_f32[3]*fLength;
; 9255 :     return vResult;
; 9256 : 
; 9257 : #elif defined(_XM_ARM_NEON_INTRINSICS_)
; 9258 :     // Dot3
; 9259 :     float32x4_t vTemp = vmulq_f32( V, V );
; 9260 :     float32x2_t v1 = vget_low_f32( vTemp );
; 9261 :     float32x2_t v2 = vget_high_f32( vTemp );
; 9262 :     v1 = vpadd_f32( v1, v1 );
; 9263 :     v2 = vdup_lane_f32( v2, 0 );
; 9264 :     v1 = vadd_f32( v1, v2 );
; 9265 :     uint32x2_t VEqualsZero = vceq_f32( v1, vdup_n_f32(0) );
; 9266 :     uint32x2_t VEqualsInf = vceq_f32( v1, vget_low_f32(g_XMInfinity) );
; 9267 :     // Reciprocal sqrt (2 iterations of Newton-Raphson)
; 9268 :     float32x2_t S0 = vrsqrte_f32( v1 );
; 9269 :     float32x2_t P0 = vmul_f32( v1, S0 );
; 9270 :     float32x2_t R0 = vrsqrts_f32( P0, S0 );
; 9271 :     float32x2_t S1 = vmul_f32( S0, R0 );
; 9272 :     float32x2_t P1 = vmul_f32( v1, S1 );
; 9273 :     float32x2_t R1 = vrsqrts_f32( P1, S1 );
; 9274 :     v2 = vmul_f32( S1, R1 );
; 9275 :     // Normalize
; 9276 :     XMVECTOR vResult = vmulq_f32( V, vcombine_f32(v2,v2) );
; 9277 :     vResult = vbslq_f32( vcombine_f32(VEqualsZero,VEqualsZero), vdupq_n_f32(0), vResult );
; 9278 :     return vbslq_f32( vcombine_f32(VEqualsInf,VEqualsInf), g_XMQNaN, vResult );
; 9279 : #elif defined(_XM_SSE_INTRINSICS_)
; 9280 :     // Perform the dot product on x,y and z only
; 9281 :     XMVECTOR vLengthSq = _mm_mul_ps(V,V);

  0002e	0f 28 45 10	 movaps	 xmm0, XMMWORD PTR V$[rbp]
  00032	0f 59 45 10	 mulps	 xmm0, XMMWORD PTR V$[rbp]
  00036	0f 29 85 a0 03
	00 00		 movaps	 XMMWORD PTR $T1[rbp], xmm0
  0003d	0f 28 85 a0 03
	00 00		 movaps	 xmm0, XMMWORD PTR $T1[rbp]
  00044	0f 29 45 40	 movaps	 XMMWORD PTR vLengthSq$[rbp], xmm0

; 9282 :     XMVECTOR vTemp = XM_PERMUTE_PS(vLengthSq,_MM_SHUFFLE(2,1,2,1));

  00048	0f 28 45 40	 movaps	 xmm0, XMMWORD PTR vLengthSq$[rbp]
  0004c	0f c6 45 40 99	 shufps	 xmm0, XMMWORD PTR vLengthSq$[rbp], 153 ; 00000099H
  00051	0f 29 85 d0 03
	00 00		 movaps	 XMMWORD PTR $T2[rbp], xmm0
  00058	0f 28 85 d0 03
	00 00		 movaps	 xmm0, XMMWORD PTR $T2[rbp]
  0005f	0f 29 45 70	 movaps	 XMMWORD PTR vTemp$[rbp], xmm0

; 9283 :     vLengthSq = _mm_add_ss(vLengthSq,vTemp);

  00063	0f 28 45 40	 movaps	 xmm0, XMMWORD PTR vLengthSq$[rbp]
  00067	f3 0f 58 45 70	 addss	 xmm0, DWORD PTR vTemp$[rbp]
  0006c	0f 29 85 00 04
	00 00		 movaps	 XMMWORD PTR $T3[rbp], xmm0
  00073	0f 28 85 00 04
	00 00		 movaps	 xmm0, XMMWORD PTR $T3[rbp]
  0007a	0f 29 45 40	 movaps	 XMMWORD PTR vLengthSq$[rbp], xmm0

; 9284 :     vTemp = XM_PERMUTE_PS(vTemp,_MM_SHUFFLE(1,1,1,1));

  0007e	0f 28 45 70	 movaps	 xmm0, XMMWORD PTR vTemp$[rbp]
  00082	0f c6 45 70 55	 shufps	 xmm0, XMMWORD PTR vTemp$[rbp], 85 ; 00000055H
  00087	0f 29 85 30 04
	00 00		 movaps	 XMMWORD PTR $T4[rbp], xmm0
  0008e	0f 28 85 30 04
	00 00		 movaps	 xmm0, XMMWORD PTR $T4[rbp]
  00095	0f 29 45 70	 movaps	 XMMWORD PTR vTemp$[rbp], xmm0

; 9285 :     vLengthSq = _mm_add_ss(vLengthSq,vTemp);

  00099	0f 28 45 40	 movaps	 xmm0, XMMWORD PTR vLengthSq$[rbp]
  0009d	f3 0f 58 45 70	 addss	 xmm0, DWORD PTR vTemp$[rbp]
  000a2	0f 29 85 60 04
	00 00		 movaps	 XMMWORD PTR $T5[rbp], xmm0
  000a9	0f 28 85 60 04
	00 00		 movaps	 xmm0, XMMWORD PTR $T5[rbp]
  000b0	0f 29 45 40	 movaps	 XMMWORD PTR vLengthSq$[rbp], xmm0

; 9286 :     vLengthSq = XM_PERMUTE_PS(vLengthSq,_MM_SHUFFLE(0,0,0,0));

  000b4	0f 28 45 40	 movaps	 xmm0, XMMWORD PTR vLengthSq$[rbp]
  000b8	0f c6 45 40 00	 shufps	 xmm0, XMMWORD PTR vLengthSq$[rbp], 0
  000bd	0f 29 85 90 04
	00 00		 movaps	 XMMWORD PTR $T6[rbp], xmm0
  000c4	0f 28 85 90 04
	00 00		 movaps	 xmm0, XMMWORD PTR $T6[rbp]
  000cb	0f 29 45 40	 movaps	 XMMWORD PTR vLengthSq$[rbp], xmm0

; 9287 :     // Prepare for the division
; 9288 :     XMVECTOR vResult = _mm_sqrt_ps(vLengthSq);

  000cf	0f 51 45 40	 sqrtps	 xmm0, XMMWORD PTR vLengthSq$[rbp]
  000d3	0f 29 85 c0 04
	00 00		 movaps	 XMMWORD PTR $T7[rbp], xmm0
  000da	0f 28 85 c0 04
	00 00		 movaps	 xmm0, XMMWORD PTR $T7[rbp]
  000e1	0f 29 85 a0 00
	00 00		 movaps	 XMMWORD PTR vResult$[rbp], xmm0

; 9289 :     // Create zero with a single instruction
; 9290 :     XMVECTOR vZeroMask = _mm_setzero_ps();

  000e8	0f 57 c0	 xorps	 xmm0, xmm0
  000eb	0f 29 85 f0 04
	00 00		 movaps	 XMMWORD PTR $T8[rbp], xmm0
  000f2	0f 28 85 f0 04
	00 00		 movaps	 xmm0, XMMWORD PTR $T8[rbp]
  000f9	0f 29 85 d0 00
	00 00		 movaps	 XMMWORD PTR vZeroMask$[rbp], xmm0

; 9291 :     // Test for a divide by zero (Must be FP to detect -0.0)
; 9292 :     vZeroMask = _mm_cmpneq_ps(vZeroMask,vResult);

  00100	0f 28 85 d0 00
	00 00		 movaps	 xmm0, XMMWORD PTR vZeroMask$[rbp]
  00107	0f c2 85 a0 00
	00 00 04	 cmpneqps xmm0, XMMWORD PTR vResult$[rbp]
  0010f	0f 29 85 20 05
	00 00		 movaps	 XMMWORD PTR $T9[rbp], xmm0
  00116	0f 28 85 20 05
	00 00		 movaps	 xmm0, XMMWORD PTR $T9[rbp]
  0011d	0f 29 85 d0 00
	00 00		 movaps	 XMMWORD PTR vZeroMask$[rbp], xmm0

; 9293 :     // Failsafe on zero (Or epsilon) length planes
; 9294 :     // If the length is infinity, set the elements to zero
; 9295 :     vLengthSq = _mm_cmpneq_ps(vLengthSq,g_XMInfinity);

  00124	48 8d 95 80 05
	00 00		 lea	 rdx, QWORD PTR $T11[rbp]
  0012b	48 8d 0d 00 00
	00 00		 lea	 rcx, OFFSET FLAT:?g_XMInfinity@DirectX@@3UXMVECTORI32@1@B ; DirectX::g_XMInfinity
  00132	e8 00 00 00 00	 call	 ??BXMVECTORI32@DirectX@@QEBA?AT__m128@@XZ ; DirectX::XMVECTORI32::operator __m128
  00137	0f 28 45 40	 movaps	 xmm0, XMMWORD PTR vLengthSq$[rbp]
  0013b	0f c2 00 04	 cmpneqps xmm0, XMMWORD PTR [rax]
  0013f	0f 29 85 50 05
	00 00		 movaps	 XMMWORD PTR $T10[rbp], xmm0
  00146	0f 28 85 50 05
	00 00		 movaps	 xmm0, XMMWORD PTR $T10[rbp]
  0014d	0f 29 45 40	 movaps	 XMMWORD PTR vLengthSq$[rbp], xmm0

; 9296 :     // Divide to perform the normalization
; 9297 :     vResult = _mm_div_ps(V,vResult);

  00151	0f 28 45 10	 movaps	 xmm0, XMMWORD PTR V$[rbp]
  00155	0f 5e 85 a0 00
	00 00		 divps	 xmm0, XMMWORD PTR vResult$[rbp]
  0015c	0f 29 85 b0 05
	00 00		 movaps	 XMMWORD PTR $T12[rbp], xmm0
  00163	0f 28 85 b0 05
	00 00		 movaps	 xmm0, XMMWORD PTR $T12[rbp]
  0016a	0f 29 85 a0 00
	00 00		 movaps	 XMMWORD PTR vResult$[rbp], xmm0

; 9298 :     // Any that are infinity, set to zero
; 9299 :     vResult = _mm_and_ps(vResult,vZeroMask);

  00171	0f 28 85 a0 00
	00 00		 movaps	 xmm0, XMMWORD PTR vResult$[rbp]
  00178	0f 54 85 d0 00
	00 00		 andps	 xmm0, XMMWORD PTR vZeroMask$[rbp]
  0017f	0f 29 85 e0 05
	00 00		 movaps	 XMMWORD PTR $T13[rbp], xmm0
  00186	0f 28 85 e0 05
	00 00		 movaps	 xmm0, XMMWORD PTR $T13[rbp]
  0018d	0f 29 85 a0 00
	00 00		 movaps	 XMMWORD PTR vResult$[rbp], xmm0

; 9300 :     // Select qnan or result based on infinite length
; 9301 :     XMVECTOR vTemp1 = _mm_andnot_ps(vLengthSq,g_XMQNaN);

  00194	48 8d 95 40 06
	00 00		 lea	 rdx, QWORD PTR $T15[rbp]
  0019b	48 8d 0d 00 00
	00 00		 lea	 rcx, OFFSET FLAT:?g_XMQNaN@DirectX@@3UXMVECTORI32@1@B ; DirectX::g_XMQNaN
  001a2	e8 00 00 00 00	 call	 ??BXMVECTORI32@DirectX@@QEBA?AT__m128@@XZ ; DirectX::XMVECTORI32::operator __m128
  001a7	0f 28 45 40	 movaps	 xmm0, XMMWORD PTR vLengthSq$[rbp]
  001ab	0f 55 00	 andnps	 xmm0, XMMWORD PTR [rax]
  001ae	0f 29 85 10 06
	00 00		 movaps	 XMMWORD PTR $T14[rbp], xmm0
  001b5	0f 28 85 10 06
	00 00		 movaps	 xmm0, XMMWORD PTR $T14[rbp]
  001bc	0f 29 85 00 01
	00 00		 movaps	 XMMWORD PTR vTemp1$[rbp], xmm0

; 9302 :     XMVECTOR vTemp2 = _mm_and_ps(vResult,vLengthSq);

  001c3	0f 28 85 a0 00
	00 00		 movaps	 xmm0, XMMWORD PTR vResult$[rbp]
  001ca	0f 54 45 40	 andps	 xmm0, XMMWORD PTR vLengthSq$[rbp]
  001ce	0f 29 85 70 06
	00 00		 movaps	 XMMWORD PTR $T16[rbp], xmm0
  001d5	0f 28 85 70 06
	00 00		 movaps	 xmm0, XMMWORD PTR $T16[rbp]
  001dc	0f 29 85 30 01
	00 00		 movaps	 XMMWORD PTR vTemp2$[rbp], xmm0

; 9303 :     vResult = _mm_or_ps(vTemp1,vTemp2);

  001e3	0f 28 85 00 01
	00 00		 movaps	 xmm0, XMMWORD PTR vTemp1$[rbp]
  001ea	0f 56 85 30 01
	00 00		 orps	 xmm0, XMMWORD PTR vTemp2$[rbp]
  001f1	0f 29 85 a0 06
	00 00		 movaps	 XMMWORD PTR $T17[rbp], xmm0
  001f8	0f 28 85 a0 06
	00 00		 movaps	 xmm0, XMMWORD PTR $T17[rbp]
  001ff	0f 29 85 a0 00
	00 00		 movaps	 XMMWORD PTR vResult$[rbp], xmm0

; 9304 :     return vResult;

  00206	0f 28 85 a0 00
	00 00		 movaps	 xmm0, XMMWORD PTR vResult$[rbp]

; 9305 : #endif
; 9306 : }

  0020d	48 8d a5 c8 06
	00 00		 lea	 rsp, QWORD PTR [rbp+1736]
  00214	5f		 pop	 rdi
  00215	5d		 pop	 rbp
  00216	c3		 ret	 0
?XMVector3Normalize@DirectX@@YQ?AT__m128@@T2@@Z ENDP	; DirectX::XMVector3Normalize
_TEXT	ENDS
; Function compile flags: /Odtp /RTCsu /ZI
; File c:\program files (x86)\windows kits\8.1\include\um\directxmathvector.inl
;	COMDAT ?XMVector3Length@DirectX@@YQ?AT__m128@@T2@@Z
_TEXT	SEGMENT
V$ = 16
vLengthSq$ = 64
vTemp$ = 112
$T1 = 352
$T2 = 400
$T3 = 448
$T4 = 496
$T5 = 544
$T6 = 592
$T7 = 640
?XMVector3Length@DirectX@@YQ?AT__m128@@T2@@Z PROC	; DirectX::XMVector3Length, COMDAT

; 9133 : {

$LN3:
  00000	40 55		 push	 rbp
  00002	57		 push	 rdi
  00003	48 81 ec b8 02
	00 00		 sub	 rsp, 696		; 000002b8H
  0000a	48 8d 6c 24 10	 lea	 rbp, QWORD PTR [rsp+16]
  0000f	48 8b fc	 mov	 rdi, rsp
  00012	b9 ae 00 00 00	 mov	 ecx, 174		; 000000aeH
  00017	b8 cc cc cc cc	 mov	 eax, -858993460		; ccccccccH
  0001c	f3 ab		 rep stosd
  0001e	48 8d 45 10	 lea	 rax, QWORD PTR V$[rbp]
  00022	48 89 84 24 d0
	02 00 00	 mov	 QWORD PTR [rsp+720], rax
  0002a	0f 29 45 10	 movaps	 XMMWORD PTR V$[rbp], xmm0

; 9134 : #if defined(_XM_NO_INTRINSICS_)
; 9135 : 
; 9136 :     XMVECTOR Result;
; 9137 : 
; 9138 :     Result = XMVector3LengthSq(V);
; 9139 :     Result = XMVectorSqrt(Result);
; 9140 : 
; 9141 :     return Result;
; 9142 : 
; 9143 : #elif defined(_XM_ARM_NEON_INTRINSICS_)
; 9144 :     // Dot3
; 9145 :     float32x4_t vTemp = vmulq_f32( V, V );
; 9146 :     float32x2_t v1 = vget_low_f32( vTemp );
; 9147 :     float32x2_t v2 = vget_high_f32( vTemp );
; 9148 :     v1 = vpadd_f32( v1, v1 );
; 9149 :     v2 = vdup_lane_f32( v2, 0 );
; 9150 :     v1 = vadd_f32( v1, v2 );
; 9151 :     const float32x2_t zero = vdup_n_f32(0);
; 9152 :     uint32x2_t VEqualsZero = vceq_f32( v1, zero );
; 9153 :     // Sqrt
; 9154 :     float32x2_t S0 = vrsqrte_f32( v1 );
; 9155 :     float32x2_t P0 = vmul_f32( v1, S0 );
; 9156 :     float32x2_t R0 = vrsqrts_f32( P0, S0 );
; 9157 :     float32x2_t S1 = vmul_f32( S0, R0 );
; 9158 :     float32x2_t P1 = vmul_f32( v1, S1 );
; 9159 :     float32x2_t R1 = vrsqrts_f32( P1, S1 );
; 9160 :     float32x2_t Result = vmul_f32( S1, R1 );
; 9161 :     Result = vmul_f32( v1, Result );
; 9162 :     Result = vbsl_f32( VEqualsZero, zero, Result );
; 9163 :     return vcombine_f32( Result, Result );
; 9164 : #elif defined(_XM_SSE_INTRINSICS_)
; 9165 :     // Perform the dot product on x,y and z
; 9166 :     XMVECTOR vLengthSq = _mm_mul_ps(V,V);

  0002e	0f 28 45 10	 movaps	 xmm0, XMMWORD PTR V$[rbp]
  00032	0f 59 45 10	 mulps	 xmm0, XMMWORD PTR V$[rbp]
  00036	0f 29 85 60 01
	00 00		 movaps	 XMMWORD PTR $T1[rbp], xmm0
  0003d	0f 28 85 60 01
	00 00		 movaps	 xmm0, XMMWORD PTR $T1[rbp]
  00044	0f 29 45 40	 movaps	 XMMWORD PTR vLengthSq$[rbp], xmm0

; 9167 :     // vTemp has z and y
; 9168 :     XMVECTOR vTemp = XM_PERMUTE_PS(vLengthSq,_MM_SHUFFLE(1,2,1,2));

  00048	0f 28 45 40	 movaps	 xmm0, XMMWORD PTR vLengthSq$[rbp]
  0004c	0f c6 45 40 66	 shufps	 xmm0, XMMWORD PTR vLengthSq$[rbp], 102 ; 00000066H
  00051	0f 29 85 90 01
	00 00		 movaps	 XMMWORD PTR $T2[rbp], xmm0
  00058	0f 28 85 90 01
	00 00		 movaps	 xmm0, XMMWORD PTR $T2[rbp]
  0005f	0f 29 45 70	 movaps	 XMMWORD PTR vTemp$[rbp], xmm0

; 9169 :     // x+z, y
; 9170 :     vLengthSq = _mm_add_ss(vLengthSq,vTemp);

  00063	0f 28 45 40	 movaps	 xmm0, XMMWORD PTR vLengthSq$[rbp]
  00067	f3 0f 58 45 70	 addss	 xmm0, DWORD PTR vTemp$[rbp]
  0006c	0f 29 85 c0 01
	00 00		 movaps	 XMMWORD PTR $T3[rbp], xmm0
  00073	0f 28 85 c0 01
	00 00		 movaps	 xmm0, XMMWORD PTR $T3[rbp]
  0007a	0f 29 45 40	 movaps	 XMMWORD PTR vLengthSq$[rbp], xmm0

; 9171 :     // y,y,y,y
; 9172 :     vTemp = XM_PERMUTE_PS(vTemp,_MM_SHUFFLE(1,1,1,1));

  0007e	0f 28 45 70	 movaps	 xmm0, XMMWORD PTR vTemp$[rbp]
  00082	0f c6 45 70 55	 shufps	 xmm0, XMMWORD PTR vTemp$[rbp], 85 ; 00000055H
  00087	0f 29 85 f0 01
	00 00		 movaps	 XMMWORD PTR $T4[rbp], xmm0
  0008e	0f 28 85 f0 01
	00 00		 movaps	 xmm0, XMMWORD PTR $T4[rbp]
  00095	0f 29 45 70	 movaps	 XMMWORD PTR vTemp$[rbp], xmm0

; 9173 :     // x+z+y,??,??,??
; 9174 :     vLengthSq = _mm_add_ss(vLengthSq,vTemp);

  00099	0f 28 45 40	 movaps	 xmm0, XMMWORD PTR vLengthSq$[rbp]
  0009d	f3 0f 58 45 70	 addss	 xmm0, DWORD PTR vTemp$[rbp]
  000a2	0f 29 85 20 02
	00 00		 movaps	 XMMWORD PTR $T5[rbp], xmm0
  000a9	0f 28 85 20 02
	00 00		 movaps	 xmm0, XMMWORD PTR $T5[rbp]
  000b0	0f 29 45 40	 movaps	 XMMWORD PTR vLengthSq$[rbp], xmm0

; 9175 :     // Splat the length squared
; 9176 :     vLengthSq = XM_PERMUTE_PS(vLengthSq,_MM_SHUFFLE(0,0,0,0));

  000b4	0f 28 45 40	 movaps	 xmm0, XMMWORD PTR vLengthSq$[rbp]
  000b8	0f c6 45 40 00	 shufps	 xmm0, XMMWORD PTR vLengthSq$[rbp], 0
  000bd	0f 29 85 50 02
	00 00		 movaps	 XMMWORD PTR $T6[rbp], xmm0
  000c4	0f 28 85 50 02
	00 00		 movaps	 xmm0, XMMWORD PTR $T6[rbp]
  000cb	0f 29 45 40	 movaps	 XMMWORD PTR vLengthSq$[rbp], xmm0

; 9177 :     // Get the length
; 9178 :     vLengthSq = _mm_sqrt_ps(vLengthSq);

  000cf	0f 51 45 40	 sqrtps	 xmm0, XMMWORD PTR vLengthSq$[rbp]
  000d3	0f 29 85 80 02
	00 00		 movaps	 XMMWORD PTR $T7[rbp], xmm0
  000da	0f 28 85 80 02
	00 00		 movaps	 xmm0, XMMWORD PTR $T7[rbp]
  000e1	0f 29 45 40	 movaps	 XMMWORD PTR vLengthSq$[rbp], xmm0

; 9179 :     return vLengthSq;

  000e5	0f 28 45 40	 movaps	 xmm0, XMMWORD PTR vLengthSq$[rbp]

; 9180 : #endif
; 9181 : }

  000e9	48 8d a5 a8 02
	00 00		 lea	 rsp, QWORD PTR [rbp+680]
  000f0	5f		 pop	 rdi
  000f1	5d		 pop	 rbp
  000f2	c3		 ret	 0
?XMVector3Length@DirectX@@YQ?AT__m128@@T2@@Z ENDP	; DirectX::XMVector3Length
_TEXT	ENDS
; Function compile flags: /Odtp /RTCsu /ZI
; File c:\program files (x86)\windows kits\8.1\include\um\directxmathvector.inl
;	COMDAT ?XMVectorLerp@DirectX@@YQ?AT__m128@@T2@0M@Z
_TEXT	SEGMENT
V0$ = 16
V1$ = 64
L$ = 112
S$ = 160
Result$ = 208
$T1 = 448
$T2 = 496
$T3 = 544
$T4 = 592
t$ = 672
?XMVectorLerp@DirectX@@YQ?AT__m128@@T2@0M@Z PROC	; DirectX::XMVectorLerp, COMDAT

; 5669 : {

$LN3:
  00000	f3 0f 11 54 24
	18		 movss	 DWORD PTR [rsp+24], xmm2
  00006	55		 push	 rbp
  00007	57		 push	 rdi
  00008	48 81 ec 88 02
	00 00		 sub	 rsp, 648		; 00000288H
  0000f	48 8d 6c 24 10	 lea	 rbp, QWORD PTR [rsp+16]
  00014	48 8b fc	 mov	 rdi, rsp
  00017	b9 a2 00 00 00	 mov	 ecx, 162		; 000000a2H
  0001c	b8 cc cc cc cc	 mov	 eax, -858993460		; ccccccccH
  00021	f3 ab		 rep stosd
  00023	48 8d 45 10	 lea	 rax, QWORD PTR V0$[rbp]
  00027	48 89 84 24 a0
	02 00 00	 mov	 QWORD PTR [rsp+672], rax
  0002f	48 8d 45 40	 lea	 rax, QWORD PTR V1$[rbp]
  00033	48 89 84 24 a8
	02 00 00	 mov	 QWORD PTR [rsp+680], rax
  0003b	0f 29 4d 40	 movaps	 XMMWORD PTR V1$[rbp], xmm1
  0003f	0f 29 45 10	 movaps	 XMMWORD PTR V0$[rbp], xmm0

; 5670 :     // V0 + t * (V1 - V0)
; 5671 : 
; 5672 : #if defined(_XM_NO_INTRINSICS_)
; 5673 : 
; 5674 :     XMVECTOR Scale = XMVectorReplicate(t);
; 5675 :     XMVECTOR Length = XMVectorSubtract(V1, V0);
; 5676 :     return XMVectorMultiplyAdd(Length, Scale, V0);
; 5677 : 
; 5678 : #elif defined(_XM_ARM_NEON_INTRINSICS_)
; 5679 :     XMVECTOR L = vsubq_f32( V1, V0 );
; 5680 :     return XM_VMLAQ_N_F32( V0, L, t );
; 5681 : #elif defined(_XM_SSE_INTRINSICS_)
; 5682 :     XMVECTOR L = _mm_sub_ps( V1, V0 );

  00043	0f 28 45 40	 movaps	 xmm0, XMMWORD PTR V1$[rbp]
  00047	0f 5c 45 10	 subps	 xmm0, XMMWORD PTR V0$[rbp]
  0004b	0f 29 85 c0 01
	00 00		 movaps	 XMMWORD PTR $T1[rbp], xmm0
  00052	0f 28 85 c0 01
	00 00		 movaps	 xmm0, XMMWORD PTR $T1[rbp]
  00059	0f 29 45 70	 movaps	 XMMWORD PTR L$[rbp], xmm0

; 5683 :     XMVECTOR S = _mm_set_ps1( t );

  0005d	f3 0f 10 85 a0
	02 00 00	 movss	 xmm0, DWORD PTR t$[rbp]
  00065	0f c6 c0 00	 shufps	 xmm0, xmm0, 0
  00069	0f 29 85 f0 01
	00 00		 movaps	 XMMWORD PTR $T2[rbp], xmm0
  00070	0f 28 85 f0 01
	00 00		 movaps	 xmm0, XMMWORD PTR $T2[rbp]
  00077	0f 29 85 a0 00
	00 00		 movaps	 XMMWORD PTR S$[rbp], xmm0

; 5684 :     XMVECTOR Result = _mm_mul_ps( L, S );

  0007e	0f 28 45 70	 movaps	 xmm0, XMMWORD PTR L$[rbp]
  00082	0f 59 85 a0 00
	00 00		 mulps	 xmm0, XMMWORD PTR S$[rbp]
  00089	0f 29 85 20 02
	00 00		 movaps	 XMMWORD PTR $T3[rbp], xmm0
  00090	0f 28 85 20 02
	00 00		 movaps	 xmm0, XMMWORD PTR $T3[rbp]
  00097	0f 29 85 d0 00
	00 00		 movaps	 XMMWORD PTR Result$[rbp], xmm0

; 5685 :     return _mm_add_ps( Result, V0 );

  0009e	0f 28 85 d0 00
	00 00		 movaps	 xmm0, XMMWORD PTR Result$[rbp]
  000a5	0f 58 45 10	 addps	 xmm0, XMMWORD PTR V0$[rbp]
  000a9	0f 29 85 50 02
	00 00		 movaps	 XMMWORD PTR $T4[rbp], xmm0
  000b0	0f 28 85 50 02
	00 00		 movaps	 xmm0, XMMWORD PTR $T4[rbp]

; 5686 : #endif
; 5687 : }

  000b7	48 8d a5 78 02
	00 00		 lea	 rsp, QWORD PTR [rbp+632]
  000be	5f		 pop	 rdi
  000bf	5d		 pop	 rbp
  000c0	c3		 ret	 0
?XMVectorLerp@DirectX@@YQ?AT__m128@@T2@0M@Z ENDP	; DirectX::XMVectorLerp
_TEXT	ENDS
; Function compile flags: /Odtp /RTCsu /ZI
; File c:\program files (x86)\windows kits\8.1\include\um\directxmathvector.inl
;	COMDAT ?XMVectorScale@DirectX@@YQ?AT__m128@@T2@M@Z
_TEXT	SEGMENT
V$ = 16
vResult$ = 64
$T1 = 304
$T2 = 352
ScaleFactor$ = 424
?XMVectorScale@DirectX@@YQ?AT__m128@@T2@M@Z PROC	; DirectX::XMVectorScale, COMDAT

; 2965 : {

$LN3:
  00000	f3 0f 11 4c 24
	10		 movss	 DWORD PTR [rsp+16], xmm1
  00006	55		 push	 rbp
  00007	57		 push	 rdi
  00008	48 81 ec 98 01
	00 00		 sub	 rsp, 408		; 00000198H
  0000f	48 8d 6c 24 10	 lea	 rbp, QWORD PTR [rsp+16]
  00014	48 8b fc	 mov	 rdi, rsp
  00017	b9 66 00 00 00	 mov	 ecx, 102		; 00000066H
  0001c	b8 cc cc cc cc	 mov	 eax, -858993460		; ccccccccH
  00021	f3 ab		 rep stosd
  00023	48 8d 45 10	 lea	 rax, QWORD PTR V$[rbp]
  00027	48 89 84 24 b0
	01 00 00	 mov	 QWORD PTR [rsp+432], rax
  0002f	0f 29 45 10	 movaps	 XMMWORD PTR V$[rbp], xmm0

; 2966 : #if defined(_XM_NO_INTRINSICS_)
; 2967 :     XMVECTOR Result;
; 2968 :     Result.vector4_f32[0] = V.vector4_f32[0] * ScaleFactor;
; 2969 :     Result.vector4_f32[1] = V.vector4_f32[1] * ScaleFactor;
; 2970 :     Result.vector4_f32[2] = V.vector4_f32[2] * ScaleFactor;
; 2971 :     Result.vector4_f32[3] = V.vector4_f32[3] * ScaleFactor;
; 2972 :     return Result;
; 2973 : #elif defined(_XM_ARM_NEON_INTRINSICS_)
; 2974 :     return XM_VMULQ_N_F32( V, ScaleFactor );
; 2975 : #elif defined(_XM_SSE_INTRINSICS_)
; 2976 :    XMVECTOR vResult = _mm_set_ps1(ScaleFactor);

  00033	f3 0f 10 85 a8
	01 00 00	 movss	 xmm0, DWORD PTR ScaleFactor$[rbp]
  0003b	0f c6 c0 00	 shufps	 xmm0, xmm0, 0
  0003f	0f 29 85 30 01
	00 00		 movaps	 XMMWORD PTR $T1[rbp], xmm0
  00046	0f 28 85 30 01
	00 00		 movaps	 xmm0, XMMWORD PTR $T1[rbp]
  0004d	0f 29 45 40	 movaps	 XMMWORD PTR vResult$[rbp], xmm0

; 2977 :    return _mm_mul_ps(vResult,V);

  00051	0f 28 45 40	 movaps	 xmm0, XMMWORD PTR vResult$[rbp]
  00055	0f 59 45 10	 mulps	 xmm0, XMMWORD PTR V$[rbp]
  00059	0f 29 85 60 01
	00 00		 movaps	 XMMWORD PTR $T2[rbp], xmm0
  00060	0f 28 85 60 01
	00 00		 movaps	 xmm0, XMMWORD PTR $T2[rbp]

; 2978 : #endif
; 2979 : }

  00067	48 8d a5 88 01
	00 00		 lea	 rsp, QWORD PTR [rbp+392]
  0006e	5f		 pop	 rdi
  0006f	5d		 pop	 rbp
  00070	c3		 ret	 0
?XMVectorScale@DirectX@@YQ?AT__m128@@T2@M@Z ENDP	; DirectX::XMVectorScale
_TEXT	ENDS
; Function compile flags: /Odtp /RTCsu /ZI
; File c:\program files (x86)\windows kits\8.1\include\um\directxmathvector.inl
;	COMDAT ?XMVectorSubtract@DirectX@@YQ?AT__m128@@T2@0@Z
_TEXT	SEGMENT
V1$ = 16
V2$ = 64
$T1 = 304
?XMVectorSubtract@DirectX@@YQ?AT__m128@@T2@0@Z PROC	; DirectX::XMVectorSubtract, COMDAT

; 2784 : {

$LN3:
  00000	40 55		 push	 rbp
  00002	57		 push	 rdi
  00003	48 81 ec 68 01
	00 00		 sub	 rsp, 360		; 00000168H
  0000a	48 8d 6c 24 10	 lea	 rbp, QWORD PTR [rsp+16]
  0000f	48 8b fc	 mov	 rdi, rsp
  00012	b9 5a 00 00 00	 mov	 ecx, 90			; 0000005aH
  00017	b8 cc cc cc cc	 mov	 eax, -858993460		; ccccccccH
  0001c	f3 ab		 rep stosd
  0001e	48 8d 45 10	 lea	 rax, QWORD PTR V1$[rbp]
  00022	48 89 84 24 80
	01 00 00	 mov	 QWORD PTR [rsp+384], rax
  0002a	48 8d 45 40	 lea	 rax, QWORD PTR V2$[rbp]
  0002e	48 89 84 24 88
	01 00 00	 mov	 QWORD PTR [rsp+392], rax
  00036	0f 29 4d 40	 movaps	 XMMWORD PTR V2$[rbp], xmm1
  0003a	0f 29 45 10	 movaps	 XMMWORD PTR V1$[rbp], xmm0

; 2785 : #if defined(_XM_NO_INTRINSICS_)
; 2786 : 
; 2787 :     XMVECTOR Result;
; 2788 :     Result.vector4_f32[0] = V1.vector4_f32[0] - V2.vector4_f32[0];
; 2789 :     Result.vector4_f32[1] = V1.vector4_f32[1] - V2.vector4_f32[1];
; 2790 :     Result.vector4_f32[2] = V1.vector4_f32[2] - V2.vector4_f32[2];
; 2791 :     Result.vector4_f32[3] = V1.vector4_f32[3] - V2.vector4_f32[3];
; 2792 :     return Result;
; 2793 : 
; 2794 : #elif defined(_XM_ARM_NEON_INTRINSICS_)
; 2795 :     return vsubq_f32( V1, V2 );
; 2796 : #elif defined(_XM_SSE_INTRINSICS_)
; 2797 :     return _mm_sub_ps( V1, V2 );

  0003e	0f 28 45 10	 movaps	 xmm0, XMMWORD PTR V1$[rbp]
  00042	0f 5c 45 40	 subps	 xmm0, XMMWORD PTR V2$[rbp]
  00046	0f 29 85 30 01
	00 00		 movaps	 XMMWORD PTR $T1[rbp], xmm0
  0004d	0f 28 85 30 01
	00 00		 movaps	 xmm0, XMMWORD PTR $T1[rbp]

; 2798 : #endif
; 2799 : }

  00054	48 8d a5 58 01
	00 00		 lea	 rsp, QWORD PTR [rbp+344]
  0005b	5f		 pop	 rdi
  0005c	5d		 pop	 rbp
  0005d	c3		 ret	 0
?XMVectorSubtract@DirectX@@YQ?AT__m128@@T2@0@Z ENDP	; DirectX::XMVectorSubtract
_TEXT	ENDS
; Function compile flags: /Odtp /RTCsu /ZI
; File c:\program files (x86)\windows kits\8.1\include\um\directxmathvector.inl
;	COMDAT ?XMVectorAdd@DirectX@@YQ?AT__m128@@T2@0@Z
_TEXT	SEGMENT
V1$ = 16
V2$ = 64
$T1 = 304
?XMVectorAdd@DirectX@@YQ?AT__m128@@T2@0@Z PROC		; DirectX::XMVectorAdd, COMDAT

; 2701 : {

$LN3:
  00000	40 55		 push	 rbp
  00002	57		 push	 rdi
  00003	48 81 ec 68 01
	00 00		 sub	 rsp, 360		; 00000168H
  0000a	48 8d 6c 24 10	 lea	 rbp, QWORD PTR [rsp+16]
  0000f	48 8b fc	 mov	 rdi, rsp
  00012	b9 5a 00 00 00	 mov	 ecx, 90			; 0000005aH
  00017	b8 cc cc cc cc	 mov	 eax, -858993460		; ccccccccH
  0001c	f3 ab		 rep stosd
  0001e	48 8d 45 10	 lea	 rax, QWORD PTR V1$[rbp]
  00022	48 89 84 24 80
	01 00 00	 mov	 QWORD PTR [rsp+384], rax
  0002a	48 8d 45 40	 lea	 rax, QWORD PTR V2$[rbp]
  0002e	48 89 84 24 88
	01 00 00	 mov	 QWORD PTR [rsp+392], rax
  00036	0f 29 4d 40	 movaps	 XMMWORD PTR V2$[rbp], xmm1
  0003a	0f 29 45 10	 movaps	 XMMWORD PTR V1$[rbp], xmm0

; 2702 : #if defined(_XM_NO_INTRINSICS_)
; 2703 : 
; 2704 :     XMVECTOR Result;
; 2705 :     Result.vector4_f32[0] = V1.vector4_f32[0] + V2.vector4_f32[0];
; 2706 :     Result.vector4_f32[1] = V1.vector4_f32[1] + V2.vector4_f32[1];
; 2707 :     Result.vector4_f32[2] = V1.vector4_f32[2] + V2.vector4_f32[2];
; 2708 :     Result.vector4_f32[3] = V1.vector4_f32[3] + V2.vector4_f32[3];
; 2709 :     return Result;
; 2710 : 
; 2711 : #elif defined(_XM_ARM_NEON_INTRINSICS_)
; 2712 :     return vaddq_f32( V1, V2 );
; 2713 : #elif defined(_XM_SSE_INTRINSICS_)
; 2714 :     return _mm_add_ps( V1, V2 );

  0003e	0f 28 45 10	 movaps	 xmm0, XMMWORD PTR V1$[rbp]
  00042	0f 58 45 40	 addps	 xmm0, XMMWORD PTR V2$[rbp]
  00046	0f 29 85 30 01
	00 00		 movaps	 XMMWORD PTR $T1[rbp], xmm0
  0004d	0f 28 85 30 01
	00 00		 movaps	 xmm0, XMMWORD PTR $T1[rbp]

; 2715 : #endif
; 2716 : }

  00054	48 8d a5 58 01
	00 00		 lea	 rsp, QWORD PTR [rbp+344]
  0005b	5f		 pop	 rdi
  0005c	5d		 pop	 rbp
  0005d	c3		 ret	 0
?XMVectorAdd@DirectX@@YQ?AT__m128@@T2@0@Z ENDP		; DirectX::XMVectorAdd
_TEXT	ENDS
; Function compile flags: /Odtp /RTCsu /ZI
; File c:\program files (x86)\windows kits\8.1\include\um\directxmathvector.inl
;	COMDAT ?XMVectorSetY@DirectX@@YQ?AT__m128@@T2@M@Z
_TEXT	SEGMENT
V$ = 16
vResult$ = 64
vTemp$ = 112
$T1 = 352
$T2 = 400
$T3 = 448
$T4 = 496
y$ = 568
?XMVectorSetY@DirectX@@YQ?AT__m128@@T2@M@Z PROC		; DirectX::XMVectorSetY, COMDAT

; 742  : {

$LN3:
  00000	f3 0f 11 4c 24
	10		 movss	 DWORD PTR [rsp+16], xmm1
  00006	55		 push	 rbp
  00007	57		 push	 rdi
  00008	48 81 ec 28 02
	00 00		 sub	 rsp, 552		; 00000228H
  0000f	48 8d 6c 24 10	 lea	 rbp, QWORD PTR [rsp+16]
  00014	48 8b fc	 mov	 rdi, rsp
  00017	b9 8a 00 00 00	 mov	 ecx, 138		; 0000008aH
  0001c	b8 cc cc cc cc	 mov	 eax, -858993460		; ccccccccH
  00021	f3 ab		 rep stosd
  00023	48 8d 45 10	 lea	 rax, QWORD PTR V$[rbp]
  00027	48 89 84 24 40
	02 00 00	 mov	 QWORD PTR [rsp+576], rax
  0002f	0f 29 45 10	 movaps	 XMMWORD PTR V$[rbp], xmm0

; 743  : #if defined(_XM_NO_INTRINSICS_)
; 744  :     XMVECTOR U;
; 745  :     U.vector4_f32[0] = V.vector4_f32[0];
; 746  :     U.vector4_f32[1] = y;
; 747  :     U.vector4_f32[2] = V.vector4_f32[2];
; 748  :     U.vector4_f32[3] = V.vector4_f32[3];
; 749  :     return U;
; 750  : #elif defined(_XM_ARM_NEON_INTRINSICS_)
; 751  :     return vsetq_lane_f32(y,V,1);
; 752  : #elif defined(_XM_SSE_INTRINSICS_)
; 753  :     // Swap y and x
; 754  :     XMVECTOR vResult = XM_PERMUTE_PS(V,_MM_SHUFFLE(3,2,0,1));

  00033	0f 28 45 10	 movaps	 xmm0, XMMWORD PTR V$[rbp]
  00037	0f c6 45 10 e1	 shufps	 xmm0, XMMWORD PTR V$[rbp], 225 ; 000000e1H
  0003c	0f 29 85 60 01
	00 00		 movaps	 XMMWORD PTR $T1[rbp], xmm0
  00043	0f 28 85 60 01
	00 00		 movaps	 xmm0, XMMWORD PTR $T1[rbp]
  0004a	0f 29 45 40	 movaps	 XMMWORD PTR vResult$[rbp], xmm0

; 755  :     // Convert input to vector
; 756  :     XMVECTOR vTemp = _mm_set_ss(y);

  0004e	f3 0f 10 85 38
	02 00 00	 movss	 xmm0, DWORD PTR y$[rbp]
  00056	0f 57 c9	 xorps	 xmm1, xmm1
  00059	f3 0f 10 c8	 movss	 xmm1, xmm0
  0005d	0f 28 c1	 movaps	 xmm0, xmm1
  00060	0f 29 85 90 01
	00 00		 movaps	 XMMWORD PTR $T2[rbp], xmm0
  00067	0f 28 85 90 01
	00 00		 movaps	 xmm0, XMMWORD PTR $T2[rbp]
  0006e	0f 29 45 70	 movaps	 XMMWORD PTR vTemp$[rbp], xmm0

; 757  :     // Replace the x component
; 758  :     vResult = _mm_move_ss(vResult,vTemp);

  00072	0f 28 45 40	 movaps	 xmm0, XMMWORD PTR vResult$[rbp]
  00076	0f 28 4d 70	 movaps	 xmm1, XMMWORD PTR vTemp$[rbp]
  0007a	f3 0f 10 c1	 movss	 xmm0, xmm1
  0007e	0f 29 85 c0 01
	00 00		 movaps	 XMMWORD PTR $T3[rbp], xmm0
  00085	0f 28 85 c0 01
	00 00		 movaps	 xmm0, XMMWORD PTR $T3[rbp]
  0008c	0f 29 45 40	 movaps	 XMMWORD PTR vResult$[rbp], xmm0

; 759  :     // Swap y and x again
; 760  :     vResult = XM_PERMUTE_PS(vResult,_MM_SHUFFLE(3,2,0,1));

  00090	0f 28 45 40	 movaps	 xmm0, XMMWORD PTR vResult$[rbp]
  00094	0f c6 45 40 e1	 shufps	 xmm0, XMMWORD PTR vResult$[rbp], 225 ; 000000e1H
  00099	0f 29 85 f0 01
	00 00		 movaps	 XMMWORD PTR $T4[rbp], xmm0
  000a0	0f 28 85 f0 01
	00 00		 movaps	 xmm0, XMMWORD PTR $T4[rbp]
  000a7	0f 29 45 40	 movaps	 XMMWORD PTR vResult$[rbp], xmm0

; 761  :     return vResult;

  000ab	0f 28 45 40	 movaps	 xmm0, XMMWORD PTR vResult$[rbp]

; 762  : #endif
; 763  : }

  000af	48 8d a5 18 02
	00 00		 lea	 rsp, QWORD PTR [rbp+536]
  000b6	5f		 pop	 rdi
  000b7	5d		 pop	 rbp
  000b8	c3		 ret	 0
?XMVectorSetY@DirectX@@YQ?AT__m128@@T2@M@Z ENDP		; DirectX::XMVectorSetY
_TEXT	ENDS
; Function compile flags: /Odtp /RTCsu /ZI
; File c:\program files (x86)\windows kits\8.1\include\um\directxmathvector.inl
;	COMDAT ?XMVectorGetY@DirectX@@YQMT__m128@@@Z
_TEXT	SEGMENT
V$ = 16
vTemp$ = 64
$T1 = 304
tv70 = 324
?XMVectorGetY@DirectX@@YQMT__m128@@@Z PROC		; DirectX::XMVectorGetY, COMDAT

; 431  : {

$LN3:
  00000	40 55		 push	 rbp
  00002	57		 push	 rdi
  00003	48 81 ec 68 01
	00 00		 sub	 rsp, 360		; 00000168H
  0000a	48 8d 6c 24 10	 lea	 rbp, QWORD PTR [rsp+16]
  0000f	48 8b fc	 mov	 rdi, rsp
  00012	b9 5a 00 00 00	 mov	 ecx, 90			; 0000005aH
  00017	b8 cc cc cc cc	 mov	 eax, -858993460		; ccccccccH
  0001c	f3 ab		 rep stosd
  0001e	48 8d 45 10	 lea	 rax, QWORD PTR V$[rbp]
  00022	48 89 84 24 80
	01 00 00	 mov	 QWORD PTR [rsp+384], rax
  0002a	0f 29 45 10	 movaps	 XMMWORD PTR V$[rbp], xmm0

; 432  : #if defined(_XM_NO_INTRINSICS_)
; 433  :     return V.vector4_f32[1];
; 434  : #elif defined(_XM_ARM_NEON_INTRINSICS_)
; 435  :     return vgetq_lane_f32(V, 1);
; 436  : #elif defined(_XM_SSE_INTRINSICS_)
; 437  :     XMVECTOR vTemp = XM_PERMUTE_PS(V,_MM_SHUFFLE(1,1,1,1));

  0002e	0f 28 45 10	 movaps	 xmm0, XMMWORD PTR V$[rbp]
  00032	0f c6 45 10 55	 shufps	 xmm0, XMMWORD PTR V$[rbp], 85 ; 00000055H
  00037	0f 29 85 30 01
	00 00		 movaps	 XMMWORD PTR $T1[rbp], xmm0
  0003e	0f 28 85 30 01
	00 00		 movaps	 xmm0, XMMWORD PTR $T1[rbp]
  00045	0f 29 45 40	 movaps	 XMMWORD PTR vTemp$[rbp], xmm0

; 438  :     return _mm_cvtss_f32(vTemp);

  00049	0f 28 45 40	 movaps	 xmm0, XMMWORD PTR vTemp$[rbp]
  0004d	f3 0f 11 85 44
	01 00 00	 movss	 DWORD PTR tv70[rbp], xmm0
  00055	f3 0f 10 85 44
	01 00 00	 movss	 xmm0, DWORD PTR tv70[rbp]

; 439  : #endif
; 440  : }

  0005d	48 8d a5 58 01
	00 00		 lea	 rsp, QWORD PTR [rbp+344]
  00064	5f		 pop	 rdi
  00065	5d		 pop	 rbp
  00066	c3		 ret	 0
?XMVectorGetY@DirectX@@YQMT__m128@@@Z ENDP		; DirectX::XMVectorGetY
_TEXT	ENDS
; Function compile flags: /Odtp /RTCsu /ZI
; File c:\program files (x86)\windows kits\8.1\include\um\directxmathvector.inl
;	COMDAT ?XMVectorGetX@DirectX@@YQMT__m128@@@Z
_TEXT	SEGMENT
V$ = 16
tv66 = 228
?XMVectorGetX@DirectX@@YQMT__m128@@@Z PROC		; DirectX::XMVectorGetX, COMDAT

; 419  : {

$LN3:
  00000	40 55		 push	 rbp
  00002	57		 push	 rdi
  00003	48 81 ec 08 01
	00 00		 sub	 rsp, 264		; 00000108H
  0000a	48 8d 6c 24 10	 lea	 rbp, QWORD PTR [rsp+16]
  0000f	48 8b fc	 mov	 rdi, rsp
  00012	b9 42 00 00 00	 mov	 ecx, 66			; 00000042H
  00017	b8 cc cc cc cc	 mov	 eax, -858993460		; ccccccccH
  0001c	f3 ab		 rep stosd
  0001e	48 8d 45 10	 lea	 rax, QWORD PTR V$[rbp]
  00022	48 89 84 24 20
	01 00 00	 mov	 QWORD PTR [rsp+288], rax
  0002a	0f 29 45 10	 movaps	 XMMWORD PTR V$[rbp], xmm0

; 420  : #if defined(_XM_NO_INTRINSICS_)
; 421  :     return V.vector4_f32[0];
; 422  : #elif defined(_XM_ARM_NEON_INTRINSICS_)
; 423  :     return vgetq_lane_f32(V, 0);
; 424  : #elif defined(_XM_SSE_INTRINSICS_)
; 425  :     return _mm_cvtss_f32(V);

  0002e	0f 28 45 10	 movaps	 xmm0, XMMWORD PTR V$[rbp]
  00032	f3 0f 11 85 e4
	00 00 00	 movss	 DWORD PTR tv66[rbp], xmm0
  0003a	f3 0f 10 85 e4
	00 00 00	 movss	 xmm0, DWORD PTR tv66[rbp]

; 426  : #endif
; 427  : }

  00042	48 8d a5 f8 00
	00 00		 lea	 rsp, QWORD PTR [rbp+248]
  00049	5f		 pop	 rdi
  0004a	5d		 pop	 rbp
  0004b	c3		 ret	 0
?XMVectorGetX@DirectX@@YQMT__m128@@@Z ENDP		; DirectX::XMVectorGetX
_TEXT	ENDS
; Function compile flags: /Odtp /RTCsu /ZI
; File c:\program files (x86)\windows kits\8.1\include\um\directxmathvector.inl
;	COMDAT ?XMVectorSet@DirectX@@YQ?AT__m128@@MMMM@Z
_TEXT	SEGMENT
$T1 = 208
x$ = 272
y$ = 280
z$ = 288
w$ = 296
?XMVectorSet@DirectX@@YQ?AT__m128@@MMMM@Z PROC		; DirectX::XMVectorSet, COMDAT

; 71   : {

$LN3:
  00000	f3 0f 11 5c 24
	20		 movss	 DWORD PTR [rsp+32], xmm3
  00006	f3 0f 11 54 24
	18		 movss	 DWORD PTR [rsp+24], xmm2
  0000c	f3 0f 11 4c 24
	10		 movss	 DWORD PTR [rsp+16], xmm1
  00012	f3 0f 11 44 24
	08		 movss	 DWORD PTR [rsp+8], xmm0
  00018	55		 push	 rbp
  00019	57		 push	 rdi
  0001a	48 81 ec 08 01
	00 00		 sub	 rsp, 264		; 00000108H
  00021	48 8d 6c 24 10	 lea	 rbp, QWORD PTR [rsp+16]
  00026	48 8b fc	 mov	 rdi, rsp
  00029	b9 42 00 00 00	 mov	 ecx, 66			; 00000042H
  0002e	b8 cc cc cc cc	 mov	 eax, -858993460		; ccccccccH
  00033	f3 ab		 rep stosd

; 72   : #if defined(_XM_NO_INTRINSICS_)
; 73   :     XMVECTORF32 vResult = {x,y,z,w};
; 74   :     return vResult.v;
; 75   : #elif defined(_XM_ARM_NEON_INTRINSICS_)
; 76   :     float32x2_t V0 = vcreate_f32(((uint64_t)*(const uint32_t *)&x) | ((uint64_t)(*(const uint32_t *)&y) << 32));
; 77   :     float32x2_t V1 = vcreate_f32(((uint64_t)*(const uint32_t *)&z) | ((uint64_t)(*(const uint32_t *)&w) << 32));
; 78   :     return vcombine_f32(V0, V1);
; 79   : #elif defined(_XM_SSE_INTRINSICS_)
; 80   :     return _mm_set_ps( w, z, y, x );

  00035	f3 0f 10 85 28
	01 00 00	 movss	 xmm0, DWORD PTR w$[rbp]
  0003d	f3 0f 10 8d 20
	01 00 00	 movss	 xmm1, DWORD PTR z$[rbp]
  00045	f3 0f 10 95 18
	01 00 00	 movss	 xmm2, DWORD PTR y$[rbp]
  0004d	f3 0f 10 9d 10
	01 00 00	 movss	 xmm3, DWORD PTR x$[rbp]
  00055	0f 14 d9	 unpcklps xmm3, xmm1
  00058	0f 14 d0	 unpcklps xmm2, xmm0
  0005b	0f 28 c3	 movaps	 xmm0, xmm3
  0005e	0f 14 c2	 unpcklps xmm0, xmm2
  00061	0f 29 85 d0 00
	00 00		 movaps	 XMMWORD PTR $T1[rbp], xmm0
  00068	0f 28 85 d0 00
	00 00		 movaps	 xmm0, XMMWORD PTR $T1[rbp]

; 81   : #endif
; 82   : }

  0006f	48 8d a5 f8 00
	00 00		 lea	 rsp, QWORD PTR [rbp+248]
  00076	5f		 pop	 rdi
  00077	5d		 pop	 rbp
  00078	c3		 ret	 0
?XMVectorSet@DirectX@@YQ?AT__m128@@MMMM@Z ENDP		; DirectX::XMVectorSet
_TEXT	ENDS
; Function compile flags: /Odtp /RTCsu /ZI
; File c:\program files (x86)\windows kits\8.1\include\um\directxmathconvert.inl
;	COMDAT ?XMStoreFloat4x4@DirectX@@YQXPEAUXMFLOAT4X4@1@UXMMATRIX@1@@Z
_TEXT	SEGMENT
M$ = 16
pDestination$ = 320
?XMStoreFloat4x4@DirectX@@YQXPEAUXMFLOAT4X4@1@UXMMATRIX@1@@Z PROC ; DirectX::XMStoreFloat4x4, COMDAT

; 1818 : {

$LN4:
  00000	48 89 4c 24 08	 mov	 QWORD PTR [rsp+8], rcx
  00005	55		 push	 rbp
  00006	57		 push	 rdi
  00007	48 81 ec 48 01
	00 00		 sub	 rsp, 328		; 00000148H
  0000e	48 8d 6c 24 20	 lea	 rbp, QWORD PTR [rsp+32]
  00013	48 8b fc	 mov	 rdi, rsp
  00016	b9 52 00 00 00	 mov	 ecx, 82			; 00000052H
  0001b	b8 cc cc cc cc	 mov	 eax, -858993460		; ccccccccH
  00020	f3 ab		 rep stosd
  00022	48 8b 8c 24 68
	01 00 00	 mov	 rcx, QWORD PTR [rsp+360]
  0002a	48 8d 45 10	 lea	 rax, QWORD PTR M$[rbp]
  0002e	48 89 84 24 68
	01 00 00	 mov	 QWORD PTR [rsp+360], rax
  00036	0f 29 5d 40	 movaps	 XMMWORD PTR M$[rbp+48], xmm3
  0003a	0f 29 55 30	 movaps	 XMMWORD PTR M$[rbp+32], xmm2
  0003e	0f 29 4d 20	 movaps	 XMMWORD PTR M$[rbp+16], xmm1
  00042	0f 29 45 10	 movaps	 XMMWORD PTR M$[rbp], xmm0

; 1819 :     assert(pDestination);

  00046	48 83 bd 40 01
	00 00 00	 cmp	 QWORD PTR pDestination$[rbp], 0
  0004e	75 21		 jne	 SHORT $LN3@XMStoreFlo
  00050	8b 05 00 00 00
	00		 mov	 eax, DWORD PTR ?__LINE__Var@?0??XMStoreFloat4x4@DirectX@@YQXPEAUXMFLOAT4X4@2@UXMMATRIX@2@@Z@4JA
  00056	ff c0		 inc	 eax
  00058	44 8b c0	 mov	 r8d, eax
  0005b	48 8d 15 00 00
	00 00		 lea	 rdx, OFFSET FLAT:??_C@_1JE@DMOBBMDE@?$AAc?$AA?3?$AA?2?$AAp?$AAr?$AAo?$AAg?$AAr?$AAa?$AAm?$AA?5?$AAf?$AAi?$AAl?$AAe?$AAs?$AA?5?$AA?$CI?$AAx?$AA8?$AA6?$AA?$CJ?$AA?2?$AAw?$AAi?$AAn?$AAd?$AAo?$AAw?$AAs?$AA?5?$AAk@
  00062	48 8d 0d 00 00
	00 00		 lea	 rcx, OFFSET FLAT:??_C@_1BK@FHLBGAOP@?$AAp?$AAD?$AAe?$AAs?$AAt?$AAi?$AAn?$AAa?$AAt?$AAi?$AAo?$AAn?$AA?$AA@
  00069	ff 15 00 00 00
	00		 call	 QWORD PTR __imp__wassert
  0006f	33 c0		 xor	 eax, eax
$LN3@XMStoreFlo:

; 1820 : #if defined(_XM_NO_INTRINSICS_)
; 1821 : 
; 1822 :     pDestination->m[0][0] = M.r[0].vector4_f32[0];
; 1823 :     pDestination->m[0][1] = M.r[0].vector4_f32[1];
; 1824 :     pDestination->m[0][2] = M.r[0].vector4_f32[2];
; 1825 :     pDestination->m[0][3] = M.r[0].vector4_f32[3];
; 1826 : 
; 1827 :     pDestination->m[1][0] = M.r[1].vector4_f32[0];
; 1828 :     pDestination->m[1][1] = M.r[1].vector4_f32[1];
; 1829 :     pDestination->m[1][2] = M.r[1].vector4_f32[2];
; 1830 :     pDestination->m[1][3] = M.r[1].vector4_f32[3];
; 1831 : 
; 1832 :     pDestination->m[2][0] = M.r[2].vector4_f32[0];
; 1833 :     pDestination->m[2][1] = M.r[2].vector4_f32[1];
; 1834 :     pDestination->m[2][2] = M.r[2].vector4_f32[2];
; 1835 :     pDestination->m[2][3] = M.r[2].vector4_f32[3];
; 1836 : 
; 1837 :     pDestination->m[3][0] = M.r[3].vector4_f32[0];
; 1838 :     pDestination->m[3][1] = M.r[3].vector4_f32[1];
; 1839 :     pDestination->m[3][2] = M.r[3].vector4_f32[2];
; 1840 :     pDestination->m[3][3] = M.r[3].vector4_f32[3];
; 1841 : 
; 1842 : #elif defined(_XM_ARM_NEON_INTRINSICS_)
; 1843 :     vst1q_f32( reinterpret_cast<float*>(&pDestination->_11), M.r[0] );
; 1844 :     vst1q_f32( reinterpret_cast<float*>(&pDestination->_21), M.r[1] );
; 1845 :     vst1q_f32( reinterpret_cast<float*>(&pDestination->_31), M.r[2] );
; 1846 :     vst1q_f32( reinterpret_cast<float*>(&pDestination->_41), M.r[3] );
; 1847 : #elif defined(_XM_SSE_INTRINSICS_)
; 1848 :     _mm_storeu_ps( &pDestination->_11, M.r[0] );

  00071	b8 10 00 00 00	 mov	 eax, 16
  00076	48 6b c0 00	 imul	 rax, rax, 0
  0007a	48 8b 8d 40 01
	00 00		 mov	 rcx, QWORD PTR pDestination$[rbp]
  00081	0f 10 44 05 10	 movups	 xmm0, XMMWORD PTR M$[rbp+rax]
  00086	0f 11 01	 movups	 XMMWORD PTR [rcx], xmm0

; 1849 :     _mm_storeu_ps( &pDestination->_21, M.r[1] );

  00089	b8 10 00 00 00	 mov	 eax, 16
  0008e	48 6b c0 01	 imul	 rax, rax, 1
  00092	48 8b 8d 40 01
	00 00		 mov	 rcx, QWORD PTR pDestination$[rbp]
  00099	48 83 c1 10	 add	 rcx, 16
  0009d	0f 10 44 05 10	 movups	 xmm0, XMMWORD PTR M$[rbp+rax]
  000a2	0f 11 01	 movups	 XMMWORD PTR [rcx], xmm0

; 1850 :     _mm_storeu_ps( &pDestination->_31, M.r[2] );

  000a5	b8 10 00 00 00	 mov	 eax, 16
  000aa	48 6b c0 02	 imul	 rax, rax, 2
  000ae	48 8b 8d 40 01
	00 00		 mov	 rcx, QWORD PTR pDestination$[rbp]
  000b5	48 83 c1 20	 add	 rcx, 32			; 00000020H
  000b9	0f 10 44 05 10	 movups	 xmm0, XMMWORD PTR M$[rbp+rax]
  000be	0f 11 01	 movups	 XMMWORD PTR [rcx], xmm0

; 1851 :     _mm_storeu_ps( &pDestination->_41, M.r[3] );

  000c1	b8 10 00 00 00	 mov	 eax, 16
  000c6	48 6b c0 03	 imul	 rax, rax, 3
  000ca	48 8b 8d 40 01
	00 00		 mov	 rcx, QWORD PTR pDestination$[rbp]
  000d1	48 83 c1 30	 add	 rcx, 48			; 00000030H
  000d5	0f 10 44 05 10	 movups	 xmm0, XMMWORD PTR M$[rbp+rax]
  000da	0f 11 01	 movups	 XMMWORD PTR [rcx], xmm0

; 1852 : #endif
; 1853 : }

  000dd	48 8d 4d e0	 lea	 rcx, QWORD PTR [rbp-32]
  000e1	48 8d 15 00 00
	00 00		 lea	 rdx, OFFSET FLAT:?XMStoreFloat4x4@DirectX@@YQXPEAUXMFLOAT4X4@1@UXMMATRIX@1@@Z$rtcFrameData
  000e8	e8 00 00 00 00	 call	 _RTC_CheckStackVars
  000ed	48 8d a5 28 01
	00 00		 lea	 rsp, QWORD PTR [rbp+296]
  000f4	5f		 pop	 rdi
  000f5	5d		 pop	 rbp
  000f6	c3		 ret	 0
?XMStoreFloat4x4@DirectX@@YQXPEAUXMFLOAT4X4@1@UXMMATRIX@1@@Z ENDP ; DirectX::XMStoreFloat4x4
_TEXT	ENDS
; Function compile flags: /Odtp /RTCsu /ZI
; File c:\program files (x86)\windows kits\8.1\include\um\directxmathconvert.inl
;	COMDAT ?XMStoreFloat4@DirectX@@YQXPEAUXMFLOAT4@1@T__m128@@@Z
_TEXT	SEGMENT
V$ = 16
pDestination$ = 272
?XMStoreFloat4@DirectX@@YQXPEAUXMFLOAT4@1@T__m128@@@Z PROC ; DirectX::XMStoreFloat4, COMDAT

; 1538 : {

$LN4:
  00000	48 89 4c 24 08	 mov	 QWORD PTR [rsp+8], rcx
  00005	55		 push	 rbp
  00006	57		 push	 rdi
  00007	48 81 ec 18 01
	00 00		 sub	 rsp, 280		; 00000118H
  0000e	48 8d 6c 24 20	 lea	 rbp, QWORD PTR [rsp+32]
  00013	48 8b fc	 mov	 rdi, rsp
  00016	b9 46 00 00 00	 mov	 ecx, 70			; 00000046H
  0001b	b8 cc cc cc cc	 mov	 eax, -858993460		; ccccccccH
  00020	f3 ab		 rep stosd
  00022	48 8b 8c 24 38
	01 00 00	 mov	 rcx, QWORD PTR [rsp+312]
  0002a	48 8d 45 10	 lea	 rax, QWORD PTR V$[rbp]
  0002e	48 89 84 24 38
	01 00 00	 mov	 QWORD PTR [rsp+312], rax
  00036	0f 29 4d 10	 movaps	 XMMWORD PTR V$[rbp], xmm1

; 1539 :     assert(pDestination);

  0003a	48 83 bd 10 01
	00 00 00	 cmp	 QWORD PTR pDestination$[rbp], 0
  00042	75 21		 jne	 SHORT $LN3@XMStoreFlo
  00044	8b 05 00 00 00
	00		 mov	 eax, DWORD PTR ?__LINE__Var@?0??XMStoreFloat4@DirectX@@YQXPEAUXMFLOAT4@2@T__m128@@@Z@4JA
  0004a	ff c0		 inc	 eax
  0004c	44 8b c0	 mov	 r8d, eax
  0004f	48 8d 15 00 00
	00 00		 lea	 rdx, OFFSET FLAT:??_C@_1JE@DMOBBMDE@?$AAc?$AA?3?$AA?2?$AAp?$AAr?$AAo?$AAg?$AAr?$AAa?$AAm?$AA?5?$AAf?$AAi?$AAl?$AAe?$AAs?$AA?5?$AA?$CI?$AAx?$AA8?$AA6?$AA?$CJ?$AA?2?$AAw?$AAi?$AAn?$AAd?$AAo?$AAw?$AAs?$AA?5?$AAk@
  00056	48 8d 0d 00 00
	00 00		 lea	 rcx, OFFSET FLAT:??_C@_1BK@FHLBGAOP@?$AAp?$AAD?$AAe?$AAs?$AAt?$AAi?$AAn?$AAa?$AAt?$AAi?$AAo?$AAn?$AA?$AA@
  0005d	ff 15 00 00 00
	00		 call	 QWORD PTR __imp__wassert
  00063	33 c0		 xor	 eax, eax
$LN3@XMStoreFlo:

; 1540 : #if defined(_XM_NO_INTRINSICS_)
; 1541 :     pDestination->x = V.vector4_f32[0];
; 1542 :     pDestination->y = V.vector4_f32[1];
; 1543 :     pDestination->z = V.vector4_f32[2];
; 1544 :     pDestination->w = V.vector4_f32[3];
; 1545 : #elif defined(_XM_ARM_NEON_INTRINSICS_)
; 1546 :     vst1q_f32( reinterpret_cast<float*>(pDestination), V );
; 1547 : #elif defined(_XM_SSE_INTRINSICS_)
; 1548 :     _mm_storeu_ps( &pDestination->x, V );

  00065	48 8b 85 10 01
	00 00		 mov	 rax, QWORD PTR pDestination$[rbp]
  0006c	0f 28 45 10	 movaps	 xmm0, XMMWORD PTR V$[rbp]
  00070	0f 11 00	 movups	 XMMWORD PTR [rax], xmm0

; 1549 : #endif
; 1550 : }

  00073	48 8d a5 f8 00
	00 00		 lea	 rsp, QWORD PTR [rbp+248]
  0007a	5f		 pop	 rdi
  0007b	5d		 pop	 rbp
  0007c	c3		 ret	 0
?XMStoreFloat4@DirectX@@YQXPEAUXMFLOAT4@1@T__m128@@@Z ENDP ; DirectX::XMStoreFloat4
_TEXT	ENDS
; Function compile flags: /Odtp /RTCsu /ZI
; File c:\program files (x86)\windows kits\8.1\include\um\directxmathconvert.inl
;	COMDAT ?XMLoadFloat4@DirectX@@YQ?AT__m128@@PEBUXMFLOAT4@1@@Z
_TEXT	SEGMENT
$T1 = 208
pSource$ = 272
?XMLoadFloat4@DirectX@@YQ?AT__m128@@PEBUXMFLOAT4@1@@Z PROC ; DirectX::XMLoadFloat4, COMDAT

; 680  : {

$LN4:
  00000	48 89 4c 24 08	 mov	 QWORD PTR [rsp+8], rcx
  00005	55		 push	 rbp
  00006	57		 push	 rdi
  00007	48 81 ec 28 01
	00 00		 sub	 rsp, 296		; 00000128H
  0000e	48 8d 6c 24 30	 lea	 rbp, QWORD PTR [rsp+48]
  00013	48 8b fc	 mov	 rdi, rsp
  00016	b9 4a 00 00 00	 mov	 ecx, 74			; 0000004aH
  0001b	b8 cc cc cc cc	 mov	 eax, -858993460		; ccccccccH
  00020	f3 ab		 rep stosd
  00022	48 8b 8c 24 48
	01 00 00	 mov	 rcx, QWORD PTR [rsp+328]

; 681  :     assert(pSource);

  0002a	48 83 bd 10 01
	00 00 00	 cmp	 QWORD PTR pSource$[rbp], 0
  00032	75 21		 jne	 SHORT $LN3@XMLoadFloa
  00034	8b 05 00 00 00
	00		 mov	 eax, DWORD PTR ?__LINE__Var@?0??XMLoadFloat4@DirectX@@YQ?AT__m128@@PEBUXMFLOAT4@2@@Z@4JA
  0003a	ff c0		 inc	 eax
  0003c	44 8b c0	 mov	 r8d, eax
  0003f	48 8d 15 00 00
	00 00		 lea	 rdx, OFFSET FLAT:??_C@_1JE@DMOBBMDE@?$AAc?$AA?3?$AA?2?$AAp?$AAr?$AAo?$AAg?$AAr?$AAa?$AAm?$AA?5?$AAf?$AAi?$AAl?$AAe?$AAs?$AA?5?$AA?$CI?$AAx?$AA8?$AA6?$AA?$CJ?$AA?2?$AAw?$AAi?$AAn?$AAd?$AAo?$AAw?$AAs?$AA?5?$AAk@
  00046	48 8d 0d 00 00
	00 00		 lea	 rcx, OFFSET FLAT:??_C@_1BA@LBADLIHI@?$AAp?$AAS?$AAo?$AAu?$AAr?$AAc?$AAe?$AA?$AA@
  0004d	ff 15 00 00 00
	00		 call	 QWORD PTR __imp__wassert
  00053	33 c0		 xor	 eax, eax
$LN3@XMLoadFloa:

; 682  : #if defined(_XM_NO_INTRINSICS_)
; 683  :     XMVECTOR V;
; 684  :     V.vector4_f32[0] = pSource->x;
; 685  :     V.vector4_f32[1] = pSource->y;
; 686  :     V.vector4_f32[2] = pSource->z;
; 687  :     V.vector4_f32[3] = pSource->w;
; 688  :     return V;
; 689  : #elif defined(_XM_ARM_NEON_INTRINSICS_)
; 690  :     return vld1q_f32( reinterpret_cast<const float*>(pSource) );
; 691  : #elif defined(_XM_SSE_INTRINSICS_)
; 692  :     return _mm_loadu_ps( &pSource->x );

  00055	48 8b 85 10 01
	00 00		 mov	 rax, QWORD PTR pSource$[rbp]
  0005c	0f 10 00	 movups	 xmm0, XMMWORD PTR [rax]
  0005f	0f 29 85 d0 00
	00 00		 movaps	 XMMWORD PTR $T1[rbp], xmm0
  00066	0f 28 85 d0 00
	00 00		 movaps	 xmm0, XMMWORD PTR $T1[rbp]

; 693  : #endif
; 694  : }

  0006d	48 8d a5 f8 00
	00 00		 lea	 rsp, QWORD PTR [rbp+248]
  00074	5f		 pop	 rdi
  00075	5d		 pop	 rbp
  00076	c3		 ret	 0
?XMLoadFloat4@DirectX@@YQ?AT__m128@@PEBUXMFLOAT4@1@@Z ENDP ; DirectX::XMLoadFloat4
_TEXT	ENDS
; Function compile flags: /Odtp /RTCsu /ZI
; File c:\program files (x86)\windows kits\8.1\include\um\directxmathconvert.inl
;	COMDAT ?XMLoadFloat3@DirectX@@YQ?AT__m128@@PEBUXMFLOAT3@1@@Z
_TEXT	SEGMENT
x$ = 16
y$ = 64
z$ = 112
xy$ = 160
$T1 = 400
$T2 = 448
$T3 = 496
$T4 = 544
$T5 = 592
pSource$ = 656
?XMLoadFloat3@DirectX@@YQ?AT__m128@@PEBUXMFLOAT3@1@@Z PROC ; DirectX::XMLoadFloat3, COMDAT

; 499  : {

$LN4:
  00000	48 89 4c 24 08	 mov	 QWORD PTR [rsp+8], rcx
  00005	55		 push	 rbp
  00006	57		 push	 rdi
  00007	48 81 ec a8 02
	00 00		 sub	 rsp, 680		; 000002a8H
  0000e	48 8d 6c 24 30	 lea	 rbp, QWORD PTR [rsp+48]
  00013	48 8b fc	 mov	 rdi, rsp
  00016	b9 aa 00 00 00	 mov	 ecx, 170		; 000000aaH
  0001b	b8 cc cc cc cc	 mov	 eax, -858993460		; ccccccccH
  00020	f3 ab		 rep stosd
  00022	48 8b 8c 24 c8
	02 00 00	 mov	 rcx, QWORD PTR [rsp+712]

; 500  :     assert(pSource);

  0002a	48 83 bd 90 02
	00 00 00	 cmp	 QWORD PTR pSource$[rbp], 0
  00032	75 21		 jne	 SHORT $LN3@XMLoadFloa
  00034	8b 05 00 00 00
	00		 mov	 eax, DWORD PTR ?__LINE__Var@?0??XMLoadFloat3@DirectX@@YQ?AT__m128@@PEBUXMFLOAT3@2@@Z@4JA
  0003a	ff c0		 inc	 eax
  0003c	44 8b c0	 mov	 r8d, eax
  0003f	48 8d 15 00 00
	00 00		 lea	 rdx, OFFSET FLAT:??_C@_1JE@DMOBBMDE@?$AAc?$AA?3?$AA?2?$AAp?$AAr?$AAo?$AAg?$AAr?$AAa?$AAm?$AA?5?$AAf?$AAi?$AAl?$AAe?$AAs?$AA?5?$AA?$CI?$AAx?$AA8?$AA6?$AA?$CJ?$AA?2?$AAw?$AAi?$AAn?$AAd?$AAo?$AAw?$AAs?$AA?5?$AAk@
  00046	48 8d 0d 00 00
	00 00		 lea	 rcx, OFFSET FLAT:??_C@_1BA@LBADLIHI@?$AAp?$AAS?$AAo?$AAu?$AAr?$AAc?$AAe?$AA?$AA@
  0004d	ff 15 00 00 00
	00		 call	 QWORD PTR __imp__wassert
  00053	33 c0		 xor	 eax, eax
$LN3@XMLoadFloa:

; 501  : #if defined(_XM_NO_INTRINSICS_)
; 502  :     XMVECTOR V;
; 503  :     V.vector4_f32[0] = pSource->x;
; 504  :     V.vector4_f32[1] = pSource->y;
; 505  :     V.vector4_f32[2] = pSource->z;
; 506  :     V.vector4_f32[3] = 0.f;
; 507  :     return V;
; 508  : #elif defined(_XM_ARM_NEON_INTRINSICS_)
; 509  :     float32x2_t x = vld1_f32( reinterpret_cast<const float*>(pSource) );
; 510  :     float32x2_t zero = vdup_n_f32(0);
; 511  :     float32x2_t y = vld1_lane_f32( reinterpret_cast<const float*>(pSource)+2, zero, 0 );
; 512  :     return vcombine_f32( x, y );
; 513  : #elif defined(_XM_SSE_INTRINSICS_)
; 514  :     __m128 x = _mm_load_ss( &pSource->x );

  00055	48 8b 85 90 02
	00 00		 mov	 rax, QWORD PTR pSource$[rbp]
  0005c	f3 0f 10 00	 movss	 xmm0, DWORD PTR [rax]
  00060	0f 57 c9	 xorps	 xmm1, xmm1
  00063	f3 0f 10 c8	 movss	 xmm1, xmm0
  00067	0f 28 c1	 movaps	 xmm0, xmm1
  0006a	0f 29 85 90 01
	00 00		 movaps	 XMMWORD PTR $T1[rbp], xmm0
  00071	0f 28 85 90 01
	00 00		 movaps	 xmm0, XMMWORD PTR $T1[rbp]
  00078	0f 29 45 10	 movaps	 XMMWORD PTR x$[rbp], xmm0

; 515  :     __m128 y = _mm_load_ss( &pSource->y );

  0007c	48 8b 85 90 02
	00 00		 mov	 rax, QWORD PTR pSource$[rbp]
  00083	48 83 c0 04	 add	 rax, 4
  00087	f3 0f 10 00	 movss	 xmm0, DWORD PTR [rax]
  0008b	0f 57 c9	 xorps	 xmm1, xmm1
  0008e	f3 0f 10 c8	 movss	 xmm1, xmm0
  00092	0f 28 c1	 movaps	 xmm0, xmm1
  00095	0f 29 85 c0 01
	00 00		 movaps	 XMMWORD PTR $T2[rbp], xmm0
  0009c	0f 28 85 c0 01
	00 00		 movaps	 xmm0, XMMWORD PTR $T2[rbp]
  000a3	0f 29 45 40	 movaps	 XMMWORD PTR y$[rbp], xmm0

; 516  :     __m128 z = _mm_load_ss( &pSource->z );

  000a7	48 8b 85 90 02
	00 00		 mov	 rax, QWORD PTR pSource$[rbp]
  000ae	48 83 c0 08	 add	 rax, 8
  000b2	f3 0f 10 00	 movss	 xmm0, DWORD PTR [rax]
  000b6	0f 57 c9	 xorps	 xmm1, xmm1
  000b9	f3 0f 10 c8	 movss	 xmm1, xmm0
  000bd	0f 28 c1	 movaps	 xmm0, xmm1
  000c0	0f 29 85 f0 01
	00 00		 movaps	 XMMWORD PTR $T3[rbp], xmm0
  000c7	0f 28 85 f0 01
	00 00		 movaps	 xmm0, XMMWORD PTR $T3[rbp]
  000ce	0f 29 45 70	 movaps	 XMMWORD PTR z$[rbp], xmm0

; 517  :     __m128 xy = _mm_unpacklo_ps( x, y );

  000d2	0f 28 45 10	 movaps	 xmm0, XMMWORD PTR x$[rbp]
  000d6	0f 14 45 40	 unpcklps xmm0, XMMWORD PTR y$[rbp]
  000da	0f 29 85 20 02
	00 00		 movaps	 XMMWORD PTR $T4[rbp], xmm0
  000e1	0f 28 85 20 02
	00 00		 movaps	 xmm0, XMMWORD PTR $T4[rbp]
  000e8	0f 29 85 a0 00
	00 00		 movaps	 XMMWORD PTR xy$[rbp], xmm0

; 518  :     return _mm_movelh_ps( xy, z );

  000ef	0f 28 85 a0 00
	00 00		 movaps	 xmm0, XMMWORD PTR xy$[rbp]
  000f6	0f 28 4d 70	 movaps	 xmm1, XMMWORD PTR z$[rbp]
  000fa	0f 16 c1	 movlhps xmm0, xmm1
  000fd	0f 29 85 50 02
	00 00		 movaps	 XMMWORD PTR $T5[rbp], xmm0
  00104	0f 28 85 50 02
	00 00		 movaps	 xmm0, XMMWORD PTR $T5[rbp]

; 519  : #endif
; 520  : }

  0010b	48 8d a5 78 02
	00 00		 lea	 rsp, QWORD PTR [rbp+632]
  00112	5f		 pop	 rdi
  00113	5d		 pop	 rbp
  00114	c3		 ret	 0
?XMLoadFloat3@DirectX@@YQ?AT__m128@@PEBUXMFLOAT3@1@@Z ENDP ; DirectX::XMLoadFloat3
_TEXT	ENDS
; Function compile flags: /Odtp /RTCsu /ZI
; File c:\program files (x86)\windows kits\8.1\include\um\directxmath.h
;	COMDAT ??0XMFLOAT4X4@DirectX@@QEAA@XZ
_TEXT	SEGMENT
this$ = 224
??0XMFLOAT4X4@DirectX@@QEAA@XZ PROC			; DirectX::XMFLOAT4X4::XMFLOAT4X4, COMDAT

; 698  :     XMFLOAT4X4() {}

$LN3:
  00000	48 89 4c 24 08	 mov	 QWORD PTR [rsp+8], rcx
  00005	55		 push	 rbp
  00006	57		 push	 rdi
  00007	48 81 ec c8 00
	00 00		 sub	 rsp, 200		; 000000c8H
  0000e	48 8b ec	 mov	 rbp, rsp
  00011	48 8b fc	 mov	 rdi, rsp
  00014	b9 32 00 00 00	 mov	 ecx, 50			; 00000032H
  00019	b8 cc cc cc cc	 mov	 eax, -858993460		; ccccccccH
  0001e	f3 ab		 rep stosd
  00020	48 8b 8c 24 e8
	00 00 00	 mov	 rcx, QWORD PTR [rsp+232]
  00028	48 8b 85 e0 00
	00 00		 mov	 rax, QWORD PTR this$[rbp]
  0002f	48 8d a5 c8 00
	00 00		 lea	 rsp, QWORD PTR [rbp+200]
  00036	5f		 pop	 rdi
  00037	5d		 pop	 rbp
  00038	c3		 ret	 0
??0XMFLOAT4X4@DirectX@@QEAA@XZ ENDP			; DirectX::XMFLOAT4X4::XMFLOAT4X4
_TEXT	ENDS
; Function compile flags: /Odtp /RTCsu /ZI
; File c:\program files (x86)\windows kits\8.1\include\um\directxmath.h
;	COMDAT ??4XMFLOAT4@DirectX@@QEAAAEAU01@AEBU01@@Z
_TEXT	SEGMENT
this$ = 224
Float4$ = 232
??4XMFLOAT4@DirectX@@QEAAAEAU01@AEBU01@@Z PROC		; DirectX::XMFLOAT4::operator=, COMDAT

; 564  :     XMFLOAT4& operator= (const XMFLOAT4& Float4) { x = Float4.x; y = Float4.y; z = Float4.z; w = Float4.w; return *this; }

$LN3:
  00000	48 89 54 24 10	 mov	 QWORD PTR [rsp+16], rdx
  00005	48 89 4c 24 08	 mov	 QWORD PTR [rsp+8], rcx
  0000a	55		 push	 rbp
  0000b	57		 push	 rdi
  0000c	48 81 ec c8 00
	00 00		 sub	 rsp, 200		; 000000c8H
  00013	48 8b ec	 mov	 rbp, rsp
  00016	48 8b fc	 mov	 rdi, rsp
  00019	b9 32 00 00 00	 mov	 ecx, 50			; 00000032H
  0001e	b8 cc cc cc cc	 mov	 eax, -858993460		; ccccccccH
  00023	f3 ab		 rep stosd
  00025	48 8b 8c 24 e8
	00 00 00	 mov	 rcx, QWORD PTR [rsp+232]
  0002d	48 8b 85 e0 00
	00 00		 mov	 rax, QWORD PTR this$[rbp]
  00034	48 8b 8d e8 00
	00 00		 mov	 rcx, QWORD PTR Float4$[rbp]
  0003b	f3 0f 10 01	 movss	 xmm0, DWORD PTR [rcx]
  0003f	f3 0f 11 00	 movss	 DWORD PTR [rax], xmm0
  00043	48 8b 85 e0 00
	00 00		 mov	 rax, QWORD PTR this$[rbp]
  0004a	48 8b 8d e8 00
	00 00		 mov	 rcx, QWORD PTR Float4$[rbp]
  00051	f3 0f 10 41 04	 movss	 xmm0, DWORD PTR [rcx+4]
  00056	f3 0f 11 40 04	 movss	 DWORD PTR [rax+4], xmm0
  0005b	48 8b 85 e0 00
	00 00		 mov	 rax, QWORD PTR this$[rbp]
  00062	48 8b 8d e8 00
	00 00		 mov	 rcx, QWORD PTR Float4$[rbp]
  00069	f3 0f 10 41 08	 movss	 xmm0, DWORD PTR [rcx+8]
  0006e	f3 0f 11 40 08	 movss	 DWORD PTR [rax+8], xmm0
  00073	48 8b 85 e0 00
	00 00		 mov	 rax, QWORD PTR this$[rbp]
  0007a	48 8b 8d e8 00
	00 00		 mov	 rcx, QWORD PTR Float4$[rbp]
  00081	f3 0f 10 41 0c	 movss	 xmm0, DWORD PTR [rcx+12]
  00086	f3 0f 11 40 0c	 movss	 DWORD PTR [rax+12], xmm0
  0008b	48 8b 85 e0 00
	00 00		 mov	 rax, QWORD PTR this$[rbp]
  00092	48 8d a5 c8 00
	00 00		 lea	 rsp, QWORD PTR [rbp+200]
  00099	5f		 pop	 rdi
  0009a	5d		 pop	 rbp
  0009b	c3		 ret	 0
??4XMFLOAT4@DirectX@@QEAAAEAU01@AEBU01@@Z ENDP		; DirectX::XMFLOAT4::operator=
_TEXT	ENDS
; Function compile flags: /Odtp /RTCsu /ZI
; File c:\program files (x86)\windows kits\8.1\include\um\directxmath.h
;	COMDAT ??0XMFLOAT4@DirectX@@QEAA@XZ
_TEXT	SEGMENT
this$ = 224
??0XMFLOAT4@DirectX@@QEAA@XZ PROC			; DirectX::XMFLOAT4::XMFLOAT4, COMDAT

; 560  :     XMFLOAT4() {}

$LN3:
  00000	48 89 4c 24 08	 mov	 QWORD PTR [rsp+8], rcx
  00005	55		 push	 rbp
  00006	57		 push	 rdi
  00007	48 81 ec c8 00
	00 00		 sub	 rsp, 200		; 000000c8H
  0000e	48 8b ec	 mov	 rbp, rsp
  00011	48 8b fc	 mov	 rdi, rsp
  00014	b9 32 00 00 00	 mov	 ecx, 50			; 00000032H
  00019	b8 cc cc cc cc	 mov	 eax, -858993460		; ccccccccH
  0001e	f3 ab		 rep stosd
  00020	48 8b 8c 24 e8
	00 00 00	 mov	 rcx, QWORD PTR [rsp+232]
  00028	48 8b 85 e0 00
	00 00		 mov	 rax, QWORD PTR this$[rbp]
  0002f	48 8d a5 c8 00
	00 00		 lea	 rsp, QWORD PTR [rbp+200]
  00036	5f		 pop	 rdi
  00037	5d		 pop	 rbp
  00038	c3		 ret	 0
??0XMFLOAT4@DirectX@@QEAA@XZ ENDP			; DirectX::XMFLOAT4::XMFLOAT4
_TEXT	ENDS
; Function compile flags: /Odtp /RTCsu /ZI
; File c:\program files (x86)\windows kits\8.1\include\um\directxmath.h
;	COMDAT ??4XMFLOAT3@DirectX@@QEAAAEAU01@AEBU01@@Z
_TEXT	SEGMENT
this$ = 224
Float3$ = 232
??4XMFLOAT3@DirectX@@QEAAAEAU01@AEBU01@@Z PROC		; DirectX::XMFLOAT3::operator=, COMDAT

; 509  :     XMFLOAT3& operator= (const XMFLOAT3& Float3) { x = Float3.x; y = Float3.y; z = Float3.z; return *this; }

$LN3:
  00000	48 89 54 24 10	 mov	 QWORD PTR [rsp+16], rdx
  00005	48 89 4c 24 08	 mov	 QWORD PTR [rsp+8], rcx
  0000a	55		 push	 rbp
  0000b	57		 push	 rdi
  0000c	48 81 ec c8 00
	00 00		 sub	 rsp, 200		; 000000c8H
  00013	48 8b ec	 mov	 rbp, rsp
  00016	48 8b fc	 mov	 rdi, rsp
  00019	b9 32 00 00 00	 mov	 ecx, 50			; 00000032H
  0001e	b8 cc cc cc cc	 mov	 eax, -858993460		; ccccccccH
  00023	f3 ab		 rep stosd
  00025	48 8b 8c 24 e8
	00 00 00	 mov	 rcx, QWORD PTR [rsp+232]
  0002d	48 8b 85 e0 00
	00 00		 mov	 rax, QWORD PTR this$[rbp]
  00034	48 8b 8d e8 00
	00 00		 mov	 rcx, QWORD PTR Float3$[rbp]
  0003b	f3 0f 10 01	 movss	 xmm0, DWORD PTR [rcx]
  0003f	f3 0f 11 00	 movss	 DWORD PTR [rax], xmm0
  00043	48 8b 85 e0 00
	00 00		 mov	 rax, QWORD PTR this$[rbp]
  0004a	48 8b 8d e8 00
	00 00		 mov	 rcx, QWORD PTR Float3$[rbp]
  00051	f3 0f 10 41 04	 movss	 xmm0, DWORD PTR [rcx+4]
  00056	f3 0f 11 40 04	 movss	 DWORD PTR [rax+4], xmm0
  0005b	48 8b 85 e0 00
	00 00		 mov	 rax, QWORD PTR this$[rbp]
  00062	48 8b 8d e8 00
	00 00		 mov	 rcx, QWORD PTR Float3$[rbp]
  00069	f3 0f 10 41 08	 movss	 xmm0, DWORD PTR [rcx+8]
  0006e	f3 0f 11 40 08	 movss	 DWORD PTR [rax+8], xmm0
  00073	48 8b 85 e0 00
	00 00		 mov	 rax, QWORD PTR this$[rbp]
  0007a	48 8d a5 c8 00
	00 00		 lea	 rsp, QWORD PTR [rbp+200]
  00081	5f		 pop	 rdi
  00082	5d		 pop	 rbp
  00083	c3		 ret	 0
??4XMFLOAT3@DirectX@@QEAAAEAU01@AEBU01@@Z ENDP		; DirectX::XMFLOAT3::operator=
_TEXT	ENDS
; Function compile flags: /Odtp /RTCsu /ZI
; File c:\program files (x86)\windows kits\8.1\include\um\directxmath.h
;	COMDAT ??0XMFLOAT3@DirectX@@QEAA@MMM@Z
_TEXT	SEGMENT
this$ = 224
_x$ = 232
_y$ = 240
_z$ = 248
??0XMFLOAT3@DirectX@@QEAA@MMM@Z PROC			; DirectX::XMFLOAT3::XMFLOAT3, COMDAT

; 506  :     XMFLOAT3(float _x, float _y, float _z) : x(_x), y(_y), z(_z) {}

$LN3:
  00000	f3 0f 11 5c 24
	20		 movss	 DWORD PTR [rsp+32], xmm3
  00006	f3 0f 11 54 24
	18		 movss	 DWORD PTR [rsp+24], xmm2
  0000c	f3 0f 11 4c 24
	10		 movss	 DWORD PTR [rsp+16], xmm1
  00012	48 89 4c 24 08	 mov	 QWORD PTR [rsp+8], rcx
  00017	55		 push	 rbp
  00018	57		 push	 rdi
  00019	48 81 ec c8 00
	00 00		 sub	 rsp, 200		; 000000c8H
  00020	48 8b ec	 mov	 rbp, rsp
  00023	48 8b fc	 mov	 rdi, rsp
  00026	b9 32 00 00 00	 mov	 ecx, 50			; 00000032H
  0002b	b8 cc cc cc cc	 mov	 eax, -858993460		; ccccccccH
  00030	f3 ab		 rep stosd
  00032	48 8b 8c 24 e8
	00 00 00	 mov	 rcx, QWORD PTR [rsp+232]
  0003a	48 8b 85 e0 00
	00 00		 mov	 rax, QWORD PTR this$[rbp]
  00041	f3 0f 10 85 e8
	00 00 00	 movss	 xmm0, DWORD PTR _x$[rbp]
  00049	f3 0f 11 00	 movss	 DWORD PTR [rax], xmm0
  0004d	48 8b 85 e0 00
	00 00		 mov	 rax, QWORD PTR this$[rbp]
  00054	f3 0f 10 85 f0
	00 00 00	 movss	 xmm0, DWORD PTR _y$[rbp]
  0005c	f3 0f 11 40 04	 movss	 DWORD PTR [rax+4], xmm0
  00061	48 8b 85 e0 00
	00 00		 mov	 rax, QWORD PTR this$[rbp]
  00068	f3 0f 10 85 f8
	00 00 00	 movss	 xmm0, DWORD PTR _z$[rbp]
  00070	f3 0f 11 40 08	 movss	 DWORD PTR [rax+8], xmm0
  00075	48 8b 85 e0 00
	00 00		 mov	 rax, QWORD PTR this$[rbp]
  0007c	48 8d a5 c8 00
	00 00		 lea	 rsp, QWORD PTR [rbp+200]
  00083	5f		 pop	 rdi
  00084	5d		 pop	 rbp
  00085	c3		 ret	 0
??0XMFLOAT3@DirectX@@QEAA@MMM@Z ENDP			; DirectX::XMFLOAT3::XMFLOAT3
_TEXT	ENDS
; Function compile flags: /Odtp /RTCsu /ZI
; File c:\program files (x86)\windows kits\8.1\include\um\directxmath.h
;	COMDAT ??0XMFLOAT3@DirectX@@QEAA@XZ
_TEXT	SEGMENT
this$ = 224
??0XMFLOAT3@DirectX@@QEAA@XZ PROC			; DirectX::XMFLOAT3::XMFLOAT3, COMDAT

; 505  :     XMFLOAT3() {}

$LN3:
  00000	48 89 4c 24 08	 mov	 QWORD PTR [rsp+8], rcx
  00005	55		 push	 rbp
  00006	57		 push	 rdi
  00007	48 81 ec c8 00
	00 00		 sub	 rsp, 200		; 000000c8H
  0000e	48 8b ec	 mov	 rbp, rsp
  00011	48 8b fc	 mov	 rdi, rsp
  00014	b9 32 00 00 00	 mov	 ecx, 50			; 00000032H
  00019	b8 cc cc cc cc	 mov	 eax, -858993460		; ccccccccH
  0001e	f3 ab		 rep stosd
  00020	48 8b 8c 24 e8
	00 00 00	 mov	 rcx, QWORD PTR [rsp+232]
  00028	48 8b 85 e0 00
	00 00		 mov	 rax, QWORD PTR this$[rbp]
  0002f	48 8d a5 c8 00
	00 00		 lea	 rsp, QWORD PTR [rbp+200]
  00036	5f		 pop	 rdi
  00037	5d		 pop	 rbp
  00038	c3		 ret	 0
??0XMFLOAT3@DirectX@@QEAA@XZ ENDP			; DirectX::XMFLOAT3::XMFLOAT3
_TEXT	ENDS
; Function compile flags: /Odtp /RTCsu /ZI
; File c:\program files (x86)\windows kits\8.1\include\um\directxmathmatrix.inl
;	COMDAT ??DXMMATRIX@DirectX@@QEBQ?AU01@U01@@Z
_TEXT	SEGMENT
M$ = 16
$T4 = 304
$T5 = 400
this$ = 512
??DXMMATRIX@DirectX@@QEBQ?AU01@U01@@Z PROC		; DirectX::XMMATRIX::operator*, COMDAT

; 3044 : {

$LN3:
  00000	48 89 4c 24 08	 mov	 QWORD PTR [rsp+8], rcx
  00005	55		 push	 rbp
  00006	56		 push	 rsi
  00007	57		 push	 rdi
  00008	48 81 ec 10 02
	00 00		 sub	 rsp, 528		; 00000210H
  0000f	48 8d 6c 24 30	 lea	 rbp, QWORD PTR [rsp+48]
  00014	48 8b fc	 mov	 rdi, rsp
  00017	b9 84 00 00 00	 mov	 ecx, 132		; 00000084H
  0001c	b8 cc cc cc cc	 mov	 eax, -858993460		; ccccccccH
  00021	f3 ab		 rep stosd
  00023	48 8b 8c 24 38
	02 00 00	 mov	 rcx, QWORD PTR [rsp+568]
  0002b	48 8d 45 10	 lea	 rax, QWORD PTR M$[rbp]
  0002f	48 89 84 24 38
	02 00 00	 mov	 QWORD PTR [rsp+568], rax
  00037	0f 29 5d 40	 movaps	 XMMWORD PTR M$[rbp+48], xmm3
  0003b	0f 29 55 30	 movaps	 XMMWORD PTR M$[rbp+32], xmm2
  0003f	0f 29 4d 20	 movaps	 XMMWORD PTR M$[rbp+16], xmm1
  00043	0f 29 45 10	 movaps	 XMMWORD PTR M$[rbp], xmm0

; 3045 :     return XMMatrixMultiply(*this, M);

  00047	48 8d 55 10	 lea	 rdx, QWORD PTR M$[rbp]
  0004b	48 8b 85 00 02
	00 00		 mov	 rax, QWORD PTR this$[rbp]
  00052	0f 10 00	 movups	 xmm0, XMMWORD PTR [rax]
  00055	0f 10 48 10	 movups	 xmm1, XMMWORD PTR [rax+16]
  00059	0f 10 50 20	 movups	 xmm2, XMMWORD PTR [rax+32]
  0005d	0f 10 58 30	 movups	 xmm3, XMMWORD PTR [rax+48]
  00061	e8 00 00 00 00	 call	 ?XMMatrixMultiply@DirectX@@YQ?AUXMMATRIX@1@U21@AEBU21@@Z ; DirectX::XMMatrixMultiply
  00066	0f 29 9d c0 01
	00 00		 movaps	 XMMWORD PTR $T5[rbp+48], xmm3
  0006d	0f 29 95 b0 01
	00 00		 movaps	 XMMWORD PTR $T5[rbp+32], xmm2
  00074	0f 29 8d a0 01
	00 00		 movaps	 XMMWORD PTR $T5[rbp+16], xmm1
  0007b	0f 29 85 90 01
	00 00		 movaps	 XMMWORD PTR $T5[rbp], xmm0
  00082	48 8d 85 30 01
	00 00		 lea	 rax, QWORD PTR $T4[rbp]
  00089	48 8d 8d 90 01
	00 00		 lea	 rcx, QWORD PTR $T5[rbp]
  00090	48 8b f8	 mov	 rdi, rax
  00093	48 8b f1	 mov	 rsi, rcx
  00096	b9 40 00 00 00	 mov	 ecx, 64			; 00000040H
  0009b	f3 a4		 rep movsb
  0009d	0f 28 9d 60 01
	00 00		 movaps	 xmm3, XMMWORD PTR $T4[rbp+48]
  000a4	0f 28 95 50 01
	00 00		 movaps	 xmm2, XMMWORD PTR $T4[rbp+32]
  000ab	0f 28 8d 40 01
	00 00		 movaps	 xmm1, XMMWORD PTR $T4[rbp+16]
  000b2	0f 28 85 30 01
	00 00		 movaps	 xmm0, XMMWORD PTR $T4[rbp]

; 3046 : }

  000b9	f3 0f 7f 44 24
	20		 movdqu	 XMMWORD PTR [rsp+32], xmm0
  000bf	48 8d 4d d0	 lea	 rcx, QWORD PTR [rbp-48]
  000c3	48 8d 15 00 00
	00 00		 lea	 rdx, OFFSET FLAT:??DXMMATRIX@DirectX@@QEBQ?AU01@U01@@Z$rtcFrameData
  000ca	e8 00 00 00 00	 call	 _RTC_CheckStackVars
  000cf	f3 0f 6f 44 24
	20		 movdqu	 xmm0, XMMWORD PTR [rsp+32]
  000d5	48 8d a5 e0 01
	00 00		 lea	 rsp, QWORD PTR [rbp+480]
  000dc	5f		 pop	 rdi
  000dd	5e		 pop	 rsi
  000de	5d		 pop	 rbp
  000df	c3		 ret	 0
??DXMMATRIX@DirectX@@QEBQ?AU01@U01@@Z ENDP		; DirectX::XMMATRIX::operator*
_TEXT	ENDS
; Function compile flags: /Odtp /RTCsu /ZI
; File c:\program files (x86)\windows kits\8.1\include\um\directxmath.h
;	COMDAT ??0XMMATRIX@DirectX@@QEAA@XZ
_TEXT	SEGMENT
this$ = 224
??0XMMATRIX@DirectX@@QEAA@XZ PROC			; DirectX::XMMATRIX::XMMATRIX, COMDAT

; 413  :     XMMATRIX() {}

$LN3:
  00000	48 89 4c 24 08	 mov	 QWORD PTR [rsp+8], rcx
  00005	55		 push	 rbp
  00006	57		 push	 rdi
  00007	48 81 ec c8 00
	00 00		 sub	 rsp, 200		; 000000c8H
  0000e	48 8b ec	 mov	 rbp, rsp
  00011	48 8b fc	 mov	 rdi, rsp
  00014	b9 32 00 00 00	 mov	 ecx, 50			; 00000032H
  00019	b8 cc cc cc cc	 mov	 eax, -858993460		; ccccccccH
  0001e	f3 ab		 rep stosd
  00020	48 8b 8c 24 e8
	00 00 00	 mov	 rcx, QWORD PTR [rsp+232]
  00028	48 8b 85 e0 00
	00 00		 mov	 rax, QWORD PTR this$[rbp]
  0002f	48 8d a5 c8 00
	00 00		 lea	 rsp, QWORD PTR [rbp+200]
  00036	5f		 pop	 rdi
  00037	5d		 pop	 rbp
  00038	c3		 ret	 0
??0XMMATRIX@DirectX@@QEAA@XZ ENDP			; DirectX::XMMATRIX::XMMATRIX
_TEXT	ENDS
; Function compile flags: /Odtp /RTCsu /ZI
; File c:\program files (x86)\windows kits\8.1\include\um\directxmathvector.inl
;	COMDAT ??DDirectX@@YQ?AT__m128@@T1@M@Z
_TEXT	SEGMENT
V$ = 16
$T1 = 256
S$ = 328
??DDirectX@@YQ?AT__m128@@T1@M@Z PROC			; DirectX::operator*, COMDAT

; 13994: {

$LN3:
  00000	f3 0f 11 4c 24
	10		 movss	 DWORD PTR [rsp+16], xmm1
  00006	55		 push	 rbp
  00007	57		 push	 rdi
  00008	48 81 ec 58 01
	00 00		 sub	 rsp, 344		; 00000158H
  0000f	48 8d 6c 24 30	 lea	 rbp, QWORD PTR [rsp+48]
  00014	48 8b fc	 mov	 rdi, rsp
  00017	b9 56 00 00 00	 mov	 ecx, 86			; 00000056H
  0001c	b8 cc cc cc cc	 mov	 eax, -858993460		; ccccccccH
  00021	f3 ab		 rep stosd
  00023	48 8d 45 10	 lea	 rax, QWORD PTR V$[rbp]
  00027	48 89 84 24 70
	01 00 00	 mov	 QWORD PTR [rsp+368], rax
  0002f	0f 29 45 10	 movaps	 XMMWORD PTR V$[rbp], xmm0

; 13995:     return XMVectorScale(V, S);

  00033	f3 0f 10 8d 48
	01 00 00	 movss	 xmm1, DWORD PTR S$[rbp]
  0003b	0f 28 45 10	 movaps	 xmm0, XMMWORD PTR V$[rbp]
  0003f	e8 00 00 00 00	 call	 ?XMVectorScale@DirectX@@YQ?AT__m128@@T2@M@Z ; DirectX::XMVectorScale
  00044	0f 29 85 00 01
	00 00		 movaps	 XMMWORD PTR $T1[rbp], xmm0
  0004b	0f 28 85 00 01
	00 00		 movaps	 xmm0, XMMWORD PTR $T1[rbp]

; 13996: }

  00052	48 8d a5 28 01
	00 00		 lea	 rsp, QWORD PTR [rbp+296]
  00059	5f		 pop	 rdi
  0005a	5d		 pop	 rbp
  0005b	c3		 ret	 0
??DDirectX@@YQ?AT__m128@@T1@M@Z ENDP			; DirectX::operator*
_TEXT	ENDS
; Function compile flags: /Odtp /RTCsu /ZI
; File c:\program files (x86)\windows kits\8.1\include\um\directxmathvector.inl
;	COMDAT ??GDirectX@@YQ?AT__m128@@T1@0@Z
_TEXT	SEGMENT
V1$ = 16
V2$ = 64
$T1 = 304
??GDirectX@@YQ?AT__m128@@T1@0@Z PROC			; DirectX::operator-, COMDAT

; 13961: {

$LN3:
  00000	40 55		 push	 rbp
  00002	57		 push	 rdi
  00003	48 81 ec 88 01
	00 00		 sub	 rsp, 392		; 00000188H
  0000a	48 8d 6c 24 30	 lea	 rbp, QWORD PTR [rsp+48]
  0000f	48 8b fc	 mov	 rdi, rsp
  00012	b9 62 00 00 00	 mov	 ecx, 98			; 00000062H
  00017	b8 cc cc cc cc	 mov	 eax, -858993460		; ccccccccH
  0001c	f3 ab		 rep stosd
  0001e	48 8d 45 10	 lea	 rax, QWORD PTR V1$[rbp]
  00022	48 89 84 24 a0
	01 00 00	 mov	 QWORD PTR [rsp+416], rax
  0002a	48 8d 45 40	 lea	 rax, QWORD PTR V2$[rbp]
  0002e	48 89 84 24 a8
	01 00 00	 mov	 QWORD PTR [rsp+424], rax
  00036	0f 29 4d 40	 movaps	 XMMWORD PTR V2$[rbp], xmm1
  0003a	0f 29 45 10	 movaps	 XMMWORD PTR V1$[rbp], xmm0

; 13962:     return XMVectorSubtract(V1, V2);

  0003e	0f 28 4d 40	 movaps	 xmm1, XMMWORD PTR V2$[rbp]
  00042	0f 28 45 10	 movaps	 xmm0, XMMWORD PTR V1$[rbp]
  00046	e8 00 00 00 00	 call	 ?XMVectorSubtract@DirectX@@YQ?AT__m128@@T2@0@Z ; DirectX::XMVectorSubtract
  0004b	0f 29 85 30 01
	00 00		 movaps	 XMMWORD PTR $T1[rbp], xmm0
  00052	0f 28 85 30 01
	00 00		 movaps	 xmm0, XMMWORD PTR $T1[rbp]

; 13963: }

  00059	48 8d a5 58 01
	00 00		 lea	 rsp, QWORD PTR [rbp+344]
  00060	5f		 pop	 rdi
  00061	5d		 pop	 rbp
  00062	c3		 ret	 0
??GDirectX@@YQ?AT__m128@@T1@0@Z ENDP			; DirectX::operator-
_TEXT	ENDS
; Function compile flags: /Odtp /RTCsu /ZI
; File c:\program files (x86)\windows kits\8.1\include\um\directxmathvector.inl
;	COMDAT ??HDirectX@@YQ?AT__m128@@T1@0@Z
_TEXT	SEGMENT
V1$ = 16
V2$ = 64
$T1 = 304
??HDirectX@@YQ?AT__m128@@T1@0@Z PROC			; DirectX::operator+, COMDAT

; 13950: {

$LN3:
  00000	40 55		 push	 rbp
  00002	57		 push	 rdi
  00003	48 81 ec 88 01
	00 00		 sub	 rsp, 392		; 00000188H
  0000a	48 8d 6c 24 30	 lea	 rbp, QWORD PTR [rsp+48]
  0000f	48 8b fc	 mov	 rdi, rsp
  00012	b9 62 00 00 00	 mov	 ecx, 98			; 00000062H
  00017	b8 cc cc cc cc	 mov	 eax, -858993460		; ccccccccH
  0001c	f3 ab		 rep stosd
  0001e	48 8d 45 10	 lea	 rax, QWORD PTR V1$[rbp]
  00022	48 89 84 24 a0
	01 00 00	 mov	 QWORD PTR [rsp+416], rax
  0002a	48 8d 45 40	 lea	 rax, QWORD PTR V2$[rbp]
  0002e	48 89 84 24 a8
	01 00 00	 mov	 QWORD PTR [rsp+424], rax
  00036	0f 29 4d 40	 movaps	 XMMWORD PTR V2$[rbp], xmm1
  0003a	0f 29 45 10	 movaps	 XMMWORD PTR V1$[rbp], xmm0

; 13951:     return XMVectorAdd(V1, V2);

  0003e	0f 28 4d 40	 movaps	 xmm1, XMMWORD PTR V2$[rbp]
  00042	0f 28 45 10	 movaps	 xmm0, XMMWORD PTR V1$[rbp]
  00046	e8 00 00 00 00	 call	 ?XMVectorAdd@DirectX@@YQ?AT__m128@@T2@0@Z ; DirectX::XMVectorAdd
  0004b	0f 29 85 30 01
	00 00		 movaps	 XMMWORD PTR $T1[rbp], xmm0
  00052	0f 28 85 30 01
	00 00		 movaps	 xmm0, XMMWORD PTR $T1[rbp]

; 13952: }

  00059	48 8d a5 58 01
	00 00		 lea	 rsp, QWORD PTR [rbp+344]
  00060	5f		 pop	 rdi
  00061	5d		 pop	 rbp
  00062	c3		 ret	 0
??HDirectX@@YQ?AT__m128@@T1@0@Z ENDP			; DirectX::operator+
_TEXT	ENDS
; Function compile flags: /Odtp /RTCsu /ZI
; File c:\program files (x86)\windows kits\8.1\include\um\directxmath.h
;	COMDAT ??BXMVECTORU32@DirectX@@QEBA?AT__m128@@XZ
_TEXT	SEGMENT
this$ = 224
__$ReturnUdt$ = 232
??BXMVECTORU32@DirectX@@QEBA?AT__m128@@XZ PROC		; DirectX::XMVECTORU32::operator __m128, COMDAT

; 346  :     inline operator XMVECTOR() const { return v; }

$LN3:
  00000	48 89 54 24 10	 mov	 QWORD PTR [rsp+16], rdx
  00005	48 89 4c 24 08	 mov	 QWORD PTR [rsp+8], rcx
  0000a	55		 push	 rbp
  0000b	57		 push	 rdi
  0000c	48 81 ec c8 00
	00 00		 sub	 rsp, 200		; 000000c8H
  00013	48 8b ec	 mov	 rbp, rsp
  00016	48 8b fc	 mov	 rdi, rsp
  00019	b9 32 00 00 00	 mov	 ecx, 50			; 00000032H
  0001e	b8 cc cc cc cc	 mov	 eax, -858993460		; ccccccccH
  00023	f3 ab		 rep stosd
  00025	48 8b 8c 24 e8
	00 00 00	 mov	 rcx, QWORD PTR [rsp+232]
  0002d	48 8b 85 e8 00
	00 00		 mov	 rax, QWORD PTR __$ReturnUdt$[rbp]
  00034	48 8b 8d e0 00
	00 00		 mov	 rcx, QWORD PTR this$[rbp]
  0003b	0f 10 01	 movups	 xmm0, XMMWORD PTR [rcx]
  0003e	0f 11 00	 movups	 XMMWORD PTR [rax], xmm0
  00041	48 8b 85 e8 00
	00 00		 mov	 rax, QWORD PTR __$ReturnUdt$[rbp]
  00048	48 8d a5 c8 00
	00 00		 lea	 rsp, QWORD PTR [rbp+200]
  0004f	5f		 pop	 rdi
  00050	5d		 pop	 rbp
  00051	c3		 ret	 0
??BXMVECTORU32@DirectX@@QEBA?AT__m128@@XZ ENDP		; DirectX::XMVECTORU32::operator __m128
_TEXT	ENDS
; Function compile flags: /Odtp /RTCsu /ZI
; File c:\program files (x86)\windows kits\8.1\include\um\directxmath.h
;	COMDAT ??BXMVECTORI32@DirectX@@QEBA?AT__m128@@XZ
_TEXT	SEGMENT
this$ = 224
__$ReturnUdt$ = 232
??BXMVECTORI32@DirectX@@QEBA?AT__m128@@XZ PROC		; DirectX::XMVECTORI32::operator __m128, COMDAT

; 316  :     inline operator XMVECTOR() const { return v; }

$LN3:
  00000	48 89 54 24 10	 mov	 QWORD PTR [rsp+16], rdx
  00005	48 89 4c 24 08	 mov	 QWORD PTR [rsp+8], rcx
  0000a	55		 push	 rbp
  0000b	57		 push	 rdi
  0000c	48 81 ec c8 00
	00 00		 sub	 rsp, 200		; 000000c8H
  00013	48 8b ec	 mov	 rbp, rsp
  00016	48 8b fc	 mov	 rdi, rsp
  00019	b9 32 00 00 00	 mov	 ecx, 50			; 00000032H
  0001e	b8 cc cc cc cc	 mov	 eax, -858993460		; ccccccccH
  00023	f3 ab		 rep stosd
  00025	48 8b 8c 24 e8
	00 00 00	 mov	 rcx, QWORD PTR [rsp+232]
  0002d	48 8b 85 e8 00
	00 00		 mov	 rax, QWORD PTR __$ReturnUdt$[rbp]
  00034	48 8b 8d e0 00
	00 00		 mov	 rcx, QWORD PTR this$[rbp]
  0003b	0f 10 01	 movups	 xmm0, XMMWORD PTR [rcx]
  0003e	0f 11 00	 movups	 XMMWORD PTR [rax], xmm0
  00041	48 8b 85 e8 00
	00 00		 mov	 rax, QWORD PTR __$ReturnUdt$[rbp]
  00048	48 8d a5 c8 00
	00 00		 lea	 rsp, QWORD PTR [rbp+200]
  0004f	5f		 pop	 rdi
  00050	5d		 pop	 rbp
  00051	c3		 ret	 0
??BXMVECTORI32@DirectX@@QEBA?AT__m128@@XZ ENDP		; DirectX::XMVECTORI32::operator __m128
_TEXT	ENDS
; Function compile flags: /Odtp /RTCsu /ZI
; File c:\program files (x86)\windows kits\8.1\include\um\directxmath.h
;	COMDAT ??BXMVECTORF32@DirectX@@QEBA?AT__m128@@XZ
_TEXT	SEGMENT
this$ = 224
__$ReturnUdt$ = 232
??BXMVECTORF32@DirectX@@QEBA?AT__m128@@XZ PROC		; DirectX::XMVECTORF32::operator __m128, COMDAT

; 300  :     inline operator XMVECTOR() const { return v; }

$LN3:
  00000	48 89 54 24 10	 mov	 QWORD PTR [rsp+16], rdx
  00005	48 89 4c 24 08	 mov	 QWORD PTR [rsp+8], rcx
  0000a	55		 push	 rbp
  0000b	57		 push	 rdi
  0000c	48 81 ec c8 00
	00 00		 sub	 rsp, 200		; 000000c8H
  00013	48 8b ec	 mov	 rbp, rsp
  00016	48 8b fc	 mov	 rdi, rsp
  00019	b9 32 00 00 00	 mov	 ecx, 50			; 00000032H
  0001e	b8 cc cc cc cc	 mov	 eax, -858993460		; ccccccccH
  00023	f3 ab		 rep stosd
  00025	48 8b 8c 24 e8
	00 00 00	 mov	 rcx, QWORD PTR [rsp+232]
  0002d	48 8b 85 e8 00
	00 00		 mov	 rax, QWORD PTR __$ReturnUdt$[rbp]
  00034	48 8b 8d e0 00
	00 00		 mov	 rcx, QWORD PTR this$[rbp]
  0003b	0f 10 01	 movups	 xmm0, XMMWORD PTR [rcx]
  0003e	0f 11 00	 movups	 XMMWORD PTR [rax], xmm0
  00041	48 8b 85 e8 00
	00 00		 mov	 rax, QWORD PTR __$ReturnUdt$[rbp]
  00048	48 8d a5 c8 00
	00 00		 lea	 rsp, QWORD PTR [rbp+200]
  0004f	5f		 pop	 rdi
  00050	5d		 pop	 rbp
  00051	c3		 ret	 0
??BXMVECTORF32@DirectX@@QEBA?AT__m128@@XZ ENDP		; DirectX::XMVECTORF32::operator __m128
_TEXT	ENDS
; Function compile flags: /Odtp /RTCsu /ZI
; File c:\program files (x86)\windows kits\8.1\include\um\directxmath.h
;	COMDAT ?XMConvertToRadians@DirectX@@YAMM@Z
_TEXT	SEGMENT
fDegrees$ = 224
?XMConvertToRadians@DirectX@@YAMM@Z PROC		; DirectX::XMConvertToRadians, COMDAT

; 208  : inline float XMConvertToRadians(float fDegrees) { return fDegrees * (XM_PI / 180.0f); }

$LN3:
  00000	f3 0f 11 44 24
	08		 movss	 DWORD PTR [rsp+8], xmm0
  00006	55		 push	 rbp
  00007	57		 push	 rdi
  00008	48 81 ec d8 00
	00 00		 sub	 rsp, 216		; 000000d8H
  0000f	48 8d 6c 24 10	 lea	 rbp, QWORD PTR [rsp+16]
  00014	48 8b fc	 mov	 rdi, rsp
  00017	b9 36 00 00 00	 mov	 ecx, 54			; 00000036H
  0001c	b8 cc cc cc cc	 mov	 eax, -858993460		; ccccccccH
  00021	f3 ab		 rep stosd
  00023	f3 0f 10 85 e0
	00 00 00	 movss	 xmm0, DWORD PTR fDegrees$[rbp]
  0002b	f3 0f 59 05 00
	00 00 00	 mulss	 xmm0, DWORD PTR __real@3c8efa35
  00033	48 8d a5 c8 00
	00 00		 lea	 rsp, QWORD PTR [rbp+200]
  0003a	5f		 pop	 rdi
  0003b	5d		 pop	 rbp
  0003c	c3		 ret	 0
?XMConvertToRadians@DirectX@@YAMM@Z ENDP		; DirectX::XMConvertToRadians
_TEXT	ENDS
; Function compile flags: /Odtp /RTCsu /ZI
; File c:\program files (x86)\microsoft visual studio 14.0\vc\include\cmath
;	COMDAT ?cos@@YAMM@Z
_TEXT	SEGMENT
_Xx$ = 224
?cos@@YAMM@Z PROC					; cos, COMDAT

; 87   : 	{

$LN3:
  00000	f3 0f 11 44 24
	08		 movss	 DWORD PTR [rsp+8], xmm0
  00006	55		 push	 rbp
  00007	57		 push	 rdi
  00008	48 81 ec f8 00
	00 00		 sub	 rsp, 248		; 000000f8H
  0000f	48 8d 6c 24 30	 lea	 rbp, QWORD PTR [rsp+48]
  00014	48 8b fc	 mov	 rdi, rsp
  00017	b9 3e 00 00 00	 mov	 ecx, 62			; 0000003eH
  0001c	b8 cc cc cc cc	 mov	 eax, -858993460		; ccccccccH
  00021	f3 ab		 rep stosd

; 88   : 	return (_CSTD cosf(_Xx));

  00023	f3 0f 10 85 e0
	00 00 00	 movss	 xmm0, DWORD PTR _Xx$[rbp]
  0002b	ff 15 00 00 00
	00		 call	 QWORD PTR __imp_cosf

; 89   : 	}

  00031	48 8d a5 c8 00
	00 00		 lea	 rsp, QWORD PTR [rbp+200]
  00038	5f		 pop	 rdi
  00039	5d		 pop	 rbp
  0003a	c3		 ret	 0
?cos@@YAMM@Z ENDP					; cos
_TEXT	ENDS
; Function compile flags: /Odtp /RTCsu /ZI
; File c:\program files (x86)\windows kits\10\include\10.0.10240.0\ucrt\math.h
;	COMDAT fabsf
_TEXT	SEGMENT
_X$ = 224
fabsf	PROC						; COMDAT

; 657  :     {

$LN3:
  00000	f3 0f 11 44 24
	08		 movss	 DWORD PTR [rsp+8], xmm0
  00006	55		 push	 rbp
  00007	57		 push	 rdi
  00008	48 81 ec f8 00
	00 00		 sub	 rsp, 248		; 000000f8H
  0000f	48 8d 6c 24 30	 lea	 rbp, QWORD PTR [rsp+48]
  00014	48 8b fc	 mov	 rdi, rsp
  00017	b9 3e 00 00 00	 mov	 ecx, 62			; 0000003eH
  0001c	b8 cc cc cc cc	 mov	 eax, -858993460		; ccccccccH
  00021	f3 ab		 rep stosd

; 658  :         return (float)fabs(_X);

  00023	f3 0f 5a 85 e0
	00 00 00	 cvtss2sd xmm0, DWORD PTR _X$[rbp]
  0002b	e8 00 00 00 00	 call	 fabs
  00030	f2 0f 5a c0	 cvtsd2ss xmm0, xmm0

; 659  :     }

  00034	48 8d a5 c8 00
	00 00		 lea	 rsp, QWORD PTR [rbp+200]
  0003b	5f		 pop	 rdi
  0003c	5d		 pop	 rbp
  0003d	c3		 ret	 0
fabsf	ENDP
_TEXT	ENDS
; Function compile flags: /Odtp /RTCsu /ZI
; File c:\users\arcco\documents\github\framework\client\private\playercamera.cpp
;	COMDAT ?__empty_global_delete@@YAXPEAX_K@Z
_TEXT	SEGMENT
__formal$ = 224
__formal$ = 232
?__empty_global_delete@@YAXPEAX_K@Z PROC		; __empty_global_delete, COMDAT

$LN3:
  00000	48 89 54 24 10	 mov	 QWORD PTR [rsp+16], rdx
  00005	48 89 4c 24 08	 mov	 QWORD PTR [rsp+8], rcx
  0000a	55		 push	 rbp
  0000b	57		 push	 rdi
  0000c	48 81 ec c8 00
	00 00		 sub	 rsp, 200		; 000000c8H
  00013	48 8b ec	 mov	 rbp, rsp
  00016	48 8b fc	 mov	 rdi, rsp
  00019	b9 32 00 00 00	 mov	 ecx, 50			; 00000032H
  0001e	b8 cc cc cc cc	 mov	 eax, -858993460		; ccccccccH
  00023	f3 ab		 rep stosd
  00025	48 8b 8c 24 e8
	00 00 00	 mov	 rcx, QWORD PTR [rsp+232]
  0002d	48 8d a5 c8 00
	00 00		 lea	 rsp, QWORD PTR [rbp+200]
  00034	5f		 pop	 rdi
  00035	5d		 pop	 rbp
  00036	c3		 ret	 0
?__empty_global_delete@@YAXPEAX_K@Z ENDP		; __empty_global_delete
_TEXT	ENDS
; Function compile flags: /Odtp /RTCsu /ZI
; File c:\users\arcco\documents\github\framework\client\private\playercamera.cpp
;	COMDAT ?__empty_global_delete@@YAXPEAX@Z
_TEXT	SEGMENT
__formal$ = 224
?__empty_global_delete@@YAXPEAX@Z PROC			; __empty_global_delete, COMDAT

$LN3:
  00000	48 89 4c 24 08	 mov	 QWORD PTR [rsp+8], rcx
  00005	55		 push	 rbp
  00006	57		 push	 rdi
  00007	48 81 ec c8 00
	00 00		 sub	 rsp, 200		; 000000c8H
  0000e	48 8b ec	 mov	 rbp, rsp
  00011	48 8b fc	 mov	 rdi, rsp
  00014	b9 32 00 00 00	 mov	 ecx, 50			; 00000032H
  00019	b8 cc cc cc cc	 mov	 eax, -858993460		; ccccccccH
  0001e	f3 ab		 rep stosd
  00020	48 8b 8c 24 e8
	00 00 00	 mov	 rcx, QWORD PTR [rsp+232]
  00028	48 8d a5 c8 00
	00 00		 lea	 rsp, QWORD PTR [rbp+200]
  0002f	5f		 pop	 rdi
  00030	5d		 pop	 rbp
  00031	c3		 ret	 0
?__empty_global_delete@@YAXPEAX@Z ENDP			; __empty_global_delete
_TEXT	ENDS
; Function compile flags: /Odtp /RTCsu /ZI
;	COMDAT ??_H@YAXPEAX_K1P6APEAX0@Z@Z
_TEXT	SEGMENT
tv66 = 192
tv67 = 200
__t$ = 240
__s$ = 248
__n$ = 256
__f$ = 264
??_H@YAXPEAX_K1P6APEAX0@Z@Z PROC			; `vector constructor iterator', COMDAT
$LN7:
  00000	4c 89 4c 24 20	 mov	 QWORD PTR [rsp+32], r9
  00005	4c 89 44 24 18	 mov	 QWORD PTR [rsp+24], r8
  0000a	48 89 54 24 10	 mov	 QWORD PTR [rsp+16], rdx
  0000f	48 89 4c 24 08	 mov	 QWORD PTR [rsp+8], rcx
  00014	55		 push	 rbp
  00015	57		 push	 rdi
  00016	48 81 ec f8 00
	00 00		 sub	 rsp, 248		; 000000f8H
  0001d	48 8d 6c 24 20	 lea	 rbp, QWORD PTR [rsp+32]
  00022	48 8b fc	 mov	 rdi, rsp
  00025	b9 3e 00 00 00	 mov	 ecx, 62			; 0000003eH
  0002a	b8 cc cc cc cc	 mov	 eax, -858993460		; ccccccccH
  0002f	f3 ab		 rep stosd
  00031	48 8b 8c 24 18
	01 00 00	 mov	 rcx, QWORD PTR [rsp+280]
$LN2@vector:
  00039	48 8b 85 00 01
	00 00		 mov	 rax, QWORD PTR __n$[rbp]
  00040	48 89 85 c0 00
	00 00		 mov	 QWORD PTR tv66[rbp], rax
  00047	48 8b 85 00 01
	00 00		 mov	 rax, QWORD PTR __n$[rbp]
  0004e	48 ff c8	 dec	 rax
  00051	48 89 85 00 01
	00 00		 mov	 QWORD PTR __n$[rbp], rax
  00058	48 83 bd c0 00
	00 00 00	 cmp	 QWORD PTR tv66[rbp], 0
  00060	76 0c		 jbe	 SHORT $LN5@vector
  00062	c7 85 c8 00 00
	00 01 00 00 00	 mov	 DWORD PTR tv67[rbp], 1
  0006c	eb 0a		 jmp	 SHORT $LN6@vector
$LN5@vector:
  0006e	c7 85 c8 00 00
	00 00 00 00 00	 mov	 DWORD PTR tv67[rbp], 0
$LN6@vector:
  00078	83 bd c8 00 00
	00 00		 cmp	 DWORD PTR tv67[rbp], 0
  0007f	74 2a		 je	 SHORT $LN3@vector
  00081	48 8b 8d f0 00
	00 00		 mov	 rcx, QWORD PTR __t$[rbp]
  00088	ff 95 08 01 00
	00		 call	 QWORD PTR __f$[rbp]
  0008e	48 8b 85 f8 00
	00 00		 mov	 rax, QWORD PTR __s$[rbp]
  00095	48 8b 8d f0 00
	00 00		 mov	 rcx, QWORD PTR __t$[rbp]
  0009c	48 03 c8	 add	 rcx, rax
  0009f	48 8b c1	 mov	 rax, rcx
  000a2	48 89 85 f0 00
	00 00		 mov	 QWORD PTR __t$[rbp], rax
  000a9	eb 8e		 jmp	 SHORT $LN2@vector
$LN3@vector:
  000ab	48 8d a5 d8 00
	00 00		 lea	 rsp, QWORD PTR [rbp+216]
  000b2	5f		 pop	 rdi
  000b3	5d		 pop	 rbp
  000b4	c3		 ret	 0
??_H@YAXPEAX_K1P6APEAX0@Z@Z ENDP			; `vector constructor iterator'
_TEXT	ENDS
END
