; Listing generated by Microsoft (R) Optimizing Compiler Version 19.00.24245.0 

include listing.inc

INCLUDELIB MSVCRTD
INCLUDELIB OLDNAMES

PUBLIC	?AliceBlue@Colors@DirectX@@3UXMVECTORF32@2@B	; DirectX::Colors::AliceBlue
PUBLIC	?AntiqueWhite@Colors@DirectX@@3UXMVECTORF32@2@B	; DirectX::Colors::AntiqueWhite
PUBLIC	?Aqua@Colors@DirectX@@3UXMVECTORF32@2@B		; DirectX::Colors::Aqua
PUBLIC	?Aquamarine@Colors@DirectX@@3UXMVECTORF32@2@B	; DirectX::Colors::Aquamarine
PUBLIC	?Azure@Colors@DirectX@@3UXMVECTORF32@2@B	; DirectX::Colors::Azure
PUBLIC	?Beige@Colors@DirectX@@3UXMVECTORF32@2@B	; DirectX::Colors::Beige
PUBLIC	?Bisque@Colors@DirectX@@3UXMVECTORF32@2@B	; DirectX::Colors::Bisque
PUBLIC	?Black@Colors@DirectX@@3UXMVECTORF32@2@B	; DirectX::Colors::Black
PUBLIC	?BlanchedAlmond@Colors@DirectX@@3UXMVECTORF32@2@B ; DirectX::Colors::BlanchedAlmond
PUBLIC	?Blue@Colors@DirectX@@3UXMVECTORF32@2@B		; DirectX::Colors::Blue
PUBLIC	?BlueViolet@Colors@DirectX@@3UXMVECTORF32@2@B	; DirectX::Colors::BlueViolet
PUBLIC	?Brown@Colors@DirectX@@3UXMVECTORF32@2@B	; DirectX::Colors::Brown
PUBLIC	?BurlyWood@Colors@DirectX@@3UXMVECTORF32@2@B	; DirectX::Colors::BurlyWood
PUBLIC	?CadetBlue@Colors@DirectX@@3UXMVECTORF32@2@B	; DirectX::Colors::CadetBlue
PUBLIC	?Chartreuse@Colors@DirectX@@3UXMVECTORF32@2@B	; DirectX::Colors::Chartreuse
PUBLIC	?Chocolate@Colors@DirectX@@3UXMVECTORF32@2@B	; DirectX::Colors::Chocolate
PUBLIC	?Coral@Colors@DirectX@@3UXMVECTORF32@2@B	; DirectX::Colors::Coral
PUBLIC	?CornflowerBlue@Colors@DirectX@@3UXMVECTORF32@2@B ; DirectX::Colors::CornflowerBlue
PUBLIC	?Cornsilk@Colors@DirectX@@3UXMVECTORF32@2@B	; DirectX::Colors::Cornsilk
PUBLIC	?Crimson@Colors@DirectX@@3UXMVECTORF32@2@B	; DirectX::Colors::Crimson
PUBLIC	?Cyan@Colors@DirectX@@3UXMVECTORF32@2@B		; DirectX::Colors::Cyan
PUBLIC	?DarkBlue@Colors@DirectX@@3UXMVECTORF32@2@B	; DirectX::Colors::DarkBlue
PUBLIC	?DarkCyan@Colors@DirectX@@3UXMVECTORF32@2@B	; DirectX::Colors::DarkCyan
PUBLIC	?DarkGoldenrod@Colors@DirectX@@3UXMVECTORF32@2@B ; DirectX::Colors::DarkGoldenrod
PUBLIC	?DarkGray@Colors@DirectX@@3UXMVECTORF32@2@B	; DirectX::Colors::DarkGray
PUBLIC	?DarkGreen@Colors@DirectX@@3UXMVECTORF32@2@B	; DirectX::Colors::DarkGreen
PUBLIC	?DarkKhaki@Colors@DirectX@@3UXMVECTORF32@2@B	; DirectX::Colors::DarkKhaki
PUBLIC	?DarkMagenta@Colors@DirectX@@3UXMVECTORF32@2@B	; DirectX::Colors::DarkMagenta
PUBLIC	?DarkOliveGreen@Colors@DirectX@@3UXMVECTORF32@2@B ; DirectX::Colors::DarkOliveGreen
PUBLIC	?DarkOrange@Colors@DirectX@@3UXMVECTORF32@2@B	; DirectX::Colors::DarkOrange
PUBLIC	?DarkOrchid@Colors@DirectX@@3UXMVECTORF32@2@B	; DirectX::Colors::DarkOrchid
PUBLIC	?DarkRed@Colors@DirectX@@3UXMVECTORF32@2@B	; DirectX::Colors::DarkRed
PUBLIC	?DarkSalmon@Colors@DirectX@@3UXMVECTORF32@2@B	; DirectX::Colors::DarkSalmon
PUBLIC	?DarkSeaGreen@Colors@DirectX@@3UXMVECTORF32@2@B	; DirectX::Colors::DarkSeaGreen
PUBLIC	?DarkSlateBlue@Colors@DirectX@@3UXMVECTORF32@2@B ; DirectX::Colors::DarkSlateBlue
PUBLIC	?DarkSlateGray@Colors@DirectX@@3UXMVECTORF32@2@B ; DirectX::Colors::DarkSlateGray
PUBLIC	?DarkTurquoise@Colors@DirectX@@3UXMVECTORF32@2@B ; DirectX::Colors::DarkTurquoise
PUBLIC	?DarkViolet@Colors@DirectX@@3UXMVECTORF32@2@B	; DirectX::Colors::DarkViolet
PUBLIC	?DeepPink@Colors@DirectX@@3UXMVECTORF32@2@B	; DirectX::Colors::DeepPink
PUBLIC	?DeepSkyBlue@Colors@DirectX@@3UXMVECTORF32@2@B	; DirectX::Colors::DeepSkyBlue
PUBLIC	?DimGray@Colors@DirectX@@3UXMVECTORF32@2@B	; DirectX::Colors::DimGray
PUBLIC	?DodgerBlue@Colors@DirectX@@3UXMVECTORF32@2@B	; DirectX::Colors::DodgerBlue
PUBLIC	?Firebrick@Colors@DirectX@@3UXMVECTORF32@2@B	; DirectX::Colors::Firebrick
PUBLIC	?FloralWhite@Colors@DirectX@@3UXMVECTORF32@2@B	; DirectX::Colors::FloralWhite
PUBLIC	?ForestGreen@Colors@DirectX@@3UXMVECTORF32@2@B	; DirectX::Colors::ForestGreen
PUBLIC	?Fuchsia@Colors@DirectX@@3UXMVECTORF32@2@B	; DirectX::Colors::Fuchsia
PUBLIC	?Gainsboro@Colors@DirectX@@3UXMVECTORF32@2@B	; DirectX::Colors::Gainsboro
PUBLIC	?GhostWhite@Colors@DirectX@@3UXMVECTORF32@2@B	; DirectX::Colors::GhostWhite
PUBLIC	?Gold@Colors@DirectX@@3UXMVECTORF32@2@B		; DirectX::Colors::Gold
PUBLIC	?Goldenrod@Colors@DirectX@@3UXMVECTORF32@2@B	; DirectX::Colors::Goldenrod
PUBLIC	?Gray@Colors@DirectX@@3UXMVECTORF32@2@B		; DirectX::Colors::Gray
PUBLIC	?Green@Colors@DirectX@@3UXMVECTORF32@2@B	; DirectX::Colors::Green
PUBLIC	?GreenYellow@Colors@DirectX@@3UXMVECTORF32@2@B	; DirectX::Colors::GreenYellow
PUBLIC	?Honeydew@Colors@DirectX@@3UXMVECTORF32@2@B	; DirectX::Colors::Honeydew
PUBLIC	?HotPink@Colors@DirectX@@3UXMVECTORF32@2@B	; DirectX::Colors::HotPink
PUBLIC	?IndianRed@Colors@DirectX@@3UXMVECTORF32@2@B	; DirectX::Colors::IndianRed
PUBLIC	?Indigo@Colors@DirectX@@3UXMVECTORF32@2@B	; DirectX::Colors::Indigo
PUBLIC	?Ivory@Colors@DirectX@@3UXMVECTORF32@2@B	; DirectX::Colors::Ivory
PUBLIC	?Khaki@Colors@DirectX@@3UXMVECTORF32@2@B	; DirectX::Colors::Khaki
PUBLIC	?Lavender@Colors@DirectX@@3UXMVECTORF32@2@B	; DirectX::Colors::Lavender
PUBLIC	?LavenderBlush@Colors@DirectX@@3UXMVECTORF32@2@B ; DirectX::Colors::LavenderBlush
PUBLIC	?LawnGreen@Colors@DirectX@@3UXMVECTORF32@2@B	; DirectX::Colors::LawnGreen
PUBLIC	?LemonChiffon@Colors@DirectX@@3UXMVECTORF32@2@B	; DirectX::Colors::LemonChiffon
PUBLIC	?LightBlue@Colors@DirectX@@3UXMVECTORF32@2@B	; DirectX::Colors::LightBlue
PUBLIC	?LightCoral@Colors@DirectX@@3UXMVECTORF32@2@B	; DirectX::Colors::LightCoral
PUBLIC	?LightCyan@Colors@DirectX@@3UXMVECTORF32@2@B	; DirectX::Colors::LightCyan
PUBLIC	?LightGoldenrodYellow@Colors@DirectX@@3UXMVECTORF32@2@B ; DirectX::Colors::LightGoldenrodYellow
PUBLIC	?LightGreen@Colors@DirectX@@3UXMVECTORF32@2@B	; DirectX::Colors::LightGreen
PUBLIC	?LightGray@Colors@DirectX@@3UXMVECTORF32@2@B	; DirectX::Colors::LightGray
PUBLIC	?LightPink@Colors@DirectX@@3UXMVECTORF32@2@B	; DirectX::Colors::LightPink
PUBLIC	?LightSalmon@Colors@DirectX@@3UXMVECTORF32@2@B	; DirectX::Colors::LightSalmon
PUBLIC	?LightSeaGreen@Colors@DirectX@@3UXMVECTORF32@2@B ; DirectX::Colors::LightSeaGreen
PUBLIC	?LightSkyBlue@Colors@DirectX@@3UXMVECTORF32@2@B	; DirectX::Colors::LightSkyBlue
PUBLIC	?LightSlateGray@Colors@DirectX@@3UXMVECTORF32@2@B ; DirectX::Colors::LightSlateGray
PUBLIC	?LightSteelBlue@Colors@DirectX@@3UXMVECTORF32@2@B ; DirectX::Colors::LightSteelBlue
PUBLIC	?LightYellow@Colors@DirectX@@3UXMVECTORF32@2@B	; DirectX::Colors::LightYellow
PUBLIC	?Lime@Colors@DirectX@@3UXMVECTORF32@2@B		; DirectX::Colors::Lime
PUBLIC	?LimeGreen@Colors@DirectX@@3UXMVECTORF32@2@B	; DirectX::Colors::LimeGreen
PUBLIC	?Linen@Colors@DirectX@@3UXMVECTORF32@2@B	; DirectX::Colors::Linen
PUBLIC	?Magenta@Colors@DirectX@@3UXMVECTORF32@2@B	; DirectX::Colors::Magenta
PUBLIC	?Maroon@Colors@DirectX@@3UXMVECTORF32@2@B	; DirectX::Colors::Maroon
PUBLIC	?MediumAquamarine@Colors@DirectX@@3UXMVECTORF32@2@B ; DirectX::Colors::MediumAquamarine
PUBLIC	?MediumBlue@Colors@DirectX@@3UXMVECTORF32@2@B	; DirectX::Colors::MediumBlue
PUBLIC	?MediumOrchid@Colors@DirectX@@3UXMVECTORF32@2@B	; DirectX::Colors::MediumOrchid
PUBLIC	?MediumPurple@Colors@DirectX@@3UXMVECTORF32@2@B	; DirectX::Colors::MediumPurple
PUBLIC	?MediumSeaGreen@Colors@DirectX@@3UXMVECTORF32@2@B ; DirectX::Colors::MediumSeaGreen
PUBLIC	?MediumSlateBlue@Colors@DirectX@@3UXMVECTORF32@2@B ; DirectX::Colors::MediumSlateBlue
PUBLIC	?MediumSpringGreen@Colors@DirectX@@3UXMVECTORF32@2@B ; DirectX::Colors::MediumSpringGreen
PUBLIC	?MediumTurquoise@Colors@DirectX@@3UXMVECTORF32@2@B ; DirectX::Colors::MediumTurquoise
PUBLIC	?MediumVioletRed@Colors@DirectX@@3UXMVECTORF32@2@B ; DirectX::Colors::MediumVioletRed
PUBLIC	?MidnightBlue@Colors@DirectX@@3UXMVECTORF32@2@B	; DirectX::Colors::MidnightBlue
PUBLIC	?MintCream@Colors@DirectX@@3UXMVECTORF32@2@B	; DirectX::Colors::MintCream
PUBLIC	?MistyRose@Colors@DirectX@@3UXMVECTORF32@2@B	; DirectX::Colors::MistyRose
PUBLIC	?Moccasin@Colors@DirectX@@3UXMVECTORF32@2@B	; DirectX::Colors::Moccasin
PUBLIC	?NavajoWhite@Colors@DirectX@@3UXMVECTORF32@2@B	; DirectX::Colors::NavajoWhite
PUBLIC	?Navy@Colors@DirectX@@3UXMVECTORF32@2@B		; DirectX::Colors::Navy
PUBLIC	?OldLace@Colors@DirectX@@3UXMVECTORF32@2@B	; DirectX::Colors::OldLace
PUBLIC	?Olive@Colors@DirectX@@3UXMVECTORF32@2@B	; DirectX::Colors::Olive
PUBLIC	?OliveDrab@Colors@DirectX@@3UXMVECTORF32@2@B	; DirectX::Colors::OliveDrab
PUBLIC	?Orange@Colors@DirectX@@3UXMVECTORF32@2@B	; DirectX::Colors::Orange
PUBLIC	?OrangeRed@Colors@DirectX@@3UXMVECTORF32@2@B	; DirectX::Colors::OrangeRed
PUBLIC	?Orchid@Colors@DirectX@@3UXMVECTORF32@2@B	; DirectX::Colors::Orchid
PUBLIC	?PaleGoldenrod@Colors@DirectX@@3UXMVECTORF32@2@B ; DirectX::Colors::PaleGoldenrod
PUBLIC	?PaleGreen@Colors@DirectX@@3UXMVECTORF32@2@B	; DirectX::Colors::PaleGreen
PUBLIC	?PaleTurquoise@Colors@DirectX@@3UXMVECTORF32@2@B ; DirectX::Colors::PaleTurquoise
PUBLIC	?PaleVioletRed@Colors@DirectX@@3UXMVECTORF32@2@B ; DirectX::Colors::PaleVioletRed
PUBLIC	?PapayaWhip@Colors@DirectX@@3UXMVECTORF32@2@B	; DirectX::Colors::PapayaWhip
PUBLIC	?PeachPuff@Colors@DirectX@@3UXMVECTORF32@2@B	; DirectX::Colors::PeachPuff
PUBLIC	?Peru@Colors@DirectX@@3UXMVECTORF32@2@B		; DirectX::Colors::Peru
PUBLIC	?Pink@Colors@DirectX@@3UXMVECTORF32@2@B		; DirectX::Colors::Pink
PUBLIC	?Plum@Colors@DirectX@@3UXMVECTORF32@2@B		; DirectX::Colors::Plum
PUBLIC	?PowderBlue@Colors@DirectX@@3UXMVECTORF32@2@B	; DirectX::Colors::PowderBlue
PUBLIC	?Purple@Colors@DirectX@@3UXMVECTORF32@2@B	; DirectX::Colors::Purple
PUBLIC	?Red@Colors@DirectX@@3UXMVECTORF32@2@B		; DirectX::Colors::Red
PUBLIC	?RosyBrown@Colors@DirectX@@3UXMVECTORF32@2@B	; DirectX::Colors::RosyBrown
PUBLIC	?RoyalBlue@Colors@DirectX@@3UXMVECTORF32@2@B	; DirectX::Colors::RoyalBlue
PUBLIC	?SaddleBrown@Colors@DirectX@@3UXMVECTORF32@2@B	; DirectX::Colors::SaddleBrown
PUBLIC	?Salmon@Colors@DirectX@@3UXMVECTORF32@2@B	; DirectX::Colors::Salmon
PUBLIC	?SandyBrown@Colors@DirectX@@3UXMVECTORF32@2@B	; DirectX::Colors::SandyBrown
PUBLIC	?SeaGreen@Colors@DirectX@@3UXMVECTORF32@2@B	; DirectX::Colors::SeaGreen
PUBLIC	?SeaShell@Colors@DirectX@@3UXMVECTORF32@2@B	; DirectX::Colors::SeaShell
PUBLIC	?Sienna@Colors@DirectX@@3UXMVECTORF32@2@B	; DirectX::Colors::Sienna
PUBLIC	?g_BoxOffset@DirectX@@3QBUXMVECTORF32@1@B	; DirectX::g_BoxOffset
PUBLIC	?Silver@Colors@DirectX@@3UXMVECTORF32@2@B	; DirectX::Colors::Silver
PUBLIC	?g_RayEpsilon@DirectX@@3UXMVECTORF32@1@B	; DirectX::g_RayEpsilon
PUBLIC	?SkyBlue@Colors@DirectX@@3UXMVECTORF32@2@B	; DirectX::Colors::SkyBlue
PUBLIC	?g_RayNegEpsilon@DirectX@@3UXMVECTORF32@1@B	; DirectX::g_RayNegEpsilon
PUBLIC	?SlateBlue@Colors@DirectX@@3UXMVECTORF32@2@B	; DirectX::Colors::SlateBlue
PUBLIC	?g_FltMin@DirectX@@3UXMVECTORF32@1@B		; DirectX::g_FltMin
PUBLIC	?SlateGray@Colors@DirectX@@3UXMVECTORF32@2@B	; DirectX::Colors::SlateGray
PUBLIC	?g_FltMax@DirectX@@3UXMVECTORF32@1@B		; DirectX::g_FltMax
PUBLIC	?Snow@Colors@DirectX@@3UXMVECTORF32@2@B		; DirectX::Colors::Snow
PUBLIC	?SpringGreen@Colors@DirectX@@3UXMVECTORF32@2@B	; DirectX::Colors::SpringGreen
PUBLIC	?SteelBlue@Colors@DirectX@@3UXMVECTORF32@2@B	; DirectX::Colors::SteelBlue
PUBLIC	?Tan@Colors@DirectX@@3UXMVECTORF32@2@B		; DirectX::Colors::Tan
PUBLIC	?Teal@Colors@DirectX@@3UXMVECTORF32@2@B		; DirectX::Colors::Teal
PUBLIC	?Thistle@Colors@DirectX@@3UXMVECTORF32@2@B	; DirectX::Colors::Thistle
PUBLIC	?Tomato@Colors@DirectX@@3UXMVECTORF32@2@B	; DirectX::Colors::Tomato
PUBLIC	?Transparent@Colors@DirectX@@3UXMVECTORF32@2@B	; DirectX::Colors::Transparent
PUBLIC	?Turquoise@Colors@DirectX@@3UXMVECTORF32@2@B	; DirectX::Colors::Turquoise
PUBLIC	?Violet@Colors@DirectX@@3UXMVECTORF32@2@B	; DirectX::Colors::Violet
PUBLIC	?Wheat@Colors@DirectX@@3UXMVECTORF32@2@B	; DirectX::Colors::Wheat
PUBLIC	?White@Colors@DirectX@@3UXMVECTORF32@2@B	; DirectX::Colors::White
PUBLIC	?WhiteSmoke@Colors@DirectX@@3UXMVECTORF32@2@B	; DirectX::Colors::WhiteSmoke
PUBLIC	?Yellow@Colors@DirectX@@3UXMVECTORF32@2@B	; DirectX::Colors::Yellow
PUBLIC	?YellowGreen@Colors@DirectX@@3UXMVECTORF32@2@B	; DirectX::Colors::YellowGreen
PUBLIC	?g_UnitVectorEpsilon@Internal@DirectX@@3UXMVECTORF32@2@B ; DirectX::Internal::g_UnitVectorEpsilon
PUBLIC	?g_UnitQuaternionEpsilon@Internal@DirectX@@3UXMVECTORF32@2@B ; DirectX::Internal::g_UnitQuaternionEpsilon
PUBLIC	?g_UnitPlaneEpsilon@Internal@DirectX@@3UXMVECTORF32@2@B ; DirectX::Internal::g_UnitPlaneEpsilon
PUBLIC	?g_XMSinCoefficients0@DirectX@@3UXMVECTORF32@1@B ; DirectX::g_XMSinCoefficients0
PUBLIC	?g_XMSinCoefficients1@DirectX@@3UXMVECTORF32@1@B ; DirectX::g_XMSinCoefficients1
PUBLIC	?g_XMCosCoefficients0@DirectX@@3UXMVECTORF32@1@B ; DirectX::g_XMCosCoefficients0
PUBLIC	?g_XMCosCoefficients1@DirectX@@3UXMVECTORF32@1@B ; DirectX::g_XMCosCoefficients1
PUBLIC	?g_XMTanCoefficients0@DirectX@@3UXMVECTORF32@1@B ; DirectX::g_XMTanCoefficients0
PUBLIC	?g_XMTanCoefficients1@DirectX@@3UXMVECTORF32@1@B ; DirectX::g_XMTanCoefficients1
PUBLIC	?g_XMTanCoefficients2@DirectX@@3UXMVECTORF32@1@B ; DirectX::g_XMTanCoefficients2
PUBLIC	?g_XMArcCoefficients0@DirectX@@3UXMVECTORF32@1@B ; DirectX::g_XMArcCoefficients0
PUBLIC	?g_XMArcCoefficients1@DirectX@@3UXMVECTORF32@1@B ; DirectX::g_XMArcCoefficients1
PUBLIC	?g_XMATanCoefficients0@DirectX@@3UXMVECTORF32@1@B ; DirectX::g_XMATanCoefficients0
PUBLIC	?g_XMATanCoefficients1@DirectX@@3UXMVECTORF32@1@B ; DirectX::g_XMATanCoefficients1
PUBLIC	?g_XMATanEstCoefficients0@DirectX@@3UXMVECTORF32@1@B ; DirectX::g_XMATanEstCoefficients0
PUBLIC	?g_XMATanEstCoefficients1@DirectX@@3UXMVECTORF32@1@B ; DirectX::g_XMATanEstCoefficients1
PUBLIC	?g_XMTanEstCoefficients@DirectX@@3UXMVECTORF32@1@B ; DirectX::g_XMTanEstCoefficients
PUBLIC	?g_XMArcEstCoefficients@DirectX@@3UXMVECTORF32@1@B ; DirectX::g_XMArcEstCoefficients
PUBLIC	?g_XMPiConstants0@DirectX@@3UXMVECTORF32@1@B	; DirectX::g_XMPiConstants0
PUBLIC	?g_XMIdentityR0@DirectX@@3UXMVECTORF32@1@B	; DirectX::g_XMIdentityR0
PUBLIC	?g_XMIdentityR1@DirectX@@3UXMVECTORF32@1@B	; DirectX::g_XMIdentityR1
PUBLIC	?g_XMIdentityR2@DirectX@@3UXMVECTORF32@1@B	; DirectX::g_XMIdentityR2
PUBLIC	?g_XMIdentityR3@DirectX@@3UXMVECTORF32@1@B	; DirectX::g_XMIdentityR3
PUBLIC	?g_XMNegIdentityR0@DirectX@@3UXMVECTORF32@1@B	; DirectX::g_XMNegIdentityR0
PUBLIC	?g_XMNegIdentityR1@DirectX@@3UXMVECTORF32@1@B	; DirectX::g_XMNegIdentityR1
PUBLIC	?g_XMNegIdentityR2@DirectX@@3UXMVECTORF32@1@B	; DirectX::g_XMNegIdentityR2
PUBLIC	?g_XMNegIdentityR3@DirectX@@3UXMVECTORF32@1@B	; DirectX::g_XMNegIdentityR3
PUBLIC	?g_XMNegativeZero@DirectX@@3UXMVECTORU32@1@B	; DirectX::g_XMNegativeZero
PUBLIC	?g_XMNegate3@DirectX@@3UXMVECTORU32@1@B		; DirectX::g_XMNegate3
PUBLIC	?g_XMMask3@DirectX@@3UXMVECTORU32@1@B		; DirectX::g_XMMask3
PUBLIC	?g_XMMaskX@DirectX@@3UXMVECTORU32@1@B		; DirectX::g_XMMaskX
PUBLIC	?g_XMMaskY@DirectX@@3UXMVECTORU32@1@B		; DirectX::g_XMMaskY
PUBLIC	?g_XMMaskZ@DirectX@@3UXMVECTORU32@1@B		; DirectX::g_XMMaskZ
PUBLIC	?g_XMMaskW@DirectX@@3UXMVECTORU32@1@B		; DirectX::g_XMMaskW
PUBLIC	?g_XMOne@DirectX@@3UXMVECTORF32@1@B		; DirectX::g_XMOne
PUBLIC	?g_XMOne3@DirectX@@3UXMVECTORF32@1@B		; DirectX::g_XMOne3
PUBLIC	?g_XMZero@DirectX@@3UXMVECTORF32@1@B		; DirectX::g_XMZero
PUBLIC	?g_XMTwo@DirectX@@3UXMVECTORF32@1@B		; DirectX::g_XMTwo
PUBLIC	?g_XMFour@DirectX@@3UXMVECTORF32@1@B		; DirectX::g_XMFour
PUBLIC	?g_XMSix@DirectX@@3UXMVECTORF32@1@B		; DirectX::g_XMSix
PUBLIC	?g_XMNegativeOne@DirectX@@3UXMVECTORF32@1@B	; DirectX::g_XMNegativeOne
PUBLIC	?g_XMOneHalf@DirectX@@3UXMVECTORF32@1@B		; DirectX::g_XMOneHalf
PUBLIC	?g_XMNegativeOneHalf@DirectX@@3UXMVECTORF32@1@B	; DirectX::g_XMNegativeOneHalf
PUBLIC	?g_XMNegativeTwoPi@DirectX@@3UXMVECTORF32@1@B	; DirectX::g_XMNegativeTwoPi
PUBLIC	?g_XMNegativePi@DirectX@@3UXMVECTORF32@1@B	; DirectX::g_XMNegativePi
PUBLIC	?g_XMHalfPi@DirectX@@3UXMVECTORF32@1@B		; DirectX::g_XMHalfPi
PUBLIC	?g_XMPi@DirectX@@3UXMVECTORF32@1@B		; DirectX::g_XMPi
PUBLIC	?g_XMReciprocalPi@DirectX@@3UXMVECTORF32@1@B	; DirectX::g_XMReciprocalPi
PUBLIC	?g_XMTwoPi@DirectX@@3UXMVECTORF32@1@B		; DirectX::g_XMTwoPi
PUBLIC	?g_XMReciprocalTwoPi@DirectX@@3UXMVECTORF32@1@B	; DirectX::g_XMReciprocalTwoPi
PUBLIC	?g_XMEpsilon@DirectX@@3UXMVECTORF32@1@B		; DirectX::g_XMEpsilon
PUBLIC	?g_XMInfinity@DirectX@@3UXMVECTORI32@1@B	; DirectX::g_XMInfinity
PUBLIC	?g_XMQNaN@DirectX@@3UXMVECTORI32@1@B		; DirectX::g_XMQNaN
PUBLIC	?g_XMQNaNTest@DirectX@@3UXMVECTORI32@1@B	; DirectX::g_XMQNaNTest
PUBLIC	?g_XMAbsMask@DirectX@@3UXMVECTORI32@1@B		; DirectX::g_XMAbsMask
PUBLIC	?g_XMFltMin@DirectX@@3UXMVECTORI32@1@B		; DirectX::g_XMFltMin
PUBLIC	?g_XMFltMax@DirectX@@3UXMVECTORI32@1@B		; DirectX::g_XMFltMax
PUBLIC	?g_XMNegOneMask@DirectX@@3UXMVECTORU32@1@B	; DirectX::g_XMNegOneMask
PUBLIC	?g_XMMaskA8R8G8B8@DirectX@@3UXMVECTORU32@1@B	; DirectX::g_XMMaskA8R8G8B8
PUBLIC	?g_XMFlipA8R8G8B8@DirectX@@3UXMVECTORU32@1@B	; DirectX::g_XMFlipA8R8G8B8
PUBLIC	?g_XMFixAA8R8G8B8@DirectX@@3UXMVECTORF32@1@B	; DirectX::g_XMFixAA8R8G8B8
PUBLIC	?g_XMNormalizeA8R8G8B8@DirectX@@3UXMVECTORF32@1@B ; DirectX::g_XMNormalizeA8R8G8B8
PUBLIC	?g_XMMaskA2B10G10R10@DirectX@@3UXMVECTORU32@1@B	; DirectX::g_XMMaskA2B10G10R10
PUBLIC	?g_XMFlipA2B10G10R10@DirectX@@3UXMVECTORU32@1@B	; DirectX::g_XMFlipA2B10G10R10
PUBLIC	?g_XMFixAA2B10G10R10@DirectX@@3UXMVECTORF32@1@B	; DirectX::g_XMFixAA2B10G10R10
PUBLIC	?g_XMNormalizeA2B10G10R10@DirectX@@3UXMVECTORF32@1@B ; DirectX::g_XMNormalizeA2B10G10R10
PUBLIC	?g_XMMaskX16Y16@DirectX@@3UXMVECTORU32@1@B	; DirectX::g_XMMaskX16Y16
PUBLIC	?g_XMFlipX16Y16@DirectX@@3UXMVECTORI32@1@B	; DirectX::g_XMFlipX16Y16
PUBLIC	?g_XMFixX16Y16@DirectX@@3UXMVECTORF32@1@B	; DirectX::g_XMFixX16Y16
PUBLIC	?g_XMNormalizeX16Y16@DirectX@@3UXMVECTORF32@1@B	; DirectX::g_XMNormalizeX16Y16
PUBLIC	?g_XMMaskX16Y16Z16W16@DirectX@@3UXMVECTORU32@1@B ; DirectX::g_XMMaskX16Y16Z16W16
PUBLIC	?g_XMFlipX16Y16Z16W16@DirectX@@3UXMVECTORI32@1@B ; DirectX::g_XMFlipX16Y16Z16W16
PUBLIC	?g_XMFixX16Y16Z16W16@DirectX@@3UXMVECTORF32@1@B	; DirectX::g_XMFixX16Y16Z16W16
PUBLIC	?g_XMNormalizeX16Y16Z16W16@DirectX@@3UXMVECTORF32@1@B ; DirectX::g_XMNormalizeX16Y16Z16W16
PUBLIC	?g_XMNoFraction@DirectX@@3UXMVECTORF32@1@B	; DirectX::g_XMNoFraction
PUBLIC	?g_XMMaskByte@DirectX@@3UXMVECTORI32@1@B	; DirectX::g_XMMaskByte
PUBLIC	?g_XMNegateX@DirectX@@3UXMVECTORF32@1@B		; DirectX::g_XMNegateX
PUBLIC	?g_XMNegateY@DirectX@@3UXMVECTORF32@1@B		; DirectX::g_XMNegateY
PUBLIC	?g_XMNegateZ@DirectX@@3UXMVECTORF32@1@B		; DirectX::g_XMNegateZ
PUBLIC	?g_XMNegateW@DirectX@@3UXMVECTORF32@1@B		; DirectX::g_XMNegateW
PUBLIC	?g_XMSelect0101@DirectX@@3UXMVECTORU32@1@B	; DirectX::g_XMSelect0101
PUBLIC	?g_XMSelect1010@DirectX@@3UXMVECTORU32@1@B	; DirectX::g_XMSelect1010
PUBLIC	?g_XMOneHalfMinusEpsilon@DirectX@@3UXMVECTORI32@1@B ; DirectX::g_XMOneHalfMinusEpsilon
PUBLIC	?g_XMSelect1000@DirectX@@3UXMVECTORU32@1@B	; DirectX::g_XMSelect1000
PUBLIC	?g_XMSelect1100@DirectX@@3UXMVECTORU32@1@B	; DirectX::g_XMSelect1100
PUBLIC	?g_XMSelect1110@DirectX@@3UXMVECTORU32@1@B	; DirectX::g_XMSelect1110
PUBLIC	?g_XMSelect1011@DirectX@@3UXMVECTORU32@1@B	; DirectX::g_XMSelect1011
PUBLIC	?g_XMFixupY16@DirectX@@3UXMVECTORF32@1@B	; DirectX::g_XMFixupY16
PUBLIC	?g_XMFixupY16W16@DirectX@@3UXMVECTORF32@1@B	; DirectX::g_XMFixupY16W16
PUBLIC	?g_XMFlipY@DirectX@@3UXMVECTORU32@1@B		; DirectX::g_XMFlipY
PUBLIC	?g_XMFlipZ@DirectX@@3UXMVECTORU32@1@B		; DirectX::g_XMFlipZ
PUBLIC	?g_XMFlipW@DirectX@@3UXMVECTORU32@1@B		; DirectX::g_XMFlipW
PUBLIC	?g_XMFlipYZ@DirectX@@3UXMVECTORU32@1@B		; DirectX::g_XMFlipYZ
PUBLIC	?g_XMFlipZW@DirectX@@3UXMVECTORU32@1@B		; DirectX::g_XMFlipZW
PUBLIC	?g_XMFlipYW@DirectX@@3UXMVECTORU32@1@B		; DirectX::g_XMFlipYW
PUBLIC	?g_XMMaskDec4@DirectX@@3UXMVECTORI32@1@B	; DirectX::g_XMMaskDec4
PUBLIC	?g_XMXorDec4@DirectX@@3UXMVECTORI32@1@B		; DirectX::g_XMXorDec4
PUBLIC	?g_XMAddUDec4@DirectX@@3UXMVECTORF32@1@B	; DirectX::g_XMAddUDec4
PUBLIC	?g_XMAddDec4@DirectX@@3UXMVECTORF32@1@B		; DirectX::g_XMAddDec4
PUBLIC	?g_XMMulDec4@DirectX@@3UXMVECTORF32@1@B		; DirectX::g_XMMulDec4
PUBLIC	?g_XMMaskByte4@DirectX@@3UXMVECTORU32@1@B	; DirectX::g_XMMaskByte4
PUBLIC	?g_XMXorByte4@DirectX@@3UXMVECTORI32@1@B	; DirectX::g_XMXorByte4
PUBLIC	?g_XMAddByte4@DirectX@@3UXMVECTORF32@1@B	; DirectX::g_XMAddByte4
PUBLIC	?g_XMFixUnsigned@DirectX@@3UXMVECTORF32@1@B	; DirectX::g_XMFixUnsigned
PUBLIC	?g_XMMaxInt@DirectX@@3UXMVECTORF32@1@B		; DirectX::g_XMMaxInt
PUBLIC	?g_XMMaxUInt@DirectX@@3UXMVECTORF32@1@B		; DirectX::g_XMMaxUInt
PUBLIC	?g_XMUnsignedFix@DirectX@@3UXMVECTORF32@1@B	; DirectX::g_XMUnsignedFix
PUBLIC	?g_XMsrgbScale@DirectX@@3UXMVECTORF32@1@B	; DirectX::g_XMsrgbScale
PUBLIC	?g_XMsrgbA@DirectX@@3UXMVECTORF32@1@B		; DirectX::g_XMsrgbA
PUBLIC	?g_XMsrgbA1@DirectX@@3UXMVECTORF32@1@B		; DirectX::g_XMsrgbA1
PUBLIC	?g_XMExponentBias@DirectX@@3UXMVECTORI32@1@B	; DirectX::g_XMExponentBias
PUBLIC	?g_XMSubnormalExponent@DirectX@@3UXMVECTORI32@1@B ; DirectX::g_XMSubnormalExponent
PUBLIC	?g_XMNumTrailing@DirectX@@3UXMVECTORI32@1@B	; DirectX::g_XMNumTrailing
PUBLIC	?g_XMMinNormal@DirectX@@3UXMVECTORI32@1@B	; DirectX::g_XMMinNormal
PUBLIC	?g_XMNegInfinity@DirectX@@3UXMVECTORU32@1@B	; DirectX::g_XMNegInfinity
PUBLIC	?g_XMNegQNaN@DirectX@@3UXMVECTORU32@1@B		; DirectX::g_XMNegQNaN
PUBLIC	?g_XMBin128@DirectX@@3UXMVECTORI32@1@B		; DirectX::g_XMBin128
PUBLIC	?g_XMBinNeg150@DirectX@@3UXMVECTORU32@1@B	; DirectX::g_XMBinNeg150
PUBLIC	?g_XM253@DirectX@@3UXMVECTORI32@1@B		; DirectX::g_XM253
PUBLIC	?g_XMExpEst1@DirectX@@3UXMVECTORF32@1@B		; DirectX::g_XMExpEst1
PUBLIC	?g_XMExpEst2@DirectX@@3UXMVECTORF32@1@B		; DirectX::g_XMExpEst2
PUBLIC	?g_XMExpEst3@DirectX@@3UXMVECTORF32@1@B		; DirectX::g_XMExpEst3
PUBLIC	?g_XMExpEst4@DirectX@@3UXMVECTORF32@1@B		; DirectX::g_XMExpEst4
PUBLIC	?g_XMExpEst5@DirectX@@3UXMVECTORF32@1@B		; DirectX::g_XMExpEst5
PUBLIC	?g_XMExpEst6@DirectX@@3UXMVECTORF32@1@B		; DirectX::g_XMExpEst6
PUBLIC	?g_XMExpEst7@DirectX@@3UXMVECTORF32@1@B		; DirectX::g_XMExpEst7
PUBLIC	?g_XMLogEst0@DirectX@@3UXMVECTORF32@1@B		; DirectX::g_XMLogEst0
PUBLIC	?g_XMLogEst1@DirectX@@3UXMVECTORF32@1@B		; DirectX::g_XMLogEst1
PUBLIC	?g_XMLogEst2@DirectX@@3UXMVECTORF32@1@B		; DirectX::g_XMLogEst2
PUBLIC	?g_XMLogEst3@DirectX@@3UXMVECTORF32@1@B		; DirectX::g_XMLogEst3
PUBLIC	?g_XMLogEst4@DirectX@@3UXMVECTORF32@1@B		; DirectX::g_XMLogEst4
PUBLIC	?g_XMLogEst5@DirectX@@3UXMVECTORF32@1@B		; DirectX::g_XMLogEst5
PUBLIC	?g_XMLogEst6@DirectX@@3UXMVECTORF32@1@B		; DirectX::g_XMLogEst6
PUBLIC	?g_XMLogEst7@DirectX@@3UXMVECTORF32@1@B		; DirectX::g_XMLogEst7
PUBLIC	?g_XMLgE@DirectX@@3UXMVECTORF32@1@B		; DirectX::g_XMLgE
PUBLIC	?g_XMInvLgE@DirectX@@3UXMVECTORF32@1@B		; DirectX::g_XMInvLgE
;	COMDAT ?g_XMInvLgE@DirectX@@3UXMVECTORF32@1@B
CONST	SEGMENT
?g_XMInvLgE@DirectX@@3UXMVECTORF32@1@B DD 03f317218r ; 0.693147 ; DirectX::g_XMInvLgE
	DD	03f317218r			; 0.693147
	DD	03f317218r			; 0.693147
	DD	03f317218r			; 0.693147
CONST	ENDS
;	COMDAT ?g_XMLgE@DirectX@@3UXMVECTORF32@1@B
CONST	SEGMENT
?g_XMLgE@DirectX@@3UXMVECTORF32@1@B DD 03fb8aa3br ; 1.4427 ; DirectX::g_XMLgE
	DD	03fb8aa3br			; 1.4427
	DD	03fb8aa3br			; 1.4427
	DD	03fb8aa3br			; 1.4427
CONST	ENDS
;	COMDAT ?g_XMLogEst7@DirectX@@3UXMVECTORF32@1@B
CONST	SEGMENT
?g_XMLogEst7@DirectX@@3UXMVECTORF32@1@B DD 0bc2d4f59r ; -0.010578 ; DirectX::g_XMLogEst7
	DD	0bc2d4f59r			; -0.010578
	DD	0bc2d4f59r			; -0.010578
	DD	0bc2d4f59r			; -0.010578
CONST	ENDS
;	COMDAT ?g_XMLogEst6@DirectX@@3UXMVECTORF32@1@B
CONST	SEGMENT
?g_XMLogEst6@DirectX@@3UXMVECTORF32@1@B DD 03d6a1405r ; 0.057148 ; DirectX::g_XMLogEst6
	DD	03d6a1405r			; 0.057148
	DD	03d6a1405r			; 0.057148
	DD	03d6a1405r			; 0.057148
CONST	ENDS
;	COMDAT ?g_XMLogEst5@DirectX@@3UXMVECTORF32@1@B
CONST	SEGMENT
?g_XMLogEst5@DirectX@@3UXMVECTORF32@1@B DD 0be153261r ; -0.1457 ; DirectX::g_XMLogEst5
	DD	0be153261r			; -0.1457
	DD	0be153261r			; -0.1457
	DD	0be153261r			; -0.1457
CONST	ENDS
;	COMDAT ?g_XMLogEst4@DirectX@@3UXMVECTORF32@1@B
CONST	SEGMENT
?g_XMLogEst4@DirectX@@3UXMVECTORF32@1@B DD 03e7e8e61r ; 0.24859 ; DirectX::g_XMLogEst4
	DD	03e7e8e61r			; 0.24859
	DD	03e7e8e61r			; 0.24859
	DD	03e7e8e61r			; 0.24859
CONST	ENDS
;	COMDAT ?g_XMLogEst3@DirectX@@3UXMVECTORF32@1@B
CONST	SEGMENT
?g_XMLogEst3@DirectX@@3UXMVECTORF32@1@B DD 0beb359der ; -0.350295 ; DirectX::g_XMLogEst3
	DD	0beb359der			; -0.350295
	DD	0beb359der			; -0.350295
	DD	0beb359der			; -0.350295
CONST	ENDS
;	COMDAT ?g_XMLogEst2@DirectX@@3UXMVECTORF32@1@B
CONST	SEGMENT
?g_XMLogEst2@DirectX@@3UXMVECTORF32@1@B DD 03ef571d2r ; 0.479384 ; DirectX::g_XMLogEst2
	DD	03ef571d2r			; 0.479384
	DD	03ef571d2r			; 0.479384
	DD	03ef571d2r			; 0.479384
CONST	ENDS
;	COMDAT ?g_XMLogEst1@DirectX@@3UXMVECTORF32@1@B
CONST	SEGMENT
?g_XMLogEst1@DirectX@@3UXMVECTORF32@1@B DD 0bf38a351r ; -0.721242 ; DirectX::g_XMLogEst1
	DD	0bf38a351r			; -0.721242
	DD	0bf38a351r			; -0.721242
	DD	0bf38a351r			; -0.721242
CONST	ENDS
;	COMDAT ?g_XMLogEst0@DirectX@@3UXMVECTORF32@1@B
CONST	SEGMENT
?g_XMLogEst0@DirectX@@3UXMVECTORF32@1@B DD 03fb8aa2ar ; 1.44269 ; DirectX::g_XMLogEst0
	DD	03fb8aa2ar			; 1.44269
	DD	03fb8aa2ar			; 1.44269
	DD	03fb8aa2ar			; 1.44269
CONST	ENDS
;	COMDAT ?g_XMExpEst7@DirectX@@3UXMVECTORF32@1@B
CONST	SEGMENT
?g_XMExpEst7@DirectX@@3UXMVECTORF32@1@B DD 0b7364261r ; -1.08635e-05 ; DirectX::g_XMExpEst7
	DD	0b7364261r			; -1.08635e-05
	DD	0b7364261r			; -1.08635e-05
	DD	0b7364261r			; -1.08635e-05
CONST	ENDS
;	COMDAT ?g_XMExpEst6@DirectX@@3UXMVECTORF32@1@B
CONST	SEGMENT
?g_XMExpEst6@DirectX@@3UXMVECTORF32@1@B DD 0391aa7d7r ; 0.000147491 ; DirectX::g_XMExpEst6
	DD	0391aa7d7r			; 0.000147491
	DD	0391aa7d7r			; 0.000147491
	DD	0391aa7d7r			; 0.000147491
CONST	ENDS
;	COMDAT ?g_XMExpEst5@DirectX@@3UXMVECTORF32@1@B
CONST	SEGMENT
?g_XMExpEst5@DirectX@@3UXMVECTORF32@1@B DD 0baae1854r ; -0.00132824 ; DirectX::g_XMExpEst5
	DD	0baae1854r			; -0.00132824
	DD	0baae1854r			; -0.00132824
	DD	0baae1854r			; -0.00132824
CONST	ENDS
;	COMDAT ?g_XMExpEst4@DirectX@@3UXMVECTORF32@1@B
CONST	SEGMENT
?g_XMExpEst4@DirectX@@3UXMVECTORF32@1@B DD 03c1d8c54r ; 0.00961598 ; DirectX::g_XMExpEst4
	DD	03c1d8c54r			; 0.00961598
	DD	03c1d8c54r			; 0.00961598
	DD	03c1d8c54r			; 0.00961598
CONST	ENDS
;	COMDAT ?g_XMExpEst3@DirectX@@3UXMVECTORF32@1@B
CONST	SEGMENT
?g_XMExpEst3@DirectX@@3UXMVECTORF32@1@B DD 0bd6357car ; -0.0555036 ; DirectX::g_XMExpEst3
	DD	0bd6357car			; -0.0555036
	DD	0bd6357car			; -0.0555036
	DD	0bd6357car			; -0.0555036
CONST	ENDS
;	COMDAT ?g_XMExpEst2@DirectX@@3UXMVECTORF32@1@B
CONST	SEGMENT
?g_XMExpEst2@DirectX@@3UXMVECTORF32@1@B DD 03e75fdedr ; 0.240226 ; DirectX::g_XMExpEst2
	DD	03e75fdedr			; 0.240226
	DD	03e75fdedr			; 0.240226
	DD	03e75fdedr			; 0.240226
CONST	ENDS
;	COMDAT ?g_XMExpEst1@DirectX@@3UXMVECTORF32@1@B
CONST	SEGMENT
?g_XMExpEst1@DirectX@@3UXMVECTORF32@1@B DD 0bf317218r ; -0.693147 ; DirectX::g_XMExpEst1
	DD	0bf317218r			; -0.693147
	DD	0bf317218r			; -0.693147
	DD	0bf317218r			; -0.693147
CONST	ENDS
;	COMDAT ?g_XM253@DirectX@@3UXMVECTORI32@1@B
CONST	SEGMENT
?g_XM253@DirectX@@3UXMVECTORI32@1@B DD 0fdH		; DirectX::g_XM253
	DD	0fdH
	DD	0fdH
	DD	0fdH
CONST	ENDS
;	COMDAT ?g_XMBinNeg150@DirectX@@3UXMVECTORU32@1@B
CONST	SEGMENT
?g_XMBinNeg150@DirectX@@3UXMVECTORU32@1@B DD 0c3160000H	; DirectX::g_XMBinNeg150
	DD	0c3160000H
	DD	0c3160000H
	DD	0c3160000H
CONST	ENDS
;	COMDAT ?g_XMBin128@DirectX@@3UXMVECTORI32@1@B
CONST	SEGMENT
?g_XMBin128@DirectX@@3UXMVECTORI32@1@B DD 043000000H	; DirectX::g_XMBin128
	DD	043000000H
	DD	043000000H
	DD	043000000H
CONST	ENDS
;	COMDAT ?g_XMNegQNaN@DirectX@@3UXMVECTORU32@1@B
CONST	SEGMENT
?g_XMNegQNaN@DirectX@@3UXMVECTORU32@1@B DD 0ffc00000H	; DirectX::g_XMNegQNaN
	DD	0ffc00000H
	DD	0ffc00000H
	DD	0ffc00000H
CONST	ENDS
;	COMDAT ?g_XMNegInfinity@DirectX@@3UXMVECTORU32@1@B
CONST	SEGMENT
?g_XMNegInfinity@DirectX@@3UXMVECTORU32@1@B DD 0ff800000H ; DirectX::g_XMNegInfinity
	DD	0ff800000H
	DD	0ff800000H
	DD	0ff800000H
CONST	ENDS
;	COMDAT ?g_XMMinNormal@DirectX@@3UXMVECTORI32@1@B
CONST	SEGMENT
?g_XMMinNormal@DirectX@@3UXMVECTORI32@1@B DD 0800000H	; DirectX::g_XMMinNormal
	DD	0800000H
	DD	0800000H
	DD	0800000H
CONST	ENDS
;	COMDAT ?g_XMNumTrailing@DirectX@@3UXMVECTORI32@1@B
CONST	SEGMENT
?g_XMNumTrailing@DirectX@@3UXMVECTORI32@1@B DD 017H	; DirectX::g_XMNumTrailing
	DD	017H
	DD	017H
	DD	017H
CONST	ENDS
;	COMDAT ?g_XMSubnormalExponent@DirectX@@3UXMVECTORI32@1@B
CONST	SEGMENT
?g_XMSubnormalExponent@DirectX@@3UXMVECTORI32@1@B DD 0ffffff82H ; DirectX::g_XMSubnormalExponent
	DD	0ffffff82H
	DD	0ffffff82H
	DD	0ffffff82H
CONST	ENDS
;	COMDAT ?g_XMExponentBias@DirectX@@3UXMVECTORI32@1@B
CONST	SEGMENT
?g_XMExponentBias@DirectX@@3UXMVECTORI32@1@B DD 07fH	; DirectX::g_XMExponentBias
	DD	07fH
	DD	07fH
	DD	07fH
CONST	ENDS
;	COMDAT ?g_XMsrgbA1@DirectX@@3UXMVECTORF32@1@B
CONST	SEGMENT
?g_XMsrgbA1@DirectX@@3UXMVECTORF32@1@B DD 03f870a3dr ; 1.055 ; DirectX::g_XMsrgbA1
	DD	03f870a3dr			; 1.055
	DD	03f870a3dr			; 1.055
	DD	03f800000r			; 1
CONST	ENDS
;	COMDAT ?g_XMsrgbA@DirectX@@3UXMVECTORF32@1@B
CONST	SEGMENT
?g_XMsrgbA@DirectX@@3UXMVECTORF32@1@B DD 03d6147aer ; 0.055 ; DirectX::g_XMsrgbA
	DD	03d6147aer			; 0.055
	DD	03d6147aer			; 0.055
	DD	000000000r			; 0
CONST	ENDS
;	COMDAT ?g_XMsrgbScale@DirectX@@3UXMVECTORF32@1@B
CONST	SEGMENT
?g_XMsrgbScale@DirectX@@3UXMVECTORF32@1@B DD 0414eb852r ; 12.92 ; DirectX::g_XMsrgbScale
	DD	0414eb852r			; 12.92
	DD	0414eb852r			; 12.92
	DD	03f800000r			; 1
CONST	ENDS
;	COMDAT ?g_XMUnsignedFix@DirectX@@3UXMVECTORF32@1@B
CONST	SEGMENT
?g_XMUnsignedFix@DirectX@@3UXMVECTORF32@1@B DD 04f000000r ; 2.14748e+09 ; DirectX::g_XMUnsignedFix
	DD	04f000000r			; 2.14748e+09
	DD	04f000000r			; 2.14748e+09
	DD	04f000000r			; 2.14748e+09
CONST	ENDS
;	COMDAT ?g_XMMaxUInt@DirectX@@3UXMVECTORF32@1@B
CONST	SEGMENT
?g_XMMaxUInt@DirectX@@3UXMVECTORF32@1@B DD 04f7fffffr ; 4.29497e+09 ; DirectX::g_XMMaxUInt
	DD	04f7fffffr			; 4.29497e+09
	DD	04f7fffffr			; 4.29497e+09
	DD	04f7fffffr			; 4.29497e+09
CONST	ENDS
;	COMDAT ?g_XMMaxInt@DirectX@@3UXMVECTORF32@1@B
CONST	SEGMENT
?g_XMMaxInt@DirectX@@3UXMVECTORF32@1@B DD 04effffffr ; 2.14748e+09 ; DirectX::g_XMMaxInt
	DD	04effffffr			; 2.14748e+09
	DD	04effffffr			; 2.14748e+09
	DD	04effffffr			; 2.14748e+09
CONST	ENDS
;	COMDAT ?g_XMFixUnsigned@DirectX@@3UXMVECTORF32@1@B
CONST	SEGMENT
?g_XMFixUnsigned@DirectX@@3UXMVECTORF32@1@B DD 04f000000r ; 2.14748e+09 ; DirectX::g_XMFixUnsigned
	DD	04f000000r			; 2.14748e+09
	DD	04f000000r			; 2.14748e+09
	DD	04f000000r			; 2.14748e+09
CONST	ENDS
;	COMDAT ?g_XMAddByte4@DirectX@@3UXMVECTORF32@1@B
CONST	SEGMENT
?g_XMAddByte4@DirectX@@3UXMVECTORF32@1@B DD 0c3000000r ; -128 ; DirectX::g_XMAddByte4
	DD	0c7000000r			; -32768
	DD	0cb000000r			; -8.38861e+06
	DD	000000000r			; 0
CONST	ENDS
;	COMDAT ?g_XMXorByte4@DirectX@@3UXMVECTORI32@1@B
CONST	SEGMENT
?g_XMXorByte4@DirectX@@3UXMVECTORI32@1@B DD 080H	; DirectX::g_XMXorByte4
	DD	08000H
	DD	0800000H
	DD	00H
CONST	ENDS
;	COMDAT ?g_XMMaskByte4@DirectX@@3UXMVECTORU32@1@B
CONST	SEGMENT
?g_XMMaskByte4@DirectX@@3UXMVECTORU32@1@B DD 0ffH	; DirectX::g_XMMaskByte4
	DD	0ff00H
	DD	0ff0000H
	DD	0ff000000H
CONST	ENDS
;	COMDAT ?g_XMMulDec4@DirectX@@3UXMVECTORF32@1@B
CONST	SEGMENT
?g_XMMulDec4@DirectX@@3UXMVECTORF32@1@B DD 03f800000r ; 1 ; DirectX::g_XMMulDec4
	DD	03a800000r			; 0.000976563
	DD	035800000r			; 9.53674e-07
	DD	030800000r			; 9.31323e-10
CONST	ENDS
;	COMDAT ?g_XMAddDec4@DirectX@@3UXMVECTORF32@1@B
CONST	SEGMENT
?g_XMAddDec4@DirectX@@3UXMVECTORF32@1@B DD 0c4000000r ; -512 ; DirectX::g_XMAddDec4
	DD	0c9000000r			; -524288
	DD	0ce000000r			; -5.36871e+08
	DD	000000000r			; 0
CONST	ENDS
;	COMDAT ?g_XMAddUDec4@DirectX@@3UXMVECTORF32@1@B
CONST	SEGMENT
?g_XMAddUDec4@DirectX@@3UXMVECTORF32@1@B DD 000000000r ; 0 ; DirectX::g_XMAddUDec4
	DD	000000000r			; 0
	DD	000000000r			; 0
	DD	04f000000r			; 2.14748e+09
CONST	ENDS
;	COMDAT ?g_XMXorDec4@DirectX@@3UXMVECTORI32@1@B
CONST	SEGMENT
?g_XMXorDec4@DirectX@@3UXMVECTORI32@1@B DD 0200H	; DirectX::g_XMXorDec4
	DD	080000H
	DD	020000000H
	DD	00H
CONST	ENDS
;	COMDAT ?g_XMMaskDec4@DirectX@@3UXMVECTORI32@1@B
CONST	SEGMENT
?g_XMMaskDec4@DirectX@@3UXMVECTORI32@1@B DD 03ffH	; DirectX::g_XMMaskDec4
	DD	0ffc00H
	DD	03ff00000H
	DD	0c0000000H
CONST	ENDS
;	COMDAT ?g_XMFlipYW@DirectX@@3UXMVECTORU32@1@B
CONST	SEGMENT
?g_XMFlipYW@DirectX@@3UXMVECTORU32@1@B DD 00H		; DirectX::g_XMFlipYW
	DD	080000000H
	DD	00H
	DD	080000000H
CONST	ENDS
;	COMDAT ?g_XMFlipZW@DirectX@@3UXMVECTORU32@1@B
CONST	SEGMENT
?g_XMFlipZW@DirectX@@3UXMVECTORU32@1@B DD 00H		; DirectX::g_XMFlipZW
	DD	00H
	DD	080000000H
	DD	080000000H
CONST	ENDS
;	COMDAT ?g_XMFlipYZ@DirectX@@3UXMVECTORU32@1@B
CONST	SEGMENT
?g_XMFlipYZ@DirectX@@3UXMVECTORU32@1@B DD 00H		; DirectX::g_XMFlipYZ
	DD	080000000H
	DD	080000000H
	DD	00H
CONST	ENDS
;	COMDAT ?g_XMFlipW@DirectX@@3UXMVECTORU32@1@B
CONST	SEGMENT
?g_XMFlipW@DirectX@@3UXMVECTORU32@1@B DD 00H		; DirectX::g_XMFlipW
	DD	00H
	DD	00H
	DD	080000000H
CONST	ENDS
;	COMDAT ?g_XMFlipZ@DirectX@@3UXMVECTORU32@1@B
CONST	SEGMENT
?g_XMFlipZ@DirectX@@3UXMVECTORU32@1@B DD 00H		; DirectX::g_XMFlipZ
	DD	00H
	DD	080000000H
	DD	00H
CONST	ENDS
;	COMDAT ?g_XMFlipY@DirectX@@3UXMVECTORU32@1@B
CONST	SEGMENT
?g_XMFlipY@DirectX@@3UXMVECTORU32@1@B DD 00H		; DirectX::g_XMFlipY
	DD	080000000H
	DD	00H
	DD	00H
CONST	ENDS
;	COMDAT ?g_XMFixupY16W16@DirectX@@3UXMVECTORF32@1@B
CONST	SEGMENT
?g_XMFixupY16W16@DirectX@@3UXMVECTORF32@1@B DD 03f800000r ; 1 ; DirectX::g_XMFixupY16W16
	DD	03f800000r			; 1
	DD	037800000r			; 1.52588e-05
	DD	037800000r			; 1.52588e-05
CONST	ENDS
;	COMDAT ?g_XMFixupY16@DirectX@@3UXMVECTORF32@1@B
CONST	SEGMENT
?g_XMFixupY16@DirectX@@3UXMVECTORF32@1@B DD 03f800000r ; 1 ; DirectX::g_XMFixupY16
	DD	037800000r			; 1.52588e-05
	DD	000000000r			; 0
	DD	000000000r			; 0
CONST	ENDS
;	COMDAT ?g_XMSelect1011@DirectX@@3UXMVECTORU32@1@B
CONST	SEGMENT
?g_XMSelect1011@DirectX@@3UXMVECTORU32@1@B DD 0ffffffffH ; DirectX::g_XMSelect1011
	DD	00H
	DD	0ffffffffH
	DD	0ffffffffH
CONST	ENDS
;	COMDAT ?g_XMSelect1110@DirectX@@3UXMVECTORU32@1@B
CONST	SEGMENT
?g_XMSelect1110@DirectX@@3UXMVECTORU32@1@B DD 0ffffffffH ; DirectX::g_XMSelect1110
	DD	0ffffffffH
	DD	0ffffffffH
	DD	00H
CONST	ENDS
;	COMDAT ?g_XMSelect1100@DirectX@@3UXMVECTORU32@1@B
CONST	SEGMENT
?g_XMSelect1100@DirectX@@3UXMVECTORU32@1@B DD 0ffffffffH ; DirectX::g_XMSelect1100
	DD	0ffffffffH
	DD	00H
	DD	00H
CONST	ENDS
;	COMDAT ?g_XMSelect1000@DirectX@@3UXMVECTORU32@1@B
CONST	SEGMENT
?g_XMSelect1000@DirectX@@3UXMVECTORU32@1@B DD 0ffffffffH ; DirectX::g_XMSelect1000
	DD	00H
	DD	00H
	DD	00H
CONST	ENDS
;	COMDAT ?g_XMOneHalfMinusEpsilon@DirectX@@3UXMVECTORI32@1@B
CONST	SEGMENT
?g_XMOneHalfMinusEpsilon@DirectX@@3UXMVECTORI32@1@B DD 03efffffdH ; DirectX::g_XMOneHalfMinusEpsilon
	DD	03efffffdH
	DD	03efffffdH
	DD	03efffffdH
CONST	ENDS
;	COMDAT ?g_XMSelect1010@DirectX@@3UXMVECTORU32@1@B
CONST	SEGMENT
?g_XMSelect1010@DirectX@@3UXMVECTORU32@1@B DD 0ffffffffH ; DirectX::g_XMSelect1010
	DD	00H
	DD	0ffffffffH
	DD	00H
CONST	ENDS
;	COMDAT ?g_XMSelect0101@DirectX@@3UXMVECTORU32@1@B
CONST	SEGMENT
?g_XMSelect0101@DirectX@@3UXMVECTORU32@1@B DD 00H	; DirectX::g_XMSelect0101
	DD	0ffffffffH
	DD	00H
	DD	0ffffffffH
CONST	ENDS
;	COMDAT ?g_XMNegateW@DirectX@@3UXMVECTORF32@1@B
CONST	SEGMENT
?g_XMNegateW@DirectX@@3UXMVECTORF32@1@B DD 03f800000r ; 1 ; DirectX::g_XMNegateW
	DD	03f800000r			; 1
	DD	03f800000r			; 1
	DD	0bf800000r			; -1
CONST	ENDS
;	COMDAT ?g_XMNegateZ@DirectX@@3UXMVECTORF32@1@B
CONST	SEGMENT
?g_XMNegateZ@DirectX@@3UXMVECTORF32@1@B DD 03f800000r ; 1 ; DirectX::g_XMNegateZ
	DD	03f800000r			; 1
	DD	0bf800000r			; -1
	DD	03f800000r			; 1
CONST	ENDS
;	COMDAT ?g_XMNegateY@DirectX@@3UXMVECTORF32@1@B
CONST	SEGMENT
?g_XMNegateY@DirectX@@3UXMVECTORF32@1@B DD 03f800000r ; 1 ; DirectX::g_XMNegateY
	DD	0bf800000r			; -1
	DD	03f800000r			; 1
	DD	03f800000r			; 1
CONST	ENDS
;	COMDAT ?g_XMNegateX@DirectX@@3UXMVECTORF32@1@B
CONST	SEGMENT
?g_XMNegateX@DirectX@@3UXMVECTORF32@1@B DD 0bf800000r ; -1 ; DirectX::g_XMNegateX
	DD	03f800000r			; 1
	DD	03f800000r			; 1
	DD	03f800000r			; 1
CONST	ENDS
;	COMDAT ?g_XMMaskByte@DirectX@@3UXMVECTORI32@1@B
CONST	SEGMENT
?g_XMMaskByte@DirectX@@3UXMVECTORI32@1@B DD 0ffH	; DirectX::g_XMMaskByte
	DD	0ffH
	DD	0ffH
	DD	0ffH
CONST	ENDS
;	COMDAT ?g_XMNoFraction@DirectX@@3UXMVECTORF32@1@B
CONST	SEGMENT
?g_XMNoFraction@DirectX@@3UXMVECTORF32@1@B DD 04b000000r ; 8.38861e+06 ; DirectX::g_XMNoFraction
	DD	04b000000r			; 8.38861e+06
	DD	04b000000r			; 8.38861e+06
	DD	04b000000r			; 8.38861e+06
CONST	ENDS
;	COMDAT ?g_XMNormalizeX16Y16Z16W16@DirectX@@3UXMVECTORF32@1@B
CONST	SEGMENT
?g_XMNormalizeX16Y16Z16W16@DirectX@@3UXMVECTORF32@1@B DD 038000100r ; 3.05185e-05 ; DirectX::g_XMNormalizeX16Y16Z16W16
	DD	038000100r			; 3.05185e-05
	DD	030000100r			; 4.65675e-10
	DD	030000100r			; 4.65675e-10
CONST	ENDS
;	COMDAT ?g_XMFixX16Y16Z16W16@DirectX@@3UXMVECTORF32@1@B
CONST	SEGMENT
?g_XMFixX16Y16Z16W16@DirectX@@3UXMVECTORF32@1@B DD 0c7000000r ; -32768 ; DirectX::g_XMFixX16Y16Z16W16
	DD	0c7000000r			; -32768
	DD	000000000r			; 0
	DD	000000000r			; 0
CONST	ENDS
;	COMDAT ?g_XMFlipX16Y16Z16W16@DirectX@@3UXMVECTORI32@1@B
CONST	SEGMENT
?g_XMFlipX16Y16Z16W16@DirectX@@3UXMVECTORI32@1@B DD 08000H ; DirectX::g_XMFlipX16Y16Z16W16
	DD	08000H
	DD	00H
	DD	00H
CONST	ENDS
;	COMDAT ?g_XMMaskX16Y16Z16W16@DirectX@@3UXMVECTORU32@1@B
CONST	SEGMENT
?g_XMMaskX16Y16Z16W16@DirectX@@3UXMVECTORU32@1@B DD 0ffffH ; DirectX::g_XMMaskX16Y16Z16W16
	DD	0ffffH
	DD	0ffff0000H
	DD	0ffff0000H
CONST	ENDS
;	COMDAT ?g_XMNormalizeX16Y16@DirectX@@3UXMVECTORF32@1@B
CONST	SEGMENT
?g_XMNormalizeX16Y16@DirectX@@3UXMVECTORF32@1@B DD 038000100r ; 3.05185e-05 ; DirectX::g_XMNormalizeX16Y16
	DD	030000100r			; 4.65675e-10
	DD	000000000r			; 0
	DD	000000000r			; 0
CONST	ENDS
;	COMDAT ?g_XMFixX16Y16@DirectX@@3UXMVECTORF32@1@B
CONST	SEGMENT
?g_XMFixX16Y16@DirectX@@3UXMVECTORF32@1@B DD 0c7000000r ; -32768 ; DirectX::g_XMFixX16Y16
	DD	000000000r			; 0
	DD	000000000r			; 0
	DD	000000000r			; 0
CONST	ENDS
;	COMDAT ?g_XMFlipX16Y16@DirectX@@3UXMVECTORI32@1@B
CONST	SEGMENT
?g_XMFlipX16Y16@DirectX@@3UXMVECTORI32@1@B DD 08000H	; DirectX::g_XMFlipX16Y16
	DD	00H
	DD	00H
	DD	00H
CONST	ENDS
;	COMDAT ?g_XMMaskX16Y16@DirectX@@3UXMVECTORU32@1@B
CONST	SEGMENT
?g_XMMaskX16Y16@DirectX@@3UXMVECTORU32@1@B DD 0ffffH	; DirectX::g_XMMaskX16Y16
	DD	0ffff0000H
	DD	00H
	DD	00H
CONST	ENDS
;	COMDAT ?g_XMNormalizeA2B10G10R10@DirectX@@3UXMVECTORF32@1@B
CONST	SEGMENT
?g_XMNormalizeA2B10G10R10@DirectX@@3UXMVECTORF32@1@B DD 03b004020r ; 0.00195695 ; DirectX::g_XMNormalizeA2B10G10R10
	DD	036004020r			; 1.91108e-06
	DD	031004020r			; 1.86629e-09
	DD	02faaaaabr			; 3.10441e-10
CONST	ENDS
;	COMDAT ?g_XMFixAA2B10G10R10@DirectX@@3UXMVECTORF32@1@B
CONST	SEGMENT
?g_XMFixAA2B10G10R10@DirectX@@3UXMVECTORF32@1@B DD 0c4000000r ; -512 ; DirectX::g_XMFixAA2B10G10R10
	DD	0c9000000r			; -524288
	DD	0ce000000r			; -5.36871e+08
	DD	04f000000r			; 2.14748e+09
CONST	ENDS
;	COMDAT ?g_XMFlipA2B10G10R10@DirectX@@3UXMVECTORU32@1@B
CONST	SEGMENT
?g_XMFlipA2B10G10R10@DirectX@@3UXMVECTORU32@1@B DD 0200H ; DirectX::g_XMFlipA2B10G10R10
	DD	080000H
	DD	020000000H
	DD	080000000H
CONST	ENDS
;	COMDAT ?g_XMMaskA2B10G10R10@DirectX@@3UXMVECTORU32@1@B
CONST	SEGMENT
?g_XMMaskA2B10G10R10@DirectX@@3UXMVECTORU32@1@B DD 03ffH ; DirectX::g_XMMaskA2B10G10R10
	DD	0ffc00H
	DD	03ff00000H
	DD	0c0000000H
CONST	ENDS
;	COMDAT ?g_XMNormalizeA8R8G8B8@DirectX@@3UXMVECTORF32@1@B
CONST	SEGMENT
?g_XMNormalizeA8R8G8B8@DirectX@@3UXMVECTORF32@1@B DD 033808081r ; 5.98384e-08 ; DirectX::g_XMNormalizeA8R8G8B8
	DD	037808081r			; 1.53186e-05
	DD	03b808081r			; 0.00392157
	DD	02f808081r			; 2.33744e-10
CONST	ENDS
;	COMDAT ?g_XMFixAA8R8G8B8@DirectX@@3UXMVECTORF32@1@B
CONST	SEGMENT
?g_XMFixAA8R8G8B8@DirectX@@3UXMVECTORF32@1@B DD 000000000r ; 0 ; DirectX::g_XMFixAA8R8G8B8
	DD	000000000r			; 0
	DD	000000000r			; 0
	DD	04f000000r			; 2.14748e+09
CONST	ENDS
;	COMDAT ?g_XMFlipA8R8G8B8@DirectX@@3UXMVECTORU32@1@B
CONST	SEGMENT
?g_XMFlipA8R8G8B8@DirectX@@3UXMVECTORU32@1@B DD 00H	; DirectX::g_XMFlipA8R8G8B8
	DD	00H
	DD	00H
	DD	080000000H
CONST	ENDS
;	COMDAT ?g_XMMaskA8R8G8B8@DirectX@@3UXMVECTORU32@1@B
CONST	SEGMENT
?g_XMMaskA8R8G8B8@DirectX@@3UXMVECTORU32@1@B DD 0ff0000H ; DirectX::g_XMMaskA8R8G8B8
	DD	0ff00H
	DD	0ffH
	DD	0ff000000H
CONST	ENDS
;	COMDAT ?g_XMNegOneMask@DirectX@@3UXMVECTORU32@1@B
CONST	SEGMENT
?g_XMNegOneMask@DirectX@@3UXMVECTORU32@1@B DD 0ffffffffH ; DirectX::g_XMNegOneMask
	DD	0ffffffffH
	DD	0ffffffffH
	DD	0ffffffffH
CONST	ENDS
;	COMDAT ?g_XMFltMax@DirectX@@3UXMVECTORI32@1@B
CONST	SEGMENT
?g_XMFltMax@DirectX@@3UXMVECTORI32@1@B DD 07f7fffffH	; DirectX::g_XMFltMax
	DD	07f7fffffH
	DD	07f7fffffH
	DD	07f7fffffH
CONST	ENDS
;	COMDAT ?g_XMFltMin@DirectX@@3UXMVECTORI32@1@B
CONST	SEGMENT
?g_XMFltMin@DirectX@@3UXMVECTORI32@1@B DD 0800000H	; DirectX::g_XMFltMin
	DD	0800000H
	DD	0800000H
	DD	0800000H
CONST	ENDS
;	COMDAT ?g_XMAbsMask@DirectX@@3UXMVECTORI32@1@B
CONST	SEGMENT
?g_XMAbsMask@DirectX@@3UXMVECTORI32@1@B DD 07fffffffH	; DirectX::g_XMAbsMask
	DD	07fffffffH
	DD	07fffffffH
	DD	07fffffffH
CONST	ENDS
;	COMDAT ?g_XMQNaNTest@DirectX@@3UXMVECTORI32@1@B
CONST	SEGMENT
?g_XMQNaNTest@DirectX@@3UXMVECTORI32@1@B DD 07fffffH	; DirectX::g_XMQNaNTest
	DD	07fffffH
	DD	07fffffH
	DD	07fffffH
CONST	ENDS
;	COMDAT ?g_XMQNaN@DirectX@@3UXMVECTORI32@1@B
CONST	SEGMENT
?g_XMQNaN@DirectX@@3UXMVECTORI32@1@B DD 07fc00000H	; DirectX::g_XMQNaN
	DD	07fc00000H
	DD	07fc00000H
	DD	07fc00000H
CONST	ENDS
;	COMDAT ?g_XMInfinity@DirectX@@3UXMVECTORI32@1@B
CONST	SEGMENT
?g_XMInfinity@DirectX@@3UXMVECTORI32@1@B DD 07f800000H	; DirectX::g_XMInfinity
	DD	07f800000H
	DD	07f800000H
	DD	07f800000H
CONST	ENDS
;	COMDAT ?g_XMEpsilon@DirectX@@3UXMVECTORF32@1@B
CONST	SEGMENT
?g_XMEpsilon@DirectX@@3UXMVECTORF32@1@B DD 034000000r ; 1.19209e-07 ; DirectX::g_XMEpsilon
	DD	034000000r			; 1.19209e-07
	DD	034000000r			; 1.19209e-07
	DD	034000000r			; 1.19209e-07
CONST	ENDS
;	COMDAT ?g_XMReciprocalTwoPi@DirectX@@3UXMVECTORF32@1@B
CONST	SEGMENT
?g_XMReciprocalTwoPi@DirectX@@3UXMVECTORF32@1@B DD 03e22f983r ; 0.159155 ; DirectX::g_XMReciprocalTwoPi
	DD	03e22f983r			; 0.159155
	DD	03e22f983r			; 0.159155
	DD	03e22f983r			; 0.159155
CONST	ENDS
;	COMDAT ?g_XMTwoPi@DirectX@@3UXMVECTORF32@1@B
CONST	SEGMENT
?g_XMTwoPi@DirectX@@3UXMVECTORF32@1@B DD 040c90fdbr ; 6.28319 ; DirectX::g_XMTwoPi
	DD	040c90fdbr			; 6.28319
	DD	040c90fdbr			; 6.28319
	DD	040c90fdbr			; 6.28319
CONST	ENDS
;	COMDAT ?g_XMReciprocalPi@DirectX@@3UXMVECTORF32@1@B
CONST	SEGMENT
?g_XMReciprocalPi@DirectX@@3UXMVECTORF32@1@B DD 03ea2f983r ; 0.31831 ; DirectX::g_XMReciprocalPi
	DD	03ea2f983r			; 0.31831
	DD	03ea2f983r			; 0.31831
	DD	03ea2f983r			; 0.31831
CONST	ENDS
;	COMDAT ?g_XMPi@DirectX@@3UXMVECTORF32@1@B
CONST	SEGMENT
?g_XMPi@DirectX@@3UXMVECTORF32@1@B DD 040490fdbr ; 3.14159 ; DirectX::g_XMPi
	DD	040490fdbr			; 3.14159
	DD	040490fdbr			; 3.14159
	DD	040490fdbr			; 3.14159
CONST	ENDS
;	COMDAT ?g_XMHalfPi@DirectX@@3UXMVECTORF32@1@B
CONST	SEGMENT
?g_XMHalfPi@DirectX@@3UXMVECTORF32@1@B DD 03fc90fdbr ; 1.5708 ; DirectX::g_XMHalfPi
	DD	03fc90fdbr			; 1.5708
	DD	03fc90fdbr			; 1.5708
	DD	03fc90fdbr			; 1.5708
CONST	ENDS
;	COMDAT ?g_XMNegativePi@DirectX@@3UXMVECTORF32@1@B
CONST	SEGMENT
?g_XMNegativePi@DirectX@@3UXMVECTORF32@1@B DD 0c0490fdbr ; -3.14159 ; DirectX::g_XMNegativePi
	DD	0c0490fdbr			; -3.14159
	DD	0c0490fdbr			; -3.14159
	DD	0c0490fdbr			; -3.14159
CONST	ENDS
;	COMDAT ?g_XMNegativeTwoPi@DirectX@@3UXMVECTORF32@1@B
CONST	SEGMENT
?g_XMNegativeTwoPi@DirectX@@3UXMVECTORF32@1@B DD 0c0c90fdbr ; -6.28319 ; DirectX::g_XMNegativeTwoPi
	DD	0c0c90fdbr			; -6.28319
	DD	0c0c90fdbr			; -6.28319
	DD	0c0c90fdbr			; -6.28319
CONST	ENDS
;	COMDAT ?g_XMNegativeOneHalf@DirectX@@3UXMVECTORF32@1@B
CONST	SEGMENT
?g_XMNegativeOneHalf@DirectX@@3UXMVECTORF32@1@B DD 0bf000000r ; -0.5 ; DirectX::g_XMNegativeOneHalf
	DD	0bf000000r			; -0.5
	DD	0bf000000r			; -0.5
	DD	0bf000000r			; -0.5
CONST	ENDS
;	COMDAT ?g_XMOneHalf@DirectX@@3UXMVECTORF32@1@B
CONST	SEGMENT
?g_XMOneHalf@DirectX@@3UXMVECTORF32@1@B DD 03f000000r ; 0.5 ; DirectX::g_XMOneHalf
	DD	03f000000r			; 0.5
	DD	03f000000r			; 0.5
	DD	03f000000r			; 0.5
CONST	ENDS
;	COMDAT ?g_XMNegativeOne@DirectX@@3UXMVECTORF32@1@B
CONST	SEGMENT
?g_XMNegativeOne@DirectX@@3UXMVECTORF32@1@B DD 0bf800000r ; -1 ; DirectX::g_XMNegativeOne
	DD	0bf800000r			; -1
	DD	0bf800000r			; -1
	DD	0bf800000r			; -1
CONST	ENDS
;	COMDAT ?g_XMSix@DirectX@@3UXMVECTORF32@1@B
CONST	SEGMENT
?g_XMSix@DirectX@@3UXMVECTORF32@1@B DD 040c00000r ; 6	; DirectX::g_XMSix
	DD	040c00000r			; 6
	DD	040c00000r			; 6
	DD	040c00000r			; 6
CONST	ENDS
;	COMDAT ?g_XMFour@DirectX@@3UXMVECTORF32@1@B
CONST	SEGMENT
?g_XMFour@DirectX@@3UXMVECTORF32@1@B DD 040800000r ; 4	; DirectX::g_XMFour
	DD	040800000r			; 4
	DD	040800000r			; 4
	DD	040800000r			; 4
CONST	ENDS
;	COMDAT ?g_XMTwo@DirectX@@3UXMVECTORF32@1@B
CONST	SEGMENT
?g_XMTwo@DirectX@@3UXMVECTORF32@1@B DD 040000000r ; 2	; DirectX::g_XMTwo
	DD	040000000r			; 2
	DD	040000000r			; 2
	DD	040000000r			; 2
CONST	ENDS
;	COMDAT ?g_XMZero@DirectX@@3UXMVECTORF32@1@B
CONST	SEGMENT
?g_XMZero@DirectX@@3UXMVECTORF32@1@B DD 000000000r ; 0	; DirectX::g_XMZero
	DD	000000000r			; 0
	DD	000000000r			; 0
	DD	000000000r			; 0
CONST	ENDS
;	COMDAT ?g_XMOne3@DirectX@@3UXMVECTORF32@1@B
CONST	SEGMENT
?g_XMOne3@DirectX@@3UXMVECTORF32@1@B DD 03f800000r ; 1	; DirectX::g_XMOne3
	DD	03f800000r			; 1
	DD	03f800000r			; 1
	DD	000000000r			; 0
CONST	ENDS
;	COMDAT ?g_XMOne@DirectX@@3UXMVECTORF32@1@B
CONST	SEGMENT
?g_XMOne@DirectX@@3UXMVECTORF32@1@B DD 03f800000r ; 1	; DirectX::g_XMOne
	DD	03f800000r			; 1
	DD	03f800000r			; 1
	DD	03f800000r			; 1
CONST	ENDS
;	COMDAT ?g_XMMaskW@DirectX@@3UXMVECTORU32@1@B
CONST	SEGMENT
?g_XMMaskW@DirectX@@3UXMVECTORU32@1@B DD 00H		; DirectX::g_XMMaskW
	DD	00H
	DD	00H
	DD	0ffffffffH
CONST	ENDS
;	COMDAT ?g_XMMaskZ@DirectX@@3UXMVECTORU32@1@B
CONST	SEGMENT
?g_XMMaskZ@DirectX@@3UXMVECTORU32@1@B DD 00H		; DirectX::g_XMMaskZ
	DD	00H
	DD	0ffffffffH
	DD	00H
CONST	ENDS
;	COMDAT ?g_XMMaskY@DirectX@@3UXMVECTORU32@1@B
CONST	SEGMENT
?g_XMMaskY@DirectX@@3UXMVECTORU32@1@B DD 00H		; DirectX::g_XMMaskY
	DD	0ffffffffH
	DD	00H
	DD	00H
CONST	ENDS
;	COMDAT ?g_XMMaskX@DirectX@@3UXMVECTORU32@1@B
CONST	SEGMENT
?g_XMMaskX@DirectX@@3UXMVECTORU32@1@B DD 0ffffffffH	; DirectX::g_XMMaskX
	DD	00H
	DD	00H
	DD	00H
CONST	ENDS
;	COMDAT ?g_XMMask3@DirectX@@3UXMVECTORU32@1@B
CONST	SEGMENT
?g_XMMask3@DirectX@@3UXMVECTORU32@1@B DD 0ffffffffH	; DirectX::g_XMMask3
	DD	0ffffffffH
	DD	0ffffffffH
	DD	00H
CONST	ENDS
;	COMDAT ?g_XMNegate3@DirectX@@3UXMVECTORU32@1@B
CONST	SEGMENT
?g_XMNegate3@DirectX@@3UXMVECTORU32@1@B DD 080000000H	; DirectX::g_XMNegate3
	DD	080000000H
	DD	080000000H
	DD	00H
CONST	ENDS
;	COMDAT ?g_XMNegativeZero@DirectX@@3UXMVECTORU32@1@B
CONST	SEGMENT
?g_XMNegativeZero@DirectX@@3UXMVECTORU32@1@B DD 080000000H ; DirectX::g_XMNegativeZero
	DD	080000000H
	DD	080000000H
	DD	080000000H
CONST	ENDS
;	COMDAT ?g_XMNegIdentityR3@DirectX@@3UXMVECTORF32@1@B
CONST	SEGMENT
?g_XMNegIdentityR3@DirectX@@3UXMVECTORF32@1@B DD 000000000r ; 0 ; DirectX::g_XMNegIdentityR3
	DD	000000000r			; 0
	DD	000000000r			; 0
	DD	0bf800000r			; -1
CONST	ENDS
;	COMDAT ?g_XMNegIdentityR2@DirectX@@3UXMVECTORF32@1@B
CONST	SEGMENT
?g_XMNegIdentityR2@DirectX@@3UXMVECTORF32@1@B DD 000000000r ; 0 ; DirectX::g_XMNegIdentityR2
	DD	000000000r			; 0
	DD	0bf800000r			; -1
	DD	000000000r			; 0
CONST	ENDS
;	COMDAT ?g_XMNegIdentityR1@DirectX@@3UXMVECTORF32@1@B
CONST	SEGMENT
?g_XMNegIdentityR1@DirectX@@3UXMVECTORF32@1@B DD 000000000r ; 0 ; DirectX::g_XMNegIdentityR1
	DD	0bf800000r			; -1
	DD	000000000r			; 0
	DD	000000000r			; 0
CONST	ENDS
;	COMDAT ?g_XMNegIdentityR0@DirectX@@3UXMVECTORF32@1@B
CONST	SEGMENT
?g_XMNegIdentityR0@DirectX@@3UXMVECTORF32@1@B DD 0bf800000r ; -1 ; DirectX::g_XMNegIdentityR0
	DD	000000000r			; 0
	DD	000000000r			; 0
	DD	000000000r			; 0
CONST	ENDS
;	COMDAT ?g_XMIdentityR3@DirectX@@3UXMVECTORF32@1@B
CONST	SEGMENT
?g_XMIdentityR3@DirectX@@3UXMVECTORF32@1@B DD 000000000r ; 0 ; DirectX::g_XMIdentityR3
	DD	000000000r			; 0
	DD	000000000r			; 0
	DD	03f800000r			; 1
CONST	ENDS
;	COMDAT ?g_XMIdentityR2@DirectX@@3UXMVECTORF32@1@B
CONST	SEGMENT
?g_XMIdentityR2@DirectX@@3UXMVECTORF32@1@B DD 000000000r ; 0 ; DirectX::g_XMIdentityR2
	DD	000000000r			; 0
	DD	03f800000r			; 1
	DD	000000000r			; 0
CONST	ENDS
;	COMDAT ?g_XMIdentityR1@DirectX@@3UXMVECTORF32@1@B
CONST	SEGMENT
?g_XMIdentityR1@DirectX@@3UXMVECTORF32@1@B DD 000000000r ; 0 ; DirectX::g_XMIdentityR1
	DD	03f800000r			; 1
	DD	000000000r			; 0
	DD	000000000r			; 0
CONST	ENDS
;	COMDAT ?g_XMIdentityR0@DirectX@@3UXMVECTORF32@1@B
CONST	SEGMENT
?g_XMIdentityR0@DirectX@@3UXMVECTORF32@1@B DD 03f800000r ; 1 ; DirectX::g_XMIdentityR0
	DD	000000000r			; 0
	DD	000000000r			; 0
	DD	000000000r			; 0
CONST	ENDS
;	COMDAT ?g_XMPiConstants0@DirectX@@3UXMVECTORF32@1@B
CONST	SEGMENT
?g_XMPiConstants0@DirectX@@3UXMVECTORF32@1@B DD 040490fdbr ; 3.14159 ; DirectX::g_XMPiConstants0
	DD	040c90fdbr			; 6.28319
	DD	03ea2f983r			; 0.31831
	DD	03e22f983r			; 0.159155
CONST	ENDS
;	COMDAT ?g_XMArcEstCoefficients@DirectX@@3UXMVECTORF32@1@B
CONST	SEGMENT
?g_XMArcEstCoefficients@DirectX@@3UXMVECTORF32@1@B DD 03fc90da4r ; 1.57073 ; DirectX::g_XMArcEstCoefficients
	DD	0be593484r			; -0.212114
	DD	03d981627r			; 0.074261
	DD	0bc996e30r			; -0.0187293
CONST	ENDS
;	COMDAT ?g_XMTanEstCoefficients@DirectX@@3UXMVECTORF32@1@B
CONST	SEGMENT
?g_XMTanEstCoefficients@DirectX@@3UXMVECTORF32@1@B DD 0401ef9dbr ; 2.484 ; DirectX::g_XMTanEstCoefficients
	DD	0be482f23r			; -0.195492
	DD	0401de9e6r			; 2.4674
	DD	03ea2f983r			; 0.31831
CONST	ENDS
;	COMDAT ?g_XMATanEstCoefficients1@DirectX@@3UXMVECTORF32@1@B
CONST	SEGMENT
?g_XMATanEstCoefficients1@DirectX@@3UXMVECTORF32@1@B DD 0bea91d04r ; -0.330299 ; DirectX::g_XMATanEstCoefficients1
	DD	03e3876e2r			; 0.180141
	DD	0bdae5a36r			; -0.085133
	DD	03caaae5fr			; 0.0208351
CONST	ENDS
;	COMDAT ?g_XMATanEstCoefficients0@DirectX@@3UXMVECTORF32@1@B
CONST	SEGMENT
?g_XMATanEstCoefficients0@DirectX@@3UXMVECTORF32@1@B DD 03f7ff738r ; 0.999866 ; DirectX::g_XMATanEstCoefficients0
	DD	03f7ff738r			; 0.999866
	DD	03f7ff738r			; 0.999866
	DD	03f7ff738r			; 0.999866
CONST	ENDS
;	COMDAT ?g_XMATanCoefficients1@DirectX@@3UXMVECTORF32@1@B
CONST	SEGMENT
?g_XMATanCoefficients1@DirectX@@3UXMVECTORF32@1@B DD 0bd9a3174r ; -0.0752896 ; DirectX::g_XMATanCoefficients1
	DD	03d2fc1fer			; 0.0429096
	DD	0bc846e02r			; -0.0161657
	DD	03b3bd74ar			; 0.00286623
CONST	ENDS
;	COMDAT ?g_XMATanCoefficients0@DirectX@@3UXMVECTORF32@1@B
CONST	SEGMENT
?g_XMATanCoefficients0@DirectX@@3UXMVECTORF32@1@B DD 0beaaaa6cr ; -0.333331 ; DirectX::g_XMATanCoefficients0
	DD	03e4cbbe5r			; 0.199936
	DD	0be117fc7r			; -0.142089
	DD	03dda3d83r			; 0.106563
CONST	ENDS
;	COMDAT ?g_XMArcCoefficients1@DirectX@@3UXMVECTORF32@1@B
CONST	SEGMENT
?g_XMArcCoefficients1@DirectX@@3UXMVECTORF32@1@B DD 03cfd10f8r ; 0.0308919 ; DirectX::g_XMArcCoefficients1
	DD	0bc8bfc66r			; -0.0170881
	DD	03bda90c5r			; 0.00667009
	DD	0baa57a2cr			; -0.00126249
CONST	ENDS
;	COMDAT ?g_XMArcCoefficients0@DirectX@@3UXMVECTORF32@1@B
CONST	SEGMENT
?g_XMArcCoefficients0@DirectX@@3UXMVECTORF32@1@B DD 03fc90fdar ; 1.5708 ; DirectX::g_XMArcCoefficients0
	DD	0be5bbfcar			; -0.214599
	DD	03db63a9er			; 0.088979
	DD	0bd4d8392r			; -0.0501743
CONST	ENDS
;	COMDAT ?g_XMTanCoefficients2@DirectX@@3UXMVECTORF32@1@B
CONST	SEGMENT
?g_XMTanCoefficients2@DirectX@@3UXMVECTORF32@1@B DD 03a1aac12r ; 0.000590027 ; DirectX::g_XMTanCoefficients2
	DD	0397abeb9r			; 0.000239129
	DD	038cb3f0cr			; 9.69154e-05
	DD	03824bec9r			; 3.92783e-05
CONST	ENDS
;	COMDAT ?g_XMTanCoefficients1@DirectX@@3UXMVECTORF32@1@B
CONST	SEGMENT
?g_XMTanCoefficients1@DirectX@@3UXMVECTORF32@1@B DD 03cb327a4r ; 0.0218695 ; DirectX::g_XMTanCoefficients1
	DD	03c11371br			; 0.00886324
	DD	03b6b69e9r			; 0.00359213
	DD	03abed1b3r			; 0.00145583
CONST	ENDS
;	COMDAT ?g_XMTanCoefficients0@DirectX@@3UXMVECTORF32@1@B
CONST	SEGMENT
?g_XMTanCoefficients0@DirectX@@3UXMVECTORF32@1@B DD 03f800000r ; 1 ; DirectX::g_XMTanCoefficients0
	DD	03eaaaaabr			; 0.333333
	DD	03e088889r			; 0.133333
	DD	03d5d0dd1r			; 0.0539683
CONST	ENDS
;	COMDAT ?g_XMCosCoefficients1@DirectX@@3UXMVECTORF32@1@B
CONST	SEGMENT
?g_XMCosCoefficients1@DirectX@@3UXMVECTORF32@1@B DD 0b48bdd11r ; -2.60516e-07 ; DirectX::g_XMCosCoefficients1
	DD	0befff67er			; -0.499927
	DD	03d29f587r			; 0.0414939
	DD	0baa69fdbr			; -0.00127124
CONST	ENDS
;	COMDAT ?g_XMCosCoefficients0@DirectX@@3UXMVECTORF32@1@B
CONST	SEGMENT
?g_XMCosCoefficients0@DirectX@@3UXMVECTORF32@1@B DD 0bf000000r ; -0.5 ; DirectX::g_XMCosCoefficients0
	DD	03d2aaaa3r			; 0.0416666
	DD	0bab609aar			; -0.00138884
	DD	037cfb4c2r			; 2.47605e-05
CONST	ENDS
;	COMDAT ?g_XMSinCoefficients1@DirectX@@3UXMVECTORF32@1@B
CONST	SEGMENT
?g_XMSinCoefficients1@DirectX@@3UXMVECTORF32@1@B DD 0b2cd365br ; -2.38899e-08 ; DirectX::g_XMSinCoefficients1
	DD	0be2aa888r			; -0.166659
	DD	03c08373cr			; 0.00831395
	DD	0b9423ec8r			; -0.000185247
CONST	ENDS
;	COMDAT ?g_XMSinCoefficients0@DirectX@@3UXMVECTORF32@1@B
CONST	SEGMENT
?g_XMSinCoefficients0@DirectX@@3UXMVECTORF32@1@B DD 0be2aaaabr ; -0.166667 ; DirectX::g_XMSinCoefficients0
	DD	03c088886r			; 0.00833333
	DD	0b9500bf1r			; -0.000198409
	DD	03638b88er			; 2.75256e-06
CONST	ENDS
;	COMDAT ?g_UnitPlaneEpsilon@Internal@DirectX@@3UXMVECTORF32@2@B
CONST	SEGMENT
?g_UnitPlaneEpsilon@Internal@DirectX@@3UXMVECTORF32@2@B DD 038d1b717r ; 0.0001 ; DirectX::Internal::g_UnitPlaneEpsilon
	DD	038d1b717r			; 0.0001
	DD	038d1b717r			; 0.0001
	DD	038d1b717r			; 0.0001
CONST	ENDS
;	COMDAT ?g_UnitQuaternionEpsilon@Internal@DirectX@@3UXMVECTORF32@2@B
CONST	SEGMENT
?g_UnitQuaternionEpsilon@Internal@DirectX@@3UXMVECTORF32@2@B DD 038d1b717r ; 0.0001 ; DirectX::Internal::g_UnitQuaternionEpsilon
	DD	038d1b717r			; 0.0001
	DD	038d1b717r			; 0.0001
	DD	038d1b717r			; 0.0001
CONST	ENDS
;	COMDAT ?g_UnitVectorEpsilon@Internal@DirectX@@3UXMVECTORF32@2@B
CONST	SEGMENT
?g_UnitVectorEpsilon@Internal@DirectX@@3UXMVECTORF32@2@B DD 038d1b717r ; 0.0001 ; DirectX::Internal::g_UnitVectorEpsilon
	DD	038d1b717r			; 0.0001
	DD	038d1b717r			; 0.0001
	DD	038d1b717r			; 0.0001
CONST	ENDS
;	COMDAT ?YellowGreen@Colors@DirectX@@3UXMVECTORF32@2@B
CONST	SEGMENT
?YellowGreen@Colors@DirectX@@3UXMVECTORF32@2@B DD 03f1a9a9br ; 0.603922 ; DirectX::Colors::YellowGreen
	DD	03f4dcdcfr			; 0.803922
	DD	03e48c8car			; 0.196078
	DD	03f800000r			; 1
CONST	ENDS
;	COMDAT ?Yellow@Colors@DirectX@@3UXMVECTORF32@2@B
CONST	SEGMENT
?Yellow@Colors@DirectX@@3UXMVECTORF32@2@B DD 03f800000r ; 1 ; DirectX::Colors::Yellow
	DD	03f800000r			; 1
	DD	000000000r			; 0
	DD	03f800000r			; 1
CONST	ENDS
;	COMDAT ?WhiteSmoke@Colors@DirectX@@3UXMVECTORF32@2@B
CONST	SEGMENT
?WhiteSmoke@Colors@DirectX@@3UXMVECTORF32@2@B DD 03f75f5f7r ; 0.960784 ; DirectX::Colors::WhiteSmoke
	DD	03f75f5f7r			; 0.960784
	DD	03f75f5f7r			; 0.960784
	DD	03f800000r			; 1
CONST	ENDS
;	COMDAT ?White@Colors@DirectX@@3UXMVECTORF32@2@B
CONST	SEGMENT
?White@Colors@DirectX@@3UXMVECTORF32@2@B DD 03f800000r ; 1 ; DirectX::Colors::White
	DD	03f800000r			; 1
	DD	03f800000r			; 1
	DD	03f800000r			; 1
CONST	ENDS
;	COMDAT ?Wheat@Colors@DirectX@@3UXMVECTORF32@2@B
CONST	SEGMENT
?Wheat@Colors@DirectX@@3UXMVECTORF32@2@B DD 03f75f5f7r ; 0.960784 ; DirectX::Colors::Wheat
	DD	03f5edee0r			; 0.870588
	DD	03f33b3b4r			; 0.701961
	DD	03f800000r			; 1
CONST	ENDS
;	COMDAT ?Violet@Colors@DirectX@@3UXMVECTORF32@2@B
CONST	SEGMENT
?Violet@Colors@DirectX@@3UXMVECTORF32@2@B DD 03f6eeef0r ; 0.933333 ; DirectX::Colors::Violet
	DD	03f028283r			; 0.509804
	DD	03f6eeef0r			; 0.933333
	DD	03f800000r			; 1
CONST	ENDS
;	COMDAT ?Turquoise@Colors@DirectX@@3UXMVECTORF32@2@B
CONST	SEGMENT
?Turquoise@Colors@DirectX@@3UXMVECTORF32@2@B DD 03e808081r ; 0.25098 ; DirectX::Colors::Turquoise
	DD	03f60e0e2r			; 0.878431
	DD	03f50d0d2r			; 0.815686
	DD	03f800000r			; 1
CONST	ENDS
;	COMDAT ?Transparent@Colors@DirectX@@3UXMVECTORF32@2@B
CONST	SEGMENT
?Transparent@Colors@DirectX@@3UXMVECTORF32@2@B DD 000000000r ; 0 ; DirectX::Colors::Transparent
	DD	000000000r			; 0
	DD	000000000r			; 0
	DD	000000000r			; 0
CONST	ENDS
;	COMDAT ?Tomato@Colors@DirectX@@3UXMVECTORF32@2@B
CONST	SEGMENT
?Tomato@Colors@DirectX@@3UXMVECTORF32@2@B DD 03f800000r ; 1 ; DirectX::Colors::Tomato
	DD	03ec6c6c8r			; 0.388235
	DD	03e8e8e8fr			; 0.278431
	DD	03f800000r			; 1
CONST	ENDS
;	COMDAT ?Thistle@Colors@DirectX@@3UXMVECTORF32@2@B
CONST	SEGMENT
?Thistle@Colors@DirectX@@3UXMVECTORF32@2@B DD 03f58d8dar ; 0.847059 ; DirectX::Colors::Thistle
	DD	03f3fbfc0r			; 0.74902
	DD	03f58d8dar			; 0.847059
	DD	03f800000r			; 1
CONST	ENDS
;	COMDAT ?Teal@Colors@DirectX@@3UXMVECTORF32@2@B
CONST	SEGMENT
?Teal@Colors@DirectX@@3UXMVECTORF32@2@B DD 000000000r ; 0 ; DirectX::Colors::Teal
	DD	03f008081r			; 0.501961
	DD	03f008081r			; 0.501961
	DD	03f800000r			; 1
CONST	ENDS
;	COMDAT ?Tan@Colors@DirectX@@3UXMVECTORF32@2@B
CONST	SEGMENT
?Tan@Colors@DirectX@@3UXMVECTORF32@2@B DD 03f52d2d4r ; 0.823529 ; DirectX::Colors::Tan
	DD	03f34b4b5r			; 0.705882
	DD	03f0c8c8dr			; 0.54902
	DD	03f800000r			; 1
CONST	ENDS
;	COMDAT ?SteelBlue@Colors@DirectX@@3UXMVECTORF32@2@B
CONST	SEGMENT
?SteelBlue@Colors@DirectX@@3UXMVECTORF32@2@B DD 03e8c8c8dr ; 0.27451 ; DirectX::Colors::SteelBlue
	DD	03f028283r			; 0.509804
	DD	03f34b4b5r			; 0.705882
	DD	03f800000r			; 1
CONST	ENDS
;	COMDAT ?SpringGreen@Colors@DirectX@@3UXMVECTORF32@2@B
CONST	SEGMENT
?SpringGreen@Colors@DirectX@@3UXMVECTORF32@2@B DD 000000000r ; 0 ; DirectX::Colors::SpringGreen
	DD	03f800000r			; 1
	DD	03efeff00r			; 0.498039
	DD	03f800000r			; 1
CONST	ENDS
;	COMDAT ?Snow@Colors@DirectX@@3UXMVECTORF32@2@B
CONST	SEGMENT
?Snow@Colors@DirectX@@3UXMVECTORF32@2@B DD 03f800000r ; 1 ; DirectX::Colors::Snow
	DD	03f7afafcr			; 0.980392
	DD	03f7afafcr			; 0.980392
	DD	03f800000r			; 1
CONST	ENDS
;	COMDAT ?g_FltMax@DirectX@@3UXMVECTORF32@1@B
CONST	SEGMENT
?g_FltMax@DirectX@@3UXMVECTORF32@1@B DD 07f7fffffr ; 3.40282e+38 ; DirectX::g_FltMax
	DD	07f7fffffr			; 3.40282e+38
	DD	07f7fffffr			; 3.40282e+38
	DD	07f7fffffr			; 3.40282e+38
CONST	ENDS
;	COMDAT ?SlateGray@Colors@DirectX@@3UXMVECTORF32@2@B
CONST	SEGMENT
?SlateGray@Colors@DirectX@@3UXMVECTORF32@2@B DD 03ee0e0e2r ; 0.439216 ; DirectX::Colors::SlateGray
	DD	03f008081r			; 0.501961
	DD	03f109091r			; 0.564706
	DD	03f800000r			; 1
CONST	ENDS
;	COMDAT ?g_FltMin@DirectX@@3UXMVECTORF32@1@B
CONST	SEGMENT
?g_FltMin@DirectX@@3UXMVECTORF32@1@B DD 0ff7fffffr ; -3.40282e+38 ; DirectX::g_FltMin
	DD	0ff7fffffr			; -3.40282e+38
	DD	0ff7fffffr			; -3.40282e+38
	DD	0ff7fffffr			; -3.40282e+38
CONST	ENDS
;	COMDAT ?SlateBlue@Colors@DirectX@@3UXMVECTORF32@2@B
CONST	SEGMENT
?SlateBlue@Colors@DirectX@@3UXMVECTORF32@2@B DD 03ed4d4d6r ; 0.415686 ; DirectX::Colors::SlateBlue
	DD	03eb4b4b5r			; 0.352941
	DD	03f4dcdcfr			; 0.803922
	DD	03f800000r			; 1
CONST	ENDS
;	COMDAT ?g_RayNegEpsilon@DirectX@@3UXMVECTORF32@1@B
CONST	SEGMENT
?g_RayNegEpsilon@DirectX@@3UXMVECTORF32@1@B DD 09e3ce508r ; -1e-20 ; DirectX::g_RayNegEpsilon
	DD	09e3ce508r			; -1e-20
	DD	09e3ce508r			; -1e-20
	DD	09e3ce508r			; -1e-20
CONST	ENDS
;	COMDAT ?SkyBlue@Colors@DirectX@@3UXMVECTORF32@2@B
CONST	SEGMENT
?SkyBlue@Colors@DirectX@@3UXMVECTORF32@2@B DD 03f078788r ; 0.529412 ; DirectX::Colors::SkyBlue
	DD	03f4eced0r			; 0.807843
	DD	03f6bebedr			; 0.921569
	DD	03f800000r			; 1
CONST	ENDS
;	COMDAT ?g_RayEpsilon@DirectX@@3UXMVECTORF32@1@B
CONST	SEGMENT
?g_RayEpsilon@DirectX@@3UXMVECTORF32@1@B DD 01e3ce508r ; 1e-20 ; DirectX::g_RayEpsilon
	DD	01e3ce508r			; 1e-20
	DD	01e3ce508r			; 1e-20
	DD	01e3ce508r			; 1e-20
CONST	ENDS
;	COMDAT ?Silver@Colors@DirectX@@3UXMVECTORF32@2@B
CONST	SEGMENT
?Silver@Colors@DirectX@@3UXMVECTORF32@2@B DD 03f40c0c2r ; 0.752941 ; DirectX::Colors::Silver
	DD	03f40c0c2r			; 0.752941
	DD	03f40c0c2r			; 0.752941
	DD	03f800000r			; 1
CONST	ENDS
;	COMDAT ?g_BoxOffset@DirectX@@3QBUXMVECTORF32@1@B
CONST	SEGMENT
?g_BoxOffset@DirectX@@3QBUXMVECTORF32@1@B DD 0bf800000r ; -1 ; DirectX::g_BoxOffset
	DD	0bf800000r			; -1
	DD	03f800000r			; 1
	DD	000000000r			; 0
	DD	03f800000r			; 1
	DD	0bf800000r			; -1
	DD	03f800000r			; 1
	DD	000000000r			; 0
	DD	03f800000r			; 1
	DD	03f800000r			; 1
	DD	03f800000r			; 1
	DD	000000000r			; 0
	DD	0bf800000r			; -1
	DD	03f800000r			; 1
	DD	03f800000r			; 1
	DD	000000000r			; 0
	DD	0bf800000r			; -1
	DD	0bf800000r			; -1
	DD	0bf800000r			; -1
	DD	000000000r			; 0
	DD	03f800000r			; 1
	DD	0bf800000r			; -1
	DD	0bf800000r			; -1
	DD	000000000r			; 0
	DD	03f800000r			; 1
	DD	03f800000r			; 1
	DD	0bf800000r			; -1
	DD	000000000r			; 0
	DD	0bf800000r			; -1
	DD	03f800000r			; 1
	DD	0bf800000r			; -1
	DD	000000000r			; 0
CONST	ENDS
;	COMDAT ?Sienna@Colors@DirectX@@3UXMVECTORF32@2@B
CONST	SEGMENT
?Sienna@Colors@DirectX@@3UXMVECTORF32@2@B DD 03f20a0a1r ; 0.627451 ; DirectX::Colors::Sienna
	DD	03ea4a4a5r			; 0.321569
	DD	03e34b4b5r			; 0.176471
	DD	03f800000r			; 1
CONST	ENDS
;	COMDAT ?SeaShell@Colors@DirectX@@3UXMVECTORF32@2@B
CONST	SEGMENT
?SeaShell@Colors@DirectX@@3UXMVECTORF32@2@B DD 03f800000r ; 1 ; DirectX::Colors::SeaShell
	DD	03f75f5f7r			; 0.960784
	DD	03f6eeef0r			; 0.933333
	DD	03f800000r			; 1
CONST	ENDS
;	COMDAT ?SeaGreen@Colors@DirectX@@3UXMVECTORF32@2@B
CONST	SEGMENT
?SeaGreen@Colors@DirectX@@3UXMVECTORF32@2@B DD 03e38b8b9r ; 0.180392 ; DirectX::Colors::SeaGreen
	DD	03f0b8b8cr			; 0.545098
	DD	03eaeaeafr			; 0.341176
	DD	03f800000r			; 1
CONST	ENDS
;	COMDAT ?SandyBrown@Colors@DirectX@@3UXMVECTORF32@2@B
CONST	SEGMENT
?SandyBrown@Colors@DirectX@@3UXMVECTORF32@2@B DD 03f74f4f6r ; 0.956863 ; DirectX::Colors::SandyBrown
	DD	03f24a4a5r			; 0.643137
	DD	03ec0c0c2r			; 0.376471
	DD	03f800000r			; 1
CONST	ENDS
;	COMDAT ?Salmon@Colors@DirectX@@3UXMVECTORF32@2@B
CONST	SEGMENT
?Salmon@Colors@DirectX@@3UXMVECTORF32@2@B DD 03f7afafcr ; 0.980392 ; DirectX::Colors::Salmon
	DD	03f008081r			; 0.501961
	DD	03ee4e4e6r			; 0.447059
	DD	03f800000r			; 1
CONST	ENDS
;	COMDAT ?SaddleBrown@Colors@DirectX@@3UXMVECTORF32@2@B
CONST	SEGMENT
?SaddleBrown@Colors@DirectX@@3UXMVECTORF32@2@B DD 03f0b8b8cr ; 0.545098 ; DirectX::Colors::SaddleBrown
	DD	03e8a8a8br			; 0.270588
	DD	03d989899r			; 0.0745098
	DD	03f800000r			; 1
CONST	ENDS
;	COMDAT ?RoyalBlue@Colors@DirectX@@3UXMVECTORF32@2@B
CONST	SEGMENT
?RoyalBlue@Colors@DirectX@@3UXMVECTORF32@2@B DD 03e828283r ; 0.254902 ; DirectX::Colors::RoyalBlue
	DD	03ed2d2d4r			; 0.411765
	DD	03f61e1e3r			; 0.882353
	DD	03f800000r			; 1
CONST	ENDS
;	COMDAT ?RosyBrown@Colors@DirectX@@3UXMVECTORF32@2@B
CONST	SEGMENT
?RosyBrown@Colors@DirectX@@3UXMVECTORF32@2@B DD 03f3cbcbdr ; 0.737255 ; DirectX::Colors::RosyBrown
	DD	03f0f8f90r			; 0.560784
	DD	03f0f8f90r			; 0.560784
	DD	03f800000r			; 1
CONST	ENDS
;	COMDAT ?Red@Colors@DirectX@@3UXMVECTORF32@2@B
CONST	SEGMENT
?Red@Colors@DirectX@@3UXMVECTORF32@2@B DD 03f800000r ; 1 ; DirectX::Colors::Red
	DD	000000000r			; 0
	DD	000000000r			; 0
	DD	03f800000r			; 1
CONST	ENDS
;	COMDAT ?Purple@Colors@DirectX@@3UXMVECTORF32@2@B
CONST	SEGMENT
?Purple@Colors@DirectX@@3UXMVECTORF32@2@B DD 03f008081r ; 0.501961 ; DirectX::Colors::Purple
	DD	000000000r			; 0
	DD	03f008081r			; 0.501961
	DD	03f800000r			; 1
CONST	ENDS
;	COMDAT ?PowderBlue@Colors@DirectX@@3UXMVECTORF32@2@B
CONST	SEGMENT
?PowderBlue@Colors@DirectX@@3UXMVECTORF32@2@B DD 03f30b0b1r ; 0.690196 ; DirectX::Colors::PowderBlue
	DD	03f60e0e2r			; 0.878431
	DD	03f66e6e8r			; 0.901961
	DD	03f800000r			; 1
CONST	ENDS
;	COMDAT ?Plum@Colors@DirectX@@3UXMVECTORF32@2@B
CONST	SEGMENT
?Plum@Colors@DirectX@@3UXMVECTORF32@2@B DD 03f5ddddfr ; 0.866667 ; DirectX::Colors::Plum
	DD	03f20a0a1r			; 0.627451
	DD	03f5ddddfr			; 0.866667
	DD	03f800000r			; 1
CONST	ENDS
;	COMDAT ?Pink@Colors@DirectX@@3UXMVECTORF32@2@B
CONST	SEGMENT
?Pink@Colors@DirectX@@3UXMVECTORF32@2@B DD 03f800000r ; 1 ; DirectX::Colors::Pink
	DD	03f40c0c2r			; 0.752941
	DD	03f4bcbcdr			; 0.796079
	DD	03f800000r			; 1
CONST	ENDS
;	COMDAT ?Peru@Colors@DirectX@@3UXMVECTORF32@2@B
CONST	SEGMENT
?Peru@Colors@DirectX@@3UXMVECTORF32@2@B DD 03f4dcdcfr ; 0.803922 ; DirectX::Colors::Peru
	DD	03f058586r			; 0.521569
	DD	03e7cfcfer			; 0.247059
	DD	03f800000r			; 1
CONST	ENDS
;	COMDAT ?PeachPuff@Colors@DirectX@@3UXMVECTORF32@2@B
CONST	SEGMENT
?PeachPuff@Colors@DirectX@@3UXMVECTORF32@2@B DD 03f800000r ; 1 ; DirectX::Colors::PeachPuff
	DD	03f5adadcr			; 0.854902
	DD	03f39b9bar			; 0.72549
	DD	03f800000r			; 1
CONST	ENDS
;	COMDAT ?PapayaWhip@Colors@DirectX@@3UXMVECTORF32@2@B
CONST	SEGMENT
?PapayaWhip@Colors@DirectX@@3UXMVECTORF32@2@B DD 03f800000r ; 1 ; DirectX::Colors::PapayaWhip
	DD	03f6feff1r			; 0.937255
	DD	03f55d5d7r			; 0.835294
	DD	03f800000r			; 1
CONST	ENDS
;	COMDAT ?PaleVioletRed@Colors@DirectX@@3UXMVECTORF32@2@B
CONST	SEGMENT
?PaleVioletRed@Colors@DirectX@@3UXMVECTORF32@2@B DD 03f5bdbddr ; 0.858824 ; DirectX::Colors::PaleVioletRed
	DD	03ee0e0e2r			; 0.439216
	DD	03f139394r			; 0.576471
	DD	03f800000r			; 1
CONST	ENDS
;	COMDAT ?PaleTurquoise@Colors@DirectX@@3UXMVECTORF32@2@B
CONST	SEGMENT
?PaleTurquoise@Colors@DirectX@@3UXMVECTORF32@2@B DD 03f2fafb0r ; 0.686275 ; DirectX::Colors::PaleTurquoise
	DD	03f6eeef0r			; 0.933333
	DD	03f6eeef0r			; 0.933333
	DD	03f800000r			; 1
CONST	ENDS
;	COMDAT ?PaleGreen@Colors@DirectX@@3UXMVECTORF32@2@B
CONST	SEGMENT
?PaleGreen@Colors@DirectX@@3UXMVECTORF32@2@B DD 03f189899r ; 0.596078 ; DirectX::Colors::PaleGreen
	DD	03f7bfbfdr			; 0.984314
	DD	03f189899r			; 0.596078
	DD	03f800000r			; 1
CONST	ENDS
;	COMDAT ?PaleGoldenrod@Colors@DirectX@@3UXMVECTORF32@2@B
CONST	SEGMENT
?PaleGoldenrod@Colors@DirectX@@3UXMVECTORF32@2@B DD 03f6eeef0r ; 0.933333 ; DirectX::Colors::PaleGoldenrod
	DD	03f68e8ear			; 0.909804
	DD	03f2aaaabr			; 0.666667
	DD	03f800000r			; 1
CONST	ENDS
;	COMDAT ?Orchid@Colors@DirectX@@3UXMVECTORF32@2@B
CONST	SEGMENT
?Orchid@Colors@DirectX@@3UXMVECTORF32@2@B DD 03f5adadcr ; 0.854902 ; DirectX::Colors::Orchid
	DD	03ee0e0e2r			; 0.439216
	DD	03f56d6d8r			; 0.839216
	DD	03f800000r			; 1
CONST	ENDS
;	COMDAT ?OrangeRed@Colors@DirectX@@3UXMVECTORF32@2@B
CONST	SEGMENT
?OrangeRed@Colors@DirectX@@3UXMVECTORF32@2@B DD 03f800000r ; 1 ; DirectX::Colors::OrangeRed
	DD	03e8a8a8br			; 0.270588
	DD	000000000r			; 0
	DD	03f800000r			; 1
CONST	ENDS
;	COMDAT ?Orange@Colors@DirectX@@3UXMVECTORF32@2@B
CONST	SEGMENT
?Orange@Colors@DirectX@@3UXMVECTORF32@2@B DD 03f800000r ; 1 ; DirectX::Colors::Orange
	DD	03f25a5a6r			; 0.647059
	DD	000000000r			; 0
	DD	03f800000r			; 1
CONST	ENDS
;	COMDAT ?OliveDrab@Colors@DirectX@@3UXMVECTORF32@2@B
CONST	SEGMENT
?OliveDrab@Colors@DirectX@@3UXMVECTORF32@2@B DD 03ed6d6d8r ; 0.419608 ; DirectX::Colors::OliveDrab
	DD	03f0e8e8fr			; 0.556863
	DD	03e0c8c8dr			; 0.137255
	DD	03f800000r			; 1
CONST	ENDS
;	COMDAT ?Olive@Colors@DirectX@@3UXMVECTORF32@2@B
CONST	SEGMENT
?Olive@Colors@DirectX@@3UXMVECTORF32@2@B DD 03f008081r ; 0.501961 ; DirectX::Colors::Olive
	DD	03f008081r			; 0.501961
	DD	000000000r			; 0
	DD	03f800000r			; 1
CONST	ENDS
;	COMDAT ?OldLace@Colors@DirectX@@3UXMVECTORF32@2@B
CONST	SEGMENT
?OldLace@Colors@DirectX@@3UXMVECTORF32@2@B DD 03f7dfdffr ; 0.992157 ; DirectX::Colors::OldLace
	DD	03f75f5f7r			; 0.960784
	DD	03f66e6e8r			; 0.901961
	DD	03f800000r			; 1
CONST	ENDS
;	COMDAT ?Navy@Colors@DirectX@@3UXMVECTORF32@2@B
CONST	SEGMENT
?Navy@Colors@DirectX@@3UXMVECTORF32@2@B DD 000000000r ; 0 ; DirectX::Colors::Navy
	DD	000000000r			; 0
	DD	03f008081r			; 0.501961
	DD	03f800000r			; 1
CONST	ENDS
;	COMDAT ?NavajoWhite@Colors@DirectX@@3UXMVECTORF32@2@B
CONST	SEGMENT
?NavajoWhite@Colors@DirectX@@3UXMVECTORF32@2@B DD 03f800000r ; 1 ; DirectX::Colors::NavajoWhite
	DD	03f5edee0r			; 0.870588
	DD	03f2dadaer			; 0.678431
	DD	03f800000r			; 1
CONST	ENDS
;	COMDAT ?Moccasin@Colors@DirectX@@3UXMVECTORF32@2@B
CONST	SEGMENT
?Moccasin@Colors@DirectX@@3UXMVECTORF32@2@B DD 03f800000r ; 1 ; DirectX::Colors::Moccasin
	DD	03f64e4e6r			; 0.894118
	DD	03f35b5b6r			; 0.709804
	DD	03f800000r			; 1
CONST	ENDS
;	COMDAT ?MistyRose@Colors@DirectX@@3UXMVECTORF32@2@B
CONST	SEGMENT
?MistyRose@Colors@DirectX@@3UXMVECTORF32@2@B DD 03f800000r ; 1 ; DirectX::Colors::MistyRose
	DD	03f64e4e6r			; 0.894118
	DD	03f61e1e3r			; 0.882353
	DD	03f800000r			; 1
CONST	ENDS
;	COMDAT ?MintCream@Colors@DirectX@@3UXMVECTORF32@2@B
CONST	SEGMENT
?MintCream@Colors@DirectX@@3UXMVECTORF32@2@B DD 03f75f5f7r ; 0.960784 ; DirectX::Colors::MintCream
	DD	03f800000r			; 1
	DD	03f7afafcr			; 0.980392
	DD	03f800000r			; 1
CONST	ENDS
;	COMDAT ?MidnightBlue@Colors@DirectX@@3UXMVECTORF32@2@B
CONST	SEGMENT
?MidnightBlue@Colors@DirectX@@3UXMVECTORF32@2@B DD 03dc8c8car ; 0.0980392 ; DirectX::Colors::MidnightBlue
	DD	03dc8c8car			; 0.0980392
	DD	03ee0e0e2r			; 0.439216
	DD	03f800000r			; 1
CONST	ENDS
;	COMDAT ?MediumVioletRed@Colors@DirectX@@3UXMVECTORF32@2@B
CONST	SEGMENT
?MediumVioletRed@Colors@DirectX@@3UXMVECTORF32@2@B DD 03f47c7c9r ; 0.780392 ; DirectX::Colors::MediumVioletRed
	DD	03da8a8a9r			; 0.0823529
	DD	03f058586r			; 0.521569
	DD	03f800000r			; 1
CONST	ENDS
;	COMDAT ?MediumTurquoise@Colors@DirectX@@3UXMVECTORF32@2@B
CONST	SEGMENT
?MediumTurquoise@Colors@DirectX@@3UXMVECTORF32@2@B DD 03e909091r ; 0.282353 ; DirectX::Colors::MediumTurquoise
	DD	03f51d1d3r			; 0.819608
	DD	03f4ccccer			; 0.8
	DD	03f800000r			; 1
CONST	ENDS
;	COMDAT ?MediumSpringGreen@Colors@DirectX@@3UXMVECTORF32@2@B
CONST	SEGMENT
?MediumSpringGreen@Colors@DirectX@@3UXMVECTORF32@2@B DD 000000000r ; 0 ; DirectX::Colors::MediumSpringGreen
	DD	03f7afafcr			; 0.980392
	DD	03f1a9a9br			; 0.603922
	DD	03f800000r			; 1
CONST	ENDS
;	COMDAT ?MediumSlateBlue@Colors@DirectX@@3UXMVECTORF32@2@B
CONST	SEGMENT
?MediumSlateBlue@Colors@DirectX@@3UXMVECTORF32@2@B DD 03ef6f6f8r ; 0.482353 ; DirectX::Colors::MediumSlateBlue
	DD	03ed0d0d2r			; 0.407843
	DD	03f6eeef0r			; 0.933333
	DD	03f800000r			; 1
CONST	ENDS
;	COMDAT ?MediumSeaGreen@Colors@DirectX@@3UXMVECTORF32@2@B
CONST	SEGMENT
?MediumSeaGreen@Colors@DirectX@@3UXMVECTORF32@2@B DD 03e70f0f2r ; 0.235294 ; DirectX::Colors::MediumSeaGreen
	DD	03f33b3b4r			; 0.701961
	DD	03ee2e2e4r			; 0.443137
	DD	03f800000r			; 1
CONST	ENDS
;	COMDAT ?MediumPurple@Colors@DirectX@@3UXMVECTORF32@2@B
CONST	SEGMENT
?MediumPurple@Colors@DirectX@@3UXMVECTORF32@2@B DD 03f139394r ; 0.576471 ; DirectX::Colors::MediumPurple
	DD	03ee0e0e2r			; 0.439216
	DD	03f5bdbddr			; 0.858824
	DD	03f800000r			; 1
CONST	ENDS
;	COMDAT ?MediumOrchid@Colors@DirectX@@3UXMVECTORF32@2@B
CONST	SEGMENT
?MediumOrchid@Colors@DirectX@@3UXMVECTORF32@2@B DD 03f3ababbr ; 0.729412 ; DirectX::Colors::MediumOrchid
	DD	03eaaaaabr			; 0.333333
	DD	03f53d3d5r			; 0.827451
	DD	03f800000r			; 1
CONST	ENDS
;	COMDAT ?MediumBlue@Colors@DirectX@@3UXMVECTORF32@2@B
CONST	SEGMENT
?MediumBlue@Colors@DirectX@@3UXMVECTORF32@2@B DD 000000000r ; 0 ; DirectX::Colors::MediumBlue
	DD	000000000r			; 0
	DD	03f4dcdcfr			; 0.803922
	DD	03f800000r			; 1
CONST	ENDS
;	COMDAT ?MediumAquamarine@Colors@DirectX@@3UXMVECTORF32@2@B
CONST	SEGMENT
?MediumAquamarine@Colors@DirectX@@3UXMVECTORF32@2@B DD 03ecccccer ; 0.4 ; DirectX::Colors::MediumAquamarine
	DD	03f4dcdcfr			; 0.803922
	DD	03f2aaaabr			; 0.666667
	DD	03f800000r			; 1
CONST	ENDS
;	COMDAT ?Maroon@Colors@DirectX@@3UXMVECTORF32@2@B
CONST	SEGMENT
?Maroon@Colors@DirectX@@3UXMVECTORF32@2@B DD 03f008081r ; 0.501961 ; DirectX::Colors::Maroon
	DD	000000000r			; 0
	DD	000000000r			; 0
	DD	03f800000r			; 1
CONST	ENDS
;	COMDAT ?Magenta@Colors@DirectX@@3UXMVECTORF32@2@B
CONST	SEGMENT
?Magenta@Colors@DirectX@@3UXMVECTORF32@2@B DD 03f800000r ; 1 ; DirectX::Colors::Magenta
	DD	000000000r			; 0
	DD	03f800000r			; 1
	DD	03f800000r			; 1
CONST	ENDS
;	COMDAT ?Linen@Colors@DirectX@@3UXMVECTORF32@2@B
CONST	SEGMENT
?Linen@Colors@DirectX@@3UXMVECTORF32@2@B DD 03f7afafcr ; 0.980392 ; DirectX::Colors::Linen
	DD	03f70f0f2r			; 0.941177
	DD	03f66e6e8r			; 0.901961
	DD	03f800000r			; 1
CONST	ENDS
;	COMDAT ?LimeGreen@Colors@DirectX@@3UXMVECTORF32@2@B
CONST	SEGMENT
?LimeGreen@Colors@DirectX@@3UXMVECTORF32@2@B DD 03e48c8car ; 0.196078 ; DirectX::Colors::LimeGreen
	DD	03f4dcdcfr			; 0.803922
	DD	03e48c8car			; 0.196078
	DD	03f800000r			; 1
CONST	ENDS
;	COMDAT ?Lime@Colors@DirectX@@3UXMVECTORF32@2@B
CONST	SEGMENT
?Lime@Colors@DirectX@@3UXMVECTORF32@2@B DD 000000000r ; 0 ; DirectX::Colors::Lime
	DD	03f800000r			; 1
	DD	000000000r			; 0
	DD	03f800000r			; 1
CONST	ENDS
;	COMDAT ?LightYellow@Colors@DirectX@@3UXMVECTORF32@2@B
CONST	SEGMENT
?LightYellow@Colors@DirectX@@3UXMVECTORF32@2@B DD 03f800000r ; 1 ; DirectX::Colors::LightYellow
	DD	03f800000r			; 1
	DD	03f60e0e2r			; 0.878431
	DD	03f800000r			; 1
CONST	ENDS
;	COMDAT ?LightSteelBlue@Colors@DirectX@@3UXMVECTORF32@2@B
CONST	SEGMENT
?LightSteelBlue@Colors@DirectX@@3UXMVECTORF32@2@B DD 03f30b0b1r ; 0.690196 ; DirectX::Colors::LightSteelBlue
	DD	03f44c4c6r			; 0.768628
	DD	03f5edee0r			; 0.870588
	DD	03f800000r			; 1
CONST	ENDS
;	COMDAT ?LightSlateGray@Colors@DirectX@@3UXMVECTORF32@2@B
CONST	SEGMENT
?LightSlateGray@Colors@DirectX@@3UXMVECTORF32@2@B DD 03eeeeef0r ; 0.466667 ; DirectX::Colors::LightSlateGray
	DD	03f088889r			; 0.533333
	DD	03f19999ar			; 0.6
	DD	03f800000r			; 1
CONST	ENDS
;	COMDAT ?LightSkyBlue@Colors@DirectX@@3UXMVECTORF32@2@B
CONST	SEGMENT
?LightSkyBlue@Colors@DirectX@@3UXMVECTORF32@2@B DD 03f078788r ; 0.529412 ; DirectX::Colors::LightSkyBlue
	DD	03f4eced0r			; 0.807843
	DD	03f7afafcr			; 0.980392
	DD	03f800000r			; 1
CONST	ENDS
;	COMDAT ?LightSeaGreen@Colors@DirectX@@3UXMVECTORF32@2@B
CONST	SEGMENT
?LightSeaGreen@Colors@DirectX@@3UXMVECTORF32@2@B DD 03e008081r ; 0.12549 ; DirectX::Colors::LightSeaGreen
	DD	03f32b2b3r			; 0.698039
	DD	03f2aaaabr			; 0.666667
	DD	03f800000r			; 1
CONST	ENDS
;	COMDAT ?LightSalmon@Colors@DirectX@@3UXMVECTORF32@2@B
CONST	SEGMENT
?LightSalmon@Colors@DirectX@@3UXMVECTORF32@2@B DD 03f800000r ; 1 ; DirectX::Colors::LightSalmon
	DD	03f20a0a1r			; 0.627451
	DD	03ef4f4f6r			; 0.478431
	DD	03f800000r			; 1
CONST	ENDS
;	COMDAT ?LightPink@Colors@DirectX@@3UXMVECTORF32@2@B
CONST	SEGMENT
?LightPink@Colors@DirectX@@3UXMVECTORF32@2@B DD 03f800000r ; 1 ; DirectX::Colors::LightPink
	DD	03f36b6b7r			; 0.713726
	DD	03f41c1c3r			; 0.756863
	DD	03f800000r			; 1
CONST	ENDS
;	COMDAT ?LightGray@Colors@DirectX@@3UXMVECTORF32@2@B
CONST	SEGMENT
?LightGray@Colors@DirectX@@3UXMVECTORF32@2@B DD 03f53d3d5r ; 0.827451 ; DirectX::Colors::LightGray
	DD	03f53d3d5r			; 0.827451
	DD	03f53d3d5r			; 0.827451
	DD	03f800000r			; 1
CONST	ENDS
;	COMDAT ?LightGreen@Colors@DirectX@@3UXMVECTORF32@2@B
CONST	SEGMENT
?LightGreen@Colors@DirectX@@3UXMVECTORF32@2@B DD 03f109091r ; 0.564706 ; DirectX::Colors::LightGreen
	DD	03f6eeef0r			; 0.933333
	DD	03f109091r			; 0.564706
	DD	03f800000r			; 1
CONST	ENDS
;	COMDAT ?LightGoldenrodYellow@Colors@DirectX@@3UXMVECTORF32@2@B
CONST	SEGMENT
?LightGoldenrodYellow@Colors@DirectX@@3UXMVECTORF32@2@B DD 03f7afafcr ; 0.980392 ; DirectX::Colors::LightGoldenrodYellow
	DD	03f7afafcr			; 0.980392
	DD	03f52d2d4r			; 0.823529
	DD	03f800000r			; 1
CONST	ENDS
;	COMDAT ?LightCyan@Colors@DirectX@@3UXMVECTORF32@2@B
CONST	SEGMENT
?LightCyan@Colors@DirectX@@3UXMVECTORF32@2@B DD 03f60e0e2r ; 0.878431 ; DirectX::Colors::LightCyan
	DD	03f800000r			; 1
	DD	03f800000r			; 1
	DD	03f800000r			; 1
CONST	ENDS
;	COMDAT ?LightCoral@Colors@DirectX@@3UXMVECTORF32@2@B
CONST	SEGMENT
?LightCoral@Colors@DirectX@@3UXMVECTORF32@2@B DD 03f70f0f2r ; 0.941177 ; DirectX::Colors::LightCoral
	DD	03f008081r			; 0.501961
	DD	03f008081r			; 0.501961
	DD	03f800000r			; 1
CONST	ENDS
;	COMDAT ?LightBlue@Colors@DirectX@@3UXMVECTORF32@2@B
CONST	SEGMENT
?LightBlue@Colors@DirectX@@3UXMVECTORF32@2@B DD 03f2dadaer ; 0.678431 ; DirectX::Colors::LightBlue
	DD	03f58d8dar			; 0.847059
	DD	03f66e6e8r			; 0.901961
	DD	03f800000r			; 1
CONST	ENDS
;	COMDAT ?LemonChiffon@Colors@DirectX@@3UXMVECTORF32@2@B
CONST	SEGMENT
?LemonChiffon@Colors@DirectX@@3UXMVECTORF32@2@B DD 03f800000r ; 1 ; DirectX::Colors::LemonChiffon
	DD	03f7afafcr			; 0.980392
	DD	03f4dcdcfr			; 0.803922
	DD	03f800000r			; 1
CONST	ENDS
;	COMDAT ?LawnGreen@Colors@DirectX@@3UXMVECTORF32@2@B
CONST	SEGMENT
?LawnGreen@Colors@DirectX@@3UXMVECTORF32@2@B DD 03ef8f8far ; 0.486275 ; DirectX::Colors::LawnGreen
	DD	03f7cfcfer			; 0.988235
	DD	000000000r			; 0
	DD	03f800000r			; 1
CONST	ENDS
;	COMDAT ?LavenderBlush@Colors@DirectX@@3UXMVECTORF32@2@B
CONST	SEGMENT
?LavenderBlush@Colors@DirectX@@3UXMVECTORF32@2@B DD 03f800000r ; 1 ; DirectX::Colors::LavenderBlush
	DD	03f70f0f2r			; 0.941177
	DD	03f75f5f7r			; 0.960784
	DD	03f800000r			; 1
CONST	ENDS
;	COMDAT ?Lavender@Colors@DirectX@@3UXMVECTORF32@2@B
CONST	SEGMENT
?Lavender@Colors@DirectX@@3UXMVECTORF32@2@B DD 03f66e6e8r ; 0.901961 ; DirectX::Colors::Lavender
	DD	03f66e6e8r			; 0.901961
	DD	03f7afafcr			; 0.980392
	DD	03f800000r			; 1
CONST	ENDS
;	COMDAT ?Khaki@Colors@DirectX@@3UXMVECTORF32@2@B
CONST	SEGMENT
?Khaki@Colors@DirectX@@3UXMVECTORF32@2@B DD 03f70f0f2r ; 0.941177 ; DirectX::Colors::Khaki
	DD	03f66e6e8r			; 0.901961
	DD	03f0c8c8dr			; 0.54902
	DD	03f800000r			; 1
CONST	ENDS
;	COMDAT ?Ivory@Colors@DirectX@@3UXMVECTORF32@2@B
CONST	SEGMENT
?Ivory@Colors@DirectX@@3UXMVECTORF32@2@B DD 03f800000r ; 1 ; DirectX::Colors::Ivory
	DD	03f800000r			; 1
	DD	03f70f0f2r			; 0.941177
	DD	03f800000r			; 1
CONST	ENDS
;	COMDAT ?Indigo@Colors@DirectX@@3UXMVECTORF32@2@B
CONST	SEGMENT
?Indigo@Colors@DirectX@@3UXMVECTORF32@2@B DD 03e969697r ; 0.294118 ; DirectX::Colors::Indigo
	DD	000000000r			; 0
	DD	03f028283r			; 0.509804
	DD	03f800000r			; 1
CONST	ENDS
;	COMDAT ?IndianRed@Colors@DirectX@@3UXMVECTORF32@2@B
CONST	SEGMENT
?IndianRed@Colors@DirectX@@3UXMVECTORF32@2@B DD 03f4dcdcfr ; 0.803922 ; DirectX::Colors::IndianRed
	DD	03eb8b8b9r			; 0.360784
	DD	03eb8b8b9r			; 0.360784
	DD	03f800000r			; 1
CONST	ENDS
;	COMDAT ?HotPink@Colors@DirectX@@3UXMVECTORF32@2@B
CONST	SEGMENT
?HotPink@Colors@DirectX@@3UXMVECTORF32@2@B DD 03f800000r ; 1 ; DirectX::Colors::HotPink
	DD	03ed2d2d4r			; 0.411765
	DD	03f34b4b5r			; 0.705882
	DD	03f800000r			; 1
CONST	ENDS
;	COMDAT ?Honeydew@Colors@DirectX@@3UXMVECTORF32@2@B
CONST	SEGMENT
?Honeydew@Colors@DirectX@@3UXMVECTORF32@2@B DD 03f70f0f2r ; 0.941177 ; DirectX::Colors::Honeydew
	DD	03f800000r			; 1
	DD	03f70f0f2r			; 0.941177
	DD	03f800000r			; 1
CONST	ENDS
;	COMDAT ?GreenYellow@Colors@DirectX@@3UXMVECTORF32@2@B
CONST	SEGMENT
?GreenYellow@Colors@DirectX@@3UXMVECTORF32@2@B DD 03f2dadaer ; 0.678431 ; DirectX::Colors::GreenYellow
	DD	03f800000r			; 1
	DD	03e3cbcbdr			; 0.184314
	DD	03f800000r			; 1
CONST	ENDS
;	COMDAT ?Green@Colors@DirectX@@3UXMVECTORF32@2@B
CONST	SEGMENT
?Green@Colors@DirectX@@3UXMVECTORF32@2@B DD 000000000r ; 0 ; DirectX::Colors::Green
	DD	03f008081r			; 0.501961
	DD	000000000r			; 0
	DD	03f800000r			; 1
CONST	ENDS
;	COMDAT ?Gray@Colors@DirectX@@3UXMVECTORF32@2@B
CONST	SEGMENT
?Gray@Colors@DirectX@@3UXMVECTORF32@2@B DD 03f008081r ; 0.501961 ; DirectX::Colors::Gray
	DD	03f008081r			; 0.501961
	DD	03f008081r			; 0.501961
	DD	03f800000r			; 1
CONST	ENDS
;	COMDAT ?Goldenrod@Colors@DirectX@@3UXMVECTORF32@2@B
CONST	SEGMENT
?Goldenrod@Colors@DirectX@@3UXMVECTORF32@2@B DD 03f5adadcr ; 0.854902 ; DirectX::Colors::Goldenrod
	DD	03f25a5a6r			; 0.647059
	DD	03e008081r			; 0.12549
	DD	03f800000r			; 1
CONST	ENDS
;	COMDAT ?Gold@Colors@DirectX@@3UXMVECTORF32@2@B
CONST	SEGMENT
?Gold@Colors@DirectX@@3UXMVECTORF32@2@B DD 03f800000r ; 1 ; DirectX::Colors::Gold
	DD	03f57d7d9r			; 0.843137
	DD	000000000r			; 0
	DD	03f800000r			; 1
CONST	ENDS
;	COMDAT ?GhostWhite@Colors@DirectX@@3UXMVECTORF32@2@B
CONST	SEGMENT
?GhostWhite@Colors@DirectX@@3UXMVECTORF32@2@B DD 03f78f8far ; 0.972549 ; DirectX::Colors::GhostWhite
	DD	03f78f8far			; 0.972549
	DD	03f800000r			; 1
	DD	03f800000r			; 1
CONST	ENDS
;	COMDAT ?Gainsboro@Colors@DirectX@@3UXMVECTORF32@2@B
CONST	SEGMENT
?Gainsboro@Colors@DirectX@@3UXMVECTORF32@2@B DD 03f5cdcder ; 0.862745 ; DirectX::Colors::Gainsboro
	DD	03f5cdcder			; 0.862745
	DD	03f5cdcder			; 0.862745
	DD	03f800000r			; 1
CONST	ENDS
;	COMDAT ?Fuchsia@Colors@DirectX@@3UXMVECTORF32@2@B
CONST	SEGMENT
?Fuchsia@Colors@DirectX@@3UXMVECTORF32@2@B DD 03f800000r ; 1 ; DirectX::Colors::Fuchsia
	DD	000000000r			; 0
	DD	03f800000r			; 1
	DD	03f800000r			; 1
CONST	ENDS
;	COMDAT ?ForestGreen@Colors@DirectX@@3UXMVECTORF32@2@B
CONST	SEGMENT
?ForestGreen@Colors@DirectX@@3UXMVECTORF32@2@B DD 03e088889r ; 0.133333 ; DirectX::Colors::ForestGreen
	DD	03f0b8b8cr			; 0.545098
	DD	03e088889r			; 0.133333
	DD	03f800000r			; 1
CONST	ENDS
;	COMDAT ?FloralWhite@Colors@DirectX@@3UXMVECTORF32@2@B
CONST	SEGMENT
?FloralWhite@Colors@DirectX@@3UXMVECTORF32@2@B DD 03f800000r ; 1 ; DirectX::Colors::FloralWhite
	DD	03f7afafcr			; 0.980392
	DD	03f70f0f2r			; 0.941177
	DD	03f800000r			; 1
CONST	ENDS
;	COMDAT ?Firebrick@Colors@DirectX@@3UXMVECTORF32@2@B
CONST	SEGMENT
?Firebrick@Colors@DirectX@@3UXMVECTORF32@2@B DD 03f32b2b3r ; 0.698039 ; DirectX::Colors::Firebrick
	DD	03e088889r			; 0.133333
	DD	03e088889r			; 0.133333
	DD	03f800000r			; 1
CONST	ENDS
;	COMDAT ?DodgerBlue@Colors@DirectX@@3UXMVECTORF32@2@B
CONST	SEGMENT
?DodgerBlue@Colors@DirectX@@3UXMVECTORF32@2@B DD 03df0f0f2r ; 0.117647 ; DirectX::Colors::DodgerBlue
	DD	03f109091r			; 0.564706
	DD	03f800000r			; 1
	DD	03f800000r			; 1
CONST	ENDS
;	COMDAT ?DimGray@Colors@DirectX@@3UXMVECTORF32@2@B
CONST	SEGMENT
?DimGray@Colors@DirectX@@3UXMVECTORF32@2@B DD 03ed2d2d4r ; 0.411765 ; DirectX::Colors::DimGray
	DD	03ed2d2d4r			; 0.411765
	DD	03ed2d2d4r			; 0.411765
	DD	03f800000r			; 1
CONST	ENDS
;	COMDAT ?DeepSkyBlue@Colors@DirectX@@3UXMVECTORF32@2@B
CONST	SEGMENT
?DeepSkyBlue@Colors@DirectX@@3UXMVECTORF32@2@B DD 000000000r ; 0 ; DirectX::Colors::DeepSkyBlue
	DD	03f3fbfc0r			; 0.74902
	DD	03f800000r			; 1
	DD	03f800000r			; 1
CONST	ENDS
;	COMDAT ?DeepPink@Colors@DirectX@@3UXMVECTORF32@2@B
CONST	SEGMENT
?DeepPink@Colors@DirectX@@3UXMVECTORF32@2@B DD 03f800000r ; 1 ; DirectX::Colors::DeepPink
	DD	03da0a0a1r			; 0.0784314
	DD	03f139394r			; 0.576471
	DD	03f800000r			; 1
CONST	ENDS
;	COMDAT ?DarkViolet@Colors@DirectX@@3UXMVECTORF32@2@B
CONST	SEGMENT
?DarkViolet@Colors@DirectX@@3UXMVECTORF32@2@B DD 03f149495r ; 0.580392 ; DirectX::Colors::DarkViolet
	DD	000000000r			; 0
	DD	03f53d3d5r			; 0.827451
	DD	03f800000r			; 1
CONST	ENDS
;	COMDAT ?DarkTurquoise@Colors@DirectX@@3UXMVECTORF32@2@B
CONST	SEGMENT
?DarkTurquoise@Colors@DirectX@@3UXMVECTORF32@2@B DD 000000000r ; 0 ; DirectX::Colors::DarkTurquoise
	DD	03f4eced0r			; 0.807843
	DD	03f51d1d3r			; 0.819608
	DD	03f800000r			; 1
CONST	ENDS
;	COMDAT ?DarkSlateGray@Colors@DirectX@@3UXMVECTORF32@2@B
CONST	SEGMENT
?DarkSlateGray@Colors@DirectX@@3UXMVECTORF32@2@B DD 03e3cbcbdr ; 0.184314 ; DirectX::Colors::DarkSlateGray
	DD	03e9e9e9fr			; 0.309804
	DD	03e9e9e9fr			; 0.309804
	DD	03f800000r			; 1
CONST	ENDS
;	COMDAT ?DarkSlateBlue@Colors@DirectX@@3UXMVECTORF32@2@B
CONST	SEGMENT
?DarkSlateBlue@Colors@DirectX@@3UXMVECTORF32@2@B DD 03e909091r ; 0.282353 ; DirectX::Colors::DarkSlateBlue
	DD	03e74f4f6r			; 0.239216
	DD	03f0b8b8cr			; 0.545098
	DD	03f800000r			; 1
CONST	ENDS
;	COMDAT ?DarkSeaGreen@Colors@DirectX@@3UXMVECTORF32@2@B
CONST	SEGMENT
?DarkSeaGreen@Colors@DirectX@@3UXMVECTORF32@2@B DD 03f0f8f90r ; 0.560784 ; DirectX::Colors::DarkSeaGreen
	DD	03f3cbcbdr			; 0.737255
	DD	03f0b8b8cr			; 0.545098
	DD	03f800000r			; 1
CONST	ENDS
;	COMDAT ?DarkSalmon@Colors@DirectX@@3UXMVECTORF32@2@B
CONST	SEGMENT
?DarkSalmon@Colors@DirectX@@3UXMVECTORF32@2@B DD 03f69e9ebr ; 0.913726 ; DirectX::Colors::DarkSalmon
	DD	03f169697r			; 0.588235
	DD	03ef4f4f6r			; 0.478431
	DD	03f800000r			; 1
CONST	ENDS
;	COMDAT ?DarkRed@Colors@DirectX@@3UXMVECTORF32@2@B
CONST	SEGMENT
?DarkRed@Colors@DirectX@@3UXMVECTORF32@2@B DD 03f0b8b8cr ; 0.545098 ; DirectX::Colors::DarkRed
	DD	000000000r			; 0
	DD	000000000r			; 0
	DD	03f800000r			; 1
CONST	ENDS
;	COMDAT ?DarkOrchid@Colors@DirectX@@3UXMVECTORF32@2@B
CONST	SEGMENT
?DarkOrchid@Colors@DirectX@@3UXMVECTORF32@2@B DD 03f19999ar ; 0.6 ; DirectX::Colors::DarkOrchid
	DD	03e48c8car			; 0.196078
	DD	03f4ccccer			; 0.8
	DD	03f800000r			; 1
CONST	ENDS
;	COMDAT ?DarkOrange@Colors@DirectX@@3UXMVECTORF32@2@B
CONST	SEGMENT
?DarkOrange@Colors@DirectX@@3UXMVECTORF32@2@B DD 03f800000r ; 1 ; DirectX::Colors::DarkOrange
	DD	03f0c8c8dr			; 0.54902
	DD	000000000r			; 0
	DD	03f800000r			; 1
CONST	ENDS
;	COMDAT ?DarkOliveGreen@Colors@DirectX@@3UXMVECTORF32@2@B
CONST	SEGMENT
?DarkOliveGreen@Colors@DirectX@@3UXMVECTORF32@2@B DD 03eaaaaabr ; 0.333333 ; DirectX::Colors::DarkOliveGreen
	DD	03ed6d6d8r			; 0.419608
	DD	03e3cbcbdr			; 0.184314
	DD	03f800000r			; 1
CONST	ENDS
;	COMDAT ?DarkMagenta@Colors@DirectX@@3UXMVECTORF32@2@B
CONST	SEGMENT
?DarkMagenta@Colors@DirectX@@3UXMVECTORF32@2@B DD 03f0b8b8cr ; 0.545098 ; DirectX::Colors::DarkMagenta
	DD	000000000r			; 0
	DD	03f0b8b8cr			; 0.545098
	DD	03f800000r			; 1
CONST	ENDS
;	COMDAT ?DarkKhaki@Colors@DirectX@@3UXMVECTORF32@2@B
CONST	SEGMENT
?DarkKhaki@Colors@DirectX@@3UXMVECTORF32@2@B DD 03f3dbdber ; 0.741176 ; DirectX::Colors::DarkKhaki
	DD	03f37b7b8r			; 0.717647
	DD	03ed6d6d8r			; 0.419608
	DD	03f800000r			; 1
CONST	ENDS
;	COMDAT ?DarkGreen@Colors@DirectX@@3UXMVECTORF32@2@B
CONST	SEGMENT
?DarkGreen@Colors@DirectX@@3UXMVECTORF32@2@B DD 000000000r ; 0 ; DirectX::Colors::DarkGreen
	DD	03ec8c8car			; 0.392157
	DD	000000000r			; 0
	DD	03f800000r			; 1
CONST	ENDS
;	COMDAT ?DarkGray@Colors@DirectX@@3UXMVECTORF32@2@B
CONST	SEGMENT
?DarkGray@Colors@DirectX@@3UXMVECTORF32@2@B DD 03f29a9aar ; 0.662745 ; DirectX::Colors::DarkGray
	DD	03f29a9aar			; 0.662745
	DD	03f29a9aar			; 0.662745
	DD	03f800000r			; 1
CONST	ENDS
;	COMDAT ?DarkGoldenrod@Colors@DirectX@@3UXMVECTORF32@2@B
CONST	SEGMENT
?DarkGoldenrod@Colors@DirectX@@3UXMVECTORF32@2@B DD 03f38b8b9r ; 0.721569 ; DirectX::Colors::DarkGoldenrod
	DD	03f068687r			; 0.52549
	DD	03d30b0b1r			; 0.0431373
	DD	03f800000r			; 1
CONST	ENDS
;	COMDAT ?DarkCyan@Colors@DirectX@@3UXMVECTORF32@2@B
CONST	SEGMENT
?DarkCyan@Colors@DirectX@@3UXMVECTORF32@2@B DD 000000000r ; 0 ; DirectX::Colors::DarkCyan
	DD	03f0b8b8cr			; 0.545098
	DD	03f0b8b8cr			; 0.545098
	DD	03f800000r			; 1
CONST	ENDS
;	COMDAT ?DarkBlue@Colors@DirectX@@3UXMVECTORF32@2@B
CONST	SEGMENT
?DarkBlue@Colors@DirectX@@3UXMVECTORF32@2@B DD 000000000r ; 0 ; DirectX::Colors::DarkBlue
	DD	000000000r			; 0
	DD	03f0b8b8cr			; 0.545098
	DD	03f800000r			; 1
CONST	ENDS
;	COMDAT ?Cyan@Colors@DirectX@@3UXMVECTORF32@2@B
CONST	SEGMENT
?Cyan@Colors@DirectX@@3UXMVECTORF32@2@B DD 000000000r ; 0 ; DirectX::Colors::Cyan
	DD	03f800000r			; 1
	DD	03f800000r			; 1
	DD	03f800000r			; 1
CONST	ENDS
;	COMDAT ?Crimson@Colors@DirectX@@3UXMVECTORF32@2@B
CONST	SEGMENT
?Crimson@Colors@DirectX@@3UXMVECTORF32@2@B DD 03f5cdcder ; 0.862745 ; DirectX::Colors::Crimson
	DD	03da0a0a1r			; 0.0784314
	DD	03e70f0f2r			; 0.235294
	DD	03f800000r			; 1
CONST	ENDS
;	COMDAT ?Cornsilk@Colors@DirectX@@3UXMVECTORF32@2@B
CONST	SEGMENT
?Cornsilk@Colors@DirectX@@3UXMVECTORF32@2@B DD 03f800000r ; 1 ; DirectX::Colors::Cornsilk
	DD	03f78f8far			; 0.972549
	DD	03f5cdcder			; 0.862745
	DD	03f800000r			; 1
CONST	ENDS
;	COMDAT ?CornflowerBlue@Colors@DirectX@@3UXMVECTORF32@2@B
CONST	SEGMENT
?CornflowerBlue@Colors@DirectX@@3UXMVECTORF32@2@B DD 03ec8c8car ; 0.392157 ; DirectX::Colors::CornflowerBlue
	DD	03f159596r			; 0.584314
	DD	03f6dedefr			; 0.929412
	DD	03f800000r			; 1
CONST	ENDS
;	COMDAT ?Coral@Colors@DirectX@@3UXMVECTORF32@2@B
CONST	SEGMENT
?Coral@Colors@DirectX@@3UXMVECTORF32@2@B DD 03f800000r ; 1 ; DirectX::Colors::Coral
	DD	03efeff00r			; 0.498039
	DD	03ea0a0a1r			; 0.313726
	DD	03f800000r			; 1
CONST	ENDS
;	COMDAT ?Chocolate@Colors@DirectX@@3UXMVECTORF32@2@B
CONST	SEGMENT
?Chocolate@Colors@DirectX@@3UXMVECTORF32@2@B DD 03f52d2d4r ; 0.823529 ; DirectX::Colors::Chocolate
	DD	03ed2d2d4r			; 0.411765
	DD	03df0f0f2r			; 0.117647
	DD	03f800000r			; 1
CONST	ENDS
;	COMDAT ?Chartreuse@Colors@DirectX@@3UXMVECTORF32@2@B
CONST	SEGMENT
?Chartreuse@Colors@DirectX@@3UXMVECTORF32@2@B DD 03efeff00r ; 0.498039 ; DirectX::Colors::Chartreuse
	DD	03f800000r			; 1
	DD	000000000r			; 0
	DD	03f800000r			; 1
CONST	ENDS
;	COMDAT ?CadetBlue@Colors@DirectX@@3UXMVECTORF32@2@B
CONST	SEGMENT
?CadetBlue@Colors@DirectX@@3UXMVECTORF32@2@B DD 03ebebebfr ; 0.372549 ; DirectX::Colors::CadetBlue
	DD	03f1e9e9fr			; 0.619608
	DD	03f20a0a1r			; 0.627451
	DD	03f800000r			; 1
CONST	ENDS
;	COMDAT ?BurlyWood@Colors@DirectX@@3UXMVECTORF32@2@B
CONST	SEGMENT
?BurlyWood@Colors@DirectX@@3UXMVECTORF32@2@B DD 03f5edee0r ; 0.870588 ; DirectX::Colors::BurlyWood
	DD	03f38b8b9r			; 0.721569
	DD	03f078788r			; 0.529412
	DD	03f800000r			; 1
CONST	ENDS
;	COMDAT ?Brown@Colors@DirectX@@3UXMVECTORF32@2@B
CONST	SEGMENT
?Brown@Colors@DirectX@@3UXMVECTORF32@2@B DD 03f25a5a6r ; 0.647059 ; DirectX::Colors::Brown
	DD	03e28a8a9r			; 0.164706
	DD	03e28a8a9r			; 0.164706
	DD	03f800000r			; 1
CONST	ENDS
;	COMDAT ?BlueViolet@Colors@DirectX@@3UXMVECTORF32@2@B
CONST	SEGMENT
?BlueViolet@Colors@DirectX@@3UXMVECTORF32@2@B DD 03f0a8a8br ; 0.541176 ; DirectX::Colors::BlueViolet
	DD	03e2cacadr			; 0.168627
	DD	03f62e2e4r			; 0.886275
	DD	03f800000r			; 1
CONST	ENDS
;	COMDAT ?Blue@Colors@DirectX@@3UXMVECTORF32@2@B
CONST	SEGMENT
?Blue@Colors@DirectX@@3UXMVECTORF32@2@B DD 000000000r ; 0 ; DirectX::Colors::Blue
	DD	000000000r			; 0
	DD	03f800000r			; 1
	DD	03f800000r			; 1
CONST	ENDS
;	COMDAT ?BlanchedAlmond@Colors@DirectX@@3UXMVECTORF32@2@B
CONST	SEGMENT
?BlanchedAlmond@Colors@DirectX@@3UXMVECTORF32@2@B DD 03f800000r ; 1 ; DirectX::Colors::BlanchedAlmond
	DD	03f6bebedr			; 0.921569
	DD	03f4dcdcfr			; 0.803922
	DD	03f800000r			; 1
CONST	ENDS
;	COMDAT ?Black@Colors@DirectX@@3UXMVECTORF32@2@B
CONST	SEGMENT
?Black@Colors@DirectX@@3UXMVECTORF32@2@B DD 000000000r ; 0 ; DirectX::Colors::Black
	DD	000000000r			; 0
	DD	000000000r			; 0
	DD	03f800000r			; 1
CONST	ENDS
;	COMDAT ?Bisque@Colors@DirectX@@3UXMVECTORF32@2@B
CONST	SEGMENT
?Bisque@Colors@DirectX@@3UXMVECTORF32@2@B DD 03f800000r ; 1 ; DirectX::Colors::Bisque
	DD	03f64e4e6r			; 0.894118
	DD	03f44c4c6r			; 0.768628
	DD	03f800000r			; 1
CONST	ENDS
;	COMDAT ?Beige@Colors@DirectX@@3UXMVECTORF32@2@B
CONST	SEGMENT
?Beige@Colors@DirectX@@3UXMVECTORF32@2@B DD 03f75f5f7r ; 0.960784 ; DirectX::Colors::Beige
	DD	03f75f5f7r			; 0.960784
	DD	03f5cdcder			; 0.862745
	DD	03f800000r			; 1
CONST	ENDS
;	COMDAT ?Azure@Colors@DirectX@@3UXMVECTORF32@2@B
CONST	SEGMENT
?Azure@Colors@DirectX@@3UXMVECTORF32@2@B DD 03f70f0f2r ; 0.941177 ; DirectX::Colors::Azure
	DD	03f800000r			; 1
	DD	03f800000r			; 1
	DD	03f800000r			; 1
CONST	ENDS
;	COMDAT ?Aquamarine@Colors@DirectX@@3UXMVECTORF32@2@B
CONST	SEGMENT
?Aquamarine@Colors@DirectX@@3UXMVECTORF32@2@B DD 03efeff00r ; 0.498039 ; DirectX::Colors::Aquamarine
	DD	03f800000r			; 1
	DD	03f54d4d6r			; 0.831373
	DD	03f800000r			; 1
CONST	ENDS
;	COMDAT ?Aqua@Colors@DirectX@@3UXMVECTORF32@2@B
CONST	SEGMENT
?Aqua@Colors@DirectX@@3UXMVECTORF32@2@B DD 000000000r ; 0 ; DirectX::Colors::Aqua
	DD	03f800000r			; 1
	DD	03f800000r			; 1
	DD	03f800000r			; 1
CONST	ENDS
;	COMDAT ?AntiqueWhite@Colors@DirectX@@3UXMVECTORF32@2@B
CONST	SEGMENT
?AntiqueWhite@Colors@DirectX@@3UXMVECTORF32@2@B DD 03f7afafcr ; 0.980392 ; DirectX::Colors::AntiqueWhite
	DD	03f6bebedr			; 0.921569
	DD	03f57d7d9r			; 0.843137
	DD	03f800000r			; 1
CONST	ENDS
;	COMDAT ?AliceBlue@Colors@DirectX@@3UXMVECTORF32@2@B
CONST	SEGMENT
?AliceBlue@Colors@DirectX@@3UXMVECTORF32@2@B DD 03f70f0f2r ; 0.941177 ; DirectX::Colors::AliceBlue
	DD	03f78f8far			; 0.972549
	DD	03f800000r			; 1
	DD	03f800000r			; 1
CONST	ENDS
PUBLIC	??_H@YAXPEAX_K1P6APEAX0@Z@Z			; `vector constructor iterator'
PUBLIC	?__empty_global_delete@@YAXPEAX@Z		; __empty_global_delete
PUBLIC	?__empty_global_delete@@YAXPEAX_K@Z		; __empty_global_delete
PUBLIC	?XMConvertToRadians@DirectX@@YAMM@Z		; DirectX::XMConvertToRadians
PUBLIC	??BXMVECTORF32@DirectX@@QEBA?AT__m128@@XZ	; DirectX::XMVECTORF32::operator __m128
PUBLIC	??BXMVECTORI32@DirectX@@QEBA?AT__m128@@XZ	; DirectX::XMVECTORI32::operator __m128
PUBLIC	??HDirectX@@YQ?AT__m128@@T1@0@Z			; DirectX::operator+
PUBLIC	??GDirectX@@YQ?AT__m128@@T1@0@Z			; DirectX::operator-
PUBLIC	??DDirectX@@YQ?AT__m128@@T1@M@Z			; DirectX::operator*
PUBLIC	??0XMMATRIX@DirectX@@QEAA@XZ			; DirectX::XMMATRIX::XMMATRIX
PUBLIC	??4XMMATRIX@DirectX@@QEAAAEAU01@AEBU01@@Z	; DirectX::XMMATRIX::operator=
PUBLIC	??DXMMATRIX@DirectX@@QEBQ?AU01@U01@@Z		; DirectX::XMMATRIX::operator*
PUBLIC	??0XMFLOAT3@DirectX@@QEAA@XZ			; DirectX::XMFLOAT3::XMFLOAT3
PUBLIC	??0XMFLOAT3@DirectX@@QEAA@MMM@Z			; DirectX::XMFLOAT3::XMFLOAT3
PUBLIC	??0XMFLOAT4X4@DirectX@@QEAA@XZ			; DirectX::XMFLOAT4X4::XMFLOAT4X4
PUBLIC	?XMLoadFloat4@DirectX@@YQ?AT__m128@@PEBUXMFLOAT4@1@@Z ; DirectX::XMLoadFloat4
PUBLIC	?XMLoadFloat4x4@DirectX@@YQ?AUXMMATRIX@1@PEBUXMFLOAT4X4@1@@Z ; DirectX::XMLoadFloat4x4
PUBLIC	?XMStoreFloat3@DirectX@@YQXPEAUXMFLOAT3@1@T__m128@@@Z ; DirectX::XMStoreFloat3
PUBLIC	?XMStoreFloat4x4@DirectX@@YQXPEAUXMFLOAT4X4@1@UXMMATRIX@1@@Z ; DirectX::XMStoreFloat4x4
PUBLIC	?XMVectorGetX@DirectX@@YQMT__m128@@@Z		; DirectX::XMVectorGetX
PUBLIC	?XMVectorGetY@DirectX@@YQMT__m128@@@Z		; DirectX::XMVectorGetY
PUBLIC	?XMVectorSetY@DirectX@@YQ?AT__m128@@T2@M@Z	; DirectX::XMVectorSetY
PUBLIC	?XMVectorAdd@DirectX@@YQ?AT__m128@@T2@0@Z	; DirectX::XMVectorAdd
PUBLIC	?XMVectorSubtract@DirectX@@YQ?AT__m128@@T2@0@Z	; DirectX::XMVectorSubtract
PUBLIC	?XMVectorScale@DirectX@@YQ?AT__m128@@T2@M@Z	; DirectX::XMVectorScale
PUBLIC	?XMVector3Length@DirectX@@YQ?AT__m128@@T2@@Z	; DirectX::XMVector3Length
PUBLIC	?XMVector3Normalize@DirectX@@YQ?AT__m128@@T2@@Z	; DirectX::XMVector3Normalize
PUBLIC	?XMMatrixMultiply@DirectX@@YQ?AUXMMATRIX@1@U21@AEBU21@@Z ; DirectX::XMMatrixMultiply
PUBLIC	?XMMatrixRotationX@DirectX@@YQ?AUXMMATRIX@1@M@Z	; DirectX::XMMatrixRotationX
PUBLIC	?XMMatrixRotationY@DirectX@@YQ?AUXMMATRIX@1@M@Z	; DirectX::XMMatrixRotationY
PUBLIC	?XMMatrixRotationZ@DirectX@@YQ?AUXMMATRIX@1@M@Z	; DirectX::XMMatrixRotationZ
PUBLIC	?XMScalarSinCos@DirectX@@YAXPEAM0M@Z		; DirectX::XMScalarSinCos
PUBLIC	??0CSwordTrail@Client@@AEAA@PEAUID3D11Device@@PEAUID3D11DeviceContext@@@Z ; Client::CSwordTrail::CSwordTrail
PUBLIC	??1CSwordTrail@Client@@EEAA@XZ			; Client::CSwordTrail::~CSwordTrail
PUBLIC	?Initialize_Prototype@CSwordTrail@Client@@UEAAJXZ ; Client::CSwordTrail::Initialize_Prototype
PUBLIC	?Initialize@CSwordTrail@Client@@UEAAJPEAX@Z	; Client::CSwordTrail::Initialize
PUBLIC	?Tick@CSwordTrail@Client@@UEAAXN@Z		; Client::CSwordTrail::Tick
PUBLIC	?LateTick@CSwordTrail@Client@@UEAAXN@Z		; Client::CSwordTrail::LateTick
PUBLIC	?Render@CSwordTrail@Client@@UEAAJXZ		; Client::CSwordTrail::Render
PUBLIC	?RenderGUI@CSwordTrail@Client@@UEAAXXZ		; Client::CSwordTrail::RenderGUI
PUBLIC	?AddComponents@CSwordTrail@Client@@AEAAJXZ	; Client::CSwordTrail::AddComponents
PUBLIC	?SetupShaderResources@CSwordTrail@Client@@AEAAJXZ ; Client::CSwordTrail::SetupShaderResources
PUBLIC	?Reset@CSwordTrail@Client@@QEAAXXZ		; Client::CSwordTrail::Reset
PUBLIC	?EffectStart@CSwordTrail@Client@@QEAAXUXMFLOAT3@DirectX@@0@Z ; Client::CSwordTrail::EffectStart
PUBLIC	?SetHitPosition@CSwordTrail@Client@@QEAAXT__m128@@@Z ; Client::CSwordTrail::SetHitPosition
PUBLIC	?GetLengthFromCamera@CSwordTrail@Client@@UEAAMXZ ; Client::CSwordTrail::GetLengthFromCamera
PUBLIC	?Create@CSwordTrail@Client@@SAPEAV12@PEAUID3D11Device@@PEAUID3D11DeviceContext@@@Z ; Client::CSwordTrail::Create
PUBLIC	?Clone@CSwordTrail@Client@@UEAAPEAVCGameObject@Engine@@PEAX@Z ; Client::CSwordTrail::Clone
PUBLIC	?Free@CSwordTrail@Client@@UEAAXXZ		; Client::CSwordTrail::Free
PUBLIC	??0CSwordTrail@Client@@QEAA@AEBV01@@Z		; Client::CSwordTrail::CSwordTrail
PUBLIC	??_GCSwordTrail@Client@@EEAAPEAXI@Z		; Client::CSwordTrail::`scalar deleting destructor'
PUBLIC	?GetLockOnTarget@CCharacter@Client@@QEAAPEAVCGameObject@Engine@@XZ ; Client::CCharacter::GetLockOnTarget
PUBLIC	??$Safe_Release@PEAVCSwordTrail@Client@@@Engine@@YAKAEAPEAVCSwordTrail@Client@@@Z ; Engine::Safe_Release<Client::CSwordTrail * __ptr64>
PUBLIC	??$Safe_Release@PEAVCRenderer@Engine@@@Engine@@YAKAEAPEAVCRenderer@0@@Z ; Engine::Safe_Release<Engine::CRenderer * __ptr64>
PUBLIC	??$Safe_Release@PEAVCTransform@Engine@@@Engine@@YAKAEAPEAVCTransform@0@@Z ; Engine::Safe_Release<Engine::CTransform * __ptr64>
PUBLIC	??$Safe_Release@PEAVCModel@Engine@@@Engine@@YAKAEAPEAVCModel@0@@Z ; Engine::Safe_Release<Engine::CModel * __ptr64>
PUBLIC	??$Safe_Release@PEAVCShader@Engine@@@Engine@@YAKAEAPEAVCShader@0@@Z ; Engine::Safe_Release<Engine::CShader * __ptr64>
PUBLIC	??_C@_1JE@DMOBBMDE@?$AAc?$AA?3?$AA?2?$AAp?$AAr?$AAo?$AAg?$AAr?$AAa?$AAm?$AA?5?$AAf?$AAi?$AAl?$AAe?$AAs?$AA?5?$AA?$CI?$AAx?$AA8?$AA6?$AA?$CJ?$AA?2?$AAw?$AAi?$AAn?$AAd?$AAo?$AAw?$AAs?$AA?5?$AAk@ ; `string'
PUBLIC	??_C@_1BA@LBADLIHI@?$AAp?$AAS?$AAo?$AAu?$AAr?$AAc?$AAe?$AA?$AA@ ; `string'
PUBLIC	?__LINE__Var@?0??XMLoadFloat4@DirectX@@YQ?AT__m128@@PEBUXMFLOAT4@2@@Z@4JA ; `DirectX::XMLoadFloat4'::`1'::__LINE__Var
PUBLIC	?__LINE__Var@?0??XMLoadFloat4x4@DirectX@@YQ?AUXMMATRIX@2@PEBUXMFLOAT4X4@2@@Z@4JA ; `DirectX::XMLoadFloat4x4'::`1'::__LINE__Var
PUBLIC	??_C@_1BK@FHLBGAOP@?$AAp?$AAD?$AAe?$AAs?$AAt?$AAi?$AAn?$AAa?$AAt?$AAi?$AAo?$AAn?$AA?$AA@ ; `string'
PUBLIC	?__LINE__Var@?0??XMStoreFloat3@DirectX@@YQXPEAUXMFLOAT3@2@T__m128@@@Z@4JA ; `DirectX::XMStoreFloat3'::`1'::__LINE__Var
PUBLIC	?__LINE__Var@?0??XMStoreFloat4x4@DirectX@@YQXPEAUXMFLOAT4X4@2@UXMMATRIX@2@@Z@4JA ; `DirectX::XMStoreFloat4x4'::`1'::__LINE__Var
PUBLIC	??_C@_1IO@CGGKMODJ@?$AAc?$AA?3?$AA?2?$AAp?$AAr?$AAo?$AAg?$AAr?$AAa?$AAm?$AA?5?$AAf?$AAi?$AAl?$AAe?$AAs?$AA?5?$AA?$CI?$AAx?$AA8?$AA6?$AA?$CJ?$AA?2?$AAw?$AAi?$AAn?$AAd?$AAo?$AAw?$AAs?$AA?5?$AAk@ ; `string'
PUBLIC	?__LINE__Var@?0??XMScalarSinCos@DirectX@@YAXPEAM0M@Z@4JA ; `DirectX::XMScalarSinCos'::`1'::__LINE__Var
PUBLIC	??_C@_19MFJHDIJG@?$AAp?$AAS?$AAi?$AAn?$AA?$AA@	; `string'
PUBLIC	??_C@_19MNAGGFOC@?$AAp?$AAC?$AAo?$AAs?$AA?$AA@	; `string'
PUBLIC	??_7CSwordTrail@Client@@6B@			; Client::CSwordTrail::`vftable'
PUBLIC	??_C@_1BM@CJMPMHDD@?$AAc?$AAo?$AAm?$AA_?$AAt?$AAr?$AAa?$AAn?$AAs?$AAf?$AAo?$AAr?$AAm?$AA?$AA@ ; `string'
PUBLIC	??_C@_06HFDDOAAP@Bip001?$AA@			; `string'
PUBLIC	??_C@_0O@PFNLPMLD@g_WorldMatrix?$AA@		; `string'
PUBLIC	??_C@_0BB@FMIBAICL@g_DiffuseTexture?$AA@	; `string'
PUBLIC	??_C@_0O@OFKPLLDO@g_MaskTexture?$AA@		; `string'
PUBLIC	??_C@_1BK@GIOMOCNE@?$AAc?$AAo?$AAm?$AA_?$AAr?$AAe?$AAn?$AAd?$AAe?$AAr?$AAe?$AAr?$AA?$AA@ ; `string'
PUBLIC	??_C@_1CG@COFFFCLL@?$AAp?$AAr?$AAo?$AAt?$AAo?$AA_?$AAc?$AAo?$AAm?$AA_?$AAr?$AAe?$AAn?$AAd?$AAe?$AAr?$AAe?$AAr?$AA?$AA@ ; `string'
PUBLIC	??_C@_1CI@MLEFGO@?$AAp?$AAr?$AAo?$AAt?$AAo?$AA_?$AAc?$AAo?$AAm?$AA_?$AAt?$AAr?$AAa?$AAn?$AAs?$AAf?$AAo?$AAr?$AAm?$AA?$AA@ ; `string'
PUBLIC	??_C@_1CE@KOCABLBN@?$AAc?$AAo?$AAm?$AA_?$AAt?$AAr?$AAa?$AAn?$AAs?$AAf?$AAo?$AAr?$AAm?$AA_?$AAh?$AAi?$AAt?$AA?$AA@ ; `string'
PUBLIC	??_C@_1BG@GGOMMBBL@?$AAc?$AAo?$AAm?$AA_?$AAs?$AAh?$AAa?$AAd?$AAe?$AAr?$AA?$AA@ ; `string'
PUBLIC	??_C@_1DI@BGEBANJE@?$AAp?$AAr?$AAo?$AAt?$AAo?$AA_?$AAc?$AAo?$AAm?$AA_?$AAs?$AAh?$AAa?$AAd?$AAe?$AAr?$AA_?$AAs?$AAw?$AAo?$AAr?$AAd?$AAt?$AAr?$AAa?$AAi?$AAl?$AA?$AA@ ; `string'
PUBLIC	??_C@_1BE@MLNOEPCA@?$AAc?$AAo?$AAm?$AA_?$AAm?$AAo?$AAd?$AAe?$AAl?$AA?$AA@ ; `string'
PUBLIC	??_C@_1DI@POIBNDHN@?$AAp?$AAr?$AAo?$AAt?$AAo?$AA_?$AAc?$AAo?$AAm?$AA_?$AAm?$AAo?$AAd?$AAe?$AAl?$AA_?$AAs?$AAw?$AAo?$AAr?$AAd?$AA_?$AAt?$AAr?$AAa?$AAi?$AAl?$AA?$AA@ ; `string'
PUBLIC	??_C@_1BG@CJMFIDFH@?$AAc?$AAo?$AAm?$AA_?$AAm?$AAo?$AAd?$AAe?$AAl?$AA2?$AA?$AA@ ; `string'
PUBLIC	??_C@_1DK@NPGJEKHO@?$AAp?$AAr?$AAo?$AAt?$AAo?$AA_?$AAc?$AAo?$AAm?$AA_?$AAm?$AAo?$AAd?$AAe?$AAl?$AA_?$AAs?$AAw?$AAo?$AAr?$AAd?$AA_?$AAt?$AAr?$AAa?$AAi?$AAl?$AA2?$AA?$AA@ ; `string'
PUBLIC	??_C@_1CI@OHFOAEBJ@?$AAc?$AAo?$AAm?$AA_?$AAd?$AAi?$AAf?$AAf?$AAu?$AAs?$AAe?$AA_?$AAt?$AAe?$AAx?$AAt?$AAu?$AAr?$AAe?$AA?$AA@ ; `string'
PUBLIC	??_C@_1DM@FJLLPLLI@?$AAp?$AAr?$AAo?$AAt?$AAo?$AA_?$AAc?$AAo?$AAm?$AA_?$AAt?$AAe?$AAx?$AAt?$AAu?$AAr?$AAe?$AA_?$AAs?$AAw?$AAo?$AAr?$AAd?$AA_?$AAm?$AAa?$AAs?$AAk?$AA1?$AA?$AA@ ; `string'
PUBLIC	??_C@_1CC@DOHGOBHP@?$AAc?$AAo?$AAm?$AA_?$AAm?$AAa?$AAs?$AAk?$AA_?$AAt?$AAe?$AAx?$AAt?$AAu?$AAr?$AAe?$AA?$AA@ ; `string'
PUBLIC	??_C@_1DM@ELAOFEFG@?$AAp?$AAr?$AAo?$AAt?$AAo?$AA_?$AAc?$AAo?$AAm?$AA_?$AAt?$AAe?$AAx?$AAt?$AAu?$AAr?$AAe?$AA_?$AAs?$AAw?$AAo?$AAr?$AAd?$AA_?$AAm?$AAa?$AAs?$AAk?$AA2?$AA?$AA@ ; `string'
PUBLIC	??_C@_0N@ELIMCBLG@g_ViewMatrix?$AA@		; `string'
PUBLIC	??_C@_0N@OOHDPIO@g_ProjMatrix?$AA@		; `string'
PUBLIC	??_C@_0P@BDEIJKBM@g_vCamPosition?$AA@		; `string'
PUBLIC	??_C@_0L@IHOCIKLF@g_fTimeAcc?$AA@		; `string'
PUBLIC	?__LINE__Var@?0??Create@CSwordTrail@Client@@SAPEAV23@PEAUID3D11Device@@PEAUID3D11DeviceContext@@@Z@4JA ; `Client::CSwordTrail::Create'::`1'::__LINE__Var
PUBLIC	??_C@_0EI@PNAAOEDN@c?3?2users?2arcco?2documents?2github?2@ ; `string'
PUBLIC	??_C@_1BA@HHOMBECE@?$AAM?$AAe?$AAs?$AAs?$AAa?$AAg?$AAe?$AA?$AA@ ; `string'
PUBLIC	??_C@_1DO@KJALPEDK@?$AAF?$AAa?$AAi?$AAl?$AAe?$AAd?$AA?5?$AAt?$AAo?$AA?5?$AAC?$AAr?$AAe?$AAa?$AAt?$AAe?$AA?5?$AA?3?$AA?5?$AAC?$AAS?$AAw?$AAo?$AAr?$AAd?$AAT?$AAr?$AAa?$AAi?$AAl?$AA?$AA@ ; `string'
PUBLIC	?__LINE__Var@?0??Clone@CSwordTrail@Client@@UEAAPEAVCGameObject@Engine@@PEAX@Z@4JA ; `Client::CSwordTrail::Clone'::`1'::__LINE__Var
PUBLIC	??_C@_1DM@LKGHHEKE@?$AAF?$AAa?$AAi?$AAl?$AAe?$AAd?$AA?5?$AAt?$AAo?$AA?5?$AAC?$AAl?$AAo?$AAn?$AAe?$AA?5?$AA?3?$AA?5?$AAC?$AAS?$AAw?$AAo?$AAr?$AAd?$AAT?$AAr?$AAa?$AAi?$AAl?$AA?$AA@ ; `string'
PUBLIC	??_R4CSwordTrail@Client@@6B@			; Client::CSwordTrail::`RTTI Complete Object Locator'
PUBLIC	??_R0?AVCSwordTrail@Client@@@8			; Client::CSwordTrail `RTTI Type Descriptor'
PUBLIC	??_R3CSwordTrail@Client@@8			; Client::CSwordTrail::`RTTI Class Hierarchy Descriptor'
PUBLIC	??_R2CSwordTrail@Client@@8			; Client::CSwordTrail::`RTTI Base Class Array'
PUBLIC	??_R1A@?0A@EA@CSwordTrail@Client@@8		; Client::CSwordTrail::`RTTI Base Class Descriptor at (0,-1,0,64)'
PUBLIC	??_R1A@?0A@EA@CGameObject@Engine@@8		; Engine::CGameObject::`RTTI Base Class Descriptor at (0,-1,0,64)'
PUBLIC	??_R0?AVCGameObject@Engine@@@8			; Engine::CGameObject `RTTI Type Descriptor'
PUBLIC	??_R3CGameObject@Engine@@8			; Engine::CGameObject::`RTTI Class Hierarchy Descriptor'
PUBLIC	??_R2CGameObject@Engine@@8			; Engine::CGameObject::`RTTI Base Class Array'
PUBLIC	??_R1A@?0A@EA@CBase@Engine@@8			; Engine::CBase::`RTTI Base Class Descriptor at (0,-1,0,64)'
PUBLIC	??_R0?AVCBase@Engine@@@8			; Engine::CBase `RTTI Type Descriptor'
PUBLIC	??_R3CBase@Engine@@8				; Engine::CBase::`RTTI Class Hierarchy Descriptor'
PUBLIC	??_R2CBase@Engine@@8				; Engine::CBase::`RTTI Base Class Array'
PUBLIC	__real@00000000
PUBLIC	__real@3638b88e
PUBLIC	__real@37cfb4c2
PUBLIC	__real@39500bf1
PUBLIC	__real@3ab609aa
PUBLIC	__real@3c088886
PUBLIC	__real@3c8efa35
PUBLIC	__real@3d2aaaa3
PUBLIC	__real@3dcccccd
PUBLIC	__real@3e22f983
PUBLIC	__real@3e2aaaab
PUBLIC	__real@3f000000
PUBLIC	__real@3f800000
PUBLIC	__real@3fc00000
PUBLIC	__real@3fc90fdb
PUBLIC	__real@40490fdb
PUBLIC	__real@40c90fdb
PUBLIC	__real@b2cd365b
PUBLIC	__real@b48bdd11
PUBLIC	__real@bf800000
PUBLIC	__real@bfc90fdb
PUBLIC	__real@c0490fdb
EXTRN	??3@YAXPEAX_K@Z:PROC				; operator delete
EXTRN	__imp_MessageBoxW:PROC
EXTRN	__imp__wassert:PROC
EXTRN	??2@YAPEAX_KHPEBDH@Z:PROC			; operator new
EXTRN	??3@YAXPEAXHPEBDH@Z:PROC			; operator delete
EXTRN	__imp_?Release@CBase@Engine@@QEAAKXZ:PROC
EXTRN	__imp_??0CGameObject@Engine@@IEAA@PEAUID3D11Device@@PEAUID3D11DeviceContext@@@Z:PROC
EXTRN	__imp_??0CGameObject@Engine@@IEAA@AEBV01@@Z:PROC
EXTRN	__imp_??1CGameObject@Engine@@MEAA@XZ:PROC
EXTRN	__imp_?Initialize_Prototype@CGameObject@Engine@@UEAAJXZ:PROC
EXTRN	__imp_?Initialize@CGameObject@Engine@@UEAAJPEAX@Z:PROC
EXTRN	__imp_?Tick@CGameObject@Engine@@UEAAXN@Z:PROC
EXTRN	__imp_?LateTick@CGameObject@Engine@@UEAAXN@Z:PROC
EXTRN	__imp_?Render@CGameObject@Engine@@UEAAJXZ:PROC
EXTRN	__imp_?Find_Component@CGameObject@Engine@@QEAAPEAVCComponent@2@PEB_W@Z:PROC
EXTRN	__imp_?Add_Component@CGameObject@Engine@@IEAAJIPEB_W0PEAPEAVCComponent@2@PEAX@Z:PROC
EXTRN	__imp_?Free@CGameObject@Engine@@UEAAXXZ:PROC
EXTRN	??_ECSwordTrail@Client@@EEAAPEAXI@Z:PROC	; Client::CSwordTrail::`vector deleting destructor'
EXTRN	__imp_?Render@CModel@Engine@@QEAAJI@Z:PROC
EXTRN	__imp_?Get_MeshCount@CModel@Engine@@QEAAIXZ:PROC
EXTRN	__imp_?Get_State@CTransform@Engine@@QEAA?AT__m128@@W4STATE@12@@Z:PROC
EXTRN	__imp_?Get_WorldMatrix@CTransform@Engine@@QEAA?AUXMFLOAT4X4@DirectX@@XZ:PROC
EXTRN	__imp_?Set_WorldMatrix@CTransform@Engine@@QEAAXUXMFLOAT4X4@DirectX@@@Z:PROC
EXTRN	__imp_?Set_Scale@CTransform@Engine@@QEAAXUXMFLOAT3@DirectX@@@Z:PROC
EXTRN	__imp_?Set_State@CTransform@Engine@@QEAAXW4STATE@12@T__m128@@@Z:PROC
EXTRN	__imp_?Setup_ShaderResource@CTransform@Engine@@QEAAJPEAVCShader@2@PEBD@Z:PROC
EXTRN	__imp_?Add_RenderGroup@CRenderer@Engine@@QEAAJW4RENDER_GROUP@12@PEAVCGameObject@2@@Z:PROC
EXTRN	__imp_?Setup_ShaderResource@CTexture@Engine@@QEAAJPEAVCShader@2@PEBDI@Z:PROC
EXTRN	__imp_?Begin@CShader@Engine@@QEAAJI@Z:PROC
EXTRN	__imp_?SetMatrix@CShader@Engine@@QEAAJPEBDPEBUXMFLOAT4X4@DirectX@@@Z:PROC
EXTRN	__imp_?SetRawValue@CShader@Engine@@QEAAJPEBDPEBXI@Z:PROC
EXTRN	__imp_?GetInstance@CPipeLine@Engine@@SAPEAV12@XZ:PROC
EXTRN	__imp_?Get_CamPosition@CPipeLine@Engine@@QEAA?AUXMFLOAT4@DirectX@@XZ:PROC
EXTRN	__imp_?GetInstance@CGameInstance@Engine@@SAPEAV12@XZ:PROC
EXTRN	__imp_?Get_Transform_float4x4@CGameInstance@Engine@@QEAA?AUXMFLOAT4X4@DirectX@@W4TRANSFORM_STATE@CPipeLine@2@@Z:PROC
EXTRN	__imp_?Get_CamPosition@CGameInstance@Engine@@QEAA?AUXMFLOAT4@DirectX@@XZ:PROC
EXTRN	?GetBone@CCharacter@Client@@QEBAPEBVCBone@Engine@@PEBD@Z:PROC ; Client::CCharacter::GetBone
EXTRN	_RTC_CheckStackVars:PROC
EXTRN	_RTC_InitBase:PROC
EXTRN	_RTC_Shutdown:PROC
EXTRN	__CxxFrameHandler3:PROC
EXTRN	__GSHandlerCheck:PROC
EXTRN	__GSHandlerCheck_EH:PROC
EXTRN	__chkstk:PROC
EXTRN	__security_check_cookie:PROC
EXTRN	??_7type_info@@6B@:BYTE				; type_info::`vftable'
EXTRN	__security_cookie:QWORD
EXTRN	_fltused:DWORD
;	COMDAT pdata
pdata	SEGMENT
$pdata$??_H@YAXPEAX_K1P6APEAX0@Z@Z DD imagerel $LN7
	DD	imagerel $LN7+181
	DD	imagerel $unwind$??_H@YAXPEAX_K1P6APEAX0@Z@Z
pdata	ENDS
;	COMDAT pdata
pdata	SEGMENT
$pdata$?__empty_global_delete@@YAXPEAX@Z DD imagerel $LN3
	DD	imagerel $LN3+50
	DD	imagerel $unwind$?__empty_global_delete@@YAXPEAX@Z
pdata	ENDS
;	COMDAT pdata
pdata	SEGMENT
$pdata$?__empty_global_delete@@YAXPEAX_K@Z DD imagerel $LN3
	DD	imagerel $LN3+55
	DD	imagerel $unwind$?__empty_global_delete@@YAXPEAX_K@Z
pdata	ENDS
;	COMDAT pdata
pdata	SEGMENT
$pdata$?XMConvertToRadians@DirectX@@YAMM@Z DD imagerel $LN3
	DD	imagerel $LN3+61
	DD	imagerel $unwind$?XMConvertToRadians@DirectX@@YAMM@Z
pdata	ENDS
;	COMDAT pdata
pdata	SEGMENT
$pdata$??BXMVECTORF32@DirectX@@QEBA?AT__m128@@XZ DD imagerel $LN3
	DD	imagerel $LN3+82
	DD	imagerel $unwind$??BXMVECTORF32@DirectX@@QEBA?AT__m128@@XZ
pdata	ENDS
;	COMDAT pdata
pdata	SEGMENT
$pdata$??BXMVECTORI32@DirectX@@QEBA?AT__m128@@XZ DD imagerel $LN3
	DD	imagerel $LN3+82
	DD	imagerel $unwind$??BXMVECTORI32@DirectX@@QEBA?AT__m128@@XZ
pdata	ENDS
;	COMDAT pdata
pdata	SEGMENT
$pdata$??HDirectX@@YQ?AT__m128@@T1@0@Z DD imagerel $LN3
	DD	imagerel $LN3+99
	DD	imagerel $unwind$??HDirectX@@YQ?AT__m128@@T1@0@Z
pdata	ENDS
;	COMDAT pdata
pdata	SEGMENT
$pdata$??GDirectX@@YQ?AT__m128@@T1@0@Z DD imagerel $LN3
	DD	imagerel $LN3+99
	DD	imagerel $unwind$??GDirectX@@YQ?AT__m128@@T1@0@Z
pdata	ENDS
;	COMDAT pdata
pdata	SEGMENT
$pdata$??DDirectX@@YQ?AT__m128@@T1@M@Z DD imagerel $LN3
	DD	imagerel $LN3+92
	DD	imagerel $unwind$??DDirectX@@YQ?AT__m128@@T1@M@Z
pdata	ENDS
;	COMDAT pdata
pdata	SEGMENT
$pdata$??0XMMATRIX@DirectX@@QEAA@XZ DD imagerel $LN3
	DD	imagerel $LN3+57
	DD	imagerel $unwind$??0XMMATRIX@DirectX@@QEAA@XZ
pdata	ENDS
;	COMDAT pdata
pdata	SEGMENT
$pdata$??4XMMATRIX@DirectX@@QEAAAEAU01@AEBU01@@Z DD imagerel $LN3
	DD	imagerel $LN3+226
	DD	imagerel $unwind$??4XMMATRIX@DirectX@@QEAAAEAU01@AEBU01@@Z
pdata	ENDS
;	COMDAT pdata
pdata	SEGMENT
$pdata$??DXMMATRIX@DirectX@@QEBQ?AU01@U01@@Z DD imagerel $LN3
	DD	imagerel $LN3+224
	DD	imagerel $unwind$??DXMMATRIX@DirectX@@QEBQ?AU01@U01@@Z
pdata	ENDS
;	COMDAT pdata
pdata	SEGMENT
$pdata$??0XMFLOAT3@DirectX@@QEAA@XZ DD imagerel $LN3
	DD	imagerel $LN3+57
	DD	imagerel $unwind$??0XMFLOAT3@DirectX@@QEAA@XZ
pdata	ENDS
;	COMDAT pdata
pdata	SEGMENT
$pdata$??0XMFLOAT3@DirectX@@QEAA@MMM@Z DD imagerel $LN3
	DD	imagerel $LN3+134
	DD	imagerel $unwind$??0XMFLOAT3@DirectX@@QEAA@MMM@Z
pdata	ENDS
;	COMDAT pdata
pdata	SEGMENT
$pdata$??0XMFLOAT4X4@DirectX@@QEAA@XZ DD imagerel $LN3
	DD	imagerel $LN3+57
	DD	imagerel $unwind$??0XMFLOAT4X4@DirectX@@QEAA@XZ
pdata	ENDS
;	COMDAT pdata
pdata	SEGMENT
$pdata$?XMLoadFloat4@DirectX@@YQ?AT__m128@@PEBUXMFLOAT4@1@@Z DD imagerel $LN4
	DD	imagerel $LN4+119
	DD	imagerel $unwind$?XMLoadFloat4@DirectX@@YQ?AT__m128@@PEBUXMFLOAT4@1@@Z
pdata	ENDS
;	COMDAT pdata
pdata	SEGMENT
$pdata$?XMLoadFloat4x4@DirectX@@YQ?AUXMMATRIX@1@PEBUXMFLOAT4X4@1@@Z DD imagerel $LN4
	DD	imagerel $LN4+344
	DD	imagerel $unwind$?XMLoadFloat4x4@DirectX@@YQ?AUXMMATRIX@1@PEBUXMFLOAT4X4@1@@Z
pdata	ENDS
;	COMDAT pdata
pdata	SEGMENT
$pdata$?XMStoreFloat3@DirectX@@YQXPEAUXMFLOAT3@1@T__m128@@@Z DD imagerel $LN4
	DD	imagerel $LN4+218
	DD	imagerel $unwind$?XMStoreFloat3@DirectX@@YQXPEAUXMFLOAT3@1@T__m128@@@Z
pdata	ENDS
;	COMDAT pdata
pdata	SEGMENT
$pdata$?XMStoreFloat4x4@DirectX@@YQXPEAUXMFLOAT4X4@1@UXMMATRIX@1@@Z DD imagerel $LN4
	DD	imagerel $LN4+247
	DD	imagerel $unwind$?XMStoreFloat4x4@DirectX@@YQXPEAUXMFLOAT4X4@1@UXMMATRIX@1@@Z
pdata	ENDS
;	COMDAT pdata
pdata	SEGMENT
$pdata$?XMVectorGetX@DirectX@@YQMT__m128@@@Z DD imagerel $LN3
	DD	imagerel $LN3+76
	DD	imagerel $unwind$?XMVectorGetX@DirectX@@YQMT__m128@@@Z
pdata	ENDS
;	COMDAT pdata
pdata	SEGMENT
$pdata$?XMVectorGetY@DirectX@@YQMT__m128@@@Z DD imagerel $LN3
	DD	imagerel $LN3+103
	DD	imagerel $unwind$?XMVectorGetY@DirectX@@YQMT__m128@@@Z
pdata	ENDS
;	COMDAT pdata
pdata	SEGMENT
$pdata$?XMVectorSetY@DirectX@@YQ?AT__m128@@T2@M@Z DD imagerel $LN3
	DD	imagerel $LN3+185
	DD	imagerel $unwind$?XMVectorSetY@DirectX@@YQ?AT__m128@@T2@M@Z
pdata	ENDS
;	COMDAT pdata
pdata	SEGMENT
$pdata$?XMVectorAdd@DirectX@@YQ?AT__m128@@T2@0@Z DD imagerel $LN3
	DD	imagerel $LN3+94
	DD	imagerel $unwind$?XMVectorAdd@DirectX@@YQ?AT__m128@@T2@0@Z
pdata	ENDS
;	COMDAT pdata
pdata	SEGMENT
$pdata$?XMVectorSubtract@DirectX@@YQ?AT__m128@@T2@0@Z DD imagerel $LN3
	DD	imagerel $LN3+94
	DD	imagerel $unwind$?XMVectorSubtract@DirectX@@YQ?AT__m128@@T2@0@Z
pdata	ENDS
;	COMDAT pdata
pdata	SEGMENT
$pdata$?XMVectorScale@DirectX@@YQ?AT__m128@@T2@M@Z DD imagerel $LN3
	DD	imagerel $LN3+113
	DD	imagerel $unwind$?XMVectorScale@DirectX@@YQ?AT__m128@@T2@M@Z
pdata	ENDS
;	COMDAT pdata
pdata	SEGMENT
$pdata$?XMVector3Length@DirectX@@YQ?AT__m128@@T2@@Z DD imagerel $LN3
	DD	imagerel $LN3+243
	DD	imagerel $unwind$?XMVector3Length@DirectX@@YQ?AT__m128@@T2@@Z
pdata	ENDS
;	COMDAT pdata
pdata	SEGMENT
$pdata$?XMVector3Normalize@DirectX@@YQ?AT__m128@@T2@@Z DD imagerel $LN3
	DD	imagerel $LN3+535
	DD	imagerel $unwind$?XMVector3Normalize@DirectX@@YQ?AT__m128@@T2@@Z
pdata	ENDS
;	COMDAT pdata
pdata	SEGMENT
$pdata$?XMMatrixMultiply@DirectX@@YQ?AUXMMATRIX@1@U21@AEBU21@@Z DD imagerel $LN3
	DD	imagerel $LN3+2098
	DD	imagerel $unwind$?XMMatrixMultiply@DirectX@@YQ?AUXMMATRIX@1@U21@AEBU21@@Z
pdata	ENDS
;	COMDAT pdata
pdata	SEGMENT
$pdata$?XMMatrixRotationX@DirectX@@YQ?AUXMMATRIX@1@M@Z DD imagerel $LN3
	DD	imagerel $LN3+480
	DD	imagerel $unwind$?XMMatrixRotationX@DirectX@@YQ?AUXMMATRIX@1@M@Z
pdata	ENDS
;	COMDAT pdata
pdata	SEGMENT
$pdata$?XMMatrixRotationY@DirectX@@YQ?AUXMMATRIX@1@M@Z DD imagerel $LN3
	DD	imagerel $LN3+456
	DD	imagerel $unwind$?XMMatrixRotationY@DirectX@@YQ?AUXMMATRIX@1@M@Z
pdata	ENDS
;	COMDAT pdata
pdata	SEGMENT
$pdata$?XMMatrixRotationZ@DirectX@@YQ?AUXMMATRIX@1@M@Z DD imagerel $LN3
	DD	imagerel $LN3+479
	DD	imagerel $unwind$?XMMatrixRotationZ@DirectX@@YQ?AUXMMATRIX@1@M@Z
pdata	ENDS
;	COMDAT pdata
pdata	SEGMENT
$pdata$?XMScalarSinCos@DirectX@@YAXPEAM0M@Z DD imagerel $LN11
	DD	imagerel $LN11+591
	DD	imagerel $unwind$?XMScalarSinCos@DirectX@@YAXPEAM0M@Z
pdata	ENDS
;	COMDAT pdata
pdata	SEGMENT
$pdata$??0CSwordTrail@Client@@AEAA@PEAUID3D11Device@@PEAUID3D11DeviceContext@@@Z DD imagerel $LN4
	DD	imagerel $LN4+486
	DD	imagerel $unwind$??0CSwordTrail@Client@@AEAA@PEAUID3D11Device@@PEAUID3D11DeviceContext@@@Z
pdata	ENDS
;	COMDAT pdata
pdata	SEGMENT
$pdata$?dtor$0@?0???0CSwordTrail@Client@@AEAA@PEAUID3D11Device@@PEAUID3D11DeviceContext@@@Z@4HA DD imagerel ?dtor$0@?0???0CSwordTrail@Client@@AEAA@PEAUID3D11Device@@PEAUID3D11DeviceContext@@@Z@4HA
	DD	imagerel ?dtor$0@?0???0CSwordTrail@Client@@AEAA@PEAUID3D11Device@@PEAUID3D11DeviceContext@@@Z@4HA+40
	DD	imagerel $unwind$?dtor$0@?0???0CSwordTrail@Client@@AEAA@PEAUID3D11Device@@PEAUID3D11DeviceContext@@@Z@4HA
pdata	ENDS
;	COMDAT pdata
pdata	SEGMENT
$pdata$??1CSwordTrail@Client@@EEAA@XZ DD imagerel $LN3
	DD	imagerel $LN3+65
	DD	imagerel $unwind$??1CSwordTrail@Client@@EEAA@XZ
pdata	ENDS
;	COMDAT pdata
pdata	SEGMENT
$pdata$?Initialize_Prototype@CSwordTrail@Client@@UEAAJXZ DD imagerel $LN4
	DD	imagerel $LN4+78
	DD	imagerel $unwind$?Initialize_Prototype@CSwordTrail@Client@@UEAAJXZ
pdata	ENDS
;	COMDAT pdata
pdata	SEGMENT
$pdata$?Initialize@CSwordTrail@Client@@UEAAJPEAX@Z DD imagerel $LN7
	DD	imagerel $LN7+328
	DD	imagerel $unwind$?Initialize@CSwordTrail@Client@@UEAAJPEAX@Z
pdata	ENDS
;	COMDAT pdata
pdata	SEGMENT
$pdata$?Tick@CSwordTrail@Client@@UEAAXN@Z DD imagerel $LN5
	DD	imagerel $LN5+304
	DD	imagerel $unwind$?Tick@CSwordTrail@Client@@UEAAXN@Z
pdata	ENDS
;	COMDAT pdata
pdata	SEGMENT
$pdata$?LateTick@CSwordTrail@Client@@UEAAXN@Z DD imagerel $LN5
	DD	imagerel $LN5+160
	DD	imagerel $unwind$?LateTick@CSwordTrail@Client@@UEAAXN@Z
pdata	ENDS
;	COMDAT pdata
pdata	SEGMENT
$pdata$?Render@CSwordTrail@Client@@UEAAJXZ DD imagerel $LN18
	DD	imagerel $LN18+645
	DD	imagerel $unwind$?Render@CSwordTrail@Client@@UEAAJXZ
pdata	ENDS
;	COMDAT pdata
pdata	SEGMENT
$pdata$?RenderGUI@CSwordTrail@Client@@UEAAXXZ DD imagerel $LN3
	DD	imagerel $LN3+50
	DD	imagerel $unwind$?RenderGUI@CSwordTrail@Client@@UEAAXXZ
pdata	ENDS
;	COMDAT pdata
pdata	SEGMENT
$pdata$?AddComponents@CSwordTrail@Client@@AEAAJXZ DD imagerel $LN11
	DD	imagerel $LN11+606
	DD	imagerel $unwind$?AddComponents@CSwordTrail@Client@@AEAAJXZ
pdata	ENDS
;	COMDAT pdata
pdata	SEGMENT
$pdata$?SetupShaderResources@CSwordTrail@Client@@AEAAJXZ DD imagerel $LN9
	DD	imagerel $LN9+398
	DD	imagerel $unwind$?SetupShaderResources@CSwordTrail@Client@@AEAAJXZ
pdata	ENDS
;	COMDAT pdata
pdata	SEGMENT
$pdata$?Reset@CSwordTrail@Client@@QEAAXXZ DD imagerel $LN3
	DD	imagerel $LN3+155
	DD	imagerel $unwind$?Reset@CSwordTrail@Client@@QEAAXXZ
pdata	ENDS
;	COMDAT pdata
pdata	SEGMENT
$pdata$?EffectStart@CSwordTrail@Client@@QEAAXUXMFLOAT3@DirectX@@0@Z DD imagerel $LN4
	DD	imagerel $LN4+2430
	DD	imagerel $unwind$?EffectStart@CSwordTrail@Client@@QEAAXUXMFLOAT3@DirectX@@0@Z
pdata	ENDS
;	COMDAT pdata
pdata	SEGMENT
$pdata$?SetHitPosition@CSwordTrail@Client@@QEAAXT__m128@@@Z DD imagerel $LN3
	DD	imagerel $LN3+55
	DD	imagerel $unwind$?SetHitPosition@CSwordTrail@Client@@QEAAXT__m128@@@Z
pdata	ENDS
;	COMDAT pdata
pdata	SEGMENT
$pdata$?GetLengthFromCamera@CSwordTrail@Client@@UEAAMXZ DD imagerel $LN3
	DD	imagerel $LN3+262
	DD	imagerel $unwind$?GetLengthFromCamera@CSwordTrail@Client@@UEAAMXZ
pdata	ENDS
;	COMDAT pdata
pdata	SEGMENT
$pdata$?Create@CSwordTrail@Client@@SAPEAV12@PEAUID3D11Device@@PEAUID3D11DeviceContext@@@Z DD imagerel $LN7
	DD	imagerel $LN7+294
	DD	imagerel $unwind$?Create@CSwordTrail@Client@@SAPEAV12@PEAUID3D11Device@@PEAUID3D11DeviceContext@@@Z
pdata	ENDS
;	COMDAT pdata
pdata	SEGMENT
$pdata$?dtor$0@?0??Create@CSwordTrail@Client@@SAPEAV12@PEAUID3D11Device@@PEAUID3D11DeviceContext@@@Z@4HA DD imagerel ?dtor$0@?0??Create@CSwordTrail@Client@@SAPEAV12@PEAUID3D11Device@@PEAUID3D11DeviceContext@@@Z@4HA
	DD	imagerel ?dtor$0@?0??Create@CSwordTrail@Client@@SAPEAV12@PEAUID3D11Device@@PEAUID3D11DeviceContext@@@Z@4HA+61
	DD	imagerel $unwind$?dtor$0@?0??Create@CSwordTrail@Client@@SAPEAV12@PEAUID3D11Device@@PEAUID3D11DeviceContext@@@Z@4HA
pdata	ENDS
;	COMDAT pdata
pdata	SEGMENT
$pdata$?Clone@CSwordTrail@Client@@UEAAPEAVCGameObject@Engine@@PEAX@Z DD imagerel $LN7
	DD	imagerel $LN7+294
	DD	imagerel $unwind$?Clone@CSwordTrail@Client@@UEAAPEAVCGameObject@Engine@@PEAX@Z
pdata	ENDS
;	COMDAT pdata
pdata	SEGMENT
$pdata$?dtor$0@?0??Clone@CSwordTrail@Client@@UEAAPEAVCGameObject@Engine@@PEAX@Z@4HA DD imagerel ?dtor$0@?0??Clone@CSwordTrail@Client@@UEAAPEAVCGameObject@Engine@@PEAX@Z@4HA
	DD	imagerel ?dtor$0@?0??Clone@CSwordTrail@Client@@UEAAPEAVCGameObject@Engine@@PEAX@Z@4HA+61
	DD	imagerel $unwind$?dtor$0@?0??Clone@CSwordTrail@Client@@UEAAPEAVCGameObject@Engine@@PEAX@Z@4HA
pdata	ENDS
;	COMDAT pdata
pdata	SEGMENT
$pdata$?Free@CSwordTrail@Client@@UEAAXXZ DD imagerel $LN3
	DD	imagerel $LN3+189
	DD	imagerel $unwind$?Free@CSwordTrail@Client@@UEAAXXZ
pdata	ENDS
;	COMDAT pdata
pdata	SEGMENT
$pdata$??0CSwordTrail@Client@@QEAA@AEBV01@@Z DD imagerel $LN4
	DD	imagerel $LN4+624
	DD	imagerel $unwind$??0CSwordTrail@Client@@QEAA@AEBV01@@Z
pdata	ENDS
;	COMDAT pdata
pdata	SEGMENT
$pdata$??_GCSwordTrail@Client@@EEAAPEAXI@Z DD imagerel $LN4
	DD	imagerel $LN4+105
	DD	imagerel $unwind$??_GCSwordTrail@Client@@EEAAPEAXI@Z
pdata	ENDS
;	COMDAT pdata
pdata	SEGMENT
$pdata$?GetLockOnTarget@CCharacter@Client@@QEAAPEAVCGameObject@Engine@@XZ DD imagerel $LN5
	DD	imagerel $LN5+108
	DD	imagerel $unwind$?GetLockOnTarget@CCharacter@Client@@QEAAPEAVCGameObject@Engine@@XZ
pdata	ENDS
;	COMDAT pdata
pdata	SEGMENT
$pdata$??$Safe_Release@PEAVCSwordTrail@Client@@@Engine@@YAKAEAPEAVCSwordTrail@Client@@@Z DD imagerel $LN5
	DD	imagerel $LN5+114
	DD	imagerel $unwind$??$Safe_Release@PEAVCSwordTrail@Client@@@Engine@@YAKAEAPEAVCSwordTrail@Client@@@Z
pdata	ENDS
;	COMDAT pdata
pdata	SEGMENT
$pdata$??$Safe_Release@PEAVCRenderer@Engine@@@Engine@@YAKAEAPEAVCRenderer@0@@Z DD imagerel $LN5
	DD	imagerel $LN5+114
	DD	imagerel $unwind$??$Safe_Release@PEAVCRenderer@Engine@@@Engine@@YAKAEAPEAVCRenderer@0@@Z
pdata	ENDS
;	COMDAT pdata
pdata	SEGMENT
$pdata$??$Safe_Release@PEAVCTransform@Engine@@@Engine@@YAKAEAPEAVCTransform@0@@Z DD imagerel $LN5
	DD	imagerel $LN5+114
	DD	imagerel $unwind$??$Safe_Release@PEAVCTransform@Engine@@@Engine@@YAKAEAPEAVCTransform@0@@Z
pdata	ENDS
;	COMDAT pdata
pdata	SEGMENT
$pdata$??$Safe_Release@PEAVCModel@Engine@@@Engine@@YAKAEAPEAVCModel@0@@Z DD imagerel $LN5
	DD	imagerel $LN5+114
	DD	imagerel $unwind$??$Safe_Release@PEAVCModel@Engine@@@Engine@@YAKAEAPEAVCModel@0@@Z
pdata	ENDS
;	COMDAT pdata
pdata	SEGMENT
$pdata$??$Safe_Release@PEAVCShader@Engine@@@Engine@@YAKAEAPEAVCShader@0@@Z DD imagerel $LN5
	DD	imagerel $LN5+114
	DD	imagerel $unwind$??$Safe_Release@PEAVCShader@Engine@@@Engine@@YAKAEAPEAVCShader@0@@Z
pdata	ENDS
;	COMDAT __real@c0490fdb
CONST	SEGMENT
__real@c0490fdb DD 0c0490fdbr			; -3.14159
CONST	ENDS
;	COMDAT __real@bfc90fdb
CONST	SEGMENT
__real@bfc90fdb DD 0bfc90fdbr			; -1.5708
CONST	ENDS
;	COMDAT __real@bf800000
CONST	SEGMENT
__real@bf800000 DD 0bf800000r			; -1
CONST	ENDS
;	COMDAT __real@b48bdd11
CONST	SEGMENT
__real@b48bdd11 DD 0b48bdd11r			; -2.60516e-07
CONST	ENDS
;	COMDAT __real@b2cd365b
CONST	SEGMENT
__real@b2cd365b DD 0b2cd365br			; -2.38899e-08
CONST	ENDS
;	COMDAT __real@40c90fdb
CONST	SEGMENT
__real@40c90fdb DD 040c90fdbr			; 6.28319
CONST	ENDS
;	COMDAT __real@40490fdb
CONST	SEGMENT
__real@40490fdb DD 040490fdbr			; 3.14159
CONST	ENDS
;	COMDAT __real@3fc90fdb
CONST	SEGMENT
__real@3fc90fdb DD 03fc90fdbr			; 1.5708
CONST	ENDS
;	COMDAT __real@3fc00000
CONST	SEGMENT
__real@3fc00000 DD 03fc00000r			; 1.5
CONST	ENDS
;	COMDAT __real@3f800000
CONST	SEGMENT
__real@3f800000 DD 03f800000r			; 1
CONST	ENDS
;	COMDAT __real@3f000000
CONST	SEGMENT
__real@3f000000 DD 03f000000r			; 0.5
CONST	ENDS
;	COMDAT __real@3e2aaaab
CONST	SEGMENT
__real@3e2aaaab DD 03e2aaaabr			; 0.166667
CONST	ENDS
;	COMDAT __real@3e22f983
CONST	SEGMENT
__real@3e22f983 DD 03e22f983r			; 0.159155
CONST	ENDS
;	COMDAT __real@3dcccccd
CONST	SEGMENT
__real@3dcccccd DD 03dcccccdr			; 0.1
CONST	ENDS
;	COMDAT __real@3d2aaaa3
CONST	SEGMENT
__real@3d2aaaa3 DD 03d2aaaa3r			; 0.0416666
CONST	ENDS
;	COMDAT __real@3c8efa35
CONST	SEGMENT
__real@3c8efa35 DD 03c8efa35r			; 0.0174533
CONST	ENDS
;	COMDAT __real@3c088886
CONST	SEGMENT
__real@3c088886 DD 03c088886r			; 0.00833333
CONST	ENDS
;	COMDAT __real@3ab609aa
CONST	SEGMENT
__real@3ab609aa DD 03ab609aar			; 0.00138884
CONST	ENDS
;	COMDAT __real@39500bf1
CONST	SEGMENT
__real@39500bf1 DD 039500bf1r			; 0.000198409
CONST	ENDS
;	COMDAT __real@37cfb4c2
CONST	SEGMENT
__real@37cfb4c2 DD 037cfb4c2r			; 2.47605e-05
CONST	ENDS
;	COMDAT __real@3638b88e
CONST	SEGMENT
__real@3638b88e DD 03638b88er			; 2.75256e-06
CONST	ENDS
;	COMDAT __real@00000000
CONST	SEGMENT
__real@00000000 DD 000000000r			; 0
CONST	ENDS
;	COMDAT rtc$TMZ
rtc$TMZ	SEGMENT
_RTC_Shutdown.rtc$TMZ DQ FLAT:_RTC_Shutdown
rtc$TMZ	ENDS
;	COMDAT rtc$IMZ
rtc$IMZ	SEGMENT
_RTC_InitBase.rtc$IMZ DQ FLAT:_RTC_InitBase
rtc$IMZ	ENDS
;	COMDAT ??_R2CBase@Engine@@8
rdata$r	SEGMENT
??_R2CBase@Engine@@8 DD imagerel ??_R1A@?0A@EA@CBase@Engine@@8 ; Engine::CBase::`RTTI Base Class Array'
	ORG $+3
rdata$r	ENDS
;	COMDAT ??_R3CBase@Engine@@8
rdata$r	SEGMENT
??_R3CBase@Engine@@8 DD 00H				; Engine::CBase::`RTTI Class Hierarchy Descriptor'
	DD	00H
	DD	01H
	DD	imagerel ??_R2CBase@Engine@@8
rdata$r	ENDS
;	COMDAT ??_R0?AVCBase@Engine@@@8
data$r	SEGMENT
??_R0?AVCBase@Engine@@@8 DQ FLAT:??_7type_info@@6B@	; Engine::CBase `RTTI Type Descriptor'
	DQ	0000000000000000H
	DB	'.?AVCBase@Engine@@', 00H
data$r	ENDS
;	COMDAT ??_R1A@?0A@EA@CBase@Engine@@8
rdata$r	SEGMENT
??_R1A@?0A@EA@CBase@Engine@@8 DD imagerel ??_R0?AVCBase@Engine@@@8 ; Engine::CBase::`RTTI Base Class Descriptor at (0,-1,0,64)'
	DD	00H
	DD	00H
	DD	0ffffffffH
	DD	00H
	DD	040H
	DD	imagerel ??_R3CBase@Engine@@8
rdata$r	ENDS
;	COMDAT ??_R2CGameObject@Engine@@8
rdata$r	SEGMENT
??_R2CGameObject@Engine@@8 DD imagerel ??_R1A@?0A@EA@CGameObject@Engine@@8 ; Engine::CGameObject::`RTTI Base Class Array'
	DD	imagerel ??_R1A@?0A@EA@CBase@Engine@@8
	ORG $+3
rdata$r	ENDS
;	COMDAT ??_R3CGameObject@Engine@@8
rdata$r	SEGMENT
??_R3CGameObject@Engine@@8 DD 00H			; Engine::CGameObject::`RTTI Class Hierarchy Descriptor'
	DD	00H
	DD	02H
	DD	imagerel ??_R2CGameObject@Engine@@8
rdata$r	ENDS
;	COMDAT ??_R0?AVCGameObject@Engine@@@8
data$r	SEGMENT
??_R0?AVCGameObject@Engine@@@8 DQ FLAT:??_7type_info@@6B@ ; Engine::CGameObject `RTTI Type Descriptor'
	DQ	0000000000000000H
	DB	'.?AVCGameObject@Engine@@', 00H
data$r	ENDS
;	COMDAT ??_R1A@?0A@EA@CGameObject@Engine@@8
rdata$r	SEGMENT
??_R1A@?0A@EA@CGameObject@Engine@@8 DD imagerel ??_R0?AVCGameObject@Engine@@@8 ; Engine::CGameObject::`RTTI Base Class Descriptor at (0,-1,0,64)'
	DD	01H
	DD	00H
	DD	0ffffffffH
	DD	00H
	DD	040H
	DD	imagerel ??_R3CGameObject@Engine@@8
rdata$r	ENDS
;	COMDAT ??_R1A@?0A@EA@CSwordTrail@Client@@8
rdata$r	SEGMENT
??_R1A@?0A@EA@CSwordTrail@Client@@8 DD imagerel ??_R0?AVCSwordTrail@Client@@@8 ; Client::CSwordTrail::`RTTI Base Class Descriptor at (0,-1,0,64)'
	DD	02H
	DD	00H
	DD	0ffffffffH
	DD	00H
	DD	040H
	DD	imagerel ??_R3CSwordTrail@Client@@8
rdata$r	ENDS
;	COMDAT ??_R2CSwordTrail@Client@@8
rdata$r	SEGMENT
??_R2CSwordTrail@Client@@8 DD imagerel ??_R1A@?0A@EA@CSwordTrail@Client@@8 ; Client::CSwordTrail::`RTTI Base Class Array'
	DD	imagerel ??_R1A@?0A@EA@CGameObject@Engine@@8
	DD	imagerel ??_R1A@?0A@EA@CBase@Engine@@8
	ORG $+3
rdata$r	ENDS
;	COMDAT ??_R3CSwordTrail@Client@@8
rdata$r	SEGMENT
??_R3CSwordTrail@Client@@8 DD 00H			; Client::CSwordTrail::`RTTI Class Hierarchy Descriptor'
	DD	00H
	DD	03H
	DD	imagerel ??_R2CSwordTrail@Client@@8
rdata$r	ENDS
;	COMDAT ??_R0?AVCSwordTrail@Client@@@8
data$r	SEGMENT
??_R0?AVCSwordTrail@Client@@@8 DQ FLAT:??_7type_info@@6B@ ; Client::CSwordTrail `RTTI Type Descriptor'
	DQ	0000000000000000H
	DB	'.?AVCSwordTrail@Client@@', 00H
data$r	ENDS
;	COMDAT ??_R4CSwordTrail@Client@@6B@
rdata$r	SEGMENT
??_R4CSwordTrail@Client@@6B@ DD 01H			; Client::CSwordTrail::`RTTI Complete Object Locator'
	DD	00H
	DD	00H
	DD	imagerel ??_R0?AVCSwordTrail@Client@@@8
	DD	imagerel ??_R3CSwordTrail@Client@@8
	DD	imagerel ??_R4CSwordTrail@Client@@6B@
rdata$r	ENDS
;	COMDAT ??_C@_1DM@LKGHHEKE@?$AAF?$AAa?$AAi?$AAl?$AAe?$AAd?$AA?5?$AAt?$AAo?$AA?5?$AAC?$AAl?$AAo?$AAn?$AAe?$AA?5?$AA?3?$AA?5?$AAC?$AAS?$AAw?$AAo?$AAr?$AAd?$AAT?$AAr?$AAa?$AAi?$AAl?$AA?$AA@
CONST	SEGMENT
??_C@_1DM@LKGHHEKE@?$AAF?$AAa?$AAi?$AAl?$AAe?$AAd?$AA?5?$AAt?$AAo?$AA?5?$AAC?$AAl?$AAo?$AAn?$AAe?$AA?5?$AA?3?$AA?5?$AAC?$AAS?$AAw?$AAo?$AAr?$AAd?$AAT?$AAr?$AAa?$AAi?$AAl?$AA?$AA@ DB 'F'
	DB	00H, 'a', 00H, 'i', 00H, 'l', 00H, 'e', 00H, 'd', 00H, ' ', 00H
	DB	't', 00H, 'o', 00H, ' ', 00H, 'C', 00H, 'l', 00H, 'o', 00H, 'n'
	DB	00H, 'e', 00H, ' ', 00H, ':', 00H, ' ', 00H, 'C', 00H, 'S', 00H
	DB	'w', 00H, 'o', 00H, 'r', 00H, 'd', 00H, 'T', 00H, 'r', 00H, 'a'
	DB	00H, 'i', 00H, 'l', 00H, 00H, 00H		; `string'
CONST	ENDS
;	COMDAT ?__LINE__Var@?0??Clone@CSwordTrail@Client@@UEAAPEAVCGameObject@Engine@@PEAX@Z@4JA
_DATA	SEGMENT
?__LINE__Var@?0??Clone@CSwordTrail@Client@@UEAAPEAVCGameObject@Engine@@PEAX@Z@4JA DD 0111H ; `Client::CSwordTrail::Clone'::`1'::__LINE__Var
_DATA	ENDS
;	COMDAT ??_C@_1DO@KJALPEDK@?$AAF?$AAa?$AAi?$AAl?$AAe?$AAd?$AA?5?$AAt?$AAo?$AA?5?$AAC?$AAr?$AAe?$AAa?$AAt?$AAe?$AA?5?$AA?3?$AA?5?$AAC?$AAS?$AAw?$AAo?$AAr?$AAd?$AAT?$AAr?$AAa?$AAi?$AAl?$AA?$AA@
CONST	SEGMENT
??_C@_1DO@KJALPEDK@?$AAF?$AAa?$AAi?$AAl?$AAe?$AAd?$AA?5?$AAt?$AAo?$AA?5?$AAC?$AAr?$AAe?$AAa?$AAt?$AAe?$AA?5?$AA?3?$AA?5?$AAC?$AAS?$AAw?$AAo?$AAr?$AAd?$AAT?$AAr?$AAa?$AAi?$AAl?$AA?$AA@ DB 'F'
	DB	00H, 'a', 00H, 'i', 00H, 'l', 00H, 'e', 00H, 'd', 00H, ' ', 00H
	DB	't', 00H, 'o', 00H, ' ', 00H, 'C', 00H, 'r', 00H, 'e', 00H, 'a'
	DB	00H, 't', 00H, 'e', 00H, ' ', 00H, ':', 00H, ' ', 00H, 'C', 00H
	DB	'S', 00H, 'w', 00H, 'o', 00H, 'r', 00H, 'd', 00H, 'T', 00H, 'r'
	DB	00H, 'a', 00H, 'i', 00H, 'l', 00H, 00H, 00H	; `string'
CONST	ENDS
;	COMDAT ??_C@_1BA@HHOMBECE@?$AAM?$AAe?$AAs?$AAs?$AAa?$AAg?$AAe?$AA?$AA@
CONST	SEGMENT
??_C@_1BA@HHOMBECE@?$AAM?$AAe?$AAs?$AAs?$AAa?$AAg?$AAe?$AA?$AA@ DB 'M', 00H
	DB	'e', 00H, 's', 00H, 's', 00H, 'a', 00H, 'g', 00H, 'e', 00H, 00H
	DB	00H						; `string'
CONST	ENDS
;	COMDAT ??_C@_0EI@PNAAOEDN@c?3?2users?2arcco?2documents?2github?2@
CONST	SEGMENT
??_C@_0EI@PNAAOEDN@c?3?2users?2arcco?2documents?2github?2@ DB 'c:\users\a'
	DB	'rcco\documents\github\framework\client\private\swordtrail.cpp'
	DB	00H						; `string'
CONST	ENDS
;	COMDAT ?__LINE__Var@?0??Create@CSwordTrail@Client@@SAPEAV23@PEAUID3D11Device@@PEAUID3D11DeviceContext@@@Z@4JA
_DATA	SEGMENT
?__LINE__Var@?0??Create@CSwordTrail@Client@@SAPEAV23@PEAUID3D11Device@@PEAUID3D11DeviceContext@@@Z@4JA DD 0105H ; `Client::CSwordTrail::Create'::`1'::__LINE__Var
_DATA	ENDS
;	COMDAT ??_C@_0L@IHOCIKLF@g_fTimeAcc?$AA@
CONST	SEGMENT
??_C@_0L@IHOCIKLF@g_fTimeAcc?$AA@ DB 'g_fTimeAcc', 00H	; `string'
CONST	ENDS
;	COMDAT ??_C@_0P@BDEIJKBM@g_vCamPosition?$AA@
CONST	SEGMENT
??_C@_0P@BDEIJKBM@g_vCamPosition?$AA@ DB 'g_vCamPosition', 00H ; `string'
CONST	ENDS
;	COMDAT ??_C@_0N@OOHDPIO@g_ProjMatrix?$AA@
CONST	SEGMENT
??_C@_0N@OOHDPIO@g_ProjMatrix?$AA@ DB 'g_ProjMatrix', 00H ; `string'
CONST	ENDS
;	COMDAT ??_C@_0N@ELIMCBLG@g_ViewMatrix?$AA@
CONST	SEGMENT
??_C@_0N@ELIMCBLG@g_ViewMatrix?$AA@ DB 'g_ViewMatrix', 00H ; `string'
CONST	ENDS
;	COMDAT ??_C@_1DM@ELAOFEFG@?$AAp?$AAr?$AAo?$AAt?$AAo?$AA_?$AAc?$AAo?$AAm?$AA_?$AAt?$AAe?$AAx?$AAt?$AAu?$AAr?$AAe?$AA_?$AAs?$AAw?$AAo?$AAr?$AAd?$AA_?$AAm?$AAa?$AAs?$AAk?$AA2?$AA?$AA@
CONST	SEGMENT
??_C@_1DM@ELAOFEFG@?$AAp?$AAr?$AAo?$AAt?$AAo?$AA_?$AAc?$AAo?$AAm?$AA_?$AAt?$AAe?$AAx?$AAt?$AAu?$AAr?$AAe?$AA_?$AAs?$AAw?$AAo?$AAr?$AAd?$AA_?$AAm?$AAa?$AAs?$AAk?$AA2?$AA?$AA@ DB 'p'
	DB	00H, 'r', 00H, 'o', 00H, 't', 00H, 'o', 00H, '_', 00H, 'c', 00H
	DB	'o', 00H, 'm', 00H, '_', 00H, 't', 00H, 'e', 00H, 'x', 00H, 't'
	DB	00H, 'u', 00H, 'r', 00H, 'e', 00H, '_', 00H, 's', 00H, 'w', 00H
	DB	'o', 00H, 'r', 00H, 'd', 00H, '_', 00H, 'm', 00H, 'a', 00H, 's'
	DB	00H, 'k', 00H, '2', 00H, 00H, 00H		; `string'
CONST	ENDS
;	COMDAT ??_C@_1CC@DOHGOBHP@?$AAc?$AAo?$AAm?$AA_?$AAm?$AAa?$AAs?$AAk?$AA_?$AAt?$AAe?$AAx?$AAt?$AAu?$AAr?$AAe?$AA?$AA@
CONST	SEGMENT
??_C@_1CC@DOHGOBHP@?$AAc?$AAo?$AAm?$AA_?$AAm?$AAa?$AAs?$AAk?$AA_?$AAt?$AAe?$AAx?$AAt?$AAu?$AAr?$AAe?$AA?$AA@ DB 'c'
	DB	00H, 'o', 00H, 'm', 00H, '_', 00H, 'm', 00H, 'a', 00H, 's', 00H
	DB	'k', 00H, '_', 00H, 't', 00H, 'e', 00H, 'x', 00H, 't', 00H, 'u'
	DB	00H, 'r', 00H, 'e', 00H, 00H, 00H		; `string'
CONST	ENDS
;	COMDAT ??_C@_1DM@FJLLPLLI@?$AAp?$AAr?$AAo?$AAt?$AAo?$AA_?$AAc?$AAo?$AAm?$AA_?$AAt?$AAe?$AAx?$AAt?$AAu?$AAr?$AAe?$AA_?$AAs?$AAw?$AAo?$AAr?$AAd?$AA_?$AAm?$AAa?$AAs?$AAk?$AA1?$AA?$AA@
CONST	SEGMENT
??_C@_1DM@FJLLPLLI@?$AAp?$AAr?$AAo?$AAt?$AAo?$AA_?$AAc?$AAo?$AAm?$AA_?$AAt?$AAe?$AAx?$AAt?$AAu?$AAr?$AAe?$AA_?$AAs?$AAw?$AAo?$AAr?$AAd?$AA_?$AAm?$AAa?$AAs?$AAk?$AA1?$AA?$AA@ DB 'p'
	DB	00H, 'r', 00H, 'o', 00H, 't', 00H, 'o', 00H, '_', 00H, 'c', 00H
	DB	'o', 00H, 'm', 00H, '_', 00H, 't', 00H, 'e', 00H, 'x', 00H, 't'
	DB	00H, 'u', 00H, 'r', 00H, 'e', 00H, '_', 00H, 's', 00H, 'w', 00H
	DB	'o', 00H, 'r', 00H, 'd', 00H, '_', 00H, 'm', 00H, 'a', 00H, 's'
	DB	00H, 'k', 00H, '1', 00H, 00H, 00H		; `string'
CONST	ENDS
;	COMDAT ??_C@_1CI@OHFOAEBJ@?$AAc?$AAo?$AAm?$AA_?$AAd?$AAi?$AAf?$AAf?$AAu?$AAs?$AAe?$AA_?$AAt?$AAe?$AAx?$AAt?$AAu?$AAr?$AAe?$AA?$AA@
CONST	SEGMENT
??_C@_1CI@OHFOAEBJ@?$AAc?$AAo?$AAm?$AA_?$AAd?$AAi?$AAf?$AAf?$AAu?$AAs?$AAe?$AA_?$AAt?$AAe?$AAx?$AAt?$AAu?$AAr?$AAe?$AA?$AA@ DB 'c'
	DB	00H, 'o', 00H, 'm', 00H, '_', 00H, 'd', 00H, 'i', 00H, 'f', 00H
	DB	'f', 00H, 'u', 00H, 's', 00H, 'e', 00H, '_', 00H, 't', 00H, 'e'
	DB	00H, 'x', 00H, 't', 00H, 'u', 00H, 'r', 00H, 'e', 00H, 00H, 00H ; `string'
CONST	ENDS
;	COMDAT ??_C@_1DK@NPGJEKHO@?$AAp?$AAr?$AAo?$AAt?$AAo?$AA_?$AAc?$AAo?$AAm?$AA_?$AAm?$AAo?$AAd?$AAe?$AAl?$AA_?$AAs?$AAw?$AAo?$AAr?$AAd?$AA_?$AAt?$AAr?$AAa?$AAi?$AAl?$AA2?$AA?$AA@
CONST	SEGMENT
??_C@_1DK@NPGJEKHO@?$AAp?$AAr?$AAo?$AAt?$AAo?$AA_?$AAc?$AAo?$AAm?$AA_?$AAm?$AAo?$AAd?$AAe?$AAl?$AA_?$AAs?$AAw?$AAo?$AAr?$AAd?$AA_?$AAt?$AAr?$AAa?$AAi?$AAl?$AA2?$AA?$AA@ DB 'p'
	DB	00H, 'r', 00H, 'o', 00H, 't', 00H, 'o', 00H, '_', 00H, 'c', 00H
	DB	'o', 00H, 'm', 00H, '_', 00H, 'm', 00H, 'o', 00H, 'd', 00H, 'e'
	DB	00H, 'l', 00H, '_', 00H, 's', 00H, 'w', 00H, 'o', 00H, 'r', 00H
	DB	'd', 00H, '_', 00H, 't', 00H, 'r', 00H, 'a', 00H, 'i', 00H, 'l'
	DB	00H, '2', 00H, 00H, 00H			; `string'
CONST	ENDS
;	COMDAT ??_C@_1BG@CJMFIDFH@?$AAc?$AAo?$AAm?$AA_?$AAm?$AAo?$AAd?$AAe?$AAl?$AA2?$AA?$AA@
CONST	SEGMENT
??_C@_1BG@CJMFIDFH@?$AAc?$AAo?$AAm?$AA_?$AAm?$AAo?$AAd?$AAe?$AAl?$AA2?$AA?$AA@ DB 'c'
	DB	00H, 'o', 00H, 'm', 00H, '_', 00H, 'm', 00H, 'o', 00H, 'd', 00H
	DB	'e', 00H, 'l', 00H, '2', 00H, 00H, 00H	; `string'
CONST	ENDS
;	COMDAT ??_C@_1DI@POIBNDHN@?$AAp?$AAr?$AAo?$AAt?$AAo?$AA_?$AAc?$AAo?$AAm?$AA_?$AAm?$AAo?$AAd?$AAe?$AAl?$AA_?$AAs?$AAw?$AAo?$AAr?$AAd?$AA_?$AAt?$AAr?$AAa?$AAi?$AAl?$AA?$AA@
CONST	SEGMENT
??_C@_1DI@POIBNDHN@?$AAp?$AAr?$AAo?$AAt?$AAo?$AA_?$AAc?$AAo?$AAm?$AA_?$AAm?$AAo?$AAd?$AAe?$AAl?$AA_?$AAs?$AAw?$AAo?$AAr?$AAd?$AA_?$AAt?$AAr?$AAa?$AAi?$AAl?$AA?$AA@ DB 'p'
	DB	00H, 'r', 00H, 'o', 00H, 't', 00H, 'o', 00H, '_', 00H, 'c', 00H
	DB	'o', 00H, 'm', 00H, '_', 00H, 'm', 00H, 'o', 00H, 'd', 00H, 'e'
	DB	00H, 'l', 00H, '_', 00H, 's', 00H, 'w', 00H, 'o', 00H, 'r', 00H
	DB	'd', 00H, '_', 00H, 't', 00H, 'r', 00H, 'a', 00H, 'i', 00H, 'l'
	DB	00H, 00H, 00H				; `string'
CONST	ENDS
;	COMDAT ??_C@_1BE@MLNOEPCA@?$AAc?$AAo?$AAm?$AA_?$AAm?$AAo?$AAd?$AAe?$AAl?$AA?$AA@
CONST	SEGMENT
??_C@_1BE@MLNOEPCA@?$AAc?$AAo?$AAm?$AA_?$AAm?$AAo?$AAd?$AAe?$AAl?$AA?$AA@ DB 'c'
	DB	00H, 'o', 00H, 'm', 00H, '_', 00H, 'm', 00H, 'o', 00H, 'd', 00H
	DB	'e', 00H, 'l', 00H, 00H, 00H			; `string'
CONST	ENDS
;	COMDAT ??_C@_1DI@BGEBANJE@?$AAp?$AAr?$AAo?$AAt?$AAo?$AA_?$AAc?$AAo?$AAm?$AA_?$AAs?$AAh?$AAa?$AAd?$AAe?$AAr?$AA_?$AAs?$AAw?$AAo?$AAr?$AAd?$AAt?$AAr?$AAa?$AAi?$AAl?$AA?$AA@
CONST	SEGMENT
??_C@_1DI@BGEBANJE@?$AAp?$AAr?$AAo?$AAt?$AAo?$AA_?$AAc?$AAo?$AAm?$AA_?$AAs?$AAh?$AAa?$AAd?$AAe?$AAr?$AA_?$AAs?$AAw?$AAo?$AAr?$AAd?$AAt?$AAr?$AAa?$AAi?$AAl?$AA?$AA@ DB 'p'
	DB	00H, 'r', 00H, 'o', 00H, 't', 00H, 'o', 00H, '_', 00H, 'c', 00H
	DB	'o', 00H, 'm', 00H, '_', 00H, 's', 00H, 'h', 00H, 'a', 00H, 'd'
	DB	00H, 'e', 00H, 'r', 00H, '_', 00H, 's', 00H, 'w', 00H, 'o', 00H
	DB	'r', 00H, 'd', 00H, 't', 00H, 'r', 00H, 'a', 00H, 'i', 00H, 'l'
	DB	00H, 00H, 00H				; `string'
CONST	ENDS
;	COMDAT ??_C@_1BG@GGOMMBBL@?$AAc?$AAo?$AAm?$AA_?$AAs?$AAh?$AAa?$AAd?$AAe?$AAr?$AA?$AA@
CONST	SEGMENT
??_C@_1BG@GGOMMBBL@?$AAc?$AAo?$AAm?$AA_?$AAs?$AAh?$AAa?$AAd?$AAe?$AAr?$AA?$AA@ DB 'c'
	DB	00H, 'o', 00H, 'm', 00H, '_', 00H, 's', 00H, 'h', 00H, 'a', 00H
	DB	'd', 00H, 'e', 00H, 'r', 00H, 00H, 00H	; `string'
CONST	ENDS
;	COMDAT ??_C@_1CE@KOCABLBN@?$AAc?$AAo?$AAm?$AA_?$AAt?$AAr?$AAa?$AAn?$AAs?$AAf?$AAo?$AAr?$AAm?$AA_?$AAh?$AAi?$AAt?$AA?$AA@
CONST	SEGMENT
??_C@_1CE@KOCABLBN@?$AAc?$AAo?$AAm?$AA_?$AAt?$AAr?$AAa?$AAn?$AAs?$AAf?$AAo?$AAr?$AAm?$AA_?$AAh?$AAi?$AAt?$AA?$AA@ DB 'c'
	DB	00H, 'o', 00H, 'm', 00H, '_', 00H, 't', 00H, 'r', 00H, 'a', 00H
	DB	'n', 00H, 's', 00H, 'f', 00H, 'o', 00H, 'r', 00H, 'm', 00H, '_'
	DB	00H, 'h', 00H, 'i', 00H, 't', 00H, 00H, 00H	; `string'
CONST	ENDS
;	COMDAT ??_C@_1CI@MLEFGO@?$AAp?$AAr?$AAo?$AAt?$AAo?$AA_?$AAc?$AAo?$AAm?$AA_?$AAt?$AAr?$AAa?$AAn?$AAs?$AAf?$AAo?$AAr?$AAm?$AA?$AA@
CONST	SEGMENT
??_C@_1CI@MLEFGO@?$AAp?$AAr?$AAo?$AAt?$AAo?$AA_?$AAc?$AAo?$AAm?$AA_?$AAt?$AAr?$AAa?$AAn?$AAs?$AAf?$AAo?$AAr?$AAm?$AA?$AA@ DB 'p'
	DB	00H, 'r', 00H, 'o', 00H, 't', 00H, 'o', 00H, '_', 00H, 'c', 00H
	DB	'o', 00H, 'm', 00H, '_', 00H, 't', 00H, 'r', 00H, 'a', 00H, 'n'
	DB	00H, 's', 00H, 'f', 00H, 'o', 00H, 'r', 00H, 'm', 00H, 00H, 00H ; `string'
CONST	ENDS
;	COMDAT ??_C@_1CG@COFFFCLL@?$AAp?$AAr?$AAo?$AAt?$AAo?$AA_?$AAc?$AAo?$AAm?$AA_?$AAr?$AAe?$AAn?$AAd?$AAe?$AAr?$AAe?$AAr?$AA?$AA@
CONST	SEGMENT
??_C@_1CG@COFFFCLL@?$AAp?$AAr?$AAo?$AAt?$AAo?$AA_?$AAc?$AAo?$AAm?$AA_?$AAr?$AAe?$AAn?$AAd?$AAe?$AAr?$AAe?$AAr?$AA?$AA@ DB 'p'
	DB	00H, 'r', 00H, 'o', 00H, 't', 00H, 'o', 00H, '_', 00H, 'c', 00H
	DB	'o', 00H, 'm', 00H, '_', 00H, 'r', 00H, 'e', 00H, 'n', 00H, 'd'
	DB	00H, 'e', 00H, 'r', 00H, 'e', 00H, 'r', 00H, 00H, 00H ; `string'
CONST	ENDS
;	COMDAT ??_C@_1BK@GIOMOCNE@?$AAc?$AAo?$AAm?$AA_?$AAr?$AAe?$AAn?$AAd?$AAe?$AAr?$AAe?$AAr?$AA?$AA@
CONST	SEGMENT
??_C@_1BK@GIOMOCNE@?$AAc?$AAo?$AAm?$AA_?$AAr?$AAe?$AAn?$AAd?$AAe?$AAr?$AAe?$AAr?$AA?$AA@ DB 'c'
	DB	00H, 'o', 00H, 'm', 00H, '_', 00H, 'r', 00H, 'e', 00H, 'n', 00H
	DB	'd', 00H, 'e', 00H, 'r', 00H, 'e', 00H, 'r', 00H, 00H, 00H ; `string'
CONST	ENDS
;	COMDAT ??_C@_0O@OFKPLLDO@g_MaskTexture?$AA@
CONST	SEGMENT
??_C@_0O@OFKPLLDO@g_MaskTexture?$AA@ DB 'g_MaskTexture', 00H ; `string'
CONST	ENDS
;	COMDAT ??_C@_0BB@FMIBAICL@g_DiffuseTexture?$AA@
CONST	SEGMENT
??_C@_0BB@FMIBAICL@g_DiffuseTexture?$AA@ DB 'g_DiffuseTexture', 00H ; `string'
CONST	ENDS
;	COMDAT ??_C@_0O@PFNLPMLD@g_WorldMatrix?$AA@
CONST	SEGMENT
??_C@_0O@PFNLPMLD@g_WorldMatrix?$AA@ DB 'g_WorldMatrix', 00H ; `string'
CONST	ENDS
;	COMDAT ??_C@_06HFDDOAAP@Bip001?$AA@
CONST	SEGMENT
??_C@_06HFDDOAAP@Bip001?$AA@ DB 'Bip001', 00H		; `string'
CONST	ENDS
;	COMDAT ??_C@_1BM@CJMPMHDD@?$AAc?$AAo?$AAm?$AA_?$AAt?$AAr?$AAa?$AAn?$AAs?$AAf?$AAo?$AAr?$AAm?$AA?$AA@
CONST	SEGMENT
??_C@_1BM@CJMPMHDD@?$AAc?$AAo?$AAm?$AA_?$AAt?$AAr?$AAa?$AAn?$AAs?$AAf?$AAo?$AAr?$AAm?$AA?$AA@ DB 'c'
	DB	00H, 'o', 00H, 'm', 00H, '_', 00H, 't', 00H, 'r', 00H, 'a', 00H
	DB	'n', 00H, 's', 00H, 'f', 00H, 'o', 00H, 'r', 00H, 'm', 00H, 00H
	DB	00H						; `string'
CONST	ENDS
;	COMDAT ??_7CSwordTrail@Client@@6B@
CONST	SEGMENT
??_7CSwordTrail@Client@@6B@ DQ FLAT:??_R4CSwordTrail@Client@@6B@ ; Client::CSwordTrail::`vftable'
	DQ	FLAT:??_ECSwordTrail@Client@@EEAAPEAXI@Z
	DQ	FLAT:?Free@CSwordTrail@Client@@UEAAXXZ
	DQ	FLAT:?Initialize_Prototype@CSwordTrail@Client@@UEAAJXZ
	DQ	FLAT:?Initialize@CSwordTrail@Client@@UEAAJPEAX@Z
	DQ	FLAT:?Tick@CSwordTrail@Client@@UEAAXN@Z
	DQ	FLAT:?LateTick@CSwordTrail@Client@@UEAAXN@Z
	DQ	FLAT:?Render@CSwordTrail@Client@@UEAAJXZ
	DQ	FLAT:?RenderGUI@CSwordTrail@Client@@UEAAXXZ
	DQ	FLAT:?GetLengthFromCamera@CSwordTrail@Client@@UEAAMXZ
	DQ	FLAT:?Clone@CSwordTrail@Client@@UEAAPEAVCGameObject@Engine@@PEAX@Z
CONST	ENDS
;	COMDAT ??_C@_19MNAGGFOC@?$AAp?$AAC?$AAo?$AAs?$AA?$AA@
CONST	SEGMENT
??_C@_19MNAGGFOC@?$AAp?$AAC?$AAo?$AAs?$AA?$AA@ DB 'p', 00H, 'C', 00H, 'o', 00H
	DB	's', 00H, 00H, 00H				; `string'
CONST	ENDS
;	COMDAT ??_C@_19MFJHDIJG@?$AAp?$AAS?$AAi?$AAn?$AA?$AA@
CONST	SEGMENT
??_C@_19MFJHDIJG@?$AAp?$AAS?$AAi?$AAn?$AA?$AA@ DB 'p', 00H, 'S', 00H, 'i', 00H
	DB	'n', 00H, 00H, 00H				; `string'
CONST	ENDS
;	COMDAT ?__LINE__Var@?0??XMScalarSinCos@DirectX@@YAXPEAM0M@Z@4JA
_DATA	SEGMENT
?__LINE__Var@?0??XMScalarSinCos@DirectX@@YAXPEAM0M@Z@4JA DD 08e3H ; `DirectX::XMScalarSinCos'::`1'::__LINE__Var
_DATA	ENDS
;	COMDAT ??_C@_1IO@CGGKMODJ@?$AAc?$AA?3?$AA?2?$AAp?$AAr?$AAo?$AAg?$AAr?$AAa?$AAm?$AA?5?$AAf?$AAi?$AAl?$AAe?$AAs?$AA?5?$AA?$CI?$AAx?$AA8?$AA6?$AA?$CJ?$AA?2?$AAw?$AAi?$AAn?$AAd?$AAo?$AAw?$AAs?$AA?5?$AAk@
CONST	SEGMENT
??_C@_1IO@CGGKMODJ@?$AAc?$AA?3?$AA?2?$AAp?$AAr?$AAo?$AAg?$AAr?$AAa?$AAm?$AA?5?$AAf?$AAi?$AAl?$AAe?$AAs?$AA?5?$AA?$CI?$AAx?$AA8?$AA6?$AA?$CJ?$AA?2?$AAw?$AAi?$AAn?$AAd?$AAo?$AAw?$AAs?$AA?5?$AAk@ DB 'c'
	DB	00H, ':', 00H, '\', 00H, 'p', 00H, 'r', 00H, 'o', 00H, 'g', 00H
	DB	'r', 00H, 'a', 00H, 'm', 00H, ' ', 00H, 'f', 00H, 'i', 00H, 'l'
	DB	00H, 'e', 00H, 's', 00H, ' ', 00H, '(', 00H, 'x', 00H, '8', 00H
	DB	'6', 00H, ')', 00H, '\', 00H, 'w', 00H, 'i', 00H, 'n', 00H, 'd'
	DB	00H, 'o', 00H, 'w', 00H, 's', 00H, ' ', 00H, 'k', 00H, 'i', 00H
	DB	't', 00H, 's', 00H, '\', 00H, '8', 00H, '.', 00H, '1', 00H, '\'
	DB	00H, 'i', 00H, 'n', 00H, 'c', 00H, 'l', 00H, 'u', 00H, 'd', 00H
	DB	'e', 00H, '\', 00H, 'u', 00H, 'm', 00H, '\', 00H, 'd', 00H, 'i'
	DB	00H, 'r', 00H, 'e', 00H, 'c', 00H, 't', 00H, 'x', 00H, 'm', 00H
	DB	'a', 00H, 't', 00H, 'h', 00H, 'm', 00H, 'i', 00H, 's', 00H, 'c'
	DB	00H, '.', 00H, 'i', 00H, 'n', 00H, 'l', 00H, 00H, 00H ; `string'
CONST	ENDS
;	COMDAT ?__LINE__Var@?0??XMStoreFloat4x4@DirectX@@YQXPEAUXMFLOAT4X4@2@UXMMATRIX@2@@Z@4JA
_DATA	SEGMENT
?__LINE__Var@?0??XMStoreFloat4x4@DirectX@@YQXPEAUXMFLOAT4X4@2@UXMMATRIX@2@@Z@4JA DD 071aH ; `DirectX::XMStoreFloat4x4'::`1'::__LINE__Var
_DATA	ENDS
;	COMDAT ?__LINE__Var@?0??XMStoreFloat3@DirectX@@YQXPEAUXMFLOAT3@2@T__m128@@@Z@4JA
_DATA	SEGMENT
?__LINE__Var@?0??XMStoreFloat3@DirectX@@YQXPEAUXMFLOAT3@2@T__m128@@@Z@4JA DD 0553H ; `DirectX::XMStoreFloat3'::`1'::__LINE__Var
_DATA	ENDS
;	COMDAT ??_C@_1BK@FHLBGAOP@?$AAp?$AAD?$AAe?$AAs?$AAt?$AAi?$AAn?$AAa?$AAt?$AAi?$AAo?$AAn?$AA?$AA@
CONST	SEGMENT
??_C@_1BK@FHLBGAOP@?$AAp?$AAD?$AAe?$AAs?$AAt?$AAi?$AAn?$AAa?$AAt?$AAi?$AAo?$AAn?$AA?$AA@ DB 'p'
	DB	00H, 'D', 00H, 'e', 00H, 's', 00H, 't', 00H, 'i', 00H, 'n', 00H
	DB	'a', 00H, 't', 00H, 'i', 00H, 'o', 00H, 'n', 00H, 00H, 00H ; `string'
CONST	ENDS
;	COMDAT ?__LINE__Var@?0??XMLoadFloat4x4@DirectX@@YQ?AUXMMATRIX@2@PEBUXMFLOAT4X4@2@@Z@4JA
_DATA	SEGMENT
?__LINE__Var@?0??XMLoadFloat4x4@DirectX@@YQ?AUXMMATRIX@2@PEBUXMFLOAT4X4@2@@Z@4JA DD 03f5H ; `DirectX::XMLoadFloat4x4'::`1'::__LINE__Var
_DATA	ENDS
;	COMDAT ?__LINE__Var@?0??XMLoadFloat4@DirectX@@YQ?AT__m128@@PEBUXMFLOAT4@2@@Z@4JA
_DATA	SEGMENT
?__LINE__Var@?0??XMLoadFloat4@DirectX@@YQ?AT__m128@@PEBUXMFLOAT4@2@@Z@4JA DD 02a8H ; `DirectX::XMLoadFloat4'::`1'::__LINE__Var
_DATA	ENDS
;	COMDAT ??_C@_1BA@LBADLIHI@?$AAp?$AAS?$AAo?$AAu?$AAr?$AAc?$AAe?$AA?$AA@
CONST	SEGMENT
??_C@_1BA@LBADLIHI@?$AAp?$AAS?$AAo?$AAu?$AAr?$AAc?$AAe?$AA?$AA@ DB 'p', 00H
	DB	'S', 00H, 'o', 00H, 'u', 00H, 'r', 00H, 'c', 00H, 'e', 00H, 00H
	DB	00H						; `string'
CONST	ENDS
;	COMDAT ??_C@_1JE@DMOBBMDE@?$AAc?$AA?3?$AA?2?$AAp?$AAr?$AAo?$AAg?$AAr?$AAa?$AAm?$AA?5?$AAf?$AAi?$AAl?$AAe?$AAs?$AA?5?$AA?$CI?$AAx?$AA8?$AA6?$AA?$CJ?$AA?2?$AAw?$AAi?$AAn?$AAd?$AAo?$AAw?$AAs?$AA?5?$AAk@
CONST	SEGMENT
??_C@_1JE@DMOBBMDE@?$AAc?$AA?3?$AA?2?$AAp?$AAr?$AAo?$AAg?$AAr?$AAa?$AAm?$AA?5?$AAf?$AAi?$AAl?$AAe?$AAs?$AA?5?$AA?$CI?$AAx?$AA8?$AA6?$AA?$CJ?$AA?2?$AAw?$AAi?$AAn?$AAd?$AAo?$AAw?$AAs?$AA?5?$AAk@ DB 'c'
	DB	00H, ':', 00H, '\', 00H, 'p', 00H, 'r', 00H, 'o', 00H, 'g', 00H
	DB	'r', 00H, 'a', 00H, 'm', 00H, ' ', 00H, 'f', 00H, 'i', 00H, 'l'
	DB	00H, 'e', 00H, 's', 00H, ' ', 00H, '(', 00H, 'x', 00H, '8', 00H
	DB	'6', 00H, ')', 00H, '\', 00H, 'w', 00H, 'i', 00H, 'n', 00H, 'd'
	DB	00H, 'o', 00H, 'w', 00H, 's', 00H, ' ', 00H, 'k', 00H, 'i', 00H
	DB	't', 00H, 's', 00H, '\', 00H, '8', 00H, '.', 00H, '1', 00H, '\'
	DB	00H, 'i', 00H, 'n', 00H, 'c', 00H, 'l', 00H, 'u', 00H, 'd', 00H
	DB	'e', 00H, '\', 00H, 'u', 00H, 'm', 00H, '\', 00H, 'd', 00H, 'i'
	DB	00H, 'r', 00H, 'e', 00H, 'c', 00H, 't', 00H, 'x', 00H, 'm', 00H
	DB	'a', 00H, 't', 00H, 'h', 00H, 'c', 00H, 'o', 00H, 'n', 00H, 'v'
	DB	00H, 'e', 00H, 'r', 00H, 't', 00H, '.', 00H, 'i', 00H, 'n', 00H
	DB	'l', 00H, 00H, 00H				; `string'
CONST	ENDS
;	COMDAT xdata
xdata	SEGMENT
$unwind$??$Safe_Release@PEAVCShader@Engine@@@Engine@@YAKAEAPEAVCShader@0@@Z DD 025052a01H
	DD	010e2313H
	DD	070070021H
	DD	05006H
xdata	ENDS
;	COMDAT xdata
xdata	SEGMENT
$unwind$??$Safe_Release@PEAVCModel@Engine@@@Engine@@YAKAEAPEAVCModel@0@@Z DD 025052a01H
	DD	010e2313H
	DD	070070021H
	DD	05006H
xdata	ENDS
;	COMDAT xdata
xdata	SEGMENT
$unwind$??$Safe_Release@PEAVCTransform@Engine@@@Engine@@YAKAEAPEAVCTransform@0@@Z DD 025052a01H
	DD	010e2313H
	DD	070070021H
	DD	05006H
xdata	ENDS
;	COMDAT xdata
xdata	SEGMENT
$unwind$??$Safe_Release@PEAVCRenderer@Engine@@@Engine@@YAKAEAPEAVCRenderer@0@@Z DD 025052a01H
	DD	010e2313H
	DD	070070021H
	DD	05006H
xdata	ENDS
;	COMDAT xdata
xdata	SEGMENT
$unwind$??$Safe_Release@PEAVCSwordTrail@Client@@@Engine@@YAKAEAPEAVCSwordTrail@Client@@@Z DD 025052a01H
	DD	010e2313H
	DD	070070021H
	DD	05006H
xdata	ENDS
;	COMDAT xdata
xdata	SEGMENT
$unwind$?GetLockOnTarget@CCharacter@Client@@QEAAPEAVCGameObject@Engine@@XZ DD 05052801H
	DD	010e0311H
	DD	07007001bH
	DD	05006H
xdata	ENDS
;	COMDAT xdata
xdata	SEGMENT
$unwind$??_GCSwordTrail@Client@@EEAAPEAXI@Z DD 025052e01H
	DD	01122317H
	DD	0700b001dH
	DD	0500aH
xdata	ENDS
;	COMDAT xdata
xdata	SEGMENT
$unwind$??0CSwordTrail@Client@@QEAA@AEBV01@@Z DD 025063001H
	DD	01142319H
	DD	0700d001cH
	DD	0500b600cH
xdata	ENDS
;	COMDAT xdata
xdata	SEGMENT
$unwind$?Free@CSwordTrail@Client@@UEAAXXZ DD 025052a01H
	DD	010e2313H
	DD	07007001dH
	DD	05006H
xdata	ENDS
;	COMDAT xdata
xdata	SEGMENT
$unwind$?dtor$0@?0??Clone@CSwordTrail@Client@@UEAAPEAVCGameObject@Engine@@PEAX@Z@4HA DD 031001H
	DD	0700c4210H
	DD	0500bH
xdata	ENDS
;	COMDAT xdata
xdata	SEGMENT
$ip2state$?Clone@CSwordTrail@Client@@UEAAPEAVCGameObject@Engine@@PEAX@Z DD imagerel ?Clone@CSwordTrail@Client@@UEAAPEAVCGameObject@Engine@@PEAX@Z
	DD	0ffffffffH
	DD	imagerel ?Clone@CSwordTrail@Client@@UEAAPEAVCGameObject@Engine@@PEAX@Z+115
	DD	00H
	DD	imagerel ?Clone@CSwordTrail@Client@@UEAAPEAVCGameObject@Engine@@PEAX@Z+178
	DD	0ffffffffH
xdata	ENDS
;	COMDAT xdata
xdata	SEGMENT
$stateUnwindMap$?Clone@CSwordTrail@Client@@UEAAPEAVCGameObject@Engine@@PEAX@Z DD 0ffffffffH
	DD	imagerel ?dtor$0@?0??Clone@CSwordTrail@Client@@UEAAPEAVCGameObject@Engine@@PEAX@Z@4HA
xdata	ENDS
;	COMDAT xdata
xdata	SEGMENT
$unwind$?Clone@CSwordTrail@Client@@UEAAPEAVCGameObject@Engine@@PEAX@Z DD 025054b19H
	DD	01132318H
	DD	0700c002fH
	DD	0500bH
	DD	imagerel __GSHandlerCheck_EH
	DD	imagerel $cppxdata$?Clone@CSwordTrail@Client@@UEAAPEAVCGameObject@Engine@@PEAX@Z
	DD	0162H
xdata	ENDS
;	COMDAT CONST
CONST	SEGMENT
?Clone@CSwordTrail@Client@@UEAAPEAVCGameObject@Engine@@PEAX@Z$rtcName$0 DB 070H ; Client::CSwordTrail::Clone
	DB	049H
	DB	06eH
	DB	073H
	DB	074H
	DB	061H
	DB	06eH
	DB	063H
	DB	065H
	DB	00H
	ORG $+6
?Clone@CSwordTrail@Client@@UEAAPEAVCGameObject@Engine@@PEAX@Z$rtcVarDesc DD 028H ; Client::CSwordTrail::Clone
	DD	08H
	DQ	FLAT:?Clone@CSwordTrail@Client@@UEAAPEAVCGameObject@Engine@@PEAX@Z$rtcName$0
	ORG $+48
?Clone@CSwordTrail@Client@@UEAAPEAVCGameObject@Engine@@PEAX@Z$rtcFrameData DD 01H ; Client::CSwordTrail::Clone
	DD	00H
	DQ	FLAT:?Clone@CSwordTrail@Client@@UEAAPEAVCGameObject@Engine@@PEAX@Z$rtcVarDesc
$cppxdata$?Clone@CSwordTrail@Client@@UEAAPEAVCGameObject@Engine@@PEAX@Z DD 019930522H
	DD	01H
	DD	imagerel $stateUnwindMap$?Clone@CSwordTrail@Client@@UEAAPEAVCGameObject@Engine@@PEAX@Z
	DD	00H
	DD	00H
	DD	03H
	DD	imagerel $ip2state$?Clone@CSwordTrail@Client@@UEAAPEAVCGameObject@Engine@@PEAX@Z
	DD	0148H
	DD	00H
	DD	01H
CONST	ENDS
;	COMDAT xdata
xdata	SEGMENT
$unwind$?dtor$0@?0??Create@CSwordTrail@Client@@SAPEAV12@PEAUID3D11Device@@PEAUID3D11DeviceContext@@@Z@4HA DD 031001H
	DD	0700c4210H
	DD	0500bH
xdata	ENDS
;	COMDAT xdata
xdata	SEGMENT
$ip2state$?Create@CSwordTrail@Client@@SAPEAV12@PEAUID3D11Device@@PEAUID3D11DeviceContext@@@Z DD imagerel ?Create@CSwordTrail@Client@@SAPEAV12@PEAUID3D11Device@@PEAUID3D11DeviceContext@@@Z
	DD	0ffffffffH
	DD	imagerel ?Create@CSwordTrail@Client@@SAPEAV12@PEAUID3D11Device@@PEAUID3D11DeviceContext@@@Z+115
	DD	00H
	DD	imagerel ?Create@CSwordTrail@Client@@SAPEAV12@PEAUID3D11Device@@PEAUID3D11DeviceContext@@@Z+185
	DD	0ffffffffH
xdata	ENDS
;	COMDAT xdata
xdata	SEGMENT
$stateUnwindMap$?Create@CSwordTrail@Client@@SAPEAV12@PEAUID3D11Device@@PEAUID3D11DeviceContext@@@Z DD 0ffffffffH
	DD	imagerel ?dtor$0@?0??Create@CSwordTrail@Client@@SAPEAV12@PEAUID3D11Device@@PEAUID3D11DeviceContext@@@Z@4HA
xdata	ENDS
;	COMDAT xdata
xdata	SEGMENT
$unwind$?Create@CSwordTrail@Client@@SAPEAV12@PEAUID3D11Device@@PEAUID3D11DeviceContext@@@Z DD 025054b19H
	DD	01132318H
	DD	0700c002fH
	DD	0500bH
	DD	imagerel __GSHandlerCheck_EH
	DD	imagerel $cppxdata$?Create@CSwordTrail@Client@@SAPEAV12@PEAUID3D11Device@@PEAUID3D11DeviceContext@@@Z
	DD	0162H
xdata	ENDS
;	COMDAT CONST
CONST	SEGMENT
?Create@CSwordTrail@Client@@SAPEAV12@PEAUID3D11Device@@PEAUID3D11DeviceContext@@@Z$rtcName$0 DB 070H ; Client::CSwordTrail::Create
	DB	049H
	DB	06eH
	DB	073H
	DB	074H
	DB	061H
	DB	06eH
	DB	063H
	DB	065H
	DB	00H
	ORG $+6
?Create@CSwordTrail@Client@@SAPEAV12@PEAUID3D11Device@@PEAUID3D11DeviceContext@@@Z$rtcVarDesc DD 028H ; Client::CSwordTrail::Create
	DD	08H
	DQ	FLAT:?Create@CSwordTrail@Client@@SAPEAV12@PEAUID3D11Device@@PEAUID3D11DeviceContext@@@Z$rtcName$0
	ORG $+48
?Create@CSwordTrail@Client@@SAPEAV12@PEAUID3D11Device@@PEAUID3D11DeviceContext@@@Z$rtcFrameData DD 01H ; Client::CSwordTrail::Create
	DD	00H
	DQ	FLAT:?Create@CSwordTrail@Client@@SAPEAV12@PEAUID3D11Device@@PEAUID3D11DeviceContext@@@Z$rtcVarDesc
$cppxdata$?Create@CSwordTrail@Client@@SAPEAV12@PEAUID3D11Device@@PEAUID3D11DeviceContext@@@Z DD 019930522H
	DD	01H
	DD	imagerel $stateUnwindMap$?Create@CSwordTrail@Client@@SAPEAV12@PEAUID3D11Device@@PEAUID3D11DeviceContext@@@Z
	DD	00H
	DD	00H
	DD	03H
	DD	imagerel $ip2state$?Create@CSwordTrail@Client@@SAPEAV12@PEAUID3D11Device@@PEAUID3D11DeviceContext@@@Z
	DD	0148H
	DD	00H
	DD	01H
CONST	ENDS
;	COMDAT xdata
xdata	SEGMENT
$unwind$?GetLengthFromCamera@CSwordTrail@Client@@UEAAMXZ DD 035053b19H
	DD	010e3313H
	DD	07007004bH
	DD	05006H
	DD	imagerel __GSHandlerCheck
	DD	0248H
xdata	ENDS
;	COMDAT CONST
CONST	SEGMENT
?GetLengthFromCamera@CSwordTrail@Client@@UEAAMXZ$rtcName$0 DB 076H ; Client::CSwordTrail::GetLengthFromCamera
	DB	050H
	DB	06fH
	DB	073H
	DB	00H
	ORG $+11
?GetLengthFromCamera@CSwordTrail@Client@@UEAAMXZ$rtcVarDesc DD 060H ; Client::CSwordTrail::GetLengthFromCamera
	DD	010H
	DQ	FLAT:?GetLengthFromCamera@CSwordTrail@Client@@UEAAMXZ$rtcName$0
	ORG $+48
?GetLengthFromCamera@CSwordTrail@Client@@UEAAMXZ$rtcFrameData DD 01H ; Client::CSwordTrail::GetLengthFromCamera
	DD	00H
	DQ	FLAT:?GetLengthFromCamera@CSwordTrail@Client@@UEAAMXZ$rtcVarDesc
CONST	ENDS
;	COMDAT xdata
xdata	SEGMENT
$unwind$?SetHitPosition@CSwordTrail@Client@@QEAAXT__m128@@@Z DD 05052d01H
	DD	01130316H
	DD	0700c0019H
	DD	0500bH
xdata	ENDS
;	COMDAT xdata
xdata	SEGMENT
$unwind$?EffectStart@CSwordTrail@Client@@QEAAXUXMFLOAT3@DirectX@@0@Z DD 025064c19H
	DD	011f2324H
	DD	070120314H
	DD	050106011H
	DD	imagerel __GSHandlerCheck
	DD	01898H
xdata	ENDS
;	COMDAT CONST
CONST	SEGMENT
?EffectStart@CSwordTrail@Client@@QEAAXUXMFLOAT3@DirectX@@0@Z$rtcName$0 DB 04eH ; Client::CSwordTrail::EffectStart
	DB	065H
	DB	077H
	DB	050H
	DB	069H
	DB	076H
	DB	06fH
	DB	074H
	DB	04dH
	DB	061H
	DB	074H
	DB	072H
	DB	069H
	DB	078H
	DB	00H
	ORG $+1
?EffectStart@CSwordTrail@Client@@QEAAXUXMFLOAT3@DirectX@@0@Z$rtcName$1 DB 076H ; Client::CSwordTrail::EffectStart
	DB	050H
	DB	06cH
	DB	061H
	DB	079H
	DB	065H
	DB	072H
	DB	050H
	DB	06fH
	DB	073H
	DB	00H
	ORG $+5
?EffectStart@CSwordTrail@Client@@QEAAXUXMFLOAT3@DirectX@@0@Z$rtcName$2 DB 076H ; Client::CSwordTrail::EffectStart
	DB	050H
	DB	069H
	DB	076H
	DB	06fH
	DB	074H
	DB	050H
	DB	06fH
	DB	073H
	DB	00H
	ORG $+6
?EffectStart@CSwordTrail@Client@@QEAAXUXMFLOAT3@DirectX@@0@Z$rtcName$3 DB 052H ; Client::CSwordTrail::EffectStart
	DB	06fH
	DB	074H
	DB	05aH
	DB	065H
	DB	072H
	DB	06fH
	DB	00H
?EffectStart@CSwordTrail@Client@@QEAAXUXMFLOAT3@DirectX@@0@Z$rtcName$4 DB 052H ; Client::CSwordTrail::EffectStart
	DB	06fH
	DB	074H
	DB	058H
	DB	00H
	ORG $+3
?EffectStart@CSwordTrail@Client@@QEAAXUXMFLOAT3@DirectX@@0@Z$rtcName$5 DB 052H ; Client::CSwordTrail::EffectStart
	DB	06fH
	DB	074H
	DB	059H
	DB	00H
	ORG $+3
?EffectStart@CSwordTrail@Client@@QEAAXUXMFLOAT3@DirectX@@0@Z$rtcName$6 DB 052H ; Client::CSwordTrail::EffectStart
	DB	06fH
	DB	074H
	DB	05aH
	DB	00H
	ORG $+3
?EffectStart@CSwordTrail@Client@@QEAAXUXMFLOAT3@DirectX@@0@Z$rtcName$7 DB 048H ; Client::CSwordTrail::EffectStart
	DB	069H
	DB	074H
	DB	052H
	DB	06fH
	DB	074H
	DB	04dH
	DB	061H
	DB	074H
	DB	072H
	DB	06bH
	DB	078H
	DB	00H
	ORG $+3
?EffectStart@CSwordTrail@Client@@QEAAXUXMFLOAT3@DirectX@@0@Z$rtcName$8 DB 068H ; Client::CSwordTrail::EffectStart
	DB	069H
	DB	074H
	DB	04dH
	DB	061H
	DB	074H
	DB	072H
	DB	069H
	DB	078H
	DB	00H
	ORG $+6
?EffectStart@CSwordTrail@Client@@QEAAXUXMFLOAT3@DirectX@@0@Z$rtcVarDesc DD 0360H ; Client::CSwordTrail::EffectStart
	DD	040H
	DQ	FLAT:?EffectStart@CSwordTrail@Client@@QEAAXUXMFLOAT3@DirectX@@0@Z$rtcName$8
	DD	0300H
	DD	040H
	DQ	FLAT:?EffectStart@CSwordTrail@Client@@QEAAXUXMFLOAT3@DirectX@@0@Z$rtcName$7
	DD	02a0H
	DD	040H
	DQ	FLAT:?EffectStart@CSwordTrail@Client@@QEAAXUXMFLOAT3@DirectX@@0@Z$rtcName$6
	DD	0240H
	DD	040H
	DQ	FLAT:?EffectStart@CSwordTrail@Client@@QEAAXUXMFLOAT3@DirectX@@0@Z$rtcName$5
	DD	01e0H
	DD	040H
	DQ	FLAT:?EffectStart@CSwordTrail@Client@@QEAAXUXMFLOAT3@DirectX@@0@Z$rtcName$4
	DD	0180H
	DD	040H
	DQ	FLAT:?EffectStart@CSwordTrail@Client@@QEAAXUXMFLOAT3@DirectX@@0@Z$rtcName$3
	DD	0148H
	DD	0cH
	DQ	FLAT:?EffectStart@CSwordTrail@Client@@QEAAXUXMFLOAT3@DirectX@@0@Z$rtcName$2
	DD	0120H
	DD	010H
	DQ	FLAT:?EffectStart@CSwordTrail@Client@@QEAAXUXMFLOAT3@DirectX@@0@Z$rtcName$1
	DD	030H
	DD	040H
	DQ	FLAT:?EffectStart@CSwordTrail@Client@@QEAAXUXMFLOAT3@DirectX@@0@Z$rtcName$0
	ORG $+432
?EffectStart@CSwordTrail@Client@@QEAAXUXMFLOAT3@DirectX@@0@Z$rtcFrameData DD 09H ; Client::CSwordTrail::EffectStart
	DD	00H
	DQ	FLAT:?EffectStart@CSwordTrail@Client@@QEAAXUXMFLOAT3@DirectX@@0@Z$rtcVarDesc
CONST	ENDS
;	COMDAT xdata
xdata	SEGMENT
$unwind$?Reset@CSwordTrail@Client@@QEAAXXZ DD 025062b01H
	DD	010f2314H
	DD	070080026H
	DD	050066007H
xdata	ENDS
;	COMDAT xdata
xdata	SEGMENT
$unwind$?SetupShaderResources@CSwordTrail@Client@@AEAAJXZ DD 025052a01H
	DD	010e2313H
	DD	07007003fH
	DD	05006H
xdata	ENDS
;	COMDAT xdata
xdata	SEGMENT
$unwind$?AddComponents@CSwordTrail@Client@@AEAAJXZ DD 035052a01H
	DD	010e3313H
	DD	07007001fH
	DD	05006H
xdata	ENDS
;	COMDAT xdata
xdata	SEGMENT
$unwind$?RenderGUI@CSwordTrail@Client@@UEAAXXZ DD 05052801H
	DD	010e0311H
	DD	070070019H
	DD	05006H
xdata	ENDS
;	COMDAT xdata
xdata	SEGMENT
$unwind$?Render@CSwordTrail@Client@@UEAAJXZ DD 025052a01H
	DD	010e2313H
	DD	07007002dH
	DD	05006H
xdata	ENDS
;	COMDAT xdata
xdata	SEGMENT
$unwind$?LateTick@CSwordTrail@Client@@UEAAXN@Z DD 025053001H
	DD	01142319H
	DD	0700d001dH
	DD	0500cH
xdata	ENDS
;	COMDAT xdata
xdata	SEGMENT
$unwind$?Tick@CSwordTrail@Client@@UEAAXN@Z DD 025063101H
	DD	0115231aH
	DD	0700e0022H
	DD	0500c600dH
xdata	ENDS
;	COMDAT xdata
xdata	SEGMENT
$unwind$?Initialize@CSwordTrail@Client@@UEAAJPEAX@Z DD 025054019H
	DD	01132318H
	DD	0700c0023H
	DD	0500bH
	DD	imagerel __GSHandlerCheck
	DD	0108H
xdata	ENDS
;	COMDAT CONST
CONST	SEGMENT
?Initialize@CSwordTrail@Client@@UEAAJPEAX@Z$rtcName$0 DB 076H ; Client::CSwordTrail::Initialize
	DB	050H
	DB	06fH
	DB	073H
	DB	069H
	DB	074H
	DB	069H
	DB	06fH
	DB	06eH
	DB	00H
	ORG $+6
?Initialize@CSwordTrail@Client@@UEAAJPEAX@Z$rtcVarDesc DD 030H ; Client::CSwordTrail::Initialize
	DD	010H
	DQ	FLAT:?Initialize@CSwordTrail@Client@@UEAAJPEAX@Z$rtcName$0
	ORG $+48
?Initialize@CSwordTrail@Client@@UEAAJPEAX@Z$rtcFrameData DD 01H ; Client::CSwordTrail::Initialize
	DD	00H
	DQ	FLAT:?Initialize@CSwordTrail@Client@@UEAAJPEAX@Z$rtcVarDesc
CONST	ENDS
;	COMDAT xdata
xdata	SEGMENT
$unwind$?Initialize_Prototype@CSwordTrail@Client@@UEAAJXZ DD 025052a01H
	DD	010e2313H
	DD	07007001dH
	DD	05006H
xdata	ENDS
;	COMDAT xdata
xdata	SEGMENT
$unwind$??1CSwordTrail@Client@@EEAA@XZ DD 025052a01H
	DD	010e2313H
	DD	07007001dH
	DD	05006H
xdata	ENDS
;	COMDAT xdata
xdata	SEGMENT
$unwind$?dtor$0@?0???0CSwordTrail@Client@@AEAA@PEAUID3D11Device@@PEAUID3D11DeviceContext@@@Z@4HA DD 031001H
	DD	0700c4210H
	DD	0500bH
xdata	ENDS
;	COMDAT xdata
xdata	SEGMENT
$ip2state$??0CSwordTrail@Client@@AEAA@PEAUID3D11Device@@PEAUID3D11DeviceContext@@@Z DD imagerel ??0CSwordTrail@Client@@AEAA@PEAUID3D11Device@@PEAUID3D11DeviceContext@@@Z
	DD	0ffffffffH
	DD	imagerel ??0CSwordTrail@Client@@AEAA@PEAUID3D11Device@@PEAUID3D11DeviceContext@@@Z+91
	DD	00H
	DD	imagerel ??0CSwordTrail@Client@@AEAA@PEAUID3D11Device@@PEAUID3D11DeviceContext@@@Z+469
	DD	0ffffffffH
xdata	ENDS
;	COMDAT xdata
xdata	SEGMENT
$stateUnwindMap$??0CSwordTrail@Client@@AEAA@PEAUID3D11Device@@PEAUID3D11DeviceContext@@@Z DD 0ffffffffH
	DD	imagerel ?dtor$0@?0???0CSwordTrail@Client@@AEAA@PEAUID3D11Device@@PEAUID3D11DeviceContext@@@Z@4HA
xdata	ENDS
;	COMDAT CONST
CONST	SEGMENT
$cppxdata$??0CSwordTrail@Client@@AEAA@PEAUID3D11Device@@PEAUID3D11DeviceContext@@@Z DD 019930522H
	DD	01H
	DD	imagerel $stateUnwindMap$??0CSwordTrail@Client@@AEAA@PEAUID3D11Device@@PEAUID3D11DeviceContext@@@Z
	DD	00H
	DD	00H
	DD	03H
	DD	imagerel $ip2state$??0CSwordTrail@Client@@AEAA@PEAUID3D11Device@@PEAUID3D11DeviceContext@@@Z
	DD	0e8H
	DD	00H
	DD	01H
CONST	ENDS
;	COMDAT xdata
xdata	SEGMENT
$unwind$??0CSwordTrail@Client@@AEAA@PEAUID3D11Device@@PEAUID3D11DeviceContext@@@Z DD 025053f11H
	DD	0118231dH
	DD	070110021H
	DD	05010H
	DD	imagerel __CxxFrameHandler3
	DD	imagerel $cppxdata$??0CSwordTrail@Client@@AEAA@PEAUID3D11Device@@PEAUID3D11DeviceContext@@@Z
xdata	ENDS
;	COMDAT xdata
xdata	SEGMENT
$unwind$?XMScalarSinCos@DirectX@@YAXPEAM0M@Z DD 025053501H
	DD	0119231eH
	DD	070120031H
	DD	05011H
xdata	ENDS
;	COMDAT xdata
xdata	SEGMENT
$unwind$?XMMatrixRotationZ@DirectX@@YQ?AUXMMATRIX@1@M@Z DD 035053419H
	DD	010f3314H
	DD	070080087H
	DD	05007H
	DD	imagerel __GSHandlerCheck
	DD	0428H
xdata	ENDS
;	COMDAT CONST
CONST	SEGMENT
?XMMatrixRotationZ@DirectX@@YQ?AUXMMATRIX@1@M@Z$rtcName$0 DB 053H ; DirectX::XMMatrixRotationZ
	DB	069H
	DB	06eH
	DB	041H
	DB	06eH
	DB	067H
	DB	06cH
	DB	065H
	DB	00H
	ORG $+7
?XMMatrixRotationZ@DirectX@@YQ?AUXMMATRIX@1@M@Z$rtcName$1 DB 043H ; DirectX::XMMatrixRotationZ
	DB	06fH
	DB	073H
	DB	041H
	DB	06eH
	DB	067H
	DB	06cH
	DB	065H
	DB	00H
	ORG $+3
?XMMatrixRotationZ@DirectX@@YQ?AUXMMATRIX@1@M@Z$rtcName$2 DB 04dH ; DirectX::XMMatrixRotationZ
	DB	00H
	ORG $+2
?XMMatrixRotationZ@DirectX@@YQ?AUXMMATRIX@1@M@Z$rtcVarDesc DD 0e0H ; DirectX::XMMatrixRotationZ
	DD	040H
	DQ	FLAT:?XMMatrixRotationZ@DirectX@@YQ?AUXMMATRIX@1@M@Z$rtcName$2
	DD	054H
	DD	04H
	DQ	FLAT:?XMMatrixRotationZ@DirectX@@YQ?AUXMMATRIX@1@M@Z$rtcName$1
	DD	034H
	DD	04H
	DQ	FLAT:?XMMatrixRotationZ@DirectX@@YQ?AUXMMATRIX@1@M@Z$rtcName$0
	ORG $+144
?XMMatrixRotationZ@DirectX@@YQ?AUXMMATRIX@1@M@Z$rtcFrameData DD 03H ; DirectX::XMMatrixRotationZ
	DD	00H
	DQ	FLAT:?XMMatrixRotationZ@DirectX@@YQ?AUXMMATRIX@1@M@Z$rtcVarDesc
CONST	ENDS
;	COMDAT xdata
xdata	SEGMENT
$unwind$?XMMatrixRotationY@DirectX@@YQ?AUXMMATRIX@1@M@Z DD 035053419H
	DD	010f3314H
	DD	070080087H
	DD	05007H
	DD	imagerel __GSHandlerCheck
	DD	0428H
xdata	ENDS
;	COMDAT CONST
CONST	SEGMENT
?XMMatrixRotationY@DirectX@@YQ?AUXMMATRIX@1@M@Z$rtcName$0 DB 053H ; DirectX::XMMatrixRotationY
	DB	069H
	DB	06eH
	DB	041H
	DB	06eH
	DB	067H
	DB	06cH
	DB	065H
	DB	00H
	ORG $+7
?XMMatrixRotationY@DirectX@@YQ?AUXMMATRIX@1@M@Z$rtcName$1 DB 043H ; DirectX::XMMatrixRotationY
	DB	06fH
	DB	073H
	DB	041H
	DB	06eH
	DB	067H
	DB	06cH
	DB	065H
	DB	00H
	ORG $+3
?XMMatrixRotationY@DirectX@@YQ?AUXMMATRIX@1@M@Z$rtcName$2 DB 04dH ; DirectX::XMMatrixRotationY
	DB	00H
	ORG $+2
?XMMatrixRotationY@DirectX@@YQ?AUXMMATRIX@1@M@Z$rtcVarDesc DD 0e0H ; DirectX::XMMatrixRotationY
	DD	040H
	DQ	FLAT:?XMMatrixRotationY@DirectX@@YQ?AUXMMATRIX@1@M@Z$rtcName$2
	DD	054H
	DD	04H
	DQ	FLAT:?XMMatrixRotationY@DirectX@@YQ?AUXMMATRIX@1@M@Z$rtcName$1
	DD	034H
	DD	04H
	DQ	FLAT:?XMMatrixRotationY@DirectX@@YQ?AUXMMATRIX@1@M@Z$rtcName$0
	ORG $+144
?XMMatrixRotationY@DirectX@@YQ?AUXMMATRIX@1@M@Z$rtcFrameData DD 03H ; DirectX::XMMatrixRotationY
	DD	00H
	DQ	FLAT:?XMMatrixRotationY@DirectX@@YQ?AUXMMATRIX@1@M@Z$rtcVarDesc
CONST	ENDS
;	COMDAT xdata
xdata	SEGMENT
$unwind$?XMMatrixRotationX@DirectX@@YQ?AUXMMATRIX@1@M@Z DD 035053419H
	DD	010f3314H
	DD	070080087H
	DD	05007H
	DD	imagerel __GSHandlerCheck
	DD	0428H
xdata	ENDS
;	COMDAT CONST
CONST	SEGMENT
?XMMatrixRotationX@DirectX@@YQ?AUXMMATRIX@1@M@Z$rtcName$0 DB 053H ; DirectX::XMMatrixRotationX
	DB	069H
	DB	06eH
	DB	041H
	DB	06eH
	DB	067H
	DB	06cH
	DB	065H
	DB	00H
	ORG $+7
?XMMatrixRotationX@DirectX@@YQ?AUXMMATRIX@1@M@Z$rtcName$1 DB 043H ; DirectX::XMMatrixRotationX
	DB	06fH
	DB	073H
	DB	041H
	DB	06eH
	DB	067H
	DB	06cH
	DB	065H
	DB	00H
	ORG $+3
?XMMatrixRotationX@DirectX@@YQ?AUXMMATRIX@1@M@Z$rtcName$2 DB 04dH ; DirectX::XMMatrixRotationX
	DB	00H
	ORG $+2
?XMMatrixRotationX@DirectX@@YQ?AUXMMATRIX@1@M@Z$rtcVarDesc DD 0e0H ; DirectX::XMMatrixRotationX
	DD	040H
	DQ	FLAT:?XMMatrixRotationX@DirectX@@YQ?AUXMMATRIX@1@M@Z$rtcName$2
	DD	054H
	DD	04H
	DQ	FLAT:?XMMatrixRotationX@DirectX@@YQ?AUXMMATRIX@1@M@Z$rtcName$1
	DD	034H
	DD	04H
	DQ	FLAT:?XMMatrixRotationX@DirectX@@YQ?AUXMMATRIX@1@M@Z$rtcName$0
	ORG $+144
?XMMatrixRotationX@DirectX@@YQ?AUXMMATRIX@1@M@Z$rtcFrameData DD 03H ; DirectX::XMMatrixRotationX
	DD	00H
	DQ	FLAT:?XMMatrixRotationX@DirectX@@YQ?AUXMMATRIX@1@M@Z$rtcVarDesc
CONST	ENDS
;	COMDAT xdata
xdata	SEGMENT
$unwind$?XMMatrixMultiply@DirectX@@YQ?AUXMMATRIX@1@U21@AEBU21@@Z DD 035053f19H
	DD	010e3313H
	DD	0700701b7H
	DD	05006H
	DD	imagerel __GSHandlerCheck
	DD	0da8H
xdata	ENDS
;	COMDAT CONST
CONST	SEGMENT
?XMMatrixMultiply@DirectX@@YQ?AUXMMATRIX@1@U21@AEBU21@@Z$rtcName$0 DB 04dH ; DirectX::XMMatrixMultiply
	DB	031H
	DB	00H
	ORG $+5
?XMMatrixMultiply@DirectX@@YQ?AUXMMATRIX@1@U21@AEBU21@@Z$rtcName$1 DB 06dH ; DirectX::XMMatrixMultiply
	DB	052H
	DB	065H
	DB	073H
	DB	075H
	DB	06cH
	DB	074H
	DB	00H
?XMMatrixMultiply@DirectX@@YQ?AUXMMATRIX@1@U21@AEBU21@@Z$rtcVarDesc DD 0a0H ; DirectX::XMMatrixMultiply
	DD	040H
	DQ	FLAT:?XMMatrixMultiply@DirectX@@YQ?AUXMMATRIX@1@U21@AEBU21@@Z$rtcName$1
	DD	040H
	DD	040H
	DQ	FLAT:?XMMatrixMultiply@DirectX@@YQ?AUXMMATRIX@1@U21@AEBU21@@Z$rtcName$0
	ORG $+96
?XMMatrixMultiply@DirectX@@YQ?AUXMMATRIX@1@U21@AEBU21@@Z$rtcFrameData DD 02H ; DirectX::XMMatrixMultiply
	DD	00H
	DQ	FLAT:?XMMatrixMultiply@DirectX@@YQ?AUXMMATRIX@1@U21@AEBU21@@Z$rtcVarDesc
CONST	ENDS
;	COMDAT xdata
xdata	SEGMENT
$unwind$?XMVector3Normalize@DirectX@@YQ?AT__m128@@T2@@Z DD 035052a01H
	DD	010a330fH
	DD	0700300dfH
	DD	05002H
xdata	ENDS
;	COMDAT xdata
xdata	SEGMENT
$unwind$?XMVector3Length@DirectX@@YQ?AT__m128@@T2@@Z DD 015052a01H
	DD	010a130fH
	DD	070030057H
	DD	05002H
xdata	ENDS
;	COMDAT xdata
xdata	SEGMENT
$unwind$?XMVectorScale@DirectX@@YQ?AT__m128@@T2@M@Z DD 015052f01H
	DD	010f1314H
	DD	070080033H
	DD	05007H
xdata	ENDS
;	COMDAT xdata
xdata	SEGMENT
$unwind$?XMVectorSubtract@DirectX@@YQ?AT__m128@@T2@0@Z DD 015053601H
	DD	010a130fH
	DD	07003002dH
	DD	05002H
xdata	ENDS
;	COMDAT xdata
xdata	SEGMENT
$unwind$?XMVectorAdd@DirectX@@YQ?AT__m128@@T2@0@Z DD 015053601H
	DD	010a130fH
	DD	07003002dH
	DD	05002H
xdata	ENDS
;	COMDAT xdata
xdata	SEGMENT
$unwind$?XMVectorSetY@DirectX@@YQ?AT__m128@@T2@M@Z DD 015052f01H
	DD	010f1314H
	DD	070080045H
	DD	05007H
xdata	ENDS
;	COMDAT xdata
xdata	SEGMENT
$unwind$?XMVectorGetY@DirectX@@YQMT__m128@@@Z DD 015052a01H
	DD	010a130fH
	DD	07003002dH
	DD	05002H
xdata	ENDS
;	COMDAT xdata
xdata	SEGMENT
$unwind$?XMVectorGetX@DirectX@@YQMT__m128@@@Z DD 015052a01H
	DD	010a130fH
	DD	070030021H
	DD	05002H
xdata	ENDS
;	COMDAT xdata
xdata	SEGMENT
$unwind$?XMStoreFloat4x4@DirectX@@YQXPEAUXMFLOAT4X4@1@UXMMATRIX@1@@Z DD 025053601H
	DD	010e2313H
	DD	070070029H
	DD	05006H
xdata	ENDS
;	COMDAT CONST
CONST	SEGMENT
?XMStoreFloat4x4@DirectX@@YQXPEAUXMFLOAT4X4@1@UXMMATRIX@1@@Z$rtcName$0 DB 04dH ; DirectX::XMStoreFloat4x4
	DB	00H
	ORG $+14
?XMStoreFloat4x4@DirectX@@YQXPEAUXMFLOAT4X4@1@UXMMATRIX@1@@Z$rtcVarDesc DD 030H ; DirectX::XMStoreFloat4x4
	DD	040H
	DQ	FLAT:?XMStoreFloat4x4@DirectX@@YQXPEAUXMFLOAT4X4@1@UXMMATRIX@1@@Z$rtcName$0
	ORG $+48
?XMStoreFloat4x4@DirectX@@YQXPEAUXMFLOAT4X4@1@UXMMATRIX@1@@Z$rtcFrameData DD 01H ; DirectX::XMStoreFloat4x4
	DD	00H
	DQ	FLAT:?XMStoreFloat4x4@DirectX@@YQXPEAUXMFLOAT4X4@1@UXMMATRIX@1@@Z$rtcVarDesc
CONST	ENDS
;	COMDAT xdata
xdata	SEGMENT
$unwind$?XMStoreFloat3@DirectX@@YQXPEAUXMFLOAT3@1@T__m128@@@Z DD 025053601H
	DD	010e2313H
	DD	07007003bH
	DD	05006H
xdata	ENDS
;	COMDAT xdata
xdata	SEGMENT
$unwind$?XMLoadFloat4x4@DirectX@@YQ?AUXMMATRIX@1@PEBUXMFLOAT4X4@1@@Z DD 035053b19H
	DD	010e3313H
	DD	070070043H
	DD	05006H
	DD	imagerel __GSHandlerCheck
	DD	0208H
xdata	ENDS
;	COMDAT CONST
CONST	SEGMENT
?XMLoadFloat4x4@DirectX@@YQ?AUXMMATRIX@1@PEBUXMFLOAT4X4@1@@Z$rtcName$0 DB 04dH ; DirectX::XMLoadFloat4x4
	DB	00H
	ORG $+14
?XMLoadFloat4x4@DirectX@@YQ?AUXMMATRIX@1@PEBUXMFLOAT4X4@1@@Z$rtcVarDesc DD 040H ; DirectX::XMLoadFloat4x4
	DD	040H
	DQ	FLAT:?XMLoadFloat4x4@DirectX@@YQ?AUXMMATRIX@1@PEBUXMFLOAT4X4@1@@Z$rtcName$0
	ORG $+48
?XMLoadFloat4x4@DirectX@@YQ?AUXMMATRIX@1@PEBUXMFLOAT4X4@1@@Z$rtcFrameData DD 01H ; DirectX::XMLoadFloat4x4
	DD	00H
	DQ	FLAT:?XMLoadFloat4x4@DirectX@@YQ?AUXMMATRIX@1@PEBUXMFLOAT4X4@1@@Z$rtcVarDesc
CONST	ENDS
;	COMDAT xdata
xdata	SEGMENT
$unwind$?XMLoadFloat4@DirectX@@YQ?AT__m128@@PEBUXMFLOAT4@1@@Z DD 035052a01H
	DD	010e3313H
	DD	070070025H
	DD	05006H
xdata	ENDS
;	COMDAT xdata
xdata	SEGMENT
$unwind$??0XMFLOAT4X4@DirectX@@QEAA@XZ DD 05052801H
	DD	010e0311H
	DD	070070019H
	DD	05006H
xdata	ENDS
;	COMDAT xdata
xdata	SEGMENT
$unwind$??0XMFLOAT3@DirectX@@QEAA@MMM@Z DD 05053a01H
	DD	01200323H
	DD	070190019H
	DD	05018H
xdata	ENDS
;	COMDAT xdata
xdata	SEGMENT
$unwind$??0XMFLOAT3@DirectX@@QEAA@XZ DD 05052801H
	DD	010e0311H
	DD	070070019H
	DD	05006H
xdata	ENDS
;	COMDAT xdata
xdata	SEGMENT
$unwind$??DXMMATRIX@DirectX@@QEBQ?AU01@U01@@Z DD 035063701H
	DD	010f3314H
	DD	070080042H
	DD	050066007H
xdata	ENDS
;	COMDAT CONST
CONST	SEGMENT
??DXMMATRIX@DirectX@@QEBQ?AU01@U01@@Z$rtcName$0 DB 04dH	; DirectX::XMMATRIX::operator*
	DB	00H
	ORG $+14
??DXMMATRIX@DirectX@@QEBQ?AU01@U01@@Z$rtcVarDesc DD 040H ; DirectX::XMMATRIX::operator*
	DD	040H
	DQ	FLAT:??DXMMATRIX@DirectX@@QEBQ?AU01@U01@@Z$rtcName$0
	ORG $+48
??DXMMATRIX@DirectX@@QEBQ?AU01@U01@@Z$rtcFrameData DD 01H ; DirectX::XMMATRIX::operator*
	DD	00H
	DQ	FLAT:??DXMMATRIX@DirectX@@QEBQ?AU01@U01@@Z$rtcVarDesc
CONST	ENDS
;	COMDAT xdata
xdata	SEGMENT
$unwind$??4XMMATRIX@DirectX@@QEAAAEAU01@AEBU01@@Z DD 05052d01H
	DD	01130316H
	DD	0700c0019H
	DD	0500bH
xdata	ENDS
;	COMDAT xdata
xdata	SEGMENT
$unwind$??0XMMATRIX@DirectX@@QEAA@XZ DD 05052801H
	DD	010e0311H
	DD	070070019H
	DD	05006H
xdata	ENDS
;	COMDAT xdata
xdata	SEGMENT
$unwind$??DDirectX@@YQ?AT__m128@@T1@M@Z DD 035052f01H
	DD	010f3314H
	DD	07008002bH
	DD	05007H
xdata	ENDS
;	COMDAT xdata
xdata	SEGMENT
$unwind$??GDirectX@@YQ?AT__m128@@T1@0@Z DD 035053601H
	DD	010a330fH
	DD	070030031H
	DD	05002H
xdata	ENDS
;	COMDAT xdata
xdata	SEGMENT
$unwind$??HDirectX@@YQ?AT__m128@@T1@0@Z DD 035053601H
	DD	010a330fH
	DD	070030031H
	DD	05002H
xdata	ENDS
;	COMDAT xdata
xdata	SEGMENT
$unwind$??BXMVECTORI32@DirectX@@QEBA?AT__m128@@XZ DD 05052d01H
	DD	01130316H
	DD	0700c0019H
	DD	0500bH
xdata	ENDS
;	COMDAT xdata
xdata	SEGMENT
$unwind$??BXMVECTORF32@DirectX@@QEBA?AT__m128@@XZ DD 05052d01H
	DD	01130316H
	DD	0700c0019H
	DD	0500bH
xdata	ENDS
;	COMDAT xdata
xdata	SEGMENT
$unwind$?XMConvertToRadians@DirectX@@YAMM@Z DD 015052301H
	DD	010f1314H
	DD	07008001bH
	DD	05007H
xdata	ENDS
;	COMDAT xdata
xdata	SEGMENT
$unwind$?__empty_global_delete@@YAXPEAX_K@Z DD 05052d01H
	DD	01130316H
	DD	0700c0019H
	DD	0500bH
xdata	ENDS
;	COMDAT xdata
xdata	SEGMENT
$unwind$?__empty_global_delete@@YAXPEAX@Z DD 05052801H
	DD	010e0311H
	DD	070070019H
	DD	05006H
xdata	ENDS
;	COMDAT xdata
xdata	SEGMENT
$unwind$??_H@YAXPEAX_K1P6APEAX0@Z@Z DD 025053901H
	DD	011d2322H
	DD	07016001fH
	DD	05015H
xdata	ENDS
; Function compile flags: /Odtp /RTCsu /ZI
; File c:\users\arcco\documents\github\framework\reference\headers\engine_template.h
;	COMDAT ??$Safe_Release@PEAVCShader@Engine@@@Engine@@YAKAEAPEAVCShader@0@@Z
_TEXT	SEGMENT
dwRefCnt$ = 4
classType$ = 256
??$Safe_Release@PEAVCShader@Engine@@@Engine@@YAKAEAPEAVCShader@0@@Z PROC ; Engine::Safe_Release<Engine::CShader * __ptr64>, COMDAT

; 18   : 	{

$LN5:
  00000	48 89 4c 24 08	 mov	 QWORD PTR [rsp+8], rcx
  00005	55		 push	 rbp
  00006	57		 push	 rdi
  00007	48 81 ec 08 01
	00 00		 sub	 rsp, 264		; 00000108H
  0000e	48 8d 6c 24 20	 lea	 rbp, QWORD PTR [rsp+32]
  00013	48 8b fc	 mov	 rdi, rsp
  00016	b9 42 00 00 00	 mov	 ecx, 66			; 00000042H
  0001b	b8 cc cc cc cc	 mov	 eax, -858993460		; ccccccccH
  00020	f3 ab		 rep stosd
  00022	48 8b 8c 24 28
	01 00 00	 mov	 rcx, QWORD PTR [rsp+296]

; 19   : 		unsigned long dwRefCnt = 0;

  0002a	c7 45 04 00 00
	00 00		 mov	 DWORD PTR dwRefCnt$[rbp], 0

; 20   : 
; 21   : 		if (nullptr != classType)

  00031	48 8b 85 00 01
	00 00		 mov	 rax, QWORD PTR classType$[rbp]
  00038	48 83 38 00	 cmp	 QWORD PTR [rax], 0
  0003c	74 27		 je	 SHORT $LN2@Safe_Relea

; 22   : 		{
; 23   : 			dwRefCnt = classType->Release();

  0003e	48 8b 85 00 01
	00 00		 mov	 rax, QWORD PTR classType$[rbp]
  00045	48 8b 08	 mov	 rcx, QWORD PTR [rax]
  00048	ff 15 00 00 00
	00		 call	 QWORD PTR __imp_?Release@CBase@Engine@@QEAAKXZ
  0004e	89 45 04	 mov	 DWORD PTR dwRefCnt$[rbp], eax

; 24   : 
; 25   : 			if (0 == dwRefCnt)

  00051	83 7d 04 00	 cmp	 DWORD PTR dwRefCnt$[rbp], 0
  00055	75 0e		 jne	 SHORT $LN3@Safe_Relea

; 26   : 			{
; 27   : 				classType = nullptr;

  00057	48 8b 85 00 01
	00 00		 mov	 rax, QWORD PTR classType$[rbp]
  0005e	48 c7 00 00 00
	00 00		 mov	 QWORD PTR [rax], 0
$LN3@Safe_Relea:
$LN2@Safe_Relea:

; 28   : 			}
; 29   : 		}
; 30   : 
; 31   : 		return dwRefCnt;

  00065	8b 45 04	 mov	 eax, DWORD PTR dwRefCnt$[rbp]

; 32   : 	}

  00068	48 8d a5 e8 00
	00 00		 lea	 rsp, QWORD PTR [rbp+232]
  0006f	5f		 pop	 rdi
  00070	5d		 pop	 rbp
  00071	c3		 ret	 0
??$Safe_Release@PEAVCShader@Engine@@@Engine@@YAKAEAPEAVCShader@0@@Z ENDP ; Engine::Safe_Release<Engine::CShader * __ptr64>
_TEXT	ENDS
; Function compile flags: /Odtp /RTCsu /ZI
; File c:\users\arcco\documents\github\framework\reference\headers\engine_template.h
;	COMDAT ??$Safe_Release@PEAVCModel@Engine@@@Engine@@YAKAEAPEAVCModel@0@@Z
_TEXT	SEGMENT
dwRefCnt$ = 4
classType$ = 256
??$Safe_Release@PEAVCModel@Engine@@@Engine@@YAKAEAPEAVCModel@0@@Z PROC ; Engine::Safe_Release<Engine::CModel * __ptr64>, COMDAT

; 18   : 	{

$LN5:
  00000	48 89 4c 24 08	 mov	 QWORD PTR [rsp+8], rcx
  00005	55		 push	 rbp
  00006	57		 push	 rdi
  00007	48 81 ec 08 01
	00 00		 sub	 rsp, 264		; 00000108H
  0000e	48 8d 6c 24 20	 lea	 rbp, QWORD PTR [rsp+32]
  00013	48 8b fc	 mov	 rdi, rsp
  00016	b9 42 00 00 00	 mov	 ecx, 66			; 00000042H
  0001b	b8 cc cc cc cc	 mov	 eax, -858993460		; ccccccccH
  00020	f3 ab		 rep stosd
  00022	48 8b 8c 24 28
	01 00 00	 mov	 rcx, QWORD PTR [rsp+296]

; 19   : 		unsigned long dwRefCnt = 0;

  0002a	c7 45 04 00 00
	00 00		 mov	 DWORD PTR dwRefCnt$[rbp], 0

; 20   : 
; 21   : 		if (nullptr != classType)

  00031	48 8b 85 00 01
	00 00		 mov	 rax, QWORD PTR classType$[rbp]
  00038	48 83 38 00	 cmp	 QWORD PTR [rax], 0
  0003c	74 27		 je	 SHORT $LN2@Safe_Relea

; 22   : 		{
; 23   : 			dwRefCnt = classType->Release();

  0003e	48 8b 85 00 01
	00 00		 mov	 rax, QWORD PTR classType$[rbp]
  00045	48 8b 08	 mov	 rcx, QWORD PTR [rax]
  00048	ff 15 00 00 00
	00		 call	 QWORD PTR __imp_?Release@CBase@Engine@@QEAAKXZ
  0004e	89 45 04	 mov	 DWORD PTR dwRefCnt$[rbp], eax

; 24   : 
; 25   : 			if (0 == dwRefCnt)

  00051	83 7d 04 00	 cmp	 DWORD PTR dwRefCnt$[rbp], 0
  00055	75 0e		 jne	 SHORT $LN3@Safe_Relea

; 26   : 			{
; 27   : 				classType = nullptr;

  00057	48 8b 85 00 01
	00 00		 mov	 rax, QWORD PTR classType$[rbp]
  0005e	48 c7 00 00 00
	00 00		 mov	 QWORD PTR [rax], 0
$LN3@Safe_Relea:
$LN2@Safe_Relea:

; 28   : 			}
; 29   : 		}
; 30   : 
; 31   : 		return dwRefCnt;

  00065	8b 45 04	 mov	 eax, DWORD PTR dwRefCnt$[rbp]

; 32   : 	}

  00068	48 8d a5 e8 00
	00 00		 lea	 rsp, QWORD PTR [rbp+232]
  0006f	5f		 pop	 rdi
  00070	5d		 pop	 rbp
  00071	c3		 ret	 0
??$Safe_Release@PEAVCModel@Engine@@@Engine@@YAKAEAPEAVCModel@0@@Z ENDP ; Engine::Safe_Release<Engine::CModel * __ptr64>
_TEXT	ENDS
; Function compile flags: /Odtp /RTCsu /ZI
; File c:\users\arcco\documents\github\framework\reference\headers\engine_template.h
;	COMDAT ??$Safe_Release@PEAVCTransform@Engine@@@Engine@@YAKAEAPEAVCTransform@0@@Z
_TEXT	SEGMENT
dwRefCnt$ = 4
classType$ = 256
??$Safe_Release@PEAVCTransform@Engine@@@Engine@@YAKAEAPEAVCTransform@0@@Z PROC ; Engine::Safe_Release<Engine::CTransform * __ptr64>, COMDAT

; 18   : 	{

$LN5:
  00000	48 89 4c 24 08	 mov	 QWORD PTR [rsp+8], rcx
  00005	55		 push	 rbp
  00006	57		 push	 rdi
  00007	48 81 ec 08 01
	00 00		 sub	 rsp, 264		; 00000108H
  0000e	48 8d 6c 24 20	 lea	 rbp, QWORD PTR [rsp+32]
  00013	48 8b fc	 mov	 rdi, rsp
  00016	b9 42 00 00 00	 mov	 ecx, 66			; 00000042H
  0001b	b8 cc cc cc cc	 mov	 eax, -858993460		; ccccccccH
  00020	f3 ab		 rep stosd
  00022	48 8b 8c 24 28
	01 00 00	 mov	 rcx, QWORD PTR [rsp+296]

; 19   : 		unsigned long dwRefCnt = 0;

  0002a	c7 45 04 00 00
	00 00		 mov	 DWORD PTR dwRefCnt$[rbp], 0

; 20   : 
; 21   : 		if (nullptr != classType)

  00031	48 8b 85 00 01
	00 00		 mov	 rax, QWORD PTR classType$[rbp]
  00038	48 83 38 00	 cmp	 QWORD PTR [rax], 0
  0003c	74 27		 je	 SHORT $LN2@Safe_Relea

; 22   : 		{
; 23   : 			dwRefCnt = classType->Release();

  0003e	48 8b 85 00 01
	00 00		 mov	 rax, QWORD PTR classType$[rbp]
  00045	48 8b 08	 mov	 rcx, QWORD PTR [rax]
  00048	ff 15 00 00 00
	00		 call	 QWORD PTR __imp_?Release@CBase@Engine@@QEAAKXZ
  0004e	89 45 04	 mov	 DWORD PTR dwRefCnt$[rbp], eax

; 24   : 
; 25   : 			if (0 == dwRefCnt)

  00051	83 7d 04 00	 cmp	 DWORD PTR dwRefCnt$[rbp], 0
  00055	75 0e		 jne	 SHORT $LN3@Safe_Relea

; 26   : 			{
; 27   : 				classType = nullptr;

  00057	48 8b 85 00 01
	00 00		 mov	 rax, QWORD PTR classType$[rbp]
  0005e	48 c7 00 00 00
	00 00		 mov	 QWORD PTR [rax], 0
$LN3@Safe_Relea:
$LN2@Safe_Relea:

; 28   : 			}
; 29   : 		}
; 30   : 
; 31   : 		return dwRefCnt;

  00065	8b 45 04	 mov	 eax, DWORD PTR dwRefCnt$[rbp]

; 32   : 	}

  00068	48 8d a5 e8 00
	00 00		 lea	 rsp, QWORD PTR [rbp+232]
  0006f	5f		 pop	 rdi
  00070	5d		 pop	 rbp
  00071	c3		 ret	 0
??$Safe_Release@PEAVCTransform@Engine@@@Engine@@YAKAEAPEAVCTransform@0@@Z ENDP ; Engine::Safe_Release<Engine::CTransform * __ptr64>
_TEXT	ENDS
; Function compile flags: /Odtp /RTCsu /ZI
; File c:\users\arcco\documents\github\framework\reference\headers\engine_template.h
;	COMDAT ??$Safe_Release@PEAVCRenderer@Engine@@@Engine@@YAKAEAPEAVCRenderer@0@@Z
_TEXT	SEGMENT
dwRefCnt$ = 4
classType$ = 256
??$Safe_Release@PEAVCRenderer@Engine@@@Engine@@YAKAEAPEAVCRenderer@0@@Z PROC ; Engine::Safe_Release<Engine::CRenderer * __ptr64>, COMDAT

; 18   : 	{

$LN5:
  00000	48 89 4c 24 08	 mov	 QWORD PTR [rsp+8], rcx
  00005	55		 push	 rbp
  00006	57		 push	 rdi
  00007	48 81 ec 08 01
	00 00		 sub	 rsp, 264		; 00000108H
  0000e	48 8d 6c 24 20	 lea	 rbp, QWORD PTR [rsp+32]
  00013	48 8b fc	 mov	 rdi, rsp
  00016	b9 42 00 00 00	 mov	 ecx, 66			; 00000042H
  0001b	b8 cc cc cc cc	 mov	 eax, -858993460		; ccccccccH
  00020	f3 ab		 rep stosd
  00022	48 8b 8c 24 28
	01 00 00	 mov	 rcx, QWORD PTR [rsp+296]

; 19   : 		unsigned long dwRefCnt = 0;

  0002a	c7 45 04 00 00
	00 00		 mov	 DWORD PTR dwRefCnt$[rbp], 0

; 20   : 
; 21   : 		if (nullptr != classType)

  00031	48 8b 85 00 01
	00 00		 mov	 rax, QWORD PTR classType$[rbp]
  00038	48 83 38 00	 cmp	 QWORD PTR [rax], 0
  0003c	74 27		 je	 SHORT $LN2@Safe_Relea

; 22   : 		{
; 23   : 			dwRefCnt = classType->Release();

  0003e	48 8b 85 00 01
	00 00		 mov	 rax, QWORD PTR classType$[rbp]
  00045	48 8b 08	 mov	 rcx, QWORD PTR [rax]
  00048	ff 15 00 00 00
	00		 call	 QWORD PTR __imp_?Release@CBase@Engine@@QEAAKXZ
  0004e	89 45 04	 mov	 DWORD PTR dwRefCnt$[rbp], eax

; 24   : 
; 25   : 			if (0 == dwRefCnt)

  00051	83 7d 04 00	 cmp	 DWORD PTR dwRefCnt$[rbp], 0
  00055	75 0e		 jne	 SHORT $LN3@Safe_Relea

; 26   : 			{
; 27   : 				classType = nullptr;

  00057	48 8b 85 00 01
	00 00		 mov	 rax, QWORD PTR classType$[rbp]
  0005e	48 c7 00 00 00
	00 00		 mov	 QWORD PTR [rax], 0
$LN3@Safe_Relea:
$LN2@Safe_Relea:

; 28   : 			}
; 29   : 		}
; 30   : 
; 31   : 		return dwRefCnt;

  00065	8b 45 04	 mov	 eax, DWORD PTR dwRefCnt$[rbp]

; 32   : 	}

  00068	48 8d a5 e8 00
	00 00		 lea	 rsp, QWORD PTR [rbp+232]
  0006f	5f		 pop	 rdi
  00070	5d		 pop	 rbp
  00071	c3		 ret	 0
??$Safe_Release@PEAVCRenderer@Engine@@@Engine@@YAKAEAPEAVCRenderer@0@@Z ENDP ; Engine::Safe_Release<Engine::CRenderer * __ptr64>
_TEXT	ENDS
; Function compile flags: /Odtp /RTCsu /ZI
; File c:\users\arcco\documents\github\framework\reference\headers\engine_template.h
;	COMDAT ??$Safe_Release@PEAVCSwordTrail@Client@@@Engine@@YAKAEAPEAVCSwordTrail@Client@@@Z
_TEXT	SEGMENT
dwRefCnt$ = 4
classType$ = 256
??$Safe_Release@PEAVCSwordTrail@Client@@@Engine@@YAKAEAPEAVCSwordTrail@Client@@@Z PROC ; Engine::Safe_Release<Client::CSwordTrail * __ptr64>, COMDAT

; 18   : 	{

$LN5:
  00000	48 89 4c 24 08	 mov	 QWORD PTR [rsp+8], rcx
  00005	55		 push	 rbp
  00006	57		 push	 rdi
  00007	48 81 ec 08 01
	00 00		 sub	 rsp, 264		; 00000108H
  0000e	48 8d 6c 24 20	 lea	 rbp, QWORD PTR [rsp+32]
  00013	48 8b fc	 mov	 rdi, rsp
  00016	b9 42 00 00 00	 mov	 ecx, 66			; 00000042H
  0001b	b8 cc cc cc cc	 mov	 eax, -858993460		; ccccccccH
  00020	f3 ab		 rep stosd
  00022	48 8b 8c 24 28
	01 00 00	 mov	 rcx, QWORD PTR [rsp+296]

; 19   : 		unsigned long dwRefCnt = 0;

  0002a	c7 45 04 00 00
	00 00		 mov	 DWORD PTR dwRefCnt$[rbp], 0

; 20   : 
; 21   : 		if (nullptr != classType)

  00031	48 8b 85 00 01
	00 00		 mov	 rax, QWORD PTR classType$[rbp]
  00038	48 83 38 00	 cmp	 QWORD PTR [rax], 0
  0003c	74 27		 je	 SHORT $LN2@Safe_Relea

; 22   : 		{
; 23   : 			dwRefCnt = classType->Release();

  0003e	48 8b 85 00 01
	00 00		 mov	 rax, QWORD PTR classType$[rbp]
  00045	48 8b 08	 mov	 rcx, QWORD PTR [rax]
  00048	ff 15 00 00 00
	00		 call	 QWORD PTR __imp_?Release@CBase@Engine@@QEAAKXZ
  0004e	89 45 04	 mov	 DWORD PTR dwRefCnt$[rbp], eax

; 24   : 
; 25   : 			if (0 == dwRefCnt)

  00051	83 7d 04 00	 cmp	 DWORD PTR dwRefCnt$[rbp], 0
  00055	75 0e		 jne	 SHORT $LN3@Safe_Relea

; 26   : 			{
; 27   : 				classType = nullptr;

  00057	48 8b 85 00 01
	00 00		 mov	 rax, QWORD PTR classType$[rbp]
  0005e	48 c7 00 00 00
	00 00		 mov	 QWORD PTR [rax], 0
$LN3@Safe_Relea:
$LN2@Safe_Relea:

; 28   : 			}
; 29   : 		}
; 30   : 
; 31   : 		return dwRefCnt;

  00065	8b 45 04	 mov	 eax, DWORD PTR dwRefCnt$[rbp]

; 32   : 	}

  00068	48 8d a5 e8 00
	00 00		 lea	 rsp, QWORD PTR [rbp+232]
  0006f	5f		 pop	 rdi
  00070	5d		 pop	 rbp
  00071	c3		 ret	 0
??$Safe_Release@PEAVCSwordTrail@Client@@@Engine@@YAKAEAPEAVCSwordTrail@Client@@@Z ENDP ; Engine::Safe_Release<Client::CSwordTrail * __ptr64>
_TEXT	ENDS
; Function compile flags: /Odtp /RTCsu /ZI
; File c:\users\arcco\documents\github\framework\client\public\character.h
;	COMDAT ?GetLockOnTarget@CCharacter@Client@@QEAAPEAVCGameObject@Engine@@XZ
_TEXT	SEGMENT
tv67 = 192
this$ = 240
?GetLockOnTarget@CCharacter@Client@@QEAAPEAVCGameObject@Engine@@XZ PROC ; Client::CCharacter::GetLockOnTarget, COMDAT

; 225  : 	CGameObject* GetLockOnTarget() { return m_pNearEnemy != nullptr ? (CGameObject*)m_pNearEnemy : nullptr; }

$LN5:
  00000	48 89 4c 24 08	 mov	 QWORD PTR [rsp+8], rcx
  00005	55		 push	 rbp
  00006	57		 push	 rdi
  00007	48 81 ec d8 00
	00 00		 sub	 rsp, 216		; 000000d8H
  0000e	48 8b ec	 mov	 rbp, rsp
  00011	48 8b fc	 mov	 rdi, rsp
  00014	b9 36 00 00 00	 mov	 ecx, 54			; 00000036H
  00019	b8 cc cc cc cc	 mov	 eax, -858993460		; ccccccccH
  0001e	f3 ab		 rep stosd
  00020	48 8b 8c 24 f8
	00 00 00	 mov	 rcx, QWORD PTR [rsp+248]
  00028	48 8b 85 f0 00
	00 00		 mov	 rax, QWORD PTR this$[rbp]
  0002f	48 83 b8 98 01
	00 00 00	 cmp	 QWORD PTR [rax+408], 0
  00037	74 17		 je	 SHORT $LN3@GetLockOnT
  00039	48 8b 85 f0 00
	00 00		 mov	 rax, QWORD PTR this$[rbp]
  00040	48 8b 80 98 01
	00 00		 mov	 rax, QWORD PTR [rax+408]
  00047	48 89 85 c0 00
	00 00		 mov	 QWORD PTR tv67[rbp], rax
  0004e	eb 0b		 jmp	 SHORT $LN4@GetLockOnT
$LN3@GetLockOnT:
  00050	48 c7 85 c0 00
	00 00 00 00 00
	00		 mov	 QWORD PTR tv67[rbp], 0
$LN4@GetLockOnT:
  0005b	48 8b 85 c0 00
	00 00		 mov	 rax, QWORD PTR tv67[rbp]
  00062	48 8d a5 d8 00
	00 00		 lea	 rsp, QWORD PTR [rbp+216]
  00069	5f		 pop	 rdi
  0006a	5d		 pop	 rbp
  0006b	c3		 ret	 0
?GetLockOnTarget@CCharacter@Client@@QEAAPEAVCGameObject@Engine@@XZ ENDP ; Client::CCharacter::GetLockOnTarget
_TEXT	ENDS
; Function compile flags: /Odtp /RTCsu /ZI
;	COMDAT ??_GCSwordTrail@Client@@EEAAPEAXI@Z
_TEXT	SEGMENT
this$ = 224
__flags$ = 232
??_GCSwordTrail@Client@@EEAAPEAXI@Z PROC		; Client::CSwordTrail::`scalar deleting destructor', COMDAT
$LN4:
  00000	89 54 24 10	 mov	 DWORD PTR [rsp+16], edx
  00004	48 89 4c 24 08	 mov	 QWORD PTR [rsp+8], rcx
  00009	55		 push	 rbp
  0000a	57		 push	 rdi
  0000b	48 81 ec e8 00
	00 00		 sub	 rsp, 232		; 000000e8H
  00012	48 8d 6c 24 20	 lea	 rbp, QWORD PTR [rsp+32]
  00017	48 8b fc	 mov	 rdi, rsp
  0001a	b9 3a 00 00 00	 mov	 ecx, 58			; 0000003aH
  0001f	b8 cc cc cc cc	 mov	 eax, -858993460		; ccccccccH
  00024	f3 ab		 rep stosd
  00026	48 8b 8c 24 08
	01 00 00	 mov	 rcx, QWORD PTR [rsp+264]
  0002e	48 8b 8d e0 00
	00 00		 mov	 rcx, QWORD PTR this$[rbp]
  00035	e8 00 00 00 00	 call	 ??1CSwordTrail@Client@@EEAA@XZ ; Client::CSwordTrail::~CSwordTrail
  0003a	8b 85 e8 00 00
	00		 mov	 eax, DWORD PTR __flags$[rbp]
  00040	83 e0 01	 and	 eax, 1
  00043	85 c0		 test	 eax, eax
  00045	74 11		 je	 SHORT $LN2@scalar
  00047	ba 38 01 00 00	 mov	 edx, 312		; 00000138H
  0004c	48 8b 8d e0 00
	00 00		 mov	 rcx, QWORD PTR this$[rbp]
  00053	e8 00 00 00 00	 call	 ??3@YAXPEAX_K@Z		; operator delete
$LN2@scalar:
  00058	48 8b 85 e0 00
	00 00		 mov	 rax, QWORD PTR this$[rbp]
  0005f	48 8d a5 c8 00
	00 00		 lea	 rsp, QWORD PTR [rbp+200]
  00066	5f		 pop	 rdi
  00067	5d		 pop	 rbp
  00068	c3		 ret	 0
??_GCSwordTrail@Client@@EEAAPEAXI@Z ENDP		; Client::CSwordTrail::`scalar deleting destructor'
_TEXT	ENDS
; Function compile flags: /Odtp /RTCsu /ZI
;	COMDAT ??0CSwordTrail@Client@@QEAA@AEBV01@@Z
_TEXT	SEGMENT
this$ = 224
__that$ = 232
??0CSwordTrail@Client@@QEAA@AEBV01@@Z PROC		; Client::CSwordTrail::CSwordTrail, COMDAT
$LN4:
  00000	48 89 54 24 10	 mov	 QWORD PTR [rsp+16], rdx
  00005	48 89 4c 24 08	 mov	 QWORD PTR [rsp+8], rcx
  0000a	55		 push	 rbp
  0000b	56		 push	 rsi
  0000c	57		 push	 rdi
  0000d	48 81 ec e0 00
	00 00		 sub	 rsp, 224		; 000000e0H
  00014	48 8d 6c 24 20	 lea	 rbp, QWORD PTR [rsp+32]
  00019	48 8b fc	 mov	 rdi, rsp
  0001c	b9 38 00 00 00	 mov	 ecx, 56			; 00000038H
  00021	b8 cc cc cc cc	 mov	 eax, -858993460		; ccccccccH
  00026	f3 ab		 rep stosd
  00028	48 8b 8c 24 08
	01 00 00	 mov	 rcx, QWORD PTR [rsp+264]
  00030	48 8b 95 e8 00
	00 00		 mov	 rdx, QWORD PTR __that$[rbp]
  00037	48 8b 8d e0 00
	00 00		 mov	 rcx, QWORD PTR this$[rbp]
  0003e	ff 15 00 00 00
	00		 call	 QWORD PTR __imp_??0CGameObject@Engine@@IEAA@AEBV01@@Z
  00044	48 8b 85 e0 00
	00 00		 mov	 rax, QWORD PTR this$[rbp]
  0004b	48 8d 0d 00 00
	00 00		 lea	 rcx, OFFSET FLAT:??_7CSwordTrail@Client@@6B@
  00052	48 89 08	 mov	 QWORD PTR [rax], rcx
  00055	48 8b 85 e0 00
	00 00		 mov	 rax, QWORD PTR this$[rbp]
  0005c	48 8b 8d e8 00
	00 00		 mov	 rcx, QWORD PTR __that$[rbp]
  00063	48 8b 49 78	 mov	 rcx, QWORD PTR [rcx+120]
  00067	48 89 48 78	 mov	 QWORD PTR [rax+120], rcx
  0006b	48 8b 85 e0 00
	00 00		 mov	 rax, QWORD PTR this$[rbp]
  00072	48 8b 8d e8 00
	00 00		 mov	 rcx, QWORD PTR __that$[rbp]
  00079	48 8b 89 80 00
	00 00		 mov	 rcx, QWORD PTR [rcx+128]
  00080	48 89 88 80 00
	00 00		 mov	 QWORD PTR [rax+128], rcx
  00087	48 8b 85 e0 00
	00 00		 mov	 rax, QWORD PTR this$[rbp]
  0008e	48 8b 8d e8 00
	00 00		 mov	 rcx, QWORD PTR __that$[rbp]
  00095	48 8b 89 88 00
	00 00		 mov	 rcx, QWORD PTR [rcx+136]
  0009c	48 89 88 88 00
	00 00		 mov	 QWORD PTR [rax+136], rcx
  000a3	48 8b 85 e0 00
	00 00		 mov	 rax, QWORD PTR this$[rbp]
  000aa	48 8b 8d e8 00
	00 00		 mov	 rcx, QWORD PTR __that$[rbp]
  000b1	48 8b 89 90 00
	00 00		 mov	 rcx, QWORD PTR [rcx+144]
  000b8	48 89 88 90 00
	00 00		 mov	 QWORD PTR [rax+144], rcx
  000bf	48 8b 85 e0 00
	00 00		 mov	 rax, QWORD PTR this$[rbp]
  000c6	48 8b 8d e8 00
	00 00		 mov	 rcx, QWORD PTR __that$[rbp]
  000cd	48 8b 89 98 00
	00 00		 mov	 rcx, QWORD PTR [rcx+152]
  000d4	48 89 88 98 00
	00 00		 mov	 QWORD PTR [rax+152], rcx
  000db	48 8b 85 e0 00
	00 00		 mov	 rax, QWORD PTR this$[rbp]
  000e2	48 8b 8d e8 00
	00 00		 mov	 rcx, QWORD PTR __that$[rbp]
  000e9	48 8b 89 a0 00
	00 00		 mov	 rcx, QWORD PTR [rcx+160]
  000f0	48 89 88 a0 00
	00 00		 mov	 QWORD PTR [rax+160], rcx
  000f7	48 8b 85 e0 00
	00 00		 mov	 rax, QWORD PTR this$[rbp]
  000fe	48 8b 8d e8 00
	00 00		 mov	 rcx, QWORD PTR __that$[rbp]
  00105	48 8b 89 a8 00
	00 00		 mov	 rcx, QWORD PTR [rcx+168]
  0010c	48 89 88 a8 00
	00 00		 mov	 QWORD PTR [rax+168], rcx
  00113	48 8b 85 e0 00
	00 00		 mov	 rax, QWORD PTR this$[rbp]
  0011a	48 8b 8d e8 00
	00 00		 mov	 rcx, QWORD PTR __that$[rbp]
  00121	48 8b 89 b0 00
	00 00		 mov	 rcx, QWORD PTR [rcx+176]
  00128	48 89 88 b0 00
	00 00		 mov	 QWORD PTR [rax+176], rcx
  0012f	48 8b 85 e0 00
	00 00		 mov	 rax, QWORD PTR this$[rbp]
  00136	48 8b 8d e8 00
	00 00		 mov	 rcx, QWORD PTR __that$[rbp]
  0013d	48 8b 89 b8 00
	00 00		 mov	 rcx, QWORD PTR [rcx+184]
  00144	48 89 88 b8 00
	00 00		 mov	 QWORD PTR [rax+184], rcx
  0014b	48 8b 85 e0 00
	00 00		 mov	 rax, QWORD PTR this$[rbp]
  00152	48 8b 8d e8 00
	00 00		 mov	 rcx, QWORD PTR __that$[rbp]
  00159	48 8b 89 c0 00
	00 00		 mov	 rcx, QWORD PTR [rcx+192]
  00160	48 89 88 c0 00
	00 00		 mov	 QWORD PTR [rax+192], rcx
  00167	48 8b 85 e0 00
	00 00		 mov	 rax, QWORD PTR this$[rbp]
  0016e	48 8b 8d e8 00
	00 00		 mov	 rcx, QWORD PTR __that$[rbp]
  00175	0f b6 89 c8 00
	00 00		 movzx	 ecx, BYTE PTR [rcx+200]
  0017c	88 88 c8 00 00
	00		 mov	 BYTE PTR [rax+200], cl
  00182	48 8b 85 e0 00
	00 00		 mov	 rax, QWORD PTR this$[rbp]
  00189	48 8b 8d e8 00
	00 00		 mov	 rcx, QWORD PTR __that$[rbp]
  00190	0f b6 89 c9 00
	00 00		 movzx	 ecx, BYTE PTR [rcx+201]
  00197	88 88 c9 00 00
	00		 mov	 BYTE PTR [rax+201], cl
  0019d	48 8b 85 e0 00
	00 00		 mov	 rax, QWORD PTR this$[rbp]
  001a4	48 8b 8d e8 00
	00 00		 mov	 rcx, QWORD PTR __that$[rbp]
  001ab	48 8d b8 cc 00
	00 00		 lea	 rdi, QWORD PTR [rax+204]
  001b2	48 8d b1 cc 00
	00 00		 lea	 rsi, QWORD PTR [rcx+204]
  001b9	b9 0c 00 00 00	 mov	 ecx, 12
  001be	f3 a4		 rep movsb
  001c0	48 8b 85 e0 00
	00 00		 mov	 rax, QWORD PTR this$[rbp]
  001c7	48 8b 8d e8 00
	00 00		 mov	 rcx, QWORD PTR __that$[rbp]
  001ce	48 8b 89 d8 00
	00 00		 mov	 rcx, QWORD PTR [rcx+216]
  001d5	48 89 88 d8 00
	00 00		 mov	 QWORD PTR [rax+216], rcx
  001dc	48 8b 85 e0 00
	00 00		 mov	 rax, QWORD PTR this$[rbp]
  001e3	48 8b 8d e8 00
	00 00		 mov	 rcx, QWORD PTR __that$[rbp]
  001ea	48 8d b8 e0 00
	00 00		 lea	 rdi, QWORD PTR [rax+224]
  001f1	48 8d b1 e0 00
	00 00		 lea	 rsi, QWORD PTR [rcx+224]
  001f8	b9 40 00 00 00	 mov	 ecx, 64			; 00000040H
  001fd	f3 a4		 rep movsb
  001ff	48 8b 85 e0 00
	00 00		 mov	 rax, QWORD PTR this$[rbp]
  00206	48 8b 8d e8 00
	00 00		 mov	 rcx, QWORD PTR __that$[rbp]
  0020d	f3 0f 10 81 20
	01 00 00	 movss	 xmm0, DWORD PTR [rcx+288]
  00215	f3 0f 11 80 20
	01 00 00	 movss	 DWORD PTR [rax+288], xmm0
  0021d	48 8b 85 e0 00
	00 00		 mov	 rax, QWORD PTR this$[rbp]
  00224	48 8b 8d e8 00
	00 00		 mov	 rcx, QWORD PTR __that$[rbp]
  0022b	f3 0f 10 81 24
	01 00 00	 movss	 xmm0, DWORD PTR [rcx+292]
  00233	f3 0f 11 80 24
	01 00 00	 movss	 DWORD PTR [rax+292], xmm0
  0023b	48 8b 85 e0 00
	00 00		 mov	 rax, QWORD PTR this$[rbp]
  00242	48 8b 8d e8 00
	00 00		 mov	 rcx, QWORD PTR __that$[rbp]
  00249	48 8d b8 28 01
	00 00		 lea	 rdi, QWORD PTR [rax+296]
  00250	48 8d b1 28 01
	00 00		 lea	 rsi, QWORD PTR [rcx+296]
  00257	b9 0c 00 00 00	 mov	 ecx, 12
  0025c	f3 a4		 rep movsb
  0025e	48 8b 85 e0 00
	00 00		 mov	 rax, QWORD PTR this$[rbp]
  00265	48 8d a5 c0 00
	00 00		 lea	 rsp, QWORD PTR [rbp+192]
  0026c	5f		 pop	 rdi
  0026d	5e		 pop	 rsi
  0026e	5d		 pop	 rbp
  0026f	c3		 ret	 0
??0CSwordTrail@Client@@QEAA@AEBV01@@Z ENDP		; Client::CSwordTrail::CSwordTrail
_TEXT	ENDS
; Function compile flags: /Odtp /RTCsu /ZI
; File c:\users\arcco\documents\github\framework\client\private\swordtrail.cpp
;	COMDAT ?Free@CSwordTrail@Client@@UEAAXXZ
_TEXT	SEGMENT
this$ = 224
?Free@CSwordTrail@Client@@UEAAXXZ PROC			; Client::CSwordTrail::Free, COMDAT

; 285  : {

$LN3:
  00000	48 89 4c 24 08	 mov	 QWORD PTR [rsp+8], rcx
  00005	55		 push	 rbp
  00006	57		 push	 rdi
  00007	48 81 ec e8 00
	00 00		 sub	 rsp, 232		; 000000e8H
  0000e	48 8d 6c 24 20	 lea	 rbp, QWORD PTR [rsp+32]
  00013	48 8b fc	 mov	 rdi, rsp
  00016	b9 3a 00 00 00	 mov	 ecx, 58			; 0000003aH
  0001b	b8 cc cc cc cc	 mov	 eax, -858993460		; ccccccccH
  00020	f3 ab		 rep stosd
  00022	48 8b 8c 24 08
	01 00 00	 mov	 rcx, QWORD PTR [rsp+264]

; 286  : 	__super::Free();

  0002a	48 8b 8d e0 00
	00 00		 mov	 rcx, QWORD PTR this$[rbp]
  00031	ff 15 00 00 00
	00		 call	 QWORD PTR __imp_?Free@CGameObject@Engine@@UEAAXXZ

; 287  : 
; 288  : 	Safe_Release(m_pRenderer);

  00037	48 8b 85 e0 00
	00 00		 mov	 rax, QWORD PTR this$[rbp]
  0003e	48 83 c0 78	 add	 rax, 120		; 00000078H
  00042	48 8b c8	 mov	 rcx, rax
  00045	e8 00 00 00 00	 call	 ??$Safe_Release@PEAVCRenderer@Engine@@@Engine@@YAKAEAPEAVCRenderer@0@@Z ; Engine::Safe_Release<Engine::CRenderer * __ptr64>

; 289  : 	Safe_Release(m_pTransform);

  0004a	48 8b 85 e0 00
	00 00		 mov	 rax, QWORD PTR this$[rbp]
  00051	48 05 80 00 00
	00		 add	 rax, 128		; 00000080H
  00057	48 8b c8	 mov	 rcx, rax
  0005a	e8 00 00 00 00	 call	 ??$Safe_Release@PEAVCTransform@Engine@@@Engine@@YAKAEAPEAVCTransform@0@@Z ; Engine::Safe_Release<Engine::CTransform * __ptr64>

; 290  : 	Safe_Release(m_pHitTransform);

  0005f	48 8b 85 e0 00
	00 00		 mov	 rax, QWORD PTR this$[rbp]
  00066	48 05 88 00 00
	00		 add	 rax, 136		; 00000088H
  0006c	48 8b c8	 mov	 rcx, rax
  0006f	e8 00 00 00 00	 call	 ??$Safe_Release@PEAVCTransform@Engine@@@Engine@@YAKAEAPEAVCTransform@0@@Z ; Engine::Safe_Release<Engine::CTransform * __ptr64>

; 291  : 	Safe_Release(m_pModel);

  00074	48 8b 85 e0 00
	00 00		 mov	 rax, QWORD PTR this$[rbp]
  0007b	48 05 90 00 00
	00		 add	 rax, 144		; 00000090H
  00081	48 8b c8	 mov	 rcx, rax
  00084	e8 00 00 00 00	 call	 ??$Safe_Release@PEAVCModel@Engine@@@Engine@@YAKAEAPEAVCModel@0@@Z ; Engine::Safe_Release<Engine::CModel * __ptr64>

; 292  : 	Safe_Release(m_pModel2);

  00089	48 8b 85 e0 00
	00 00		 mov	 rax, QWORD PTR this$[rbp]
  00090	48 05 98 00 00
	00		 add	 rax, 152		; 00000098H
  00096	48 8b c8	 mov	 rcx, rax
  00099	e8 00 00 00 00	 call	 ??$Safe_Release@PEAVCModel@Engine@@@Engine@@YAKAEAPEAVCModel@0@@Z ; Engine::Safe_Release<Engine::CModel * __ptr64>

; 293  : 	Safe_Release(m_pShader);

  0009e	48 8b 85 e0 00
	00 00		 mov	 rax, QWORD PTR this$[rbp]
  000a5	48 05 a0 00 00
	00		 add	 rax, 160		; 000000a0H
  000ab	48 8b c8	 mov	 rcx, rax
  000ae	e8 00 00 00 00	 call	 ??$Safe_Release@PEAVCShader@Engine@@@Engine@@YAKAEAPEAVCShader@0@@Z ; Engine::Safe_Release<Engine::CShader * __ptr64>

; 294  : 
; 295  : }

  000b3	48 8d a5 c8 00
	00 00		 lea	 rsp, QWORD PTR [rbp+200]
  000ba	5f		 pop	 rdi
  000bb	5d		 pop	 rbp
  000bc	c3		 ret	 0
?Free@CSwordTrail@Client@@UEAAXXZ ENDP			; Client::CSwordTrail::Free
_TEXT	ENDS
; Function compile flags: /Odtp /RTCsu /ZI
; File c:\users\arcco\documents\github\framework\client\private\swordtrail.cpp
;	COMDAT ?Clone@CSwordTrail@Client@@UEAAPEAVCGameObject@Engine@@PEAX@Z
_TEXT	SEGMENT
pInstance$ = 8
$T4 = 232
$T5 = 264
$T6 = 296
tv83 = 312
__$ArrayPad$ = 320
this$ = 368
pArg$ = 376
?Clone@CSwordTrail@Client@@UEAAPEAVCGameObject@Engine@@PEAX@Z PROC ; Client::CSwordTrail::Clone, COMDAT

; 273  : {

$LN7:
  00000	48 89 54 24 10	 mov	 QWORD PTR [rsp+16], rdx
  00005	48 89 4c 24 08	 mov	 QWORD PTR [rsp+8], rcx
  0000a	55		 push	 rbp
  0000b	57		 push	 rdi
  0000c	48 81 ec 78 01
	00 00		 sub	 rsp, 376		; 00000178H
  00013	48 8d 6c 24 20	 lea	 rbp, QWORD PTR [rsp+32]
  00018	48 8b fc	 mov	 rdi, rsp
  0001b	b9 5e 00 00 00	 mov	 ecx, 94			; 0000005eH
  00020	b8 cc cc cc cc	 mov	 eax, -858993460		; ccccccccH
  00025	f3 ab		 rep stosd
  00027	48 8b 8c 24 98
	01 00 00	 mov	 rcx, QWORD PTR [rsp+408]
  0002f	48 c7 85 28 01
	00 00 fe ff ff
	ff		 mov	 QWORD PTR $T6[rbp], -2
  0003a	48 8b 05 00 00
	00 00		 mov	 rax, QWORD PTR __security_cookie
  00041	48 33 c5	 xor	 rax, rbp
  00044	48 89 85 40 01
	00 00		 mov	 QWORD PTR __$ArrayPad$[rbp], rax

; 274  : 	CSwordTrail* pInstance = new CSwordTrail(*this);

  0004b	8b 05 00 00 00
	00		 mov	 eax, DWORD PTR ?__LINE__Var@?0??Clone@CSwordTrail@Client@@UEAAPEAVCGameObject@Engine@@PEAX@Z@4JA
  00051	ff c0		 inc	 eax
  00053	44 8b c8	 mov	 r9d, eax
  00056	4c 8d 05 00 00
	00 00		 lea	 r8, OFFSET FLAT:??_C@_0EI@PNAAOEDN@c?3?2users?2arcco?2documents?2github?2@
  0005d	ba 01 00 00 00	 mov	 edx, 1
  00062	b9 38 01 00 00	 mov	 ecx, 312		; 00000138H
  00067	e8 00 00 00 00	 call	 ??2@YAPEAX_KHPEBDH@Z	; operator new
  0006c	48 89 85 08 01
	00 00		 mov	 QWORD PTR $T5[rbp], rax
  00073	48 83 bd 08 01
	00 00 00	 cmp	 QWORD PTR $T5[rbp], 0
  0007b	74 1c		 je	 SHORT $LN4@Clone
  0007d	48 8b 95 70 01
	00 00		 mov	 rdx, QWORD PTR this$[rbp]
  00084	48 8b 8d 08 01
	00 00		 mov	 rcx, QWORD PTR $T5[rbp]
  0008b	e8 00 00 00 00	 call	 ??0CSwordTrail@Client@@QEAA@AEBV01@@Z
  00090	48 89 85 38 01
	00 00		 mov	 QWORD PTR tv83[rbp], rax
  00097	eb 0b		 jmp	 SHORT $LN5@Clone
$LN4@Clone:
  00099	48 c7 85 38 01
	00 00 00 00 00
	00		 mov	 QWORD PTR tv83[rbp], 0
$LN5@Clone:
  000a4	48 8b 85 38 01
	00 00		 mov	 rax, QWORD PTR tv83[rbp]
  000ab	48 89 85 e8 00
	00 00		 mov	 QWORD PTR $T4[rbp], rax
  000b2	48 8b 85 e8 00
	00 00		 mov	 rax, QWORD PTR $T4[rbp]
  000b9	48 89 45 08	 mov	 QWORD PTR pInstance$[rbp], rax

; 275  : 	if (FAILED(pInstance->Initialize(pArg)))

  000bd	48 8b 95 78 01
	00 00		 mov	 rdx, QWORD PTR pArg$[rbp]
  000c4	48 8b 4d 08	 mov	 rcx, QWORD PTR pInstance$[rbp]
  000c8	e8 00 00 00 00	 call	 ?Initialize@CSwordTrail@Client@@UEAAJPEAX@Z ; Client::CSwordTrail::Initialize
  000cd	85 c0		 test	 eax, eax
  000cf	7d 22		 jge	 SHORT $LN2@Clone

; 276  : 	{
; 277  : 		MSG_BOX("Failed to Clone : CSwordTrail");

  000d1	45 33 c9	 xor	 r9d, r9d
  000d4	4c 8d 05 00 00
	00 00		 lea	 r8, OFFSET FLAT:??_C@_1BA@HHOMBECE@?$AAM?$AAe?$AAs?$AAs?$AAa?$AAg?$AAe?$AA?$AA@
  000db	48 8d 15 00 00
	00 00		 lea	 rdx, OFFSET FLAT:??_C@_1DM@LKGHHEKE@?$AAF?$AAa?$AAi?$AAl?$AAe?$AAd?$AA?5?$AAt?$AAo?$AA?5?$AAC?$AAl?$AAo?$AAn?$AAe?$AA?5?$AA?3?$AA?5?$AAC?$AAS?$AAw?$AAo?$AAr?$AAd?$AAT?$AAr?$AAa?$AAi?$AAl?$AA?$AA@
  000e2	33 c9		 xor	 ecx, ecx
  000e4	ff 15 00 00 00
	00		 call	 QWORD PTR __imp_MessageBoxW

; 278  : 		Safe_Release(pInstance);

  000ea	48 8d 4d 08	 lea	 rcx, QWORD PTR pInstance$[rbp]
  000ee	e8 00 00 00 00	 call	 ??$Safe_Release@PEAVCSwordTrail@Client@@@Engine@@YAKAEAPEAVCSwordTrail@Client@@@Z ; Engine::Safe_Release<Client::CSwordTrail * __ptr64>
$LN2@Clone:

; 279  : 	}
; 280  : 
; 281  : 	return pInstance;

  000f3	48 8b 45 08	 mov	 rax, QWORD PTR pInstance$[rbp]

; 282  : }

  000f7	48 8b f8	 mov	 rdi, rax
  000fa	48 8d 4d e0	 lea	 rcx, QWORD PTR [rbp-32]
  000fe	48 8d 15 00 00
	00 00		 lea	 rdx, OFFSET FLAT:?Clone@CSwordTrail@Client@@UEAAPEAVCGameObject@Engine@@PEAX@Z$rtcFrameData
  00105	e8 00 00 00 00	 call	 _RTC_CheckStackVars
  0010a	48 8b c7	 mov	 rax, rdi
  0010d	48 8b 8d 40 01
	00 00		 mov	 rcx, QWORD PTR __$ArrayPad$[rbp]
  00114	48 33 cd	 xor	 rcx, rbp
  00117	e8 00 00 00 00	 call	 __security_check_cookie
  0011c	48 8d a5 58 01
	00 00		 lea	 rsp, QWORD PTR [rbp+344]
  00123	5f		 pop	 rdi
  00124	5d		 pop	 rbp
  00125	c3		 ret	 0
?Clone@CSwordTrail@Client@@UEAAPEAVCGameObject@Engine@@PEAX@Z ENDP ; Client::CSwordTrail::Clone
_TEXT	ENDS
;	COMDAT text$x
text$x	SEGMENT
pInstance$ = 8
$T4 = 232
$T5 = 264
$T6 = 296
tv83 = 312
__$ArrayPad$ = 320
this$ = 368
pArg$ = 376
?dtor$0@?0??Clone@CSwordTrail@Client@@UEAAPEAVCGameObject@Engine@@PEAX@Z@4HA PROC ; `Client::CSwordTrail::Clone'::`1'::dtor$0
  00000	48 89 4c 24 08	 mov	 QWORD PTR [rsp+8], rcx
  00005	48 89 54 24 10	 mov	 QWORD PTR [rsp+16], rdx
  0000a	55		 push	 rbp
  0000b	57		 push	 rdi
  0000c	48 83 ec 28	 sub	 rsp, 40			; 00000028H
  00010	48 8d 6a 20	 lea	 rbp, QWORD PTR [rdx+32]
  00014	44 8b 0d 00 00
	00 00		 mov	 r9d, DWORD PTR ?__LINE__Var@?0??Clone@CSwordTrail@Client@@UEAAPEAVCGameObject@Engine@@PEAX@Z@4JA
  0001b	41 ff c1	 inc	 r9d
  0001e	4c 8d 05 00 00
	00 00		 lea	 r8, OFFSET FLAT:??_C@_0EI@PNAAOEDN@c?3?2users?2arcco?2documents?2github?2@
  00025	ba 01 00 00 00	 mov	 edx, 1
  0002a	48 8b 8d 08 01
	00 00		 mov	 rcx, QWORD PTR $T5[rbp]
  00031	e8 00 00 00 00	 call	 ??3@YAXPEAXHPEBDH@Z	; operator delete
  00036	48 83 c4 28	 add	 rsp, 40			; 00000028H
  0003a	5f		 pop	 rdi
  0003b	5d		 pop	 rbp
  0003c	c3		 ret	 0
?dtor$0@?0??Clone@CSwordTrail@Client@@UEAAPEAVCGameObject@Engine@@PEAX@Z@4HA ENDP ; `Client::CSwordTrail::Clone'::`1'::dtor$0
text$x	ENDS
; Function compile flags: /Odtp /RTCsu /ZI
;	COMDAT text$x
text$x	SEGMENT
pInstance$ = 8
$T4 = 232
$T5 = 264
$T6 = 296
tv83 = 312
__$ArrayPad$ = 320
this$ = 368
pArg$ = 376
?dtor$0@?0??Clone@CSwordTrail@Client@@UEAAPEAVCGameObject@Engine@@PEAX@Z@4HA PROC ; `Client::CSwordTrail::Clone'::`1'::dtor$0
  00000	48 89 4c 24 08	 mov	 QWORD PTR [rsp+8], rcx
  00005	48 89 54 24 10	 mov	 QWORD PTR [rsp+16], rdx
  0000a	55		 push	 rbp
  0000b	57		 push	 rdi
  0000c	48 83 ec 28	 sub	 rsp, 40			; 00000028H
  00010	48 8d 6a 20	 lea	 rbp, QWORD PTR [rdx+32]
  00014	44 8b 0d 00 00
	00 00		 mov	 r9d, DWORD PTR ?__LINE__Var@?0??Clone@CSwordTrail@Client@@UEAAPEAVCGameObject@Engine@@PEAX@Z@4JA
  0001b	41 ff c1	 inc	 r9d
  0001e	4c 8d 05 00 00
	00 00		 lea	 r8, OFFSET FLAT:??_C@_0EI@PNAAOEDN@c?3?2users?2arcco?2documents?2github?2@
  00025	ba 01 00 00 00	 mov	 edx, 1
  0002a	48 8b 8d 08 01
	00 00		 mov	 rcx, QWORD PTR $T5[rbp]
  00031	e8 00 00 00 00	 call	 ??3@YAXPEAXHPEBDH@Z	; operator delete
  00036	48 83 c4 28	 add	 rsp, 40			; 00000028H
  0003a	5f		 pop	 rdi
  0003b	5d		 pop	 rbp
  0003c	c3		 ret	 0
?dtor$0@?0??Clone@CSwordTrail@Client@@UEAAPEAVCGameObject@Engine@@PEAX@Z@4HA ENDP ; `Client::CSwordTrail::Clone'::`1'::dtor$0
text$x	ENDS
; Function compile flags: /Odtp /RTCsu /ZI
; File c:\users\arcco\documents\github\framework\client\private\swordtrail.cpp
;	COMDAT ?Create@CSwordTrail@Client@@SAPEAV12@PEAUID3D11Device@@PEAUID3D11DeviceContext@@@Z
_TEXT	SEGMENT
pInstance$ = 8
$T4 = 232
$T5 = 264
$T6 = 296
tv84 = 312
__$ArrayPad$ = 320
pDevice$ = 368
pContext$ = 376
?Create@CSwordTrail@Client@@SAPEAV12@PEAUID3D11Device@@PEAUID3D11DeviceContext@@@Z PROC ; Client::CSwordTrail::Create, COMDAT

; 261  : {

$LN7:
  00000	48 89 54 24 10	 mov	 QWORD PTR [rsp+16], rdx
  00005	48 89 4c 24 08	 mov	 QWORD PTR [rsp+8], rcx
  0000a	55		 push	 rbp
  0000b	57		 push	 rdi
  0000c	48 81 ec 78 01
	00 00		 sub	 rsp, 376		; 00000178H
  00013	48 8d 6c 24 20	 lea	 rbp, QWORD PTR [rsp+32]
  00018	48 8b fc	 mov	 rdi, rsp
  0001b	b9 5e 00 00 00	 mov	 ecx, 94			; 0000005eH
  00020	b8 cc cc cc cc	 mov	 eax, -858993460		; ccccccccH
  00025	f3 ab		 rep stosd
  00027	48 8b 8c 24 98
	01 00 00	 mov	 rcx, QWORD PTR [rsp+408]
  0002f	48 c7 85 28 01
	00 00 fe ff ff
	ff		 mov	 QWORD PTR $T6[rbp], -2
  0003a	48 8b 05 00 00
	00 00		 mov	 rax, QWORD PTR __security_cookie
  00041	48 33 c5	 xor	 rax, rbp
  00044	48 89 85 40 01
	00 00		 mov	 QWORD PTR __$ArrayPad$[rbp], rax

; 262  : 	CSwordTrail*	pInstance = new CSwordTrail(pDevice, pContext);

  0004b	8b 05 00 00 00
	00		 mov	 eax, DWORD PTR ?__LINE__Var@?0??Create@CSwordTrail@Client@@SAPEAV23@PEAUID3D11Device@@PEAUID3D11DeviceContext@@@Z@4JA
  00051	ff c0		 inc	 eax
  00053	44 8b c8	 mov	 r9d, eax
  00056	4c 8d 05 00 00
	00 00		 lea	 r8, OFFSET FLAT:??_C@_0EI@PNAAOEDN@c?3?2users?2arcco?2documents?2github?2@
  0005d	ba 01 00 00 00	 mov	 edx, 1
  00062	b9 38 01 00 00	 mov	 ecx, 312		; 00000138H
  00067	e8 00 00 00 00	 call	 ??2@YAPEAX_KHPEBDH@Z	; operator new
  0006c	48 89 85 08 01
	00 00		 mov	 QWORD PTR $T5[rbp], rax
  00073	48 83 bd 08 01
	00 00 00	 cmp	 QWORD PTR $T5[rbp], 0
  0007b	74 23		 je	 SHORT $LN4@Create
  0007d	4c 8b 85 78 01
	00 00		 mov	 r8, QWORD PTR pContext$[rbp]
  00084	48 8b 95 70 01
	00 00		 mov	 rdx, QWORD PTR pDevice$[rbp]
  0008b	48 8b 8d 08 01
	00 00		 mov	 rcx, QWORD PTR $T5[rbp]
  00092	e8 00 00 00 00	 call	 ??0CSwordTrail@Client@@AEAA@PEAUID3D11Device@@PEAUID3D11DeviceContext@@@Z ; Client::CSwordTrail::CSwordTrail
  00097	48 89 85 38 01
	00 00		 mov	 QWORD PTR tv84[rbp], rax
  0009e	eb 0b		 jmp	 SHORT $LN5@Create
$LN4@Create:
  000a0	48 c7 85 38 01
	00 00 00 00 00
	00		 mov	 QWORD PTR tv84[rbp], 0
$LN5@Create:
  000ab	48 8b 85 38 01
	00 00		 mov	 rax, QWORD PTR tv84[rbp]
  000b2	48 89 85 e8 00
	00 00		 mov	 QWORD PTR $T4[rbp], rax
  000b9	48 8b 85 e8 00
	00 00		 mov	 rax, QWORD PTR $T4[rbp]
  000c0	48 89 45 08	 mov	 QWORD PTR pInstance$[rbp], rax

; 263  : 	if (FAILED(pInstance->Initialize_Prototype()))

  000c4	48 8b 4d 08	 mov	 rcx, QWORD PTR pInstance$[rbp]
  000c8	e8 00 00 00 00	 call	 ?Initialize_Prototype@CSwordTrail@Client@@UEAAJXZ ; Client::CSwordTrail::Initialize_Prototype
  000cd	85 c0		 test	 eax, eax
  000cf	7d 22		 jge	 SHORT $LN2@Create

; 264  : 	{
; 265  : 		MSG_BOX("Failed to Create : CSwordTrail");

  000d1	45 33 c9	 xor	 r9d, r9d
  000d4	4c 8d 05 00 00
	00 00		 lea	 r8, OFFSET FLAT:??_C@_1BA@HHOMBECE@?$AAM?$AAe?$AAs?$AAs?$AAa?$AAg?$AAe?$AA?$AA@
  000db	48 8d 15 00 00
	00 00		 lea	 rdx, OFFSET FLAT:??_C@_1DO@KJALPEDK@?$AAF?$AAa?$AAi?$AAl?$AAe?$AAd?$AA?5?$AAt?$AAo?$AA?5?$AAC?$AAr?$AAe?$AAa?$AAt?$AAe?$AA?5?$AA?3?$AA?5?$AAC?$AAS?$AAw?$AAo?$AAr?$AAd?$AAT?$AAr?$AAa?$AAi?$AAl?$AA?$AA@
  000e2	33 c9		 xor	 ecx, ecx
  000e4	ff 15 00 00 00
	00		 call	 QWORD PTR __imp_MessageBoxW

; 266  : 		Safe_Release(pInstance);

  000ea	48 8d 4d 08	 lea	 rcx, QWORD PTR pInstance$[rbp]
  000ee	e8 00 00 00 00	 call	 ??$Safe_Release@PEAVCSwordTrail@Client@@@Engine@@YAKAEAPEAVCSwordTrail@Client@@@Z ; Engine::Safe_Release<Client::CSwordTrail * __ptr64>
$LN2@Create:

; 267  : 	}
; 268  : 
; 269  : 	return pInstance;

  000f3	48 8b 45 08	 mov	 rax, QWORD PTR pInstance$[rbp]

; 270  : }

  000f7	48 8b f8	 mov	 rdi, rax
  000fa	48 8d 4d e0	 lea	 rcx, QWORD PTR [rbp-32]
  000fe	48 8d 15 00 00
	00 00		 lea	 rdx, OFFSET FLAT:?Create@CSwordTrail@Client@@SAPEAV12@PEAUID3D11Device@@PEAUID3D11DeviceContext@@@Z$rtcFrameData
  00105	e8 00 00 00 00	 call	 _RTC_CheckStackVars
  0010a	48 8b c7	 mov	 rax, rdi
  0010d	48 8b 8d 40 01
	00 00		 mov	 rcx, QWORD PTR __$ArrayPad$[rbp]
  00114	48 33 cd	 xor	 rcx, rbp
  00117	e8 00 00 00 00	 call	 __security_check_cookie
  0011c	48 8d a5 58 01
	00 00		 lea	 rsp, QWORD PTR [rbp+344]
  00123	5f		 pop	 rdi
  00124	5d		 pop	 rbp
  00125	c3		 ret	 0
?Create@CSwordTrail@Client@@SAPEAV12@PEAUID3D11Device@@PEAUID3D11DeviceContext@@@Z ENDP ; Client::CSwordTrail::Create
_TEXT	ENDS
;	COMDAT text$x
text$x	SEGMENT
pInstance$ = 8
$T4 = 232
$T5 = 264
$T6 = 296
tv84 = 312
__$ArrayPad$ = 320
pDevice$ = 368
pContext$ = 376
?dtor$0@?0??Create@CSwordTrail@Client@@SAPEAV12@PEAUID3D11Device@@PEAUID3D11DeviceContext@@@Z@4HA PROC ; `Client::CSwordTrail::Create'::`1'::dtor$0
  00000	48 89 4c 24 08	 mov	 QWORD PTR [rsp+8], rcx
  00005	48 89 54 24 10	 mov	 QWORD PTR [rsp+16], rdx
  0000a	55		 push	 rbp
  0000b	57		 push	 rdi
  0000c	48 83 ec 28	 sub	 rsp, 40			; 00000028H
  00010	48 8d 6a 20	 lea	 rbp, QWORD PTR [rdx+32]
  00014	44 8b 0d 00 00
	00 00		 mov	 r9d, DWORD PTR ?__LINE__Var@?0??Create@CSwordTrail@Client@@SAPEAV23@PEAUID3D11Device@@PEAUID3D11DeviceContext@@@Z@4JA
  0001b	41 ff c1	 inc	 r9d
  0001e	4c 8d 05 00 00
	00 00		 lea	 r8, OFFSET FLAT:??_C@_0EI@PNAAOEDN@c?3?2users?2arcco?2documents?2github?2@
  00025	ba 01 00 00 00	 mov	 edx, 1
  0002a	48 8b 8d 08 01
	00 00		 mov	 rcx, QWORD PTR $T5[rbp]
  00031	e8 00 00 00 00	 call	 ??3@YAXPEAXHPEBDH@Z	; operator delete
  00036	48 83 c4 28	 add	 rsp, 40			; 00000028H
  0003a	5f		 pop	 rdi
  0003b	5d		 pop	 rbp
  0003c	c3		 ret	 0
?dtor$0@?0??Create@CSwordTrail@Client@@SAPEAV12@PEAUID3D11Device@@PEAUID3D11DeviceContext@@@Z@4HA ENDP ; `Client::CSwordTrail::Create'::`1'::dtor$0
text$x	ENDS
; Function compile flags: /Odtp /RTCsu /ZI
;	COMDAT text$x
text$x	SEGMENT
pInstance$ = 8
$T4 = 232
$T5 = 264
$T6 = 296
tv84 = 312
__$ArrayPad$ = 320
pDevice$ = 368
pContext$ = 376
?dtor$0@?0??Create@CSwordTrail@Client@@SAPEAV12@PEAUID3D11Device@@PEAUID3D11DeviceContext@@@Z@4HA PROC ; `Client::CSwordTrail::Create'::`1'::dtor$0
  00000	48 89 4c 24 08	 mov	 QWORD PTR [rsp+8], rcx
  00005	48 89 54 24 10	 mov	 QWORD PTR [rsp+16], rdx
  0000a	55		 push	 rbp
  0000b	57		 push	 rdi
  0000c	48 83 ec 28	 sub	 rsp, 40			; 00000028H
  00010	48 8d 6a 20	 lea	 rbp, QWORD PTR [rdx+32]
  00014	44 8b 0d 00 00
	00 00		 mov	 r9d, DWORD PTR ?__LINE__Var@?0??Create@CSwordTrail@Client@@SAPEAV23@PEAUID3D11Device@@PEAUID3D11DeviceContext@@@Z@4JA
  0001b	41 ff c1	 inc	 r9d
  0001e	4c 8d 05 00 00
	00 00		 lea	 r8, OFFSET FLAT:??_C@_0EI@PNAAOEDN@c?3?2users?2arcco?2documents?2github?2@
  00025	ba 01 00 00 00	 mov	 edx, 1
  0002a	48 8b 8d 08 01
	00 00		 mov	 rcx, QWORD PTR $T5[rbp]
  00031	e8 00 00 00 00	 call	 ??3@YAXPEAXHPEBDH@Z	; operator delete
  00036	48 83 c4 28	 add	 rsp, 40			; 00000028H
  0003a	5f		 pop	 rdi
  0003b	5d		 pop	 rbp
  0003c	c3		 ret	 0
?dtor$0@?0??Create@CSwordTrail@Client@@SAPEAV12@PEAUID3D11Device@@PEAUID3D11DeviceContext@@@Z@4HA ENDP ; `Client::CSwordTrail::Create'::`1'::dtor$0
text$x	ENDS
; Function compile flags: /Odtp /RTCsu /ZI
; File c:\users\arcco\documents\github\framework\client\private\swordtrail.cpp
;	COMDAT ?GetLengthFromCamera@CSwordTrail@Client@@UEAAMXZ
_TEXT	SEGMENT
pPipeLine$ = 8
vPos$ = 48
vCamPos$ = 96
fLength$ = 132
$T4 = 368
$T5 = 404
$T6 = 464
$T7 = 512
__$ArrayPad$ = 536
this$ = 576
?GetLengthFromCamera@CSwordTrail@Client@@UEAAMXZ PROC	; Client::CSwordTrail::GetLengthFromCamera, COMDAT

; 249  : {

$LN3:
  00000	48 89 4c 24 08	 mov	 QWORD PTR [rsp+8], rcx
  00005	55		 push	 rbp
  00006	57		 push	 rdi
  00007	48 81 ec 58 02
	00 00		 sub	 rsp, 600		; 00000258H
  0000e	48 8d 6c 24 30	 lea	 rbp, QWORD PTR [rsp+48]
  00013	48 8b fc	 mov	 rdi, rsp
  00016	b9 96 00 00 00	 mov	 ecx, 150		; 00000096H
  0001b	b8 cc cc cc cc	 mov	 eax, -858993460		; ccccccccH
  00020	f3 ab		 rep stosd
  00022	48 8b 8c 24 78
	02 00 00	 mov	 rcx, QWORD PTR [rsp+632]
  0002a	48 8b 05 00 00
	00 00		 mov	 rax, QWORD PTR __security_cookie
  00031	48 33 c5	 xor	 rax, rbp
  00034	48 89 85 18 02
	00 00		 mov	 QWORD PTR __$ArrayPad$[rbp], rax

; 250  : 	CPipeLine* pPipeLine = CPipeLine::GetInstance();

  0003b	ff 15 00 00 00
	00		 call	 QWORD PTR __imp_?GetInstance@CPipeLine@Engine@@SAPEAV12@XZ
  00041	48 89 45 08	 mov	 QWORD PTR pPipeLine$[rbp], rax

; 251  : 
; 252  : 	_vector vPos = m_pTransform->Get_State(CTransform::STATE_POSITION);

  00045	41 b8 03 00 00
	00		 mov	 r8d, 3
  0004b	48 8d 55 30	 lea	 rdx, QWORD PTR vPos$[rbp]
  0004f	48 8b 85 40 02
	00 00		 mov	 rax, QWORD PTR this$[rbp]
  00056	48 8b 88 80 00
	00 00		 mov	 rcx, QWORD PTR [rax+128]
  0005d	ff 15 00 00 00
	00		 call	 QWORD PTR __imp_?Get_State@CTransform@Engine@@QEAA?AT__m128@@W4STATE@12@@Z

; 253  : 	_vector vCamPos = XMLoadFloat4(&pPipeLine->Get_CamPosition());

  00063	48 8d 95 94 01
	00 00		 lea	 rdx, QWORD PTR $T5[rbp]
  0006a	48 8b 4d 08	 mov	 rcx, QWORD PTR pPipeLine$[rbp]
  0006e	ff 15 00 00 00
	00		 call	 QWORD PTR __imp_?Get_CamPosition@CPipeLine@Engine@@QEAA?AUXMFLOAT4@DirectX@@XZ
  00074	48 8b c8	 mov	 rcx, rax
  00077	e8 00 00 00 00	 call	 ?XMLoadFloat4@DirectX@@YQ?AT__m128@@PEBUXMFLOAT4@1@@Z ; DirectX::XMLoadFloat4
  0007c	0f 29 85 70 01
	00 00		 movaps	 XMMWORD PTR $T4[rbp], xmm0
  00083	0f 28 85 70 01
	00 00		 movaps	 xmm0, XMMWORD PTR $T4[rbp]
  0008a	0f 29 45 60	 movaps	 XMMWORD PTR vCamPos$[rbp], xmm0

; 254  : 
; 255  : 	_float fLength = XMVectorGetX(XMVector3Length(vPos - vCamPos));

  0008e	0f 28 4d 60	 movaps	 xmm1, XMMWORD PTR vCamPos$[rbp]
  00092	0f 28 45 30	 movaps	 xmm0, XMMWORD PTR vPos$[rbp]
  00096	e8 00 00 00 00	 call	 ??GDirectX@@YQ?AT__m128@@T1@0@Z ; DirectX::operator-
  0009b	0f 29 85 00 02
	00 00		 movaps	 XMMWORD PTR $T7[rbp], xmm0
  000a2	0f 28 85 00 02
	00 00		 movaps	 xmm0, XMMWORD PTR $T7[rbp]
  000a9	e8 00 00 00 00	 call	 ?XMVector3Length@DirectX@@YQ?AT__m128@@T2@@Z ; DirectX::XMVector3Length
  000ae	0f 29 85 d0 01
	00 00		 movaps	 XMMWORD PTR $T6[rbp], xmm0
  000b5	0f 28 85 d0 01
	00 00		 movaps	 xmm0, XMMWORD PTR $T6[rbp]
  000bc	e8 00 00 00 00	 call	 ?XMVectorGetX@DirectX@@YQMT__m128@@@Z ; DirectX::XMVectorGetX
  000c1	f3 0f 11 85 84
	00 00 00	 movss	 DWORD PTR fLength$[rbp], xmm0

; 256  : 
; 257  : 	return fLength;

  000c9	f3 0f 10 85 84
	00 00 00	 movss	 xmm0, DWORD PTR fLength$[rbp]

; 258  : }

  000d1	f3 0f 7f 44 24
	20		 movdqu	 XMMWORD PTR [rsp+32], xmm0
  000d7	48 8d 4d d0	 lea	 rcx, QWORD PTR [rbp-48]
  000db	48 8d 15 00 00
	00 00		 lea	 rdx, OFFSET FLAT:?GetLengthFromCamera@CSwordTrail@Client@@UEAAMXZ$rtcFrameData
  000e2	e8 00 00 00 00	 call	 _RTC_CheckStackVars
  000e7	f3 0f 6f 44 24
	20		 movdqu	 xmm0, XMMWORD PTR [rsp+32]
  000ed	48 8b 8d 18 02
	00 00		 mov	 rcx, QWORD PTR __$ArrayPad$[rbp]
  000f4	48 33 cd	 xor	 rcx, rbp
  000f7	e8 00 00 00 00	 call	 __security_check_cookie
  000fc	48 8d a5 28 02
	00 00		 lea	 rsp, QWORD PTR [rbp+552]
  00103	5f		 pop	 rdi
  00104	5d		 pop	 rbp
  00105	c3		 ret	 0
?GetLengthFromCamera@CSwordTrail@Client@@UEAAMXZ ENDP	; Client::CSwordTrail::GetLengthFromCamera
_TEXT	ENDS
; Function compile flags: /Odtp /RTCsu /ZI
; File c:\users\arcco\documents\github\framework\client\private\swordtrail.cpp
;	COMDAT ?SetHitPosition@CSwordTrail@Client@@QEAAXT__m128@@@Z
_TEXT	SEGMENT
this$ = 224
vHitPos$ = 232
?SetHitPosition@CSwordTrail@Client@@QEAAXT__m128@@@Z PROC ; Client::CSwordTrail::SetHitPosition, COMDAT

; 244  : {

$LN3:
  00000	48 89 54 24 10	 mov	 QWORD PTR [rsp+16], rdx
  00005	48 89 4c 24 08	 mov	 QWORD PTR [rsp+8], rcx
  0000a	55		 push	 rbp
  0000b	57		 push	 rdi
  0000c	48 81 ec c8 00
	00 00		 sub	 rsp, 200		; 000000c8H
  00013	48 8b ec	 mov	 rbp, rsp
  00016	48 8b fc	 mov	 rdi, rsp
  00019	b9 32 00 00 00	 mov	 ecx, 50			; 00000032H
  0001e	b8 cc cc cc cc	 mov	 eax, -858993460		; ccccccccH
  00023	f3 ab		 rep stosd
  00025	48 8b 8c 24 e8
	00 00 00	 mov	 rcx, QWORD PTR [rsp+232]

; 245  : 	//XMStoreFloat3(&m_vHitPos, vHitPos);
; 246  : }

  0002d	48 8d a5 c8 00
	00 00		 lea	 rsp, QWORD PTR [rbp+200]
  00034	5f		 pop	 rdi
  00035	5d		 pop	 rbp
  00036	c3		 ret	 0
?SetHitPosition@CSwordTrail@Client@@QEAAXT__m128@@@Z ENDP ; Client::CSwordTrail::SetHitPosition
_TEXT	ENDS
; Function compile flags: /Odtp /RTCsu /ZI
; File c:\users\arcco\documents\github\framework\client\private\swordtrail.cpp
;	COMDAT ?EffectStart@CSwordTrail@Client@@QEAAXUXMFLOAT3@DirectX@@0@Z
_TEXT	SEGMENT
NewPivotMatrix$ = 16
vPlayerRight$ = 112
vPlayerUp$ = 160
vPlayerLook$ = 208
vPlayerPos$ = 256
vPivotPos$ = 296
RotZero$ = 352
RotX$ = 448
RotY$ = 544
RotZ$ = 640
HitRotMatrkx$ = 736
hitMatrix$ = 832
m_pEnemy$ = 920
vEnemyPos$12 = 960
whiteEffectPos$13 = 1008
$T14 = 2592
$T15 = 2640
$T16 = 2688
$T17 = 2736
$T18 = 2784
$T19 = 2832
$T20 = 2880
$T21 = 2928
$T22 = 2976
$T23 = 3024
$T24 = 3072
$T25 = 3120
$T26 = 3168
$T27 = 3264
$T28 = 3360
$T29 = 3456
$T30 = 3552
$T31 = 3648
$T32 = 3744
$T33 = 3840
$T34 = 3936
$T35 = 4032
$T36 = 4128
$T37 = 4224
$T38 = 4320
$T39 = 4416
$T40 = 4512
$T41 = 4608
$T42 = 4704
$T43 = 4740
$T44 = 4800
$T45 = 4848
$T46 = 4896
$T47 = 4944
$T48 = 4992
$T49 = 5040
$T50 = 5088
$T51 = 5184
$T52 = 5280
$T53 = 5376
$T54 = 5472
$T55 = 5568
$T56 = 5664
$T57 = 5760
$T58 = 5856
$T59 = 5952
$T60 = 6048
$T61 = 6144
$T62 = 6240
__$ArrayPad$ = 6264
this$ = 6304
vOffsetPos$ = 6312
fDegreeAngle$ = 6320
?EffectStart@CSwordTrail@Client@@QEAAXUXMFLOAT3@DirectX@@0@Z PROC ; Client::CSwordTrail::EffectStart, COMDAT

; 192  : {

$LN4:
  00000	4c 89 44 24 18	 mov	 QWORD PTR [rsp+24], r8
  00005	48 89 54 24 10	 mov	 QWORD PTR [rsp+16], rdx
  0000a	48 89 4c 24 08	 mov	 QWORD PTR [rsp+8], rcx
  0000f	55		 push	 rbp
  00010	56		 push	 rsi
  00011	57		 push	 rdi
  00012	b8 a0 18 00 00	 mov	 eax, 6304		; 000018a0H
  00017	e8 00 00 00 00	 call	 __chkstk
  0001c	48 2b e0	 sub	 rsp, rax
  0001f	48 8d 6c 24 20	 lea	 rbp, QWORD PTR [rsp+32]
  00024	48 8b fc	 mov	 rdi, rsp
  00027	b9 28 06 00 00	 mov	 ecx, 1576		; 00000628H
  0002c	b8 cc cc cc cc	 mov	 eax, -858993460		; ccccccccH
  00031	f3 ab		 rep stosd
  00033	48 8b 8c 24 c8
	18 00 00	 mov	 rcx, QWORD PTR [rsp+6344]
  0003b	48 8b 05 00 00
	00 00		 mov	 rax, QWORD PTR __security_cookie
  00042	48 33 c5	 xor	 rax, rbp
  00045	48 89 85 78 18
	00 00		 mov	 QWORD PTR __$ArrayPad$[rbp], rax

; 193  : 	_float4x4 NewPivotMatrix = m_pPlayerTransform->Get_WorldMatrix();

  0004c	48 8d 55 10	 lea	 rdx, QWORD PTR NewPivotMatrix$[rbp]
  00050	48 8b 85 a0 18
	00 00		 mov	 rax, QWORD PTR this$[rbp]
  00057	48 8b 88 c0 00
	00 00		 mov	 rcx, QWORD PTR [rax+192]
  0005e	ff 15 00 00 00
	00		 call	 QWORD PTR __imp_?Get_WorldMatrix@CTransform@Engine@@QEAA?AUXMFLOAT4X4@DirectX@@XZ

; 194  : 
; 195  : 	_vector vPlayerRight = XMVector3Normalize(m_pPlayerTransform->Get_State(CTransform::STATE_RIGHT));

  00064	45 33 c0	 xor	 r8d, r8d
  00067	48 8d 95 50 0a
	00 00		 lea	 rdx, QWORD PTR $T15[rbp]
  0006e	48 8b 85 a0 18
	00 00		 mov	 rax, QWORD PTR this$[rbp]
  00075	48 8b 88 c0 00
	00 00		 mov	 rcx, QWORD PTR [rax+192]
  0007c	ff 15 00 00 00
	00		 call	 QWORD PTR __imp_?Get_State@CTransform@Engine@@QEAA?AT__m128@@W4STATE@12@@Z
  00082	0f 10 00	 movups	 xmm0, XMMWORD PTR [rax]
  00085	e8 00 00 00 00	 call	 ?XMVector3Normalize@DirectX@@YQ?AT__m128@@T2@@Z ; DirectX::XMVector3Normalize
  0008a	0f 29 85 20 0a
	00 00		 movaps	 XMMWORD PTR $T14[rbp], xmm0
  00091	0f 28 85 20 0a
	00 00		 movaps	 xmm0, XMMWORD PTR $T14[rbp]
  00098	0f 29 45 70	 movaps	 XMMWORD PTR vPlayerRight$[rbp], xmm0

; 196  : 	_vector vPlayerUp = XMVector3Normalize(m_pPlayerTransform->Get_State(CTransform::STATE_UP));

  0009c	41 b8 01 00 00
	00		 mov	 r8d, 1
  000a2	48 8d 95 b0 0a
	00 00		 lea	 rdx, QWORD PTR $T17[rbp]
  000a9	48 8b 85 a0 18
	00 00		 mov	 rax, QWORD PTR this$[rbp]
  000b0	48 8b 88 c0 00
	00 00		 mov	 rcx, QWORD PTR [rax+192]
  000b7	ff 15 00 00 00
	00		 call	 QWORD PTR __imp_?Get_State@CTransform@Engine@@QEAA?AT__m128@@W4STATE@12@@Z
  000bd	0f 10 00	 movups	 xmm0, XMMWORD PTR [rax]
  000c0	e8 00 00 00 00	 call	 ?XMVector3Normalize@DirectX@@YQ?AT__m128@@T2@@Z ; DirectX::XMVector3Normalize
  000c5	0f 29 85 80 0a
	00 00		 movaps	 XMMWORD PTR $T16[rbp], xmm0
  000cc	0f 28 85 80 0a
	00 00		 movaps	 xmm0, XMMWORD PTR $T16[rbp]
  000d3	0f 29 85 a0 00
	00 00		 movaps	 XMMWORD PTR vPlayerUp$[rbp], xmm0

; 197  : 	_vector vPlayerLook = XMVector3Normalize(m_pPlayerTransform->Get_State(CTransform::STATE_LOOK));

  000da	41 b8 02 00 00
	00		 mov	 r8d, 2
  000e0	48 8d 95 10 0b
	00 00		 lea	 rdx, QWORD PTR $T19[rbp]
  000e7	48 8b 85 a0 18
	00 00		 mov	 rax, QWORD PTR this$[rbp]
  000ee	48 8b 88 c0 00
	00 00		 mov	 rcx, QWORD PTR [rax+192]
  000f5	ff 15 00 00 00
	00		 call	 QWORD PTR __imp_?Get_State@CTransform@Engine@@QEAA?AT__m128@@W4STATE@12@@Z
  000fb	0f 10 00	 movups	 xmm0, XMMWORD PTR [rax]
  000fe	e8 00 00 00 00	 call	 ?XMVector3Normalize@DirectX@@YQ?AT__m128@@T2@@Z ; DirectX::XMVector3Normalize
  00103	0f 29 85 e0 0a
	00 00		 movaps	 XMMWORD PTR $T18[rbp], xmm0
  0010a	0f 28 85 e0 0a
	00 00		 movaps	 xmm0, XMMWORD PTR $T18[rbp]
  00111	0f 29 85 d0 00
	00 00		 movaps	 XMMWORD PTR vPlayerLook$[rbp], xmm0

; 198  : 
; 199  : 	_vector vPlayerPos = m_pPlayerTransform->Get_State(CTransform::STATE_POSITION);

  00118	41 b8 03 00 00
	00		 mov	 r8d, 3
  0011e	48 8d 95 00 01
	00 00		 lea	 rdx, QWORD PTR vPlayerPos$[rbp]
  00125	48 8b 85 a0 18
	00 00		 mov	 rax, QWORD PTR this$[rbp]
  0012c	48 8b 88 c0 00
	00 00		 mov	 rcx, QWORD PTR [rax+192]
  00133	ff 15 00 00 00
	00		 call	 QWORD PTR __imp_?Get_State@CTransform@Engine@@QEAA?AT__m128@@W4STATE@12@@Z

; 200  : 
; 201  : 	vPlayerPos = vPlayerPos + vPlayerRight * vOffsetPos.x;

  00139	48 8b 85 a8 18
	00 00		 mov	 rax, QWORD PTR vOffsetPos$[rbp]
  00140	f3 0f 10 08	 movss	 xmm1, DWORD PTR [rax]
  00144	0f 28 45 70	 movaps	 xmm0, XMMWORD PTR vPlayerRight$[rbp]
  00148	e8 00 00 00 00	 call	 ??DDirectX@@YQ?AT__m128@@T1@M@Z ; DirectX::operator*
  0014d	0f 29 85 70 0b
	00 00		 movaps	 XMMWORD PTR $T21[rbp], xmm0
  00154	0f 28 8d 70 0b
	00 00		 movaps	 xmm1, XMMWORD PTR $T21[rbp]
  0015b	0f 28 85 00 01
	00 00		 movaps	 xmm0, XMMWORD PTR vPlayerPos$[rbp]
  00162	e8 00 00 00 00	 call	 ??HDirectX@@YQ?AT__m128@@T1@0@Z ; DirectX::operator+
  00167	0f 29 85 40 0b
	00 00		 movaps	 XMMWORD PTR $T20[rbp], xmm0
  0016e	0f 28 85 40 0b
	00 00		 movaps	 xmm0, XMMWORD PTR $T20[rbp]
  00175	0f 29 85 00 01
	00 00		 movaps	 XMMWORD PTR vPlayerPos$[rbp], xmm0

; 202  : 	vPlayerPos = vPlayerPos + vPlayerUp * vOffsetPos.y;

  0017c	48 8b 85 a8 18
	00 00		 mov	 rax, QWORD PTR vOffsetPos$[rbp]
  00183	f3 0f 10 48 04	 movss	 xmm1, DWORD PTR [rax+4]
  00188	0f 28 85 a0 00
	00 00		 movaps	 xmm0, XMMWORD PTR vPlayerUp$[rbp]
  0018f	e8 00 00 00 00	 call	 ??DDirectX@@YQ?AT__m128@@T1@M@Z ; DirectX::operator*
  00194	0f 29 85 d0 0b
	00 00		 movaps	 XMMWORD PTR $T23[rbp], xmm0
  0019b	0f 28 8d d0 0b
	00 00		 movaps	 xmm1, XMMWORD PTR $T23[rbp]
  001a2	0f 28 85 00 01
	00 00		 movaps	 xmm0, XMMWORD PTR vPlayerPos$[rbp]
  001a9	e8 00 00 00 00	 call	 ??HDirectX@@YQ?AT__m128@@T1@0@Z ; DirectX::operator+
  001ae	0f 29 85 a0 0b
	00 00		 movaps	 XMMWORD PTR $T22[rbp], xmm0
  001b5	0f 28 85 a0 0b
	00 00		 movaps	 xmm0, XMMWORD PTR $T22[rbp]
  001bc	0f 29 85 00 01
	00 00		 movaps	 XMMWORD PTR vPlayerPos$[rbp], xmm0

; 203  : 	vPlayerPos = vPlayerPos + vPlayerLook * vOffsetPos.z;

  001c3	48 8b 85 a8 18
	00 00		 mov	 rax, QWORD PTR vOffsetPos$[rbp]
  001ca	f3 0f 10 48 08	 movss	 xmm1, DWORD PTR [rax+8]
  001cf	0f 28 85 d0 00
	00 00		 movaps	 xmm0, XMMWORD PTR vPlayerLook$[rbp]
  001d6	e8 00 00 00 00	 call	 ??DDirectX@@YQ?AT__m128@@T1@M@Z ; DirectX::operator*
  001db	0f 29 85 30 0c
	00 00		 movaps	 XMMWORD PTR $T25[rbp], xmm0
  001e2	0f 28 8d 30 0c
	00 00		 movaps	 xmm1, XMMWORD PTR $T25[rbp]
  001e9	0f 28 85 00 01
	00 00		 movaps	 xmm0, XMMWORD PTR vPlayerPos$[rbp]
  001f0	e8 00 00 00 00	 call	 ??HDirectX@@YQ?AT__m128@@T1@0@Z ; DirectX::operator+
  001f5	0f 29 85 00 0c
	00 00		 movaps	 XMMWORD PTR $T24[rbp], xmm0
  001fc	0f 28 85 00 0c
	00 00		 movaps	 xmm0, XMMWORD PTR $T24[rbp]
  00203	0f 29 85 00 01
	00 00		 movaps	 XMMWORD PTR vPlayerPos$[rbp], xmm0

; 204  : 
; 205  : 	_float3 vPivotPos;

  0020a	48 8d 8d 28 01
	00 00		 lea	 rcx, QWORD PTR vPivotPos$[rbp]
  00211	e8 00 00 00 00	 call	 ??0XMFLOAT3@DirectX@@QEAA@XZ ; DirectX::XMFLOAT3::XMFLOAT3

; 206  : 	XMStoreFloat3(&vPivotPos, vPlayerPos);

  00216	0f 28 8d 00 01
	00 00		 movaps	 xmm1, XMMWORD PTR vPlayerPos$[rbp]
  0021d	48 8d 8d 28 01
	00 00		 lea	 rcx, QWORD PTR vPivotPos$[rbp]
  00224	e8 00 00 00 00	 call	 ?XMStoreFloat3@DirectX@@YQXPEAUXMFLOAT3@1@T__m128@@@Z ; DirectX::XMStoreFloat3

; 207  : 	
; 208  : 	NewPivotMatrix._41 = vPivotPos.x;

  00229	f3 0f 10 85 28
	01 00 00	 movss	 xmm0, DWORD PTR vPivotPos$[rbp]
  00231	f3 0f 11 45 40	 movss	 DWORD PTR NewPivotMatrix$[rbp+48], xmm0

; 209  : 	NewPivotMatrix._42 = vPivotPos.y;

  00236	f3 0f 10 85 2c
	01 00 00	 movss	 xmm0, DWORD PTR vPivotPos$[rbp+4]
  0023e	f3 0f 11 45 44	 movss	 DWORD PTR NewPivotMatrix$[rbp+52], xmm0

; 210  : 	NewPivotMatrix._43 = vPivotPos.z;

  00243	f3 0f 10 85 30
	01 00 00	 movss	 xmm0, DWORD PTR vPivotPos$[rbp+8]
  0024b	f3 0f 11 45 48	 movss	 DWORD PTR NewPivotMatrix$[rbp+56], xmm0

; 211  : 
; 212  : 	_matrix RotZero = XMMatrixRotationX(XMConvertToRadians(0.f));

  00250	0f 57 c0	 xorps	 xmm0, xmm0
  00253	e8 00 00 00 00	 call	 ?XMConvertToRadians@DirectX@@YAMM@Z ; DirectX::XMConvertToRadians
  00258	e8 00 00 00 00	 call	 ?XMMatrixRotationX@DirectX@@YQ?AUXMMATRIX@1@M@Z ; DirectX::XMMatrixRotationX
  0025d	0f 29 9d 90 0c
	00 00		 movaps	 XMMWORD PTR $T26[rbp+48], xmm3
  00264	0f 29 95 80 0c
	00 00		 movaps	 XMMWORD PTR $T26[rbp+32], xmm2
  0026b	0f 29 8d 70 0c
	00 00		 movaps	 XMMWORD PTR $T26[rbp+16], xmm1
  00272	0f 29 85 60 0c
	00 00		 movaps	 XMMWORD PTR $T26[rbp], xmm0
  00279	48 8d 85 80 0d
	00 00		 lea	 rax, QWORD PTR $T29[rbp]
  00280	48 8d 8d 60 0c
	00 00		 lea	 rcx, QWORD PTR $T26[rbp]
  00287	48 8b f8	 mov	 rdi, rax
  0028a	48 8b f1	 mov	 rsi, rcx
  0028d	b9 40 00 00 00	 mov	 ecx, 64			; 00000040H
  00292	f3 a4		 rep movsb
  00294	48 8d 85 60 01
	00 00		 lea	 rax, QWORD PTR RotZero$[rbp]
  0029b	48 8d 8d 80 0d
	00 00		 lea	 rcx, QWORD PTR $T29[rbp]
  002a2	48 8b f8	 mov	 rdi, rax
  002a5	48 8b f1	 mov	 rsi, rcx
  002a8	b9 40 00 00 00	 mov	 ecx, 64			; 00000040H
  002ad	f3 a4		 rep movsb

; 213  : 	_matrix RotX = XMMatrixRotationX(XMConvertToRadians(fDegreeAngle.x));

  002af	48 8b 85 b0 18
	00 00		 mov	 rax, QWORD PTR fDegreeAngle$[rbp]
  002b6	f3 0f 10 00	 movss	 xmm0, DWORD PTR [rax]
  002ba	e8 00 00 00 00	 call	 ?XMConvertToRadians@DirectX@@YAMM@Z ; DirectX::XMConvertToRadians
  002bf	e8 00 00 00 00	 call	 ?XMMatrixRotationX@DirectX@@YQ?AUXMMATRIX@1@M@Z ; DirectX::XMMatrixRotationX
  002c4	0f 29 9d f0 0c
	00 00		 movaps	 XMMWORD PTR $T27[rbp+48], xmm3
  002cb	0f 29 95 e0 0c
	00 00		 movaps	 XMMWORD PTR $T27[rbp+32], xmm2
  002d2	0f 29 8d d0 0c
	00 00		 movaps	 XMMWORD PTR $T27[rbp+16], xmm1
  002d9	0f 29 85 c0 0c
	00 00		 movaps	 XMMWORD PTR $T27[rbp], xmm0
  002e0	48 8d 85 e0 0d
	00 00		 lea	 rax, QWORD PTR $T30[rbp]
  002e7	48 8d 8d c0 0c
	00 00		 lea	 rcx, QWORD PTR $T27[rbp]
  002ee	48 8b f8	 mov	 rdi, rax
  002f1	48 8b f1	 mov	 rsi, rcx
  002f4	b9 40 00 00 00	 mov	 ecx, 64			; 00000040H
  002f9	f3 a4		 rep movsb
  002fb	48 8d 85 c0 01
	00 00		 lea	 rax, QWORD PTR RotX$[rbp]
  00302	48 8d 8d e0 0d
	00 00		 lea	 rcx, QWORD PTR $T30[rbp]
  00309	48 8b f8	 mov	 rdi, rax
  0030c	48 8b f1	 mov	 rsi, rcx
  0030f	b9 40 00 00 00	 mov	 ecx, 64			; 00000040H
  00314	f3 a4		 rep movsb

; 214  : 	_matrix RotY = XMMatrixRotationY(XMConvertToRadians(fDegreeAngle.y));

  00316	48 8b 85 b0 18
	00 00		 mov	 rax, QWORD PTR fDegreeAngle$[rbp]
  0031d	f3 0f 10 40 04	 movss	 xmm0, DWORD PTR [rax+4]
  00322	e8 00 00 00 00	 call	 ?XMConvertToRadians@DirectX@@YAMM@Z ; DirectX::XMConvertToRadians
  00327	e8 00 00 00 00	 call	 ?XMMatrixRotationY@DirectX@@YQ?AUXMMATRIX@1@M@Z ; DirectX::XMMatrixRotationY
  0032c	0f 29 9d 50 0d
	00 00		 movaps	 XMMWORD PTR $T28[rbp+48], xmm3
  00333	0f 29 95 40 0d
	00 00		 movaps	 XMMWORD PTR $T28[rbp+32], xmm2
  0033a	0f 29 8d 30 0d
	00 00		 movaps	 XMMWORD PTR $T28[rbp+16], xmm1
  00341	0f 29 85 20 0d
	00 00		 movaps	 XMMWORD PTR $T28[rbp], xmm0
  00348	48 8d 85 40 0e
	00 00		 lea	 rax, QWORD PTR $T31[rbp]
  0034f	48 8d 8d 20 0d
	00 00		 lea	 rcx, QWORD PTR $T28[rbp]
  00356	48 8b f8	 mov	 rdi, rax
  00359	48 8b f1	 mov	 rsi, rcx
  0035c	b9 40 00 00 00	 mov	 ecx, 64			; 00000040H
  00361	f3 a4		 rep movsb
  00363	48 8d 85 20 02
	00 00		 lea	 rax, QWORD PTR RotY$[rbp]
  0036a	48 8d 8d 40 0e
	00 00		 lea	 rcx, QWORD PTR $T31[rbp]
  00371	48 8b f8	 mov	 rdi, rax
  00374	48 8b f1	 mov	 rsi, rcx
  00377	b9 40 00 00 00	 mov	 ecx, 64			; 00000040H
  0037c	f3 a4		 rep movsb

; 215  : 	_matrix RotZ = XMMatrixRotationZ(XMConvertToRadians(fDegreeAngle.z));

  0037e	48 8b 85 b0 18
	00 00		 mov	 rax, QWORD PTR fDegreeAngle$[rbp]
  00385	f3 0f 10 40 08	 movss	 xmm0, DWORD PTR [rax+8]
  0038a	e8 00 00 00 00	 call	 ?XMConvertToRadians@DirectX@@YAMM@Z ; DirectX::XMConvertToRadians
  0038f	e8 00 00 00 00	 call	 ?XMMatrixRotationZ@DirectX@@YQ?AUXMMATRIX@1@M@Z ; DirectX::XMMatrixRotationZ
  00394	0f 29 9d 10 14
	00 00		 movaps	 XMMWORD PTR $T50[rbp+48], xmm3
  0039b	0f 29 95 00 14
	00 00		 movaps	 XMMWORD PTR $T50[rbp+32], xmm2
  003a2	0f 29 8d f0 13
	00 00		 movaps	 XMMWORD PTR $T50[rbp+16], xmm1
  003a9	0f 29 85 e0 13
	00 00		 movaps	 XMMWORD PTR $T50[rbp], xmm0
  003b0	48 8d 85 a0 0e
	00 00		 lea	 rax, QWORD PTR $T32[rbp]
  003b7	48 8d 8d e0 13
	00 00		 lea	 rcx, QWORD PTR $T50[rbp]
  003be	48 8b f8	 mov	 rdi, rax
  003c1	48 8b f1	 mov	 rsi, rcx
  003c4	b9 40 00 00 00	 mov	 ecx, 64			; 00000040H
  003c9	f3 a4		 rep movsb
  003cb	48 8d 85 80 02
	00 00		 lea	 rax, QWORD PTR RotZ$[rbp]
  003d2	48 8d 8d a0 0e
	00 00		 lea	 rcx, QWORD PTR $T32[rbp]
  003d9	48 8b f8	 mov	 rdi, rax
  003dc	48 8b f1	 mov	 rsi, rcx
  003df	b9 40 00 00 00	 mov	 ecx, 64			; 00000040H
  003e4	f3 a4		 rep movsb

; 216  : 
; 217  : 	XMStoreFloat4x4(&EffectWorldMatrix, RotZ * RotY * RotX * XMLoadFloat4x4(&NewPivotMatrix));

  003e6	48 8d 4d 10	 lea	 rcx, QWORD PTR NewPivotMatrix$[rbp]
  003ea	e8 00 00 00 00	 call	 ?XMLoadFloat4x4@DirectX@@YQ?AUXMMATRIX@1@PEBUXMFLOAT4X4@1@@Z ; DirectX::XMLoadFloat4x4
  003ef	0f 29 9d 90 15
	00 00		 movaps	 XMMWORD PTR $T54[rbp+48], xmm3
  003f6	0f 29 95 80 15
	00 00		 movaps	 XMMWORD PTR $T54[rbp+32], xmm2
  003fd	0f 29 8d 70 15
	00 00		 movaps	 XMMWORD PTR $T54[rbp+16], xmm1
  00404	0f 29 85 60 15
	00 00		 movaps	 XMMWORD PTR $T54[rbp], xmm0
  0040b	48 8d 85 20 10
	00 00		 lea	 rax, QWORD PTR $T36[rbp]
  00412	48 8d 8d 60 15
	00 00		 lea	 rcx, QWORD PTR $T54[rbp]
  00419	48 8b f8	 mov	 rdi, rax
  0041c	48 8b f1	 mov	 rsi, rcx
  0041f	b9 40 00 00 00	 mov	 ecx, 64			; 00000040H
  00424	f3 a4		 rep movsb
  00426	0f 28 85 20 02
	00 00		 movaps	 xmm0, XMMWORD PTR RotY$[rbp]
  0042d	0f 28 8d 30 02
	00 00		 movaps	 xmm1, XMMWORD PTR RotY$[rbp+16]
  00434	0f 28 95 40 02
	00 00		 movaps	 xmm2, XMMWORD PTR RotY$[rbp+32]
  0043b	0f 28 9d 50 02
	00 00		 movaps	 xmm3, XMMWORD PTR RotY$[rbp+48]
  00442	48 8d 8d 80 02
	00 00		 lea	 rcx, QWORD PTR RotZ$[rbp]
  00449	e8 00 00 00 00	 call	 ??DXMMATRIX@DirectX@@QEBQ?AU01@U01@@Z ; DirectX::XMMATRIX::operator*
  0044e	0f 29 9d 70 14
	00 00		 movaps	 XMMWORD PTR $T51[rbp+48], xmm3
  00455	0f 29 95 60 14
	00 00		 movaps	 XMMWORD PTR $T51[rbp+32], xmm2
  0045c	0f 29 8d 50 14
	00 00		 movaps	 XMMWORD PTR $T51[rbp+16], xmm1
  00463	0f 29 85 40 14
	00 00		 movaps	 XMMWORD PTR $T51[rbp], xmm0
  0046a	48 8d 85 c0 0f
	00 00		 lea	 rax, QWORD PTR $T35[rbp]
  00471	48 8d 8d 40 14
	00 00		 lea	 rcx, QWORD PTR $T51[rbp]
  00478	48 8b f8	 mov	 rdi, rax
  0047b	48 8b f1	 mov	 rsi, rcx
  0047e	b9 40 00 00 00	 mov	 ecx, 64			; 00000040H
  00483	f3 a4		 rep movsb
  00485	0f 28 85 c0 01
	00 00		 movaps	 xmm0, XMMWORD PTR RotX$[rbp]
  0048c	0f 28 8d d0 01
	00 00		 movaps	 xmm1, XMMWORD PTR RotX$[rbp+16]
  00493	0f 28 95 e0 01
	00 00		 movaps	 xmm2, XMMWORD PTR RotX$[rbp+32]
  0049a	0f 28 9d f0 01
	00 00		 movaps	 xmm3, XMMWORD PTR RotX$[rbp+48]
  004a1	48 8d 8d c0 0f
	00 00		 lea	 rcx, QWORD PTR $T35[rbp]
  004a8	e8 00 00 00 00	 call	 ??DXMMATRIX@DirectX@@QEBQ?AU01@U01@@Z ; DirectX::XMMATRIX::operator*
  004ad	0f 29 9d d0 14
	00 00		 movaps	 XMMWORD PTR $T52[rbp+48], xmm3
  004b4	0f 29 95 c0 14
	00 00		 movaps	 XMMWORD PTR $T52[rbp+32], xmm2
  004bb	0f 29 8d b0 14
	00 00		 movaps	 XMMWORD PTR $T52[rbp+16], xmm1
  004c2	0f 29 85 a0 14
	00 00		 movaps	 XMMWORD PTR $T52[rbp], xmm0
  004c9	48 8d 85 60 0f
	00 00		 lea	 rax, QWORD PTR $T34[rbp]
  004d0	48 8d 8d a0 14
	00 00		 lea	 rcx, QWORD PTR $T52[rbp]
  004d7	48 8b f8	 mov	 rdi, rax
  004da	48 8b f1	 mov	 rsi, rcx
  004dd	b9 40 00 00 00	 mov	 ecx, 64			; 00000040H
  004e2	f3 a4		 rep movsb
  004e4	0f 28 85 20 10
	00 00		 movaps	 xmm0, XMMWORD PTR $T36[rbp]
  004eb	0f 28 8d 30 10
	00 00		 movaps	 xmm1, XMMWORD PTR $T36[rbp+16]
  004f2	0f 28 95 40 10
	00 00		 movaps	 xmm2, XMMWORD PTR $T36[rbp+32]
  004f9	0f 28 9d 50 10
	00 00		 movaps	 xmm3, XMMWORD PTR $T36[rbp+48]
  00500	48 8d 8d 60 0f
	00 00		 lea	 rcx, QWORD PTR $T34[rbp]
  00507	e8 00 00 00 00	 call	 ??DXMMATRIX@DirectX@@QEBQ?AU01@U01@@Z ; DirectX::XMMATRIX::operator*
  0050c	0f 29 9d 30 15
	00 00		 movaps	 XMMWORD PTR $T53[rbp+48], xmm3
  00513	0f 29 95 20 15
	00 00		 movaps	 XMMWORD PTR $T53[rbp+32], xmm2
  0051a	0f 29 8d 10 15
	00 00		 movaps	 XMMWORD PTR $T53[rbp+16], xmm1
  00521	0f 29 85 00 15
	00 00		 movaps	 XMMWORD PTR $T53[rbp], xmm0
  00528	48 8d 85 00 0f
	00 00		 lea	 rax, QWORD PTR $T33[rbp]
  0052f	48 8d 8d 00 15
	00 00		 lea	 rcx, QWORD PTR $T53[rbp]
  00536	48 8b f8	 mov	 rdi, rax
  00539	48 8b f1	 mov	 rsi, rcx
  0053c	b9 40 00 00 00	 mov	 ecx, 64			; 00000040H
  00541	f3 a4		 rep movsb
  00543	48 8b 85 a0 18
	00 00		 mov	 rax, QWORD PTR this$[rbp]
  0054a	48 05 e0 00 00
	00		 add	 rax, 224		; 000000e0H
  00550	0f 28 85 00 0f
	00 00		 movaps	 xmm0, XMMWORD PTR $T33[rbp]
  00557	0f 28 8d 10 0f
	00 00		 movaps	 xmm1, XMMWORD PTR $T33[rbp+16]
  0055e	0f 28 95 20 0f
	00 00		 movaps	 xmm2, XMMWORD PTR $T33[rbp+32]
  00565	0f 28 9d 30 0f
	00 00		 movaps	 xmm3, XMMWORD PTR $T33[rbp+48]
  0056c	48 8b c8	 mov	 rcx, rax
  0056f	e8 00 00 00 00	 call	 ?XMStoreFloat4x4@DirectX@@YQXPEAUXMFLOAT4X4@1@UXMMATRIX@1@@Z ; DirectX::XMStoreFloat4x4

; 218  : 	m_pTransform->Set_WorldMatrix(EffectWorldMatrix);

  00574	48 8d 85 a0 17
	00 00		 lea	 rax, QWORD PTR $T60[rbp]
  0057b	48 8b 8d a0 18
	00 00		 mov	 rcx, QWORD PTR this$[rbp]
  00582	48 8b f8	 mov	 rdi, rax
  00585	48 8d b1 e0 00
	00 00		 lea	 rsi, QWORD PTR [rcx+224]
  0058c	b9 40 00 00 00	 mov	 ecx, 64			; 00000040H
  00591	f3 a4		 rep movsb
  00593	48 8d 95 a0 17
	00 00		 lea	 rdx, QWORD PTR $T60[rbp]
  0059a	48 8b 85 a0 18
	00 00		 mov	 rax, QWORD PTR this$[rbp]
  005a1	48 8b 88 80 00
	00 00		 mov	 rcx, QWORD PTR [rax+128]
  005a8	ff 15 00 00 00
	00		 call	 QWORD PTR __imp_?Set_WorldMatrix@CTransform@Engine@@QEAAXUXMFLOAT4X4@DirectX@@@Z

; 219  : 	
; 220  : 
; 221  : 	_matrix HitRotMatrkx = XMMatrixRotationX(XMConvertToRadians(0.f));

  005ae	0f 57 c0	 xorps	 xmm0, xmm0
  005b1	e8 00 00 00 00	 call	 ?XMConvertToRadians@DirectX@@YAMM@Z ; DirectX::XMConvertToRadians
  005b6	e8 00 00 00 00	 call	 ?XMMatrixRotationX@DirectX@@YQ?AUXMMATRIX@1@M@Z ; DirectX::XMMatrixRotationX
  005bb	0f 29 9d f0 15
	00 00		 movaps	 XMMWORD PTR $T55[rbp+48], xmm3
  005c2	0f 29 95 e0 15
	00 00		 movaps	 XMMWORD PTR $T55[rbp+32], xmm2
  005c9	0f 29 8d d0 15
	00 00		 movaps	 XMMWORD PTR $T55[rbp+16], xmm1
  005d0	0f 29 85 c0 15
	00 00		 movaps	 XMMWORD PTR $T55[rbp], xmm0
  005d7	48 8d 85 80 10
	00 00		 lea	 rax, QWORD PTR $T37[rbp]
  005de	48 8d 8d c0 15
	00 00		 lea	 rcx, QWORD PTR $T55[rbp]
  005e5	48 8b f8	 mov	 rdi, rax
  005e8	48 8b f1	 mov	 rsi, rcx
  005eb	b9 40 00 00 00	 mov	 ecx, 64			; 00000040H
  005f0	f3 a4		 rep movsb
  005f2	48 8d 85 e0 02
	00 00		 lea	 rax, QWORD PTR HitRotMatrkx$[rbp]
  005f9	48 8d 8d 80 10
	00 00		 lea	 rcx, QWORD PTR $T37[rbp]
  00600	48 8b f8	 mov	 rdi, rax
  00603	48 8b f1	 mov	 rsi, rcx
  00606	b9 40 00 00 00	 mov	 ecx, 64			; 00000040H
  0060b	f3 a4		 rep movsb

; 222  : 	HitRotMatrkx = RotZ * RotY * RotZero * XMLoadFloat4x4(&NewPivotMatrix);

  0060d	48 8d 4d 10	 lea	 rcx, QWORD PTR NewPivotMatrix$[rbp]
  00611	e8 00 00 00 00	 call	 ?XMLoadFloat4x4@DirectX@@YQ?AUXMMATRIX@1@PEBUXMFLOAT4X4@1@@Z ; DirectX::XMLoadFloat4x4
  00616	0f 29 9d 70 17
	00 00		 movaps	 XMMWORD PTR $T59[rbp+48], xmm3
  0061d	0f 29 95 60 17
	00 00		 movaps	 XMMWORD PTR $T59[rbp+32], xmm2
  00624	0f 29 8d 50 17
	00 00		 movaps	 XMMWORD PTR $T59[rbp+16], xmm1
  0062b	0f 29 85 40 17
	00 00		 movaps	 XMMWORD PTR $T59[rbp], xmm0
  00632	48 8d 85 00 12
	00 00		 lea	 rax, QWORD PTR $T41[rbp]
  00639	48 8d 8d 40 17
	00 00		 lea	 rcx, QWORD PTR $T59[rbp]
  00640	48 8b f8	 mov	 rdi, rax
  00643	48 8b f1	 mov	 rsi, rcx
  00646	b9 40 00 00 00	 mov	 ecx, 64			; 00000040H
  0064b	f3 a4		 rep movsb
  0064d	0f 28 85 20 02
	00 00		 movaps	 xmm0, XMMWORD PTR RotY$[rbp]
  00654	0f 28 8d 30 02
	00 00		 movaps	 xmm1, XMMWORD PTR RotY$[rbp+16]
  0065b	0f 28 95 40 02
	00 00		 movaps	 xmm2, XMMWORD PTR RotY$[rbp+32]
  00662	0f 28 9d 50 02
	00 00		 movaps	 xmm3, XMMWORD PTR RotY$[rbp+48]
  00669	48 8d 8d 80 02
	00 00		 lea	 rcx, QWORD PTR RotZ$[rbp]
  00670	e8 00 00 00 00	 call	 ??DXMMATRIX@DirectX@@QEBQ?AU01@U01@@Z ; DirectX::XMMATRIX::operator*
  00675	0f 29 9d 50 16
	00 00		 movaps	 XMMWORD PTR $T56[rbp+48], xmm3
  0067c	0f 29 95 40 16
	00 00		 movaps	 XMMWORD PTR $T56[rbp+32], xmm2
  00683	0f 29 8d 30 16
	00 00		 movaps	 XMMWORD PTR $T56[rbp+16], xmm1
  0068a	0f 29 85 20 16
	00 00		 movaps	 XMMWORD PTR $T56[rbp], xmm0
  00691	48 8d 85 a0 11
	00 00		 lea	 rax, QWORD PTR $T40[rbp]
  00698	48 8d 8d 20 16
	00 00		 lea	 rcx, QWORD PTR $T56[rbp]
  0069f	48 8b f8	 mov	 rdi, rax
  006a2	48 8b f1	 mov	 rsi, rcx
  006a5	b9 40 00 00 00	 mov	 ecx, 64			; 00000040H
  006aa	f3 a4		 rep movsb
  006ac	0f 28 85 60 01
	00 00		 movaps	 xmm0, XMMWORD PTR RotZero$[rbp]
  006b3	0f 28 8d 70 01
	00 00		 movaps	 xmm1, XMMWORD PTR RotZero$[rbp+16]
  006ba	0f 28 95 80 01
	00 00		 movaps	 xmm2, XMMWORD PTR RotZero$[rbp+32]
  006c1	0f 28 9d 90 01
	00 00		 movaps	 xmm3, XMMWORD PTR RotZero$[rbp+48]
  006c8	48 8d 8d a0 11
	00 00		 lea	 rcx, QWORD PTR $T40[rbp]
  006cf	e8 00 00 00 00	 call	 ??DXMMATRIX@DirectX@@QEBQ?AU01@U01@@Z ; DirectX::XMMATRIX::operator*
  006d4	0f 29 9d b0 16
	00 00		 movaps	 XMMWORD PTR $T57[rbp+48], xmm3
  006db	0f 29 95 a0 16
	00 00		 movaps	 XMMWORD PTR $T57[rbp+32], xmm2
  006e2	0f 29 8d 90 16
	00 00		 movaps	 XMMWORD PTR $T57[rbp+16], xmm1
  006e9	0f 29 85 80 16
	00 00		 movaps	 XMMWORD PTR $T57[rbp], xmm0
  006f0	48 8d 85 40 11
	00 00		 lea	 rax, QWORD PTR $T39[rbp]
  006f7	48 8d 8d 80 16
	00 00		 lea	 rcx, QWORD PTR $T57[rbp]
  006fe	48 8b f8	 mov	 rdi, rax
  00701	48 8b f1	 mov	 rsi, rcx
  00704	b9 40 00 00 00	 mov	 ecx, 64			; 00000040H
  00709	f3 a4		 rep movsb
  0070b	0f 28 85 00 12
	00 00		 movaps	 xmm0, XMMWORD PTR $T41[rbp]
  00712	0f 28 8d 10 12
	00 00		 movaps	 xmm1, XMMWORD PTR $T41[rbp+16]
  00719	0f 28 95 20 12
	00 00		 movaps	 xmm2, XMMWORD PTR $T41[rbp+32]
  00720	0f 28 9d 30 12
	00 00		 movaps	 xmm3, XMMWORD PTR $T41[rbp+48]
  00727	48 8d 8d 40 11
	00 00		 lea	 rcx, QWORD PTR $T39[rbp]
  0072e	e8 00 00 00 00	 call	 ??DXMMATRIX@DirectX@@QEBQ?AU01@U01@@Z ; DirectX::XMMATRIX::operator*
  00733	0f 29 9d 10 17
	00 00		 movaps	 XMMWORD PTR $T58[rbp+48], xmm3
  0073a	0f 29 95 00 17
	00 00		 movaps	 XMMWORD PTR $T58[rbp+32], xmm2
  00741	0f 29 8d f0 16
	00 00		 movaps	 XMMWORD PTR $T58[rbp+16], xmm1
  00748	0f 29 85 e0 16
	00 00		 movaps	 XMMWORD PTR $T58[rbp], xmm0
  0074f	48 8d 85 e0 10
	00 00		 lea	 rax, QWORD PTR $T38[rbp]
  00756	48 8d 8d e0 16
	00 00		 lea	 rcx, QWORD PTR $T58[rbp]
  0075d	48 8b f8	 mov	 rdi, rax
  00760	48 8b f1	 mov	 rsi, rcx
  00763	b9 40 00 00 00	 mov	 ecx, 64			; 00000040H
  00768	f3 a4		 rep movsb
  0076a	48 8d 95 e0 10
	00 00		 lea	 rdx, QWORD PTR $T38[rbp]
  00771	48 8d 8d e0 02
	00 00		 lea	 rcx, QWORD PTR HitRotMatrkx$[rbp]
  00778	e8 00 00 00 00	 call	 ??4XMMATRIX@DirectX@@QEAAAEAU01@AEBU01@@Z ; DirectX::XMMATRIX::operator=

; 223  : 	_float4x4 hitMatrix;

  0077d	48 8d 8d 40 03
	00 00		 lea	 rcx, QWORD PTR hitMatrix$[rbp]
  00784	e8 00 00 00 00	 call	 ??0XMFLOAT4X4@DirectX@@QEAA@XZ ; DirectX::XMFLOAT4X4::XMFLOAT4X4

; 224  : 	XMStoreFloat4x4(&hitMatrix, HitRotMatrkx);

  00789	0f 28 85 e0 02
	00 00		 movaps	 xmm0, XMMWORD PTR HitRotMatrkx$[rbp]
  00790	0f 28 8d f0 02
	00 00		 movaps	 xmm1, XMMWORD PTR HitRotMatrkx$[rbp+16]
  00797	0f 28 95 00 03
	00 00		 movaps	 xmm2, XMMWORD PTR HitRotMatrkx$[rbp+32]
  0079e	0f 28 9d 10 03
	00 00		 movaps	 xmm3, XMMWORD PTR HitRotMatrkx$[rbp+48]
  007a5	48 8d 8d 40 03
	00 00		 lea	 rcx, QWORD PTR hitMatrix$[rbp]
  007ac	e8 00 00 00 00	 call	 ?XMStoreFloat4x4@DirectX@@YQXPEAUXMFLOAT4X4@1@UXMMATRIX@1@@Z ; DirectX::XMStoreFloat4x4

; 225  : 	CEnemy* m_pEnemy = (CEnemy*)m_pPlayer->GetLockOnTarget();

  007b1	48 8b 85 a0 18
	00 00		 mov	 rax, QWORD PTR this$[rbp]
  007b8	48 8b 88 b8 00
	00 00		 mov	 rcx, QWORD PTR [rax+184]
  007bf	e8 00 00 00 00	 call	 ?GetLockOnTarget@CCharacter@Client@@QEAAPEAVCGameObject@Engine@@XZ ; Client::CCharacter::GetLockOnTarget
  007c4	48 89 85 98 03
	00 00		 mov	 QWORD PTR m_pEnemy$[rbp], rax

; 226  : 
; 227  : 	if (m_pEnemy)

  007cb	48 83 bd 98 03
	00 00 00	 cmp	 QWORD PTR m_pEnemy$[rbp], 0
  007d3	0f 84 6d 01 00
	00		 je	 $LN2@EffectStar

; 228  : 	{
; 229  : 		_vector vEnemyPos;
; 230  : 		vEnemyPos = XMLoadFloat4(&m_pEnemy->GetPosition());

  007d9	48 8b 85 98 03
	00 00		 mov	 rax, QWORD PTR m_pEnemy$[rbp]
  007e0	48 8b 00	 mov	 rax, QWORD PTR [rax]
  007e3	48 8d 95 84 12
	00 00		 lea	 rdx, QWORD PTR $T43[rbp]
  007ea	48 8b 8d 98 03
	00 00		 mov	 rcx, QWORD PTR m_pEnemy$[rbp]
  007f1	ff 50 58	 call	 QWORD PTR [rax+88]
  007f4	48 8b c8	 mov	 rcx, rax
  007f7	e8 00 00 00 00	 call	 ?XMLoadFloat4@DirectX@@YQ?AT__m128@@PEBUXMFLOAT4@1@@Z ; DirectX::XMLoadFloat4
  007fc	0f 29 85 60 12
	00 00		 movaps	 XMMWORD PTR $T42[rbp], xmm0
  00803	0f 28 85 60 12
	00 00		 movaps	 xmm0, XMMWORD PTR $T42[rbp]
  0080a	0f 29 85 c0 03
	00 00		 movaps	 XMMWORD PTR vEnemyPos$12[rbp], xmm0

; 231  : 
; 232  : 		vPlayerLook = XMVector3Normalize(vEnemyPos - vPlayerPos) * 1.5f;

  00811	0f 28 8d 00 01
	00 00		 movaps	 xmm1, XMMWORD PTR vPlayerPos$[rbp]
  00818	0f 28 85 c0 03
	00 00		 movaps	 xmm0, XMMWORD PTR vEnemyPos$12[rbp]
  0081f	e8 00 00 00 00	 call	 ??GDirectX@@YQ?AT__m128@@T1@0@Z ; DirectX::operator-
  00824	0f 29 85 20 13
	00 00		 movaps	 XMMWORD PTR $T46[rbp], xmm0
  0082b	0f 28 85 20 13
	00 00		 movaps	 xmm0, XMMWORD PTR $T46[rbp]
  00832	e8 00 00 00 00	 call	 ?XMVector3Normalize@DirectX@@YQ?AT__m128@@T2@@Z ; DirectX::XMVector3Normalize
  00837	0f 29 85 f0 12
	00 00		 movaps	 XMMWORD PTR $T45[rbp], xmm0
  0083e	f3 0f 10 0d 00
	00 00 00	 movss	 xmm1, DWORD PTR __real@3fc00000
  00846	0f 28 85 f0 12
	00 00		 movaps	 xmm0, XMMWORD PTR $T45[rbp]
  0084d	e8 00 00 00 00	 call	 ??DDirectX@@YQ?AT__m128@@T1@M@Z ; DirectX::operator*
  00852	0f 29 85 c0 12
	00 00		 movaps	 XMMWORD PTR $T44[rbp], xmm0
  00859	0f 28 85 c0 12
	00 00		 movaps	 xmm0, XMMWORD PTR $T44[rbp]
  00860	0f 29 85 d0 00
	00 00		 movaps	 XMMWORD PTR vPlayerLook$[rbp], xmm0

; 233  : 
; 234  : 		_vector whiteEffectPos = vPlayerPos + vPlayerLook * 1.5f;

  00867	f3 0f 10 0d 00
	00 00 00	 movss	 xmm1, DWORD PTR __real@3fc00000
  0086f	0f 28 85 d0 00
	00 00		 movaps	 xmm0, XMMWORD PTR vPlayerLook$[rbp]
  00876	e8 00 00 00 00	 call	 ??DDirectX@@YQ?AT__m128@@T1@M@Z ; DirectX::operator*
  0087b	0f 29 85 80 13
	00 00		 movaps	 XMMWORD PTR $T48[rbp], xmm0
  00882	0f 28 8d 80 13
	00 00		 movaps	 xmm1, XMMWORD PTR $T48[rbp]
  00889	0f 28 85 00 01
	00 00		 movaps	 xmm0, XMMWORD PTR vPlayerPos$[rbp]
  00890	e8 00 00 00 00	 call	 ??HDirectX@@YQ?AT__m128@@T1@0@Z ; DirectX::operator+
  00895	0f 29 85 50 13
	00 00		 movaps	 XMMWORD PTR $T47[rbp], xmm0
  0089c	0f 28 85 50 13
	00 00		 movaps	 xmm0, XMMWORD PTR $T47[rbp]
  008a3	0f 29 85 f0 03
	00 00		 movaps	 XMMWORD PTR whiteEffectPos$13[rbp], xmm0

; 235  : 		whiteEffectPos = XMVectorSetY(whiteEffectPos, XMVectorGetY(whiteEffectPos) + 1.5f);

  008aa	0f 28 85 f0 03
	00 00		 movaps	 xmm0, XMMWORD PTR whiteEffectPos$13[rbp]
  008b1	e8 00 00 00 00	 call	 ?XMVectorGetY@DirectX@@YQMT__m128@@@Z ; DirectX::XMVectorGetY
  008b6	f3 0f 58 05 00
	00 00 00	 addss	 xmm0, DWORD PTR __real@3fc00000
  008be	0f 28 c8	 movaps	 xmm1, xmm0
  008c1	0f 28 85 f0 03
	00 00		 movaps	 xmm0, XMMWORD PTR whiteEffectPos$13[rbp]
  008c8	e8 00 00 00 00	 call	 ?XMVectorSetY@DirectX@@YQ?AT__m128@@T2@M@Z ; DirectX::XMVectorSetY
  008cd	0f 29 85 b0 13
	00 00		 movaps	 XMMWORD PTR $T49[rbp], xmm0
  008d4	0f 28 85 b0 13
	00 00		 movaps	 xmm0, XMMWORD PTR $T49[rbp]
  008db	0f 29 85 f0 03
	00 00		 movaps	 XMMWORD PTR whiteEffectPos$13[rbp], xmm0

; 236  : 		m_pHitTransform->Set_WorldMatrix(hitMatrix);

  008e2	48 8d 85 00 18
	00 00		 lea	 rax, QWORD PTR $T61[rbp]
  008e9	48 8d 8d 40 03
	00 00		 lea	 rcx, QWORD PTR hitMatrix$[rbp]
  008f0	48 8b f8	 mov	 rdi, rax
  008f3	48 8b f1	 mov	 rsi, rcx
  008f6	b9 40 00 00 00	 mov	 ecx, 64			; 00000040H
  008fb	f3 a4		 rep movsb
  008fd	48 8d 95 00 18
	00 00		 lea	 rdx, QWORD PTR $T61[rbp]
  00904	48 8b 85 a0 18
	00 00		 mov	 rax, QWORD PTR this$[rbp]
  0090b	48 8b 88 88 00
	00 00		 mov	 rcx, QWORD PTR [rax+136]
  00912	ff 15 00 00 00
	00		 call	 QWORD PTR __imp_?Set_WorldMatrix@CTransform@Engine@@QEAAXUXMFLOAT4X4@DirectX@@@Z

; 237  : 		m_pHitTransform->Set_State(CTransform::STATE_POSITION, whiteEffectPos);

  00918	0f 28 85 f0 03
	00 00		 movaps	 xmm0, XMMWORD PTR whiteEffectPos$13[rbp]
  0091f	0f 29 85 60 18
	00 00		 movaps	 XMMWORD PTR $T62[rbp], xmm0
  00926	4c 8d 85 60 18
	00 00		 lea	 r8, QWORD PTR $T62[rbp]
  0092d	ba 03 00 00 00	 mov	 edx, 3
  00932	48 8b 85 a0 18
	00 00		 mov	 rax, QWORD PTR this$[rbp]
  00939	48 8b 88 88 00
	00 00		 mov	 rcx, QWORD PTR [rax+136]
  00940	ff 15 00 00 00
	00		 call	 QWORD PTR __imp_?Set_State@CTransform@Engine@@QEAAXW4STATE@12@T__m128@@@Z
$LN2@EffectStar:

; 238  : 	}
; 239  : 
; 240  : 	m_bUse = true;

  00946	48 8b 85 a0 18
	00 00		 mov	 rax, QWORD PTR this$[rbp]
  0094d	c6 80 c8 00 00
	00 01		 mov	 BYTE PTR [rax+200], 1

; 241  : }

  00954	48 8d 4d e0	 lea	 rcx, QWORD PTR [rbp-32]
  00958	48 8d 15 00 00
	00 00		 lea	 rdx, OFFSET FLAT:?EffectStart@CSwordTrail@Client@@QEAAXUXMFLOAT3@DirectX@@0@Z$rtcFrameData
  0095f	e8 00 00 00 00	 call	 _RTC_CheckStackVars
  00964	48 8b 8d 78 18
	00 00		 mov	 rcx, QWORD PTR __$ArrayPad$[rbp]
  0096b	48 33 cd	 xor	 rcx, rbp
  0096e	e8 00 00 00 00	 call	 __security_check_cookie
  00973	48 8d a5 80 18
	00 00		 lea	 rsp, QWORD PTR [rbp+6272]
  0097a	5f		 pop	 rdi
  0097b	5e		 pop	 rsi
  0097c	5d		 pop	 rbp
  0097d	c3		 ret	 0
?EffectStart@CSwordTrail@Client@@QEAAXUXMFLOAT3@DirectX@@0@Z ENDP ; Client::CSwordTrail::EffectStart
_TEXT	ENDS
; Function compile flags: /Odtp /RTCsu /ZI
; File c:\users\arcco\documents\github\framework\client\private\swordtrail.cpp
;	COMDAT ?Reset@CSwordTrail@Client@@QEAAXXZ
_TEXT	SEGMENT
$T1 = 196
$T2 = 240
this$ = 304
?Reset@CSwordTrail@Client@@QEAAXXZ PROC			; Client::CSwordTrail::Reset, COMDAT

; 186  : {

$LN3:
  00000	48 89 4c 24 08	 mov	 QWORD PTR [rsp+8], rcx
  00005	55		 push	 rbp
  00006	56		 push	 rsi
  00007	57		 push	 rdi
  00008	48 81 ec 30 01
	00 00		 sub	 rsp, 304		; 00000130H
  0000f	48 8d 6c 24 20	 lea	 rbp, QWORD PTR [rsp+32]
  00014	48 8b fc	 mov	 rdi, rsp
  00017	b9 4c 00 00 00	 mov	 ecx, 76			; 0000004cH
  0001c	b8 cc cc cc cc	 mov	 eax, -858993460		; ccccccccH
  00021	f3 ab		 rep stosd
  00023	48 8b 8c 24 58
	01 00 00	 mov	 rcx, QWORD PTR [rsp+344]

; 187  : 	m_fTimeAcc = 0.f; 

  0002b	48 8b 85 30 01
	00 00		 mov	 rax, QWORD PTR this$[rbp]
  00032	0f 57 c0	 xorps	 xmm0, xmm0
  00035	f3 0f 11 80 20
	01 00 00	 movss	 DWORD PTR [rax+288], xmm0

; 188  : 	m_pHitTransform->Set_Scale(_float3(1.f, 1.f, 1.f));

  0003d	f3 0f 10 1d 00
	00 00 00	 movss	 xmm3, DWORD PTR __real@3f800000
  00045	f3 0f 10 15 00
	00 00 00	 movss	 xmm2, DWORD PTR __real@3f800000
  0004d	f3 0f 10 0d 00
	00 00 00	 movss	 xmm1, DWORD PTR __real@3f800000
  00055	48 8d 8d c4 00
	00 00		 lea	 rcx, QWORD PTR $T1[rbp]
  0005c	e8 00 00 00 00	 call	 ??0XMFLOAT3@DirectX@@QEAA@MMM@Z ; DirectX::XMFLOAT3::XMFLOAT3
  00061	48 8d 8d f0 00
	00 00		 lea	 rcx, QWORD PTR $T2[rbp]
  00068	48 8b f9	 mov	 rdi, rcx
  0006b	48 8b f0	 mov	 rsi, rax
  0006e	b9 0c 00 00 00	 mov	 ecx, 12
  00073	f3 a4		 rep movsb
  00075	48 8d 95 f0 00
	00 00		 lea	 rdx, QWORD PTR $T2[rbp]
  0007c	48 8b 85 30 01
	00 00		 mov	 rax, QWORD PTR this$[rbp]
  00083	48 8b 88 88 00
	00 00		 mov	 rcx, QWORD PTR [rax+136]
  0008a	ff 15 00 00 00
	00		 call	 QWORD PTR __imp_?Set_Scale@CTransform@Engine@@QEAAXUXMFLOAT3@DirectX@@@Z

; 189  : }

  00090	48 8d a5 10 01
	00 00		 lea	 rsp, QWORD PTR [rbp+272]
  00097	5f		 pop	 rdi
  00098	5e		 pop	 rsi
  00099	5d		 pop	 rbp
  0009a	c3		 ret	 0
?Reset@CSwordTrail@Client@@QEAAXXZ ENDP			; Client::CSwordTrail::Reset
_TEXT	ENDS
; Function compile flags: /Odtp /RTCsu /ZI
; File c:\users\arcco\documents\github\framework\client\private\swordtrail.cpp
;	COMDAT ?SetupShaderResources@CSwordTrail@Client@@AEAAJXZ
_TEXT	SEGMENT
pInstance$ = 8
$T1 = 228
$T2 = 324
$T3 = 420
this$ = 496
?SetupShaderResources@CSwordTrail@Client@@AEAAJXZ PROC	; Client::CSwordTrail::SetupShaderResources, COMDAT

; 160  : {

$LN9:
  00000	48 89 4c 24 08	 mov	 QWORD PTR [rsp+8], rcx
  00005	55		 push	 rbp
  00006	57		 push	 rdi
  00007	48 81 ec f8 01
	00 00		 sub	 rsp, 504		; 000001f8H
  0000e	48 8d 6c 24 20	 lea	 rbp, QWORD PTR [rsp+32]
  00013	48 8b fc	 mov	 rdi, rsp
  00016	b9 7e 00 00 00	 mov	 ecx, 126		; 0000007eH
  0001b	b8 cc cc cc cc	 mov	 eax, -858993460		; ccccccccH
  00020	f3 ab		 rep stosd
  00022	48 8b 8c 24 18
	02 00 00	 mov	 rcx, QWORD PTR [rsp+536]

; 161  : 	if (nullptr == m_pShader)

  0002a	48 8b 85 f0 01
	00 00		 mov	 rax, QWORD PTR this$[rbp]
  00031	48 83 b8 a0 00
	00 00 00	 cmp	 QWORD PTR [rax+160], 0
  00039	75 0a		 jne	 SHORT $LN2@SetupShade

; 162  : 		return E_FAIL;

  0003b	b8 05 40 00 80	 mov	 eax, -2147467259	; ffffffff80004005H
  00040	e9 3f 01 00 00	 jmp	 $LN1@SetupShade
$LN2@SetupShade:

; 163  : 
; 164  : 	CGameInstance* pInstance = CGameInstance::GetInstance();

  00045	ff 15 00 00 00
	00		 call	 QWORD PTR __imp_?GetInstance@CGameInstance@Engine@@SAPEAV12@XZ
  0004b	48 89 45 08	 mov	 QWORD PTR pInstance$[rbp], rax

; 165  : 
; 166  : 	if (FAILED(m_pTransform->Setup_ShaderResource(m_pShader, "g_WorldMatrix")))

  0004f	4c 8d 05 00 00
	00 00		 lea	 r8, OFFSET FLAT:??_C@_0O@PFNLPMLD@g_WorldMatrix?$AA@
  00056	48 8b 85 f0 01
	00 00		 mov	 rax, QWORD PTR this$[rbp]
  0005d	48 8b 90 a0 00
	00 00		 mov	 rdx, QWORD PTR [rax+160]
  00064	48 8b 85 f0 01
	00 00		 mov	 rax, QWORD PTR this$[rbp]
  0006b	48 8b 88 80 00
	00 00		 mov	 rcx, QWORD PTR [rax+128]
  00072	ff 15 00 00 00
	00		 call	 QWORD PTR __imp_?Setup_ShaderResource@CTransform@Engine@@QEAAJPEAVCShader@2@PEBD@Z
  00078	85 c0		 test	 eax, eax
  0007a	7d 0a		 jge	 SHORT $LN3@SetupShade

; 167  : 		return E_FAIL;

  0007c	b8 05 40 00 80	 mov	 eax, -2147467259	; ffffffff80004005H
  00081	e9 fe 00 00 00	 jmp	 $LN1@SetupShade
$LN3@SetupShade:

; 168  : 
; 169  : 	if (FAILED(m_pShader->SetMatrix("g_ViewMatrix", &pInstance->Get_Transform_float4x4(CPipeLine::TS_VIEW))))

  00086	45 33 c0	 xor	 r8d, r8d
  00089	48 8d 95 e4 00
	00 00		 lea	 rdx, QWORD PTR $T1[rbp]
  00090	48 8b 4d 08	 mov	 rcx, QWORD PTR pInstance$[rbp]
  00094	ff 15 00 00 00
	00		 call	 QWORD PTR __imp_?Get_Transform_float4x4@CGameInstance@Engine@@QEAA?AUXMFLOAT4X4@DirectX@@W4TRANSFORM_STATE@CPipeLine@2@@Z
  0009a	4c 8b c0	 mov	 r8, rax
  0009d	48 8d 15 00 00
	00 00		 lea	 rdx, OFFSET FLAT:??_C@_0N@ELIMCBLG@g_ViewMatrix?$AA@
  000a4	48 8b 85 f0 01
	00 00		 mov	 rax, QWORD PTR this$[rbp]
  000ab	48 8b 88 a0 00
	00 00		 mov	 rcx, QWORD PTR [rax+160]
  000b2	ff 15 00 00 00
	00		 call	 QWORD PTR __imp_?SetMatrix@CShader@Engine@@QEAAJPEBDPEBUXMFLOAT4X4@DirectX@@@Z
  000b8	85 c0		 test	 eax, eax
  000ba	7d 0a		 jge	 SHORT $LN4@SetupShade

; 170  : 		return E_FAIL;

  000bc	b8 05 40 00 80	 mov	 eax, -2147467259	; ffffffff80004005H
  000c1	e9 be 00 00 00	 jmp	 $LN1@SetupShade
$LN4@SetupShade:

; 171  : 
; 172  : 	if (FAILED(m_pShader->SetMatrix("g_ProjMatrix", &pInstance->Get_Transform_float4x4(CPipeLine::TS_PROJ))))

  000c6	41 b8 01 00 00
	00		 mov	 r8d, 1
  000cc	48 8d 95 44 01
	00 00		 lea	 rdx, QWORD PTR $T2[rbp]
  000d3	48 8b 4d 08	 mov	 rcx, QWORD PTR pInstance$[rbp]
  000d7	ff 15 00 00 00
	00		 call	 QWORD PTR __imp_?Get_Transform_float4x4@CGameInstance@Engine@@QEAA?AUXMFLOAT4X4@DirectX@@W4TRANSFORM_STATE@CPipeLine@2@@Z
  000dd	4c 8b c0	 mov	 r8, rax
  000e0	48 8d 15 00 00
	00 00		 lea	 rdx, OFFSET FLAT:??_C@_0N@OOHDPIO@g_ProjMatrix?$AA@
  000e7	48 8b 85 f0 01
	00 00		 mov	 rax, QWORD PTR this$[rbp]
  000ee	48 8b 88 a0 00
	00 00		 mov	 rcx, QWORD PTR [rax+160]
  000f5	ff 15 00 00 00
	00		 call	 QWORD PTR __imp_?SetMatrix@CShader@Engine@@QEAAJPEBDPEBUXMFLOAT4X4@DirectX@@@Z
  000fb	85 c0		 test	 eax, eax
  000fd	7d 07		 jge	 SHORT $LN5@SetupShade

; 173  : 		return E_FAIL;

  000ff	b8 05 40 00 80	 mov	 eax, -2147467259	; ffffffff80004005H
  00104	eb 7e		 jmp	 SHORT $LN1@SetupShade
$LN5@SetupShade:

; 174  : 
; 175  : 	if (FAILED(m_pShader->SetRawValue("g_vCamPosition", &pInstance->Get_CamPosition(), sizeof(_float3))))

  00106	48 8d 95 a4 01
	00 00		 lea	 rdx, QWORD PTR $T3[rbp]
  0010d	48 8b 4d 08	 mov	 rcx, QWORD PTR pInstance$[rbp]
  00111	ff 15 00 00 00
	00		 call	 QWORD PTR __imp_?Get_CamPosition@CGameInstance@Engine@@QEAA?AUXMFLOAT4@DirectX@@XZ
  00117	41 b9 0c 00 00
	00		 mov	 r9d, 12
  0011d	4c 8b c0	 mov	 r8, rax
  00120	48 8d 15 00 00
	00 00		 lea	 rdx, OFFSET FLAT:??_C@_0P@BDEIJKBM@g_vCamPosition?$AA@
  00127	48 8b 85 f0 01
	00 00		 mov	 rax, QWORD PTR this$[rbp]
  0012e	48 8b 88 a0 00
	00 00		 mov	 rcx, QWORD PTR [rax+160]
  00135	ff 15 00 00 00
	00		 call	 QWORD PTR __imp_?SetRawValue@CShader@Engine@@QEAAJPEBDPEBXI@Z
  0013b	85 c0		 test	 eax, eax
  0013d	7d 07		 jge	 SHORT $LN6@SetupShade

; 176  : 		return E_FAIL;

  0013f	b8 05 40 00 80	 mov	 eax, -2147467259	; ffffffff80004005H
  00144	eb 3e		 jmp	 SHORT $LN1@SetupShade
$LN6@SetupShade:

; 177  : 
; 178  : 	if (FAILED(m_pShader->SetRawValue("g_fTimeAcc", &m_fTimeAcc, sizeof(_float))))

  00146	48 8b 85 f0 01
	00 00		 mov	 rax, QWORD PTR this$[rbp]
  0014d	48 05 20 01 00
	00		 add	 rax, 288		; 00000120H
  00153	41 b9 04 00 00
	00		 mov	 r9d, 4
  00159	4c 8b c0	 mov	 r8, rax
  0015c	48 8d 15 00 00
	00 00		 lea	 rdx, OFFSET FLAT:??_C@_0L@IHOCIKLF@g_fTimeAcc?$AA@
  00163	48 8b 85 f0 01
	00 00		 mov	 rax, QWORD PTR this$[rbp]
  0016a	48 8b 88 a0 00
	00 00		 mov	 rcx, QWORD PTR [rax+160]
  00171	ff 15 00 00 00
	00		 call	 QWORD PTR __imp_?SetRawValue@CShader@Engine@@QEAAJPEBDPEBXI@Z
  00177	85 c0		 test	 eax, eax
  00179	7d 07		 jge	 SHORT $LN7@SetupShade

; 179  : 		return E_FAIL;

  0017b	b8 05 40 00 80	 mov	 eax, -2147467259	; ffffffff80004005H
  00180	eb 02		 jmp	 SHORT $LN1@SetupShade
$LN7@SetupShade:

; 180  : 
; 181  : 	return S_OK;

  00182	33 c0		 xor	 eax, eax
$LN1@SetupShade:

; 182  : 
; 183  : }

  00184	48 8d a5 d8 01
	00 00		 lea	 rsp, QWORD PTR [rbp+472]
  0018b	5f		 pop	 rdi
  0018c	5d		 pop	 rbp
  0018d	c3		 ret	 0
?SetupShaderResources@CSwordTrail@Client@@AEAAJXZ ENDP	; Client::CSwordTrail::SetupShaderResources
_TEXT	ENDS
; Function compile flags: /Odtp /RTCsu /ZI
; File c:\users\arcco\documents\github\framework\client\private\swordtrail.cpp
;	COMDAT ?AddComponents@CSwordTrail@Client@@AEAAJXZ
_TEXT	SEGMENT
this$ = 224
?AddComponents@CSwordTrail@Client@@AEAAJXZ PROC		; Client::CSwordTrail::AddComponents, COMDAT

; 130  : {

$LN11:
  00000	48 89 4c 24 08	 mov	 QWORD PTR [rsp+8], rcx
  00005	55		 push	 rbp
  00006	57		 push	 rdi
  00007	48 81 ec f8 00
	00 00		 sub	 rsp, 248		; 000000f8H
  0000e	48 8d 6c 24 30	 lea	 rbp, QWORD PTR [rsp+48]
  00013	48 8b fc	 mov	 rdi, rsp
  00016	b9 3e 00 00 00	 mov	 ecx, 62			; 0000003eH
  0001b	b8 cc cc cc cc	 mov	 eax, -858993460		; ccccccccH
  00020	f3 ab		 rep stosd
  00022	48 8b 8c 24 18
	01 00 00	 mov	 rcx, QWORD PTR [rsp+280]

; 131  : 	if (FAILED(CGameObject::Add_Component(LEVEL_STATIC, TEXT("proto_com_renderer"), TEXT("com_renderer"), (CComponent**)&m_pRenderer)))

  0002a	48 8b 85 e0 00
	00 00		 mov	 rax, QWORD PTR this$[rbp]
  00031	48 83 c0 78	 add	 rax, 120		; 00000078H
  00035	48 c7 44 24 28
	00 00 00 00	 mov	 QWORD PTR [rsp+40], 0
  0003e	48 89 44 24 20	 mov	 QWORD PTR [rsp+32], rax
  00043	4c 8d 0d 00 00
	00 00		 lea	 r9, OFFSET FLAT:??_C@_1BK@GIOMOCNE@?$AAc?$AAo?$AAm?$AA_?$AAr?$AAe?$AAn?$AAd?$AAe?$AAr?$AAe?$AAr?$AA?$AA@
  0004a	4c 8d 05 00 00
	00 00		 lea	 r8, OFFSET FLAT:??_C@_1CG@COFFFCLL@?$AAp?$AAr?$AAo?$AAt?$AAo?$AA_?$AAc?$AAo?$AAm?$AA_?$AAr?$AAe?$AAn?$AAd?$AAe?$AAr?$AAe?$AAr?$AA?$AA@
  00051	33 d2		 xor	 edx, edx
  00053	48 8b 8d e0 00
	00 00		 mov	 rcx, QWORD PTR this$[rbp]
  0005a	ff 15 00 00 00
	00		 call	 QWORD PTR __imp_?Add_Component@CGameObject@Engine@@IEAAJIPEB_W0PEAPEAVCComponent@2@PEAX@Z
  00060	85 c0		 test	 eax, eax
  00062	7d 0a		 jge	 SHORT $LN2@AddCompone

; 132  : 		return E_FAIL;

  00064	b8 05 40 00 80	 mov	 eax, -2147467259	; ffffffff80004005H
  00069	e9 e6 01 00 00	 jmp	 $LN1@AddCompone
$LN2@AddCompone:

; 133  : 
; 134  : 	if (FAILED(CGameObject::Add_Component(LEVEL_STATIC, TEXT("proto_com_transform"), TEXT("com_transform"), (CComponent**)&m_pTransform)))

  0006e	48 8b 85 e0 00
	00 00		 mov	 rax, QWORD PTR this$[rbp]
  00075	48 05 80 00 00
	00		 add	 rax, 128		; 00000080H
  0007b	48 c7 44 24 28
	00 00 00 00	 mov	 QWORD PTR [rsp+40], 0
  00084	48 89 44 24 20	 mov	 QWORD PTR [rsp+32], rax
  00089	4c 8d 0d 00 00
	00 00		 lea	 r9, OFFSET FLAT:??_C@_1BM@CJMPMHDD@?$AAc?$AAo?$AAm?$AA_?$AAt?$AAr?$AAa?$AAn?$AAs?$AAf?$AAo?$AAr?$AAm?$AA?$AA@
  00090	4c 8d 05 00 00
	00 00		 lea	 r8, OFFSET FLAT:??_C@_1CI@MLEFGO@?$AAp?$AAr?$AAo?$AAt?$AAo?$AA_?$AAc?$AAo?$AAm?$AA_?$AAt?$AAr?$AAa?$AAn?$AAs?$AAf?$AAo?$AAr?$AAm?$AA?$AA@
  00097	33 d2		 xor	 edx, edx
  00099	48 8b 8d e0 00
	00 00		 mov	 rcx, QWORD PTR this$[rbp]
  000a0	ff 15 00 00 00
	00		 call	 QWORD PTR __imp_?Add_Component@CGameObject@Engine@@IEAAJIPEB_W0PEAPEAVCComponent@2@PEAX@Z
  000a6	85 c0		 test	 eax, eax
  000a8	7d 0a		 jge	 SHORT $LN3@AddCompone

; 135  : 		return E_FAIL;

  000aa	b8 05 40 00 80	 mov	 eax, -2147467259	; ffffffff80004005H
  000af	e9 a0 01 00 00	 jmp	 $LN1@AddCompone
$LN3@AddCompone:

; 136  : 
; 137  : 	if (FAILED(CGameObject::Add_Component(LEVEL_STATIC, TEXT("proto_com_transform"), TEXT("com_transform_hit"), (CComponent**)&m_pHitTransform)))

  000b4	48 8b 85 e0 00
	00 00		 mov	 rax, QWORD PTR this$[rbp]
  000bb	48 05 88 00 00
	00		 add	 rax, 136		; 00000088H
  000c1	48 c7 44 24 28
	00 00 00 00	 mov	 QWORD PTR [rsp+40], 0
  000ca	48 89 44 24 20	 mov	 QWORD PTR [rsp+32], rax
  000cf	4c 8d 0d 00 00
	00 00		 lea	 r9, OFFSET FLAT:??_C@_1CE@KOCABLBN@?$AAc?$AAo?$AAm?$AA_?$AAt?$AAr?$AAa?$AAn?$AAs?$AAf?$AAo?$AAr?$AAm?$AA_?$AAh?$AAi?$AAt?$AA?$AA@
  000d6	4c 8d 05 00 00
	00 00		 lea	 r8, OFFSET FLAT:??_C@_1CI@MLEFGO@?$AAp?$AAr?$AAo?$AAt?$AAo?$AA_?$AAc?$AAo?$AAm?$AA_?$AAt?$AAr?$AAa?$AAn?$AAs?$AAf?$AAo?$AAr?$AAm?$AA?$AA@
  000dd	33 d2		 xor	 edx, edx
  000df	48 8b 8d e0 00
	00 00		 mov	 rcx, QWORD PTR this$[rbp]
  000e6	ff 15 00 00 00
	00		 call	 QWORD PTR __imp_?Add_Component@CGameObject@Engine@@IEAAJIPEB_W0PEAPEAVCComponent@2@PEAX@Z
  000ec	85 c0		 test	 eax, eax
  000ee	7d 0a		 jge	 SHORT $LN4@AddCompone

; 138  : 		return E_FAIL;

  000f0	b8 05 40 00 80	 mov	 eax, -2147467259	; ffffffff80004005H
  000f5	e9 5a 01 00 00	 jmp	 $LN1@AddCompone
$LN4@AddCompone:

; 139  : 
; 140  : 	if (FAILED(CGameObject::Add_Component(LEVEL_STATIC, TEXT("proto_com_shader_swordtrail"), TEXT("com_shader"), (CComponent**)&m_pShader)))

  000fa	48 8b 85 e0 00
	00 00		 mov	 rax, QWORD PTR this$[rbp]
  00101	48 05 a0 00 00
	00		 add	 rax, 160		; 000000a0H
  00107	48 c7 44 24 28
	00 00 00 00	 mov	 QWORD PTR [rsp+40], 0
  00110	48 89 44 24 20	 mov	 QWORD PTR [rsp+32], rax
  00115	4c 8d 0d 00 00
	00 00		 lea	 r9, OFFSET FLAT:??_C@_1BG@GGOMMBBL@?$AAc?$AAo?$AAm?$AA_?$AAs?$AAh?$AAa?$AAd?$AAe?$AAr?$AA?$AA@
  0011c	4c 8d 05 00 00
	00 00		 lea	 r8, OFFSET FLAT:??_C@_1DI@BGEBANJE@?$AAp?$AAr?$AAo?$AAt?$AAo?$AA_?$AAc?$AAo?$AAm?$AA_?$AAs?$AAh?$AAa?$AAd?$AAe?$AAr?$AA_?$AAs?$AAw?$AAo?$AAr?$AAd?$AAt?$AAr?$AAa?$AAi?$AAl?$AA?$AA@
  00123	33 d2		 xor	 edx, edx
  00125	48 8b 8d e0 00
	00 00		 mov	 rcx, QWORD PTR this$[rbp]
  0012c	ff 15 00 00 00
	00		 call	 QWORD PTR __imp_?Add_Component@CGameObject@Engine@@IEAAJIPEB_W0PEAPEAVCComponent@2@PEAX@Z
  00132	85 c0		 test	 eax, eax
  00134	7d 0a		 jge	 SHORT $LN5@AddCompone

; 141  : 		return E_FAIL;

  00136	b8 05 40 00 80	 mov	 eax, -2147467259	; ffffffff80004005H
  0013b	e9 14 01 00 00	 jmp	 $LN1@AddCompone
$LN5@AddCompone:

; 142  : 
; 143  : 	if (FAILED(CGameObject::Add_Component(LEVEL_STATIC, TEXT("proto_com_model_sword_trail"), TEXT("com_model"), (CComponent**)&m_pModel)))

  00140	48 8b 85 e0 00
	00 00		 mov	 rax, QWORD PTR this$[rbp]
  00147	48 05 90 00 00
	00		 add	 rax, 144		; 00000090H
  0014d	48 c7 44 24 28
	00 00 00 00	 mov	 QWORD PTR [rsp+40], 0
  00156	48 89 44 24 20	 mov	 QWORD PTR [rsp+32], rax
  0015b	4c 8d 0d 00 00
	00 00		 lea	 r9, OFFSET FLAT:??_C@_1BE@MLNOEPCA@?$AAc?$AAo?$AAm?$AA_?$AAm?$AAo?$AAd?$AAe?$AAl?$AA?$AA@
  00162	4c 8d 05 00 00
	00 00		 lea	 r8, OFFSET FLAT:??_C@_1DI@POIBNDHN@?$AAp?$AAr?$AAo?$AAt?$AAo?$AA_?$AAc?$AAo?$AAm?$AA_?$AAm?$AAo?$AAd?$AAe?$AAl?$AA_?$AAs?$AAw?$AAo?$AAr?$AAd?$AA_?$AAt?$AAr?$AAa?$AAi?$AAl?$AA?$AA@
  00169	33 d2		 xor	 edx, edx
  0016b	48 8b 8d e0 00
	00 00		 mov	 rcx, QWORD PTR this$[rbp]
  00172	ff 15 00 00 00
	00		 call	 QWORD PTR __imp_?Add_Component@CGameObject@Engine@@IEAAJIPEB_W0PEAPEAVCComponent@2@PEAX@Z
  00178	85 c0		 test	 eax, eax
  0017a	7d 0a		 jge	 SHORT $LN6@AddCompone

; 144  : 		return E_FAIL;

  0017c	b8 05 40 00 80	 mov	 eax, -2147467259	; ffffffff80004005H
  00181	e9 ce 00 00 00	 jmp	 $LN1@AddCompone
$LN6@AddCompone:

; 145  : 
; 146  : 	if (FAILED(CGameObject::Add_Component(LEVEL_STATIC, TEXT("proto_com_model_sword_trail2"), TEXT("com_model2"), (CComponent**)&m_pModel2)))

  00186	48 8b 85 e0 00
	00 00		 mov	 rax, QWORD PTR this$[rbp]
  0018d	48 05 98 00 00
	00		 add	 rax, 152		; 00000098H
  00193	48 c7 44 24 28
	00 00 00 00	 mov	 QWORD PTR [rsp+40], 0
  0019c	48 89 44 24 20	 mov	 QWORD PTR [rsp+32], rax
  001a1	4c 8d 0d 00 00
	00 00		 lea	 r9, OFFSET FLAT:??_C@_1BG@CJMFIDFH@?$AAc?$AAo?$AAm?$AA_?$AAm?$AAo?$AAd?$AAe?$AAl?$AA2?$AA?$AA@
  001a8	4c 8d 05 00 00
	00 00		 lea	 r8, OFFSET FLAT:??_C@_1DK@NPGJEKHO@?$AAp?$AAr?$AAo?$AAt?$AAo?$AA_?$AAc?$AAo?$AAm?$AA_?$AAm?$AAo?$AAd?$AAe?$AAl?$AA_?$AAs?$AAw?$AAo?$AAr?$AAd?$AA_?$AAt?$AAr?$AAa?$AAi?$AAl?$AA2?$AA?$AA@
  001af	33 d2		 xor	 edx, edx
  001b1	48 8b 8d e0 00
	00 00		 mov	 rcx, QWORD PTR this$[rbp]
  001b8	ff 15 00 00 00
	00		 call	 QWORD PTR __imp_?Add_Component@CGameObject@Engine@@IEAAJIPEB_W0PEAPEAVCComponent@2@PEAX@Z
  001be	85 c0		 test	 eax, eax
  001c0	7d 0a		 jge	 SHORT $LN7@AddCompone

; 147  : 		return E_FAIL;

  001c2	b8 05 40 00 80	 mov	 eax, -2147467259	; ffffffff80004005H
  001c7	e9 88 00 00 00	 jmp	 $LN1@AddCompone
$LN7@AddCompone:

; 148  : 
; 149  : 	if (FAILED(CGameObject::Add_Component(LEVEL_STATIC, TEXT("proto_com_texture_sword_mask1"), TEXT("com_diffuse_texture"), (CComponent**)&m_pDiffuse)))

  001cc	48 8b 85 e0 00
	00 00		 mov	 rax, QWORD PTR this$[rbp]
  001d3	48 05 a8 00 00
	00		 add	 rax, 168		; 000000a8H
  001d9	48 c7 44 24 28
	00 00 00 00	 mov	 QWORD PTR [rsp+40], 0
  001e2	48 89 44 24 20	 mov	 QWORD PTR [rsp+32], rax
  001e7	4c 8d 0d 00 00
	00 00		 lea	 r9, OFFSET FLAT:??_C@_1CI@OHFOAEBJ@?$AAc?$AAo?$AAm?$AA_?$AAd?$AAi?$AAf?$AAf?$AAu?$AAs?$AAe?$AA_?$AAt?$AAe?$AAx?$AAt?$AAu?$AAr?$AAe?$AA?$AA@
  001ee	4c 8d 05 00 00
	00 00		 lea	 r8, OFFSET FLAT:??_C@_1DM@FJLLPLLI@?$AAp?$AAr?$AAo?$AAt?$AAo?$AA_?$AAc?$AAo?$AAm?$AA_?$AAt?$AAe?$AAx?$AAt?$AAu?$AAr?$AAe?$AA_?$AAs?$AAw?$AAo?$AAr?$AAd?$AA_?$AAm?$AAa?$AAs?$AAk?$AA1?$AA?$AA@
  001f5	33 d2		 xor	 edx, edx
  001f7	48 8b 8d e0 00
	00 00		 mov	 rcx, QWORD PTR this$[rbp]
  001fe	ff 15 00 00 00
	00		 call	 QWORD PTR __imp_?Add_Component@CGameObject@Engine@@IEAAJIPEB_W0PEAPEAVCComponent@2@PEAX@Z
  00204	85 c0		 test	 eax, eax
  00206	7d 07		 jge	 SHORT $LN8@AddCompone

; 150  : 		return E_FAIL;

  00208	b8 05 40 00 80	 mov	 eax, -2147467259	; ffffffff80004005H
  0020d	eb 45		 jmp	 SHORT $LN1@AddCompone
$LN8@AddCompone:

; 151  : 
; 152  : 	if (FAILED(CGameObject::Add_Component(LEVEL_STATIC, TEXT("proto_com_texture_sword_mask2"), TEXT("com_mask_texture"), (CComponent**)&m_pMask)))

  0020f	48 8b 85 e0 00
	00 00		 mov	 rax, QWORD PTR this$[rbp]
  00216	48 05 b0 00 00
	00		 add	 rax, 176		; 000000b0H
  0021c	48 c7 44 24 28
	00 00 00 00	 mov	 QWORD PTR [rsp+40], 0
  00225	48 89 44 24 20	 mov	 QWORD PTR [rsp+32], rax
  0022a	4c 8d 0d 00 00
	00 00		 lea	 r9, OFFSET FLAT:??_C@_1CC@DOHGOBHP@?$AAc?$AAo?$AAm?$AA_?$AAm?$AAa?$AAs?$AAk?$AA_?$AAt?$AAe?$AAx?$AAt?$AAu?$AAr?$AAe?$AA?$AA@
  00231	4c 8d 05 00 00
	00 00		 lea	 r8, OFFSET FLAT:??_C@_1DM@ELAOFEFG@?$AAp?$AAr?$AAo?$AAt?$AAo?$AA_?$AAc?$AAo?$AAm?$AA_?$AAt?$AAe?$AAx?$AAt?$AAu?$AAr?$AAe?$AA_?$AAs?$AAw?$AAo?$AAr?$AAd?$AA_?$AAm?$AAa?$AAs?$AAk?$AA2?$AA?$AA@
  00238	33 d2		 xor	 edx, edx
  0023a	48 8b 8d e0 00
	00 00		 mov	 rcx, QWORD PTR this$[rbp]
  00241	ff 15 00 00 00
	00		 call	 QWORD PTR __imp_?Add_Component@CGameObject@Engine@@IEAAJIPEB_W0PEAPEAVCComponent@2@PEAX@Z
  00247	85 c0		 test	 eax, eax
  00249	7d 07		 jge	 SHORT $LN9@AddCompone

; 153  : 		return E_FAIL;

  0024b	b8 05 40 00 80	 mov	 eax, -2147467259	; ffffffff80004005H
  00250	eb 02		 jmp	 SHORT $LN1@AddCompone
$LN9@AddCompone:

; 154  : 
; 155  : 
; 156  : 	return S_OK;

  00252	33 c0		 xor	 eax, eax
$LN1@AddCompone:

; 157  : }

  00254	48 8d a5 c8 00
	00 00		 lea	 rsp, QWORD PTR [rbp+200]
  0025b	5f		 pop	 rdi
  0025c	5d		 pop	 rbp
  0025d	c3		 ret	 0
?AddComponents@CSwordTrail@Client@@AEAAJXZ ENDP		; Client::CSwordTrail::AddComponents
_TEXT	ENDS
; Function compile flags: /Odtp /RTCsu /ZI
; File c:\users\arcco\documents\github\framework\client\private\swordtrail.cpp
;	COMDAT ?RenderGUI@CSwordTrail@Client@@UEAAXXZ
_TEXT	SEGMENT
this$ = 224
?RenderGUI@CSwordTrail@Client@@UEAAXXZ PROC		; Client::CSwordTrail::RenderGUI, COMDAT

; 126  : {

$LN3:
  00000	48 89 4c 24 08	 mov	 QWORD PTR [rsp+8], rcx
  00005	55		 push	 rbp
  00006	57		 push	 rdi
  00007	48 81 ec c8 00
	00 00		 sub	 rsp, 200		; 000000c8H
  0000e	48 8b ec	 mov	 rbp, rsp
  00011	48 8b fc	 mov	 rdi, rsp
  00014	b9 32 00 00 00	 mov	 ecx, 50			; 00000032H
  00019	b8 cc cc cc cc	 mov	 eax, -858993460		; ccccccccH
  0001e	f3 ab		 rep stosd
  00020	48 8b 8c 24 e8
	00 00 00	 mov	 rcx, QWORD PTR [rsp+232]

; 127  : }

  00028	48 8d a5 c8 00
	00 00		 lea	 rsp, QWORD PTR [rbp+200]
  0002f	5f		 pop	 rdi
  00030	5d		 pop	 rbp
  00031	c3		 ret	 0
?RenderGUI@CSwordTrail@Client@@UEAAXXZ ENDP		; Client::CSwordTrail::RenderGUI
_TEXT	ENDS
; Function compile flags: /Odtp /RTCsu /ZI
; File c:\users\arcco\documents\github\framework\client\private\swordtrail.cpp
;	COMDAT ?Render@CSwordTrail@Client@@UEAAJXZ
_TEXT	SEGMENT
MeshCount$1 = 4
i$2 = 36
MeshCount$ = 68
i$3 = 100
this$ = 352
?Render@CSwordTrail@Client@@UEAAJXZ PROC		; Client::CSwordTrail::Render, COMDAT

; 79   : {

$LN18:
  00000	48 89 4c 24 08	 mov	 QWORD PTR [rsp+8], rcx
  00005	55		 push	 rbp
  00006	57		 push	 rdi
  00007	48 81 ec 68 01
	00 00		 sub	 rsp, 360		; 00000168H
  0000e	48 8d 6c 24 20	 lea	 rbp, QWORD PTR [rsp+32]
  00013	48 8b fc	 mov	 rdi, rsp
  00016	b9 5a 00 00 00	 mov	 ecx, 90			; 0000005aH
  0001b	b8 cc cc cc cc	 mov	 eax, -858993460		; ccccccccH
  00020	f3 ab		 rep stosd
  00022	48 8b 8c 24 88
	01 00 00	 mov	 rcx, QWORD PTR [rsp+392]

; 80   : 	if (!m_bUse)

  0002a	48 8b 85 60 01
	00 00		 mov	 rax, QWORD PTR this$[rbp]
  00031	0f b6 80 c8 00
	00 00		 movzx	 eax, BYTE PTR [rax+200]
  00038	85 c0		 test	 eax, eax
  0003a	75 0a		 jne	 SHORT $LN8@Render

; 81   : 		return E_FAIL;

  0003c	b8 05 40 00 80	 mov	 eax, -2147467259	; ffffffff80004005H
  00041	e9 35 02 00 00	 jmp	 $LN1@Render
$LN8@Render:

; 82   : 
; 83   : 	if (FAILED(__super::Render()))

  00046	48 8b 8d 60 01
	00 00		 mov	 rcx, QWORD PTR this$[rbp]
  0004d	ff 15 00 00 00
	00		 call	 QWORD PTR __imp_?Render@CGameObject@Engine@@UEAAJXZ
  00053	85 c0		 test	 eax, eax
  00055	7d 0a		 jge	 SHORT $LN9@Render

; 84   : 		return E_FAIL;

  00057	b8 05 40 00 80	 mov	 eax, -2147467259	; ffffffff80004005H
  0005c	e9 1a 02 00 00	 jmp	 $LN1@Render
$LN9@Render:

; 85   : 
; 86   : 	if (FAILED(SetupShaderResources()))

  00061	48 8b 8d 60 01
	00 00		 mov	 rcx, QWORD PTR this$[rbp]
  00068	e8 00 00 00 00	 call	 ?SetupShaderResources@CSwordTrail@Client@@AEAAJXZ ; Client::CSwordTrail::SetupShaderResources
  0006d	85 c0		 test	 eax, eax
  0006f	7d 0a		 jge	 SHORT $LN10@Render

; 87   : 		return E_FAIL;

  00071	b8 05 40 00 80	 mov	 eax, -2147467259	; ffffffff80004005H
  00076	e9 00 02 00 00	 jmp	 $LN1@Render
$LN10@Render:

; 88   : 
; 89   : 	if (m_bHit)

  0007b	48 8b 85 60 01
	00 00		 mov	 rax, QWORD PTR this$[rbp]
  00082	0f b6 80 c9 00
	00 00		 movzx	 eax, BYTE PTR [rax+201]
  00089	85 c0		 test	 eax, eax
  0008b	0f 84 14 01 00
	00		 je	 $LN11@Render

; 90   : 	{
; 91   : 		if (FAILED(m_pHitTransform->Setup_ShaderResource(m_pShader, "g_WorldMatrix")))

  00091	4c 8d 05 00 00
	00 00		 lea	 r8, OFFSET FLAT:??_C@_0O@PFNLPMLD@g_WorldMatrix?$AA@
  00098	48 8b 85 60 01
	00 00		 mov	 rax, QWORD PTR this$[rbp]
  0009f	48 8b 90 a0 00
	00 00		 mov	 rdx, QWORD PTR [rax+160]
  000a6	48 8b 85 60 01
	00 00		 mov	 rax, QWORD PTR this$[rbp]
  000ad	48 8b 88 88 00
	00 00		 mov	 rcx, QWORD PTR [rax+136]
  000b4	ff 15 00 00 00
	00		 call	 QWORD PTR __imp_?Setup_ShaderResource@CTransform@Engine@@QEAAJPEAVCShader@2@PEBD@Z
  000ba	85 c0		 test	 eax, eax
  000bc	7d 0a		 jge	 SHORT $LN12@Render

; 92   : 			return E_FAIL;

  000be	b8 05 40 00 80	 mov	 eax, -2147467259	; ffffffff80004005H
  000c3	e9 b3 01 00 00	 jmp	 $LN1@Render
$LN12@Render:

; 93   : 
; 94   : 		_uint MeshCount = m_pModel2->Get_MeshCount();

  000c8	48 8b 85 60 01
	00 00		 mov	 rax, QWORD PTR this$[rbp]
  000cf	48 8b 88 98 00
	00 00		 mov	 rcx, QWORD PTR [rax+152]
  000d6	ff 15 00 00 00
	00		 call	 QWORD PTR __imp_?Get_MeshCount@CModel@Engine@@QEAAIXZ
  000dc	89 45 04	 mov	 DWORD PTR MeshCount$1[rbp], eax

; 95   : 		for (_uint i = 0; i < MeshCount; ++i)

  000df	c7 45 24 00 00
	00 00		 mov	 DWORD PTR i$2[rbp], 0
  000e6	eb 08		 jmp	 SHORT $LN4@Render
$LN2@Render:
  000e8	8b 45 24	 mov	 eax, DWORD PTR i$2[rbp]
  000eb	ff c0		 inc	 eax
  000ed	89 45 24	 mov	 DWORD PTR i$2[rbp], eax
$LN4@Render:
  000f0	8b 45 04	 mov	 eax, DWORD PTR MeshCount$1[rbp]
  000f3	39 45 24	 cmp	 DWORD PTR i$2[rbp], eax
  000f6	0f 83 a9 00 00
	00		 jae	 $LN3@Render

; 96   : 		{
; 97   : 			if (FAILED(m_pDiffuse->Setup_ShaderResource(m_pShader, "g_DiffuseTexture")))

  000fc	45 33 c9	 xor	 r9d, r9d
  000ff	4c 8d 05 00 00
	00 00		 lea	 r8, OFFSET FLAT:??_C@_0BB@FMIBAICL@g_DiffuseTexture?$AA@
  00106	48 8b 85 60 01
	00 00		 mov	 rax, QWORD PTR this$[rbp]
  0010d	48 8b 90 a0 00
	00 00		 mov	 rdx, QWORD PTR [rax+160]
  00114	48 8b 85 60 01
	00 00		 mov	 rax, QWORD PTR this$[rbp]
  0011b	48 8b 88 a8 00
	00 00		 mov	 rcx, QWORD PTR [rax+168]
  00122	ff 15 00 00 00
	00		 call	 QWORD PTR __imp_?Setup_ShaderResource@CTexture@Engine@@QEAAJPEAVCShader@2@PEBDI@Z
  00128	85 c0		 test	 eax, eax
  0012a	7d 0a		 jge	 SHORT $LN13@Render

; 98   : 				return E_FAIL;

  0012c	b8 05 40 00 80	 mov	 eax, -2147467259	; ffffffff80004005H
  00131	e9 45 01 00 00	 jmp	 $LN1@Render
$LN13@Render:

; 99   : 
; 100  : 			if (FAILED(m_pDiffuse->Setup_ShaderResource(m_pShader, "g_MaskTexture")))

  00136	45 33 c9	 xor	 r9d, r9d
  00139	4c 8d 05 00 00
	00 00		 lea	 r8, OFFSET FLAT:??_C@_0O@OFKPLLDO@g_MaskTexture?$AA@
  00140	48 8b 85 60 01
	00 00		 mov	 rax, QWORD PTR this$[rbp]
  00147	48 8b 90 a0 00
	00 00		 mov	 rdx, QWORD PTR [rax+160]
  0014e	48 8b 85 60 01
	00 00		 mov	 rax, QWORD PTR this$[rbp]
  00155	48 8b 88 a8 00
	00 00		 mov	 rcx, QWORD PTR [rax+168]
  0015c	ff 15 00 00 00
	00		 call	 QWORD PTR __imp_?Setup_ShaderResource@CTexture@Engine@@QEAAJPEAVCShader@2@PEBDI@Z
  00162	85 c0		 test	 eax, eax
  00164	7d 0a		 jge	 SHORT $LN14@Render

; 101  : 				return E_FAIL;

  00166	b8 05 40 00 80	 mov	 eax, -2147467259	; ffffffff80004005H
  0016b	e9 0b 01 00 00	 jmp	 $LN1@Render
$LN14@Render:

; 102  : 
; 103  : 			m_pShader->Begin(1);

  00170	ba 01 00 00 00	 mov	 edx, 1
  00175	48 8b 85 60 01
	00 00		 mov	 rax, QWORD PTR this$[rbp]
  0017c	48 8b 88 a0 00
	00 00		 mov	 rcx, QWORD PTR [rax+160]
  00183	ff 15 00 00 00
	00		 call	 QWORD PTR __imp_?Begin@CShader@Engine@@QEAAJI@Z

; 104  : 			m_pModel2->Render(i);

  00189	8b 55 24	 mov	 edx, DWORD PTR i$2[rbp]
  0018c	48 8b 85 60 01
	00 00		 mov	 rax, QWORD PTR this$[rbp]
  00193	48 8b 88 98 00
	00 00		 mov	 rcx, QWORD PTR [rax+152]
  0019a	ff 15 00 00 00
	00		 call	 QWORD PTR __imp_?Render@CModel@Engine@@QEAAJI@Z

; 105  : 		}

  001a0	e9 43 ff ff ff	 jmp	 $LN2@Render
$LN3@Render:
$LN11@Render:

; 106  : 	}
; 107  : 
; 108  : 	_uint MeshCount = m_pModel->Get_MeshCount();

  001a5	48 8b 85 60 01
	00 00		 mov	 rax, QWORD PTR this$[rbp]
  001ac	48 8b 88 90 00
	00 00		 mov	 rcx, QWORD PTR [rax+144]
  001b3	ff 15 00 00 00
	00		 call	 QWORD PTR __imp_?Get_MeshCount@CModel@Engine@@QEAAIXZ
  001b9	89 45 44	 mov	 DWORD PTR MeshCount$[rbp], eax

; 109  : 	for (_uint i = 0; i < MeshCount; ++i)

  001bc	c7 45 64 00 00
	00 00		 mov	 DWORD PTR i$3[rbp], 0
  001c3	eb 08		 jmp	 SHORT $LN7@Render
$LN5@Render:
  001c5	8b 45 64	 mov	 eax, DWORD PTR i$3[rbp]
  001c8	ff c0		 inc	 eax
  001ca	89 45 64	 mov	 DWORD PTR i$3[rbp], eax
$LN7@Render:
  001cd	8b 45 44	 mov	 eax, DWORD PTR MeshCount$[rbp]
  001d0	39 45 64	 cmp	 DWORD PTR i$3[rbp], eax
  001d3	0f 83 a0 00 00
	00		 jae	 $LN6@Render

; 110  : 	{
; 111  : 		//m_pModel->Setup_ShaderMaterialResource(m_pShader, "g_DiffuseTexture", i, aiTextureType::aiTextureType_DIFFUSE);
; 112  : 		if (FAILED(m_pDiffuse->Setup_ShaderResource(m_pShader, "g_DiffuseTexture")))

  001d9	45 33 c9	 xor	 r9d, r9d
  001dc	4c 8d 05 00 00
	00 00		 lea	 r8, OFFSET FLAT:??_C@_0BB@FMIBAICL@g_DiffuseTexture?$AA@
  001e3	48 8b 85 60 01
	00 00		 mov	 rax, QWORD PTR this$[rbp]
  001ea	48 8b 90 a0 00
	00 00		 mov	 rdx, QWORD PTR [rax+160]
  001f1	48 8b 85 60 01
	00 00		 mov	 rax, QWORD PTR this$[rbp]
  001f8	48 8b 88 a8 00
	00 00		 mov	 rcx, QWORD PTR [rax+168]
  001ff	ff 15 00 00 00
	00		 call	 QWORD PTR __imp_?Setup_ShaderResource@CTexture@Engine@@QEAAJPEAVCShader@2@PEBDI@Z
  00205	85 c0		 test	 eax, eax
  00207	7d 07		 jge	 SHORT $LN15@Render

; 113  : 			return E_FAIL;

  00209	b8 05 40 00 80	 mov	 eax, -2147467259	; ffffffff80004005H
  0020e	eb 6b		 jmp	 SHORT $LN1@Render
$LN15@Render:

; 114  : 
; 115  : 		if (FAILED(m_pDiffuse->Setup_ShaderResource(m_pShader, "g_MaskTexture")))

  00210	45 33 c9	 xor	 r9d, r9d
  00213	4c 8d 05 00 00
	00 00		 lea	 r8, OFFSET FLAT:??_C@_0O@OFKPLLDO@g_MaskTexture?$AA@
  0021a	48 8b 85 60 01
	00 00		 mov	 rax, QWORD PTR this$[rbp]
  00221	48 8b 90 a0 00
	00 00		 mov	 rdx, QWORD PTR [rax+160]
  00228	48 8b 85 60 01
	00 00		 mov	 rax, QWORD PTR this$[rbp]
  0022f	48 8b 88 a8 00
	00 00		 mov	 rcx, QWORD PTR [rax+168]
  00236	ff 15 00 00 00
	00		 call	 QWORD PTR __imp_?Setup_ShaderResource@CTexture@Engine@@QEAAJPEAVCShader@2@PEBDI@Z
  0023c	85 c0		 test	 eax, eax
  0023e	7d 07		 jge	 SHORT $LN16@Render

; 116  : 			return E_FAIL;

  00240	b8 05 40 00 80	 mov	 eax, -2147467259	; ffffffff80004005H
  00245	eb 34		 jmp	 SHORT $LN1@Render
$LN16@Render:

; 117  : 
; 118  : 		m_pShader->Begin(0);

  00247	33 d2		 xor	 edx, edx
  00249	48 8b 85 60 01
	00 00		 mov	 rax, QWORD PTR this$[rbp]
  00250	48 8b 88 a0 00
	00 00		 mov	 rcx, QWORD PTR [rax+160]
  00257	ff 15 00 00 00
	00		 call	 QWORD PTR __imp_?Begin@CShader@Engine@@QEAAJI@Z

; 119  : 		m_pModel->Render(i);

  0025d	8b 55 64	 mov	 edx, DWORD PTR i$3[rbp]
  00260	48 8b 85 60 01
	00 00		 mov	 rax, QWORD PTR this$[rbp]
  00267	48 8b 88 90 00
	00 00		 mov	 rcx, QWORD PTR [rax+144]
  0026e	ff 15 00 00 00
	00		 call	 QWORD PTR __imp_?Render@CModel@Engine@@QEAAJI@Z

; 120  : 	}

  00274	e9 4c ff ff ff	 jmp	 $LN5@Render
$LN6@Render:

; 121  : 
; 122  : 	return S_OK;

  00279	33 c0		 xor	 eax, eax
$LN1@Render:

; 123  : }

  0027b	48 8d a5 48 01
	00 00		 lea	 rsp, QWORD PTR [rbp+328]
  00282	5f		 pop	 rdi
  00283	5d		 pop	 rbp
  00284	c3		 ret	 0
?Render@CSwordTrail@Client@@UEAAJXZ ENDP		; Client::CSwordTrail::Render
_TEXT	ENDS
; Function compile flags: /Odtp /RTCsu /ZI
; File c:\users\arcco\documents\github\framework\client\private\swordtrail.cpp
;	COMDAT ?LateTick@CSwordTrail@Client@@UEAAXN@Z
_TEXT	SEGMENT
this$ = 224
TimeDelta$ = 232
?LateTick@CSwordTrail@Client@@UEAAXN@Z PROC		; Client::CSwordTrail::LateTick, COMDAT

; 68   : {

$LN5:
  00000	f2 0f 11 4c 24
	10		 movsd	 QWORD PTR [rsp+16], xmm1
  00006	48 89 4c 24 08	 mov	 QWORD PTR [rsp+8], rcx
  0000b	55		 push	 rbp
  0000c	57		 push	 rdi
  0000d	48 81 ec e8 00
	00 00		 sub	 rsp, 232		; 000000e8H
  00014	48 8d 6c 24 20	 lea	 rbp, QWORD PTR [rsp+32]
  00019	48 8b fc	 mov	 rdi, rsp
  0001c	b9 3a 00 00 00	 mov	 ecx, 58			; 0000003aH
  00021	b8 cc cc cc cc	 mov	 eax, -858993460		; ccccccccH
  00026	f3 ab		 rep stosd
  00028	48 8b 8c 24 08
	01 00 00	 mov	 rcx, QWORD PTR [rsp+264]

; 69   : 	if (!m_bUse)

  00030	48 8b 85 e0 00
	00 00		 mov	 rax, QWORD PTR this$[rbp]
  00037	0f b6 80 c8 00
	00 00		 movzx	 eax, BYTE PTR [rax+200]
  0003e	85 c0		 test	 eax, eax
  00040	75 02		 jne	 SHORT $LN2@LateTick

; 70   : 		return;

  00042	eb 52		 jmp	 SHORT $LN1@LateTick
$LN2@LateTick:

; 71   : 
; 72   : 	__super::LateTick(TimeDelta);

  00044	f2 0f 10 8d e8
	00 00 00	 movsd	 xmm1, QWORD PTR TimeDelta$[rbp]
  0004c	48 8b 8d e0 00
	00 00		 mov	 rcx, QWORD PTR this$[rbp]
  00053	ff 15 00 00 00
	00		 call	 QWORD PTR __imp_?LateTick@CGameObject@Engine@@UEAAXN@Z

; 73   : 
; 74   : 	if (nullptr != m_pRenderer && m_bUse)

  00059	48 8b 85 e0 00
	00 00		 mov	 rax, QWORD PTR this$[rbp]
  00060	48 83 78 78 00	 cmp	 QWORD PTR [rax+120], 0
  00065	74 2f		 je	 SHORT $LN3@LateTick
  00067	48 8b 85 e0 00
	00 00		 mov	 rax, QWORD PTR this$[rbp]
  0006e	0f b6 80 c8 00
	00 00		 movzx	 eax, BYTE PTR [rax+200]
  00075	85 c0		 test	 eax, eax
  00077	74 1d		 je	 SHORT $LN3@LateTick

; 75   : 		m_pRenderer->Add_RenderGroup(CRenderer::RENDER_ALPHABLEND, this);

  00079	4c 8b 85 e0 00
	00 00		 mov	 r8, QWORD PTR this$[rbp]
  00080	ba 03 00 00 00	 mov	 edx, 3
  00085	48 8b 85 e0 00
	00 00		 mov	 rax, QWORD PTR this$[rbp]
  0008c	48 8b 48 78	 mov	 rcx, QWORD PTR [rax+120]
  00090	ff 15 00 00 00
	00		 call	 QWORD PTR __imp_?Add_RenderGroup@CRenderer@Engine@@QEAAJW4RENDER_GROUP@12@PEAVCGameObject@2@@Z
$LN3@LateTick:
$LN1@LateTick:

; 76   : }

  00096	48 8d a5 c8 00
	00 00		 lea	 rsp, QWORD PTR [rbp+200]
  0009d	5f		 pop	 rdi
  0009e	5d		 pop	 rbp
  0009f	c3		 ret	 0
?LateTick@CSwordTrail@Client@@UEAAXN@Z ENDP		; Client::CSwordTrail::LateTick
_TEXT	ENDS
; Function compile flags: /Odtp /RTCsu /ZI
; File c:\users\arcco\documents\github\framework\client\private\swordtrail.cpp
;	COMDAT ?Tick@CSwordTrail@Client@@UEAAXN@Z
_TEXT	SEGMENT
$T1 = 208
this$ = 272
TimeDelta$ = 280
?Tick@CSwordTrail@Client@@UEAAXN@Z PROC			; Client::CSwordTrail::Tick, COMDAT

; 44   : {

$LN5:
  00000	f2 0f 11 4c 24
	10		 movsd	 QWORD PTR [rsp+16], xmm1
  00006	48 89 4c 24 08	 mov	 QWORD PTR [rsp+8], rcx
  0000b	55		 push	 rbp
  0000c	56		 push	 rsi
  0000d	57		 push	 rdi
  0000e	48 81 ec 10 01
	00 00		 sub	 rsp, 272		; 00000110H
  00015	48 8d 6c 24 20	 lea	 rbp, QWORD PTR [rsp+32]
  0001a	48 8b fc	 mov	 rdi, rsp
  0001d	b9 44 00 00 00	 mov	 ecx, 68			; 00000044H
  00022	b8 cc cc cc cc	 mov	 eax, -858993460		; ccccccccH
  00027	f3 ab		 rep stosd
  00029	48 8b 8c 24 38
	01 00 00	 mov	 rcx, QWORD PTR [rsp+312]

; 45   : 	if (!m_bUse)

  00031	48 8b 85 10 01
	00 00		 mov	 rax, QWORD PTR this$[rbp]
  00038	0f b6 80 c8 00
	00 00		 movzx	 eax, BYTE PTR [rax+200]
  0003f	85 c0		 test	 eax, eax
  00041	75 05		 jne	 SHORT $LN2@Tick

; 46   : 		return;

  00043	e9 dd 00 00 00	 jmp	 $LN1@Tick
$LN2@Tick:

; 47   : 
; 48   : 	__super::Tick(TimeDelta);

  00048	f2 0f 10 8d 18
	01 00 00	 movsd	 xmm1, QWORD PTR TimeDelta$[rbp]
  00050	48 8b 8d 10 01
	00 00		 mov	 rcx, QWORD PTR this$[rbp]
  00057	ff 15 00 00 00
	00		 call	 QWORD PTR __imp_?Tick@CGameObject@Engine@@UEAAXN@Z

; 49   : 
; 50   : 	m_fTimeAcc += TimeDelta;

  0005d	48 8b 85 10 01
	00 00		 mov	 rax, QWORD PTR this$[rbp]
  00064	f3 0f 5a 80 20
	01 00 00	 cvtss2sd xmm0, DWORD PTR [rax+288]
  0006c	f2 0f 58 85 18
	01 00 00	 addsd	 xmm0, QWORD PTR TimeDelta$[rbp]
  00074	f2 0f 5a c0	 cvtsd2ss xmm0, xmm0
  00078	48 8b 85 10 01
	00 00		 mov	 rax, QWORD PTR this$[rbp]
  0007f	f3 0f 11 80 20
	01 00 00	 movss	 DWORD PTR [rax+288], xmm0

; 51   : 	if (m_fTimeAcc >= m_fTimeAccLimit)

  00087	48 8b 85 10 01
	00 00		 mov	 rax, QWORD PTR this$[rbp]
  0008e	48 8b 8d 10 01
	00 00		 mov	 rcx, QWORD PTR this$[rbp]
  00095	f3 0f 10 80 20
	01 00 00	 movss	 xmm0, DWORD PTR [rax+288]
  0009d	0f 2f 81 24 01
	00 00		 comiss	 xmm0, DWORD PTR [rcx+292]
  000a4	72 7f		 jb	 SHORT $LN3@Tick

; 52   : 	{
; 53   : 		m_bUse = false;

  000a6	48 8b 85 10 01
	00 00		 mov	 rax, QWORD PTR this$[rbp]
  000ad	c6 80 c8 00 00
	00 00		 mov	 BYTE PTR [rax+200], 0

; 54   : 		m_bHit = false;

  000b4	48 8b 85 10 01
	00 00		 mov	 rax, QWORD PTR this$[rbp]
  000bb	c6 80 c9 00 00
	00 00		 mov	 BYTE PTR [rax+201], 0

; 55   : 		m_fTimeAcc = 0.f;

  000c2	48 8b 85 10 01
	00 00		 mov	 rax, QWORD PTR this$[rbp]
  000c9	0f 57 c0	 xorps	 xmm0, xmm0
  000cc	f3 0f 11 80 20
	01 00 00	 movss	 DWORD PTR [rax+288], xmm0

; 56   : 		m_vMinScale.y = 1.f;

  000d4	48 8b 85 10 01
	00 00		 mov	 rax, QWORD PTR this$[rbp]
  000db	f3 0f 10 05 00
	00 00 00	 movss	 xmm0, DWORD PTR __real@3f800000
  000e3	f3 0f 11 80 2c
	01 00 00	 movss	 DWORD PTR [rax+300], xmm0

; 57   : 		m_pHitTransform->Set_Scale(m_vMinScale);

  000eb	48 8d 85 d0 00
	00 00		 lea	 rax, QWORD PTR $T1[rbp]
  000f2	48 8b 8d 10 01
	00 00		 mov	 rcx, QWORD PTR this$[rbp]
  000f9	48 8b f8	 mov	 rdi, rax
  000fc	48 8d b1 28 01
	00 00		 lea	 rsi, QWORD PTR [rcx+296]
  00103	b9 0c 00 00 00	 mov	 ecx, 12
  00108	f3 a4		 rep movsb
  0010a	48 8d 95 d0 00
	00 00		 lea	 rdx, QWORD PTR $T1[rbp]
  00111	48 8b 85 10 01
	00 00		 mov	 rax, QWORD PTR this$[rbp]
  00118	48 8b 88 88 00
	00 00		 mov	 rcx, QWORD PTR [rax+136]
  0011f	ff 15 00 00 00
	00		 call	 QWORD PTR __imp_?Set_Scale@CTransform@Engine@@QEAAXUXMFLOAT3@DirectX@@@Z
$LN3@Tick:
$LN1@Tick:

; 58   : 	}
; 59   : 
; 60   : 	//if (m_bHit)
; 61   : 	//{
; 62   : 	//	m_vMinScale.y -= TimeDelta;
; 63   : 	//	m_pHitTransform->Set_Scale(m_vMinScale);
; 64   : 	//}
; 65   : }

  00125	48 8d a5 f0 00
	00 00		 lea	 rsp, QWORD PTR [rbp+240]
  0012c	5f		 pop	 rdi
  0012d	5e		 pop	 rsi
  0012e	5d		 pop	 rbp
  0012f	c3		 ret	 0
?Tick@CSwordTrail@Client@@UEAAXN@Z ENDP			; Client::CSwordTrail::Tick
_TEXT	ENDS
; Function compile flags: /Odtp /RTCsu /ZI
; File c:\users\arcco\documents\github\framework\client\private\swordtrail.cpp
;	COMDAT ?Initialize@CSwordTrail@Client@@UEAAJPEAX@Z
_TEXT	SEGMENT
vPosition$4 = 16
__$ArrayPad$ = 232
this$ = 272
pArg$ = 280
?Initialize@CSwordTrail@Client@@UEAAJPEAX@Z PROC	; Client::CSwordTrail::Initialize, COMDAT

; 23   : {

$LN7:
  00000	48 89 54 24 10	 mov	 QWORD PTR [rsp+16], rdx
  00005	48 89 4c 24 08	 mov	 QWORD PTR [rsp+8], rcx
  0000a	55		 push	 rbp
  0000b	57		 push	 rdi
  0000c	48 81 ec 18 01
	00 00		 sub	 rsp, 280		; 00000118H
  00013	48 8d 6c 24 20	 lea	 rbp, QWORD PTR [rsp+32]
  00018	48 8b fc	 mov	 rdi, rsp
  0001b	b9 46 00 00 00	 mov	 ecx, 70			; 00000046H
  00020	b8 cc cc cc cc	 mov	 eax, -858993460		; ccccccccH
  00025	f3 ab		 rep stosd
  00027	48 8b 8c 24 38
	01 00 00	 mov	 rcx, QWORD PTR [rsp+312]
  0002f	48 8b 05 00 00
	00 00		 mov	 rax, QWORD PTR __security_cookie
  00036	48 33 c5	 xor	 rax, rbp
  00039	48 89 85 e8 00
	00 00		 mov	 QWORD PTR __$ArrayPad$[rbp], rax

; 24   : 	if (FAILED(__super::Initialize(pArg)))

  00040	48 8b 95 18 01
	00 00		 mov	 rdx, QWORD PTR pArg$[rbp]
  00047	48 8b 8d 10 01
	00 00		 mov	 rcx, QWORD PTR this$[rbp]
  0004e	ff 15 00 00 00
	00		 call	 QWORD PTR __imp_?Initialize@CGameObject@Engine@@UEAAJPEAX@Z
  00054	85 c0		 test	 eax, eax
  00056	7d 0a		 jge	 SHORT $LN2@Initialize

; 25   : 		return E_FAIL;

  00058	b8 05 40 00 80	 mov	 eax, -2147467259	; ffffffff80004005H
  0005d	e9 b7 00 00 00	 jmp	 $LN1@Initialize
$LN2@Initialize:

; 26   : 
; 27   : 	if (FAILED(AddComponents()))

  00062	48 8b 8d 10 01
	00 00		 mov	 rcx, QWORD PTR this$[rbp]
  00069	e8 00 00 00 00	 call	 ?AddComponents@CSwordTrail@Client@@AEAAJXZ ; Client::CSwordTrail::AddComponents
  0006e	85 c0		 test	 eax, eax
  00070	7d 0a		 jge	 SHORT $LN3@Initialize

; 28   : 		return E_FAIL;

  00072	b8 05 40 00 80	 mov	 eax, -2147467259	; ffffffff80004005H
  00077	e9 9d 00 00 00	 jmp	 $LN1@Initialize
$LN3@Initialize:

; 29   : 
; 30   : 	if (pArg != nullptr)

  0007c	48 83 bd 18 01
	00 00 00	 cmp	 QWORD PTR pArg$[rbp], 0
  00084	0f 84 86 00 00
	00		 je	 $LN4@Initialize

; 31   : 	{
; 32   : 		m_pPlayer = (CCharacter*)pArg;

  0008a	48 8b 85 10 01
	00 00		 mov	 rax, QWORD PTR this$[rbp]
  00091	48 8b 8d 18 01
	00 00		 mov	 rcx, QWORD PTR pArg$[rbp]
  00098	48 89 88 b8 00
	00 00		 mov	 QWORD PTR [rax+184], rcx

; 33   : 		m_pPlayerTransform = (CTransform*)m_pPlayer->Find_Component(L"com_transform");

  0009f	48 8d 15 00 00
	00 00		 lea	 rdx, OFFSET FLAT:??_C@_1BM@CJMPMHDD@?$AAc?$AAo?$AAm?$AA_?$AAt?$AAr?$AAa?$AAn?$AAs?$AAf?$AAo?$AAr?$AAm?$AA?$AA@
  000a6	48 8b 85 10 01
	00 00		 mov	 rax, QWORD PTR this$[rbp]
  000ad	48 8b 88 b8 00
	00 00		 mov	 rcx, QWORD PTR [rax+184]
  000b4	ff 15 00 00 00
	00		 call	 QWORD PTR __imp_?Find_Component@CGameObject@Engine@@QEAAPEAVCComponent@2@PEB_W@Z
  000ba	48 8b 8d 10 01
	00 00		 mov	 rcx, QWORD PTR this$[rbp]
  000c1	48 89 81 c0 00
	00 00		 mov	 QWORD PTR [rcx+192], rax

; 34   : 		_vector vPosition = m_pPlayerTransform->Get_State(CTransform::STATE_POSITION);

  000c8	41 b8 03 00 00
	00		 mov	 r8d, 3
  000ce	48 8d 55 10	 lea	 rdx, QWORD PTR vPosition$4[rbp]
  000d2	48 8b 85 10 01
	00 00		 mov	 rax, QWORD PTR this$[rbp]
  000d9	48 8b 88 c0 00
	00 00		 mov	 rcx, QWORD PTR [rax+192]
  000e0	ff 15 00 00 00
	00		 call	 QWORD PTR __imp_?Get_State@CTransform@Engine@@QEAA?AT__m128@@W4STATE@12@@Z

; 35   : 		m_pPivotBone = m_pPlayer->GetBone("Bip001");

  000e6	48 8d 15 00 00
	00 00		 lea	 rdx, OFFSET FLAT:??_C@_06HFDDOAAP@Bip001?$AA@
  000ed	48 8b 85 10 01
	00 00		 mov	 rax, QWORD PTR this$[rbp]
  000f4	48 8b 88 b8 00
	00 00		 mov	 rcx, QWORD PTR [rax+184]
  000fb	e8 00 00 00 00	 call	 ?GetBone@CCharacter@Client@@QEBAPEBVCBone@Engine@@PEBD@Z ; Client::CCharacter::GetBone
  00100	48 8b 8d 10 01
	00 00		 mov	 rcx, QWORD PTR this$[rbp]
  00107	48 89 81 d8 00
	00 00		 mov	 QWORD PTR [rcx+216], rax

; 36   : 	}
; 37   : 	else

  0010e	eb 07		 jmp	 SHORT $LN5@Initialize
$LN4@Initialize:

; 38   : 		return E_FAIL;

  00110	b8 05 40 00 80	 mov	 eax, -2147467259	; ffffffff80004005H
  00115	eb 02		 jmp	 SHORT $LN1@Initialize
$LN5@Initialize:

; 39   : 	
; 40   : 	return S_OK;

  00117	33 c0		 xor	 eax, eax
$LN1@Initialize:

; 41   : }

  00119	48 8b f8	 mov	 rdi, rax
  0011c	48 8d 4d e0	 lea	 rcx, QWORD PTR [rbp-32]
  00120	48 8d 15 00 00
	00 00		 lea	 rdx, OFFSET FLAT:?Initialize@CSwordTrail@Client@@UEAAJPEAX@Z$rtcFrameData
  00127	e8 00 00 00 00	 call	 _RTC_CheckStackVars
  0012c	48 8b c7	 mov	 rax, rdi
  0012f	48 8b 8d e8 00
	00 00		 mov	 rcx, QWORD PTR __$ArrayPad$[rbp]
  00136	48 33 cd	 xor	 rcx, rbp
  00139	e8 00 00 00 00	 call	 __security_check_cookie
  0013e	48 8d a5 f8 00
	00 00		 lea	 rsp, QWORD PTR [rbp+248]
  00145	5f		 pop	 rdi
  00146	5d		 pop	 rbp
  00147	c3		 ret	 0
?Initialize@CSwordTrail@Client@@UEAAJPEAX@Z ENDP	; Client::CSwordTrail::Initialize
_TEXT	ENDS
; Function compile flags: /Odtp /RTCsu /ZI
; File c:\users\arcco\documents\github\framework\client\private\swordtrail.cpp
;	COMDAT ?Initialize_Prototype@CSwordTrail@Client@@UEAAJXZ
_TEXT	SEGMENT
this$ = 224
?Initialize_Prototype@CSwordTrail@Client@@UEAAJXZ PROC	; Client::CSwordTrail::Initialize_Prototype, COMDAT

; 15   : {

$LN4:
  00000	48 89 4c 24 08	 mov	 QWORD PTR [rsp+8], rcx
  00005	55		 push	 rbp
  00006	57		 push	 rdi
  00007	48 81 ec e8 00
	00 00		 sub	 rsp, 232		; 000000e8H
  0000e	48 8d 6c 24 20	 lea	 rbp, QWORD PTR [rsp+32]
  00013	48 8b fc	 mov	 rdi, rsp
  00016	b9 3a 00 00 00	 mov	 ecx, 58			; 0000003aH
  0001b	b8 cc cc cc cc	 mov	 eax, -858993460		; ccccccccH
  00020	f3 ab		 rep stosd
  00022	48 8b 8c 24 08
	01 00 00	 mov	 rcx, QWORD PTR [rsp+264]

; 16   : 	if (FAILED(__super::Initialize_Prototype()))

  0002a	48 8b 8d e0 00
	00 00		 mov	 rcx, QWORD PTR this$[rbp]
  00031	ff 15 00 00 00
	00		 call	 QWORD PTR __imp_?Initialize_Prototype@CGameObject@Engine@@UEAAJXZ
  00037	85 c0		 test	 eax, eax
  00039	7d 07		 jge	 SHORT $LN2@Initialize

; 17   : 		return E_FAIL;

  0003b	b8 05 40 00 80	 mov	 eax, -2147467259	; ffffffff80004005H
  00040	eb 02		 jmp	 SHORT $LN1@Initialize
$LN2@Initialize:

; 18   : 
; 19   : 	return S_OK;

  00042	33 c0		 xor	 eax, eax
$LN1@Initialize:

; 20   : }

  00044	48 8d a5 c8 00
	00 00		 lea	 rsp, QWORD PTR [rbp+200]
  0004b	5f		 pop	 rdi
  0004c	5d		 pop	 rbp
  0004d	c3		 ret	 0
?Initialize_Prototype@CSwordTrail@Client@@UEAAJXZ ENDP	; Client::CSwordTrail::Initialize_Prototype
_TEXT	ENDS
; Function compile flags: /Odtp /RTCsu /ZI
; File c:\users\arcco\documents\github\framework\client\private\swordtrail.cpp
;	COMDAT ??1CSwordTrail@Client@@EEAA@XZ
_TEXT	SEGMENT
this$ = 224
??1CSwordTrail@Client@@EEAA@XZ PROC			; Client::CSwordTrail::~CSwordTrail, COMDAT

; 12   : }

$LN3:
  00000	48 89 4c 24 08	 mov	 QWORD PTR [rsp+8], rcx
  00005	55		 push	 rbp
  00006	57		 push	 rdi
  00007	48 81 ec e8 00
	00 00		 sub	 rsp, 232		; 000000e8H
  0000e	48 8d 6c 24 20	 lea	 rbp, QWORD PTR [rsp+32]
  00013	48 8b fc	 mov	 rdi, rsp
  00016	b9 3a 00 00 00	 mov	 ecx, 58			; 0000003aH
  0001b	b8 cc cc cc cc	 mov	 eax, -858993460		; ccccccccH
  00020	f3 ab		 rep stosd
  00022	48 8b 8c 24 08
	01 00 00	 mov	 rcx, QWORD PTR [rsp+264]
  0002a	48 8b 8d e0 00
	00 00		 mov	 rcx, QWORD PTR this$[rbp]
  00031	ff 15 00 00 00
	00		 call	 QWORD PTR __imp_??1CGameObject@Engine@@MEAA@XZ
  00037	48 8d a5 c8 00
	00 00		 lea	 rsp, QWORD PTR [rbp+200]
  0003e	5f		 pop	 rdi
  0003f	5d		 pop	 rbp
  00040	c3		 ret	 0
??1CSwordTrail@Client@@EEAA@XZ ENDP			; Client::CSwordTrail::~CSwordTrail
_TEXT	ENDS
; Function compile flags: /Odtp /RTCsu /ZI
; File c:\users\arcco\documents\github\framework\client\private\swordtrail.cpp
; File c:\users\arcco\documents\github\framework\client\public\swordtrail.h
; File c:\users\arcco\documents\github\framework\client\private\swordtrail.cpp
; File c:\users\arcco\documents\github\framework\client\public\swordtrail.h
; File c:\users\arcco\documents\github\framework\client\private\swordtrail.cpp
;	COMDAT ??0CSwordTrail@Client@@AEAA@PEAUID3D11Device@@PEAUID3D11DeviceContext@@@Z
_TEXT	SEGMENT
$T1 = 200
this$ = 256
pDevice$ = 264
pContext$ = 272
??0CSwordTrail@Client@@AEAA@PEAUID3D11Device@@PEAUID3D11DeviceContext@@@Z PROC ; Client::CSwordTrail::CSwordTrail, COMDAT

; 11   : {

$LN4:
  00000	4c 89 44 24 18	 mov	 QWORD PTR [rsp+24], r8
  00005	48 89 54 24 10	 mov	 QWORD PTR [rsp+16], rdx
  0000a	48 89 4c 24 08	 mov	 QWORD PTR [rsp+8], rcx
  0000f	55		 push	 rbp
  00010	57		 push	 rdi
  00011	48 81 ec 08 01
	00 00		 sub	 rsp, 264		; 00000108H
  00018	48 8d 6c 24 20	 lea	 rbp, QWORD PTR [rsp+32]
  0001d	48 8b fc	 mov	 rdi, rsp
  00020	b9 42 00 00 00	 mov	 ecx, 66			; 00000042H
  00025	b8 cc cc cc cc	 mov	 eax, -858993460		; ccccccccH
  0002a	f3 ab		 rep stosd
  0002c	48 8b 8c 24 28
	01 00 00	 mov	 rcx, QWORD PTR [rsp+296]
  00034	48 c7 85 c8 00
	00 00 fe ff ff
	ff		 mov	 QWORD PTR $T1[rbp], -2

; 10   : 	: CGameObject(pDevice, pContext)

  0003f	4c 8b 85 10 01
	00 00		 mov	 r8, QWORD PTR pContext$[rbp]
  00046	48 8b 95 08 01
	00 00		 mov	 rdx, QWORD PTR pDevice$[rbp]
  0004d	48 8b 8d 00 01
	00 00		 mov	 rcx, QWORD PTR this$[rbp]
  00054	ff 15 00 00 00
	00		 call	 QWORD PTR __imp_??0CGameObject@Engine@@IEAA@PEAUID3D11Device@@PEAUID3D11DeviceContext@@@Z
  0005a	90		 npad	 1

; 11   : {

  0005b	48 8b 85 00 01
	00 00		 mov	 rax, QWORD PTR this$[rbp]
  00062	48 8d 0d 00 00
	00 00		 lea	 rcx, OFFSET FLAT:??_7CSwordTrail@Client@@6B@
  00069	48 89 08	 mov	 QWORD PTR [rax], rcx
; File c:\users\arcco\documents\github\framework\client\public\swordtrail.h

; 53   : 	CRenderer* m_pRenderer = nullptr;

  0006c	48 8b 85 00 01
	00 00		 mov	 rax, QWORD PTR this$[rbp]
  00073	48 c7 40 78 00
	00 00 00	 mov	 QWORD PTR [rax+120], 0

; 54   : 	CTransform* m_pTransform = nullptr;

  0007b	48 8b 85 00 01
	00 00		 mov	 rax, QWORD PTR this$[rbp]
  00082	48 c7 80 80 00
	00 00 00 00 00
	00		 mov	 QWORD PTR [rax+128], 0

; 55   : 	CTransform* m_pHitTransform = nullptr;

  0008d	48 8b 85 00 01
	00 00		 mov	 rax, QWORD PTR this$[rbp]
  00094	48 c7 80 88 00
	00 00 00 00 00
	00		 mov	 QWORD PTR [rax+136], 0

; 56   : 	CModel* m_pModel = nullptr;

  0009f	48 8b 85 00 01
	00 00		 mov	 rax, QWORD PTR this$[rbp]
  000a6	48 c7 80 90 00
	00 00 00 00 00
	00		 mov	 QWORD PTR [rax+144], 0

; 57   : 	CModel* m_pModel2 = nullptr;

  000b1	48 8b 85 00 01
	00 00		 mov	 rax, QWORD PTR this$[rbp]
  000b8	48 c7 80 98 00
	00 00 00 00 00
	00		 mov	 QWORD PTR [rax+152], 0

; 58   : 	CShader* m_pShader = nullptr;

  000c3	48 8b 85 00 01
	00 00		 mov	 rax, QWORD PTR this$[rbp]
  000ca	48 c7 80 a0 00
	00 00 00 00 00
	00		 mov	 QWORD PTR [rax+160], 0

; 59   : 
; 60   : private:
; 61   : 	CTexture* m_pDiffuse = nullptr;

  000d5	48 8b 85 00 01
	00 00		 mov	 rax, QWORD PTR this$[rbp]
  000dc	48 c7 80 a8 00
	00 00 00 00 00
	00		 mov	 QWORD PTR [rax+168], 0

; 62   : 	CTexture* m_pMask	 = nullptr;

  000e7	48 8b 85 00 01
	00 00		 mov	 rax, QWORD PTR this$[rbp]
  000ee	48 c7 80 b0 00
	00 00 00 00 00
	00		 mov	 QWORD PTR [rax+176], 0

; 63   : 
; 64   : private:
; 65   : 	class CCharacter* m_pPlayer = nullptr;

  000f9	48 8b 85 00 01
	00 00		 mov	 rax, QWORD PTR this$[rbp]
  00100	48 c7 80 b8 00
	00 00 00 00 00
	00		 mov	 QWORD PTR [rax+184], 0

; 66   : 	CTransform* m_pPlayerTransform = nullptr;

  0010b	48 8b 85 00 01
	00 00		 mov	 rax, QWORD PTR this$[rbp]
  00112	48 c7 80 c0 00
	00 00 00 00 00
	00		 mov	 QWORD PTR [rax+192], 0

; 67   : 
; 68   : private:
; 69   : 	_bool m_bUse = false;

  0011d	48 8b 85 00 01
	00 00		 mov	 rax, QWORD PTR this$[rbp]
  00124	c6 80 c8 00 00
	00 00		 mov	 BYTE PTR [rax+200], 0

; 70   : 	_bool m_bHit = false;

  0012b	48 8b 85 00 01
	00 00		 mov	 rax, QWORD PTR this$[rbp]
  00132	c6 80 c9 00 00
	00 00		 mov	 BYTE PTR [rax+201], 0

; 71   : 	_float3 m_vHitPos = { 0.f, 0.f, 0.f };

  00139	48 8b 85 00 01
	00 00		 mov	 rax, QWORD PTR this$[rbp]
  00140	48 05 cc 00 00
	00		 add	 rax, 204		; 000000ccH
  00146	0f 57 db	 xorps	 xmm3, xmm3
  00149	0f 57 d2	 xorps	 xmm2, xmm2
  0014c	0f 57 c9	 xorps	 xmm1, xmm1
  0014f	48 8b c8	 mov	 rcx, rax
  00152	e8 00 00 00 00	 call	 ??0XMFLOAT3@DirectX@@QEAA@MMM@Z ; DirectX::XMFLOAT3::XMFLOAT3

; 72   : 
; 73   : 	const CBone* m_pPivotBone = nullptr;

  00157	48 8b 85 00 01
	00 00		 mov	 rax, QWORD PTR this$[rbp]
  0015e	48 c7 80 d8 00
	00 00 00 00 00
	00		 mov	 QWORD PTR [rax+216], 0
; File c:\users\arcco\documents\github\framework\client\private\swordtrail.cpp

; 11   : {

  00169	48 8b 85 00 01
	00 00		 mov	 rax, QWORD PTR this$[rbp]
  00170	48 05 e0 00 00
	00		 add	 rax, 224		; 000000e0H
  00176	48 8b c8	 mov	 rcx, rax
  00179	e8 00 00 00 00	 call	 ??0XMFLOAT4X4@DirectX@@QEAA@XZ ; DirectX::XMFLOAT4X4::XMFLOAT4X4
; File c:\users\arcco\documents\github\framework\client\public\swordtrail.h

; 77   : 	_float m_fTimeAcc = 0.f;

  0017e	48 8b 85 00 01
	00 00		 mov	 rax, QWORD PTR this$[rbp]
  00185	0f 57 c0	 xorps	 xmm0, xmm0
  00188	f3 0f 11 80 20
	01 00 00	 movss	 DWORD PTR [rax+288], xmm0

; 78   : 	const _float m_fTimeAccLimit = 1.f;

  00190	48 8b 85 00 01
	00 00		 mov	 rax, QWORD PTR this$[rbp]
  00197	f3 0f 10 05 00
	00 00 00	 movss	 xmm0, DWORD PTR __real@3f800000
  0019f	f3 0f 11 80 24
	01 00 00	 movss	 DWORD PTR [rax+292], xmm0

; 79   : 
; 80   : 	_float3 m_vMinScale = { 1.f, 0.1f, 1.f };

  001a7	48 8b 85 00 01
	00 00		 mov	 rax, QWORD PTR this$[rbp]
  001ae	48 05 28 01 00
	00		 add	 rax, 296		; 00000128H
  001b4	f3 0f 10 1d 00
	00 00 00	 movss	 xmm3, DWORD PTR __real@3f800000
  001bc	f3 0f 10 15 00
	00 00 00	 movss	 xmm2, DWORD PTR __real@3dcccccd
  001c4	f3 0f 10 0d 00
	00 00 00	 movss	 xmm1, DWORD PTR __real@3f800000
  001cc	48 8b c8	 mov	 rcx, rax
  001cf	e8 00 00 00 00	 call	 ??0XMFLOAT3@DirectX@@QEAA@MMM@Z ; DirectX::XMFLOAT3::XMFLOAT3
  001d4	90		 npad	 1
; File c:\users\arcco\documents\github\framework\client\private\swordtrail.cpp

; 12   : }

  001d5	48 8b 85 00 01
	00 00		 mov	 rax, QWORD PTR this$[rbp]
  001dc	48 8d a5 e8 00
	00 00		 lea	 rsp, QWORD PTR [rbp+232]
  001e3	5f		 pop	 rdi
  001e4	5d		 pop	 rbp
  001e5	c3		 ret	 0
??0CSwordTrail@Client@@AEAA@PEAUID3D11Device@@PEAUID3D11DeviceContext@@@Z ENDP ; Client::CSwordTrail::CSwordTrail
_TEXT	ENDS
;	COMDAT text$x
text$x	SEGMENT
$T1 = 200
this$ = 256
pDevice$ = 264
pContext$ = 272
?dtor$0@?0???0CSwordTrail@Client@@AEAA@PEAUID3D11Device@@PEAUID3D11DeviceContext@@@Z@4HA PROC ; `Client::CSwordTrail::CSwordTrail'::`1'::dtor$0
  00000	48 89 4c 24 08	 mov	 QWORD PTR [rsp+8], rcx
  00005	48 89 54 24 10	 mov	 QWORD PTR [rsp+16], rdx
  0000a	55		 push	 rbp
  0000b	57		 push	 rdi
  0000c	48 83 ec 28	 sub	 rsp, 40			; 00000028H
  00010	48 8d 6a 20	 lea	 rbp, QWORD PTR [rdx+32]
  00014	48 8b 8d 00 01
	00 00		 mov	 rcx, QWORD PTR this$[rbp]
  0001b	ff 15 00 00 00
	00		 call	 QWORD PTR __imp_??1CGameObject@Engine@@MEAA@XZ
  00021	48 83 c4 28	 add	 rsp, 40			; 00000028H
  00025	5f		 pop	 rdi
  00026	5d		 pop	 rbp
  00027	c3		 ret	 0
?dtor$0@?0???0CSwordTrail@Client@@AEAA@PEAUID3D11Device@@PEAUID3D11DeviceContext@@@Z@4HA ENDP ; `Client::CSwordTrail::CSwordTrail'::`1'::dtor$0
text$x	ENDS
; Function compile flags: /Odtp /RTCsu /ZI
;	COMDAT text$x
text$x	SEGMENT
$T1 = 200
this$ = 256
pDevice$ = 264
pContext$ = 272
?dtor$0@?0???0CSwordTrail@Client@@AEAA@PEAUID3D11Device@@PEAUID3D11DeviceContext@@@Z@4HA PROC ; `Client::CSwordTrail::CSwordTrail'::`1'::dtor$0
  00000	48 89 4c 24 08	 mov	 QWORD PTR [rsp+8], rcx
  00005	48 89 54 24 10	 mov	 QWORD PTR [rsp+16], rdx
  0000a	55		 push	 rbp
  0000b	57		 push	 rdi
  0000c	48 83 ec 28	 sub	 rsp, 40			; 00000028H
  00010	48 8d 6a 20	 lea	 rbp, QWORD PTR [rdx+32]
  00014	48 8b 8d 00 01
	00 00		 mov	 rcx, QWORD PTR this$[rbp]
  0001b	ff 15 00 00 00
	00		 call	 QWORD PTR __imp_??1CGameObject@Engine@@MEAA@XZ
  00021	48 83 c4 28	 add	 rsp, 40			; 00000028H
  00025	5f		 pop	 rdi
  00026	5d		 pop	 rbp
  00027	c3		 ret	 0
?dtor$0@?0???0CSwordTrail@Client@@AEAA@PEAUID3D11Device@@PEAUID3D11DeviceContext@@@Z@4HA ENDP ; `Client::CSwordTrail::CSwordTrail'::`1'::dtor$0
text$x	ENDS
; Function compile flags: /Odtp /RTCsu /ZI
; File c:\program files (x86)\windows kits\8.1\include\um\directxmathmisc.inl
;	COMDAT ?XMScalarSinCos@DirectX@@YAXPEAM0M@Z
_TEXT	SEGMENT
quotient$ = 4
y$ = 36
sign$ = 68
y2$ = 100
p$ = 132
pSin$ = 384
pCos$ = 392
Value$ = 400
?XMScalarSinCos@DirectX@@YAXPEAM0M@Z PROC		; DirectX::XMScalarSinCos, COMDAT

; 2275 : {

$LN11:
  00000	f3 0f 11 54 24
	18		 movss	 DWORD PTR [rsp+24], xmm2
  00006	48 89 54 24 10	 mov	 QWORD PTR [rsp+16], rdx
  0000b	48 89 4c 24 08	 mov	 QWORD PTR [rsp+8], rcx
  00010	55		 push	 rbp
  00011	57		 push	 rdi
  00012	48 81 ec 88 01
	00 00		 sub	 rsp, 392		; 00000188H
  00019	48 8d 6c 24 20	 lea	 rbp, QWORD PTR [rsp+32]
  0001e	48 8b fc	 mov	 rdi, rsp
  00021	b9 62 00 00 00	 mov	 ecx, 98			; 00000062H
  00026	b8 cc cc cc cc	 mov	 eax, -858993460		; ccccccccH
  0002b	f3 ab		 rep stosd
  0002d	48 8b 8c 24 a8
	01 00 00	 mov	 rcx, QWORD PTR [rsp+424]

; 2276 :     assert(pSin);

  00035	48 83 bd 80 01
	00 00 00	 cmp	 QWORD PTR pSin$[rbp], 0
  0003d	75 21		 jne	 SHORT $LN9@XMScalarSi
  0003f	8b 05 00 00 00
	00		 mov	 eax, DWORD PTR ?__LINE__Var@?0??XMScalarSinCos@DirectX@@YAXPEAM0M@Z@4JA
  00045	ff c0		 inc	 eax
  00047	44 8b c0	 mov	 r8d, eax
  0004a	48 8d 15 00 00
	00 00		 lea	 rdx, OFFSET FLAT:??_C@_1IO@CGGKMODJ@?$AAc?$AA?3?$AA?2?$AAp?$AAr?$AAo?$AAg?$AAr?$AAa?$AAm?$AA?5?$AAf?$AAi?$AAl?$AAe?$AAs?$AA?5?$AA?$CI?$AAx?$AA8?$AA6?$AA?$CJ?$AA?2?$AAw?$AAi?$AAn?$AAd?$AAo?$AAw?$AAs?$AA?5?$AAk@
  00051	48 8d 0d 00 00
	00 00		 lea	 rcx, OFFSET FLAT:??_C@_19MFJHDIJG@?$AAp?$AAS?$AAi?$AAn?$AA?$AA@
  00058	ff 15 00 00 00
	00		 call	 QWORD PTR __imp__wassert
  0005e	33 c0		 xor	 eax, eax
$LN9@XMScalarSi:

; 2277 :     assert(pCos);

  00060	48 83 bd 88 01
	00 00 00	 cmp	 QWORD PTR pCos$[rbp], 0
  00068	75 22		 jne	 SHORT $LN10@XMScalarSi
  0006a	8b 05 00 00 00
	00		 mov	 eax, DWORD PTR ?__LINE__Var@?0??XMScalarSinCos@DirectX@@YAXPEAM0M@Z@4JA
  00070	83 c0 02	 add	 eax, 2
  00073	44 8b c0	 mov	 r8d, eax
  00076	48 8d 15 00 00
	00 00		 lea	 rdx, OFFSET FLAT:??_C@_1IO@CGGKMODJ@?$AAc?$AA?3?$AA?2?$AAp?$AAr?$AAo?$AAg?$AAr?$AAa?$AAm?$AA?5?$AAf?$AAi?$AAl?$AAe?$AAs?$AA?5?$AA?$CI?$AAx?$AA8?$AA6?$AA?$CJ?$AA?2?$AAw?$AAi?$AAn?$AAd?$AAo?$AAw?$AAs?$AA?5?$AAk@
  0007d	48 8d 0d 00 00
	00 00		 lea	 rcx, OFFSET FLAT:??_C@_19MNAGGFOC@?$AAp?$AAC?$AAo?$AAs?$AA?$AA@
  00084	ff 15 00 00 00
	00		 call	 QWORD PTR __imp__wassert
  0008a	33 c0		 xor	 eax, eax
$LN10@XMScalarSi:

; 2278 : 
; 2279 :     // Map Value to y in [-pi,pi], x = 2*pi*quotient + remainder.
; 2280 :     float quotient = XM_1DIV2PI*Value;

  0008c	f3 0f 10 05 00
	00 00 00	 movss	 xmm0, DWORD PTR __real@3e22f983
  00094	f3 0f 59 85 90
	01 00 00	 mulss	 xmm0, DWORD PTR Value$[rbp]
  0009c	f3 0f 11 45 04	 movss	 DWORD PTR quotient$[rbp], xmm0

; 2281 :     if (Value >= 0.0f)

  000a1	f3 0f 10 85 90
	01 00 00	 movss	 xmm0, DWORD PTR Value$[rbp]
  000a9	0f 2f 05 00 00
	00 00		 comiss	 xmm0, DWORD PTR __real@00000000
  000b0	72 1c		 jb	 SHORT $LN2@XMScalarSi

; 2282 :     {
; 2283 :         quotient = (float)((int)(quotient + 0.5f));

  000b2	f3 0f 10 45 04	 movss	 xmm0, DWORD PTR quotient$[rbp]
  000b7	f3 0f 58 05 00
	00 00 00	 addss	 xmm0, DWORD PTR __real@3f000000
  000bf	f3 0f 2c c0	 cvttss2si eax, xmm0
  000c3	f3 0f 2a c0	 cvtsi2ss xmm0, eax
  000c7	f3 0f 11 45 04	 movss	 DWORD PTR quotient$[rbp], xmm0

; 2284 :     }
; 2285 :     else

  000cc	eb 1a		 jmp	 SHORT $LN3@XMScalarSi
$LN2@XMScalarSi:

; 2286 :     {
; 2287 :         quotient = (float)((int)(quotient - 0.5f));

  000ce	f3 0f 10 45 04	 movss	 xmm0, DWORD PTR quotient$[rbp]
  000d3	f3 0f 5c 05 00
	00 00 00	 subss	 xmm0, DWORD PTR __real@3f000000
  000db	f3 0f 2c c0	 cvttss2si eax, xmm0
  000df	f3 0f 2a c0	 cvtsi2ss xmm0, eax
  000e3	f3 0f 11 45 04	 movss	 DWORD PTR quotient$[rbp], xmm0
$LN3@XMScalarSi:

; 2288 :     }
; 2289 :     float y = Value - XM_2PI*quotient;

  000e8	f3 0f 10 05 00
	00 00 00	 movss	 xmm0, DWORD PTR __real@40c90fdb
  000f0	f3 0f 59 45 04	 mulss	 xmm0, DWORD PTR quotient$[rbp]
  000f5	f3 0f 10 8d 90
	01 00 00	 movss	 xmm1, DWORD PTR Value$[rbp]
  000fd	f3 0f 5c c8	 subss	 xmm1, xmm0
  00101	0f 28 c1	 movaps	 xmm0, xmm1
  00104	f3 0f 11 45 24	 movss	 DWORD PTR y$[rbp], xmm0

; 2290 : 
; 2291 :     // Map y to [-pi/2,pi/2] with sin(y) = sin(Value).
; 2292 :     float sign;
; 2293 :     if (y > XM_PIDIV2)

  00109	f3 0f 10 45 24	 movss	 xmm0, DWORD PTR y$[rbp]
  0010e	0f 2f 05 00 00
	00 00		 comiss	 xmm0, DWORD PTR __real@3fc90fdb
  00115	76 21		 jbe	 SHORT $LN4@XMScalarSi

; 2294 :     {
; 2295 :         y = XM_PI - y;

  00117	f3 0f 10 05 00
	00 00 00	 movss	 xmm0, DWORD PTR __real@40490fdb
  0011f	f3 0f 5c 45 24	 subss	 xmm0, DWORD PTR y$[rbp]
  00124	f3 0f 11 45 24	 movss	 DWORD PTR y$[rbp], xmm0

; 2296 :         sign = -1.0f;

  00129	f3 0f 10 05 00
	00 00 00	 movss	 xmm0, DWORD PTR __real@bf800000
  00131	f3 0f 11 45 44	 movss	 DWORD PTR sign$[rbp], xmm0
  00136	eb 3c		 jmp	 SHORT $LN5@XMScalarSi
$LN4@XMScalarSi:

; 2297 :     }
; 2298 :     else if (y < -XM_PIDIV2)

  00138	f3 0f 10 05 00
	00 00 00	 movss	 xmm0, DWORD PTR __real@bfc90fdb
  00140	0f 2f 45 24	 comiss	 xmm0, DWORD PTR y$[rbp]
  00144	76 21		 jbe	 SHORT $LN6@XMScalarSi

; 2299 :     {
; 2300 :         y = -XM_PI - y;

  00146	f3 0f 10 05 00
	00 00 00	 movss	 xmm0, DWORD PTR __real@c0490fdb
  0014e	f3 0f 5c 45 24	 subss	 xmm0, DWORD PTR y$[rbp]
  00153	f3 0f 11 45 24	 movss	 DWORD PTR y$[rbp], xmm0

; 2301 :         sign = -1.0f;

  00158	f3 0f 10 05 00
	00 00 00	 movss	 xmm0, DWORD PTR __real@bf800000
  00160	f3 0f 11 45 44	 movss	 DWORD PTR sign$[rbp], xmm0

; 2302 :     }
; 2303 :     else

  00165	eb 0d		 jmp	 SHORT $LN7@XMScalarSi
$LN6@XMScalarSi:

; 2304 :     {
; 2305 :         sign = +1.0f;

  00167	f3 0f 10 05 00
	00 00 00	 movss	 xmm0, DWORD PTR __real@3f800000
  0016f	f3 0f 11 45 44	 movss	 DWORD PTR sign$[rbp], xmm0
$LN7@XMScalarSi:
$LN5@XMScalarSi:

; 2306 :     }
; 2307 : 
; 2308 :     float y2 = y * y;

  00174	f3 0f 10 45 24	 movss	 xmm0, DWORD PTR y$[rbp]
  00179	f3 0f 59 45 24	 mulss	 xmm0, DWORD PTR y$[rbp]
  0017e	f3 0f 11 45 64	 movss	 DWORD PTR y2$[rbp], xmm0

; 2309 : 
; 2310 :     // 11-degree minimax approximation
; 2311 :     *pSin = ( ( ( ( (-2.3889859e-08f * y2 + 2.7525562e-06f) * y2 - 0.00019840874f ) * y2 + 0.0083333310f ) * y2 - 0.16666667f ) * y2 + 1.0f ) * y;

  00183	f3 0f 10 05 00
	00 00 00	 movss	 xmm0, DWORD PTR __real@b2cd365b
  0018b	f3 0f 59 45 64	 mulss	 xmm0, DWORD PTR y2$[rbp]
  00190	f3 0f 58 05 00
	00 00 00	 addss	 xmm0, DWORD PTR __real@3638b88e
  00198	f3 0f 59 45 64	 mulss	 xmm0, DWORD PTR y2$[rbp]
  0019d	f3 0f 5c 05 00
	00 00 00	 subss	 xmm0, DWORD PTR __real@39500bf1
  001a5	f3 0f 59 45 64	 mulss	 xmm0, DWORD PTR y2$[rbp]
  001aa	f3 0f 58 05 00
	00 00 00	 addss	 xmm0, DWORD PTR __real@3c088886
  001b2	f3 0f 59 45 64	 mulss	 xmm0, DWORD PTR y2$[rbp]
  001b7	f3 0f 5c 05 00
	00 00 00	 subss	 xmm0, DWORD PTR __real@3e2aaaab
  001bf	f3 0f 59 45 64	 mulss	 xmm0, DWORD PTR y2$[rbp]
  001c4	f3 0f 58 05 00
	00 00 00	 addss	 xmm0, DWORD PTR __real@3f800000
  001cc	f3 0f 59 45 24	 mulss	 xmm0, DWORD PTR y$[rbp]
  001d1	48 8b 85 80 01
	00 00		 mov	 rax, QWORD PTR pSin$[rbp]
  001d8	f3 0f 11 00	 movss	 DWORD PTR [rax], xmm0

; 2312 : 
; 2313 :     // 10-degree minimax approximation
; 2314 :     float p = ( ( ( ( -2.6051615e-07f * y2 + 2.4760495e-05f ) * y2 - 0.0013888378f ) * y2 + 0.041666638f ) * y2 - 0.5f ) * y2 + 1.0f;

  001dc	f3 0f 10 05 00
	00 00 00	 movss	 xmm0, DWORD PTR __real@b48bdd11
  001e4	f3 0f 59 45 64	 mulss	 xmm0, DWORD PTR y2$[rbp]
  001e9	f3 0f 58 05 00
	00 00 00	 addss	 xmm0, DWORD PTR __real@37cfb4c2
  001f1	f3 0f 59 45 64	 mulss	 xmm0, DWORD PTR y2$[rbp]
  001f6	f3 0f 5c 05 00
	00 00 00	 subss	 xmm0, DWORD PTR __real@3ab609aa
  001fe	f3 0f 59 45 64	 mulss	 xmm0, DWORD PTR y2$[rbp]
  00203	f3 0f 58 05 00
	00 00 00	 addss	 xmm0, DWORD PTR __real@3d2aaaa3
  0020b	f3 0f 59 45 64	 mulss	 xmm0, DWORD PTR y2$[rbp]
  00210	f3 0f 5c 05 00
	00 00 00	 subss	 xmm0, DWORD PTR __real@3f000000
  00218	f3 0f 59 45 64	 mulss	 xmm0, DWORD PTR y2$[rbp]
  0021d	f3 0f 58 05 00
	00 00 00	 addss	 xmm0, DWORD PTR __real@3f800000
  00225	f3 0f 11 85 84
	00 00 00	 movss	 DWORD PTR p$[rbp], xmm0

; 2315 :     *pCos = sign*p;

  0022d	f3 0f 10 45 44	 movss	 xmm0, DWORD PTR sign$[rbp]
  00232	f3 0f 59 85 84
	00 00 00	 mulss	 xmm0, DWORD PTR p$[rbp]
  0023a	48 8b 85 88 01
	00 00		 mov	 rax, QWORD PTR pCos$[rbp]
  00241	f3 0f 11 00	 movss	 DWORD PTR [rax], xmm0

; 2316 : }

  00245	48 8d a5 68 01
	00 00		 lea	 rsp, QWORD PTR [rbp+360]
  0024c	5f		 pop	 rdi
  0024d	5d		 pop	 rbp
  0024e	c3		 ret	 0
?XMScalarSinCos@DirectX@@YAXPEAM0M@Z ENDP		; DirectX::XMScalarSinCos
_TEXT	ENDS
; Function compile flags: /Odtp /RTCsu /ZI
; File c:\program files (x86)\windows kits\8.1\include\um\directxmathmatrix.inl
;	COMDAT ?XMMatrixRotationZ@DirectX@@YQ?AUXMMATRIX@1@M@Z
_TEXT	SEGMENT
SinAngle$ = 4
CosAngle$ = 36
vSin$ = 80
vCos$ = 128
M$ = 176
$T6 = 656
$T7 = 704
$T8 = 752
$T9 = 800
$T10 = 848
$T11 = 896
$T12 = 944
$T13 = 992
__$ArrayPad$ = 1016
Angle$ = 1056
?XMMatrixRotationZ@DirectX@@YQ?AUXMMATRIX@1@M@Z PROC	; DirectX::XMMatrixRotationZ, COMDAT

; 1397 : {

$LN3:
  00000	f3 0f 11 44 24
	08		 movss	 DWORD PTR [rsp+8], xmm0
  00006	55		 push	 rbp
  00007	57		 push	 rdi
  00008	48 81 ec 38 04
	00 00		 sub	 rsp, 1080		; 00000438H
  0000f	48 8d 6c 24 30	 lea	 rbp, QWORD PTR [rsp+48]
  00014	48 8b fc	 mov	 rdi, rsp
  00017	b9 0e 01 00 00	 mov	 ecx, 270		; 0000010eH
  0001c	b8 cc cc cc cc	 mov	 eax, -858993460		; ccccccccH
  00021	f3 ab		 rep stosd
  00023	48 8b 05 00 00
	00 00		 mov	 rax, QWORD PTR __security_cookie
  0002a	48 33 c5	 xor	 rax, rbp
  0002d	48 89 85 f8 03
	00 00		 mov	 QWORD PTR __$ArrayPad$[rbp], rax

; 1398 : #if defined(_XM_NO_INTRINSICS_)
; 1399 :  
; 1400 :     float    fSinAngle;
; 1401 :     float    fCosAngle;
; 1402 :     XMScalarSinCos(&fSinAngle, &fCosAngle, Angle);
; 1403 : 
; 1404 :     XMMATRIX M;
; 1405 :     M.m[0][0] = fCosAngle;
; 1406 :     M.m[0][1] = fSinAngle;
; 1407 :     M.m[0][2] = 0.0f;
; 1408 :     M.m[0][3] = 0.0f;
; 1409 : 
; 1410 :     M.m[1][0] = -fSinAngle;
; 1411 :     M.m[1][1] = fCosAngle;
; 1412 :     M.m[1][2] = 0.0f;
; 1413 :     M.m[1][3] = 0.0f;
; 1414 : 
; 1415 :     M.m[2][0] = 0.0f;
; 1416 :     M.m[2][1] = 0.0f;
; 1417 :     M.m[2][2] = 1.0f;
; 1418 :     M.m[2][3] = 0.0f;
; 1419 : 
; 1420 :     M.m[3][0] = 0.0f;
; 1421 :     M.m[3][1] = 0.0f;
; 1422 :     M.m[3][2] = 0.0f;
; 1423 :     M.m[3][3] = 1.0f;
; 1424 :     return M;
; 1425 : 
; 1426 : #elif defined(_XM_ARM_NEON_INTRINSICS_)
; 1427 :     float    fSinAngle;
; 1428 :     float    fCosAngle;
; 1429 :     XMScalarSinCos(&fSinAngle, &fCosAngle, Angle);
; 1430 : 
; 1431 :     const XMVECTOR Zero = vdupq_n_f32(0);
; 1432 : 
; 1433 :     XMVECTOR T0 = vsetq_lane_f32( fCosAngle, Zero, 0 );
; 1434 :     T0 = vsetq_lane_f32( fSinAngle, T0, 1 );
; 1435 : 
; 1436 :     XMVECTOR T1 = vsetq_lane_f32( -fSinAngle, Zero, 0 );
; 1437 :     T1 = vsetq_lane_f32( fCosAngle, T1, 1 );
; 1438 : 
; 1439 :     XMMATRIX M;
; 1440 :     M.r[0] = T0;
; 1441 :     M.r[1] = T1;
; 1442 :     M.r[2] = g_XMIdentityR2.v;
; 1443 :     M.r[3] = g_XMIdentityR3.v;
; 1444 :     return M;
; 1445 : #elif defined(_XM_SSE_INTRINSICS_)
; 1446 :     float    SinAngle;
; 1447 :     float    CosAngle;
; 1448 :     XMScalarSinCos(&SinAngle, &CosAngle, Angle);

  00034	f3 0f 10 95 20
	04 00 00	 movss	 xmm2, DWORD PTR Angle$[rbp]
  0003c	48 8d 55 24	 lea	 rdx, QWORD PTR CosAngle$[rbp]
  00040	48 8d 4d 04	 lea	 rcx, QWORD PTR SinAngle$[rbp]
  00044	e8 00 00 00 00	 call	 ?XMScalarSinCos@DirectX@@YAXPEAM0M@Z ; DirectX::XMScalarSinCos

; 1449 : 
; 1450 :     XMVECTOR vSin = _mm_set_ss(SinAngle);

  00049	f3 0f 10 45 04	 movss	 xmm0, DWORD PTR SinAngle$[rbp]
  0004e	0f 57 c9	 xorps	 xmm1, xmm1
  00051	f3 0f 10 c8	 movss	 xmm1, xmm0
  00055	0f 28 c1	 movaps	 xmm0, xmm1
  00058	0f 29 85 90 02
	00 00		 movaps	 XMMWORD PTR $T6[rbp], xmm0
  0005f	0f 28 85 90 02
	00 00		 movaps	 xmm0, XMMWORD PTR $T6[rbp]
  00066	0f 29 45 50	 movaps	 XMMWORD PTR vSin$[rbp], xmm0

; 1451 :     XMVECTOR vCos = _mm_set_ss(CosAngle);

  0006a	f3 0f 10 45 24	 movss	 xmm0, DWORD PTR CosAngle$[rbp]
  0006f	0f 57 c9	 xorps	 xmm1, xmm1
  00072	f3 0f 10 c8	 movss	 xmm1, xmm0
  00076	0f 28 c1	 movaps	 xmm0, xmm1
  00079	0f 29 85 c0 02
	00 00		 movaps	 XMMWORD PTR $T7[rbp], xmm0
  00080	0f 28 85 c0 02
	00 00		 movaps	 xmm0, XMMWORD PTR $T7[rbp]
  00087	0f 29 85 80 00
	00 00		 movaps	 XMMWORD PTR vCos$[rbp], xmm0

; 1452 :     // x = cos,y = sin,z = 0, w = 0
; 1453 :     vCos = _mm_unpacklo_ps(vCos,vSin);

  0008e	0f 28 85 80 00
	00 00		 movaps	 xmm0, XMMWORD PTR vCos$[rbp]
  00095	0f 14 45 50	 unpcklps xmm0, XMMWORD PTR vSin$[rbp]
  00099	0f 29 85 f0 02
	00 00		 movaps	 XMMWORD PTR $T8[rbp], xmm0
  000a0	0f 28 85 f0 02
	00 00		 movaps	 xmm0, XMMWORD PTR $T8[rbp]
  000a7	0f 29 85 80 00
	00 00		 movaps	 XMMWORD PTR vCos$[rbp], xmm0

; 1454 :     XMMATRIX M;

  000ae	48 8d 8d b0 00
	00 00		 lea	 rcx, QWORD PTR M$[rbp]
  000b5	e8 00 00 00 00	 call	 ??0XMMATRIX@DirectX@@QEAA@XZ ; DirectX::XMMATRIX::XMMATRIX

; 1455 :     M.r[0] = vCos;

  000ba	b8 10 00 00 00	 mov	 eax, 16
  000bf	48 6b c0 00	 imul	 rax, rax, 0
  000c3	0f 28 85 80 00
	00 00		 movaps	 xmm0, XMMWORD PTR vCos$[rbp]
  000ca	0f 11 84 05 b0
	00 00 00	 movups	 XMMWORD PTR M$[rbp+rax], xmm0

; 1456 :     // x = sin,y = cos,z = 0, w = 0
; 1457 :     vCos = XM_PERMUTE_PS(vCos,_MM_SHUFFLE(3,2,0,1));

  000d2	0f 28 85 80 00
	00 00		 movaps	 xmm0, XMMWORD PTR vCos$[rbp]
  000d9	0f c6 85 80 00
	00 00 e1	 shufps	 xmm0, XMMWORD PTR vCos$[rbp], 225 ; 000000e1H
  000e1	0f 29 85 20 03
	00 00		 movaps	 XMMWORD PTR $T9[rbp], xmm0
  000e8	0f 28 85 20 03
	00 00		 movaps	 xmm0, XMMWORD PTR $T9[rbp]
  000ef	0f 29 85 80 00
	00 00		 movaps	 XMMWORD PTR vCos$[rbp], xmm0

; 1458 :     // x = cos,y = -sin,z = 0, w = 0
; 1459 :     vCos = _mm_mul_ps(vCos,g_XMNegateX);

  000f6	48 8d 95 80 03
	00 00		 lea	 rdx, QWORD PTR $T11[rbp]
  000fd	48 8d 0d 00 00
	00 00		 lea	 rcx, OFFSET FLAT:?g_XMNegateX@DirectX@@3UXMVECTORF32@1@B ; DirectX::g_XMNegateX
  00104	e8 00 00 00 00	 call	 ??BXMVECTORF32@DirectX@@QEBA?AT__m128@@XZ ; DirectX::XMVECTORF32::operator __m128
  00109	0f 28 85 80 00
	00 00		 movaps	 xmm0, XMMWORD PTR vCos$[rbp]
  00110	0f 59 00	 mulps	 xmm0, XMMWORD PTR [rax]
  00113	0f 29 85 50 03
	00 00		 movaps	 XMMWORD PTR $T10[rbp], xmm0
  0011a	0f 28 85 50 03
	00 00		 movaps	 xmm0, XMMWORD PTR $T10[rbp]
  00121	0f 29 85 80 00
	00 00		 movaps	 XMMWORD PTR vCos$[rbp], xmm0

; 1460 :     M.r[1] = vCos;

  00128	b8 10 00 00 00	 mov	 eax, 16
  0012d	48 6b c0 01	 imul	 rax, rax, 1
  00131	0f 28 85 80 00
	00 00		 movaps	 xmm0, XMMWORD PTR vCos$[rbp]
  00138	0f 11 84 05 b0
	00 00 00	 movups	 XMMWORD PTR M$[rbp+rax], xmm0

; 1461 :     M.r[2] = g_XMIdentityR2;

  00140	48 8d 95 b0 03
	00 00		 lea	 rdx, QWORD PTR $T12[rbp]
  00147	48 8d 0d 00 00
	00 00		 lea	 rcx, OFFSET FLAT:?g_XMIdentityR2@DirectX@@3UXMVECTORF32@1@B ; DirectX::g_XMIdentityR2
  0014e	e8 00 00 00 00	 call	 ??BXMVECTORF32@DirectX@@QEBA?AT__m128@@XZ ; DirectX::XMVECTORF32::operator __m128
  00153	b9 10 00 00 00	 mov	 ecx, 16
  00158	48 6b c9 02	 imul	 rcx, rcx, 2
  0015c	0f 10 00	 movups	 xmm0, XMMWORD PTR [rax]
  0015f	0f 11 84 0d b0
	00 00 00	 movups	 XMMWORD PTR M$[rbp+rcx], xmm0

; 1462 :     M.r[3] = g_XMIdentityR3;

  00167	48 8d 95 e0 03
	00 00		 lea	 rdx, QWORD PTR $T13[rbp]
  0016e	48 8d 0d 00 00
	00 00		 lea	 rcx, OFFSET FLAT:?g_XMIdentityR3@DirectX@@3UXMVECTORF32@1@B ; DirectX::g_XMIdentityR3
  00175	e8 00 00 00 00	 call	 ??BXMVECTORF32@DirectX@@QEBA?AT__m128@@XZ ; DirectX::XMVECTORF32::operator __m128
  0017a	b9 10 00 00 00	 mov	 ecx, 16
  0017f	48 6b c9 03	 imul	 rcx, rcx, 3
  00183	0f 10 00	 movups	 xmm0, XMMWORD PTR [rax]
  00186	0f 11 84 0d b0
	00 00 00	 movups	 XMMWORD PTR M$[rbp+rcx], xmm0

; 1463 :     return M;

  0018e	0f 28 9d e0 00
	00 00		 movaps	 xmm3, XMMWORD PTR M$[rbp+48]
  00195	0f 28 95 d0 00
	00 00		 movaps	 xmm2, XMMWORD PTR M$[rbp+32]
  0019c	0f 28 8d c0 00
	00 00		 movaps	 xmm1, XMMWORD PTR M$[rbp+16]
  001a3	0f 28 85 b0 00
	00 00		 movaps	 xmm0, XMMWORD PTR M$[rbp]

; 1464 : #endif
; 1465 : }

  001aa	f3 0f 7f 44 24
	20		 movdqu	 XMMWORD PTR [rsp+32], xmm0
  001b0	48 8d 4d d0	 lea	 rcx, QWORD PTR [rbp-48]
  001b4	48 8d 15 00 00
	00 00		 lea	 rdx, OFFSET FLAT:?XMMatrixRotationZ@DirectX@@YQ?AUXMMATRIX@1@M@Z$rtcFrameData
  001bb	e8 00 00 00 00	 call	 _RTC_CheckStackVars
  001c0	f3 0f 6f 44 24
	20		 movdqu	 xmm0, XMMWORD PTR [rsp+32]
  001c6	48 8b 8d f8 03
	00 00		 mov	 rcx, QWORD PTR __$ArrayPad$[rbp]
  001cd	48 33 cd	 xor	 rcx, rbp
  001d0	e8 00 00 00 00	 call	 __security_check_cookie
  001d5	48 8d a5 08 04
	00 00		 lea	 rsp, QWORD PTR [rbp+1032]
  001dc	5f		 pop	 rdi
  001dd	5d		 pop	 rbp
  001de	c3		 ret	 0
?XMMatrixRotationZ@DirectX@@YQ?AUXMMATRIX@1@M@Z ENDP	; DirectX::XMMatrixRotationZ
_TEXT	ENDS
; Function compile flags: /Odtp /RTCsu /ZI
; File c:\program files (x86)\windows kits\8.1\include\um\directxmathmatrix.inl
;	COMDAT ?XMMatrixRotationY@DirectX@@YQ?AUXMMATRIX@1@M@Z
_TEXT	SEGMENT
SinAngle$ = 4
CosAngle$ = 36
vSin$ = 80
vCos$ = 128
M$ = 176
$T6 = 656
$T7 = 704
$T8 = 752
$T9 = 800
$T10 = 848
$T11 = 896
$T12 = 944
$T13 = 992
__$ArrayPad$ = 1016
Angle$ = 1056
?XMMatrixRotationY@DirectX@@YQ?AUXMMATRIX@1@M@Z PROC	; DirectX::XMMatrixRotationY, COMDAT

; 1321 : {

$LN3:
  00000	f3 0f 11 44 24
	08		 movss	 DWORD PTR [rsp+8], xmm0
  00006	55		 push	 rbp
  00007	57		 push	 rdi
  00008	48 81 ec 38 04
	00 00		 sub	 rsp, 1080		; 00000438H
  0000f	48 8d 6c 24 30	 lea	 rbp, QWORD PTR [rsp+48]
  00014	48 8b fc	 mov	 rdi, rsp
  00017	b9 0e 01 00 00	 mov	 ecx, 270		; 0000010eH
  0001c	b8 cc cc cc cc	 mov	 eax, -858993460		; ccccccccH
  00021	f3 ab		 rep stosd
  00023	48 8b 05 00 00
	00 00		 mov	 rax, QWORD PTR __security_cookie
  0002a	48 33 c5	 xor	 rax, rbp
  0002d	48 89 85 f8 03
	00 00		 mov	 QWORD PTR __$ArrayPad$[rbp], rax

; 1322 : #if defined(_XM_NO_INTRINSICS_)
; 1323 :  
; 1324 :     float    fSinAngle;
; 1325 :     float    fCosAngle;
; 1326 :     XMScalarSinCos(&fSinAngle, &fCosAngle, Angle);
; 1327 : 
; 1328 :     XMMATRIX M;
; 1329 :     M.m[0][0] = fCosAngle;
; 1330 :     M.m[0][1] = 0.0f;
; 1331 :     M.m[0][2] = -fSinAngle;
; 1332 :     M.m[0][3] = 0.0f;
; 1333 : 
; 1334 :     M.m[1][0] = 0.0f;
; 1335 :     M.m[1][1] = 1.0f;
; 1336 :     M.m[1][2] = 0.0f;
; 1337 :     M.m[1][3] = 0.0f;
; 1338 : 
; 1339 :     M.m[2][0] = fSinAngle;
; 1340 :     M.m[2][1] = 0.0f;
; 1341 :     M.m[2][2] = fCosAngle;
; 1342 :     M.m[2][3] = 0.0f;
; 1343 : 
; 1344 :     M.m[3][0] = 0.0f;
; 1345 :     M.m[3][1] = 0.0f;
; 1346 :     M.m[3][2] = 0.0f;
; 1347 :     M.m[3][3] = 1.0f;
; 1348 :     return M;
; 1349 : 
; 1350 : #elif defined(_XM_ARM_NEON_INTRINSICS_)
; 1351 :     float    fSinAngle;
; 1352 :     float    fCosAngle;
; 1353 :     XMScalarSinCos(&fSinAngle, &fCosAngle, Angle);
; 1354 : 
; 1355 :     const XMVECTOR Zero = vdupq_n_f32(0);
; 1356 : 
; 1357 :     XMVECTOR T0 = vsetq_lane_f32( fCosAngle, Zero, 0 );
; 1358 :     T0 = vsetq_lane_f32( -fSinAngle, T0, 2 );
; 1359 : 
; 1360 :     XMVECTOR T2 = vsetq_lane_f32( fSinAngle, Zero, 0 );
; 1361 :     T2 = vsetq_lane_f32( fCosAngle, T2, 2 );
; 1362 : 
; 1363 :     XMMATRIX M;
; 1364 :     M.r[0] = T0;
; 1365 :     M.r[1] = g_XMIdentityR1.v;
; 1366 :     M.r[2] = T2;
; 1367 :     M.r[3] = g_XMIdentityR3.v;
; 1368 :     return M;
; 1369 : #elif defined(_XM_SSE_INTRINSICS_)
; 1370 :     float    SinAngle;
; 1371 :     float    CosAngle;
; 1372 :     XMScalarSinCos(&SinAngle, &CosAngle, Angle);

  00034	f3 0f 10 95 20
	04 00 00	 movss	 xmm2, DWORD PTR Angle$[rbp]
  0003c	48 8d 55 24	 lea	 rdx, QWORD PTR CosAngle$[rbp]
  00040	48 8d 4d 04	 lea	 rcx, QWORD PTR SinAngle$[rbp]
  00044	e8 00 00 00 00	 call	 ?XMScalarSinCos@DirectX@@YAXPEAM0M@Z ; DirectX::XMScalarSinCos

; 1373 : 
; 1374 :     XMVECTOR vSin = _mm_set_ss(SinAngle);

  00049	f3 0f 10 45 04	 movss	 xmm0, DWORD PTR SinAngle$[rbp]
  0004e	0f 57 c9	 xorps	 xmm1, xmm1
  00051	f3 0f 10 c8	 movss	 xmm1, xmm0
  00055	0f 28 c1	 movaps	 xmm0, xmm1
  00058	0f 29 85 90 02
	00 00		 movaps	 XMMWORD PTR $T6[rbp], xmm0
  0005f	0f 28 85 90 02
	00 00		 movaps	 xmm0, XMMWORD PTR $T6[rbp]
  00066	0f 29 45 50	 movaps	 XMMWORD PTR vSin$[rbp], xmm0

; 1375 :     XMVECTOR vCos = _mm_set_ss(CosAngle);

  0006a	f3 0f 10 45 24	 movss	 xmm0, DWORD PTR CosAngle$[rbp]
  0006f	0f 57 c9	 xorps	 xmm1, xmm1
  00072	f3 0f 10 c8	 movss	 xmm1, xmm0
  00076	0f 28 c1	 movaps	 xmm0, xmm1
  00079	0f 29 85 c0 02
	00 00		 movaps	 XMMWORD PTR $T7[rbp], xmm0
  00080	0f 28 85 c0 02
	00 00		 movaps	 xmm0, XMMWORD PTR $T7[rbp]
  00087	0f 29 85 80 00
	00 00		 movaps	 XMMWORD PTR vCos$[rbp], xmm0

; 1376 :     // x = sin,y = 0,z = cos, w = 0
; 1377 :     vSin = _mm_shuffle_ps(vSin,vCos,_MM_SHUFFLE(3,0,3,0));

  0008e	0f 28 45 50	 movaps	 xmm0, XMMWORD PTR vSin$[rbp]
  00092	0f c6 85 80 00
	00 00 cc	 shufps	 xmm0, XMMWORD PTR vCos$[rbp], 204 ; 000000ccH
  0009a	0f 29 85 f0 02
	00 00		 movaps	 XMMWORD PTR $T8[rbp], xmm0
  000a1	0f 28 85 f0 02
	00 00		 movaps	 xmm0, XMMWORD PTR $T8[rbp]
  000a8	0f 29 45 50	 movaps	 XMMWORD PTR vSin$[rbp], xmm0

; 1378 :     XMMATRIX M;

  000ac	48 8d 8d b0 00
	00 00		 lea	 rcx, QWORD PTR M$[rbp]
  000b3	e8 00 00 00 00	 call	 ??0XMMATRIX@DirectX@@QEAA@XZ ; DirectX::XMMATRIX::XMMATRIX

; 1379 :     M.r[2] = vSin;

  000b8	b8 10 00 00 00	 mov	 eax, 16
  000bd	48 6b c0 02	 imul	 rax, rax, 2
  000c1	0f 28 45 50	 movaps	 xmm0, XMMWORD PTR vSin$[rbp]
  000c5	0f 11 84 05 b0
	00 00 00	 movups	 XMMWORD PTR M$[rbp+rax], xmm0

; 1380 :     M.r[1] = g_XMIdentityR1;

  000cd	48 8d 95 20 03
	00 00		 lea	 rdx, QWORD PTR $T9[rbp]
  000d4	48 8d 0d 00 00
	00 00		 lea	 rcx, OFFSET FLAT:?g_XMIdentityR1@DirectX@@3UXMVECTORF32@1@B ; DirectX::g_XMIdentityR1
  000db	e8 00 00 00 00	 call	 ??BXMVECTORF32@DirectX@@QEBA?AT__m128@@XZ ; DirectX::XMVECTORF32::operator __m128
  000e0	b9 10 00 00 00	 mov	 ecx, 16
  000e5	48 6b c9 01	 imul	 rcx, rcx, 1
  000e9	0f 10 00	 movups	 xmm0, XMMWORD PTR [rax]
  000ec	0f 11 84 0d b0
	00 00 00	 movups	 XMMWORD PTR M$[rbp+rcx], xmm0

; 1381 :     // x = cos,y = 0,z = sin, w = 0
; 1382 :     vSin = XM_PERMUTE_PS(vSin,_MM_SHUFFLE(3,0,1,2));

  000f4	0f 28 45 50	 movaps	 xmm0, XMMWORD PTR vSin$[rbp]
  000f8	0f c6 45 50 c6	 shufps	 xmm0, XMMWORD PTR vSin$[rbp], 198 ; 000000c6H
  000fd	0f 29 85 50 03
	00 00		 movaps	 XMMWORD PTR $T10[rbp], xmm0
  00104	0f 28 85 50 03
	00 00		 movaps	 xmm0, XMMWORD PTR $T10[rbp]
  0010b	0f 29 45 50	 movaps	 XMMWORD PTR vSin$[rbp], xmm0

; 1383 :     // x = cos,y = 0,z = -sin, w = 0
; 1384 :     vSin = _mm_mul_ps(vSin,g_XMNegateZ);

  0010f	48 8d 95 b0 03
	00 00		 lea	 rdx, QWORD PTR $T12[rbp]
  00116	48 8d 0d 00 00
	00 00		 lea	 rcx, OFFSET FLAT:?g_XMNegateZ@DirectX@@3UXMVECTORF32@1@B ; DirectX::g_XMNegateZ
  0011d	e8 00 00 00 00	 call	 ??BXMVECTORF32@DirectX@@QEBA?AT__m128@@XZ ; DirectX::XMVECTORF32::operator __m128
  00122	0f 28 45 50	 movaps	 xmm0, XMMWORD PTR vSin$[rbp]
  00126	0f 59 00	 mulps	 xmm0, XMMWORD PTR [rax]
  00129	0f 29 85 80 03
	00 00		 movaps	 XMMWORD PTR $T11[rbp], xmm0
  00130	0f 28 85 80 03
	00 00		 movaps	 xmm0, XMMWORD PTR $T11[rbp]
  00137	0f 29 45 50	 movaps	 XMMWORD PTR vSin$[rbp], xmm0

; 1385 :     M.r[0] = vSin;

  0013b	b8 10 00 00 00	 mov	 eax, 16
  00140	48 6b c0 00	 imul	 rax, rax, 0
  00144	0f 28 45 50	 movaps	 xmm0, XMMWORD PTR vSin$[rbp]
  00148	0f 11 84 05 b0
	00 00 00	 movups	 XMMWORD PTR M$[rbp+rax], xmm0

; 1386 :     M.r[3] = g_XMIdentityR3;

  00150	48 8d 95 e0 03
	00 00		 lea	 rdx, QWORD PTR $T13[rbp]
  00157	48 8d 0d 00 00
	00 00		 lea	 rcx, OFFSET FLAT:?g_XMIdentityR3@DirectX@@3UXMVECTORF32@1@B ; DirectX::g_XMIdentityR3
  0015e	e8 00 00 00 00	 call	 ??BXMVECTORF32@DirectX@@QEBA?AT__m128@@XZ ; DirectX::XMVECTORF32::operator __m128
  00163	b9 10 00 00 00	 mov	 ecx, 16
  00168	48 6b c9 03	 imul	 rcx, rcx, 3
  0016c	0f 10 00	 movups	 xmm0, XMMWORD PTR [rax]
  0016f	0f 11 84 0d b0
	00 00 00	 movups	 XMMWORD PTR M$[rbp+rcx], xmm0

; 1387 :     return M;

  00177	0f 28 9d e0 00
	00 00		 movaps	 xmm3, XMMWORD PTR M$[rbp+48]
  0017e	0f 28 95 d0 00
	00 00		 movaps	 xmm2, XMMWORD PTR M$[rbp+32]
  00185	0f 28 8d c0 00
	00 00		 movaps	 xmm1, XMMWORD PTR M$[rbp+16]
  0018c	0f 28 85 b0 00
	00 00		 movaps	 xmm0, XMMWORD PTR M$[rbp]

; 1388 : #endif
; 1389 : }

  00193	f3 0f 7f 44 24
	20		 movdqu	 XMMWORD PTR [rsp+32], xmm0
  00199	48 8d 4d d0	 lea	 rcx, QWORD PTR [rbp-48]
  0019d	48 8d 15 00 00
	00 00		 lea	 rdx, OFFSET FLAT:?XMMatrixRotationY@DirectX@@YQ?AUXMMATRIX@1@M@Z$rtcFrameData
  001a4	e8 00 00 00 00	 call	 _RTC_CheckStackVars
  001a9	f3 0f 6f 44 24
	20		 movdqu	 xmm0, XMMWORD PTR [rsp+32]
  001af	48 8b 8d f8 03
	00 00		 mov	 rcx, QWORD PTR __$ArrayPad$[rbp]
  001b6	48 33 cd	 xor	 rcx, rbp
  001b9	e8 00 00 00 00	 call	 __security_check_cookie
  001be	48 8d a5 08 04
	00 00		 lea	 rsp, QWORD PTR [rbp+1032]
  001c5	5f		 pop	 rdi
  001c6	5d		 pop	 rbp
  001c7	c3		 ret	 0
?XMMatrixRotationY@DirectX@@YQ?AUXMMATRIX@1@M@Z ENDP	; DirectX::XMMatrixRotationY
_TEXT	ENDS
; Function compile flags: /Odtp /RTCsu /ZI
; File c:\program files (x86)\windows kits\8.1\include\um\directxmathmatrix.inl
;	COMDAT ?XMMatrixRotationX@DirectX@@YQ?AUXMMATRIX@1@M@Z
_TEXT	SEGMENT
SinAngle$ = 4
CosAngle$ = 36
vSin$ = 80
vCos$ = 128
M$ = 176
$T6 = 656
$T7 = 704
$T8 = 752
$T9 = 800
$T10 = 848
$T11 = 896
$T12 = 944
$T13 = 992
__$ArrayPad$ = 1016
Angle$ = 1056
?XMMatrixRotationX@DirectX@@YQ?AUXMMATRIX@1@M@Z PROC	; DirectX::XMMatrixRotationX, COMDAT

; 1245 : {

$LN3:
  00000	f3 0f 11 44 24
	08		 movss	 DWORD PTR [rsp+8], xmm0
  00006	55		 push	 rbp
  00007	57		 push	 rdi
  00008	48 81 ec 38 04
	00 00		 sub	 rsp, 1080		; 00000438H
  0000f	48 8d 6c 24 30	 lea	 rbp, QWORD PTR [rsp+48]
  00014	48 8b fc	 mov	 rdi, rsp
  00017	b9 0e 01 00 00	 mov	 ecx, 270		; 0000010eH
  0001c	b8 cc cc cc cc	 mov	 eax, -858993460		; ccccccccH
  00021	f3 ab		 rep stosd
  00023	48 8b 05 00 00
	00 00		 mov	 rax, QWORD PTR __security_cookie
  0002a	48 33 c5	 xor	 rax, rbp
  0002d	48 89 85 f8 03
	00 00		 mov	 QWORD PTR __$ArrayPad$[rbp], rax

; 1246 : #if defined(_XM_NO_INTRINSICS_)
; 1247 :  
; 1248 :     float    fSinAngle;
; 1249 :     float    fCosAngle;
; 1250 :     XMScalarSinCos(&fSinAngle, &fCosAngle, Angle);
; 1251 : 
; 1252 :     XMMATRIX M;
; 1253 :     M.m[0][0] = 1.0f;
; 1254 :     M.m[0][1] = 0.0f;
; 1255 :     M.m[0][2] = 0.0f;
; 1256 :     M.m[0][3] = 0.0f;
; 1257 : 
; 1258 :     M.m[1][0] = 0.0f;
; 1259 :     M.m[1][1] = fCosAngle;
; 1260 :     M.m[1][2] = fSinAngle;
; 1261 :     M.m[1][3] = 0.0f;
; 1262 : 
; 1263 :     M.m[2][0] = 0.0f;
; 1264 :     M.m[2][1] = -fSinAngle;
; 1265 :     M.m[2][2] = fCosAngle;
; 1266 :     M.m[2][3] = 0.0f;
; 1267 : 
; 1268 :     M.m[3][0] = 0.0f;
; 1269 :     M.m[3][1] = 0.0f;
; 1270 :     M.m[3][2] = 0.0f;
; 1271 :     M.m[3][3] = 1.0f;
; 1272 :     return M;
; 1273 : 
; 1274 : #elif defined(_XM_ARM_NEON_INTRINSICS_)
; 1275 :     float    fSinAngle;
; 1276 :     float    fCosAngle;
; 1277 :     XMScalarSinCos(&fSinAngle, &fCosAngle, Angle);
; 1278 : 
; 1279 :     const XMVECTOR Zero = vdupq_n_f32(0);
; 1280 : 
; 1281 :     XMVECTOR T1 = vsetq_lane_f32( fCosAngle, Zero, 1 );
; 1282 :     T1 = vsetq_lane_f32( fSinAngle, T1, 2 );
; 1283 : 
; 1284 :     XMVECTOR T2 = vsetq_lane_f32( -fSinAngle, Zero, 1 );
; 1285 :     T2 = vsetq_lane_f32( fCosAngle, T2, 2 );
; 1286 : 
; 1287 :     XMMATRIX M;
; 1288 :     M.r[0] = g_XMIdentityR0.v;
; 1289 :     M.r[1] = T1;
; 1290 :     M.r[2] = T2;
; 1291 :     M.r[3] = g_XMIdentityR3.v;
; 1292 :     return M;
; 1293 : #elif defined(_XM_SSE_INTRINSICS_)
; 1294 :     float    SinAngle;
; 1295 :     float    CosAngle;
; 1296 :     XMScalarSinCos(&SinAngle, &CosAngle, Angle);

  00034	f3 0f 10 95 20
	04 00 00	 movss	 xmm2, DWORD PTR Angle$[rbp]
  0003c	48 8d 55 24	 lea	 rdx, QWORD PTR CosAngle$[rbp]
  00040	48 8d 4d 04	 lea	 rcx, QWORD PTR SinAngle$[rbp]
  00044	e8 00 00 00 00	 call	 ?XMScalarSinCos@DirectX@@YAXPEAM0M@Z ; DirectX::XMScalarSinCos

; 1297 : 
; 1298 :     XMVECTOR vSin = _mm_set_ss(SinAngle);

  00049	f3 0f 10 45 04	 movss	 xmm0, DWORD PTR SinAngle$[rbp]
  0004e	0f 57 c9	 xorps	 xmm1, xmm1
  00051	f3 0f 10 c8	 movss	 xmm1, xmm0
  00055	0f 28 c1	 movaps	 xmm0, xmm1
  00058	0f 29 85 90 02
	00 00		 movaps	 XMMWORD PTR $T6[rbp], xmm0
  0005f	0f 28 85 90 02
	00 00		 movaps	 xmm0, XMMWORD PTR $T6[rbp]
  00066	0f 29 45 50	 movaps	 XMMWORD PTR vSin$[rbp], xmm0

; 1299 :     XMVECTOR vCos = _mm_set_ss(CosAngle);

  0006a	f3 0f 10 45 24	 movss	 xmm0, DWORD PTR CosAngle$[rbp]
  0006f	0f 57 c9	 xorps	 xmm1, xmm1
  00072	f3 0f 10 c8	 movss	 xmm1, xmm0
  00076	0f 28 c1	 movaps	 xmm0, xmm1
  00079	0f 29 85 c0 02
	00 00		 movaps	 XMMWORD PTR $T7[rbp], xmm0
  00080	0f 28 85 c0 02
	00 00		 movaps	 xmm0, XMMWORD PTR $T7[rbp]
  00087	0f 29 85 80 00
	00 00		 movaps	 XMMWORD PTR vCos$[rbp], xmm0

; 1300 :     // x = 0,y = cos,z = sin, w = 0
; 1301 :     vCos = _mm_shuffle_ps(vCos,vSin,_MM_SHUFFLE(3,0,0,3));

  0008e	0f 28 85 80 00
	00 00		 movaps	 xmm0, XMMWORD PTR vCos$[rbp]
  00095	0f c6 45 50 c3	 shufps	 xmm0, XMMWORD PTR vSin$[rbp], 195 ; 000000c3H
  0009a	0f 29 85 f0 02
	00 00		 movaps	 XMMWORD PTR $T8[rbp], xmm0
  000a1	0f 28 85 f0 02
	00 00		 movaps	 xmm0, XMMWORD PTR $T8[rbp]
  000a8	0f 29 85 80 00
	00 00		 movaps	 XMMWORD PTR vCos$[rbp], xmm0

; 1302 :     XMMATRIX M;

  000af	48 8d 8d b0 00
	00 00		 lea	 rcx, QWORD PTR M$[rbp]
  000b6	e8 00 00 00 00	 call	 ??0XMMATRIX@DirectX@@QEAA@XZ ; DirectX::XMMATRIX::XMMATRIX

; 1303 :     M.r[0] = g_XMIdentityR0;

  000bb	48 8d 95 20 03
	00 00		 lea	 rdx, QWORD PTR $T9[rbp]
  000c2	48 8d 0d 00 00
	00 00		 lea	 rcx, OFFSET FLAT:?g_XMIdentityR0@DirectX@@3UXMVECTORF32@1@B ; DirectX::g_XMIdentityR0
  000c9	e8 00 00 00 00	 call	 ??BXMVECTORF32@DirectX@@QEBA?AT__m128@@XZ ; DirectX::XMVECTORF32::operator __m128
  000ce	b9 10 00 00 00	 mov	 ecx, 16
  000d3	48 6b c9 00	 imul	 rcx, rcx, 0
  000d7	0f 10 00	 movups	 xmm0, XMMWORD PTR [rax]
  000da	0f 11 84 0d b0
	00 00 00	 movups	 XMMWORD PTR M$[rbp+rcx], xmm0

; 1304 :     M.r[1] = vCos;

  000e2	b8 10 00 00 00	 mov	 eax, 16
  000e7	48 6b c0 01	 imul	 rax, rax, 1
  000eb	0f 28 85 80 00
	00 00		 movaps	 xmm0, XMMWORD PTR vCos$[rbp]
  000f2	0f 11 84 05 b0
	00 00 00	 movups	 XMMWORD PTR M$[rbp+rax], xmm0

; 1305 :     // x = 0,y = sin,z = cos, w = 0
; 1306 :     vCos = XM_PERMUTE_PS(vCos,_MM_SHUFFLE(3,1,2,0));

  000fa	0f 28 85 80 00
	00 00		 movaps	 xmm0, XMMWORD PTR vCos$[rbp]
  00101	0f c6 85 80 00
	00 00 d8	 shufps	 xmm0, XMMWORD PTR vCos$[rbp], 216 ; 000000d8H
  00109	0f 29 85 50 03
	00 00		 movaps	 XMMWORD PTR $T10[rbp], xmm0
  00110	0f 28 85 50 03
	00 00		 movaps	 xmm0, XMMWORD PTR $T10[rbp]
  00117	0f 29 85 80 00
	00 00		 movaps	 XMMWORD PTR vCos$[rbp], xmm0

; 1307 :     // x = 0,y = -sin,z = cos, w = 0
; 1308 :     vCos = _mm_mul_ps(vCos,g_XMNegateY);

  0011e	48 8d 95 b0 03
	00 00		 lea	 rdx, QWORD PTR $T12[rbp]
  00125	48 8d 0d 00 00
	00 00		 lea	 rcx, OFFSET FLAT:?g_XMNegateY@DirectX@@3UXMVECTORF32@1@B ; DirectX::g_XMNegateY
  0012c	e8 00 00 00 00	 call	 ??BXMVECTORF32@DirectX@@QEBA?AT__m128@@XZ ; DirectX::XMVECTORF32::operator __m128
  00131	0f 28 85 80 00
	00 00		 movaps	 xmm0, XMMWORD PTR vCos$[rbp]
  00138	0f 59 00	 mulps	 xmm0, XMMWORD PTR [rax]
  0013b	0f 29 85 80 03
	00 00		 movaps	 XMMWORD PTR $T11[rbp], xmm0
  00142	0f 28 85 80 03
	00 00		 movaps	 xmm0, XMMWORD PTR $T11[rbp]
  00149	0f 29 85 80 00
	00 00		 movaps	 XMMWORD PTR vCos$[rbp], xmm0

; 1309 :     M.r[2] = vCos;

  00150	b8 10 00 00 00	 mov	 eax, 16
  00155	48 6b c0 02	 imul	 rax, rax, 2
  00159	0f 28 85 80 00
	00 00		 movaps	 xmm0, XMMWORD PTR vCos$[rbp]
  00160	0f 11 84 05 b0
	00 00 00	 movups	 XMMWORD PTR M$[rbp+rax], xmm0

; 1310 :     M.r[3] = g_XMIdentityR3;

  00168	48 8d 95 e0 03
	00 00		 lea	 rdx, QWORD PTR $T13[rbp]
  0016f	48 8d 0d 00 00
	00 00		 lea	 rcx, OFFSET FLAT:?g_XMIdentityR3@DirectX@@3UXMVECTORF32@1@B ; DirectX::g_XMIdentityR3
  00176	e8 00 00 00 00	 call	 ??BXMVECTORF32@DirectX@@QEBA?AT__m128@@XZ ; DirectX::XMVECTORF32::operator __m128
  0017b	b9 10 00 00 00	 mov	 ecx, 16
  00180	48 6b c9 03	 imul	 rcx, rcx, 3
  00184	0f 10 00	 movups	 xmm0, XMMWORD PTR [rax]
  00187	0f 11 84 0d b0
	00 00 00	 movups	 XMMWORD PTR M$[rbp+rcx], xmm0

; 1311 :     return M;

  0018f	0f 28 9d e0 00
	00 00		 movaps	 xmm3, XMMWORD PTR M$[rbp+48]
  00196	0f 28 95 d0 00
	00 00		 movaps	 xmm2, XMMWORD PTR M$[rbp+32]
  0019d	0f 28 8d c0 00
	00 00		 movaps	 xmm1, XMMWORD PTR M$[rbp+16]
  001a4	0f 28 85 b0 00
	00 00		 movaps	 xmm0, XMMWORD PTR M$[rbp]

; 1312 : #endif
; 1313 : }

  001ab	f3 0f 7f 44 24
	20		 movdqu	 XMMWORD PTR [rsp+32], xmm0
  001b1	48 8d 4d d0	 lea	 rcx, QWORD PTR [rbp-48]
  001b5	48 8d 15 00 00
	00 00		 lea	 rdx, OFFSET FLAT:?XMMatrixRotationX@DirectX@@YQ?AUXMMATRIX@1@M@Z$rtcFrameData
  001bc	e8 00 00 00 00	 call	 _RTC_CheckStackVars
  001c1	f3 0f 6f 44 24
	20		 movdqu	 xmm0, XMMWORD PTR [rsp+32]
  001c7	48 8b 8d f8 03
	00 00		 mov	 rcx, QWORD PTR __$ArrayPad$[rbp]
  001ce	48 33 cd	 xor	 rcx, rbp
  001d1	e8 00 00 00 00	 call	 __security_check_cookie
  001d6	48 8d a5 08 04
	00 00		 lea	 rsp, QWORD PTR [rbp+1032]
  001dd	5f		 pop	 rdi
  001de	5d		 pop	 rbp
  001df	c3		 ret	 0
?XMMatrixRotationX@DirectX@@YQ?AUXMMATRIX@1@M@Z ENDP	; DirectX::XMMatrixRotationX
_TEXT	ENDS
; Function compile flags: /Odtp /RTCsu /ZI
; File c:\program files (x86)\windows kits\8.1\include\um\directxmathmatrix.inl
;	COMDAT ?XMMatrixMultiply@DirectX@@YQ?AUXMMATRIX@1@U21@AEBU21@@Z
_TEXT	SEGMENT
M1$ = 16
mResult$ = 112
vW$ = 208
vX$ = 256
vY$ = 304
vZ$ = 352
$T5 = 1360
$T6 = 1408
$T7 = 1456
$T8 = 1504
$T9 = 1552
$T10 = 1600
$T11 = 1648
$T12 = 1696
$T13 = 1744
$T14 = 1792
$T15 = 1840
$T16 = 1888
$T17 = 1936
$T18 = 1984
$T19 = 2032
$T20 = 2080
$T21 = 2128
$T22 = 2176
$T23 = 2224
$T24 = 2272
$T25 = 2320
$T26 = 2368
$T27 = 2416
$T28 = 2464
$T29 = 2512
$T30 = 2560
$T31 = 2608
$T32 = 2656
$T33 = 2704
$T34 = 2752
$T35 = 2800
$T36 = 2848
$T37 = 2896
$T38 = 2944
$T39 = 2992
$T40 = 3040
$T41 = 3088
$T42 = 3136
$T43 = 3184
$T44 = 3232
$T45 = 3280
$T46 = 3328
$T47 = 3376
$T48 = 3424
__$ArrayPad$ = 3448
M2$ = 3496
?XMMatrixMultiply@DirectX@@YQ?AUXMMATRIX@1@U21@AEBU21@@Z PROC ; DirectX::XMMatrixMultiply, COMDAT

; 226  : {

$LN3:
  00000	48 89 54 24 10	 mov	 QWORD PTR [rsp+16], rdx
  00005	55		 push	 rbp
  00006	57		 push	 rdi
  00007	48 81 ec b8 0d
	00 00		 sub	 rsp, 3512		; 00000db8H
  0000e	48 8d 6c 24 30	 lea	 rbp, QWORD PTR [rsp+48]
  00013	48 8b fc	 mov	 rdi, rsp
  00016	b9 6e 03 00 00	 mov	 ecx, 878		; 0000036eH
  0001b	b8 cc cc cc cc	 mov	 eax, -858993460		; ccccccccH
  00020	f3 ab		 rep stosd
  00022	48 8b 05 00 00
	00 00		 mov	 rax, QWORD PTR __security_cookie
  00029	48 33 c5	 xor	 rax, rbp
  0002c	48 89 85 78 0d
	00 00		 mov	 QWORD PTR __$ArrayPad$[rbp], rax
  00033	48 8d 45 10	 lea	 rax, QWORD PTR M1$[rbp]
  00037	48 89 84 24 d0
	0d 00 00	 mov	 QWORD PTR [rsp+3536], rax
  0003f	0f 29 5d 40	 movaps	 XMMWORD PTR M1$[rbp+48], xmm3
  00043	0f 29 55 30	 movaps	 XMMWORD PTR M1$[rbp+32], xmm2
  00047	0f 29 4d 20	 movaps	 XMMWORD PTR M1$[rbp+16], xmm1
  0004b	0f 29 45 10	 movaps	 XMMWORD PTR M1$[rbp], xmm0

; 227  : #if defined(_XM_NO_INTRINSICS_)
; 228  :     XMMATRIX mResult;
; 229  :     // Cache the invariants in registers
; 230  :     float x = M1.m[0][0];
; 231  :     float y = M1.m[0][1];
; 232  :     float z = M1.m[0][2];
; 233  :     float w = M1.m[0][3];
; 234  :     // Perform the operation on the first row
; 235  :     mResult.m[0][0] = (M2.m[0][0]*x)+(M2.m[1][0]*y)+(M2.m[2][0]*z)+(M2.m[3][0]*w);
; 236  :     mResult.m[0][1] = (M2.m[0][1]*x)+(M2.m[1][1]*y)+(M2.m[2][1]*z)+(M2.m[3][1]*w);
; 237  :     mResult.m[0][2] = (M2.m[0][2]*x)+(M2.m[1][2]*y)+(M2.m[2][2]*z)+(M2.m[3][2]*w);
; 238  :     mResult.m[0][3] = (M2.m[0][3]*x)+(M2.m[1][3]*y)+(M2.m[2][3]*z)+(M2.m[3][3]*w);
; 239  :     // Repeat for all the other rows
; 240  :     x = M1.m[1][0];
; 241  :     y = M1.m[1][1];
; 242  :     z = M1.m[1][2];
; 243  :     w = M1.m[1][3];
; 244  :     mResult.m[1][0] = (M2.m[0][0]*x)+(M2.m[1][0]*y)+(M2.m[2][0]*z)+(M2.m[3][0]*w);
; 245  :     mResult.m[1][1] = (M2.m[0][1]*x)+(M2.m[1][1]*y)+(M2.m[2][1]*z)+(M2.m[3][1]*w);
; 246  :     mResult.m[1][2] = (M2.m[0][2]*x)+(M2.m[1][2]*y)+(M2.m[2][2]*z)+(M2.m[3][2]*w);
; 247  :     mResult.m[1][3] = (M2.m[0][3]*x)+(M2.m[1][3]*y)+(M2.m[2][3]*z)+(M2.m[3][3]*w);
; 248  :     x = M1.m[2][0];
; 249  :     y = M1.m[2][1];
; 250  :     z = M1.m[2][2];
; 251  :     w = M1.m[2][3];
; 252  :     mResult.m[2][0] = (M2.m[0][0]*x)+(M2.m[1][0]*y)+(M2.m[2][0]*z)+(M2.m[3][0]*w);
; 253  :     mResult.m[2][1] = (M2.m[0][1]*x)+(M2.m[1][1]*y)+(M2.m[2][1]*z)+(M2.m[3][1]*w);
; 254  :     mResult.m[2][2] = (M2.m[0][2]*x)+(M2.m[1][2]*y)+(M2.m[2][2]*z)+(M2.m[3][2]*w);
; 255  :     mResult.m[2][3] = (M2.m[0][3]*x)+(M2.m[1][3]*y)+(M2.m[2][3]*z)+(M2.m[3][3]*w);
; 256  :     x = M1.m[3][0];
; 257  :     y = M1.m[3][1];
; 258  :     z = M1.m[3][2];
; 259  :     w = M1.m[3][3];
; 260  :     mResult.m[3][0] = (M2.m[0][0]*x)+(M2.m[1][0]*y)+(M2.m[2][0]*z)+(M2.m[3][0]*w);
; 261  :     mResult.m[3][1] = (M2.m[0][1]*x)+(M2.m[1][1]*y)+(M2.m[2][1]*z)+(M2.m[3][1]*w);
; 262  :     mResult.m[3][2] = (M2.m[0][2]*x)+(M2.m[1][2]*y)+(M2.m[2][2]*z)+(M2.m[3][2]*w);
; 263  :     mResult.m[3][3] = (M2.m[0][3]*x)+(M2.m[1][3]*y)+(M2.m[2][3]*z)+(M2.m[3][3]*w);
; 264  :     return mResult;
; 265  : #elif defined(_XM_ARM_NEON_INTRINSICS_)
; 266  :     XMMATRIX mResult;
; 267  :     float32x2_t VL = vget_low_f32( M1.r[0] );
; 268  :     float32x2_t VH = vget_high_f32( M1.r[0] );
; 269  :     // Perform the operation on the first row
; 270  :     XMVECTOR vX = XM_VMULQ_LANE_F32(M2.r[0], VL, 0);
; 271  :     XMVECTOR vY = XM_VMULQ_LANE_F32(M2.r[1], VL, 1);
; 272  :     XMVECTOR vZ = XM_VMLAQ_LANE_F32(vX, M2.r[2], VH, 0);
; 273  :     XMVECTOR vW = XM_VMLAQ_LANE_F32(vY, M2.r[3], VH, 1);
; 274  :     mResult.r[0] = vaddq_f32( vZ, vW );
; 275  :     // Repeat for the other 3 rows
; 276  :     VL = vget_low_f32( M1.r[1] );
; 277  :     VH = vget_high_f32( M1.r[1] );
; 278  :     vX = XM_VMULQ_LANE_F32(M2.r[0], VL, 0);
; 279  :     vY = XM_VMULQ_LANE_F32(M2.r[1], VL, 1);
; 280  :     vZ = XM_VMLAQ_LANE_F32(vX, M2.r[2], VH, 0);
; 281  :     vW = XM_VMLAQ_LANE_F32(vY, M2.r[3], VH, 1);
; 282  :     mResult.r[1] = vaddq_f32( vZ, vW );
; 283  :     VL = vget_low_f32( M1.r[2] );
; 284  :     VH = vget_high_f32( M1.r[2] );
; 285  :     vX = XM_VMULQ_LANE_F32(M2.r[0], VL, 0);
; 286  :     vY = XM_VMULQ_LANE_F32(M2.r[1], VL, 1);
; 287  :     vZ = XM_VMLAQ_LANE_F32(vX, M2.r[2], VH, 0);
; 288  :     vW = XM_VMLAQ_LANE_F32(vY, M2.r[3], VH, 1);
; 289  :     mResult.r[2] = vaddq_f32( vZ, vW );
; 290  :     VL = vget_low_f32( M1.r[3] );
; 291  :     VH = vget_high_f32( M1.r[3] );
; 292  :     vX = XM_VMULQ_LANE_F32(M2.r[0], VL, 0);
; 293  :     vY = XM_VMULQ_LANE_F32(M2.r[1], VL, 1);
; 294  :     vZ = XM_VMLAQ_LANE_F32(vX, M2.r[2], VH, 0);
; 295  :     vW = XM_VMLAQ_LANE_F32(vY, M2.r[3], VH, 1);
; 296  :     mResult.r[3] = vaddq_f32( vZ, vW );
; 297  :     return mResult;
; 298  : #elif defined(_XM_SSE_INTRINSICS_)
; 299  :     XMMATRIX mResult;

  0004f	48 8d 4d 70	 lea	 rcx, QWORD PTR mResult$[rbp]
  00053	e8 00 00 00 00	 call	 ??0XMMATRIX@DirectX@@QEAA@XZ ; DirectX::XMMATRIX::XMMATRIX

; 300  :     // Use vW to hold the original row
; 301  :     XMVECTOR vW = M1.r[0];

  00058	b8 10 00 00 00	 mov	 eax, 16
  0005d	48 6b c0 00	 imul	 rax, rax, 0
  00061	0f 10 44 05 10	 movups	 xmm0, XMMWORD PTR M1$[rbp+rax]
  00066	0f 11 85 d0 00
	00 00		 movups	 XMMWORD PTR vW$[rbp], xmm0

; 302  :     // Splat the component X,Y,Z then W
; 303  :     XMVECTOR vX = XM_PERMUTE_PS(vW,_MM_SHUFFLE(0,0,0,0));

  0006d	0f 28 85 d0 00
	00 00		 movaps	 xmm0, XMMWORD PTR vW$[rbp]
  00074	0f c6 85 d0 00
	00 00 00	 shufps	 xmm0, XMMWORD PTR vW$[rbp], 0
  0007c	0f 29 85 50 05
	00 00		 movaps	 XMMWORD PTR $T5[rbp], xmm0
  00083	0f 28 85 50 05
	00 00		 movaps	 xmm0, XMMWORD PTR $T5[rbp]
  0008a	0f 29 85 00 01
	00 00		 movaps	 XMMWORD PTR vX$[rbp], xmm0

; 304  :     XMVECTOR vY = XM_PERMUTE_PS(vW,_MM_SHUFFLE(1,1,1,1));

  00091	0f 28 85 d0 00
	00 00		 movaps	 xmm0, XMMWORD PTR vW$[rbp]
  00098	0f c6 85 d0 00
	00 00 55	 shufps	 xmm0, XMMWORD PTR vW$[rbp], 85 ; 00000055H
  000a0	0f 29 85 80 05
	00 00		 movaps	 XMMWORD PTR $T6[rbp], xmm0
  000a7	0f 28 85 80 05
	00 00		 movaps	 xmm0, XMMWORD PTR $T6[rbp]
  000ae	0f 29 85 30 01
	00 00		 movaps	 XMMWORD PTR vY$[rbp], xmm0

; 305  :     XMVECTOR vZ = XM_PERMUTE_PS(vW,_MM_SHUFFLE(2,2,2,2));

  000b5	0f 28 85 d0 00
	00 00		 movaps	 xmm0, XMMWORD PTR vW$[rbp]
  000bc	0f c6 85 d0 00
	00 00 aa	 shufps	 xmm0, XMMWORD PTR vW$[rbp], 170 ; 000000aaH
  000c4	0f 29 85 b0 05
	00 00		 movaps	 XMMWORD PTR $T7[rbp], xmm0
  000cb	0f 28 85 b0 05
	00 00		 movaps	 xmm0, XMMWORD PTR $T7[rbp]
  000d2	0f 29 85 60 01
	00 00		 movaps	 XMMWORD PTR vZ$[rbp], xmm0

; 306  :     vW = XM_PERMUTE_PS(vW,_MM_SHUFFLE(3,3,3,3));

  000d9	0f 28 85 d0 00
	00 00		 movaps	 xmm0, XMMWORD PTR vW$[rbp]
  000e0	0f c6 85 d0 00
	00 00 ff	 shufps	 xmm0, XMMWORD PTR vW$[rbp], 255 ; 000000ffH
  000e8	0f 29 85 e0 05
	00 00		 movaps	 XMMWORD PTR $T8[rbp], xmm0
  000ef	0f 28 85 e0 05
	00 00		 movaps	 xmm0, XMMWORD PTR $T8[rbp]
  000f6	0f 29 85 d0 00
	00 00		 movaps	 XMMWORD PTR vW$[rbp], xmm0

; 307  :     // Perform the operation on the first row
; 308  :     vX = _mm_mul_ps(vX,M2.r[0]);

  000fd	b8 10 00 00 00	 mov	 eax, 16
  00102	48 6b c0 00	 imul	 rax, rax, 0
  00106	48 8b 8d a8 0d
	00 00		 mov	 rcx, QWORD PTR M2$[rbp]
  0010d	0f 28 85 00 01
	00 00		 movaps	 xmm0, XMMWORD PTR vX$[rbp]
  00114	0f 59 04 01	 mulps	 xmm0, XMMWORD PTR [rcx+rax]
  00118	0f 29 85 10 06
	00 00		 movaps	 XMMWORD PTR $T9[rbp], xmm0
  0011f	0f 28 85 10 06
	00 00		 movaps	 xmm0, XMMWORD PTR $T9[rbp]
  00126	0f 29 85 00 01
	00 00		 movaps	 XMMWORD PTR vX$[rbp], xmm0

; 309  :     vY = _mm_mul_ps(vY,M2.r[1]);

  0012d	b8 10 00 00 00	 mov	 eax, 16
  00132	48 6b c0 01	 imul	 rax, rax, 1
  00136	48 8b 8d a8 0d
	00 00		 mov	 rcx, QWORD PTR M2$[rbp]
  0013d	0f 28 85 30 01
	00 00		 movaps	 xmm0, XMMWORD PTR vY$[rbp]
  00144	0f 59 04 01	 mulps	 xmm0, XMMWORD PTR [rcx+rax]
  00148	0f 29 85 40 06
	00 00		 movaps	 XMMWORD PTR $T10[rbp], xmm0
  0014f	0f 28 85 40 06
	00 00		 movaps	 xmm0, XMMWORD PTR $T10[rbp]
  00156	0f 29 85 30 01
	00 00		 movaps	 XMMWORD PTR vY$[rbp], xmm0

; 310  :     vZ = _mm_mul_ps(vZ,M2.r[2]);

  0015d	b8 10 00 00 00	 mov	 eax, 16
  00162	48 6b c0 02	 imul	 rax, rax, 2
  00166	48 8b 8d a8 0d
	00 00		 mov	 rcx, QWORD PTR M2$[rbp]
  0016d	0f 28 85 60 01
	00 00		 movaps	 xmm0, XMMWORD PTR vZ$[rbp]
  00174	0f 59 04 01	 mulps	 xmm0, XMMWORD PTR [rcx+rax]
  00178	0f 29 85 70 06
	00 00		 movaps	 XMMWORD PTR $T11[rbp], xmm0
  0017f	0f 28 85 70 06
	00 00		 movaps	 xmm0, XMMWORD PTR $T11[rbp]
  00186	0f 29 85 60 01
	00 00		 movaps	 XMMWORD PTR vZ$[rbp], xmm0

; 311  :     vW = _mm_mul_ps(vW,M2.r[3]);

  0018d	b8 10 00 00 00	 mov	 eax, 16
  00192	48 6b c0 03	 imul	 rax, rax, 3
  00196	48 8b 8d a8 0d
	00 00		 mov	 rcx, QWORD PTR M2$[rbp]
  0019d	0f 28 85 d0 00
	00 00		 movaps	 xmm0, XMMWORD PTR vW$[rbp]
  001a4	0f 59 04 01	 mulps	 xmm0, XMMWORD PTR [rcx+rax]
  001a8	0f 29 85 a0 06
	00 00		 movaps	 XMMWORD PTR $T12[rbp], xmm0
  001af	0f 28 85 a0 06
	00 00		 movaps	 xmm0, XMMWORD PTR $T12[rbp]
  001b6	0f 29 85 d0 00
	00 00		 movaps	 XMMWORD PTR vW$[rbp], xmm0

; 312  :     // Perform a binary add to reduce cumulative errors
; 313  :     vX = _mm_add_ps(vX,vZ);

  001bd	0f 28 85 00 01
	00 00		 movaps	 xmm0, XMMWORD PTR vX$[rbp]
  001c4	0f 58 85 60 01
	00 00		 addps	 xmm0, XMMWORD PTR vZ$[rbp]
  001cb	0f 29 85 d0 06
	00 00		 movaps	 XMMWORD PTR $T13[rbp], xmm0
  001d2	0f 28 85 d0 06
	00 00		 movaps	 xmm0, XMMWORD PTR $T13[rbp]
  001d9	0f 29 85 00 01
	00 00		 movaps	 XMMWORD PTR vX$[rbp], xmm0

; 314  :     vY = _mm_add_ps(vY,vW);

  001e0	0f 28 85 30 01
	00 00		 movaps	 xmm0, XMMWORD PTR vY$[rbp]
  001e7	0f 58 85 d0 00
	00 00		 addps	 xmm0, XMMWORD PTR vW$[rbp]
  001ee	0f 29 85 00 07
	00 00		 movaps	 XMMWORD PTR $T14[rbp], xmm0
  001f5	0f 28 85 00 07
	00 00		 movaps	 xmm0, XMMWORD PTR $T14[rbp]
  001fc	0f 29 85 30 01
	00 00		 movaps	 XMMWORD PTR vY$[rbp], xmm0

; 315  :     vX = _mm_add_ps(vX,vY);

  00203	0f 28 85 00 01
	00 00		 movaps	 xmm0, XMMWORD PTR vX$[rbp]
  0020a	0f 58 85 30 01
	00 00		 addps	 xmm0, XMMWORD PTR vY$[rbp]
  00211	0f 29 85 30 07
	00 00		 movaps	 XMMWORD PTR $T15[rbp], xmm0
  00218	0f 28 85 30 07
	00 00		 movaps	 xmm0, XMMWORD PTR $T15[rbp]
  0021f	0f 29 85 00 01
	00 00		 movaps	 XMMWORD PTR vX$[rbp], xmm0

; 316  :     mResult.r[0] = vX;

  00226	b8 10 00 00 00	 mov	 eax, 16
  0022b	48 6b c0 00	 imul	 rax, rax, 0
  0022f	0f 28 85 00 01
	00 00		 movaps	 xmm0, XMMWORD PTR vX$[rbp]
  00236	0f 11 44 05 70	 movups	 XMMWORD PTR mResult$[rbp+rax], xmm0

; 317  :     // Repeat for the other 3 rows
; 318  :     vW = M1.r[1];

  0023b	b8 10 00 00 00	 mov	 eax, 16
  00240	48 6b c0 01	 imul	 rax, rax, 1
  00244	0f 10 44 05 10	 movups	 xmm0, XMMWORD PTR M1$[rbp+rax]
  00249	0f 11 85 d0 00
	00 00		 movups	 XMMWORD PTR vW$[rbp], xmm0

; 319  :     vX = XM_PERMUTE_PS(vW,_MM_SHUFFLE(0,0,0,0));

  00250	0f 28 85 d0 00
	00 00		 movaps	 xmm0, XMMWORD PTR vW$[rbp]
  00257	0f c6 85 d0 00
	00 00 00	 shufps	 xmm0, XMMWORD PTR vW$[rbp], 0
  0025f	0f 29 85 60 07
	00 00		 movaps	 XMMWORD PTR $T16[rbp], xmm0
  00266	0f 28 85 60 07
	00 00		 movaps	 xmm0, XMMWORD PTR $T16[rbp]
  0026d	0f 29 85 00 01
	00 00		 movaps	 XMMWORD PTR vX$[rbp], xmm0

; 320  :     vY = XM_PERMUTE_PS(vW,_MM_SHUFFLE(1,1,1,1));

  00274	0f 28 85 d0 00
	00 00		 movaps	 xmm0, XMMWORD PTR vW$[rbp]
  0027b	0f c6 85 d0 00
	00 00 55	 shufps	 xmm0, XMMWORD PTR vW$[rbp], 85 ; 00000055H
  00283	0f 29 85 90 07
	00 00		 movaps	 XMMWORD PTR $T17[rbp], xmm0
  0028a	0f 28 85 90 07
	00 00		 movaps	 xmm0, XMMWORD PTR $T17[rbp]
  00291	0f 29 85 30 01
	00 00		 movaps	 XMMWORD PTR vY$[rbp], xmm0

; 321  :     vZ = XM_PERMUTE_PS(vW,_MM_SHUFFLE(2,2,2,2));

  00298	0f 28 85 d0 00
	00 00		 movaps	 xmm0, XMMWORD PTR vW$[rbp]
  0029f	0f c6 85 d0 00
	00 00 aa	 shufps	 xmm0, XMMWORD PTR vW$[rbp], 170 ; 000000aaH
  002a7	0f 29 85 c0 07
	00 00		 movaps	 XMMWORD PTR $T18[rbp], xmm0
  002ae	0f 28 85 c0 07
	00 00		 movaps	 xmm0, XMMWORD PTR $T18[rbp]
  002b5	0f 29 85 60 01
	00 00		 movaps	 XMMWORD PTR vZ$[rbp], xmm0

; 322  :     vW = XM_PERMUTE_PS(vW,_MM_SHUFFLE(3,3,3,3));

  002bc	0f 28 85 d0 00
	00 00		 movaps	 xmm0, XMMWORD PTR vW$[rbp]
  002c3	0f c6 85 d0 00
	00 00 ff	 shufps	 xmm0, XMMWORD PTR vW$[rbp], 255 ; 000000ffH
  002cb	0f 29 85 f0 07
	00 00		 movaps	 XMMWORD PTR $T19[rbp], xmm0
  002d2	0f 28 85 f0 07
	00 00		 movaps	 xmm0, XMMWORD PTR $T19[rbp]
  002d9	0f 29 85 d0 00
	00 00		 movaps	 XMMWORD PTR vW$[rbp], xmm0

; 323  :     vX = _mm_mul_ps(vX,M2.r[0]);

  002e0	b8 10 00 00 00	 mov	 eax, 16
  002e5	48 6b c0 00	 imul	 rax, rax, 0
  002e9	48 8b 8d a8 0d
	00 00		 mov	 rcx, QWORD PTR M2$[rbp]
  002f0	0f 28 85 00 01
	00 00		 movaps	 xmm0, XMMWORD PTR vX$[rbp]
  002f7	0f 59 04 01	 mulps	 xmm0, XMMWORD PTR [rcx+rax]
  002fb	0f 29 85 20 08
	00 00		 movaps	 XMMWORD PTR $T20[rbp], xmm0
  00302	0f 28 85 20 08
	00 00		 movaps	 xmm0, XMMWORD PTR $T20[rbp]
  00309	0f 29 85 00 01
	00 00		 movaps	 XMMWORD PTR vX$[rbp], xmm0

; 324  :     vY = _mm_mul_ps(vY,M2.r[1]);

  00310	b8 10 00 00 00	 mov	 eax, 16
  00315	48 6b c0 01	 imul	 rax, rax, 1
  00319	48 8b 8d a8 0d
	00 00		 mov	 rcx, QWORD PTR M2$[rbp]
  00320	0f 28 85 30 01
	00 00		 movaps	 xmm0, XMMWORD PTR vY$[rbp]
  00327	0f 59 04 01	 mulps	 xmm0, XMMWORD PTR [rcx+rax]
  0032b	0f 29 85 50 08
	00 00		 movaps	 XMMWORD PTR $T21[rbp], xmm0
  00332	0f 28 85 50 08
	00 00		 movaps	 xmm0, XMMWORD PTR $T21[rbp]
  00339	0f 29 85 30 01
	00 00		 movaps	 XMMWORD PTR vY$[rbp], xmm0

; 325  :     vZ = _mm_mul_ps(vZ,M2.r[2]);

  00340	b8 10 00 00 00	 mov	 eax, 16
  00345	48 6b c0 02	 imul	 rax, rax, 2
  00349	48 8b 8d a8 0d
	00 00		 mov	 rcx, QWORD PTR M2$[rbp]
  00350	0f 28 85 60 01
	00 00		 movaps	 xmm0, XMMWORD PTR vZ$[rbp]
  00357	0f 59 04 01	 mulps	 xmm0, XMMWORD PTR [rcx+rax]
  0035b	0f 29 85 80 08
	00 00		 movaps	 XMMWORD PTR $T22[rbp], xmm0
  00362	0f 28 85 80 08
	00 00		 movaps	 xmm0, XMMWORD PTR $T22[rbp]
  00369	0f 29 85 60 01
	00 00		 movaps	 XMMWORD PTR vZ$[rbp], xmm0

; 326  :     vW = _mm_mul_ps(vW,M2.r[3]);

  00370	b8 10 00 00 00	 mov	 eax, 16
  00375	48 6b c0 03	 imul	 rax, rax, 3
  00379	48 8b 8d a8 0d
	00 00		 mov	 rcx, QWORD PTR M2$[rbp]
  00380	0f 28 85 d0 00
	00 00		 movaps	 xmm0, XMMWORD PTR vW$[rbp]
  00387	0f 59 04 01	 mulps	 xmm0, XMMWORD PTR [rcx+rax]
  0038b	0f 29 85 b0 08
	00 00		 movaps	 XMMWORD PTR $T23[rbp], xmm0
  00392	0f 28 85 b0 08
	00 00		 movaps	 xmm0, XMMWORD PTR $T23[rbp]
  00399	0f 29 85 d0 00
	00 00		 movaps	 XMMWORD PTR vW$[rbp], xmm0

; 327  :     vX = _mm_add_ps(vX,vZ);

  003a0	0f 28 85 00 01
	00 00		 movaps	 xmm0, XMMWORD PTR vX$[rbp]
  003a7	0f 58 85 60 01
	00 00		 addps	 xmm0, XMMWORD PTR vZ$[rbp]
  003ae	0f 29 85 e0 08
	00 00		 movaps	 XMMWORD PTR $T24[rbp], xmm0
  003b5	0f 28 85 e0 08
	00 00		 movaps	 xmm0, XMMWORD PTR $T24[rbp]
  003bc	0f 29 85 00 01
	00 00		 movaps	 XMMWORD PTR vX$[rbp], xmm0

; 328  :     vY = _mm_add_ps(vY,vW);

  003c3	0f 28 85 30 01
	00 00		 movaps	 xmm0, XMMWORD PTR vY$[rbp]
  003ca	0f 58 85 d0 00
	00 00		 addps	 xmm0, XMMWORD PTR vW$[rbp]
  003d1	0f 29 85 10 09
	00 00		 movaps	 XMMWORD PTR $T25[rbp], xmm0
  003d8	0f 28 85 10 09
	00 00		 movaps	 xmm0, XMMWORD PTR $T25[rbp]
  003df	0f 29 85 30 01
	00 00		 movaps	 XMMWORD PTR vY$[rbp], xmm0

; 329  :     vX = _mm_add_ps(vX,vY);

  003e6	0f 28 85 00 01
	00 00		 movaps	 xmm0, XMMWORD PTR vX$[rbp]
  003ed	0f 58 85 30 01
	00 00		 addps	 xmm0, XMMWORD PTR vY$[rbp]
  003f4	0f 29 85 40 09
	00 00		 movaps	 XMMWORD PTR $T26[rbp], xmm0
  003fb	0f 28 85 40 09
	00 00		 movaps	 xmm0, XMMWORD PTR $T26[rbp]
  00402	0f 29 85 00 01
	00 00		 movaps	 XMMWORD PTR vX$[rbp], xmm0

; 330  :     mResult.r[1] = vX;

  00409	b8 10 00 00 00	 mov	 eax, 16
  0040e	48 6b c0 01	 imul	 rax, rax, 1
  00412	0f 28 85 00 01
	00 00		 movaps	 xmm0, XMMWORD PTR vX$[rbp]
  00419	0f 11 44 05 70	 movups	 XMMWORD PTR mResult$[rbp+rax], xmm0

; 331  :     vW = M1.r[2];

  0041e	b8 10 00 00 00	 mov	 eax, 16
  00423	48 6b c0 02	 imul	 rax, rax, 2
  00427	0f 10 44 05 10	 movups	 xmm0, XMMWORD PTR M1$[rbp+rax]
  0042c	0f 11 85 d0 00
	00 00		 movups	 XMMWORD PTR vW$[rbp], xmm0

; 332  :     vX = XM_PERMUTE_PS(vW,_MM_SHUFFLE(0,0,0,0));

  00433	0f 28 85 d0 00
	00 00		 movaps	 xmm0, XMMWORD PTR vW$[rbp]
  0043a	0f c6 85 d0 00
	00 00 00	 shufps	 xmm0, XMMWORD PTR vW$[rbp], 0
  00442	0f 29 85 70 09
	00 00		 movaps	 XMMWORD PTR $T27[rbp], xmm0
  00449	0f 28 85 70 09
	00 00		 movaps	 xmm0, XMMWORD PTR $T27[rbp]
  00450	0f 29 85 00 01
	00 00		 movaps	 XMMWORD PTR vX$[rbp], xmm0

; 333  :     vY = XM_PERMUTE_PS(vW,_MM_SHUFFLE(1,1,1,1));

  00457	0f 28 85 d0 00
	00 00		 movaps	 xmm0, XMMWORD PTR vW$[rbp]
  0045e	0f c6 85 d0 00
	00 00 55	 shufps	 xmm0, XMMWORD PTR vW$[rbp], 85 ; 00000055H
  00466	0f 29 85 a0 09
	00 00		 movaps	 XMMWORD PTR $T28[rbp], xmm0
  0046d	0f 28 85 a0 09
	00 00		 movaps	 xmm0, XMMWORD PTR $T28[rbp]
  00474	0f 29 85 30 01
	00 00		 movaps	 XMMWORD PTR vY$[rbp], xmm0

; 334  :     vZ = XM_PERMUTE_PS(vW,_MM_SHUFFLE(2,2,2,2));

  0047b	0f 28 85 d0 00
	00 00		 movaps	 xmm0, XMMWORD PTR vW$[rbp]
  00482	0f c6 85 d0 00
	00 00 aa	 shufps	 xmm0, XMMWORD PTR vW$[rbp], 170 ; 000000aaH
  0048a	0f 29 85 d0 09
	00 00		 movaps	 XMMWORD PTR $T29[rbp], xmm0
  00491	0f 28 85 d0 09
	00 00		 movaps	 xmm0, XMMWORD PTR $T29[rbp]
  00498	0f 29 85 60 01
	00 00		 movaps	 XMMWORD PTR vZ$[rbp], xmm0

; 335  :     vW = XM_PERMUTE_PS(vW,_MM_SHUFFLE(3,3,3,3));

  0049f	0f 28 85 d0 00
	00 00		 movaps	 xmm0, XMMWORD PTR vW$[rbp]
  004a6	0f c6 85 d0 00
	00 00 ff	 shufps	 xmm0, XMMWORD PTR vW$[rbp], 255 ; 000000ffH
  004ae	0f 29 85 00 0a
	00 00		 movaps	 XMMWORD PTR $T30[rbp], xmm0
  004b5	0f 28 85 00 0a
	00 00		 movaps	 xmm0, XMMWORD PTR $T30[rbp]
  004bc	0f 29 85 d0 00
	00 00		 movaps	 XMMWORD PTR vW$[rbp], xmm0

; 336  :     vX = _mm_mul_ps(vX,M2.r[0]);

  004c3	b8 10 00 00 00	 mov	 eax, 16
  004c8	48 6b c0 00	 imul	 rax, rax, 0
  004cc	48 8b 8d a8 0d
	00 00		 mov	 rcx, QWORD PTR M2$[rbp]
  004d3	0f 28 85 00 01
	00 00		 movaps	 xmm0, XMMWORD PTR vX$[rbp]
  004da	0f 59 04 01	 mulps	 xmm0, XMMWORD PTR [rcx+rax]
  004de	0f 29 85 30 0a
	00 00		 movaps	 XMMWORD PTR $T31[rbp], xmm0
  004e5	0f 28 85 30 0a
	00 00		 movaps	 xmm0, XMMWORD PTR $T31[rbp]
  004ec	0f 29 85 00 01
	00 00		 movaps	 XMMWORD PTR vX$[rbp], xmm0

; 337  :     vY = _mm_mul_ps(vY,M2.r[1]);

  004f3	b8 10 00 00 00	 mov	 eax, 16
  004f8	48 6b c0 01	 imul	 rax, rax, 1
  004fc	48 8b 8d a8 0d
	00 00		 mov	 rcx, QWORD PTR M2$[rbp]
  00503	0f 28 85 30 01
	00 00		 movaps	 xmm0, XMMWORD PTR vY$[rbp]
  0050a	0f 59 04 01	 mulps	 xmm0, XMMWORD PTR [rcx+rax]
  0050e	0f 29 85 60 0a
	00 00		 movaps	 XMMWORD PTR $T32[rbp], xmm0
  00515	0f 28 85 60 0a
	00 00		 movaps	 xmm0, XMMWORD PTR $T32[rbp]
  0051c	0f 29 85 30 01
	00 00		 movaps	 XMMWORD PTR vY$[rbp], xmm0

; 338  :     vZ = _mm_mul_ps(vZ,M2.r[2]);

  00523	b8 10 00 00 00	 mov	 eax, 16
  00528	48 6b c0 02	 imul	 rax, rax, 2
  0052c	48 8b 8d a8 0d
	00 00		 mov	 rcx, QWORD PTR M2$[rbp]
  00533	0f 28 85 60 01
	00 00		 movaps	 xmm0, XMMWORD PTR vZ$[rbp]
  0053a	0f 59 04 01	 mulps	 xmm0, XMMWORD PTR [rcx+rax]
  0053e	0f 29 85 90 0a
	00 00		 movaps	 XMMWORD PTR $T33[rbp], xmm0
  00545	0f 28 85 90 0a
	00 00		 movaps	 xmm0, XMMWORD PTR $T33[rbp]
  0054c	0f 29 85 60 01
	00 00		 movaps	 XMMWORD PTR vZ$[rbp], xmm0

; 339  :     vW = _mm_mul_ps(vW,M2.r[3]);

  00553	b8 10 00 00 00	 mov	 eax, 16
  00558	48 6b c0 03	 imul	 rax, rax, 3
  0055c	48 8b 8d a8 0d
	00 00		 mov	 rcx, QWORD PTR M2$[rbp]
  00563	0f 28 85 d0 00
	00 00		 movaps	 xmm0, XMMWORD PTR vW$[rbp]
  0056a	0f 59 04 01	 mulps	 xmm0, XMMWORD PTR [rcx+rax]
  0056e	0f 29 85 c0 0a
	00 00		 movaps	 XMMWORD PTR $T34[rbp], xmm0
  00575	0f 28 85 c0 0a
	00 00		 movaps	 xmm0, XMMWORD PTR $T34[rbp]
  0057c	0f 29 85 d0 00
	00 00		 movaps	 XMMWORD PTR vW$[rbp], xmm0

; 340  :     vX = _mm_add_ps(vX,vZ);

  00583	0f 28 85 00 01
	00 00		 movaps	 xmm0, XMMWORD PTR vX$[rbp]
  0058a	0f 58 85 60 01
	00 00		 addps	 xmm0, XMMWORD PTR vZ$[rbp]
  00591	0f 29 85 f0 0a
	00 00		 movaps	 XMMWORD PTR $T35[rbp], xmm0
  00598	0f 28 85 f0 0a
	00 00		 movaps	 xmm0, XMMWORD PTR $T35[rbp]
  0059f	0f 29 85 00 01
	00 00		 movaps	 XMMWORD PTR vX$[rbp], xmm0

; 341  :     vY = _mm_add_ps(vY,vW);

  005a6	0f 28 85 30 01
	00 00		 movaps	 xmm0, XMMWORD PTR vY$[rbp]
  005ad	0f 58 85 d0 00
	00 00		 addps	 xmm0, XMMWORD PTR vW$[rbp]
  005b4	0f 29 85 20 0b
	00 00		 movaps	 XMMWORD PTR $T36[rbp], xmm0
  005bb	0f 28 85 20 0b
	00 00		 movaps	 xmm0, XMMWORD PTR $T36[rbp]
  005c2	0f 29 85 30 01
	00 00		 movaps	 XMMWORD PTR vY$[rbp], xmm0

; 342  :     vX = _mm_add_ps(vX,vY);

  005c9	0f 28 85 00 01
	00 00		 movaps	 xmm0, XMMWORD PTR vX$[rbp]
  005d0	0f 58 85 30 01
	00 00		 addps	 xmm0, XMMWORD PTR vY$[rbp]
  005d7	0f 29 85 50 0b
	00 00		 movaps	 XMMWORD PTR $T37[rbp], xmm0
  005de	0f 28 85 50 0b
	00 00		 movaps	 xmm0, XMMWORD PTR $T37[rbp]
  005e5	0f 29 85 00 01
	00 00		 movaps	 XMMWORD PTR vX$[rbp], xmm0

; 343  :     mResult.r[2] = vX;

  005ec	b8 10 00 00 00	 mov	 eax, 16
  005f1	48 6b c0 02	 imul	 rax, rax, 2
  005f5	0f 28 85 00 01
	00 00		 movaps	 xmm0, XMMWORD PTR vX$[rbp]
  005fc	0f 11 44 05 70	 movups	 XMMWORD PTR mResult$[rbp+rax], xmm0

; 344  :     vW = M1.r[3];

  00601	b8 10 00 00 00	 mov	 eax, 16
  00606	48 6b c0 03	 imul	 rax, rax, 3
  0060a	0f 10 44 05 10	 movups	 xmm0, XMMWORD PTR M1$[rbp+rax]
  0060f	0f 11 85 d0 00
	00 00		 movups	 XMMWORD PTR vW$[rbp], xmm0

; 345  :     vX = XM_PERMUTE_PS(vW,_MM_SHUFFLE(0,0,0,0));

  00616	0f 28 85 d0 00
	00 00		 movaps	 xmm0, XMMWORD PTR vW$[rbp]
  0061d	0f c6 85 d0 00
	00 00 00	 shufps	 xmm0, XMMWORD PTR vW$[rbp], 0
  00625	0f 29 85 80 0b
	00 00		 movaps	 XMMWORD PTR $T38[rbp], xmm0
  0062c	0f 28 85 80 0b
	00 00		 movaps	 xmm0, XMMWORD PTR $T38[rbp]
  00633	0f 29 85 00 01
	00 00		 movaps	 XMMWORD PTR vX$[rbp], xmm0

; 346  :     vY = XM_PERMUTE_PS(vW,_MM_SHUFFLE(1,1,1,1));

  0063a	0f 28 85 d0 00
	00 00		 movaps	 xmm0, XMMWORD PTR vW$[rbp]
  00641	0f c6 85 d0 00
	00 00 55	 shufps	 xmm0, XMMWORD PTR vW$[rbp], 85 ; 00000055H
  00649	0f 29 85 b0 0b
	00 00		 movaps	 XMMWORD PTR $T39[rbp], xmm0
  00650	0f 28 85 b0 0b
	00 00		 movaps	 xmm0, XMMWORD PTR $T39[rbp]
  00657	0f 29 85 30 01
	00 00		 movaps	 XMMWORD PTR vY$[rbp], xmm0

; 347  :     vZ = XM_PERMUTE_PS(vW,_MM_SHUFFLE(2,2,2,2));

  0065e	0f 28 85 d0 00
	00 00		 movaps	 xmm0, XMMWORD PTR vW$[rbp]
  00665	0f c6 85 d0 00
	00 00 aa	 shufps	 xmm0, XMMWORD PTR vW$[rbp], 170 ; 000000aaH
  0066d	0f 29 85 e0 0b
	00 00		 movaps	 XMMWORD PTR $T40[rbp], xmm0
  00674	0f 28 85 e0 0b
	00 00		 movaps	 xmm0, XMMWORD PTR $T40[rbp]
  0067b	0f 29 85 60 01
	00 00		 movaps	 XMMWORD PTR vZ$[rbp], xmm0

; 348  :     vW = XM_PERMUTE_PS(vW,_MM_SHUFFLE(3,3,3,3));

  00682	0f 28 85 d0 00
	00 00		 movaps	 xmm0, XMMWORD PTR vW$[rbp]
  00689	0f c6 85 d0 00
	00 00 ff	 shufps	 xmm0, XMMWORD PTR vW$[rbp], 255 ; 000000ffH
  00691	0f 29 85 10 0c
	00 00		 movaps	 XMMWORD PTR $T41[rbp], xmm0
  00698	0f 28 85 10 0c
	00 00		 movaps	 xmm0, XMMWORD PTR $T41[rbp]
  0069f	0f 29 85 d0 00
	00 00		 movaps	 XMMWORD PTR vW$[rbp], xmm0

; 349  :     vX = _mm_mul_ps(vX,M2.r[0]);

  006a6	b8 10 00 00 00	 mov	 eax, 16
  006ab	48 6b c0 00	 imul	 rax, rax, 0
  006af	48 8b 8d a8 0d
	00 00		 mov	 rcx, QWORD PTR M2$[rbp]
  006b6	0f 28 85 00 01
	00 00		 movaps	 xmm0, XMMWORD PTR vX$[rbp]
  006bd	0f 59 04 01	 mulps	 xmm0, XMMWORD PTR [rcx+rax]
  006c1	0f 29 85 40 0c
	00 00		 movaps	 XMMWORD PTR $T42[rbp], xmm0
  006c8	0f 28 85 40 0c
	00 00		 movaps	 xmm0, XMMWORD PTR $T42[rbp]
  006cf	0f 29 85 00 01
	00 00		 movaps	 XMMWORD PTR vX$[rbp], xmm0

; 350  :     vY = _mm_mul_ps(vY,M2.r[1]);

  006d6	b8 10 00 00 00	 mov	 eax, 16
  006db	48 6b c0 01	 imul	 rax, rax, 1
  006df	48 8b 8d a8 0d
	00 00		 mov	 rcx, QWORD PTR M2$[rbp]
  006e6	0f 28 85 30 01
	00 00		 movaps	 xmm0, XMMWORD PTR vY$[rbp]
  006ed	0f 59 04 01	 mulps	 xmm0, XMMWORD PTR [rcx+rax]
  006f1	0f 29 85 70 0c
	00 00		 movaps	 XMMWORD PTR $T43[rbp], xmm0
  006f8	0f 28 85 70 0c
	00 00		 movaps	 xmm0, XMMWORD PTR $T43[rbp]
  006ff	0f 29 85 30 01
	00 00		 movaps	 XMMWORD PTR vY$[rbp], xmm0

; 351  :     vZ = _mm_mul_ps(vZ,M2.r[2]);

  00706	b8 10 00 00 00	 mov	 eax, 16
  0070b	48 6b c0 02	 imul	 rax, rax, 2
  0070f	48 8b 8d a8 0d
	00 00		 mov	 rcx, QWORD PTR M2$[rbp]
  00716	0f 28 85 60 01
	00 00		 movaps	 xmm0, XMMWORD PTR vZ$[rbp]
  0071d	0f 59 04 01	 mulps	 xmm0, XMMWORD PTR [rcx+rax]
  00721	0f 29 85 a0 0c
	00 00		 movaps	 XMMWORD PTR $T44[rbp], xmm0
  00728	0f 28 85 a0 0c
	00 00		 movaps	 xmm0, XMMWORD PTR $T44[rbp]
  0072f	0f 29 85 60 01
	00 00		 movaps	 XMMWORD PTR vZ$[rbp], xmm0

; 352  :     vW = _mm_mul_ps(vW,M2.r[3]);

  00736	b8 10 00 00 00	 mov	 eax, 16
  0073b	48 6b c0 03	 imul	 rax, rax, 3
  0073f	48 8b 8d a8 0d
	00 00		 mov	 rcx, QWORD PTR M2$[rbp]
  00746	0f 28 85 d0 00
	00 00		 movaps	 xmm0, XMMWORD PTR vW$[rbp]
  0074d	0f 59 04 01	 mulps	 xmm0, XMMWORD PTR [rcx+rax]
  00751	0f 29 85 d0 0c
	00 00		 movaps	 XMMWORD PTR $T45[rbp], xmm0
  00758	0f 28 85 d0 0c
	00 00		 movaps	 xmm0, XMMWORD PTR $T45[rbp]
  0075f	0f 29 85 d0 00
	00 00		 movaps	 XMMWORD PTR vW$[rbp], xmm0

; 353  :     vX = _mm_add_ps(vX,vZ);

  00766	0f 28 85 00 01
	00 00		 movaps	 xmm0, XMMWORD PTR vX$[rbp]
  0076d	0f 58 85 60 01
	00 00		 addps	 xmm0, XMMWORD PTR vZ$[rbp]
  00774	0f 29 85 00 0d
	00 00		 movaps	 XMMWORD PTR $T46[rbp], xmm0
  0077b	0f 28 85 00 0d
	00 00		 movaps	 xmm0, XMMWORD PTR $T46[rbp]
  00782	0f 29 85 00 01
	00 00		 movaps	 XMMWORD PTR vX$[rbp], xmm0

; 354  :     vY = _mm_add_ps(vY,vW);

  00789	0f 28 85 30 01
	00 00		 movaps	 xmm0, XMMWORD PTR vY$[rbp]
  00790	0f 58 85 d0 00
	00 00		 addps	 xmm0, XMMWORD PTR vW$[rbp]
  00797	0f 29 85 30 0d
	00 00		 movaps	 XMMWORD PTR $T47[rbp], xmm0
  0079e	0f 28 85 30 0d
	00 00		 movaps	 xmm0, XMMWORD PTR $T47[rbp]
  007a5	0f 29 85 30 01
	00 00		 movaps	 XMMWORD PTR vY$[rbp], xmm0

; 355  :     vX = _mm_add_ps(vX,vY);

  007ac	0f 28 85 00 01
	00 00		 movaps	 xmm0, XMMWORD PTR vX$[rbp]
  007b3	0f 58 85 30 01
	00 00		 addps	 xmm0, XMMWORD PTR vY$[rbp]
  007ba	0f 29 85 60 0d
	00 00		 movaps	 XMMWORD PTR $T48[rbp], xmm0
  007c1	0f 28 85 60 0d
	00 00		 movaps	 xmm0, XMMWORD PTR $T48[rbp]
  007c8	0f 29 85 00 01
	00 00		 movaps	 XMMWORD PTR vX$[rbp], xmm0

; 356  :     mResult.r[3] = vX;

  007cf	b8 10 00 00 00	 mov	 eax, 16
  007d4	48 6b c0 03	 imul	 rax, rax, 3
  007d8	0f 28 85 00 01
	00 00		 movaps	 xmm0, XMMWORD PTR vX$[rbp]
  007df	0f 11 44 05 70	 movups	 XMMWORD PTR mResult$[rbp+rax], xmm0

; 357  :     return mResult;

  007e4	0f 28 9d a0 00
	00 00		 movaps	 xmm3, XMMWORD PTR mResult$[rbp+48]
  007eb	0f 28 95 90 00
	00 00		 movaps	 xmm2, XMMWORD PTR mResult$[rbp+32]
  007f2	0f 28 8d 80 00
	00 00		 movaps	 xmm1, XMMWORD PTR mResult$[rbp+16]
  007f9	0f 28 45 70	 movaps	 xmm0, XMMWORD PTR mResult$[rbp]

; 358  : #endif
; 359  : }

  007fd	f3 0f 7f 44 24
	20		 movdqu	 XMMWORD PTR [rsp+32], xmm0
  00803	48 8d 4d d0	 lea	 rcx, QWORD PTR [rbp-48]
  00807	48 8d 15 00 00
	00 00		 lea	 rdx, OFFSET FLAT:?XMMatrixMultiply@DirectX@@YQ?AUXMMATRIX@1@U21@AEBU21@@Z$rtcFrameData
  0080e	e8 00 00 00 00	 call	 _RTC_CheckStackVars
  00813	f3 0f 6f 44 24
	20		 movdqu	 xmm0, XMMWORD PTR [rsp+32]
  00819	48 8b 8d 78 0d
	00 00		 mov	 rcx, QWORD PTR __$ArrayPad$[rbp]
  00820	48 33 cd	 xor	 rcx, rbp
  00823	e8 00 00 00 00	 call	 __security_check_cookie
  00828	48 8d a5 88 0d
	00 00		 lea	 rsp, QWORD PTR [rbp+3464]
  0082f	5f		 pop	 rdi
  00830	5d		 pop	 rbp
  00831	c3		 ret	 0
?XMMatrixMultiply@DirectX@@YQ?AUXMMATRIX@1@U21@AEBU21@@Z ENDP ; DirectX::XMMatrixMultiply
_TEXT	ENDS
; Function compile flags: /Odtp /RTCsu /ZI
; File c:\program files (x86)\windows kits\8.1\include\um\directxmathvector.inl
;	COMDAT ?XMVector3Normalize@DirectX@@YQ?AT__m128@@T2@@Z
_TEXT	SEGMENT
V$ = 16
vLengthSq$ = 64
vTemp$ = 112
vResult$ = 160
vZeroMask$ = 208
vTemp1$ = 256
vTemp2$ = 304
$T1 = 928
$T2 = 976
$T3 = 1024
$T4 = 1072
$T5 = 1120
$T6 = 1168
$T7 = 1216
$T8 = 1264
$T9 = 1312
$T10 = 1360
$T11 = 1408
$T12 = 1456
$T13 = 1504
$T14 = 1552
$T15 = 1600
$T16 = 1648
$T17 = 1696
?XMVector3Normalize@DirectX@@YQ?AT__m128@@T2@@Z PROC	; DirectX::XMVector3Normalize, COMDAT

; 9238 : {

$LN3:
  00000	40 55		 push	 rbp
  00002	57		 push	 rdi
  00003	48 81 ec f8 06
	00 00		 sub	 rsp, 1784		; 000006f8H
  0000a	48 8d 6c 24 30	 lea	 rbp, QWORD PTR [rsp+48]
  0000f	48 8b fc	 mov	 rdi, rsp
  00012	b9 be 01 00 00	 mov	 ecx, 446		; 000001beH
  00017	b8 cc cc cc cc	 mov	 eax, -858993460		; ccccccccH
  0001c	f3 ab		 rep stosd
  0001e	48 8d 45 10	 lea	 rax, QWORD PTR V$[rbp]
  00022	48 89 84 24 10
	07 00 00	 mov	 QWORD PTR [rsp+1808], rax
  0002a	0f 29 45 10	 movaps	 XMMWORD PTR V$[rbp], xmm0

; 9239 : #if defined(_XM_NO_INTRINSICS_)
; 9240 :     float fLength;
; 9241 :     XMVECTOR vResult;
; 9242 : 
; 9243 :     vResult = XMVector3Length( V );
; 9244 :     fLength = vResult.vector4_f32[0];
; 9245 : 
; 9246 :     // Prevent divide by zero
; 9247 :     if (fLength > 0) {
; 9248 :         fLength = 1.0f/fLength;
; 9249 :     }
; 9250 :     
; 9251 :     vResult.vector4_f32[0] = V.vector4_f32[0]*fLength;
; 9252 :     vResult.vector4_f32[1] = V.vector4_f32[1]*fLength;
; 9253 :     vResult.vector4_f32[2] = V.vector4_f32[2]*fLength;
; 9254 :     vResult.vector4_f32[3] = V.vector4_f32[3]*fLength;
; 9255 :     return vResult;
; 9256 : 
; 9257 : #elif defined(_XM_ARM_NEON_INTRINSICS_)
; 9258 :     // Dot3
; 9259 :     float32x4_t vTemp = vmulq_f32( V, V );
; 9260 :     float32x2_t v1 = vget_low_f32( vTemp );
; 9261 :     float32x2_t v2 = vget_high_f32( vTemp );
; 9262 :     v1 = vpadd_f32( v1, v1 );
; 9263 :     v2 = vdup_lane_f32( v2, 0 );
; 9264 :     v1 = vadd_f32( v1, v2 );
; 9265 :     uint32x2_t VEqualsZero = vceq_f32( v1, vdup_n_f32(0) );
; 9266 :     uint32x2_t VEqualsInf = vceq_f32( v1, vget_low_f32(g_XMInfinity) );
; 9267 :     // Reciprocal sqrt (2 iterations of Newton-Raphson)
; 9268 :     float32x2_t S0 = vrsqrte_f32( v1 );
; 9269 :     float32x2_t P0 = vmul_f32( v1, S0 );
; 9270 :     float32x2_t R0 = vrsqrts_f32( P0, S0 );
; 9271 :     float32x2_t S1 = vmul_f32( S0, R0 );
; 9272 :     float32x2_t P1 = vmul_f32( v1, S1 );
; 9273 :     float32x2_t R1 = vrsqrts_f32( P1, S1 );
; 9274 :     v2 = vmul_f32( S1, R1 );
; 9275 :     // Normalize
; 9276 :     XMVECTOR vResult = vmulq_f32( V, vcombine_f32(v2,v2) );
; 9277 :     vResult = vbslq_f32( vcombine_f32(VEqualsZero,VEqualsZero), vdupq_n_f32(0), vResult );
; 9278 :     return vbslq_f32( vcombine_f32(VEqualsInf,VEqualsInf), g_XMQNaN, vResult );
; 9279 : #elif defined(_XM_SSE_INTRINSICS_)
; 9280 :     // Perform the dot product on x,y and z only
; 9281 :     XMVECTOR vLengthSq = _mm_mul_ps(V,V);

  0002e	0f 28 45 10	 movaps	 xmm0, XMMWORD PTR V$[rbp]
  00032	0f 59 45 10	 mulps	 xmm0, XMMWORD PTR V$[rbp]
  00036	0f 29 85 a0 03
	00 00		 movaps	 XMMWORD PTR $T1[rbp], xmm0
  0003d	0f 28 85 a0 03
	00 00		 movaps	 xmm0, XMMWORD PTR $T1[rbp]
  00044	0f 29 45 40	 movaps	 XMMWORD PTR vLengthSq$[rbp], xmm0

; 9282 :     XMVECTOR vTemp = XM_PERMUTE_PS(vLengthSq,_MM_SHUFFLE(2,1,2,1));

  00048	0f 28 45 40	 movaps	 xmm0, XMMWORD PTR vLengthSq$[rbp]
  0004c	0f c6 45 40 99	 shufps	 xmm0, XMMWORD PTR vLengthSq$[rbp], 153 ; 00000099H
  00051	0f 29 85 d0 03
	00 00		 movaps	 XMMWORD PTR $T2[rbp], xmm0
  00058	0f 28 85 d0 03
	00 00		 movaps	 xmm0, XMMWORD PTR $T2[rbp]
  0005f	0f 29 45 70	 movaps	 XMMWORD PTR vTemp$[rbp], xmm0

; 9283 :     vLengthSq = _mm_add_ss(vLengthSq,vTemp);

  00063	0f 28 45 40	 movaps	 xmm0, XMMWORD PTR vLengthSq$[rbp]
  00067	f3 0f 58 45 70	 addss	 xmm0, DWORD PTR vTemp$[rbp]
  0006c	0f 29 85 00 04
	00 00		 movaps	 XMMWORD PTR $T3[rbp], xmm0
  00073	0f 28 85 00 04
	00 00		 movaps	 xmm0, XMMWORD PTR $T3[rbp]
  0007a	0f 29 45 40	 movaps	 XMMWORD PTR vLengthSq$[rbp], xmm0

; 9284 :     vTemp = XM_PERMUTE_PS(vTemp,_MM_SHUFFLE(1,1,1,1));

  0007e	0f 28 45 70	 movaps	 xmm0, XMMWORD PTR vTemp$[rbp]
  00082	0f c6 45 70 55	 shufps	 xmm0, XMMWORD PTR vTemp$[rbp], 85 ; 00000055H
  00087	0f 29 85 30 04
	00 00		 movaps	 XMMWORD PTR $T4[rbp], xmm0
  0008e	0f 28 85 30 04
	00 00		 movaps	 xmm0, XMMWORD PTR $T4[rbp]
  00095	0f 29 45 70	 movaps	 XMMWORD PTR vTemp$[rbp], xmm0

; 9285 :     vLengthSq = _mm_add_ss(vLengthSq,vTemp);

  00099	0f 28 45 40	 movaps	 xmm0, XMMWORD PTR vLengthSq$[rbp]
  0009d	f3 0f 58 45 70	 addss	 xmm0, DWORD PTR vTemp$[rbp]
  000a2	0f 29 85 60 04
	00 00		 movaps	 XMMWORD PTR $T5[rbp], xmm0
  000a9	0f 28 85 60 04
	00 00		 movaps	 xmm0, XMMWORD PTR $T5[rbp]
  000b0	0f 29 45 40	 movaps	 XMMWORD PTR vLengthSq$[rbp], xmm0

; 9286 :     vLengthSq = XM_PERMUTE_PS(vLengthSq,_MM_SHUFFLE(0,0,0,0));

  000b4	0f 28 45 40	 movaps	 xmm0, XMMWORD PTR vLengthSq$[rbp]
  000b8	0f c6 45 40 00	 shufps	 xmm0, XMMWORD PTR vLengthSq$[rbp], 0
  000bd	0f 29 85 90 04
	00 00		 movaps	 XMMWORD PTR $T6[rbp], xmm0
  000c4	0f 28 85 90 04
	00 00		 movaps	 xmm0, XMMWORD PTR $T6[rbp]
  000cb	0f 29 45 40	 movaps	 XMMWORD PTR vLengthSq$[rbp], xmm0

; 9287 :     // Prepare for the division
; 9288 :     XMVECTOR vResult = _mm_sqrt_ps(vLengthSq);

  000cf	0f 51 45 40	 sqrtps	 xmm0, XMMWORD PTR vLengthSq$[rbp]
  000d3	0f 29 85 c0 04
	00 00		 movaps	 XMMWORD PTR $T7[rbp], xmm0
  000da	0f 28 85 c0 04
	00 00		 movaps	 xmm0, XMMWORD PTR $T7[rbp]
  000e1	0f 29 85 a0 00
	00 00		 movaps	 XMMWORD PTR vResult$[rbp], xmm0

; 9289 :     // Create zero with a single instruction
; 9290 :     XMVECTOR vZeroMask = _mm_setzero_ps();

  000e8	0f 57 c0	 xorps	 xmm0, xmm0
  000eb	0f 29 85 f0 04
	00 00		 movaps	 XMMWORD PTR $T8[rbp], xmm0
  000f2	0f 28 85 f0 04
	00 00		 movaps	 xmm0, XMMWORD PTR $T8[rbp]
  000f9	0f 29 85 d0 00
	00 00		 movaps	 XMMWORD PTR vZeroMask$[rbp], xmm0

; 9291 :     // Test for a divide by zero (Must be FP to detect -0.0)
; 9292 :     vZeroMask = _mm_cmpneq_ps(vZeroMask,vResult);

  00100	0f 28 85 d0 00
	00 00		 movaps	 xmm0, XMMWORD PTR vZeroMask$[rbp]
  00107	0f c2 85 a0 00
	00 00 04	 cmpneqps xmm0, XMMWORD PTR vResult$[rbp]
  0010f	0f 29 85 20 05
	00 00		 movaps	 XMMWORD PTR $T9[rbp], xmm0
  00116	0f 28 85 20 05
	00 00		 movaps	 xmm0, XMMWORD PTR $T9[rbp]
  0011d	0f 29 85 d0 00
	00 00		 movaps	 XMMWORD PTR vZeroMask$[rbp], xmm0

; 9293 :     // Failsafe on zero (Or epsilon) length planes
; 9294 :     // If the length is infinity, set the elements to zero
; 9295 :     vLengthSq = _mm_cmpneq_ps(vLengthSq,g_XMInfinity);

  00124	48 8d 95 80 05
	00 00		 lea	 rdx, QWORD PTR $T11[rbp]
  0012b	48 8d 0d 00 00
	00 00		 lea	 rcx, OFFSET FLAT:?g_XMInfinity@DirectX@@3UXMVECTORI32@1@B ; DirectX::g_XMInfinity
  00132	e8 00 00 00 00	 call	 ??BXMVECTORI32@DirectX@@QEBA?AT__m128@@XZ ; DirectX::XMVECTORI32::operator __m128
  00137	0f 28 45 40	 movaps	 xmm0, XMMWORD PTR vLengthSq$[rbp]
  0013b	0f c2 00 04	 cmpneqps xmm0, XMMWORD PTR [rax]
  0013f	0f 29 85 50 05
	00 00		 movaps	 XMMWORD PTR $T10[rbp], xmm0
  00146	0f 28 85 50 05
	00 00		 movaps	 xmm0, XMMWORD PTR $T10[rbp]
  0014d	0f 29 45 40	 movaps	 XMMWORD PTR vLengthSq$[rbp], xmm0

; 9296 :     // Divide to perform the normalization
; 9297 :     vResult = _mm_div_ps(V,vResult);

  00151	0f 28 45 10	 movaps	 xmm0, XMMWORD PTR V$[rbp]
  00155	0f 5e 85 a0 00
	00 00		 divps	 xmm0, XMMWORD PTR vResult$[rbp]
  0015c	0f 29 85 b0 05
	00 00		 movaps	 XMMWORD PTR $T12[rbp], xmm0
  00163	0f 28 85 b0 05
	00 00		 movaps	 xmm0, XMMWORD PTR $T12[rbp]
  0016a	0f 29 85 a0 00
	00 00		 movaps	 XMMWORD PTR vResult$[rbp], xmm0

; 9298 :     // Any that are infinity, set to zero
; 9299 :     vResult = _mm_and_ps(vResult,vZeroMask);

  00171	0f 28 85 a0 00
	00 00		 movaps	 xmm0, XMMWORD PTR vResult$[rbp]
  00178	0f 54 85 d0 00
	00 00		 andps	 xmm0, XMMWORD PTR vZeroMask$[rbp]
  0017f	0f 29 85 e0 05
	00 00		 movaps	 XMMWORD PTR $T13[rbp], xmm0
  00186	0f 28 85 e0 05
	00 00		 movaps	 xmm0, XMMWORD PTR $T13[rbp]
  0018d	0f 29 85 a0 00
	00 00		 movaps	 XMMWORD PTR vResult$[rbp], xmm0

; 9300 :     // Select qnan or result based on infinite length
; 9301 :     XMVECTOR vTemp1 = _mm_andnot_ps(vLengthSq,g_XMQNaN);

  00194	48 8d 95 40 06
	00 00		 lea	 rdx, QWORD PTR $T15[rbp]
  0019b	48 8d 0d 00 00
	00 00		 lea	 rcx, OFFSET FLAT:?g_XMQNaN@DirectX@@3UXMVECTORI32@1@B ; DirectX::g_XMQNaN
  001a2	e8 00 00 00 00	 call	 ??BXMVECTORI32@DirectX@@QEBA?AT__m128@@XZ ; DirectX::XMVECTORI32::operator __m128
  001a7	0f 28 45 40	 movaps	 xmm0, XMMWORD PTR vLengthSq$[rbp]
  001ab	0f 55 00	 andnps	 xmm0, XMMWORD PTR [rax]
  001ae	0f 29 85 10 06
	00 00		 movaps	 XMMWORD PTR $T14[rbp], xmm0
  001b5	0f 28 85 10 06
	00 00		 movaps	 xmm0, XMMWORD PTR $T14[rbp]
  001bc	0f 29 85 00 01
	00 00		 movaps	 XMMWORD PTR vTemp1$[rbp], xmm0

; 9302 :     XMVECTOR vTemp2 = _mm_and_ps(vResult,vLengthSq);

  001c3	0f 28 85 a0 00
	00 00		 movaps	 xmm0, XMMWORD PTR vResult$[rbp]
  001ca	0f 54 45 40	 andps	 xmm0, XMMWORD PTR vLengthSq$[rbp]
  001ce	0f 29 85 70 06
	00 00		 movaps	 XMMWORD PTR $T16[rbp], xmm0
  001d5	0f 28 85 70 06
	00 00		 movaps	 xmm0, XMMWORD PTR $T16[rbp]
  001dc	0f 29 85 30 01
	00 00		 movaps	 XMMWORD PTR vTemp2$[rbp], xmm0

; 9303 :     vResult = _mm_or_ps(vTemp1,vTemp2);

  001e3	0f 28 85 00 01
	00 00		 movaps	 xmm0, XMMWORD PTR vTemp1$[rbp]
  001ea	0f 56 85 30 01
	00 00		 orps	 xmm0, XMMWORD PTR vTemp2$[rbp]
  001f1	0f 29 85 a0 06
	00 00		 movaps	 XMMWORD PTR $T17[rbp], xmm0
  001f8	0f 28 85 a0 06
	00 00		 movaps	 xmm0, XMMWORD PTR $T17[rbp]
  001ff	0f 29 85 a0 00
	00 00		 movaps	 XMMWORD PTR vResult$[rbp], xmm0

; 9304 :     return vResult;

  00206	0f 28 85 a0 00
	00 00		 movaps	 xmm0, XMMWORD PTR vResult$[rbp]

; 9305 : #endif
; 9306 : }

  0020d	48 8d a5 c8 06
	00 00		 lea	 rsp, QWORD PTR [rbp+1736]
  00214	5f		 pop	 rdi
  00215	5d		 pop	 rbp
  00216	c3		 ret	 0
?XMVector3Normalize@DirectX@@YQ?AT__m128@@T2@@Z ENDP	; DirectX::XMVector3Normalize
_TEXT	ENDS
; Function compile flags: /Odtp /RTCsu /ZI
; File c:\program files (x86)\windows kits\8.1\include\um\directxmathvector.inl
;	COMDAT ?XMVector3Length@DirectX@@YQ?AT__m128@@T2@@Z
_TEXT	SEGMENT
V$ = 16
vLengthSq$ = 64
vTemp$ = 112
$T1 = 352
$T2 = 400
$T3 = 448
$T4 = 496
$T5 = 544
$T6 = 592
$T7 = 640
?XMVector3Length@DirectX@@YQ?AT__m128@@T2@@Z PROC	; DirectX::XMVector3Length, COMDAT

; 9133 : {

$LN3:
  00000	40 55		 push	 rbp
  00002	57		 push	 rdi
  00003	48 81 ec b8 02
	00 00		 sub	 rsp, 696		; 000002b8H
  0000a	48 8d 6c 24 10	 lea	 rbp, QWORD PTR [rsp+16]
  0000f	48 8b fc	 mov	 rdi, rsp
  00012	b9 ae 00 00 00	 mov	 ecx, 174		; 000000aeH
  00017	b8 cc cc cc cc	 mov	 eax, -858993460		; ccccccccH
  0001c	f3 ab		 rep stosd
  0001e	48 8d 45 10	 lea	 rax, QWORD PTR V$[rbp]
  00022	48 89 84 24 d0
	02 00 00	 mov	 QWORD PTR [rsp+720], rax
  0002a	0f 29 45 10	 movaps	 XMMWORD PTR V$[rbp], xmm0

; 9134 : #if defined(_XM_NO_INTRINSICS_)
; 9135 : 
; 9136 :     XMVECTOR Result;
; 9137 : 
; 9138 :     Result = XMVector3LengthSq(V);
; 9139 :     Result = XMVectorSqrt(Result);
; 9140 : 
; 9141 :     return Result;
; 9142 : 
; 9143 : #elif defined(_XM_ARM_NEON_INTRINSICS_)
; 9144 :     // Dot3
; 9145 :     float32x4_t vTemp = vmulq_f32( V, V );
; 9146 :     float32x2_t v1 = vget_low_f32( vTemp );
; 9147 :     float32x2_t v2 = vget_high_f32( vTemp );
; 9148 :     v1 = vpadd_f32( v1, v1 );
; 9149 :     v2 = vdup_lane_f32( v2, 0 );
; 9150 :     v1 = vadd_f32( v1, v2 );
; 9151 :     const float32x2_t zero = vdup_n_f32(0);
; 9152 :     uint32x2_t VEqualsZero = vceq_f32( v1, zero );
; 9153 :     // Sqrt
; 9154 :     float32x2_t S0 = vrsqrte_f32( v1 );
; 9155 :     float32x2_t P0 = vmul_f32( v1, S0 );
; 9156 :     float32x2_t R0 = vrsqrts_f32( P0, S0 );
; 9157 :     float32x2_t S1 = vmul_f32( S0, R0 );
; 9158 :     float32x2_t P1 = vmul_f32( v1, S1 );
; 9159 :     float32x2_t R1 = vrsqrts_f32( P1, S1 );
; 9160 :     float32x2_t Result = vmul_f32( S1, R1 );
; 9161 :     Result = vmul_f32( v1, Result );
; 9162 :     Result = vbsl_f32( VEqualsZero, zero, Result );
; 9163 :     return vcombine_f32( Result, Result );
; 9164 : #elif defined(_XM_SSE_INTRINSICS_)
; 9165 :     // Perform the dot product on x,y and z
; 9166 :     XMVECTOR vLengthSq = _mm_mul_ps(V,V);

  0002e	0f 28 45 10	 movaps	 xmm0, XMMWORD PTR V$[rbp]
  00032	0f 59 45 10	 mulps	 xmm0, XMMWORD PTR V$[rbp]
  00036	0f 29 85 60 01
	00 00		 movaps	 XMMWORD PTR $T1[rbp], xmm0
  0003d	0f 28 85 60 01
	00 00		 movaps	 xmm0, XMMWORD PTR $T1[rbp]
  00044	0f 29 45 40	 movaps	 XMMWORD PTR vLengthSq$[rbp], xmm0

; 9167 :     // vTemp has z and y
; 9168 :     XMVECTOR vTemp = XM_PERMUTE_PS(vLengthSq,_MM_SHUFFLE(1,2,1,2));

  00048	0f 28 45 40	 movaps	 xmm0, XMMWORD PTR vLengthSq$[rbp]
  0004c	0f c6 45 40 66	 shufps	 xmm0, XMMWORD PTR vLengthSq$[rbp], 102 ; 00000066H
  00051	0f 29 85 90 01
	00 00		 movaps	 XMMWORD PTR $T2[rbp], xmm0
  00058	0f 28 85 90 01
	00 00		 movaps	 xmm0, XMMWORD PTR $T2[rbp]
  0005f	0f 29 45 70	 movaps	 XMMWORD PTR vTemp$[rbp], xmm0

; 9169 :     // x+z, y
; 9170 :     vLengthSq = _mm_add_ss(vLengthSq,vTemp);

  00063	0f 28 45 40	 movaps	 xmm0, XMMWORD PTR vLengthSq$[rbp]
  00067	f3 0f 58 45 70	 addss	 xmm0, DWORD PTR vTemp$[rbp]
  0006c	0f 29 85 c0 01
	00 00		 movaps	 XMMWORD PTR $T3[rbp], xmm0
  00073	0f 28 85 c0 01
	00 00		 movaps	 xmm0, XMMWORD PTR $T3[rbp]
  0007a	0f 29 45 40	 movaps	 XMMWORD PTR vLengthSq$[rbp], xmm0

; 9171 :     // y,y,y,y
; 9172 :     vTemp = XM_PERMUTE_PS(vTemp,_MM_SHUFFLE(1,1,1,1));

  0007e	0f 28 45 70	 movaps	 xmm0, XMMWORD PTR vTemp$[rbp]
  00082	0f c6 45 70 55	 shufps	 xmm0, XMMWORD PTR vTemp$[rbp], 85 ; 00000055H
  00087	0f 29 85 f0 01
	00 00		 movaps	 XMMWORD PTR $T4[rbp], xmm0
  0008e	0f 28 85 f0 01
	00 00		 movaps	 xmm0, XMMWORD PTR $T4[rbp]
  00095	0f 29 45 70	 movaps	 XMMWORD PTR vTemp$[rbp], xmm0

; 9173 :     // x+z+y,??,??,??
; 9174 :     vLengthSq = _mm_add_ss(vLengthSq,vTemp);

  00099	0f 28 45 40	 movaps	 xmm0, XMMWORD PTR vLengthSq$[rbp]
  0009d	f3 0f 58 45 70	 addss	 xmm0, DWORD PTR vTemp$[rbp]
  000a2	0f 29 85 20 02
	00 00		 movaps	 XMMWORD PTR $T5[rbp], xmm0
  000a9	0f 28 85 20 02
	00 00		 movaps	 xmm0, XMMWORD PTR $T5[rbp]
  000b0	0f 29 45 40	 movaps	 XMMWORD PTR vLengthSq$[rbp], xmm0

; 9175 :     // Splat the length squared
; 9176 :     vLengthSq = XM_PERMUTE_PS(vLengthSq,_MM_SHUFFLE(0,0,0,0));

  000b4	0f 28 45 40	 movaps	 xmm0, XMMWORD PTR vLengthSq$[rbp]
  000b8	0f c6 45 40 00	 shufps	 xmm0, XMMWORD PTR vLengthSq$[rbp], 0
  000bd	0f 29 85 50 02
	00 00		 movaps	 XMMWORD PTR $T6[rbp], xmm0
  000c4	0f 28 85 50 02
	00 00		 movaps	 xmm0, XMMWORD PTR $T6[rbp]
  000cb	0f 29 45 40	 movaps	 XMMWORD PTR vLengthSq$[rbp], xmm0

; 9177 :     // Get the length
; 9178 :     vLengthSq = _mm_sqrt_ps(vLengthSq);

  000cf	0f 51 45 40	 sqrtps	 xmm0, XMMWORD PTR vLengthSq$[rbp]
  000d3	0f 29 85 80 02
	00 00		 movaps	 XMMWORD PTR $T7[rbp], xmm0
  000da	0f 28 85 80 02
	00 00		 movaps	 xmm0, XMMWORD PTR $T7[rbp]
  000e1	0f 29 45 40	 movaps	 XMMWORD PTR vLengthSq$[rbp], xmm0

; 9179 :     return vLengthSq;

  000e5	0f 28 45 40	 movaps	 xmm0, XMMWORD PTR vLengthSq$[rbp]

; 9180 : #endif
; 9181 : }

  000e9	48 8d a5 a8 02
	00 00		 lea	 rsp, QWORD PTR [rbp+680]
  000f0	5f		 pop	 rdi
  000f1	5d		 pop	 rbp
  000f2	c3		 ret	 0
?XMVector3Length@DirectX@@YQ?AT__m128@@T2@@Z ENDP	; DirectX::XMVector3Length
_TEXT	ENDS
; Function compile flags: /Odtp /RTCsu /ZI
; File c:\program files (x86)\windows kits\8.1\include\um\directxmathvector.inl
;	COMDAT ?XMVectorScale@DirectX@@YQ?AT__m128@@T2@M@Z
_TEXT	SEGMENT
V$ = 16
vResult$ = 64
$T1 = 304
$T2 = 352
ScaleFactor$ = 424
?XMVectorScale@DirectX@@YQ?AT__m128@@T2@M@Z PROC	; DirectX::XMVectorScale, COMDAT

; 2965 : {

$LN3:
  00000	f3 0f 11 4c 24
	10		 movss	 DWORD PTR [rsp+16], xmm1
  00006	55		 push	 rbp
  00007	57		 push	 rdi
  00008	48 81 ec 98 01
	00 00		 sub	 rsp, 408		; 00000198H
  0000f	48 8d 6c 24 10	 lea	 rbp, QWORD PTR [rsp+16]
  00014	48 8b fc	 mov	 rdi, rsp
  00017	b9 66 00 00 00	 mov	 ecx, 102		; 00000066H
  0001c	b8 cc cc cc cc	 mov	 eax, -858993460		; ccccccccH
  00021	f3 ab		 rep stosd
  00023	48 8d 45 10	 lea	 rax, QWORD PTR V$[rbp]
  00027	48 89 84 24 b0
	01 00 00	 mov	 QWORD PTR [rsp+432], rax
  0002f	0f 29 45 10	 movaps	 XMMWORD PTR V$[rbp], xmm0

; 2966 : #if defined(_XM_NO_INTRINSICS_)
; 2967 :     XMVECTOR Result;
; 2968 :     Result.vector4_f32[0] = V.vector4_f32[0] * ScaleFactor;
; 2969 :     Result.vector4_f32[1] = V.vector4_f32[1] * ScaleFactor;
; 2970 :     Result.vector4_f32[2] = V.vector4_f32[2] * ScaleFactor;
; 2971 :     Result.vector4_f32[3] = V.vector4_f32[3] * ScaleFactor;
; 2972 :     return Result;
; 2973 : #elif defined(_XM_ARM_NEON_INTRINSICS_)
; 2974 :     return XM_VMULQ_N_F32( V, ScaleFactor );
; 2975 : #elif defined(_XM_SSE_INTRINSICS_)
; 2976 :    XMVECTOR vResult = _mm_set_ps1(ScaleFactor);

  00033	f3 0f 10 85 a8
	01 00 00	 movss	 xmm0, DWORD PTR ScaleFactor$[rbp]
  0003b	0f c6 c0 00	 shufps	 xmm0, xmm0, 0
  0003f	0f 29 85 30 01
	00 00		 movaps	 XMMWORD PTR $T1[rbp], xmm0
  00046	0f 28 85 30 01
	00 00		 movaps	 xmm0, XMMWORD PTR $T1[rbp]
  0004d	0f 29 45 40	 movaps	 XMMWORD PTR vResult$[rbp], xmm0

; 2977 :    return _mm_mul_ps(vResult,V);

  00051	0f 28 45 40	 movaps	 xmm0, XMMWORD PTR vResult$[rbp]
  00055	0f 59 45 10	 mulps	 xmm0, XMMWORD PTR V$[rbp]
  00059	0f 29 85 60 01
	00 00		 movaps	 XMMWORD PTR $T2[rbp], xmm0
  00060	0f 28 85 60 01
	00 00		 movaps	 xmm0, XMMWORD PTR $T2[rbp]

; 2978 : #endif
; 2979 : }

  00067	48 8d a5 88 01
	00 00		 lea	 rsp, QWORD PTR [rbp+392]
  0006e	5f		 pop	 rdi
  0006f	5d		 pop	 rbp
  00070	c3		 ret	 0
?XMVectorScale@DirectX@@YQ?AT__m128@@T2@M@Z ENDP	; DirectX::XMVectorScale
_TEXT	ENDS
; Function compile flags: /Odtp /RTCsu /ZI
; File c:\program files (x86)\windows kits\8.1\include\um\directxmathvector.inl
;	COMDAT ?XMVectorSubtract@DirectX@@YQ?AT__m128@@T2@0@Z
_TEXT	SEGMENT
V1$ = 16
V2$ = 64
$T1 = 304
?XMVectorSubtract@DirectX@@YQ?AT__m128@@T2@0@Z PROC	; DirectX::XMVectorSubtract, COMDAT

; 2784 : {

$LN3:
  00000	40 55		 push	 rbp
  00002	57		 push	 rdi
  00003	48 81 ec 68 01
	00 00		 sub	 rsp, 360		; 00000168H
  0000a	48 8d 6c 24 10	 lea	 rbp, QWORD PTR [rsp+16]
  0000f	48 8b fc	 mov	 rdi, rsp
  00012	b9 5a 00 00 00	 mov	 ecx, 90			; 0000005aH
  00017	b8 cc cc cc cc	 mov	 eax, -858993460		; ccccccccH
  0001c	f3 ab		 rep stosd
  0001e	48 8d 45 10	 lea	 rax, QWORD PTR V1$[rbp]
  00022	48 89 84 24 80
	01 00 00	 mov	 QWORD PTR [rsp+384], rax
  0002a	48 8d 45 40	 lea	 rax, QWORD PTR V2$[rbp]
  0002e	48 89 84 24 88
	01 00 00	 mov	 QWORD PTR [rsp+392], rax
  00036	0f 29 4d 40	 movaps	 XMMWORD PTR V2$[rbp], xmm1
  0003a	0f 29 45 10	 movaps	 XMMWORD PTR V1$[rbp], xmm0

; 2785 : #if defined(_XM_NO_INTRINSICS_)
; 2786 : 
; 2787 :     XMVECTOR Result;
; 2788 :     Result.vector4_f32[0] = V1.vector4_f32[0] - V2.vector4_f32[0];
; 2789 :     Result.vector4_f32[1] = V1.vector4_f32[1] - V2.vector4_f32[1];
; 2790 :     Result.vector4_f32[2] = V1.vector4_f32[2] - V2.vector4_f32[2];
; 2791 :     Result.vector4_f32[3] = V1.vector4_f32[3] - V2.vector4_f32[3];
; 2792 :     return Result;
; 2793 : 
; 2794 : #elif defined(_XM_ARM_NEON_INTRINSICS_)
; 2795 :     return vsubq_f32( V1, V2 );
; 2796 : #elif defined(_XM_SSE_INTRINSICS_)
; 2797 :     return _mm_sub_ps( V1, V2 );

  0003e	0f 28 45 10	 movaps	 xmm0, XMMWORD PTR V1$[rbp]
  00042	0f 5c 45 40	 subps	 xmm0, XMMWORD PTR V2$[rbp]
  00046	0f 29 85 30 01
	00 00		 movaps	 XMMWORD PTR $T1[rbp], xmm0
  0004d	0f 28 85 30 01
	00 00		 movaps	 xmm0, XMMWORD PTR $T1[rbp]

; 2798 : #endif
; 2799 : }

  00054	48 8d a5 58 01
	00 00		 lea	 rsp, QWORD PTR [rbp+344]
  0005b	5f		 pop	 rdi
  0005c	5d		 pop	 rbp
  0005d	c3		 ret	 0
?XMVectorSubtract@DirectX@@YQ?AT__m128@@T2@0@Z ENDP	; DirectX::XMVectorSubtract
_TEXT	ENDS
; Function compile flags: /Odtp /RTCsu /ZI
; File c:\program files (x86)\windows kits\8.1\include\um\directxmathvector.inl
;	COMDAT ?XMVectorAdd@DirectX@@YQ?AT__m128@@T2@0@Z
_TEXT	SEGMENT
V1$ = 16
V2$ = 64
$T1 = 304
?XMVectorAdd@DirectX@@YQ?AT__m128@@T2@0@Z PROC		; DirectX::XMVectorAdd, COMDAT

; 2701 : {

$LN3:
  00000	40 55		 push	 rbp
  00002	57		 push	 rdi
  00003	48 81 ec 68 01
	00 00		 sub	 rsp, 360		; 00000168H
  0000a	48 8d 6c 24 10	 lea	 rbp, QWORD PTR [rsp+16]
  0000f	48 8b fc	 mov	 rdi, rsp
  00012	b9 5a 00 00 00	 mov	 ecx, 90			; 0000005aH
  00017	b8 cc cc cc cc	 mov	 eax, -858993460		; ccccccccH
  0001c	f3 ab		 rep stosd
  0001e	48 8d 45 10	 lea	 rax, QWORD PTR V1$[rbp]
  00022	48 89 84 24 80
	01 00 00	 mov	 QWORD PTR [rsp+384], rax
  0002a	48 8d 45 40	 lea	 rax, QWORD PTR V2$[rbp]
  0002e	48 89 84 24 88
	01 00 00	 mov	 QWORD PTR [rsp+392], rax
  00036	0f 29 4d 40	 movaps	 XMMWORD PTR V2$[rbp], xmm1
  0003a	0f 29 45 10	 movaps	 XMMWORD PTR V1$[rbp], xmm0

; 2702 : #if defined(_XM_NO_INTRINSICS_)
; 2703 : 
; 2704 :     XMVECTOR Result;
; 2705 :     Result.vector4_f32[0] = V1.vector4_f32[0] + V2.vector4_f32[0];
; 2706 :     Result.vector4_f32[1] = V1.vector4_f32[1] + V2.vector4_f32[1];
; 2707 :     Result.vector4_f32[2] = V1.vector4_f32[2] + V2.vector4_f32[2];
; 2708 :     Result.vector4_f32[3] = V1.vector4_f32[3] + V2.vector4_f32[3];
; 2709 :     return Result;
; 2710 : 
; 2711 : #elif defined(_XM_ARM_NEON_INTRINSICS_)
; 2712 :     return vaddq_f32( V1, V2 );
; 2713 : #elif defined(_XM_SSE_INTRINSICS_)
; 2714 :     return _mm_add_ps( V1, V2 );

  0003e	0f 28 45 10	 movaps	 xmm0, XMMWORD PTR V1$[rbp]
  00042	0f 58 45 40	 addps	 xmm0, XMMWORD PTR V2$[rbp]
  00046	0f 29 85 30 01
	00 00		 movaps	 XMMWORD PTR $T1[rbp], xmm0
  0004d	0f 28 85 30 01
	00 00		 movaps	 xmm0, XMMWORD PTR $T1[rbp]

; 2715 : #endif
; 2716 : }

  00054	48 8d a5 58 01
	00 00		 lea	 rsp, QWORD PTR [rbp+344]
  0005b	5f		 pop	 rdi
  0005c	5d		 pop	 rbp
  0005d	c3		 ret	 0
?XMVectorAdd@DirectX@@YQ?AT__m128@@T2@0@Z ENDP		; DirectX::XMVectorAdd
_TEXT	ENDS
; Function compile flags: /Odtp /RTCsu /ZI
; File c:\program files (x86)\windows kits\8.1\include\um\directxmathvector.inl
;	COMDAT ?XMVectorSetY@DirectX@@YQ?AT__m128@@T2@M@Z
_TEXT	SEGMENT
V$ = 16
vResult$ = 64
vTemp$ = 112
$T1 = 352
$T2 = 400
$T3 = 448
$T4 = 496
y$ = 568
?XMVectorSetY@DirectX@@YQ?AT__m128@@T2@M@Z PROC		; DirectX::XMVectorSetY, COMDAT

; 742  : {

$LN3:
  00000	f3 0f 11 4c 24
	10		 movss	 DWORD PTR [rsp+16], xmm1
  00006	55		 push	 rbp
  00007	57		 push	 rdi
  00008	48 81 ec 28 02
	00 00		 sub	 rsp, 552		; 00000228H
  0000f	48 8d 6c 24 10	 lea	 rbp, QWORD PTR [rsp+16]
  00014	48 8b fc	 mov	 rdi, rsp
  00017	b9 8a 00 00 00	 mov	 ecx, 138		; 0000008aH
  0001c	b8 cc cc cc cc	 mov	 eax, -858993460		; ccccccccH
  00021	f3 ab		 rep stosd
  00023	48 8d 45 10	 lea	 rax, QWORD PTR V$[rbp]
  00027	48 89 84 24 40
	02 00 00	 mov	 QWORD PTR [rsp+576], rax
  0002f	0f 29 45 10	 movaps	 XMMWORD PTR V$[rbp], xmm0

; 743  : #if defined(_XM_NO_INTRINSICS_)
; 744  :     XMVECTOR U;
; 745  :     U.vector4_f32[0] = V.vector4_f32[0];
; 746  :     U.vector4_f32[1] = y;
; 747  :     U.vector4_f32[2] = V.vector4_f32[2];
; 748  :     U.vector4_f32[3] = V.vector4_f32[3];
; 749  :     return U;
; 750  : #elif defined(_XM_ARM_NEON_INTRINSICS_)
; 751  :     return vsetq_lane_f32(y,V,1);
; 752  : #elif defined(_XM_SSE_INTRINSICS_)
; 753  :     // Swap y and x
; 754  :     XMVECTOR vResult = XM_PERMUTE_PS(V,_MM_SHUFFLE(3,2,0,1));

  00033	0f 28 45 10	 movaps	 xmm0, XMMWORD PTR V$[rbp]
  00037	0f c6 45 10 e1	 shufps	 xmm0, XMMWORD PTR V$[rbp], 225 ; 000000e1H
  0003c	0f 29 85 60 01
	00 00		 movaps	 XMMWORD PTR $T1[rbp], xmm0
  00043	0f 28 85 60 01
	00 00		 movaps	 xmm0, XMMWORD PTR $T1[rbp]
  0004a	0f 29 45 40	 movaps	 XMMWORD PTR vResult$[rbp], xmm0

; 755  :     // Convert input to vector
; 756  :     XMVECTOR vTemp = _mm_set_ss(y);

  0004e	f3 0f 10 85 38
	02 00 00	 movss	 xmm0, DWORD PTR y$[rbp]
  00056	0f 57 c9	 xorps	 xmm1, xmm1
  00059	f3 0f 10 c8	 movss	 xmm1, xmm0
  0005d	0f 28 c1	 movaps	 xmm0, xmm1
  00060	0f 29 85 90 01
	00 00		 movaps	 XMMWORD PTR $T2[rbp], xmm0
  00067	0f 28 85 90 01
	00 00		 movaps	 xmm0, XMMWORD PTR $T2[rbp]
  0006e	0f 29 45 70	 movaps	 XMMWORD PTR vTemp$[rbp], xmm0

; 757  :     // Replace the x component
; 758  :     vResult = _mm_move_ss(vResult,vTemp);

  00072	0f 28 45 40	 movaps	 xmm0, XMMWORD PTR vResult$[rbp]
  00076	0f 28 4d 70	 movaps	 xmm1, XMMWORD PTR vTemp$[rbp]
  0007a	f3 0f 10 c1	 movss	 xmm0, xmm1
  0007e	0f 29 85 c0 01
	00 00		 movaps	 XMMWORD PTR $T3[rbp], xmm0
  00085	0f 28 85 c0 01
	00 00		 movaps	 xmm0, XMMWORD PTR $T3[rbp]
  0008c	0f 29 45 40	 movaps	 XMMWORD PTR vResult$[rbp], xmm0

; 759  :     // Swap y and x again
; 760  :     vResult = XM_PERMUTE_PS(vResult,_MM_SHUFFLE(3,2,0,1));

  00090	0f 28 45 40	 movaps	 xmm0, XMMWORD PTR vResult$[rbp]
  00094	0f c6 45 40 e1	 shufps	 xmm0, XMMWORD PTR vResult$[rbp], 225 ; 000000e1H
  00099	0f 29 85 f0 01
	00 00		 movaps	 XMMWORD PTR $T4[rbp], xmm0
  000a0	0f 28 85 f0 01
	00 00		 movaps	 xmm0, XMMWORD PTR $T4[rbp]
  000a7	0f 29 45 40	 movaps	 XMMWORD PTR vResult$[rbp], xmm0

; 761  :     return vResult;

  000ab	0f 28 45 40	 movaps	 xmm0, XMMWORD PTR vResult$[rbp]

; 762  : #endif
; 763  : }

  000af	48 8d a5 18 02
	00 00		 lea	 rsp, QWORD PTR [rbp+536]
  000b6	5f		 pop	 rdi
  000b7	5d		 pop	 rbp
  000b8	c3		 ret	 0
?XMVectorSetY@DirectX@@YQ?AT__m128@@T2@M@Z ENDP		; DirectX::XMVectorSetY
_TEXT	ENDS
; Function compile flags: /Odtp /RTCsu /ZI
; File c:\program files (x86)\windows kits\8.1\include\um\directxmathvector.inl
;	COMDAT ?XMVectorGetY@DirectX@@YQMT__m128@@@Z
_TEXT	SEGMENT
V$ = 16
vTemp$ = 64
$T1 = 304
tv70 = 324
?XMVectorGetY@DirectX@@YQMT__m128@@@Z PROC		; DirectX::XMVectorGetY, COMDAT

; 431  : {

$LN3:
  00000	40 55		 push	 rbp
  00002	57		 push	 rdi
  00003	48 81 ec 68 01
	00 00		 sub	 rsp, 360		; 00000168H
  0000a	48 8d 6c 24 10	 lea	 rbp, QWORD PTR [rsp+16]
  0000f	48 8b fc	 mov	 rdi, rsp
  00012	b9 5a 00 00 00	 mov	 ecx, 90			; 0000005aH
  00017	b8 cc cc cc cc	 mov	 eax, -858993460		; ccccccccH
  0001c	f3 ab		 rep stosd
  0001e	48 8d 45 10	 lea	 rax, QWORD PTR V$[rbp]
  00022	48 89 84 24 80
	01 00 00	 mov	 QWORD PTR [rsp+384], rax
  0002a	0f 29 45 10	 movaps	 XMMWORD PTR V$[rbp], xmm0

; 432  : #if defined(_XM_NO_INTRINSICS_)
; 433  :     return V.vector4_f32[1];
; 434  : #elif defined(_XM_ARM_NEON_INTRINSICS_)
; 435  :     return vgetq_lane_f32(V, 1);
; 436  : #elif defined(_XM_SSE_INTRINSICS_)
; 437  :     XMVECTOR vTemp = XM_PERMUTE_PS(V,_MM_SHUFFLE(1,1,1,1));

  0002e	0f 28 45 10	 movaps	 xmm0, XMMWORD PTR V$[rbp]
  00032	0f c6 45 10 55	 shufps	 xmm0, XMMWORD PTR V$[rbp], 85 ; 00000055H
  00037	0f 29 85 30 01
	00 00		 movaps	 XMMWORD PTR $T1[rbp], xmm0
  0003e	0f 28 85 30 01
	00 00		 movaps	 xmm0, XMMWORD PTR $T1[rbp]
  00045	0f 29 45 40	 movaps	 XMMWORD PTR vTemp$[rbp], xmm0

; 438  :     return _mm_cvtss_f32(vTemp);

  00049	0f 28 45 40	 movaps	 xmm0, XMMWORD PTR vTemp$[rbp]
  0004d	f3 0f 11 85 44
	01 00 00	 movss	 DWORD PTR tv70[rbp], xmm0
  00055	f3 0f 10 85 44
	01 00 00	 movss	 xmm0, DWORD PTR tv70[rbp]

; 439  : #endif
; 440  : }

  0005d	48 8d a5 58 01
	00 00		 lea	 rsp, QWORD PTR [rbp+344]
  00064	5f		 pop	 rdi
  00065	5d		 pop	 rbp
  00066	c3		 ret	 0
?XMVectorGetY@DirectX@@YQMT__m128@@@Z ENDP		; DirectX::XMVectorGetY
_TEXT	ENDS
; Function compile flags: /Odtp /RTCsu /ZI
; File c:\program files (x86)\windows kits\8.1\include\um\directxmathvector.inl
;	COMDAT ?XMVectorGetX@DirectX@@YQMT__m128@@@Z
_TEXT	SEGMENT
V$ = 16
tv66 = 228
?XMVectorGetX@DirectX@@YQMT__m128@@@Z PROC		; DirectX::XMVectorGetX, COMDAT

; 419  : {

$LN3:
  00000	40 55		 push	 rbp
  00002	57		 push	 rdi
  00003	48 81 ec 08 01
	00 00		 sub	 rsp, 264		; 00000108H
  0000a	48 8d 6c 24 10	 lea	 rbp, QWORD PTR [rsp+16]
  0000f	48 8b fc	 mov	 rdi, rsp
  00012	b9 42 00 00 00	 mov	 ecx, 66			; 00000042H
  00017	b8 cc cc cc cc	 mov	 eax, -858993460		; ccccccccH
  0001c	f3 ab		 rep stosd
  0001e	48 8d 45 10	 lea	 rax, QWORD PTR V$[rbp]
  00022	48 89 84 24 20
	01 00 00	 mov	 QWORD PTR [rsp+288], rax
  0002a	0f 29 45 10	 movaps	 XMMWORD PTR V$[rbp], xmm0

; 420  : #if defined(_XM_NO_INTRINSICS_)
; 421  :     return V.vector4_f32[0];
; 422  : #elif defined(_XM_ARM_NEON_INTRINSICS_)
; 423  :     return vgetq_lane_f32(V, 0);
; 424  : #elif defined(_XM_SSE_INTRINSICS_)
; 425  :     return _mm_cvtss_f32(V);

  0002e	0f 28 45 10	 movaps	 xmm0, XMMWORD PTR V$[rbp]
  00032	f3 0f 11 85 e4
	00 00 00	 movss	 DWORD PTR tv66[rbp], xmm0
  0003a	f3 0f 10 85 e4
	00 00 00	 movss	 xmm0, DWORD PTR tv66[rbp]

; 426  : #endif
; 427  : }

  00042	48 8d a5 f8 00
	00 00		 lea	 rsp, QWORD PTR [rbp+248]
  00049	5f		 pop	 rdi
  0004a	5d		 pop	 rbp
  0004b	c3		 ret	 0
?XMVectorGetX@DirectX@@YQMT__m128@@@Z ENDP		; DirectX::XMVectorGetX
_TEXT	ENDS
; Function compile flags: /Odtp /RTCsu /ZI
; File c:\program files (x86)\windows kits\8.1\include\um\directxmathconvert.inl
;	COMDAT ?XMStoreFloat4x4@DirectX@@YQXPEAUXMFLOAT4X4@1@UXMMATRIX@1@@Z
_TEXT	SEGMENT
M$ = 16
pDestination$ = 320
?XMStoreFloat4x4@DirectX@@YQXPEAUXMFLOAT4X4@1@UXMMATRIX@1@@Z PROC ; DirectX::XMStoreFloat4x4, COMDAT

; 1818 : {

$LN4:
  00000	48 89 4c 24 08	 mov	 QWORD PTR [rsp+8], rcx
  00005	55		 push	 rbp
  00006	57		 push	 rdi
  00007	48 81 ec 48 01
	00 00		 sub	 rsp, 328		; 00000148H
  0000e	48 8d 6c 24 20	 lea	 rbp, QWORD PTR [rsp+32]
  00013	48 8b fc	 mov	 rdi, rsp
  00016	b9 52 00 00 00	 mov	 ecx, 82			; 00000052H
  0001b	b8 cc cc cc cc	 mov	 eax, -858993460		; ccccccccH
  00020	f3 ab		 rep stosd
  00022	48 8b 8c 24 68
	01 00 00	 mov	 rcx, QWORD PTR [rsp+360]
  0002a	48 8d 45 10	 lea	 rax, QWORD PTR M$[rbp]
  0002e	48 89 84 24 68
	01 00 00	 mov	 QWORD PTR [rsp+360], rax
  00036	0f 29 5d 40	 movaps	 XMMWORD PTR M$[rbp+48], xmm3
  0003a	0f 29 55 30	 movaps	 XMMWORD PTR M$[rbp+32], xmm2
  0003e	0f 29 4d 20	 movaps	 XMMWORD PTR M$[rbp+16], xmm1
  00042	0f 29 45 10	 movaps	 XMMWORD PTR M$[rbp], xmm0

; 1819 :     assert(pDestination);

  00046	48 83 bd 40 01
	00 00 00	 cmp	 QWORD PTR pDestination$[rbp], 0
  0004e	75 21		 jne	 SHORT $LN3@XMStoreFlo
  00050	8b 05 00 00 00
	00		 mov	 eax, DWORD PTR ?__LINE__Var@?0??XMStoreFloat4x4@DirectX@@YQXPEAUXMFLOAT4X4@2@UXMMATRIX@2@@Z@4JA
  00056	ff c0		 inc	 eax
  00058	44 8b c0	 mov	 r8d, eax
  0005b	48 8d 15 00 00
	00 00		 lea	 rdx, OFFSET FLAT:??_C@_1JE@DMOBBMDE@?$AAc?$AA?3?$AA?2?$AAp?$AAr?$AAo?$AAg?$AAr?$AAa?$AAm?$AA?5?$AAf?$AAi?$AAl?$AAe?$AAs?$AA?5?$AA?$CI?$AAx?$AA8?$AA6?$AA?$CJ?$AA?2?$AAw?$AAi?$AAn?$AAd?$AAo?$AAw?$AAs?$AA?5?$AAk@
  00062	48 8d 0d 00 00
	00 00		 lea	 rcx, OFFSET FLAT:??_C@_1BK@FHLBGAOP@?$AAp?$AAD?$AAe?$AAs?$AAt?$AAi?$AAn?$AAa?$AAt?$AAi?$AAo?$AAn?$AA?$AA@
  00069	ff 15 00 00 00
	00		 call	 QWORD PTR __imp__wassert
  0006f	33 c0		 xor	 eax, eax
$LN3@XMStoreFlo:

; 1820 : #if defined(_XM_NO_INTRINSICS_)
; 1821 : 
; 1822 :     pDestination->m[0][0] = M.r[0].vector4_f32[0];
; 1823 :     pDestination->m[0][1] = M.r[0].vector4_f32[1];
; 1824 :     pDestination->m[0][2] = M.r[0].vector4_f32[2];
; 1825 :     pDestination->m[0][3] = M.r[0].vector4_f32[3];
; 1826 : 
; 1827 :     pDestination->m[1][0] = M.r[1].vector4_f32[0];
; 1828 :     pDestination->m[1][1] = M.r[1].vector4_f32[1];
; 1829 :     pDestination->m[1][2] = M.r[1].vector4_f32[2];
; 1830 :     pDestination->m[1][3] = M.r[1].vector4_f32[3];
; 1831 : 
; 1832 :     pDestination->m[2][0] = M.r[2].vector4_f32[0];
; 1833 :     pDestination->m[2][1] = M.r[2].vector4_f32[1];
; 1834 :     pDestination->m[2][2] = M.r[2].vector4_f32[2];
; 1835 :     pDestination->m[2][3] = M.r[2].vector4_f32[3];
; 1836 : 
; 1837 :     pDestination->m[3][0] = M.r[3].vector4_f32[0];
; 1838 :     pDestination->m[3][1] = M.r[3].vector4_f32[1];
; 1839 :     pDestination->m[3][2] = M.r[3].vector4_f32[2];
; 1840 :     pDestination->m[3][3] = M.r[3].vector4_f32[3];
; 1841 : 
; 1842 : #elif defined(_XM_ARM_NEON_INTRINSICS_)
; 1843 :     vst1q_f32( reinterpret_cast<float*>(&pDestination->_11), M.r[0] );
; 1844 :     vst1q_f32( reinterpret_cast<float*>(&pDestination->_21), M.r[1] );
; 1845 :     vst1q_f32( reinterpret_cast<float*>(&pDestination->_31), M.r[2] );
; 1846 :     vst1q_f32( reinterpret_cast<float*>(&pDestination->_41), M.r[3] );
; 1847 : #elif defined(_XM_SSE_INTRINSICS_)
; 1848 :     _mm_storeu_ps( &pDestination->_11, M.r[0] );

  00071	b8 10 00 00 00	 mov	 eax, 16
  00076	48 6b c0 00	 imul	 rax, rax, 0
  0007a	48 8b 8d 40 01
	00 00		 mov	 rcx, QWORD PTR pDestination$[rbp]
  00081	0f 10 44 05 10	 movups	 xmm0, XMMWORD PTR M$[rbp+rax]
  00086	0f 11 01	 movups	 XMMWORD PTR [rcx], xmm0

; 1849 :     _mm_storeu_ps( &pDestination->_21, M.r[1] );

  00089	b8 10 00 00 00	 mov	 eax, 16
  0008e	48 6b c0 01	 imul	 rax, rax, 1
  00092	48 8b 8d 40 01
	00 00		 mov	 rcx, QWORD PTR pDestination$[rbp]
  00099	48 83 c1 10	 add	 rcx, 16
  0009d	0f 10 44 05 10	 movups	 xmm0, XMMWORD PTR M$[rbp+rax]
  000a2	0f 11 01	 movups	 XMMWORD PTR [rcx], xmm0

; 1850 :     _mm_storeu_ps( &pDestination->_31, M.r[2] );

  000a5	b8 10 00 00 00	 mov	 eax, 16
  000aa	48 6b c0 02	 imul	 rax, rax, 2
  000ae	48 8b 8d 40 01
	00 00		 mov	 rcx, QWORD PTR pDestination$[rbp]
  000b5	48 83 c1 20	 add	 rcx, 32			; 00000020H
  000b9	0f 10 44 05 10	 movups	 xmm0, XMMWORD PTR M$[rbp+rax]
  000be	0f 11 01	 movups	 XMMWORD PTR [rcx], xmm0

; 1851 :     _mm_storeu_ps( &pDestination->_41, M.r[3] );

  000c1	b8 10 00 00 00	 mov	 eax, 16
  000c6	48 6b c0 03	 imul	 rax, rax, 3
  000ca	48 8b 8d 40 01
	00 00		 mov	 rcx, QWORD PTR pDestination$[rbp]
  000d1	48 83 c1 30	 add	 rcx, 48			; 00000030H
  000d5	0f 10 44 05 10	 movups	 xmm0, XMMWORD PTR M$[rbp+rax]
  000da	0f 11 01	 movups	 XMMWORD PTR [rcx], xmm0

; 1852 : #endif
; 1853 : }

  000dd	48 8d 4d e0	 lea	 rcx, QWORD PTR [rbp-32]
  000e1	48 8d 15 00 00
	00 00		 lea	 rdx, OFFSET FLAT:?XMStoreFloat4x4@DirectX@@YQXPEAUXMFLOAT4X4@1@UXMMATRIX@1@@Z$rtcFrameData
  000e8	e8 00 00 00 00	 call	 _RTC_CheckStackVars
  000ed	48 8d a5 28 01
	00 00		 lea	 rsp, QWORD PTR [rbp+296]
  000f4	5f		 pop	 rdi
  000f5	5d		 pop	 rbp
  000f6	c3		 ret	 0
?XMStoreFloat4x4@DirectX@@YQXPEAUXMFLOAT4X4@1@UXMMATRIX@1@@Z ENDP ; DirectX::XMStoreFloat4x4
_TEXT	ENDS
; Function compile flags: /Odtp /RTCsu /ZI
; File c:\program files (x86)\windows kits\8.1\include\um\directxmathconvert.inl
;	COMDAT ?XMStoreFloat3@DirectX@@YQXPEAUXMFLOAT3@1@T__m128@@@Z
_TEXT	SEGMENT
V$ = 16
T1$ = 64
T2$ = 112
$T1 = 352
$T2 = 400
pDestination$ = 464
?XMStoreFloat3@DirectX@@YQXPEAUXMFLOAT3@1@T__m128@@@Z PROC ; DirectX::XMStoreFloat3, COMDAT

; 1363 : {

$LN4:
  00000	48 89 4c 24 08	 mov	 QWORD PTR [rsp+8], rcx
  00005	55		 push	 rbp
  00006	57		 push	 rdi
  00007	48 81 ec d8 01
	00 00		 sub	 rsp, 472		; 000001d8H
  0000e	48 8d 6c 24 20	 lea	 rbp, QWORD PTR [rsp+32]
  00013	48 8b fc	 mov	 rdi, rsp
  00016	b9 76 00 00 00	 mov	 ecx, 118		; 00000076H
  0001b	b8 cc cc cc cc	 mov	 eax, -858993460		; ccccccccH
  00020	f3 ab		 rep stosd
  00022	48 8b 8c 24 f8
	01 00 00	 mov	 rcx, QWORD PTR [rsp+504]
  0002a	48 8d 45 10	 lea	 rax, QWORD PTR V$[rbp]
  0002e	48 89 84 24 f8
	01 00 00	 mov	 QWORD PTR [rsp+504], rax
  00036	0f 29 4d 10	 movaps	 XMMWORD PTR V$[rbp], xmm1

; 1364 :     assert(pDestination);

  0003a	48 83 bd d0 01
	00 00 00	 cmp	 QWORD PTR pDestination$[rbp], 0
  00042	75 21		 jne	 SHORT $LN3@XMStoreFlo
  00044	8b 05 00 00 00
	00		 mov	 eax, DWORD PTR ?__LINE__Var@?0??XMStoreFloat3@DirectX@@YQXPEAUXMFLOAT3@2@T__m128@@@Z@4JA
  0004a	ff c0		 inc	 eax
  0004c	44 8b c0	 mov	 r8d, eax
  0004f	48 8d 15 00 00
	00 00		 lea	 rdx, OFFSET FLAT:??_C@_1JE@DMOBBMDE@?$AAc?$AA?3?$AA?2?$AAp?$AAr?$AAo?$AAg?$AAr?$AAa?$AAm?$AA?5?$AAf?$AAi?$AAl?$AAe?$AAs?$AA?5?$AA?$CI?$AAx?$AA8?$AA6?$AA?$CJ?$AA?2?$AAw?$AAi?$AAn?$AAd?$AAo?$AAw?$AAs?$AA?5?$AAk@
  00056	48 8d 0d 00 00
	00 00		 lea	 rcx, OFFSET FLAT:??_C@_1BK@FHLBGAOP@?$AAp?$AAD?$AAe?$AAs?$AAt?$AAi?$AAn?$AAa?$AAt?$AAi?$AAo?$AAn?$AA?$AA@
  0005d	ff 15 00 00 00
	00		 call	 QWORD PTR __imp__wassert
  00063	33 c0		 xor	 eax, eax
$LN3@XMStoreFlo:

; 1365 : #if defined(_XM_NO_INTRINSICS_)
; 1366 :     pDestination->x = V.vector4_f32[0];
; 1367 :     pDestination->y = V.vector4_f32[1];
; 1368 :     pDestination->z = V.vector4_f32[2];
; 1369 : #elif defined(_XM_ARM_NEON_INTRINSICS_)
; 1370 :     float32x2_t VL = vget_low_f32(V);
; 1371 :     vst1_f32( reinterpret_cast<float*>(pDestination), VL );
; 1372 :     vst1q_lane_f32( reinterpret_cast<float*>(pDestination)+2, V, 2 );
; 1373 : #elif defined(_XM_SSE_INTRINSICS_)
; 1374 :     XMVECTOR T1 = XM_PERMUTE_PS(V,_MM_SHUFFLE(1,1,1,1));

  00065	0f 28 45 10	 movaps	 xmm0, XMMWORD PTR V$[rbp]
  00069	0f c6 45 10 55	 shufps	 xmm0, XMMWORD PTR V$[rbp], 85 ; 00000055H
  0006e	0f 29 85 60 01
	00 00		 movaps	 XMMWORD PTR $T1[rbp], xmm0
  00075	0f 28 85 60 01
	00 00		 movaps	 xmm0, XMMWORD PTR $T1[rbp]
  0007c	0f 29 45 40	 movaps	 XMMWORD PTR T1$[rbp], xmm0

; 1375 :     XMVECTOR T2 = XM_PERMUTE_PS(V,_MM_SHUFFLE(2,2,2,2));

  00080	0f 28 45 10	 movaps	 xmm0, XMMWORD PTR V$[rbp]
  00084	0f c6 45 10 aa	 shufps	 xmm0, XMMWORD PTR V$[rbp], 170 ; 000000aaH
  00089	0f 29 85 90 01
	00 00		 movaps	 XMMWORD PTR $T2[rbp], xmm0
  00090	0f 28 85 90 01
	00 00		 movaps	 xmm0, XMMWORD PTR $T2[rbp]
  00097	0f 29 45 70	 movaps	 XMMWORD PTR T2$[rbp], xmm0

; 1376 :     _mm_store_ss( &pDestination->x, V );

  0009b	48 8b 85 d0 01
	00 00		 mov	 rax, QWORD PTR pDestination$[rbp]
  000a2	0f 28 45 10	 movaps	 xmm0, XMMWORD PTR V$[rbp]
  000a6	f3 0f 11 00	 movss	 DWORD PTR [rax], xmm0

; 1377 :     _mm_store_ss( &pDestination->y, T1 );

  000aa	48 8b 85 d0 01
	00 00		 mov	 rax, QWORD PTR pDestination$[rbp]
  000b1	48 83 c0 04	 add	 rax, 4
  000b5	0f 28 45 40	 movaps	 xmm0, XMMWORD PTR T1$[rbp]
  000b9	f3 0f 11 00	 movss	 DWORD PTR [rax], xmm0

; 1378 :     _mm_store_ss( &pDestination->z, T2 );

  000bd	48 8b 85 d0 01
	00 00		 mov	 rax, QWORD PTR pDestination$[rbp]
  000c4	48 83 c0 08	 add	 rax, 8
  000c8	0f 28 45 70	 movaps	 xmm0, XMMWORD PTR T2$[rbp]
  000cc	f3 0f 11 00	 movss	 DWORD PTR [rax], xmm0

; 1379 : #endif
; 1380 : }

  000d0	48 8d a5 b8 01
	00 00		 lea	 rsp, QWORD PTR [rbp+440]
  000d7	5f		 pop	 rdi
  000d8	5d		 pop	 rbp
  000d9	c3		 ret	 0
?XMStoreFloat3@DirectX@@YQXPEAUXMFLOAT3@1@T__m128@@@Z ENDP ; DirectX::XMStoreFloat3
_TEXT	ENDS
; Function compile flags: /Odtp /RTCsu /ZI
; File c:\program files (x86)\windows kits\8.1\include\um\directxmathconvert.inl
;	COMDAT ?XMLoadFloat4x4@DirectX@@YQ?AUXMMATRIX@1@PEBUXMFLOAT4X4@1@@Z
_TEXT	SEGMENT
M$ = 16
$T4 = 304
$T5 = 352
$T6 = 400
$T7 = 448
__$ArrayPad$ = 472
pSource$ = 512
?XMLoadFloat4x4@DirectX@@YQ?AUXMMATRIX@1@PEBUXMFLOAT4X4@1@@Z PROC ; DirectX::XMLoadFloat4x4, COMDAT

; 1013 : {

$LN4:
  00000	48 89 4c 24 08	 mov	 QWORD PTR [rsp+8], rcx
  00005	55		 push	 rbp
  00006	57		 push	 rdi
  00007	48 81 ec 18 02
	00 00		 sub	 rsp, 536		; 00000218H
  0000e	48 8d 6c 24 30	 lea	 rbp, QWORD PTR [rsp+48]
  00013	48 8b fc	 mov	 rdi, rsp
  00016	b9 86 00 00 00	 mov	 ecx, 134		; 00000086H
  0001b	b8 cc cc cc cc	 mov	 eax, -858993460		; ccccccccH
  00020	f3 ab		 rep stosd
  00022	48 8b 8c 24 38
	02 00 00	 mov	 rcx, QWORD PTR [rsp+568]
  0002a	48 8b 05 00 00
	00 00		 mov	 rax, QWORD PTR __security_cookie
  00031	48 33 c5	 xor	 rax, rbp
  00034	48 89 85 d8 01
	00 00		 mov	 QWORD PTR __$ArrayPad$[rbp], rax

; 1014 :     assert(pSource);

  0003b	48 83 bd 00 02
	00 00 00	 cmp	 QWORD PTR pSource$[rbp], 0
  00043	75 21		 jne	 SHORT $LN3@XMLoadFloa
  00045	8b 05 00 00 00
	00		 mov	 eax, DWORD PTR ?__LINE__Var@?0??XMLoadFloat4x4@DirectX@@YQ?AUXMMATRIX@2@PEBUXMFLOAT4X4@2@@Z@4JA
  0004b	ff c0		 inc	 eax
  0004d	44 8b c0	 mov	 r8d, eax
  00050	48 8d 15 00 00
	00 00		 lea	 rdx, OFFSET FLAT:??_C@_1JE@DMOBBMDE@?$AAc?$AA?3?$AA?2?$AAp?$AAr?$AAo?$AAg?$AAr?$AAa?$AAm?$AA?5?$AAf?$AAi?$AAl?$AAe?$AAs?$AA?5?$AA?$CI?$AAx?$AA8?$AA6?$AA?$CJ?$AA?2?$AAw?$AAi?$AAn?$AAd?$AAo?$AAw?$AAs?$AA?5?$AAk@
  00057	48 8d 0d 00 00
	00 00		 lea	 rcx, OFFSET FLAT:??_C@_1BA@LBADLIHI@?$AAp?$AAS?$AAo?$AAu?$AAr?$AAc?$AAe?$AA?$AA@
  0005e	ff 15 00 00 00
	00		 call	 QWORD PTR __imp__wassert
  00064	33 c0		 xor	 eax, eax
$LN3@XMLoadFloa:

; 1015 : #if defined(_XM_NO_INTRINSICS_)
; 1016 : 
; 1017 :     XMMATRIX M;
; 1018 :     M.r[0].vector4_f32[0] = pSource->m[0][0];
; 1019 :     M.r[0].vector4_f32[1] = pSource->m[0][1];
; 1020 :     M.r[0].vector4_f32[2] = pSource->m[0][2];
; 1021 :     M.r[0].vector4_f32[3] = pSource->m[0][3];
; 1022 : 
; 1023 :     M.r[1].vector4_f32[0] = pSource->m[1][0];
; 1024 :     M.r[1].vector4_f32[1] = pSource->m[1][1];
; 1025 :     M.r[1].vector4_f32[2] = pSource->m[1][2];
; 1026 :     M.r[1].vector4_f32[3] = pSource->m[1][3];
; 1027 : 
; 1028 :     M.r[2].vector4_f32[0] = pSource->m[2][0];
; 1029 :     M.r[2].vector4_f32[1] = pSource->m[2][1];
; 1030 :     M.r[2].vector4_f32[2] = pSource->m[2][2];
; 1031 :     M.r[2].vector4_f32[3] = pSource->m[2][3];
; 1032 : 
; 1033 :     M.r[3].vector4_f32[0] = pSource->m[3][0];
; 1034 :     M.r[3].vector4_f32[1] = pSource->m[3][1];
; 1035 :     M.r[3].vector4_f32[2] = pSource->m[3][2];
; 1036 :     M.r[3].vector4_f32[3] = pSource->m[3][3];
; 1037 :     return M;
; 1038 : 
; 1039 : #elif defined(_XM_ARM_NEON_INTRINSICS_)
; 1040 :     XMMATRIX M;
; 1041 :     M.r[0] = vld1q_f32( reinterpret_cast<const float*>(&pSource->_11) );
; 1042 :     M.r[1] = vld1q_f32( reinterpret_cast<const float*>(&pSource->_21) );
; 1043 :     M.r[2] = vld1q_f32( reinterpret_cast<const float*>(&pSource->_31) );
; 1044 :     M.r[3] = vld1q_f32( reinterpret_cast<const float*>(&pSource->_41) );
; 1045 :     return M;
; 1046 : #elif defined(_XM_SSE_INTRINSICS_)
; 1047 :     XMMATRIX M;

  00066	48 8d 4d 10	 lea	 rcx, QWORD PTR M$[rbp]
  0006a	e8 00 00 00 00	 call	 ??0XMMATRIX@DirectX@@QEAA@XZ ; DirectX::XMMATRIX::XMMATRIX

; 1048 :     M.r[0] = _mm_loadu_ps( &pSource->_11 );

  0006f	48 8b 85 00 02
	00 00		 mov	 rax, QWORD PTR pSource$[rbp]
  00076	0f 10 00	 movups	 xmm0, XMMWORD PTR [rax]
  00079	0f 29 85 30 01
	00 00		 movaps	 XMMWORD PTR $T4[rbp], xmm0
  00080	b8 10 00 00 00	 mov	 eax, 16
  00085	48 6b c0 00	 imul	 rax, rax, 0
  00089	0f 28 85 30 01
	00 00		 movaps	 xmm0, XMMWORD PTR $T4[rbp]
  00090	0f 11 44 05 10	 movups	 XMMWORD PTR M$[rbp+rax], xmm0

; 1049 :     M.r[1] = _mm_loadu_ps( &pSource->_21 );

  00095	48 8b 85 00 02
	00 00		 mov	 rax, QWORD PTR pSource$[rbp]
  0009c	48 83 c0 10	 add	 rax, 16
  000a0	0f 10 00	 movups	 xmm0, XMMWORD PTR [rax]
  000a3	0f 29 85 60 01
	00 00		 movaps	 XMMWORD PTR $T5[rbp], xmm0
  000aa	b8 10 00 00 00	 mov	 eax, 16
  000af	48 6b c0 01	 imul	 rax, rax, 1
  000b3	0f 28 85 60 01
	00 00		 movaps	 xmm0, XMMWORD PTR $T5[rbp]
  000ba	0f 11 44 05 10	 movups	 XMMWORD PTR M$[rbp+rax], xmm0

; 1050 :     M.r[2] = _mm_loadu_ps( &pSource->_31 );

  000bf	48 8b 85 00 02
	00 00		 mov	 rax, QWORD PTR pSource$[rbp]
  000c6	48 83 c0 20	 add	 rax, 32			; 00000020H
  000ca	0f 10 00	 movups	 xmm0, XMMWORD PTR [rax]
  000cd	0f 29 85 90 01
	00 00		 movaps	 XMMWORD PTR $T6[rbp], xmm0
  000d4	b8 10 00 00 00	 mov	 eax, 16
  000d9	48 6b c0 02	 imul	 rax, rax, 2
  000dd	0f 28 85 90 01
	00 00		 movaps	 xmm0, XMMWORD PTR $T6[rbp]
  000e4	0f 11 44 05 10	 movups	 XMMWORD PTR M$[rbp+rax], xmm0

; 1051 :     M.r[3] = _mm_loadu_ps( &pSource->_41 );

  000e9	48 8b 85 00 02
	00 00		 mov	 rax, QWORD PTR pSource$[rbp]
  000f0	48 83 c0 30	 add	 rax, 48			; 00000030H
  000f4	0f 10 00	 movups	 xmm0, XMMWORD PTR [rax]
  000f7	0f 29 85 c0 01
	00 00		 movaps	 XMMWORD PTR $T7[rbp], xmm0
  000fe	b8 10 00 00 00	 mov	 eax, 16
  00103	48 6b c0 03	 imul	 rax, rax, 3
  00107	0f 28 85 c0 01
	00 00		 movaps	 xmm0, XMMWORD PTR $T7[rbp]
  0010e	0f 11 44 05 10	 movups	 XMMWORD PTR M$[rbp+rax], xmm0

; 1052 :     return M;

  00113	0f 28 5d 40	 movaps	 xmm3, XMMWORD PTR M$[rbp+48]
  00117	0f 28 55 30	 movaps	 xmm2, XMMWORD PTR M$[rbp+32]
  0011b	0f 28 4d 20	 movaps	 xmm1, XMMWORD PTR M$[rbp+16]
  0011f	0f 28 45 10	 movaps	 xmm0, XMMWORD PTR M$[rbp]

; 1053 : #endif
; 1054 : }

  00123	f3 0f 7f 44 24
	20		 movdqu	 XMMWORD PTR [rsp+32], xmm0
  00129	48 8d 4d d0	 lea	 rcx, QWORD PTR [rbp-48]
  0012d	48 8d 15 00 00
	00 00		 lea	 rdx, OFFSET FLAT:?XMLoadFloat4x4@DirectX@@YQ?AUXMMATRIX@1@PEBUXMFLOAT4X4@1@@Z$rtcFrameData
  00134	e8 00 00 00 00	 call	 _RTC_CheckStackVars
  00139	f3 0f 6f 44 24
	20		 movdqu	 xmm0, XMMWORD PTR [rsp+32]
  0013f	48 8b 8d d8 01
	00 00		 mov	 rcx, QWORD PTR __$ArrayPad$[rbp]
  00146	48 33 cd	 xor	 rcx, rbp
  00149	e8 00 00 00 00	 call	 __security_check_cookie
  0014e	48 8d a5 e8 01
	00 00		 lea	 rsp, QWORD PTR [rbp+488]
  00155	5f		 pop	 rdi
  00156	5d		 pop	 rbp
  00157	c3		 ret	 0
?XMLoadFloat4x4@DirectX@@YQ?AUXMMATRIX@1@PEBUXMFLOAT4X4@1@@Z ENDP ; DirectX::XMLoadFloat4x4
_TEXT	ENDS
; Function compile flags: /Odtp /RTCsu /ZI
; File c:\program files (x86)\windows kits\8.1\include\um\directxmathconvert.inl
;	COMDAT ?XMLoadFloat4@DirectX@@YQ?AT__m128@@PEBUXMFLOAT4@1@@Z
_TEXT	SEGMENT
$T1 = 208
pSource$ = 272
?XMLoadFloat4@DirectX@@YQ?AT__m128@@PEBUXMFLOAT4@1@@Z PROC ; DirectX::XMLoadFloat4, COMDAT

; 680  : {

$LN4:
  00000	48 89 4c 24 08	 mov	 QWORD PTR [rsp+8], rcx
  00005	55		 push	 rbp
  00006	57		 push	 rdi
  00007	48 81 ec 28 01
	00 00		 sub	 rsp, 296		; 00000128H
  0000e	48 8d 6c 24 30	 lea	 rbp, QWORD PTR [rsp+48]
  00013	48 8b fc	 mov	 rdi, rsp
  00016	b9 4a 00 00 00	 mov	 ecx, 74			; 0000004aH
  0001b	b8 cc cc cc cc	 mov	 eax, -858993460		; ccccccccH
  00020	f3 ab		 rep stosd
  00022	48 8b 8c 24 48
	01 00 00	 mov	 rcx, QWORD PTR [rsp+328]

; 681  :     assert(pSource);

  0002a	48 83 bd 10 01
	00 00 00	 cmp	 QWORD PTR pSource$[rbp], 0
  00032	75 21		 jne	 SHORT $LN3@XMLoadFloa
  00034	8b 05 00 00 00
	00		 mov	 eax, DWORD PTR ?__LINE__Var@?0??XMLoadFloat4@DirectX@@YQ?AT__m128@@PEBUXMFLOAT4@2@@Z@4JA
  0003a	ff c0		 inc	 eax
  0003c	44 8b c0	 mov	 r8d, eax
  0003f	48 8d 15 00 00
	00 00		 lea	 rdx, OFFSET FLAT:??_C@_1JE@DMOBBMDE@?$AAc?$AA?3?$AA?2?$AAp?$AAr?$AAo?$AAg?$AAr?$AAa?$AAm?$AA?5?$AAf?$AAi?$AAl?$AAe?$AAs?$AA?5?$AA?$CI?$AAx?$AA8?$AA6?$AA?$CJ?$AA?2?$AAw?$AAi?$AAn?$AAd?$AAo?$AAw?$AAs?$AA?5?$AAk@
  00046	48 8d 0d 00 00
	00 00		 lea	 rcx, OFFSET FLAT:??_C@_1BA@LBADLIHI@?$AAp?$AAS?$AAo?$AAu?$AAr?$AAc?$AAe?$AA?$AA@
  0004d	ff 15 00 00 00
	00		 call	 QWORD PTR __imp__wassert
  00053	33 c0		 xor	 eax, eax
$LN3@XMLoadFloa:

; 682  : #if defined(_XM_NO_INTRINSICS_)
; 683  :     XMVECTOR V;
; 684  :     V.vector4_f32[0] = pSource->x;
; 685  :     V.vector4_f32[1] = pSource->y;
; 686  :     V.vector4_f32[2] = pSource->z;
; 687  :     V.vector4_f32[3] = pSource->w;
; 688  :     return V;
; 689  : #elif defined(_XM_ARM_NEON_INTRINSICS_)
; 690  :     return vld1q_f32( reinterpret_cast<const float*>(pSource) );
; 691  : #elif defined(_XM_SSE_INTRINSICS_)
; 692  :     return _mm_loadu_ps( &pSource->x );

  00055	48 8b 85 10 01
	00 00		 mov	 rax, QWORD PTR pSource$[rbp]
  0005c	0f 10 00	 movups	 xmm0, XMMWORD PTR [rax]
  0005f	0f 29 85 d0 00
	00 00		 movaps	 XMMWORD PTR $T1[rbp], xmm0
  00066	0f 28 85 d0 00
	00 00		 movaps	 xmm0, XMMWORD PTR $T1[rbp]

; 693  : #endif
; 694  : }

  0006d	48 8d a5 f8 00
	00 00		 lea	 rsp, QWORD PTR [rbp+248]
  00074	5f		 pop	 rdi
  00075	5d		 pop	 rbp
  00076	c3		 ret	 0
?XMLoadFloat4@DirectX@@YQ?AT__m128@@PEBUXMFLOAT4@1@@Z ENDP ; DirectX::XMLoadFloat4
_TEXT	ENDS
; Function compile flags: /Odtp /RTCsu /ZI
; File c:\program files (x86)\windows kits\8.1\include\um\directxmath.h
;	COMDAT ??0XMFLOAT4X4@DirectX@@QEAA@XZ
_TEXT	SEGMENT
this$ = 224
??0XMFLOAT4X4@DirectX@@QEAA@XZ PROC			; DirectX::XMFLOAT4X4::XMFLOAT4X4, COMDAT

; 698  :     XMFLOAT4X4() {}

$LN3:
  00000	48 89 4c 24 08	 mov	 QWORD PTR [rsp+8], rcx
  00005	55		 push	 rbp
  00006	57		 push	 rdi
  00007	48 81 ec c8 00
	00 00		 sub	 rsp, 200		; 000000c8H
  0000e	48 8b ec	 mov	 rbp, rsp
  00011	48 8b fc	 mov	 rdi, rsp
  00014	b9 32 00 00 00	 mov	 ecx, 50			; 00000032H
  00019	b8 cc cc cc cc	 mov	 eax, -858993460		; ccccccccH
  0001e	f3 ab		 rep stosd
  00020	48 8b 8c 24 e8
	00 00 00	 mov	 rcx, QWORD PTR [rsp+232]
  00028	48 8b 85 e0 00
	00 00		 mov	 rax, QWORD PTR this$[rbp]
  0002f	48 8d a5 c8 00
	00 00		 lea	 rsp, QWORD PTR [rbp+200]
  00036	5f		 pop	 rdi
  00037	5d		 pop	 rbp
  00038	c3		 ret	 0
??0XMFLOAT4X4@DirectX@@QEAA@XZ ENDP			; DirectX::XMFLOAT4X4::XMFLOAT4X4
_TEXT	ENDS
; Function compile flags: /Odtp /RTCsu /ZI
; File c:\program files (x86)\windows kits\8.1\include\um\directxmath.h
;	COMDAT ??0XMFLOAT3@DirectX@@QEAA@MMM@Z
_TEXT	SEGMENT
this$ = 224
_x$ = 232
_y$ = 240
_z$ = 248
??0XMFLOAT3@DirectX@@QEAA@MMM@Z PROC			; DirectX::XMFLOAT3::XMFLOAT3, COMDAT

; 506  :     XMFLOAT3(float _x, float _y, float _z) : x(_x), y(_y), z(_z) {}

$LN3:
  00000	f3 0f 11 5c 24
	20		 movss	 DWORD PTR [rsp+32], xmm3
  00006	f3 0f 11 54 24
	18		 movss	 DWORD PTR [rsp+24], xmm2
  0000c	f3 0f 11 4c 24
	10		 movss	 DWORD PTR [rsp+16], xmm1
  00012	48 89 4c 24 08	 mov	 QWORD PTR [rsp+8], rcx
  00017	55		 push	 rbp
  00018	57		 push	 rdi
  00019	48 81 ec c8 00
	00 00		 sub	 rsp, 200		; 000000c8H
  00020	48 8b ec	 mov	 rbp, rsp
  00023	48 8b fc	 mov	 rdi, rsp
  00026	b9 32 00 00 00	 mov	 ecx, 50			; 00000032H
  0002b	b8 cc cc cc cc	 mov	 eax, -858993460		; ccccccccH
  00030	f3 ab		 rep stosd
  00032	48 8b 8c 24 e8
	00 00 00	 mov	 rcx, QWORD PTR [rsp+232]
  0003a	48 8b 85 e0 00
	00 00		 mov	 rax, QWORD PTR this$[rbp]
  00041	f3 0f 10 85 e8
	00 00 00	 movss	 xmm0, DWORD PTR _x$[rbp]
  00049	f3 0f 11 00	 movss	 DWORD PTR [rax], xmm0
  0004d	48 8b 85 e0 00
	00 00		 mov	 rax, QWORD PTR this$[rbp]
  00054	f3 0f 10 85 f0
	00 00 00	 movss	 xmm0, DWORD PTR _y$[rbp]
  0005c	f3 0f 11 40 04	 movss	 DWORD PTR [rax+4], xmm0
  00061	48 8b 85 e0 00
	00 00		 mov	 rax, QWORD PTR this$[rbp]
  00068	f3 0f 10 85 f8
	00 00 00	 movss	 xmm0, DWORD PTR _z$[rbp]
  00070	f3 0f 11 40 08	 movss	 DWORD PTR [rax+8], xmm0
  00075	48 8b 85 e0 00
	00 00		 mov	 rax, QWORD PTR this$[rbp]
  0007c	48 8d a5 c8 00
	00 00		 lea	 rsp, QWORD PTR [rbp+200]
  00083	5f		 pop	 rdi
  00084	5d		 pop	 rbp
  00085	c3		 ret	 0
??0XMFLOAT3@DirectX@@QEAA@MMM@Z ENDP			; DirectX::XMFLOAT3::XMFLOAT3
_TEXT	ENDS
; Function compile flags: /Odtp /RTCsu /ZI
; File c:\program files (x86)\windows kits\8.1\include\um\directxmath.h
;	COMDAT ??0XMFLOAT3@DirectX@@QEAA@XZ
_TEXT	SEGMENT
this$ = 224
??0XMFLOAT3@DirectX@@QEAA@XZ PROC			; DirectX::XMFLOAT3::XMFLOAT3, COMDAT

; 505  :     XMFLOAT3() {}

$LN3:
  00000	48 89 4c 24 08	 mov	 QWORD PTR [rsp+8], rcx
  00005	55		 push	 rbp
  00006	57		 push	 rdi
  00007	48 81 ec c8 00
	00 00		 sub	 rsp, 200		; 000000c8H
  0000e	48 8b ec	 mov	 rbp, rsp
  00011	48 8b fc	 mov	 rdi, rsp
  00014	b9 32 00 00 00	 mov	 ecx, 50			; 00000032H
  00019	b8 cc cc cc cc	 mov	 eax, -858993460		; ccccccccH
  0001e	f3 ab		 rep stosd
  00020	48 8b 8c 24 e8
	00 00 00	 mov	 rcx, QWORD PTR [rsp+232]
  00028	48 8b 85 e0 00
	00 00		 mov	 rax, QWORD PTR this$[rbp]
  0002f	48 8d a5 c8 00
	00 00		 lea	 rsp, QWORD PTR [rbp+200]
  00036	5f		 pop	 rdi
  00037	5d		 pop	 rbp
  00038	c3		 ret	 0
??0XMFLOAT3@DirectX@@QEAA@XZ ENDP			; DirectX::XMFLOAT3::XMFLOAT3
_TEXT	ENDS
; Function compile flags: /Odtp /RTCsu /ZI
; File c:\program files (x86)\windows kits\8.1\include\um\directxmathmatrix.inl
;	COMDAT ??DXMMATRIX@DirectX@@QEBQ?AU01@U01@@Z
_TEXT	SEGMENT
M$ = 16
$T4 = 304
$T5 = 400
this$ = 512
??DXMMATRIX@DirectX@@QEBQ?AU01@U01@@Z PROC		; DirectX::XMMATRIX::operator*, COMDAT

; 3044 : {

$LN3:
  00000	48 89 4c 24 08	 mov	 QWORD PTR [rsp+8], rcx
  00005	55		 push	 rbp
  00006	56		 push	 rsi
  00007	57		 push	 rdi
  00008	48 81 ec 10 02
	00 00		 sub	 rsp, 528		; 00000210H
  0000f	48 8d 6c 24 30	 lea	 rbp, QWORD PTR [rsp+48]
  00014	48 8b fc	 mov	 rdi, rsp
  00017	b9 84 00 00 00	 mov	 ecx, 132		; 00000084H
  0001c	b8 cc cc cc cc	 mov	 eax, -858993460		; ccccccccH
  00021	f3 ab		 rep stosd
  00023	48 8b 8c 24 38
	02 00 00	 mov	 rcx, QWORD PTR [rsp+568]
  0002b	48 8d 45 10	 lea	 rax, QWORD PTR M$[rbp]
  0002f	48 89 84 24 38
	02 00 00	 mov	 QWORD PTR [rsp+568], rax
  00037	0f 29 5d 40	 movaps	 XMMWORD PTR M$[rbp+48], xmm3
  0003b	0f 29 55 30	 movaps	 XMMWORD PTR M$[rbp+32], xmm2
  0003f	0f 29 4d 20	 movaps	 XMMWORD PTR M$[rbp+16], xmm1
  00043	0f 29 45 10	 movaps	 XMMWORD PTR M$[rbp], xmm0

; 3045 :     return XMMatrixMultiply(*this, M);

  00047	48 8d 55 10	 lea	 rdx, QWORD PTR M$[rbp]
  0004b	48 8b 85 00 02
	00 00		 mov	 rax, QWORD PTR this$[rbp]
  00052	0f 10 00	 movups	 xmm0, XMMWORD PTR [rax]
  00055	0f 10 48 10	 movups	 xmm1, XMMWORD PTR [rax+16]
  00059	0f 10 50 20	 movups	 xmm2, XMMWORD PTR [rax+32]
  0005d	0f 10 58 30	 movups	 xmm3, XMMWORD PTR [rax+48]
  00061	e8 00 00 00 00	 call	 ?XMMatrixMultiply@DirectX@@YQ?AUXMMATRIX@1@U21@AEBU21@@Z ; DirectX::XMMatrixMultiply
  00066	0f 29 9d c0 01
	00 00		 movaps	 XMMWORD PTR $T5[rbp+48], xmm3
  0006d	0f 29 95 b0 01
	00 00		 movaps	 XMMWORD PTR $T5[rbp+32], xmm2
  00074	0f 29 8d a0 01
	00 00		 movaps	 XMMWORD PTR $T5[rbp+16], xmm1
  0007b	0f 29 85 90 01
	00 00		 movaps	 XMMWORD PTR $T5[rbp], xmm0
  00082	48 8d 85 30 01
	00 00		 lea	 rax, QWORD PTR $T4[rbp]
  00089	48 8d 8d 90 01
	00 00		 lea	 rcx, QWORD PTR $T5[rbp]
  00090	48 8b f8	 mov	 rdi, rax
  00093	48 8b f1	 mov	 rsi, rcx
  00096	b9 40 00 00 00	 mov	 ecx, 64			; 00000040H
  0009b	f3 a4		 rep movsb
  0009d	0f 28 9d 60 01
	00 00		 movaps	 xmm3, XMMWORD PTR $T4[rbp+48]
  000a4	0f 28 95 50 01
	00 00		 movaps	 xmm2, XMMWORD PTR $T4[rbp+32]
  000ab	0f 28 8d 40 01
	00 00		 movaps	 xmm1, XMMWORD PTR $T4[rbp+16]
  000b2	0f 28 85 30 01
	00 00		 movaps	 xmm0, XMMWORD PTR $T4[rbp]

; 3046 : }

  000b9	f3 0f 7f 44 24
	20		 movdqu	 XMMWORD PTR [rsp+32], xmm0
  000bf	48 8d 4d d0	 lea	 rcx, QWORD PTR [rbp-48]
  000c3	48 8d 15 00 00
	00 00		 lea	 rdx, OFFSET FLAT:??DXMMATRIX@DirectX@@QEBQ?AU01@U01@@Z$rtcFrameData
  000ca	e8 00 00 00 00	 call	 _RTC_CheckStackVars
  000cf	f3 0f 6f 44 24
	20		 movdqu	 xmm0, XMMWORD PTR [rsp+32]
  000d5	48 8d a5 e0 01
	00 00		 lea	 rsp, QWORD PTR [rbp+480]
  000dc	5f		 pop	 rdi
  000dd	5e		 pop	 rsi
  000de	5d		 pop	 rbp
  000df	c3		 ret	 0
??DXMMATRIX@DirectX@@QEBQ?AU01@U01@@Z ENDP		; DirectX::XMMATRIX::operator*
_TEXT	ENDS
; Function compile flags: /Odtp /RTCsu /ZI
; File c:\program files (x86)\windows kits\8.1\include\um\directxmath.h
;	COMDAT ??4XMMATRIX@DirectX@@QEAAAEAU01@AEBU01@@Z
_TEXT	SEGMENT
this$ = 224
M$ = 232
??4XMMATRIX@DirectX@@QEAAAEAU01@AEBU01@@Z PROC		; DirectX::XMMATRIX::operator=, COMDAT

; 426  :     XMMATRIX&   operator= (const XMMATRIX& M) { r[0] = M.r[0]; r[1] = M.r[1]; r[2] = M.r[2]; r[3] = M.r[3]; return *this; }

$LN3:
  00000	48 89 54 24 10	 mov	 QWORD PTR [rsp+16], rdx
  00005	48 89 4c 24 08	 mov	 QWORD PTR [rsp+8], rcx
  0000a	55		 push	 rbp
  0000b	57		 push	 rdi
  0000c	48 81 ec c8 00
	00 00		 sub	 rsp, 200		; 000000c8H
  00013	48 8b ec	 mov	 rbp, rsp
  00016	48 8b fc	 mov	 rdi, rsp
  00019	b9 32 00 00 00	 mov	 ecx, 50			; 00000032H
  0001e	b8 cc cc cc cc	 mov	 eax, -858993460		; ccccccccH
  00023	f3 ab		 rep stosd
  00025	48 8b 8c 24 e8
	00 00 00	 mov	 rcx, QWORD PTR [rsp+232]
  0002d	b8 10 00 00 00	 mov	 eax, 16
  00032	48 6b c0 00	 imul	 rax, rax, 0
  00036	b9 10 00 00 00	 mov	 ecx, 16
  0003b	48 6b c9 00	 imul	 rcx, rcx, 0
  0003f	48 8b 95 e0 00
	00 00		 mov	 rdx, QWORD PTR this$[rbp]
  00046	4c 8b 85 e8 00
	00 00		 mov	 r8, QWORD PTR M$[rbp]
  0004d	41 0f 10 04 00	 movups	 xmm0, XMMWORD PTR [r8+rax]
  00052	0f 11 04 0a	 movups	 XMMWORD PTR [rdx+rcx], xmm0
  00056	b8 10 00 00 00	 mov	 eax, 16
  0005b	48 6b c0 01	 imul	 rax, rax, 1
  0005f	b9 10 00 00 00	 mov	 ecx, 16
  00064	48 6b c9 01	 imul	 rcx, rcx, 1
  00068	48 8b 95 e0 00
	00 00		 mov	 rdx, QWORD PTR this$[rbp]
  0006f	4c 8b 85 e8 00
	00 00		 mov	 r8, QWORD PTR M$[rbp]
  00076	41 0f 10 04 00	 movups	 xmm0, XMMWORD PTR [r8+rax]
  0007b	0f 11 04 0a	 movups	 XMMWORD PTR [rdx+rcx], xmm0
  0007f	b8 10 00 00 00	 mov	 eax, 16
  00084	48 6b c0 02	 imul	 rax, rax, 2
  00088	b9 10 00 00 00	 mov	 ecx, 16
  0008d	48 6b c9 02	 imul	 rcx, rcx, 2
  00091	48 8b 95 e0 00
	00 00		 mov	 rdx, QWORD PTR this$[rbp]
  00098	4c 8b 85 e8 00
	00 00		 mov	 r8, QWORD PTR M$[rbp]
  0009f	41 0f 10 04 00	 movups	 xmm0, XMMWORD PTR [r8+rax]
  000a4	0f 11 04 0a	 movups	 XMMWORD PTR [rdx+rcx], xmm0
  000a8	b8 10 00 00 00	 mov	 eax, 16
  000ad	48 6b c0 03	 imul	 rax, rax, 3
  000b1	b9 10 00 00 00	 mov	 ecx, 16
  000b6	48 6b c9 03	 imul	 rcx, rcx, 3
  000ba	48 8b 95 e0 00
	00 00		 mov	 rdx, QWORD PTR this$[rbp]
  000c1	4c 8b 85 e8 00
	00 00		 mov	 r8, QWORD PTR M$[rbp]
  000c8	41 0f 10 04 00	 movups	 xmm0, XMMWORD PTR [r8+rax]
  000cd	0f 11 04 0a	 movups	 XMMWORD PTR [rdx+rcx], xmm0
  000d1	48 8b 85 e0 00
	00 00		 mov	 rax, QWORD PTR this$[rbp]
  000d8	48 8d a5 c8 00
	00 00		 lea	 rsp, QWORD PTR [rbp+200]
  000df	5f		 pop	 rdi
  000e0	5d		 pop	 rbp
  000e1	c3		 ret	 0
??4XMMATRIX@DirectX@@QEAAAEAU01@AEBU01@@Z ENDP		; DirectX::XMMATRIX::operator=
_TEXT	ENDS
; Function compile flags: /Odtp /RTCsu /ZI
; File c:\program files (x86)\windows kits\8.1\include\um\directxmath.h
;	COMDAT ??0XMMATRIX@DirectX@@QEAA@XZ
_TEXT	SEGMENT
this$ = 224
??0XMMATRIX@DirectX@@QEAA@XZ PROC			; DirectX::XMMATRIX::XMMATRIX, COMDAT

; 413  :     XMMATRIX() {}

$LN3:
  00000	48 89 4c 24 08	 mov	 QWORD PTR [rsp+8], rcx
  00005	55		 push	 rbp
  00006	57		 push	 rdi
  00007	48 81 ec c8 00
	00 00		 sub	 rsp, 200		; 000000c8H
  0000e	48 8b ec	 mov	 rbp, rsp
  00011	48 8b fc	 mov	 rdi, rsp
  00014	b9 32 00 00 00	 mov	 ecx, 50			; 00000032H
  00019	b8 cc cc cc cc	 mov	 eax, -858993460		; ccccccccH
  0001e	f3 ab		 rep stosd
  00020	48 8b 8c 24 e8
	00 00 00	 mov	 rcx, QWORD PTR [rsp+232]
  00028	48 8b 85 e0 00
	00 00		 mov	 rax, QWORD PTR this$[rbp]
  0002f	48 8d a5 c8 00
	00 00		 lea	 rsp, QWORD PTR [rbp+200]
  00036	5f		 pop	 rdi
  00037	5d		 pop	 rbp
  00038	c3		 ret	 0
??0XMMATRIX@DirectX@@QEAA@XZ ENDP			; DirectX::XMMATRIX::XMMATRIX
_TEXT	ENDS
; Function compile flags: /Odtp /RTCsu /ZI
; File c:\program files (x86)\windows kits\8.1\include\um\directxmathvector.inl
;	COMDAT ??DDirectX@@YQ?AT__m128@@T1@M@Z
_TEXT	SEGMENT
V$ = 16
$T1 = 256
S$ = 328
??DDirectX@@YQ?AT__m128@@T1@M@Z PROC			; DirectX::operator*, COMDAT

; 13994: {

$LN3:
  00000	f3 0f 11 4c 24
	10		 movss	 DWORD PTR [rsp+16], xmm1
  00006	55		 push	 rbp
  00007	57		 push	 rdi
  00008	48 81 ec 58 01
	00 00		 sub	 rsp, 344		; 00000158H
  0000f	48 8d 6c 24 30	 lea	 rbp, QWORD PTR [rsp+48]
  00014	48 8b fc	 mov	 rdi, rsp
  00017	b9 56 00 00 00	 mov	 ecx, 86			; 00000056H
  0001c	b8 cc cc cc cc	 mov	 eax, -858993460		; ccccccccH
  00021	f3 ab		 rep stosd
  00023	48 8d 45 10	 lea	 rax, QWORD PTR V$[rbp]
  00027	48 89 84 24 70
	01 00 00	 mov	 QWORD PTR [rsp+368], rax
  0002f	0f 29 45 10	 movaps	 XMMWORD PTR V$[rbp], xmm0

; 13995:     return XMVectorScale(V, S);

  00033	f3 0f 10 8d 48
	01 00 00	 movss	 xmm1, DWORD PTR S$[rbp]
  0003b	0f 28 45 10	 movaps	 xmm0, XMMWORD PTR V$[rbp]
  0003f	e8 00 00 00 00	 call	 ?XMVectorScale@DirectX@@YQ?AT__m128@@T2@M@Z ; DirectX::XMVectorScale
  00044	0f 29 85 00 01
	00 00		 movaps	 XMMWORD PTR $T1[rbp], xmm0
  0004b	0f 28 85 00 01
	00 00		 movaps	 xmm0, XMMWORD PTR $T1[rbp]

; 13996: }

  00052	48 8d a5 28 01
	00 00		 lea	 rsp, QWORD PTR [rbp+296]
  00059	5f		 pop	 rdi
  0005a	5d		 pop	 rbp
  0005b	c3		 ret	 0
??DDirectX@@YQ?AT__m128@@T1@M@Z ENDP			; DirectX::operator*
_TEXT	ENDS
; Function compile flags: /Odtp /RTCsu /ZI
; File c:\program files (x86)\windows kits\8.1\include\um\directxmathvector.inl
;	COMDAT ??GDirectX@@YQ?AT__m128@@T1@0@Z
_TEXT	SEGMENT
V1$ = 16
V2$ = 64
$T1 = 304
??GDirectX@@YQ?AT__m128@@T1@0@Z PROC			; DirectX::operator-, COMDAT

; 13961: {

$LN3:
  00000	40 55		 push	 rbp
  00002	57		 push	 rdi
  00003	48 81 ec 88 01
	00 00		 sub	 rsp, 392		; 00000188H
  0000a	48 8d 6c 24 30	 lea	 rbp, QWORD PTR [rsp+48]
  0000f	48 8b fc	 mov	 rdi, rsp
  00012	b9 62 00 00 00	 mov	 ecx, 98			; 00000062H
  00017	b8 cc cc cc cc	 mov	 eax, -858993460		; ccccccccH
  0001c	f3 ab		 rep stosd
  0001e	48 8d 45 10	 lea	 rax, QWORD PTR V1$[rbp]
  00022	48 89 84 24 a0
	01 00 00	 mov	 QWORD PTR [rsp+416], rax
  0002a	48 8d 45 40	 lea	 rax, QWORD PTR V2$[rbp]
  0002e	48 89 84 24 a8
	01 00 00	 mov	 QWORD PTR [rsp+424], rax
  00036	0f 29 4d 40	 movaps	 XMMWORD PTR V2$[rbp], xmm1
  0003a	0f 29 45 10	 movaps	 XMMWORD PTR V1$[rbp], xmm0

; 13962:     return XMVectorSubtract(V1, V2);

  0003e	0f 28 4d 40	 movaps	 xmm1, XMMWORD PTR V2$[rbp]
  00042	0f 28 45 10	 movaps	 xmm0, XMMWORD PTR V1$[rbp]
  00046	e8 00 00 00 00	 call	 ?XMVectorSubtract@DirectX@@YQ?AT__m128@@T2@0@Z ; DirectX::XMVectorSubtract
  0004b	0f 29 85 30 01
	00 00		 movaps	 XMMWORD PTR $T1[rbp], xmm0
  00052	0f 28 85 30 01
	00 00		 movaps	 xmm0, XMMWORD PTR $T1[rbp]

; 13963: }

  00059	48 8d a5 58 01
	00 00		 lea	 rsp, QWORD PTR [rbp+344]
  00060	5f		 pop	 rdi
  00061	5d		 pop	 rbp
  00062	c3		 ret	 0
??GDirectX@@YQ?AT__m128@@T1@0@Z ENDP			; DirectX::operator-
_TEXT	ENDS
; Function compile flags: /Odtp /RTCsu /ZI
; File c:\program files (x86)\windows kits\8.1\include\um\directxmathvector.inl
;	COMDAT ??HDirectX@@YQ?AT__m128@@T1@0@Z
_TEXT	SEGMENT
V1$ = 16
V2$ = 64
$T1 = 304
??HDirectX@@YQ?AT__m128@@T1@0@Z PROC			; DirectX::operator+, COMDAT

; 13950: {

$LN3:
  00000	40 55		 push	 rbp
  00002	57		 push	 rdi
  00003	48 81 ec 88 01
	00 00		 sub	 rsp, 392		; 00000188H
  0000a	48 8d 6c 24 30	 lea	 rbp, QWORD PTR [rsp+48]
  0000f	48 8b fc	 mov	 rdi, rsp
  00012	b9 62 00 00 00	 mov	 ecx, 98			; 00000062H
  00017	b8 cc cc cc cc	 mov	 eax, -858993460		; ccccccccH
  0001c	f3 ab		 rep stosd
  0001e	48 8d 45 10	 lea	 rax, QWORD PTR V1$[rbp]
  00022	48 89 84 24 a0
	01 00 00	 mov	 QWORD PTR [rsp+416], rax
  0002a	48 8d 45 40	 lea	 rax, QWORD PTR V2$[rbp]
  0002e	48 89 84 24 a8
	01 00 00	 mov	 QWORD PTR [rsp+424], rax
  00036	0f 29 4d 40	 movaps	 XMMWORD PTR V2$[rbp], xmm1
  0003a	0f 29 45 10	 movaps	 XMMWORD PTR V1$[rbp], xmm0

; 13951:     return XMVectorAdd(V1, V2);

  0003e	0f 28 4d 40	 movaps	 xmm1, XMMWORD PTR V2$[rbp]
  00042	0f 28 45 10	 movaps	 xmm0, XMMWORD PTR V1$[rbp]
  00046	e8 00 00 00 00	 call	 ?XMVectorAdd@DirectX@@YQ?AT__m128@@T2@0@Z ; DirectX::XMVectorAdd
  0004b	0f 29 85 30 01
	00 00		 movaps	 XMMWORD PTR $T1[rbp], xmm0
  00052	0f 28 85 30 01
	00 00		 movaps	 xmm0, XMMWORD PTR $T1[rbp]

; 13952: }

  00059	48 8d a5 58 01
	00 00		 lea	 rsp, QWORD PTR [rbp+344]
  00060	5f		 pop	 rdi
  00061	5d		 pop	 rbp
  00062	c3		 ret	 0
??HDirectX@@YQ?AT__m128@@T1@0@Z ENDP			; DirectX::operator+
_TEXT	ENDS
; Function compile flags: /Odtp /RTCsu /ZI
; File c:\program files (x86)\windows kits\8.1\include\um\directxmath.h
;	COMDAT ??BXMVECTORI32@DirectX@@QEBA?AT__m128@@XZ
_TEXT	SEGMENT
this$ = 224
__$ReturnUdt$ = 232
??BXMVECTORI32@DirectX@@QEBA?AT__m128@@XZ PROC		; DirectX::XMVECTORI32::operator __m128, COMDAT

; 316  :     inline operator XMVECTOR() const { return v; }

$LN3:
  00000	48 89 54 24 10	 mov	 QWORD PTR [rsp+16], rdx
  00005	48 89 4c 24 08	 mov	 QWORD PTR [rsp+8], rcx
  0000a	55		 push	 rbp
  0000b	57		 push	 rdi
  0000c	48 81 ec c8 00
	00 00		 sub	 rsp, 200		; 000000c8H
  00013	48 8b ec	 mov	 rbp, rsp
  00016	48 8b fc	 mov	 rdi, rsp
  00019	b9 32 00 00 00	 mov	 ecx, 50			; 00000032H
  0001e	b8 cc cc cc cc	 mov	 eax, -858993460		; ccccccccH
  00023	f3 ab		 rep stosd
  00025	48 8b 8c 24 e8
	00 00 00	 mov	 rcx, QWORD PTR [rsp+232]
  0002d	48 8b 85 e8 00
	00 00		 mov	 rax, QWORD PTR __$ReturnUdt$[rbp]
  00034	48 8b 8d e0 00
	00 00		 mov	 rcx, QWORD PTR this$[rbp]
  0003b	0f 10 01	 movups	 xmm0, XMMWORD PTR [rcx]
  0003e	0f 11 00	 movups	 XMMWORD PTR [rax], xmm0
  00041	48 8b 85 e8 00
	00 00		 mov	 rax, QWORD PTR __$ReturnUdt$[rbp]
  00048	48 8d a5 c8 00
	00 00		 lea	 rsp, QWORD PTR [rbp+200]
  0004f	5f		 pop	 rdi
  00050	5d		 pop	 rbp
  00051	c3		 ret	 0
??BXMVECTORI32@DirectX@@QEBA?AT__m128@@XZ ENDP		; DirectX::XMVECTORI32::operator __m128
_TEXT	ENDS
; Function compile flags: /Odtp /RTCsu /ZI
; File c:\program files (x86)\windows kits\8.1\include\um\directxmath.h
;	COMDAT ??BXMVECTORF32@DirectX@@QEBA?AT__m128@@XZ
_TEXT	SEGMENT
this$ = 224
__$ReturnUdt$ = 232
??BXMVECTORF32@DirectX@@QEBA?AT__m128@@XZ PROC		; DirectX::XMVECTORF32::operator __m128, COMDAT

; 300  :     inline operator XMVECTOR() const { return v; }

$LN3:
  00000	48 89 54 24 10	 mov	 QWORD PTR [rsp+16], rdx
  00005	48 89 4c 24 08	 mov	 QWORD PTR [rsp+8], rcx
  0000a	55		 push	 rbp
  0000b	57		 push	 rdi
  0000c	48 81 ec c8 00
	00 00		 sub	 rsp, 200		; 000000c8H
  00013	48 8b ec	 mov	 rbp, rsp
  00016	48 8b fc	 mov	 rdi, rsp
  00019	b9 32 00 00 00	 mov	 ecx, 50			; 00000032H
  0001e	b8 cc cc cc cc	 mov	 eax, -858993460		; ccccccccH
  00023	f3 ab		 rep stosd
  00025	48 8b 8c 24 e8
	00 00 00	 mov	 rcx, QWORD PTR [rsp+232]
  0002d	48 8b 85 e8 00
	00 00		 mov	 rax, QWORD PTR __$ReturnUdt$[rbp]
  00034	48 8b 8d e0 00
	00 00		 mov	 rcx, QWORD PTR this$[rbp]
  0003b	0f 10 01	 movups	 xmm0, XMMWORD PTR [rcx]
  0003e	0f 11 00	 movups	 XMMWORD PTR [rax], xmm0
  00041	48 8b 85 e8 00
	00 00		 mov	 rax, QWORD PTR __$ReturnUdt$[rbp]
  00048	48 8d a5 c8 00
	00 00		 lea	 rsp, QWORD PTR [rbp+200]
  0004f	5f		 pop	 rdi
  00050	5d		 pop	 rbp
  00051	c3		 ret	 0
??BXMVECTORF32@DirectX@@QEBA?AT__m128@@XZ ENDP		; DirectX::XMVECTORF32::operator __m128
_TEXT	ENDS
; Function compile flags: /Odtp /RTCsu /ZI
; File c:\program files (x86)\windows kits\8.1\include\um\directxmath.h
;	COMDAT ?XMConvertToRadians@DirectX@@YAMM@Z
_TEXT	SEGMENT
fDegrees$ = 224
?XMConvertToRadians@DirectX@@YAMM@Z PROC		; DirectX::XMConvertToRadians, COMDAT

; 208  : inline float XMConvertToRadians(float fDegrees) { return fDegrees * (XM_PI / 180.0f); }

$LN3:
  00000	f3 0f 11 44 24
	08		 movss	 DWORD PTR [rsp+8], xmm0
  00006	55		 push	 rbp
  00007	57		 push	 rdi
  00008	48 81 ec d8 00
	00 00		 sub	 rsp, 216		; 000000d8H
  0000f	48 8d 6c 24 10	 lea	 rbp, QWORD PTR [rsp+16]
  00014	48 8b fc	 mov	 rdi, rsp
  00017	b9 36 00 00 00	 mov	 ecx, 54			; 00000036H
  0001c	b8 cc cc cc cc	 mov	 eax, -858993460		; ccccccccH
  00021	f3 ab		 rep stosd
  00023	f3 0f 10 85 e0
	00 00 00	 movss	 xmm0, DWORD PTR fDegrees$[rbp]
  0002b	f3 0f 59 05 00
	00 00 00	 mulss	 xmm0, DWORD PTR __real@3c8efa35
  00033	48 8d a5 c8 00
	00 00		 lea	 rsp, QWORD PTR [rbp+200]
  0003a	5f		 pop	 rdi
  0003b	5d		 pop	 rbp
  0003c	c3		 ret	 0
?XMConvertToRadians@DirectX@@YAMM@Z ENDP		; DirectX::XMConvertToRadians
_TEXT	ENDS
; Function compile flags: /Odtp /RTCsu /ZI
; File c:\users\arcco\documents\github\framework\client\private\swordtrail.cpp
;	COMDAT ?__empty_global_delete@@YAXPEAX_K@Z
_TEXT	SEGMENT
__formal$ = 224
__formal$ = 232
?__empty_global_delete@@YAXPEAX_K@Z PROC		; __empty_global_delete, COMDAT

$LN3:
  00000	48 89 54 24 10	 mov	 QWORD PTR [rsp+16], rdx
  00005	48 89 4c 24 08	 mov	 QWORD PTR [rsp+8], rcx
  0000a	55		 push	 rbp
  0000b	57		 push	 rdi
  0000c	48 81 ec c8 00
	00 00		 sub	 rsp, 200		; 000000c8H
  00013	48 8b ec	 mov	 rbp, rsp
  00016	48 8b fc	 mov	 rdi, rsp
  00019	b9 32 00 00 00	 mov	 ecx, 50			; 00000032H
  0001e	b8 cc cc cc cc	 mov	 eax, -858993460		; ccccccccH
  00023	f3 ab		 rep stosd
  00025	48 8b 8c 24 e8
	00 00 00	 mov	 rcx, QWORD PTR [rsp+232]
  0002d	48 8d a5 c8 00
	00 00		 lea	 rsp, QWORD PTR [rbp+200]
  00034	5f		 pop	 rdi
  00035	5d		 pop	 rbp
  00036	c3		 ret	 0
?__empty_global_delete@@YAXPEAX_K@Z ENDP		; __empty_global_delete
_TEXT	ENDS
; Function compile flags: /Odtp /RTCsu /ZI
; File c:\users\arcco\documents\github\framework\client\private\swordtrail.cpp
;	COMDAT ?__empty_global_delete@@YAXPEAX@Z
_TEXT	SEGMENT
__formal$ = 224
?__empty_global_delete@@YAXPEAX@Z PROC			; __empty_global_delete, COMDAT

$LN3:
  00000	48 89 4c 24 08	 mov	 QWORD PTR [rsp+8], rcx
  00005	55		 push	 rbp
  00006	57		 push	 rdi
  00007	48 81 ec c8 00
	00 00		 sub	 rsp, 200		; 000000c8H
  0000e	48 8b ec	 mov	 rbp, rsp
  00011	48 8b fc	 mov	 rdi, rsp
  00014	b9 32 00 00 00	 mov	 ecx, 50			; 00000032H
  00019	b8 cc cc cc cc	 mov	 eax, -858993460		; ccccccccH
  0001e	f3 ab		 rep stosd
  00020	48 8b 8c 24 e8
	00 00 00	 mov	 rcx, QWORD PTR [rsp+232]
  00028	48 8d a5 c8 00
	00 00		 lea	 rsp, QWORD PTR [rbp+200]
  0002f	5f		 pop	 rdi
  00030	5d		 pop	 rbp
  00031	c3		 ret	 0
?__empty_global_delete@@YAXPEAX@Z ENDP			; __empty_global_delete
_TEXT	ENDS
; Function compile flags: /Odtp /RTCsu /ZI
;	COMDAT ??_H@YAXPEAX_K1P6APEAX0@Z@Z
_TEXT	SEGMENT
tv66 = 192
tv67 = 200
__t$ = 240
__s$ = 248
__n$ = 256
__f$ = 264
??_H@YAXPEAX_K1P6APEAX0@Z@Z PROC			; `vector constructor iterator', COMDAT
$LN7:
  00000	4c 89 4c 24 20	 mov	 QWORD PTR [rsp+32], r9
  00005	4c 89 44 24 18	 mov	 QWORD PTR [rsp+24], r8
  0000a	48 89 54 24 10	 mov	 QWORD PTR [rsp+16], rdx
  0000f	48 89 4c 24 08	 mov	 QWORD PTR [rsp+8], rcx
  00014	55		 push	 rbp
  00015	57		 push	 rdi
  00016	48 81 ec f8 00
	00 00		 sub	 rsp, 248		; 000000f8H
  0001d	48 8d 6c 24 20	 lea	 rbp, QWORD PTR [rsp+32]
  00022	48 8b fc	 mov	 rdi, rsp
  00025	b9 3e 00 00 00	 mov	 ecx, 62			; 0000003eH
  0002a	b8 cc cc cc cc	 mov	 eax, -858993460		; ccccccccH
  0002f	f3 ab		 rep stosd
  00031	48 8b 8c 24 18
	01 00 00	 mov	 rcx, QWORD PTR [rsp+280]
$LN2@vector:
  00039	48 8b 85 00 01
	00 00		 mov	 rax, QWORD PTR __n$[rbp]
  00040	48 89 85 c0 00
	00 00		 mov	 QWORD PTR tv66[rbp], rax
  00047	48 8b 85 00 01
	00 00		 mov	 rax, QWORD PTR __n$[rbp]
  0004e	48 ff c8	 dec	 rax
  00051	48 89 85 00 01
	00 00		 mov	 QWORD PTR __n$[rbp], rax
  00058	48 83 bd c0 00
	00 00 00	 cmp	 QWORD PTR tv66[rbp], 0
  00060	76 0c		 jbe	 SHORT $LN5@vector
  00062	c7 85 c8 00 00
	00 01 00 00 00	 mov	 DWORD PTR tv67[rbp], 1
  0006c	eb 0a		 jmp	 SHORT $LN6@vector
$LN5@vector:
  0006e	c7 85 c8 00 00
	00 00 00 00 00	 mov	 DWORD PTR tv67[rbp], 0
$LN6@vector:
  00078	83 bd c8 00 00
	00 00		 cmp	 DWORD PTR tv67[rbp], 0
  0007f	74 2a		 je	 SHORT $LN3@vector
  00081	48 8b 8d f0 00
	00 00		 mov	 rcx, QWORD PTR __t$[rbp]
  00088	ff 95 08 01 00
	00		 call	 QWORD PTR __f$[rbp]
  0008e	48 8b 85 f8 00
	00 00		 mov	 rax, QWORD PTR __s$[rbp]
  00095	48 8b 8d f0 00
	00 00		 mov	 rcx, QWORD PTR __t$[rbp]
  0009c	48 03 c8	 add	 rcx, rax
  0009f	48 8b c1	 mov	 rax, rcx
  000a2	48 89 85 f0 00
	00 00		 mov	 QWORD PTR __t$[rbp], rax
  000a9	eb 8e		 jmp	 SHORT $LN2@vector
$LN3@vector:
  000ab	48 8d a5 d8 00
	00 00		 lea	 rsp, QWORD PTR [rbp+216]
  000b2	5f		 pop	 rdi
  000b3	5d		 pop	 rbp
  000b4	c3		 ret	 0
??_H@YAXPEAX_K1P6APEAX0@Z@Z ENDP			; `vector constructor iterator'
_TEXT	ENDS
END
