; Listing generated by Microsoft (R) Optimizing Compiler Version 19.00.24245.0 

include listing.inc

INCLUDELIB MSVCRTD
INCLUDELIB OLDNAMES

PUBLIC	?AliceBlue@Colors@DirectX@@3UXMVECTORF32@2@B	; DirectX::Colors::AliceBlue
PUBLIC	?AntiqueWhite@Colors@DirectX@@3UXMVECTORF32@2@B	; DirectX::Colors::AntiqueWhite
PUBLIC	?Aqua@Colors@DirectX@@3UXMVECTORF32@2@B		; DirectX::Colors::Aqua
PUBLIC	?Aquamarine@Colors@DirectX@@3UXMVECTORF32@2@B	; DirectX::Colors::Aquamarine
PUBLIC	?Azure@Colors@DirectX@@3UXMVECTORF32@2@B	; DirectX::Colors::Azure
PUBLIC	?Beige@Colors@DirectX@@3UXMVECTORF32@2@B	; DirectX::Colors::Beige
PUBLIC	?Bisque@Colors@DirectX@@3UXMVECTORF32@2@B	; DirectX::Colors::Bisque
PUBLIC	?Black@Colors@DirectX@@3UXMVECTORF32@2@B	; DirectX::Colors::Black
PUBLIC	?BlanchedAlmond@Colors@DirectX@@3UXMVECTORF32@2@B ; DirectX::Colors::BlanchedAlmond
PUBLIC	?Blue@Colors@DirectX@@3UXMVECTORF32@2@B		; DirectX::Colors::Blue
PUBLIC	?BlueViolet@Colors@DirectX@@3UXMVECTORF32@2@B	; DirectX::Colors::BlueViolet
PUBLIC	?Brown@Colors@DirectX@@3UXMVECTORF32@2@B	; DirectX::Colors::Brown
PUBLIC	?BurlyWood@Colors@DirectX@@3UXMVECTORF32@2@B	; DirectX::Colors::BurlyWood
PUBLIC	?CadetBlue@Colors@DirectX@@3UXMVECTORF32@2@B	; DirectX::Colors::CadetBlue
PUBLIC	?Chartreuse@Colors@DirectX@@3UXMVECTORF32@2@B	; DirectX::Colors::Chartreuse
PUBLIC	?Chocolate@Colors@DirectX@@3UXMVECTORF32@2@B	; DirectX::Colors::Chocolate
PUBLIC	?Coral@Colors@DirectX@@3UXMVECTORF32@2@B	; DirectX::Colors::Coral
PUBLIC	?CornflowerBlue@Colors@DirectX@@3UXMVECTORF32@2@B ; DirectX::Colors::CornflowerBlue
PUBLIC	?Cornsilk@Colors@DirectX@@3UXMVECTORF32@2@B	; DirectX::Colors::Cornsilk
PUBLIC	?Crimson@Colors@DirectX@@3UXMVECTORF32@2@B	; DirectX::Colors::Crimson
PUBLIC	?Cyan@Colors@DirectX@@3UXMVECTORF32@2@B		; DirectX::Colors::Cyan
PUBLIC	?DarkBlue@Colors@DirectX@@3UXMVECTORF32@2@B	; DirectX::Colors::DarkBlue
PUBLIC	?DarkCyan@Colors@DirectX@@3UXMVECTORF32@2@B	; DirectX::Colors::DarkCyan
PUBLIC	?DarkGoldenrod@Colors@DirectX@@3UXMVECTORF32@2@B ; DirectX::Colors::DarkGoldenrod
PUBLIC	?DarkGray@Colors@DirectX@@3UXMVECTORF32@2@B	; DirectX::Colors::DarkGray
PUBLIC	?DarkGreen@Colors@DirectX@@3UXMVECTORF32@2@B	; DirectX::Colors::DarkGreen
PUBLIC	?DarkKhaki@Colors@DirectX@@3UXMVECTORF32@2@B	; DirectX::Colors::DarkKhaki
PUBLIC	?DarkMagenta@Colors@DirectX@@3UXMVECTORF32@2@B	; DirectX::Colors::DarkMagenta
PUBLIC	?DarkOliveGreen@Colors@DirectX@@3UXMVECTORF32@2@B ; DirectX::Colors::DarkOliveGreen
PUBLIC	?DarkOrange@Colors@DirectX@@3UXMVECTORF32@2@B	; DirectX::Colors::DarkOrange
PUBLIC	?DarkOrchid@Colors@DirectX@@3UXMVECTORF32@2@B	; DirectX::Colors::DarkOrchid
PUBLIC	?DarkRed@Colors@DirectX@@3UXMVECTORF32@2@B	; DirectX::Colors::DarkRed
PUBLIC	?DarkSalmon@Colors@DirectX@@3UXMVECTORF32@2@B	; DirectX::Colors::DarkSalmon
PUBLIC	?DarkSeaGreen@Colors@DirectX@@3UXMVECTORF32@2@B	; DirectX::Colors::DarkSeaGreen
PUBLIC	?DarkSlateBlue@Colors@DirectX@@3UXMVECTORF32@2@B ; DirectX::Colors::DarkSlateBlue
PUBLIC	?DarkSlateGray@Colors@DirectX@@3UXMVECTORF32@2@B ; DirectX::Colors::DarkSlateGray
PUBLIC	?DarkTurquoise@Colors@DirectX@@3UXMVECTORF32@2@B ; DirectX::Colors::DarkTurquoise
PUBLIC	?DarkViolet@Colors@DirectX@@3UXMVECTORF32@2@B	; DirectX::Colors::DarkViolet
PUBLIC	?DeepPink@Colors@DirectX@@3UXMVECTORF32@2@B	; DirectX::Colors::DeepPink
PUBLIC	?DeepSkyBlue@Colors@DirectX@@3UXMVECTORF32@2@B	; DirectX::Colors::DeepSkyBlue
PUBLIC	?DimGray@Colors@DirectX@@3UXMVECTORF32@2@B	; DirectX::Colors::DimGray
PUBLIC	?DodgerBlue@Colors@DirectX@@3UXMVECTORF32@2@B	; DirectX::Colors::DodgerBlue
PUBLIC	?Firebrick@Colors@DirectX@@3UXMVECTORF32@2@B	; DirectX::Colors::Firebrick
PUBLIC	?FloralWhite@Colors@DirectX@@3UXMVECTORF32@2@B	; DirectX::Colors::FloralWhite
PUBLIC	?ForestGreen@Colors@DirectX@@3UXMVECTORF32@2@B	; DirectX::Colors::ForestGreen
PUBLIC	?Fuchsia@Colors@DirectX@@3UXMVECTORF32@2@B	; DirectX::Colors::Fuchsia
PUBLIC	?Gainsboro@Colors@DirectX@@3UXMVECTORF32@2@B	; DirectX::Colors::Gainsboro
PUBLIC	?GhostWhite@Colors@DirectX@@3UXMVECTORF32@2@B	; DirectX::Colors::GhostWhite
PUBLIC	?Gold@Colors@DirectX@@3UXMVECTORF32@2@B		; DirectX::Colors::Gold
PUBLIC	?Goldenrod@Colors@DirectX@@3UXMVECTORF32@2@B	; DirectX::Colors::Goldenrod
PUBLIC	?Gray@Colors@DirectX@@3UXMVECTORF32@2@B		; DirectX::Colors::Gray
PUBLIC	?Green@Colors@DirectX@@3UXMVECTORF32@2@B	; DirectX::Colors::Green
PUBLIC	?GreenYellow@Colors@DirectX@@3UXMVECTORF32@2@B	; DirectX::Colors::GreenYellow
PUBLIC	?Honeydew@Colors@DirectX@@3UXMVECTORF32@2@B	; DirectX::Colors::Honeydew
PUBLIC	?HotPink@Colors@DirectX@@3UXMVECTORF32@2@B	; DirectX::Colors::HotPink
PUBLIC	?IndianRed@Colors@DirectX@@3UXMVECTORF32@2@B	; DirectX::Colors::IndianRed
PUBLIC	?Indigo@Colors@DirectX@@3UXMVECTORF32@2@B	; DirectX::Colors::Indigo
PUBLIC	?Ivory@Colors@DirectX@@3UXMVECTORF32@2@B	; DirectX::Colors::Ivory
PUBLIC	?Khaki@Colors@DirectX@@3UXMVECTORF32@2@B	; DirectX::Colors::Khaki
PUBLIC	?Lavender@Colors@DirectX@@3UXMVECTORF32@2@B	; DirectX::Colors::Lavender
PUBLIC	?LavenderBlush@Colors@DirectX@@3UXMVECTORF32@2@B ; DirectX::Colors::LavenderBlush
PUBLIC	?LawnGreen@Colors@DirectX@@3UXMVECTORF32@2@B	; DirectX::Colors::LawnGreen
PUBLIC	?LemonChiffon@Colors@DirectX@@3UXMVECTORF32@2@B	; DirectX::Colors::LemonChiffon
PUBLIC	?LightBlue@Colors@DirectX@@3UXMVECTORF32@2@B	; DirectX::Colors::LightBlue
PUBLIC	?LightCoral@Colors@DirectX@@3UXMVECTORF32@2@B	; DirectX::Colors::LightCoral
PUBLIC	?LightCyan@Colors@DirectX@@3UXMVECTORF32@2@B	; DirectX::Colors::LightCyan
PUBLIC	?LightGoldenrodYellow@Colors@DirectX@@3UXMVECTORF32@2@B ; DirectX::Colors::LightGoldenrodYellow
PUBLIC	?LightGreen@Colors@DirectX@@3UXMVECTORF32@2@B	; DirectX::Colors::LightGreen
PUBLIC	?LightGray@Colors@DirectX@@3UXMVECTORF32@2@B	; DirectX::Colors::LightGray
PUBLIC	?LightPink@Colors@DirectX@@3UXMVECTORF32@2@B	; DirectX::Colors::LightPink
PUBLIC	?LightSalmon@Colors@DirectX@@3UXMVECTORF32@2@B	; DirectX::Colors::LightSalmon
PUBLIC	?LightSeaGreen@Colors@DirectX@@3UXMVECTORF32@2@B ; DirectX::Colors::LightSeaGreen
PUBLIC	?LightSkyBlue@Colors@DirectX@@3UXMVECTORF32@2@B	; DirectX::Colors::LightSkyBlue
PUBLIC	?LightSlateGray@Colors@DirectX@@3UXMVECTORF32@2@B ; DirectX::Colors::LightSlateGray
PUBLIC	?LightSteelBlue@Colors@DirectX@@3UXMVECTORF32@2@B ; DirectX::Colors::LightSteelBlue
PUBLIC	?LightYellow@Colors@DirectX@@3UXMVECTORF32@2@B	; DirectX::Colors::LightYellow
PUBLIC	?Lime@Colors@DirectX@@3UXMVECTORF32@2@B		; DirectX::Colors::Lime
PUBLIC	?LimeGreen@Colors@DirectX@@3UXMVECTORF32@2@B	; DirectX::Colors::LimeGreen
PUBLIC	?Linen@Colors@DirectX@@3UXMVECTORF32@2@B	; DirectX::Colors::Linen
PUBLIC	?Magenta@Colors@DirectX@@3UXMVECTORF32@2@B	; DirectX::Colors::Magenta
PUBLIC	?Maroon@Colors@DirectX@@3UXMVECTORF32@2@B	; DirectX::Colors::Maroon
PUBLIC	?MediumAquamarine@Colors@DirectX@@3UXMVECTORF32@2@B ; DirectX::Colors::MediumAquamarine
PUBLIC	?MediumBlue@Colors@DirectX@@3UXMVECTORF32@2@B	; DirectX::Colors::MediumBlue
PUBLIC	?MediumOrchid@Colors@DirectX@@3UXMVECTORF32@2@B	; DirectX::Colors::MediumOrchid
PUBLIC	?MediumPurple@Colors@DirectX@@3UXMVECTORF32@2@B	; DirectX::Colors::MediumPurple
PUBLIC	?MediumSeaGreen@Colors@DirectX@@3UXMVECTORF32@2@B ; DirectX::Colors::MediumSeaGreen
PUBLIC	?MediumSlateBlue@Colors@DirectX@@3UXMVECTORF32@2@B ; DirectX::Colors::MediumSlateBlue
PUBLIC	?MediumSpringGreen@Colors@DirectX@@3UXMVECTORF32@2@B ; DirectX::Colors::MediumSpringGreen
PUBLIC	?MediumTurquoise@Colors@DirectX@@3UXMVECTORF32@2@B ; DirectX::Colors::MediumTurquoise
PUBLIC	?MediumVioletRed@Colors@DirectX@@3UXMVECTORF32@2@B ; DirectX::Colors::MediumVioletRed
PUBLIC	?MidnightBlue@Colors@DirectX@@3UXMVECTORF32@2@B	; DirectX::Colors::MidnightBlue
PUBLIC	?MintCream@Colors@DirectX@@3UXMVECTORF32@2@B	; DirectX::Colors::MintCream
PUBLIC	?MistyRose@Colors@DirectX@@3UXMVECTORF32@2@B	; DirectX::Colors::MistyRose
PUBLIC	?Moccasin@Colors@DirectX@@3UXMVECTORF32@2@B	; DirectX::Colors::Moccasin
PUBLIC	?NavajoWhite@Colors@DirectX@@3UXMVECTORF32@2@B	; DirectX::Colors::NavajoWhite
PUBLIC	?Navy@Colors@DirectX@@3UXMVECTORF32@2@B		; DirectX::Colors::Navy
PUBLIC	?OldLace@Colors@DirectX@@3UXMVECTORF32@2@B	; DirectX::Colors::OldLace
PUBLIC	?Olive@Colors@DirectX@@3UXMVECTORF32@2@B	; DirectX::Colors::Olive
PUBLIC	?OliveDrab@Colors@DirectX@@3UXMVECTORF32@2@B	; DirectX::Colors::OliveDrab
PUBLIC	?Orange@Colors@DirectX@@3UXMVECTORF32@2@B	; DirectX::Colors::Orange
PUBLIC	?OrangeRed@Colors@DirectX@@3UXMVECTORF32@2@B	; DirectX::Colors::OrangeRed
PUBLIC	?Orchid@Colors@DirectX@@3UXMVECTORF32@2@B	; DirectX::Colors::Orchid
PUBLIC	?PaleGoldenrod@Colors@DirectX@@3UXMVECTORF32@2@B ; DirectX::Colors::PaleGoldenrod
PUBLIC	?PaleGreen@Colors@DirectX@@3UXMVECTORF32@2@B	; DirectX::Colors::PaleGreen
PUBLIC	?PaleTurquoise@Colors@DirectX@@3UXMVECTORF32@2@B ; DirectX::Colors::PaleTurquoise
PUBLIC	?PaleVioletRed@Colors@DirectX@@3UXMVECTORF32@2@B ; DirectX::Colors::PaleVioletRed
PUBLIC	?PapayaWhip@Colors@DirectX@@3UXMVECTORF32@2@B	; DirectX::Colors::PapayaWhip
PUBLIC	?PeachPuff@Colors@DirectX@@3UXMVECTORF32@2@B	; DirectX::Colors::PeachPuff
PUBLIC	?Peru@Colors@DirectX@@3UXMVECTORF32@2@B		; DirectX::Colors::Peru
PUBLIC	?Pink@Colors@DirectX@@3UXMVECTORF32@2@B		; DirectX::Colors::Pink
PUBLIC	?Plum@Colors@DirectX@@3UXMVECTORF32@2@B		; DirectX::Colors::Plum
PUBLIC	?PowderBlue@Colors@DirectX@@3UXMVECTORF32@2@B	; DirectX::Colors::PowderBlue
PUBLIC	?Purple@Colors@DirectX@@3UXMVECTORF32@2@B	; DirectX::Colors::Purple
PUBLIC	?Red@Colors@DirectX@@3UXMVECTORF32@2@B		; DirectX::Colors::Red
PUBLIC	?RosyBrown@Colors@DirectX@@3UXMVECTORF32@2@B	; DirectX::Colors::RosyBrown
PUBLIC	?RoyalBlue@Colors@DirectX@@3UXMVECTORF32@2@B	; DirectX::Colors::RoyalBlue
PUBLIC	?SaddleBrown@Colors@DirectX@@3UXMVECTORF32@2@B	; DirectX::Colors::SaddleBrown
PUBLIC	?Salmon@Colors@DirectX@@3UXMVECTORF32@2@B	; DirectX::Colors::Salmon
PUBLIC	?SandyBrown@Colors@DirectX@@3UXMVECTORF32@2@B	; DirectX::Colors::SandyBrown
PUBLIC	?SeaGreen@Colors@DirectX@@3UXMVECTORF32@2@B	; DirectX::Colors::SeaGreen
PUBLIC	?SeaShell@Colors@DirectX@@3UXMVECTORF32@2@B	; DirectX::Colors::SeaShell
PUBLIC	?Sienna@Colors@DirectX@@3UXMVECTORF32@2@B	; DirectX::Colors::Sienna
PUBLIC	?g_BoxOffset@DirectX@@3QBUXMVECTORF32@1@B	; DirectX::g_BoxOffset
PUBLIC	?Silver@Colors@DirectX@@3UXMVECTORF32@2@B	; DirectX::Colors::Silver
PUBLIC	?g_RayEpsilon@DirectX@@3UXMVECTORF32@1@B	; DirectX::g_RayEpsilon
PUBLIC	?SkyBlue@Colors@DirectX@@3UXMVECTORF32@2@B	; DirectX::Colors::SkyBlue
PUBLIC	?g_RayNegEpsilon@DirectX@@3UXMVECTORF32@1@B	; DirectX::g_RayNegEpsilon
PUBLIC	?SlateBlue@Colors@DirectX@@3UXMVECTORF32@2@B	; DirectX::Colors::SlateBlue
PUBLIC	?g_FltMin@DirectX@@3UXMVECTORF32@1@B		; DirectX::g_FltMin
PUBLIC	?SlateGray@Colors@DirectX@@3UXMVECTORF32@2@B	; DirectX::Colors::SlateGray
PUBLIC	?g_FltMax@DirectX@@3UXMVECTORF32@1@B		; DirectX::g_FltMax
PUBLIC	?Snow@Colors@DirectX@@3UXMVECTORF32@2@B		; DirectX::Colors::Snow
PUBLIC	?SpringGreen@Colors@DirectX@@3UXMVECTORF32@2@B	; DirectX::Colors::SpringGreen
PUBLIC	?SteelBlue@Colors@DirectX@@3UXMVECTORF32@2@B	; DirectX::Colors::SteelBlue
PUBLIC	?Tan@Colors@DirectX@@3UXMVECTORF32@2@B		; DirectX::Colors::Tan
PUBLIC	?Teal@Colors@DirectX@@3UXMVECTORF32@2@B		; DirectX::Colors::Teal
PUBLIC	?Thistle@Colors@DirectX@@3UXMVECTORF32@2@B	; DirectX::Colors::Thistle
PUBLIC	?Tomato@Colors@DirectX@@3UXMVECTORF32@2@B	; DirectX::Colors::Tomato
PUBLIC	?Transparent@Colors@DirectX@@3UXMVECTORF32@2@B	; DirectX::Colors::Transparent
PUBLIC	?Turquoise@Colors@DirectX@@3UXMVECTORF32@2@B	; DirectX::Colors::Turquoise
PUBLIC	?Violet@Colors@DirectX@@3UXMVECTORF32@2@B	; DirectX::Colors::Violet
PUBLIC	?Wheat@Colors@DirectX@@3UXMVECTORF32@2@B	; DirectX::Colors::Wheat
PUBLIC	?White@Colors@DirectX@@3UXMVECTORF32@2@B	; DirectX::Colors::White
PUBLIC	?WhiteSmoke@Colors@DirectX@@3UXMVECTORF32@2@B	; DirectX::Colors::WhiteSmoke
PUBLIC	?Yellow@Colors@DirectX@@3UXMVECTORF32@2@B	; DirectX::Colors::Yellow
PUBLIC	?YellowGreen@Colors@DirectX@@3UXMVECTORF32@2@B	; DirectX::Colors::YellowGreen
PUBLIC	?g_UnitVectorEpsilon@Internal@DirectX@@3UXMVECTORF32@2@B ; DirectX::Internal::g_UnitVectorEpsilon
PUBLIC	?g_UnitQuaternionEpsilon@Internal@DirectX@@3UXMVECTORF32@2@B ; DirectX::Internal::g_UnitQuaternionEpsilon
PUBLIC	?g_UnitPlaneEpsilon@Internal@DirectX@@3UXMVECTORF32@2@B ; DirectX::Internal::g_UnitPlaneEpsilon
PUBLIC	?g_XMSinCoefficients0@DirectX@@3UXMVECTORF32@1@B ; DirectX::g_XMSinCoefficients0
PUBLIC	?g_XMSinCoefficients1@DirectX@@3UXMVECTORF32@1@B ; DirectX::g_XMSinCoefficients1
PUBLIC	?g_XMCosCoefficients0@DirectX@@3UXMVECTORF32@1@B ; DirectX::g_XMCosCoefficients0
PUBLIC	?g_XMCosCoefficients1@DirectX@@3UXMVECTORF32@1@B ; DirectX::g_XMCosCoefficients1
PUBLIC	?g_XMTanCoefficients0@DirectX@@3UXMVECTORF32@1@B ; DirectX::g_XMTanCoefficients0
PUBLIC	?g_XMTanCoefficients1@DirectX@@3UXMVECTORF32@1@B ; DirectX::g_XMTanCoefficients1
PUBLIC	?g_XMTanCoefficients2@DirectX@@3UXMVECTORF32@1@B ; DirectX::g_XMTanCoefficients2
PUBLIC	?g_XMArcCoefficients0@DirectX@@3UXMVECTORF32@1@B ; DirectX::g_XMArcCoefficients0
PUBLIC	?g_XMArcCoefficients1@DirectX@@3UXMVECTORF32@1@B ; DirectX::g_XMArcCoefficients1
PUBLIC	?g_XMATanCoefficients0@DirectX@@3UXMVECTORF32@1@B ; DirectX::g_XMATanCoefficients0
PUBLIC	?g_XMATanCoefficients1@DirectX@@3UXMVECTORF32@1@B ; DirectX::g_XMATanCoefficients1
PUBLIC	?g_XMATanEstCoefficients0@DirectX@@3UXMVECTORF32@1@B ; DirectX::g_XMATanEstCoefficients0
PUBLIC	?g_XMATanEstCoefficients1@DirectX@@3UXMVECTORF32@1@B ; DirectX::g_XMATanEstCoefficients1
PUBLIC	?g_XMTanEstCoefficients@DirectX@@3UXMVECTORF32@1@B ; DirectX::g_XMTanEstCoefficients
PUBLIC	?g_XMArcEstCoefficients@DirectX@@3UXMVECTORF32@1@B ; DirectX::g_XMArcEstCoefficients
PUBLIC	?g_XMPiConstants0@DirectX@@3UXMVECTORF32@1@B	; DirectX::g_XMPiConstants0
PUBLIC	?g_XMIdentityR0@DirectX@@3UXMVECTORF32@1@B	; DirectX::g_XMIdentityR0
PUBLIC	?g_XMIdentityR1@DirectX@@3UXMVECTORF32@1@B	; DirectX::g_XMIdentityR1
PUBLIC	?g_XMIdentityR2@DirectX@@3UXMVECTORF32@1@B	; DirectX::g_XMIdentityR2
PUBLIC	?g_XMIdentityR3@DirectX@@3UXMVECTORF32@1@B	; DirectX::g_XMIdentityR3
PUBLIC	?g_XMNegIdentityR0@DirectX@@3UXMVECTORF32@1@B	; DirectX::g_XMNegIdentityR0
PUBLIC	?g_XMNegIdentityR1@DirectX@@3UXMVECTORF32@1@B	; DirectX::g_XMNegIdentityR1
PUBLIC	?g_XMNegIdentityR2@DirectX@@3UXMVECTORF32@1@B	; DirectX::g_XMNegIdentityR2
PUBLIC	?g_XMNegIdentityR3@DirectX@@3UXMVECTORF32@1@B	; DirectX::g_XMNegIdentityR3
PUBLIC	?g_XMNegativeZero@DirectX@@3UXMVECTORU32@1@B	; DirectX::g_XMNegativeZero
PUBLIC	?g_XMNegate3@DirectX@@3UXMVECTORU32@1@B		; DirectX::g_XMNegate3
PUBLIC	?g_XMMask3@DirectX@@3UXMVECTORU32@1@B		; DirectX::g_XMMask3
PUBLIC	?g_XMMaskX@DirectX@@3UXMVECTORU32@1@B		; DirectX::g_XMMaskX
PUBLIC	?g_XMMaskY@DirectX@@3UXMVECTORU32@1@B		; DirectX::g_XMMaskY
PUBLIC	?g_XMMaskZ@DirectX@@3UXMVECTORU32@1@B		; DirectX::g_XMMaskZ
PUBLIC	?g_XMMaskW@DirectX@@3UXMVECTORU32@1@B		; DirectX::g_XMMaskW
PUBLIC	?g_XMOne@DirectX@@3UXMVECTORF32@1@B		; DirectX::g_XMOne
PUBLIC	?g_XMOne3@DirectX@@3UXMVECTORF32@1@B		; DirectX::g_XMOne3
PUBLIC	?g_XMZero@DirectX@@3UXMVECTORF32@1@B		; DirectX::g_XMZero
PUBLIC	?g_XMTwo@DirectX@@3UXMVECTORF32@1@B		; DirectX::g_XMTwo
PUBLIC	?g_XMFour@DirectX@@3UXMVECTORF32@1@B		; DirectX::g_XMFour
PUBLIC	?g_XMSix@DirectX@@3UXMVECTORF32@1@B		; DirectX::g_XMSix
PUBLIC	?g_XMNegativeOne@DirectX@@3UXMVECTORF32@1@B	; DirectX::g_XMNegativeOne
PUBLIC	?g_XMOneHalf@DirectX@@3UXMVECTORF32@1@B		; DirectX::g_XMOneHalf
PUBLIC	?g_XMNegativeOneHalf@DirectX@@3UXMVECTORF32@1@B	; DirectX::g_XMNegativeOneHalf
PUBLIC	?g_XMNegativeTwoPi@DirectX@@3UXMVECTORF32@1@B	; DirectX::g_XMNegativeTwoPi
PUBLIC	?g_XMNegativePi@DirectX@@3UXMVECTORF32@1@B	; DirectX::g_XMNegativePi
PUBLIC	?g_XMHalfPi@DirectX@@3UXMVECTORF32@1@B		; DirectX::g_XMHalfPi
PUBLIC	?g_XMPi@DirectX@@3UXMVECTORF32@1@B		; DirectX::g_XMPi
PUBLIC	?g_XMReciprocalPi@DirectX@@3UXMVECTORF32@1@B	; DirectX::g_XMReciprocalPi
PUBLIC	?g_XMTwoPi@DirectX@@3UXMVECTORF32@1@B		; DirectX::g_XMTwoPi
PUBLIC	?g_XMReciprocalTwoPi@DirectX@@3UXMVECTORF32@1@B	; DirectX::g_XMReciprocalTwoPi
PUBLIC	?g_XMEpsilon@DirectX@@3UXMVECTORF32@1@B		; DirectX::g_XMEpsilon
PUBLIC	?g_XMInfinity@DirectX@@3UXMVECTORI32@1@B	; DirectX::g_XMInfinity
PUBLIC	?g_XMQNaN@DirectX@@3UXMVECTORI32@1@B		; DirectX::g_XMQNaN
PUBLIC	?g_XMQNaNTest@DirectX@@3UXMVECTORI32@1@B	; DirectX::g_XMQNaNTest
PUBLIC	?g_XMAbsMask@DirectX@@3UXMVECTORI32@1@B		; DirectX::g_XMAbsMask
PUBLIC	?g_XMFltMin@DirectX@@3UXMVECTORI32@1@B		; DirectX::g_XMFltMin
PUBLIC	?g_XMFltMax@DirectX@@3UXMVECTORI32@1@B		; DirectX::g_XMFltMax
PUBLIC	?g_XMNegOneMask@DirectX@@3UXMVECTORU32@1@B	; DirectX::g_XMNegOneMask
PUBLIC	?g_XMMaskA8R8G8B8@DirectX@@3UXMVECTORU32@1@B	; DirectX::g_XMMaskA8R8G8B8
PUBLIC	?g_XMFlipA8R8G8B8@DirectX@@3UXMVECTORU32@1@B	; DirectX::g_XMFlipA8R8G8B8
PUBLIC	?g_XMFixAA8R8G8B8@DirectX@@3UXMVECTORF32@1@B	; DirectX::g_XMFixAA8R8G8B8
PUBLIC	?g_XMNormalizeA8R8G8B8@DirectX@@3UXMVECTORF32@1@B ; DirectX::g_XMNormalizeA8R8G8B8
PUBLIC	?g_XMMaskA2B10G10R10@DirectX@@3UXMVECTORU32@1@B	; DirectX::g_XMMaskA2B10G10R10
PUBLIC	?g_XMFlipA2B10G10R10@DirectX@@3UXMVECTORU32@1@B	; DirectX::g_XMFlipA2B10G10R10
PUBLIC	?g_XMFixAA2B10G10R10@DirectX@@3UXMVECTORF32@1@B	; DirectX::g_XMFixAA2B10G10R10
PUBLIC	?g_XMNormalizeA2B10G10R10@DirectX@@3UXMVECTORF32@1@B ; DirectX::g_XMNormalizeA2B10G10R10
PUBLIC	?g_XMMaskX16Y16@DirectX@@3UXMVECTORU32@1@B	; DirectX::g_XMMaskX16Y16
PUBLIC	?g_XMFlipX16Y16@DirectX@@3UXMVECTORI32@1@B	; DirectX::g_XMFlipX16Y16
PUBLIC	?g_XMFixX16Y16@DirectX@@3UXMVECTORF32@1@B	; DirectX::g_XMFixX16Y16
PUBLIC	?g_XMNormalizeX16Y16@DirectX@@3UXMVECTORF32@1@B	; DirectX::g_XMNormalizeX16Y16
PUBLIC	?g_XMMaskX16Y16Z16W16@DirectX@@3UXMVECTORU32@1@B ; DirectX::g_XMMaskX16Y16Z16W16
PUBLIC	?g_XMFlipX16Y16Z16W16@DirectX@@3UXMVECTORI32@1@B ; DirectX::g_XMFlipX16Y16Z16W16
PUBLIC	?g_XMFixX16Y16Z16W16@DirectX@@3UXMVECTORF32@1@B	; DirectX::g_XMFixX16Y16Z16W16
PUBLIC	?g_XMNormalizeX16Y16Z16W16@DirectX@@3UXMVECTORF32@1@B ; DirectX::g_XMNormalizeX16Y16Z16W16
PUBLIC	?g_XMNoFraction@DirectX@@3UXMVECTORF32@1@B	; DirectX::g_XMNoFraction
PUBLIC	?g_XMMaskByte@DirectX@@3UXMVECTORI32@1@B	; DirectX::g_XMMaskByte
PUBLIC	?g_XMNegateX@DirectX@@3UXMVECTORF32@1@B		; DirectX::g_XMNegateX
PUBLIC	?g_XMNegateY@DirectX@@3UXMVECTORF32@1@B		; DirectX::g_XMNegateY
PUBLIC	?g_XMNegateZ@DirectX@@3UXMVECTORF32@1@B		; DirectX::g_XMNegateZ
PUBLIC	?g_XMNegateW@DirectX@@3UXMVECTORF32@1@B		; DirectX::g_XMNegateW
PUBLIC	?g_XMSelect0101@DirectX@@3UXMVECTORU32@1@B	; DirectX::g_XMSelect0101
PUBLIC	?g_XMSelect1010@DirectX@@3UXMVECTORU32@1@B	; DirectX::g_XMSelect1010
PUBLIC	?g_XMOneHalfMinusEpsilon@DirectX@@3UXMVECTORI32@1@B ; DirectX::g_XMOneHalfMinusEpsilon
PUBLIC	?g_XMSelect1000@DirectX@@3UXMVECTORU32@1@B	; DirectX::g_XMSelect1000
PUBLIC	?g_XMSelect1100@DirectX@@3UXMVECTORU32@1@B	; DirectX::g_XMSelect1100
PUBLIC	?g_XMSelect1110@DirectX@@3UXMVECTORU32@1@B	; DirectX::g_XMSelect1110
PUBLIC	?g_XMSelect1011@DirectX@@3UXMVECTORU32@1@B	; DirectX::g_XMSelect1011
PUBLIC	?g_XMFixupY16@DirectX@@3UXMVECTORF32@1@B	; DirectX::g_XMFixupY16
PUBLIC	?g_XMFixupY16W16@DirectX@@3UXMVECTORF32@1@B	; DirectX::g_XMFixupY16W16
PUBLIC	?g_XMFlipY@DirectX@@3UXMVECTORU32@1@B		; DirectX::g_XMFlipY
PUBLIC	?g_XMFlipZ@DirectX@@3UXMVECTORU32@1@B		; DirectX::g_XMFlipZ
PUBLIC	?g_XMFlipW@DirectX@@3UXMVECTORU32@1@B		; DirectX::g_XMFlipW
PUBLIC	?g_XMFlipYZ@DirectX@@3UXMVECTORU32@1@B		; DirectX::g_XMFlipYZ
PUBLIC	?g_XMFlipZW@DirectX@@3UXMVECTORU32@1@B		; DirectX::g_XMFlipZW
PUBLIC	?g_XMFlipYW@DirectX@@3UXMVECTORU32@1@B		; DirectX::g_XMFlipYW
PUBLIC	?g_XMMaskDec4@DirectX@@3UXMVECTORI32@1@B	; DirectX::g_XMMaskDec4
PUBLIC	?g_XMXorDec4@DirectX@@3UXMVECTORI32@1@B		; DirectX::g_XMXorDec4
PUBLIC	?g_XMAddUDec4@DirectX@@3UXMVECTORF32@1@B	; DirectX::g_XMAddUDec4
PUBLIC	?g_XMAddDec4@DirectX@@3UXMVECTORF32@1@B		; DirectX::g_XMAddDec4
PUBLIC	?g_XMMulDec4@DirectX@@3UXMVECTORF32@1@B		; DirectX::g_XMMulDec4
PUBLIC	?g_XMMaskByte4@DirectX@@3UXMVECTORU32@1@B	; DirectX::g_XMMaskByte4
PUBLIC	?g_XMXorByte4@DirectX@@3UXMVECTORI32@1@B	; DirectX::g_XMXorByte4
PUBLIC	?g_XMAddByte4@DirectX@@3UXMVECTORF32@1@B	; DirectX::g_XMAddByte4
PUBLIC	?g_XMFixUnsigned@DirectX@@3UXMVECTORF32@1@B	; DirectX::g_XMFixUnsigned
PUBLIC	?g_XMMaxInt@DirectX@@3UXMVECTORF32@1@B		; DirectX::g_XMMaxInt
PUBLIC	?g_XMMaxUInt@DirectX@@3UXMVECTORF32@1@B		; DirectX::g_XMMaxUInt
PUBLIC	?g_XMUnsignedFix@DirectX@@3UXMVECTORF32@1@B	; DirectX::g_XMUnsignedFix
PUBLIC	?g_XMsrgbScale@DirectX@@3UXMVECTORF32@1@B	; DirectX::g_XMsrgbScale
PUBLIC	?g_XMsrgbA@DirectX@@3UXMVECTORF32@1@B		; DirectX::g_XMsrgbA
PUBLIC	?g_XMsrgbA1@DirectX@@3UXMVECTORF32@1@B		; DirectX::g_XMsrgbA1
PUBLIC	?g_XMExponentBias@DirectX@@3UXMVECTORI32@1@B	; DirectX::g_XMExponentBias
PUBLIC	?g_XMSubnormalExponent@DirectX@@3UXMVECTORI32@1@B ; DirectX::g_XMSubnormalExponent
PUBLIC	?g_XMNumTrailing@DirectX@@3UXMVECTORI32@1@B	; DirectX::g_XMNumTrailing
PUBLIC	?g_XMMinNormal@DirectX@@3UXMVECTORI32@1@B	; DirectX::g_XMMinNormal
PUBLIC	?g_XMNegInfinity@DirectX@@3UXMVECTORU32@1@B	; DirectX::g_XMNegInfinity
PUBLIC	?g_XMNegQNaN@DirectX@@3UXMVECTORU32@1@B		; DirectX::g_XMNegQNaN
PUBLIC	?g_XMBin128@DirectX@@3UXMVECTORI32@1@B		; DirectX::g_XMBin128
PUBLIC	?g_XMBinNeg150@DirectX@@3UXMVECTORU32@1@B	; DirectX::g_XMBinNeg150
PUBLIC	?g_XM253@DirectX@@3UXMVECTORI32@1@B		; DirectX::g_XM253
PUBLIC	?g_XMExpEst1@DirectX@@3UXMVECTORF32@1@B		; DirectX::g_XMExpEst1
PUBLIC	?g_XMExpEst2@DirectX@@3UXMVECTORF32@1@B		; DirectX::g_XMExpEst2
PUBLIC	?g_XMExpEst3@DirectX@@3UXMVECTORF32@1@B		; DirectX::g_XMExpEst3
PUBLIC	?g_XMExpEst4@DirectX@@3UXMVECTORF32@1@B		; DirectX::g_XMExpEst4
PUBLIC	?g_XMExpEst5@DirectX@@3UXMVECTORF32@1@B		; DirectX::g_XMExpEst5
PUBLIC	?g_XMExpEst6@DirectX@@3UXMVECTORF32@1@B		; DirectX::g_XMExpEst6
PUBLIC	?g_XMExpEst7@DirectX@@3UXMVECTORF32@1@B		; DirectX::g_XMExpEst7
PUBLIC	?g_XMLogEst0@DirectX@@3UXMVECTORF32@1@B		; DirectX::g_XMLogEst0
PUBLIC	?g_XMLogEst1@DirectX@@3UXMVECTORF32@1@B		; DirectX::g_XMLogEst1
PUBLIC	?g_XMLogEst2@DirectX@@3UXMVECTORF32@1@B		; DirectX::g_XMLogEst2
PUBLIC	?g_XMLogEst3@DirectX@@3UXMVECTORF32@1@B		; DirectX::g_XMLogEst3
PUBLIC	?g_XMLogEst4@DirectX@@3UXMVECTORF32@1@B		; DirectX::g_XMLogEst4
PUBLIC	?g_XMLogEst5@DirectX@@3UXMVECTORF32@1@B		; DirectX::g_XMLogEst5
PUBLIC	?g_XMLogEst6@DirectX@@3UXMVECTORF32@1@B		; DirectX::g_XMLogEst6
PUBLIC	?g_XMLogEst7@DirectX@@3UXMVECTORF32@1@B		; DirectX::g_XMLogEst7
PUBLIC	?g_XMLgE@DirectX@@3UXMVECTORF32@1@B		; DirectX::g_XMLgE
PUBLIC	?g_XMInvLgE@DirectX@@3UXMVECTORF32@1@B		; DirectX::g_XMInvLgE
;	COMDAT ?g_XMInvLgE@DirectX@@3UXMVECTORF32@1@B
CONST	SEGMENT
?g_XMInvLgE@DirectX@@3UXMVECTORF32@1@B DD 03f317218r ; 0.693147 ; DirectX::g_XMInvLgE
	DD	03f317218r			; 0.693147
	DD	03f317218r			; 0.693147
	DD	03f317218r			; 0.693147
CONST	ENDS
;	COMDAT ?g_XMLgE@DirectX@@3UXMVECTORF32@1@B
CONST	SEGMENT
?g_XMLgE@DirectX@@3UXMVECTORF32@1@B DD 03fb8aa3br ; 1.4427 ; DirectX::g_XMLgE
	DD	03fb8aa3br			; 1.4427
	DD	03fb8aa3br			; 1.4427
	DD	03fb8aa3br			; 1.4427
CONST	ENDS
;	COMDAT ?g_XMLogEst7@DirectX@@3UXMVECTORF32@1@B
CONST	SEGMENT
?g_XMLogEst7@DirectX@@3UXMVECTORF32@1@B DD 0bc2d4f59r ; -0.010578 ; DirectX::g_XMLogEst7
	DD	0bc2d4f59r			; -0.010578
	DD	0bc2d4f59r			; -0.010578
	DD	0bc2d4f59r			; -0.010578
CONST	ENDS
;	COMDAT ?g_XMLogEst6@DirectX@@3UXMVECTORF32@1@B
CONST	SEGMENT
?g_XMLogEst6@DirectX@@3UXMVECTORF32@1@B DD 03d6a1405r ; 0.057148 ; DirectX::g_XMLogEst6
	DD	03d6a1405r			; 0.057148
	DD	03d6a1405r			; 0.057148
	DD	03d6a1405r			; 0.057148
CONST	ENDS
;	COMDAT ?g_XMLogEst5@DirectX@@3UXMVECTORF32@1@B
CONST	SEGMENT
?g_XMLogEst5@DirectX@@3UXMVECTORF32@1@B DD 0be153261r ; -0.1457 ; DirectX::g_XMLogEst5
	DD	0be153261r			; -0.1457
	DD	0be153261r			; -0.1457
	DD	0be153261r			; -0.1457
CONST	ENDS
;	COMDAT ?g_XMLogEst4@DirectX@@3UXMVECTORF32@1@B
CONST	SEGMENT
?g_XMLogEst4@DirectX@@3UXMVECTORF32@1@B DD 03e7e8e61r ; 0.24859 ; DirectX::g_XMLogEst4
	DD	03e7e8e61r			; 0.24859
	DD	03e7e8e61r			; 0.24859
	DD	03e7e8e61r			; 0.24859
CONST	ENDS
;	COMDAT ?g_XMLogEst3@DirectX@@3UXMVECTORF32@1@B
CONST	SEGMENT
?g_XMLogEst3@DirectX@@3UXMVECTORF32@1@B DD 0beb359der ; -0.350295 ; DirectX::g_XMLogEst3
	DD	0beb359der			; -0.350295
	DD	0beb359der			; -0.350295
	DD	0beb359der			; -0.350295
CONST	ENDS
;	COMDAT ?g_XMLogEst2@DirectX@@3UXMVECTORF32@1@B
CONST	SEGMENT
?g_XMLogEst2@DirectX@@3UXMVECTORF32@1@B DD 03ef571d2r ; 0.479384 ; DirectX::g_XMLogEst2
	DD	03ef571d2r			; 0.479384
	DD	03ef571d2r			; 0.479384
	DD	03ef571d2r			; 0.479384
CONST	ENDS
;	COMDAT ?g_XMLogEst1@DirectX@@3UXMVECTORF32@1@B
CONST	SEGMENT
?g_XMLogEst1@DirectX@@3UXMVECTORF32@1@B DD 0bf38a351r ; -0.721242 ; DirectX::g_XMLogEst1
	DD	0bf38a351r			; -0.721242
	DD	0bf38a351r			; -0.721242
	DD	0bf38a351r			; -0.721242
CONST	ENDS
;	COMDAT ?g_XMLogEst0@DirectX@@3UXMVECTORF32@1@B
CONST	SEGMENT
?g_XMLogEst0@DirectX@@3UXMVECTORF32@1@B DD 03fb8aa2ar ; 1.44269 ; DirectX::g_XMLogEst0
	DD	03fb8aa2ar			; 1.44269
	DD	03fb8aa2ar			; 1.44269
	DD	03fb8aa2ar			; 1.44269
CONST	ENDS
;	COMDAT ?g_XMExpEst7@DirectX@@3UXMVECTORF32@1@B
CONST	SEGMENT
?g_XMExpEst7@DirectX@@3UXMVECTORF32@1@B DD 0b7364261r ; -1.08635e-05 ; DirectX::g_XMExpEst7
	DD	0b7364261r			; -1.08635e-05
	DD	0b7364261r			; -1.08635e-05
	DD	0b7364261r			; -1.08635e-05
CONST	ENDS
;	COMDAT ?g_XMExpEst6@DirectX@@3UXMVECTORF32@1@B
CONST	SEGMENT
?g_XMExpEst6@DirectX@@3UXMVECTORF32@1@B DD 0391aa7d7r ; 0.000147491 ; DirectX::g_XMExpEst6
	DD	0391aa7d7r			; 0.000147491
	DD	0391aa7d7r			; 0.000147491
	DD	0391aa7d7r			; 0.000147491
CONST	ENDS
;	COMDAT ?g_XMExpEst5@DirectX@@3UXMVECTORF32@1@B
CONST	SEGMENT
?g_XMExpEst5@DirectX@@3UXMVECTORF32@1@B DD 0baae1854r ; -0.00132824 ; DirectX::g_XMExpEst5
	DD	0baae1854r			; -0.00132824
	DD	0baae1854r			; -0.00132824
	DD	0baae1854r			; -0.00132824
CONST	ENDS
;	COMDAT ?g_XMExpEst4@DirectX@@3UXMVECTORF32@1@B
CONST	SEGMENT
?g_XMExpEst4@DirectX@@3UXMVECTORF32@1@B DD 03c1d8c54r ; 0.00961598 ; DirectX::g_XMExpEst4
	DD	03c1d8c54r			; 0.00961598
	DD	03c1d8c54r			; 0.00961598
	DD	03c1d8c54r			; 0.00961598
CONST	ENDS
;	COMDAT ?g_XMExpEst3@DirectX@@3UXMVECTORF32@1@B
CONST	SEGMENT
?g_XMExpEst3@DirectX@@3UXMVECTORF32@1@B DD 0bd6357car ; -0.0555036 ; DirectX::g_XMExpEst3
	DD	0bd6357car			; -0.0555036
	DD	0bd6357car			; -0.0555036
	DD	0bd6357car			; -0.0555036
CONST	ENDS
;	COMDAT ?g_XMExpEst2@DirectX@@3UXMVECTORF32@1@B
CONST	SEGMENT
?g_XMExpEst2@DirectX@@3UXMVECTORF32@1@B DD 03e75fdedr ; 0.240226 ; DirectX::g_XMExpEst2
	DD	03e75fdedr			; 0.240226
	DD	03e75fdedr			; 0.240226
	DD	03e75fdedr			; 0.240226
CONST	ENDS
;	COMDAT ?g_XMExpEst1@DirectX@@3UXMVECTORF32@1@B
CONST	SEGMENT
?g_XMExpEst1@DirectX@@3UXMVECTORF32@1@B DD 0bf317218r ; -0.693147 ; DirectX::g_XMExpEst1
	DD	0bf317218r			; -0.693147
	DD	0bf317218r			; -0.693147
	DD	0bf317218r			; -0.693147
CONST	ENDS
;	COMDAT ?g_XM253@DirectX@@3UXMVECTORI32@1@B
CONST	SEGMENT
?g_XM253@DirectX@@3UXMVECTORI32@1@B DD 0fdH		; DirectX::g_XM253
	DD	0fdH
	DD	0fdH
	DD	0fdH
CONST	ENDS
;	COMDAT ?g_XMBinNeg150@DirectX@@3UXMVECTORU32@1@B
CONST	SEGMENT
?g_XMBinNeg150@DirectX@@3UXMVECTORU32@1@B DD 0c3160000H	; DirectX::g_XMBinNeg150
	DD	0c3160000H
	DD	0c3160000H
	DD	0c3160000H
CONST	ENDS
;	COMDAT ?g_XMBin128@DirectX@@3UXMVECTORI32@1@B
CONST	SEGMENT
?g_XMBin128@DirectX@@3UXMVECTORI32@1@B DD 043000000H	; DirectX::g_XMBin128
	DD	043000000H
	DD	043000000H
	DD	043000000H
CONST	ENDS
;	COMDAT ?g_XMNegQNaN@DirectX@@3UXMVECTORU32@1@B
CONST	SEGMENT
?g_XMNegQNaN@DirectX@@3UXMVECTORU32@1@B DD 0ffc00000H	; DirectX::g_XMNegQNaN
	DD	0ffc00000H
	DD	0ffc00000H
	DD	0ffc00000H
CONST	ENDS
;	COMDAT ?g_XMNegInfinity@DirectX@@3UXMVECTORU32@1@B
CONST	SEGMENT
?g_XMNegInfinity@DirectX@@3UXMVECTORU32@1@B DD 0ff800000H ; DirectX::g_XMNegInfinity
	DD	0ff800000H
	DD	0ff800000H
	DD	0ff800000H
CONST	ENDS
;	COMDAT ?g_XMMinNormal@DirectX@@3UXMVECTORI32@1@B
CONST	SEGMENT
?g_XMMinNormal@DirectX@@3UXMVECTORI32@1@B DD 0800000H	; DirectX::g_XMMinNormal
	DD	0800000H
	DD	0800000H
	DD	0800000H
CONST	ENDS
;	COMDAT ?g_XMNumTrailing@DirectX@@3UXMVECTORI32@1@B
CONST	SEGMENT
?g_XMNumTrailing@DirectX@@3UXMVECTORI32@1@B DD 017H	; DirectX::g_XMNumTrailing
	DD	017H
	DD	017H
	DD	017H
CONST	ENDS
;	COMDAT ?g_XMSubnormalExponent@DirectX@@3UXMVECTORI32@1@B
CONST	SEGMENT
?g_XMSubnormalExponent@DirectX@@3UXMVECTORI32@1@B DD 0ffffff82H ; DirectX::g_XMSubnormalExponent
	DD	0ffffff82H
	DD	0ffffff82H
	DD	0ffffff82H
CONST	ENDS
;	COMDAT ?g_XMExponentBias@DirectX@@3UXMVECTORI32@1@B
CONST	SEGMENT
?g_XMExponentBias@DirectX@@3UXMVECTORI32@1@B DD 07fH	; DirectX::g_XMExponentBias
	DD	07fH
	DD	07fH
	DD	07fH
CONST	ENDS
;	COMDAT ?g_XMsrgbA1@DirectX@@3UXMVECTORF32@1@B
CONST	SEGMENT
?g_XMsrgbA1@DirectX@@3UXMVECTORF32@1@B DD 03f870a3dr ; 1.055 ; DirectX::g_XMsrgbA1
	DD	03f870a3dr			; 1.055
	DD	03f870a3dr			; 1.055
	DD	03f800000r			; 1
CONST	ENDS
;	COMDAT ?g_XMsrgbA@DirectX@@3UXMVECTORF32@1@B
CONST	SEGMENT
?g_XMsrgbA@DirectX@@3UXMVECTORF32@1@B DD 03d6147aer ; 0.055 ; DirectX::g_XMsrgbA
	DD	03d6147aer			; 0.055
	DD	03d6147aer			; 0.055
	DD	000000000r			; 0
CONST	ENDS
;	COMDAT ?g_XMsrgbScale@DirectX@@3UXMVECTORF32@1@B
CONST	SEGMENT
?g_XMsrgbScale@DirectX@@3UXMVECTORF32@1@B DD 0414eb852r ; 12.92 ; DirectX::g_XMsrgbScale
	DD	0414eb852r			; 12.92
	DD	0414eb852r			; 12.92
	DD	03f800000r			; 1
CONST	ENDS
;	COMDAT ?g_XMUnsignedFix@DirectX@@3UXMVECTORF32@1@B
CONST	SEGMENT
?g_XMUnsignedFix@DirectX@@3UXMVECTORF32@1@B DD 04f000000r ; 2.14748e+09 ; DirectX::g_XMUnsignedFix
	DD	04f000000r			; 2.14748e+09
	DD	04f000000r			; 2.14748e+09
	DD	04f000000r			; 2.14748e+09
CONST	ENDS
;	COMDAT ?g_XMMaxUInt@DirectX@@3UXMVECTORF32@1@B
CONST	SEGMENT
?g_XMMaxUInt@DirectX@@3UXMVECTORF32@1@B DD 04f7fffffr ; 4.29497e+09 ; DirectX::g_XMMaxUInt
	DD	04f7fffffr			; 4.29497e+09
	DD	04f7fffffr			; 4.29497e+09
	DD	04f7fffffr			; 4.29497e+09
CONST	ENDS
;	COMDAT ?g_XMMaxInt@DirectX@@3UXMVECTORF32@1@B
CONST	SEGMENT
?g_XMMaxInt@DirectX@@3UXMVECTORF32@1@B DD 04effffffr ; 2.14748e+09 ; DirectX::g_XMMaxInt
	DD	04effffffr			; 2.14748e+09
	DD	04effffffr			; 2.14748e+09
	DD	04effffffr			; 2.14748e+09
CONST	ENDS
;	COMDAT ?g_XMFixUnsigned@DirectX@@3UXMVECTORF32@1@B
CONST	SEGMENT
?g_XMFixUnsigned@DirectX@@3UXMVECTORF32@1@B DD 04f000000r ; 2.14748e+09 ; DirectX::g_XMFixUnsigned
	DD	04f000000r			; 2.14748e+09
	DD	04f000000r			; 2.14748e+09
	DD	04f000000r			; 2.14748e+09
CONST	ENDS
;	COMDAT ?g_XMAddByte4@DirectX@@3UXMVECTORF32@1@B
CONST	SEGMENT
?g_XMAddByte4@DirectX@@3UXMVECTORF32@1@B DD 0c3000000r ; -128 ; DirectX::g_XMAddByte4
	DD	0c7000000r			; -32768
	DD	0cb000000r			; -8.38861e+06
	DD	000000000r			; 0
CONST	ENDS
;	COMDAT ?g_XMXorByte4@DirectX@@3UXMVECTORI32@1@B
CONST	SEGMENT
?g_XMXorByte4@DirectX@@3UXMVECTORI32@1@B DD 080H	; DirectX::g_XMXorByte4
	DD	08000H
	DD	0800000H
	DD	00H
CONST	ENDS
;	COMDAT ?g_XMMaskByte4@DirectX@@3UXMVECTORU32@1@B
CONST	SEGMENT
?g_XMMaskByte4@DirectX@@3UXMVECTORU32@1@B DD 0ffH	; DirectX::g_XMMaskByte4
	DD	0ff00H
	DD	0ff0000H
	DD	0ff000000H
CONST	ENDS
;	COMDAT ?g_XMMulDec4@DirectX@@3UXMVECTORF32@1@B
CONST	SEGMENT
?g_XMMulDec4@DirectX@@3UXMVECTORF32@1@B DD 03f800000r ; 1 ; DirectX::g_XMMulDec4
	DD	03a800000r			; 0.000976563
	DD	035800000r			; 9.53674e-07
	DD	030800000r			; 9.31323e-10
CONST	ENDS
;	COMDAT ?g_XMAddDec4@DirectX@@3UXMVECTORF32@1@B
CONST	SEGMENT
?g_XMAddDec4@DirectX@@3UXMVECTORF32@1@B DD 0c4000000r ; -512 ; DirectX::g_XMAddDec4
	DD	0c9000000r			; -524288
	DD	0ce000000r			; -5.36871e+08
	DD	000000000r			; 0
CONST	ENDS
;	COMDAT ?g_XMAddUDec4@DirectX@@3UXMVECTORF32@1@B
CONST	SEGMENT
?g_XMAddUDec4@DirectX@@3UXMVECTORF32@1@B DD 000000000r ; 0 ; DirectX::g_XMAddUDec4
	DD	000000000r			; 0
	DD	000000000r			; 0
	DD	04f000000r			; 2.14748e+09
CONST	ENDS
;	COMDAT ?g_XMXorDec4@DirectX@@3UXMVECTORI32@1@B
CONST	SEGMENT
?g_XMXorDec4@DirectX@@3UXMVECTORI32@1@B DD 0200H	; DirectX::g_XMXorDec4
	DD	080000H
	DD	020000000H
	DD	00H
CONST	ENDS
;	COMDAT ?g_XMMaskDec4@DirectX@@3UXMVECTORI32@1@B
CONST	SEGMENT
?g_XMMaskDec4@DirectX@@3UXMVECTORI32@1@B DD 03ffH	; DirectX::g_XMMaskDec4
	DD	0ffc00H
	DD	03ff00000H
	DD	0c0000000H
CONST	ENDS
;	COMDAT ?g_XMFlipYW@DirectX@@3UXMVECTORU32@1@B
CONST	SEGMENT
?g_XMFlipYW@DirectX@@3UXMVECTORU32@1@B DD 00H		; DirectX::g_XMFlipYW
	DD	080000000H
	DD	00H
	DD	080000000H
CONST	ENDS
;	COMDAT ?g_XMFlipZW@DirectX@@3UXMVECTORU32@1@B
CONST	SEGMENT
?g_XMFlipZW@DirectX@@3UXMVECTORU32@1@B DD 00H		; DirectX::g_XMFlipZW
	DD	00H
	DD	080000000H
	DD	080000000H
CONST	ENDS
;	COMDAT ?g_XMFlipYZ@DirectX@@3UXMVECTORU32@1@B
CONST	SEGMENT
?g_XMFlipYZ@DirectX@@3UXMVECTORU32@1@B DD 00H		; DirectX::g_XMFlipYZ
	DD	080000000H
	DD	080000000H
	DD	00H
CONST	ENDS
;	COMDAT ?g_XMFlipW@DirectX@@3UXMVECTORU32@1@B
CONST	SEGMENT
?g_XMFlipW@DirectX@@3UXMVECTORU32@1@B DD 00H		; DirectX::g_XMFlipW
	DD	00H
	DD	00H
	DD	080000000H
CONST	ENDS
;	COMDAT ?g_XMFlipZ@DirectX@@3UXMVECTORU32@1@B
CONST	SEGMENT
?g_XMFlipZ@DirectX@@3UXMVECTORU32@1@B DD 00H		; DirectX::g_XMFlipZ
	DD	00H
	DD	080000000H
	DD	00H
CONST	ENDS
;	COMDAT ?g_XMFlipY@DirectX@@3UXMVECTORU32@1@B
CONST	SEGMENT
?g_XMFlipY@DirectX@@3UXMVECTORU32@1@B DD 00H		; DirectX::g_XMFlipY
	DD	080000000H
	DD	00H
	DD	00H
CONST	ENDS
;	COMDAT ?g_XMFixupY16W16@DirectX@@3UXMVECTORF32@1@B
CONST	SEGMENT
?g_XMFixupY16W16@DirectX@@3UXMVECTORF32@1@B DD 03f800000r ; 1 ; DirectX::g_XMFixupY16W16
	DD	03f800000r			; 1
	DD	037800000r			; 1.52588e-05
	DD	037800000r			; 1.52588e-05
CONST	ENDS
;	COMDAT ?g_XMFixupY16@DirectX@@3UXMVECTORF32@1@B
CONST	SEGMENT
?g_XMFixupY16@DirectX@@3UXMVECTORF32@1@B DD 03f800000r ; 1 ; DirectX::g_XMFixupY16
	DD	037800000r			; 1.52588e-05
	DD	000000000r			; 0
	DD	000000000r			; 0
CONST	ENDS
;	COMDAT ?g_XMSelect1011@DirectX@@3UXMVECTORU32@1@B
CONST	SEGMENT
?g_XMSelect1011@DirectX@@3UXMVECTORU32@1@B DD 0ffffffffH ; DirectX::g_XMSelect1011
	DD	00H
	DD	0ffffffffH
	DD	0ffffffffH
CONST	ENDS
;	COMDAT ?g_XMSelect1110@DirectX@@3UXMVECTORU32@1@B
CONST	SEGMENT
?g_XMSelect1110@DirectX@@3UXMVECTORU32@1@B DD 0ffffffffH ; DirectX::g_XMSelect1110
	DD	0ffffffffH
	DD	0ffffffffH
	DD	00H
CONST	ENDS
;	COMDAT ?g_XMSelect1100@DirectX@@3UXMVECTORU32@1@B
CONST	SEGMENT
?g_XMSelect1100@DirectX@@3UXMVECTORU32@1@B DD 0ffffffffH ; DirectX::g_XMSelect1100
	DD	0ffffffffH
	DD	00H
	DD	00H
CONST	ENDS
;	COMDAT ?g_XMSelect1000@DirectX@@3UXMVECTORU32@1@B
CONST	SEGMENT
?g_XMSelect1000@DirectX@@3UXMVECTORU32@1@B DD 0ffffffffH ; DirectX::g_XMSelect1000
	DD	00H
	DD	00H
	DD	00H
CONST	ENDS
;	COMDAT ?g_XMOneHalfMinusEpsilon@DirectX@@3UXMVECTORI32@1@B
CONST	SEGMENT
?g_XMOneHalfMinusEpsilon@DirectX@@3UXMVECTORI32@1@B DD 03efffffdH ; DirectX::g_XMOneHalfMinusEpsilon
	DD	03efffffdH
	DD	03efffffdH
	DD	03efffffdH
CONST	ENDS
;	COMDAT ?g_XMSelect1010@DirectX@@3UXMVECTORU32@1@B
CONST	SEGMENT
?g_XMSelect1010@DirectX@@3UXMVECTORU32@1@B DD 0ffffffffH ; DirectX::g_XMSelect1010
	DD	00H
	DD	0ffffffffH
	DD	00H
CONST	ENDS
;	COMDAT ?g_XMSelect0101@DirectX@@3UXMVECTORU32@1@B
CONST	SEGMENT
?g_XMSelect0101@DirectX@@3UXMVECTORU32@1@B DD 00H	; DirectX::g_XMSelect0101
	DD	0ffffffffH
	DD	00H
	DD	0ffffffffH
CONST	ENDS
;	COMDAT ?g_XMNegateW@DirectX@@3UXMVECTORF32@1@B
CONST	SEGMENT
?g_XMNegateW@DirectX@@3UXMVECTORF32@1@B DD 03f800000r ; 1 ; DirectX::g_XMNegateW
	DD	03f800000r			; 1
	DD	03f800000r			; 1
	DD	0bf800000r			; -1
CONST	ENDS
;	COMDAT ?g_XMNegateZ@DirectX@@3UXMVECTORF32@1@B
CONST	SEGMENT
?g_XMNegateZ@DirectX@@3UXMVECTORF32@1@B DD 03f800000r ; 1 ; DirectX::g_XMNegateZ
	DD	03f800000r			; 1
	DD	0bf800000r			; -1
	DD	03f800000r			; 1
CONST	ENDS
;	COMDAT ?g_XMNegateY@DirectX@@3UXMVECTORF32@1@B
CONST	SEGMENT
?g_XMNegateY@DirectX@@3UXMVECTORF32@1@B DD 03f800000r ; 1 ; DirectX::g_XMNegateY
	DD	0bf800000r			; -1
	DD	03f800000r			; 1
	DD	03f800000r			; 1
CONST	ENDS
;	COMDAT ?g_XMNegateX@DirectX@@3UXMVECTORF32@1@B
CONST	SEGMENT
?g_XMNegateX@DirectX@@3UXMVECTORF32@1@B DD 0bf800000r ; -1 ; DirectX::g_XMNegateX
	DD	03f800000r			; 1
	DD	03f800000r			; 1
	DD	03f800000r			; 1
CONST	ENDS
;	COMDAT ?g_XMMaskByte@DirectX@@3UXMVECTORI32@1@B
CONST	SEGMENT
?g_XMMaskByte@DirectX@@3UXMVECTORI32@1@B DD 0ffH	; DirectX::g_XMMaskByte
	DD	0ffH
	DD	0ffH
	DD	0ffH
CONST	ENDS
;	COMDAT ?g_XMNoFraction@DirectX@@3UXMVECTORF32@1@B
CONST	SEGMENT
?g_XMNoFraction@DirectX@@3UXMVECTORF32@1@B DD 04b000000r ; 8.38861e+06 ; DirectX::g_XMNoFraction
	DD	04b000000r			; 8.38861e+06
	DD	04b000000r			; 8.38861e+06
	DD	04b000000r			; 8.38861e+06
CONST	ENDS
;	COMDAT ?g_XMNormalizeX16Y16Z16W16@DirectX@@3UXMVECTORF32@1@B
CONST	SEGMENT
?g_XMNormalizeX16Y16Z16W16@DirectX@@3UXMVECTORF32@1@B DD 038000100r ; 3.05185e-05 ; DirectX::g_XMNormalizeX16Y16Z16W16
	DD	038000100r			; 3.05185e-05
	DD	030000100r			; 4.65675e-10
	DD	030000100r			; 4.65675e-10
CONST	ENDS
;	COMDAT ?g_XMFixX16Y16Z16W16@DirectX@@3UXMVECTORF32@1@B
CONST	SEGMENT
?g_XMFixX16Y16Z16W16@DirectX@@3UXMVECTORF32@1@B DD 0c7000000r ; -32768 ; DirectX::g_XMFixX16Y16Z16W16
	DD	0c7000000r			; -32768
	DD	000000000r			; 0
	DD	000000000r			; 0
CONST	ENDS
;	COMDAT ?g_XMFlipX16Y16Z16W16@DirectX@@3UXMVECTORI32@1@B
CONST	SEGMENT
?g_XMFlipX16Y16Z16W16@DirectX@@3UXMVECTORI32@1@B DD 08000H ; DirectX::g_XMFlipX16Y16Z16W16
	DD	08000H
	DD	00H
	DD	00H
CONST	ENDS
;	COMDAT ?g_XMMaskX16Y16Z16W16@DirectX@@3UXMVECTORU32@1@B
CONST	SEGMENT
?g_XMMaskX16Y16Z16W16@DirectX@@3UXMVECTORU32@1@B DD 0ffffH ; DirectX::g_XMMaskX16Y16Z16W16
	DD	0ffffH
	DD	0ffff0000H
	DD	0ffff0000H
CONST	ENDS
;	COMDAT ?g_XMNormalizeX16Y16@DirectX@@3UXMVECTORF32@1@B
CONST	SEGMENT
?g_XMNormalizeX16Y16@DirectX@@3UXMVECTORF32@1@B DD 038000100r ; 3.05185e-05 ; DirectX::g_XMNormalizeX16Y16
	DD	030000100r			; 4.65675e-10
	DD	000000000r			; 0
	DD	000000000r			; 0
CONST	ENDS
;	COMDAT ?g_XMFixX16Y16@DirectX@@3UXMVECTORF32@1@B
CONST	SEGMENT
?g_XMFixX16Y16@DirectX@@3UXMVECTORF32@1@B DD 0c7000000r ; -32768 ; DirectX::g_XMFixX16Y16
	DD	000000000r			; 0
	DD	000000000r			; 0
	DD	000000000r			; 0
CONST	ENDS
;	COMDAT ?g_XMFlipX16Y16@DirectX@@3UXMVECTORI32@1@B
CONST	SEGMENT
?g_XMFlipX16Y16@DirectX@@3UXMVECTORI32@1@B DD 08000H	; DirectX::g_XMFlipX16Y16
	DD	00H
	DD	00H
	DD	00H
CONST	ENDS
;	COMDAT ?g_XMMaskX16Y16@DirectX@@3UXMVECTORU32@1@B
CONST	SEGMENT
?g_XMMaskX16Y16@DirectX@@3UXMVECTORU32@1@B DD 0ffffH	; DirectX::g_XMMaskX16Y16
	DD	0ffff0000H
	DD	00H
	DD	00H
CONST	ENDS
;	COMDAT ?g_XMNormalizeA2B10G10R10@DirectX@@3UXMVECTORF32@1@B
CONST	SEGMENT
?g_XMNormalizeA2B10G10R10@DirectX@@3UXMVECTORF32@1@B DD 03b004020r ; 0.00195695 ; DirectX::g_XMNormalizeA2B10G10R10
	DD	036004020r			; 1.91108e-06
	DD	031004020r			; 1.86629e-09
	DD	02faaaaabr			; 3.10441e-10
CONST	ENDS
;	COMDAT ?g_XMFixAA2B10G10R10@DirectX@@3UXMVECTORF32@1@B
CONST	SEGMENT
?g_XMFixAA2B10G10R10@DirectX@@3UXMVECTORF32@1@B DD 0c4000000r ; -512 ; DirectX::g_XMFixAA2B10G10R10
	DD	0c9000000r			; -524288
	DD	0ce000000r			; -5.36871e+08
	DD	04f000000r			; 2.14748e+09
CONST	ENDS
;	COMDAT ?g_XMFlipA2B10G10R10@DirectX@@3UXMVECTORU32@1@B
CONST	SEGMENT
?g_XMFlipA2B10G10R10@DirectX@@3UXMVECTORU32@1@B DD 0200H ; DirectX::g_XMFlipA2B10G10R10
	DD	080000H
	DD	020000000H
	DD	080000000H
CONST	ENDS
;	COMDAT ?g_XMMaskA2B10G10R10@DirectX@@3UXMVECTORU32@1@B
CONST	SEGMENT
?g_XMMaskA2B10G10R10@DirectX@@3UXMVECTORU32@1@B DD 03ffH ; DirectX::g_XMMaskA2B10G10R10
	DD	0ffc00H
	DD	03ff00000H
	DD	0c0000000H
CONST	ENDS
;	COMDAT ?g_XMNormalizeA8R8G8B8@DirectX@@3UXMVECTORF32@1@B
CONST	SEGMENT
?g_XMNormalizeA8R8G8B8@DirectX@@3UXMVECTORF32@1@B DD 033808081r ; 5.98384e-08 ; DirectX::g_XMNormalizeA8R8G8B8
	DD	037808081r			; 1.53186e-05
	DD	03b808081r			; 0.00392157
	DD	02f808081r			; 2.33744e-10
CONST	ENDS
;	COMDAT ?g_XMFixAA8R8G8B8@DirectX@@3UXMVECTORF32@1@B
CONST	SEGMENT
?g_XMFixAA8R8G8B8@DirectX@@3UXMVECTORF32@1@B DD 000000000r ; 0 ; DirectX::g_XMFixAA8R8G8B8
	DD	000000000r			; 0
	DD	000000000r			; 0
	DD	04f000000r			; 2.14748e+09
CONST	ENDS
;	COMDAT ?g_XMFlipA8R8G8B8@DirectX@@3UXMVECTORU32@1@B
CONST	SEGMENT
?g_XMFlipA8R8G8B8@DirectX@@3UXMVECTORU32@1@B DD 00H	; DirectX::g_XMFlipA8R8G8B8
	DD	00H
	DD	00H
	DD	080000000H
CONST	ENDS
;	COMDAT ?g_XMMaskA8R8G8B8@DirectX@@3UXMVECTORU32@1@B
CONST	SEGMENT
?g_XMMaskA8R8G8B8@DirectX@@3UXMVECTORU32@1@B DD 0ff0000H ; DirectX::g_XMMaskA8R8G8B8
	DD	0ff00H
	DD	0ffH
	DD	0ff000000H
CONST	ENDS
;	COMDAT ?g_XMNegOneMask@DirectX@@3UXMVECTORU32@1@B
CONST	SEGMENT
?g_XMNegOneMask@DirectX@@3UXMVECTORU32@1@B DD 0ffffffffH ; DirectX::g_XMNegOneMask
	DD	0ffffffffH
	DD	0ffffffffH
	DD	0ffffffffH
CONST	ENDS
;	COMDAT ?g_XMFltMax@DirectX@@3UXMVECTORI32@1@B
CONST	SEGMENT
?g_XMFltMax@DirectX@@3UXMVECTORI32@1@B DD 07f7fffffH	; DirectX::g_XMFltMax
	DD	07f7fffffH
	DD	07f7fffffH
	DD	07f7fffffH
CONST	ENDS
;	COMDAT ?g_XMFltMin@DirectX@@3UXMVECTORI32@1@B
CONST	SEGMENT
?g_XMFltMin@DirectX@@3UXMVECTORI32@1@B DD 0800000H	; DirectX::g_XMFltMin
	DD	0800000H
	DD	0800000H
	DD	0800000H
CONST	ENDS
;	COMDAT ?g_XMAbsMask@DirectX@@3UXMVECTORI32@1@B
CONST	SEGMENT
?g_XMAbsMask@DirectX@@3UXMVECTORI32@1@B DD 07fffffffH	; DirectX::g_XMAbsMask
	DD	07fffffffH
	DD	07fffffffH
	DD	07fffffffH
CONST	ENDS
;	COMDAT ?g_XMQNaNTest@DirectX@@3UXMVECTORI32@1@B
CONST	SEGMENT
?g_XMQNaNTest@DirectX@@3UXMVECTORI32@1@B DD 07fffffH	; DirectX::g_XMQNaNTest
	DD	07fffffH
	DD	07fffffH
	DD	07fffffH
CONST	ENDS
;	COMDAT ?g_XMQNaN@DirectX@@3UXMVECTORI32@1@B
CONST	SEGMENT
?g_XMQNaN@DirectX@@3UXMVECTORI32@1@B DD 07fc00000H	; DirectX::g_XMQNaN
	DD	07fc00000H
	DD	07fc00000H
	DD	07fc00000H
CONST	ENDS
;	COMDAT ?g_XMInfinity@DirectX@@3UXMVECTORI32@1@B
CONST	SEGMENT
?g_XMInfinity@DirectX@@3UXMVECTORI32@1@B DD 07f800000H	; DirectX::g_XMInfinity
	DD	07f800000H
	DD	07f800000H
	DD	07f800000H
CONST	ENDS
;	COMDAT ?g_XMEpsilon@DirectX@@3UXMVECTORF32@1@B
CONST	SEGMENT
?g_XMEpsilon@DirectX@@3UXMVECTORF32@1@B DD 034000000r ; 1.19209e-07 ; DirectX::g_XMEpsilon
	DD	034000000r			; 1.19209e-07
	DD	034000000r			; 1.19209e-07
	DD	034000000r			; 1.19209e-07
CONST	ENDS
;	COMDAT ?g_XMReciprocalTwoPi@DirectX@@3UXMVECTORF32@1@B
CONST	SEGMENT
?g_XMReciprocalTwoPi@DirectX@@3UXMVECTORF32@1@B DD 03e22f983r ; 0.159155 ; DirectX::g_XMReciprocalTwoPi
	DD	03e22f983r			; 0.159155
	DD	03e22f983r			; 0.159155
	DD	03e22f983r			; 0.159155
CONST	ENDS
;	COMDAT ?g_XMTwoPi@DirectX@@3UXMVECTORF32@1@B
CONST	SEGMENT
?g_XMTwoPi@DirectX@@3UXMVECTORF32@1@B DD 040c90fdbr ; 6.28319 ; DirectX::g_XMTwoPi
	DD	040c90fdbr			; 6.28319
	DD	040c90fdbr			; 6.28319
	DD	040c90fdbr			; 6.28319
CONST	ENDS
;	COMDAT ?g_XMReciprocalPi@DirectX@@3UXMVECTORF32@1@B
CONST	SEGMENT
?g_XMReciprocalPi@DirectX@@3UXMVECTORF32@1@B DD 03ea2f983r ; 0.31831 ; DirectX::g_XMReciprocalPi
	DD	03ea2f983r			; 0.31831
	DD	03ea2f983r			; 0.31831
	DD	03ea2f983r			; 0.31831
CONST	ENDS
;	COMDAT ?g_XMPi@DirectX@@3UXMVECTORF32@1@B
CONST	SEGMENT
?g_XMPi@DirectX@@3UXMVECTORF32@1@B DD 040490fdbr ; 3.14159 ; DirectX::g_XMPi
	DD	040490fdbr			; 3.14159
	DD	040490fdbr			; 3.14159
	DD	040490fdbr			; 3.14159
CONST	ENDS
;	COMDAT ?g_XMHalfPi@DirectX@@3UXMVECTORF32@1@B
CONST	SEGMENT
?g_XMHalfPi@DirectX@@3UXMVECTORF32@1@B DD 03fc90fdbr ; 1.5708 ; DirectX::g_XMHalfPi
	DD	03fc90fdbr			; 1.5708
	DD	03fc90fdbr			; 1.5708
	DD	03fc90fdbr			; 1.5708
CONST	ENDS
;	COMDAT ?g_XMNegativePi@DirectX@@3UXMVECTORF32@1@B
CONST	SEGMENT
?g_XMNegativePi@DirectX@@3UXMVECTORF32@1@B DD 0c0490fdbr ; -3.14159 ; DirectX::g_XMNegativePi
	DD	0c0490fdbr			; -3.14159
	DD	0c0490fdbr			; -3.14159
	DD	0c0490fdbr			; -3.14159
CONST	ENDS
;	COMDAT ?g_XMNegativeTwoPi@DirectX@@3UXMVECTORF32@1@B
CONST	SEGMENT
?g_XMNegativeTwoPi@DirectX@@3UXMVECTORF32@1@B DD 0c0c90fdbr ; -6.28319 ; DirectX::g_XMNegativeTwoPi
	DD	0c0c90fdbr			; -6.28319
	DD	0c0c90fdbr			; -6.28319
	DD	0c0c90fdbr			; -6.28319
CONST	ENDS
;	COMDAT ?g_XMNegativeOneHalf@DirectX@@3UXMVECTORF32@1@B
CONST	SEGMENT
?g_XMNegativeOneHalf@DirectX@@3UXMVECTORF32@1@B DD 0bf000000r ; -0.5 ; DirectX::g_XMNegativeOneHalf
	DD	0bf000000r			; -0.5
	DD	0bf000000r			; -0.5
	DD	0bf000000r			; -0.5
CONST	ENDS
;	COMDAT ?g_XMOneHalf@DirectX@@3UXMVECTORF32@1@B
CONST	SEGMENT
?g_XMOneHalf@DirectX@@3UXMVECTORF32@1@B DD 03f000000r ; 0.5 ; DirectX::g_XMOneHalf
	DD	03f000000r			; 0.5
	DD	03f000000r			; 0.5
	DD	03f000000r			; 0.5
CONST	ENDS
;	COMDAT ?g_XMNegativeOne@DirectX@@3UXMVECTORF32@1@B
CONST	SEGMENT
?g_XMNegativeOne@DirectX@@3UXMVECTORF32@1@B DD 0bf800000r ; -1 ; DirectX::g_XMNegativeOne
	DD	0bf800000r			; -1
	DD	0bf800000r			; -1
	DD	0bf800000r			; -1
CONST	ENDS
;	COMDAT ?g_XMSix@DirectX@@3UXMVECTORF32@1@B
CONST	SEGMENT
?g_XMSix@DirectX@@3UXMVECTORF32@1@B DD 040c00000r ; 6	; DirectX::g_XMSix
	DD	040c00000r			; 6
	DD	040c00000r			; 6
	DD	040c00000r			; 6
CONST	ENDS
;	COMDAT ?g_XMFour@DirectX@@3UXMVECTORF32@1@B
CONST	SEGMENT
?g_XMFour@DirectX@@3UXMVECTORF32@1@B DD 040800000r ; 4	; DirectX::g_XMFour
	DD	040800000r			; 4
	DD	040800000r			; 4
	DD	040800000r			; 4
CONST	ENDS
;	COMDAT ?g_XMTwo@DirectX@@3UXMVECTORF32@1@B
CONST	SEGMENT
?g_XMTwo@DirectX@@3UXMVECTORF32@1@B DD 040000000r ; 2	; DirectX::g_XMTwo
	DD	040000000r			; 2
	DD	040000000r			; 2
	DD	040000000r			; 2
CONST	ENDS
;	COMDAT ?g_XMZero@DirectX@@3UXMVECTORF32@1@B
CONST	SEGMENT
?g_XMZero@DirectX@@3UXMVECTORF32@1@B DD 000000000r ; 0	; DirectX::g_XMZero
	DD	000000000r			; 0
	DD	000000000r			; 0
	DD	000000000r			; 0
CONST	ENDS
;	COMDAT ?g_XMOne3@DirectX@@3UXMVECTORF32@1@B
CONST	SEGMENT
?g_XMOne3@DirectX@@3UXMVECTORF32@1@B DD 03f800000r ; 1	; DirectX::g_XMOne3
	DD	03f800000r			; 1
	DD	03f800000r			; 1
	DD	000000000r			; 0
CONST	ENDS
;	COMDAT ?g_XMOne@DirectX@@3UXMVECTORF32@1@B
CONST	SEGMENT
?g_XMOne@DirectX@@3UXMVECTORF32@1@B DD 03f800000r ; 1	; DirectX::g_XMOne
	DD	03f800000r			; 1
	DD	03f800000r			; 1
	DD	03f800000r			; 1
CONST	ENDS
;	COMDAT ?g_XMMaskW@DirectX@@3UXMVECTORU32@1@B
CONST	SEGMENT
?g_XMMaskW@DirectX@@3UXMVECTORU32@1@B DD 00H		; DirectX::g_XMMaskW
	DD	00H
	DD	00H
	DD	0ffffffffH
CONST	ENDS
;	COMDAT ?g_XMMaskZ@DirectX@@3UXMVECTORU32@1@B
CONST	SEGMENT
?g_XMMaskZ@DirectX@@3UXMVECTORU32@1@B DD 00H		; DirectX::g_XMMaskZ
	DD	00H
	DD	0ffffffffH
	DD	00H
CONST	ENDS
;	COMDAT ?g_XMMaskY@DirectX@@3UXMVECTORU32@1@B
CONST	SEGMENT
?g_XMMaskY@DirectX@@3UXMVECTORU32@1@B DD 00H		; DirectX::g_XMMaskY
	DD	0ffffffffH
	DD	00H
	DD	00H
CONST	ENDS
;	COMDAT ?g_XMMaskX@DirectX@@3UXMVECTORU32@1@B
CONST	SEGMENT
?g_XMMaskX@DirectX@@3UXMVECTORU32@1@B DD 0ffffffffH	; DirectX::g_XMMaskX
	DD	00H
	DD	00H
	DD	00H
CONST	ENDS
;	COMDAT ?g_XMMask3@DirectX@@3UXMVECTORU32@1@B
CONST	SEGMENT
?g_XMMask3@DirectX@@3UXMVECTORU32@1@B DD 0ffffffffH	; DirectX::g_XMMask3
	DD	0ffffffffH
	DD	0ffffffffH
	DD	00H
CONST	ENDS
;	COMDAT ?g_XMNegate3@DirectX@@3UXMVECTORU32@1@B
CONST	SEGMENT
?g_XMNegate3@DirectX@@3UXMVECTORU32@1@B DD 080000000H	; DirectX::g_XMNegate3
	DD	080000000H
	DD	080000000H
	DD	00H
CONST	ENDS
;	COMDAT ?g_XMNegativeZero@DirectX@@3UXMVECTORU32@1@B
CONST	SEGMENT
?g_XMNegativeZero@DirectX@@3UXMVECTORU32@1@B DD 080000000H ; DirectX::g_XMNegativeZero
	DD	080000000H
	DD	080000000H
	DD	080000000H
CONST	ENDS
;	COMDAT ?g_XMNegIdentityR3@DirectX@@3UXMVECTORF32@1@B
CONST	SEGMENT
?g_XMNegIdentityR3@DirectX@@3UXMVECTORF32@1@B DD 000000000r ; 0 ; DirectX::g_XMNegIdentityR3
	DD	000000000r			; 0
	DD	000000000r			; 0
	DD	0bf800000r			; -1
CONST	ENDS
;	COMDAT ?g_XMNegIdentityR2@DirectX@@3UXMVECTORF32@1@B
CONST	SEGMENT
?g_XMNegIdentityR2@DirectX@@3UXMVECTORF32@1@B DD 000000000r ; 0 ; DirectX::g_XMNegIdentityR2
	DD	000000000r			; 0
	DD	0bf800000r			; -1
	DD	000000000r			; 0
CONST	ENDS
;	COMDAT ?g_XMNegIdentityR1@DirectX@@3UXMVECTORF32@1@B
CONST	SEGMENT
?g_XMNegIdentityR1@DirectX@@3UXMVECTORF32@1@B DD 000000000r ; 0 ; DirectX::g_XMNegIdentityR1
	DD	0bf800000r			; -1
	DD	000000000r			; 0
	DD	000000000r			; 0
CONST	ENDS
;	COMDAT ?g_XMNegIdentityR0@DirectX@@3UXMVECTORF32@1@B
CONST	SEGMENT
?g_XMNegIdentityR0@DirectX@@3UXMVECTORF32@1@B DD 0bf800000r ; -1 ; DirectX::g_XMNegIdentityR0
	DD	000000000r			; 0
	DD	000000000r			; 0
	DD	000000000r			; 0
CONST	ENDS
;	COMDAT ?g_XMIdentityR3@DirectX@@3UXMVECTORF32@1@B
CONST	SEGMENT
?g_XMIdentityR3@DirectX@@3UXMVECTORF32@1@B DD 000000000r ; 0 ; DirectX::g_XMIdentityR3
	DD	000000000r			; 0
	DD	000000000r			; 0
	DD	03f800000r			; 1
CONST	ENDS
;	COMDAT ?g_XMIdentityR2@DirectX@@3UXMVECTORF32@1@B
CONST	SEGMENT
?g_XMIdentityR2@DirectX@@3UXMVECTORF32@1@B DD 000000000r ; 0 ; DirectX::g_XMIdentityR2
	DD	000000000r			; 0
	DD	03f800000r			; 1
	DD	000000000r			; 0
CONST	ENDS
;	COMDAT ?g_XMIdentityR1@DirectX@@3UXMVECTORF32@1@B
CONST	SEGMENT
?g_XMIdentityR1@DirectX@@3UXMVECTORF32@1@B DD 000000000r ; 0 ; DirectX::g_XMIdentityR1
	DD	03f800000r			; 1
	DD	000000000r			; 0
	DD	000000000r			; 0
CONST	ENDS
;	COMDAT ?g_XMIdentityR0@DirectX@@3UXMVECTORF32@1@B
CONST	SEGMENT
?g_XMIdentityR0@DirectX@@3UXMVECTORF32@1@B DD 03f800000r ; 1 ; DirectX::g_XMIdentityR0
	DD	000000000r			; 0
	DD	000000000r			; 0
	DD	000000000r			; 0
CONST	ENDS
;	COMDAT ?g_XMPiConstants0@DirectX@@3UXMVECTORF32@1@B
CONST	SEGMENT
?g_XMPiConstants0@DirectX@@3UXMVECTORF32@1@B DD 040490fdbr ; 3.14159 ; DirectX::g_XMPiConstants0
	DD	040c90fdbr			; 6.28319
	DD	03ea2f983r			; 0.31831
	DD	03e22f983r			; 0.159155
CONST	ENDS
;	COMDAT ?g_XMArcEstCoefficients@DirectX@@3UXMVECTORF32@1@B
CONST	SEGMENT
?g_XMArcEstCoefficients@DirectX@@3UXMVECTORF32@1@B DD 03fc90da4r ; 1.57073 ; DirectX::g_XMArcEstCoefficients
	DD	0be593484r			; -0.212114
	DD	03d981627r			; 0.074261
	DD	0bc996e30r			; -0.0187293
CONST	ENDS
;	COMDAT ?g_XMTanEstCoefficients@DirectX@@3UXMVECTORF32@1@B
CONST	SEGMENT
?g_XMTanEstCoefficients@DirectX@@3UXMVECTORF32@1@B DD 0401ef9dbr ; 2.484 ; DirectX::g_XMTanEstCoefficients
	DD	0be482f23r			; -0.195492
	DD	0401de9e6r			; 2.4674
	DD	03ea2f983r			; 0.31831
CONST	ENDS
;	COMDAT ?g_XMATanEstCoefficients1@DirectX@@3UXMVECTORF32@1@B
CONST	SEGMENT
?g_XMATanEstCoefficients1@DirectX@@3UXMVECTORF32@1@B DD 0bea91d04r ; -0.330299 ; DirectX::g_XMATanEstCoefficients1
	DD	03e3876e2r			; 0.180141
	DD	0bdae5a36r			; -0.085133
	DD	03caaae5fr			; 0.0208351
CONST	ENDS
;	COMDAT ?g_XMATanEstCoefficients0@DirectX@@3UXMVECTORF32@1@B
CONST	SEGMENT
?g_XMATanEstCoefficients0@DirectX@@3UXMVECTORF32@1@B DD 03f7ff738r ; 0.999866 ; DirectX::g_XMATanEstCoefficients0
	DD	03f7ff738r			; 0.999866
	DD	03f7ff738r			; 0.999866
	DD	03f7ff738r			; 0.999866
CONST	ENDS
;	COMDAT ?g_XMATanCoefficients1@DirectX@@3UXMVECTORF32@1@B
CONST	SEGMENT
?g_XMATanCoefficients1@DirectX@@3UXMVECTORF32@1@B DD 0bd9a3174r ; -0.0752896 ; DirectX::g_XMATanCoefficients1
	DD	03d2fc1fer			; 0.0429096
	DD	0bc846e02r			; -0.0161657
	DD	03b3bd74ar			; 0.00286623
CONST	ENDS
;	COMDAT ?g_XMATanCoefficients0@DirectX@@3UXMVECTORF32@1@B
CONST	SEGMENT
?g_XMATanCoefficients0@DirectX@@3UXMVECTORF32@1@B DD 0beaaaa6cr ; -0.333331 ; DirectX::g_XMATanCoefficients0
	DD	03e4cbbe5r			; 0.199936
	DD	0be117fc7r			; -0.142089
	DD	03dda3d83r			; 0.106563
CONST	ENDS
;	COMDAT ?g_XMArcCoefficients1@DirectX@@3UXMVECTORF32@1@B
CONST	SEGMENT
?g_XMArcCoefficients1@DirectX@@3UXMVECTORF32@1@B DD 03cfd10f8r ; 0.0308919 ; DirectX::g_XMArcCoefficients1
	DD	0bc8bfc66r			; -0.0170881
	DD	03bda90c5r			; 0.00667009
	DD	0baa57a2cr			; -0.00126249
CONST	ENDS
;	COMDAT ?g_XMArcCoefficients0@DirectX@@3UXMVECTORF32@1@B
CONST	SEGMENT
?g_XMArcCoefficients0@DirectX@@3UXMVECTORF32@1@B DD 03fc90fdar ; 1.5708 ; DirectX::g_XMArcCoefficients0
	DD	0be5bbfcar			; -0.214599
	DD	03db63a9er			; 0.088979
	DD	0bd4d8392r			; -0.0501743
CONST	ENDS
;	COMDAT ?g_XMTanCoefficients2@DirectX@@3UXMVECTORF32@1@B
CONST	SEGMENT
?g_XMTanCoefficients2@DirectX@@3UXMVECTORF32@1@B DD 03a1aac12r ; 0.000590027 ; DirectX::g_XMTanCoefficients2
	DD	0397abeb9r			; 0.000239129
	DD	038cb3f0cr			; 9.69154e-05
	DD	03824bec9r			; 3.92783e-05
CONST	ENDS
;	COMDAT ?g_XMTanCoefficients1@DirectX@@3UXMVECTORF32@1@B
CONST	SEGMENT
?g_XMTanCoefficients1@DirectX@@3UXMVECTORF32@1@B DD 03cb327a4r ; 0.0218695 ; DirectX::g_XMTanCoefficients1
	DD	03c11371br			; 0.00886324
	DD	03b6b69e9r			; 0.00359213
	DD	03abed1b3r			; 0.00145583
CONST	ENDS
;	COMDAT ?g_XMTanCoefficients0@DirectX@@3UXMVECTORF32@1@B
CONST	SEGMENT
?g_XMTanCoefficients0@DirectX@@3UXMVECTORF32@1@B DD 03f800000r ; 1 ; DirectX::g_XMTanCoefficients0
	DD	03eaaaaabr			; 0.333333
	DD	03e088889r			; 0.133333
	DD	03d5d0dd1r			; 0.0539683
CONST	ENDS
;	COMDAT ?g_XMCosCoefficients1@DirectX@@3UXMVECTORF32@1@B
CONST	SEGMENT
?g_XMCosCoefficients1@DirectX@@3UXMVECTORF32@1@B DD 0b48bdd11r ; -2.60516e-07 ; DirectX::g_XMCosCoefficients1
	DD	0befff67er			; -0.499927
	DD	03d29f587r			; 0.0414939
	DD	0baa69fdbr			; -0.00127124
CONST	ENDS
;	COMDAT ?g_XMCosCoefficients0@DirectX@@3UXMVECTORF32@1@B
CONST	SEGMENT
?g_XMCosCoefficients0@DirectX@@3UXMVECTORF32@1@B DD 0bf000000r ; -0.5 ; DirectX::g_XMCosCoefficients0
	DD	03d2aaaa3r			; 0.0416666
	DD	0bab609aar			; -0.00138884
	DD	037cfb4c2r			; 2.47605e-05
CONST	ENDS
;	COMDAT ?g_XMSinCoefficients1@DirectX@@3UXMVECTORF32@1@B
CONST	SEGMENT
?g_XMSinCoefficients1@DirectX@@3UXMVECTORF32@1@B DD 0b2cd365br ; -2.38899e-08 ; DirectX::g_XMSinCoefficients1
	DD	0be2aa888r			; -0.166659
	DD	03c08373cr			; 0.00831395
	DD	0b9423ec8r			; -0.000185247
CONST	ENDS
;	COMDAT ?g_XMSinCoefficients0@DirectX@@3UXMVECTORF32@1@B
CONST	SEGMENT
?g_XMSinCoefficients0@DirectX@@3UXMVECTORF32@1@B DD 0be2aaaabr ; -0.166667 ; DirectX::g_XMSinCoefficients0
	DD	03c088886r			; 0.00833333
	DD	0b9500bf1r			; -0.000198409
	DD	03638b88er			; 2.75256e-06
CONST	ENDS
;	COMDAT ?g_UnitPlaneEpsilon@Internal@DirectX@@3UXMVECTORF32@2@B
CONST	SEGMENT
?g_UnitPlaneEpsilon@Internal@DirectX@@3UXMVECTORF32@2@B DD 038d1b717r ; 0.0001 ; DirectX::Internal::g_UnitPlaneEpsilon
	DD	038d1b717r			; 0.0001
	DD	038d1b717r			; 0.0001
	DD	038d1b717r			; 0.0001
CONST	ENDS
;	COMDAT ?g_UnitQuaternionEpsilon@Internal@DirectX@@3UXMVECTORF32@2@B
CONST	SEGMENT
?g_UnitQuaternionEpsilon@Internal@DirectX@@3UXMVECTORF32@2@B DD 038d1b717r ; 0.0001 ; DirectX::Internal::g_UnitQuaternionEpsilon
	DD	038d1b717r			; 0.0001
	DD	038d1b717r			; 0.0001
	DD	038d1b717r			; 0.0001
CONST	ENDS
;	COMDAT ?g_UnitVectorEpsilon@Internal@DirectX@@3UXMVECTORF32@2@B
CONST	SEGMENT
?g_UnitVectorEpsilon@Internal@DirectX@@3UXMVECTORF32@2@B DD 038d1b717r ; 0.0001 ; DirectX::Internal::g_UnitVectorEpsilon
	DD	038d1b717r			; 0.0001
	DD	038d1b717r			; 0.0001
	DD	038d1b717r			; 0.0001
CONST	ENDS
;	COMDAT ?YellowGreen@Colors@DirectX@@3UXMVECTORF32@2@B
CONST	SEGMENT
?YellowGreen@Colors@DirectX@@3UXMVECTORF32@2@B DD 03f1a9a9br ; 0.603922 ; DirectX::Colors::YellowGreen
	DD	03f4dcdcfr			; 0.803922
	DD	03e48c8car			; 0.196078
	DD	03f800000r			; 1
CONST	ENDS
;	COMDAT ?Yellow@Colors@DirectX@@3UXMVECTORF32@2@B
CONST	SEGMENT
?Yellow@Colors@DirectX@@3UXMVECTORF32@2@B DD 03f800000r ; 1 ; DirectX::Colors::Yellow
	DD	03f800000r			; 1
	DD	000000000r			; 0
	DD	03f800000r			; 1
CONST	ENDS
;	COMDAT ?WhiteSmoke@Colors@DirectX@@3UXMVECTORF32@2@B
CONST	SEGMENT
?WhiteSmoke@Colors@DirectX@@3UXMVECTORF32@2@B DD 03f75f5f7r ; 0.960784 ; DirectX::Colors::WhiteSmoke
	DD	03f75f5f7r			; 0.960784
	DD	03f75f5f7r			; 0.960784
	DD	03f800000r			; 1
CONST	ENDS
;	COMDAT ?White@Colors@DirectX@@3UXMVECTORF32@2@B
CONST	SEGMENT
?White@Colors@DirectX@@3UXMVECTORF32@2@B DD 03f800000r ; 1 ; DirectX::Colors::White
	DD	03f800000r			; 1
	DD	03f800000r			; 1
	DD	03f800000r			; 1
CONST	ENDS
;	COMDAT ?Wheat@Colors@DirectX@@3UXMVECTORF32@2@B
CONST	SEGMENT
?Wheat@Colors@DirectX@@3UXMVECTORF32@2@B DD 03f75f5f7r ; 0.960784 ; DirectX::Colors::Wheat
	DD	03f5edee0r			; 0.870588
	DD	03f33b3b4r			; 0.701961
	DD	03f800000r			; 1
CONST	ENDS
;	COMDAT ?Violet@Colors@DirectX@@3UXMVECTORF32@2@B
CONST	SEGMENT
?Violet@Colors@DirectX@@3UXMVECTORF32@2@B DD 03f6eeef0r ; 0.933333 ; DirectX::Colors::Violet
	DD	03f028283r			; 0.509804
	DD	03f6eeef0r			; 0.933333
	DD	03f800000r			; 1
CONST	ENDS
;	COMDAT ?Turquoise@Colors@DirectX@@3UXMVECTORF32@2@B
CONST	SEGMENT
?Turquoise@Colors@DirectX@@3UXMVECTORF32@2@B DD 03e808081r ; 0.25098 ; DirectX::Colors::Turquoise
	DD	03f60e0e2r			; 0.878431
	DD	03f50d0d2r			; 0.815686
	DD	03f800000r			; 1
CONST	ENDS
;	COMDAT ?Transparent@Colors@DirectX@@3UXMVECTORF32@2@B
CONST	SEGMENT
?Transparent@Colors@DirectX@@3UXMVECTORF32@2@B DD 000000000r ; 0 ; DirectX::Colors::Transparent
	DD	000000000r			; 0
	DD	000000000r			; 0
	DD	000000000r			; 0
CONST	ENDS
;	COMDAT ?Tomato@Colors@DirectX@@3UXMVECTORF32@2@B
CONST	SEGMENT
?Tomato@Colors@DirectX@@3UXMVECTORF32@2@B DD 03f800000r ; 1 ; DirectX::Colors::Tomato
	DD	03ec6c6c8r			; 0.388235
	DD	03e8e8e8fr			; 0.278431
	DD	03f800000r			; 1
CONST	ENDS
;	COMDAT ?Thistle@Colors@DirectX@@3UXMVECTORF32@2@B
CONST	SEGMENT
?Thistle@Colors@DirectX@@3UXMVECTORF32@2@B DD 03f58d8dar ; 0.847059 ; DirectX::Colors::Thistle
	DD	03f3fbfc0r			; 0.74902
	DD	03f58d8dar			; 0.847059
	DD	03f800000r			; 1
CONST	ENDS
;	COMDAT ?Teal@Colors@DirectX@@3UXMVECTORF32@2@B
CONST	SEGMENT
?Teal@Colors@DirectX@@3UXMVECTORF32@2@B DD 000000000r ; 0 ; DirectX::Colors::Teal
	DD	03f008081r			; 0.501961
	DD	03f008081r			; 0.501961
	DD	03f800000r			; 1
CONST	ENDS
;	COMDAT ?Tan@Colors@DirectX@@3UXMVECTORF32@2@B
CONST	SEGMENT
?Tan@Colors@DirectX@@3UXMVECTORF32@2@B DD 03f52d2d4r ; 0.823529 ; DirectX::Colors::Tan
	DD	03f34b4b5r			; 0.705882
	DD	03f0c8c8dr			; 0.54902
	DD	03f800000r			; 1
CONST	ENDS
;	COMDAT ?SteelBlue@Colors@DirectX@@3UXMVECTORF32@2@B
CONST	SEGMENT
?SteelBlue@Colors@DirectX@@3UXMVECTORF32@2@B DD 03e8c8c8dr ; 0.27451 ; DirectX::Colors::SteelBlue
	DD	03f028283r			; 0.509804
	DD	03f34b4b5r			; 0.705882
	DD	03f800000r			; 1
CONST	ENDS
;	COMDAT ?SpringGreen@Colors@DirectX@@3UXMVECTORF32@2@B
CONST	SEGMENT
?SpringGreen@Colors@DirectX@@3UXMVECTORF32@2@B DD 000000000r ; 0 ; DirectX::Colors::SpringGreen
	DD	03f800000r			; 1
	DD	03efeff00r			; 0.498039
	DD	03f800000r			; 1
CONST	ENDS
;	COMDAT ?Snow@Colors@DirectX@@3UXMVECTORF32@2@B
CONST	SEGMENT
?Snow@Colors@DirectX@@3UXMVECTORF32@2@B DD 03f800000r ; 1 ; DirectX::Colors::Snow
	DD	03f7afafcr			; 0.980392
	DD	03f7afafcr			; 0.980392
	DD	03f800000r			; 1
CONST	ENDS
;	COMDAT ?g_FltMax@DirectX@@3UXMVECTORF32@1@B
CONST	SEGMENT
?g_FltMax@DirectX@@3UXMVECTORF32@1@B DD 07f7fffffr ; 3.40282e+38 ; DirectX::g_FltMax
	DD	07f7fffffr			; 3.40282e+38
	DD	07f7fffffr			; 3.40282e+38
	DD	07f7fffffr			; 3.40282e+38
CONST	ENDS
;	COMDAT ?SlateGray@Colors@DirectX@@3UXMVECTORF32@2@B
CONST	SEGMENT
?SlateGray@Colors@DirectX@@3UXMVECTORF32@2@B DD 03ee0e0e2r ; 0.439216 ; DirectX::Colors::SlateGray
	DD	03f008081r			; 0.501961
	DD	03f109091r			; 0.564706
	DD	03f800000r			; 1
CONST	ENDS
;	COMDAT ?g_FltMin@DirectX@@3UXMVECTORF32@1@B
CONST	SEGMENT
?g_FltMin@DirectX@@3UXMVECTORF32@1@B DD 0ff7fffffr ; -3.40282e+38 ; DirectX::g_FltMin
	DD	0ff7fffffr			; -3.40282e+38
	DD	0ff7fffffr			; -3.40282e+38
	DD	0ff7fffffr			; -3.40282e+38
CONST	ENDS
;	COMDAT ?SlateBlue@Colors@DirectX@@3UXMVECTORF32@2@B
CONST	SEGMENT
?SlateBlue@Colors@DirectX@@3UXMVECTORF32@2@B DD 03ed4d4d6r ; 0.415686 ; DirectX::Colors::SlateBlue
	DD	03eb4b4b5r			; 0.352941
	DD	03f4dcdcfr			; 0.803922
	DD	03f800000r			; 1
CONST	ENDS
;	COMDAT ?g_RayNegEpsilon@DirectX@@3UXMVECTORF32@1@B
CONST	SEGMENT
?g_RayNegEpsilon@DirectX@@3UXMVECTORF32@1@B DD 09e3ce508r ; -1e-20 ; DirectX::g_RayNegEpsilon
	DD	09e3ce508r			; -1e-20
	DD	09e3ce508r			; -1e-20
	DD	09e3ce508r			; -1e-20
CONST	ENDS
;	COMDAT ?SkyBlue@Colors@DirectX@@3UXMVECTORF32@2@B
CONST	SEGMENT
?SkyBlue@Colors@DirectX@@3UXMVECTORF32@2@B DD 03f078788r ; 0.529412 ; DirectX::Colors::SkyBlue
	DD	03f4eced0r			; 0.807843
	DD	03f6bebedr			; 0.921569
	DD	03f800000r			; 1
CONST	ENDS
;	COMDAT ?g_RayEpsilon@DirectX@@3UXMVECTORF32@1@B
CONST	SEGMENT
?g_RayEpsilon@DirectX@@3UXMVECTORF32@1@B DD 01e3ce508r ; 1e-20 ; DirectX::g_RayEpsilon
	DD	01e3ce508r			; 1e-20
	DD	01e3ce508r			; 1e-20
	DD	01e3ce508r			; 1e-20
CONST	ENDS
;	COMDAT ?Silver@Colors@DirectX@@3UXMVECTORF32@2@B
CONST	SEGMENT
?Silver@Colors@DirectX@@3UXMVECTORF32@2@B DD 03f40c0c2r ; 0.752941 ; DirectX::Colors::Silver
	DD	03f40c0c2r			; 0.752941
	DD	03f40c0c2r			; 0.752941
	DD	03f800000r			; 1
CONST	ENDS
;	COMDAT ?g_BoxOffset@DirectX@@3QBUXMVECTORF32@1@B
CONST	SEGMENT
?g_BoxOffset@DirectX@@3QBUXMVECTORF32@1@B DD 0bf800000r ; -1 ; DirectX::g_BoxOffset
	DD	0bf800000r			; -1
	DD	03f800000r			; 1
	DD	000000000r			; 0
	DD	03f800000r			; 1
	DD	0bf800000r			; -1
	DD	03f800000r			; 1
	DD	000000000r			; 0
	DD	03f800000r			; 1
	DD	03f800000r			; 1
	DD	03f800000r			; 1
	DD	000000000r			; 0
	DD	0bf800000r			; -1
	DD	03f800000r			; 1
	DD	03f800000r			; 1
	DD	000000000r			; 0
	DD	0bf800000r			; -1
	DD	0bf800000r			; -1
	DD	0bf800000r			; -1
	DD	000000000r			; 0
	DD	03f800000r			; 1
	DD	0bf800000r			; -1
	DD	0bf800000r			; -1
	DD	000000000r			; 0
	DD	03f800000r			; 1
	DD	03f800000r			; 1
	DD	0bf800000r			; -1
	DD	000000000r			; 0
	DD	0bf800000r			; -1
	DD	03f800000r			; 1
	DD	0bf800000r			; -1
	DD	000000000r			; 0
CONST	ENDS
;	COMDAT ?Sienna@Colors@DirectX@@3UXMVECTORF32@2@B
CONST	SEGMENT
?Sienna@Colors@DirectX@@3UXMVECTORF32@2@B DD 03f20a0a1r ; 0.627451 ; DirectX::Colors::Sienna
	DD	03ea4a4a5r			; 0.321569
	DD	03e34b4b5r			; 0.176471
	DD	03f800000r			; 1
CONST	ENDS
;	COMDAT ?SeaShell@Colors@DirectX@@3UXMVECTORF32@2@B
CONST	SEGMENT
?SeaShell@Colors@DirectX@@3UXMVECTORF32@2@B DD 03f800000r ; 1 ; DirectX::Colors::SeaShell
	DD	03f75f5f7r			; 0.960784
	DD	03f6eeef0r			; 0.933333
	DD	03f800000r			; 1
CONST	ENDS
;	COMDAT ?SeaGreen@Colors@DirectX@@3UXMVECTORF32@2@B
CONST	SEGMENT
?SeaGreen@Colors@DirectX@@3UXMVECTORF32@2@B DD 03e38b8b9r ; 0.180392 ; DirectX::Colors::SeaGreen
	DD	03f0b8b8cr			; 0.545098
	DD	03eaeaeafr			; 0.341176
	DD	03f800000r			; 1
CONST	ENDS
;	COMDAT ?SandyBrown@Colors@DirectX@@3UXMVECTORF32@2@B
CONST	SEGMENT
?SandyBrown@Colors@DirectX@@3UXMVECTORF32@2@B DD 03f74f4f6r ; 0.956863 ; DirectX::Colors::SandyBrown
	DD	03f24a4a5r			; 0.643137
	DD	03ec0c0c2r			; 0.376471
	DD	03f800000r			; 1
CONST	ENDS
;	COMDAT ?Salmon@Colors@DirectX@@3UXMVECTORF32@2@B
CONST	SEGMENT
?Salmon@Colors@DirectX@@3UXMVECTORF32@2@B DD 03f7afafcr ; 0.980392 ; DirectX::Colors::Salmon
	DD	03f008081r			; 0.501961
	DD	03ee4e4e6r			; 0.447059
	DD	03f800000r			; 1
CONST	ENDS
;	COMDAT ?SaddleBrown@Colors@DirectX@@3UXMVECTORF32@2@B
CONST	SEGMENT
?SaddleBrown@Colors@DirectX@@3UXMVECTORF32@2@B DD 03f0b8b8cr ; 0.545098 ; DirectX::Colors::SaddleBrown
	DD	03e8a8a8br			; 0.270588
	DD	03d989899r			; 0.0745098
	DD	03f800000r			; 1
CONST	ENDS
;	COMDAT ?RoyalBlue@Colors@DirectX@@3UXMVECTORF32@2@B
CONST	SEGMENT
?RoyalBlue@Colors@DirectX@@3UXMVECTORF32@2@B DD 03e828283r ; 0.254902 ; DirectX::Colors::RoyalBlue
	DD	03ed2d2d4r			; 0.411765
	DD	03f61e1e3r			; 0.882353
	DD	03f800000r			; 1
CONST	ENDS
;	COMDAT ?RosyBrown@Colors@DirectX@@3UXMVECTORF32@2@B
CONST	SEGMENT
?RosyBrown@Colors@DirectX@@3UXMVECTORF32@2@B DD 03f3cbcbdr ; 0.737255 ; DirectX::Colors::RosyBrown
	DD	03f0f8f90r			; 0.560784
	DD	03f0f8f90r			; 0.560784
	DD	03f800000r			; 1
CONST	ENDS
;	COMDAT ?Red@Colors@DirectX@@3UXMVECTORF32@2@B
CONST	SEGMENT
?Red@Colors@DirectX@@3UXMVECTORF32@2@B DD 03f800000r ; 1 ; DirectX::Colors::Red
	DD	000000000r			; 0
	DD	000000000r			; 0
	DD	03f800000r			; 1
CONST	ENDS
;	COMDAT ?Purple@Colors@DirectX@@3UXMVECTORF32@2@B
CONST	SEGMENT
?Purple@Colors@DirectX@@3UXMVECTORF32@2@B DD 03f008081r ; 0.501961 ; DirectX::Colors::Purple
	DD	000000000r			; 0
	DD	03f008081r			; 0.501961
	DD	03f800000r			; 1
CONST	ENDS
;	COMDAT ?PowderBlue@Colors@DirectX@@3UXMVECTORF32@2@B
CONST	SEGMENT
?PowderBlue@Colors@DirectX@@3UXMVECTORF32@2@B DD 03f30b0b1r ; 0.690196 ; DirectX::Colors::PowderBlue
	DD	03f60e0e2r			; 0.878431
	DD	03f66e6e8r			; 0.901961
	DD	03f800000r			; 1
CONST	ENDS
;	COMDAT ?Plum@Colors@DirectX@@3UXMVECTORF32@2@B
CONST	SEGMENT
?Plum@Colors@DirectX@@3UXMVECTORF32@2@B DD 03f5ddddfr ; 0.866667 ; DirectX::Colors::Plum
	DD	03f20a0a1r			; 0.627451
	DD	03f5ddddfr			; 0.866667
	DD	03f800000r			; 1
CONST	ENDS
;	COMDAT ?Pink@Colors@DirectX@@3UXMVECTORF32@2@B
CONST	SEGMENT
?Pink@Colors@DirectX@@3UXMVECTORF32@2@B DD 03f800000r ; 1 ; DirectX::Colors::Pink
	DD	03f40c0c2r			; 0.752941
	DD	03f4bcbcdr			; 0.796079
	DD	03f800000r			; 1
CONST	ENDS
;	COMDAT ?Peru@Colors@DirectX@@3UXMVECTORF32@2@B
CONST	SEGMENT
?Peru@Colors@DirectX@@3UXMVECTORF32@2@B DD 03f4dcdcfr ; 0.803922 ; DirectX::Colors::Peru
	DD	03f058586r			; 0.521569
	DD	03e7cfcfer			; 0.247059
	DD	03f800000r			; 1
CONST	ENDS
;	COMDAT ?PeachPuff@Colors@DirectX@@3UXMVECTORF32@2@B
CONST	SEGMENT
?PeachPuff@Colors@DirectX@@3UXMVECTORF32@2@B DD 03f800000r ; 1 ; DirectX::Colors::PeachPuff
	DD	03f5adadcr			; 0.854902
	DD	03f39b9bar			; 0.72549
	DD	03f800000r			; 1
CONST	ENDS
;	COMDAT ?PapayaWhip@Colors@DirectX@@3UXMVECTORF32@2@B
CONST	SEGMENT
?PapayaWhip@Colors@DirectX@@3UXMVECTORF32@2@B DD 03f800000r ; 1 ; DirectX::Colors::PapayaWhip
	DD	03f6feff1r			; 0.937255
	DD	03f55d5d7r			; 0.835294
	DD	03f800000r			; 1
CONST	ENDS
;	COMDAT ?PaleVioletRed@Colors@DirectX@@3UXMVECTORF32@2@B
CONST	SEGMENT
?PaleVioletRed@Colors@DirectX@@3UXMVECTORF32@2@B DD 03f5bdbddr ; 0.858824 ; DirectX::Colors::PaleVioletRed
	DD	03ee0e0e2r			; 0.439216
	DD	03f139394r			; 0.576471
	DD	03f800000r			; 1
CONST	ENDS
;	COMDAT ?PaleTurquoise@Colors@DirectX@@3UXMVECTORF32@2@B
CONST	SEGMENT
?PaleTurquoise@Colors@DirectX@@3UXMVECTORF32@2@B DD 03f2fafb0r ; 0.686275 ; DirectX::Colors::PaleTurquoise
	DD	03f6eeef0r			; 0.933333
	DD	03f6eeef0r			; 0.933333
	DD	03f800000r			; 1
CONST	ENDS
;	COMDAT ?PaleGreen@Colors@DirectX@@3UXMVECTORF32@2@B
CONST	SEGMENT
?PaleGreen@Colors@DirectX@@3UXMVECTORF32@2@B DD 03f189899r ; 0.596078 ; DirectX::Colors::PaleGreen
	DD	03f7bfbfdr			; 0.984314
	DD	03f189899r			; 0.596078
	DD	03f800000r			; 1
CONST	ENDS
;	COMDAT ?PaleGoldenrod@Colors@DirectX@@3UXMVECTORF32@2@B
CONST	SEGMENT
?PaleGoldenrod@Colors@DirectX@@3UXMVECTORF32@2@B DD 03f6eeef0r ; 0.933333 ; DirectX::Colors::PaleGoldenrod
	DD	03f68e8ear			; 0.909804
	DD	03f2aaaabr			; 0.666667
	DD	03f800000r			; 1
CONST	ENDS
;	COMDAT ?Orchid@Colors@DirectX@@3UXMVECTORF32@2@B
CONST	SEGMENT
?Orchid@Colors@DirectX@@3UXMVECTORF32@2@B DD 03f5adadcr ; 0.854902 ; DirectX::Colors::Orchid
	DD	03ee0e0e2r			; 0.439216
	DD	03f56d6d8r			; 0.839216
	DD	03f800000r			; 1
CONST	ENDS
;	COMDAT ?OrangeRed@Colors@DirectX@@3UXMVECTORF32@2@B
CONST	SEGMENT
?OrangeRed@Colors@DirectX@@3UXMVECTORF32@2@B DD 03f800000r ; 1 ; DirectX::Colors::OrangeRed
	DD	03e8a8a8br			; 0.270588
	DD	000000000r			; 0
	DD	03f800000r			; 1
CONST	ENDS
;	COMDAT ?Orange@Colors@DirectX@@3UXMVECTORF32@2@B
CONST	SEGMENT
?Orange@Colors@DirectX@@3UXMVECTORF32@2@B DD 03f800000r ; 1 ; DirectX::Colors::Orange
	DD	03f25a5a6r			; 0.647059
	DD	000000000r			; 0
	DD	03f800000r			; 1
CONST	ENDS
;	COMDAT ?OliveDrab@Colors@DirectX@@3UXMVECTORF32@2@B
CONST	SEGMENT
?OliveDrab@Colors@DirectX@@3UXMVECTORF32@2@B DD 03ed6d6d8r ; 0.419608 ; DirectX::Colors::OliveDrab
	DD	03f0e8e8fr			; 0.556863
	DD	03e0c8c8dr			; 0.137255
	DD	03f800000r			; 1
CONST	ENDS
;	COMDAT ?Olive@Colors@DirectX@@3UXMVECTORF32@2@B
CONST	SEGMENT
?Olive@Colors@DirectX@@3UXMVECTORF32@2@B DD 03f008081r ; 0.501961 ; DirectX::Colors::Olive
	DD	03f008081r			; 0.501961
	DD	000000000r			; 0
	DD	03f800000r			; 1
CONST	ENDS
;	COMDAT ?OldLace@Colors@DirectX@@3UXMVECTORF32@2@B
CONST	SEGMENT
?OldLace@Colors@DirectX@@3UXMVECTORF32@2@B DD 03f7dfdffr ; 0.992157 ; DirectX::Colors::OldLace
	DD	03f75f5f7r			; 0.960784
	DD	03f66e6e8r			; 0.901961
	DD	03f800000r			; 1
CONST	ENDS
;	COMDAT ?Navy@Colors@DirectX@@3UXMVECTORF32@2@B
CONST	SEGMENT
?Navy@Colors@DirectX@@3UXMVECTORF32@2@B DD 000000000r ; 0 ; DirectX::Colors::Navy
	DD	000000000r			; 0
	DD	03f008081r			; 0.501961
	DD	03f800000r			; 1
CONST	ENDS
;	COMDAT ?NavajoWhite@Colors@DirectX@@3UXMVECTORF32@2@B
CONST	SEGMENT
?NavajoWhite@Colors@DirectX@@3UXMVECTORF32@2@B DD 03f800000r ; 1 ; DirectX::Colors::NavajoWhite
	DD	03f5edee0r			; 0.870588
	DD	03f2dadaer			; 0.678431
	DD	03f800000r			; 1
CONST	ENDS
;	COMDAT ?Moccasin@Colors@DirectX@@3UXMVECTORF32@2@B
CONST	SEGMENT
?Moccasin@Colors@DirectX@@3UXMVECTORF32@2@B DD 03f800000r ; 1 ; DirectX::Colors::Moccasin
	DD	03f64e4e6r			; 0.894118
	DD	03f35b5b6r			; 0.709804
	DD	03f800000r			; 1
CONST	ENDS
;	COMDAT ?MistyRose@Colors@DirectX@@3UXMVECTORF32@2@B
CONST	SEGMENT
?MistyRose@Colors@DirectX@@3UXMVECTORF32@2@B DD 03f800000r ; 1 ; DirectX::Colors::MistyRose
	DD	03f64e4e6r			; 0.894118
	DD	03f61e1e3r			; 0.882353
	DD	03f800000r			; 1
CONST	ENDS
;	COMDAT ?MintCream@Colors@DirectX@@3UXMVECTORF32@2@B
CONST	SEGMENT
?MintCream@Colors@DirectX@@3UXMVECTORF32@2@B DD 03f75f5f7r ; 0.960784 ; DirectX::Colors::MintCream
	DD	03f800000r			; 1
	DD	03f7afafcr			; 0.980392
	DD	03f800000r			; 1
CONST	ENDS
;	COMDAT ?MidnightBlue@Colors@DirectX@@3UXMVECTORF32@2@B
CONST	SEGMENT
?MidnightBlue@Colors@DirectX@@3UXMVECTORF32@2@B DD 03dc8c8car ; 0.0980392 ; DirectX::Colors::MidnightBlue
	DD	03dc8c8car			; 0.0980392
	DD	03ee0e0e2r			; 0.439216
	DD	03f800000r			; 1
CONST	ENDS
;	COMDAT ?MediumVioletRed@Colors@DirectX@@3UXMVECTORF32@2@B
CONST	SEGMENT
?MediumVioletRed@Colors@DirectX@@3UXMVECTORF32@2@B DD 03f47c7c9r ; 0.780392 ; DirectX::Colors::MediumVioletRed
	DD	03da8a8a9r			; 0.0823529
	DD	03f058586r			; 0.521569
	DD	03f800000r			; 1
CONST	ENDS
;	COMDAT ?MediumTurquoise@Colors@DirectX@@3UXMVECTORF32@2@B
CONST	SEGMENT
?MediumTurquoise@Colors@DirectX@@3UXMVECTORF32@2@B DD 03e909091r ; 0.282353 ; DirectX::Colors::MediumTurquoise
	DD	03f51d1d3r			; 0.819608
	DD	03f4ccccer			; 0.8
	DD	03f800000r			; 1
CONST	ENDS
;	COMDAT ?MediumSpringGreen@Colors@DirectX@@3UXMVECTORF32@2@B
CONST	SEGMENT
?MediumSpringGreen@Colors@DirectX@@3UXMVECTORF32@2@B DD 000000000r ; 0 ; DirectX::Colors::MediumSpringGreen
	DD	03f7afafcr			; 0.980392
	DD	03f1a9a9br			; 0.603922
	DD	03f800000r			; 1
CONST	ENDS
;	COMDAT ?MediumSlateBlue@Colors@DirectX@@3UXMVECTORF32@2@B
CONST	SEGMENT
?MediumSlateBlue@Colors@DirectX@@3UXMVECTORF32@2@B DD 03ef6f6f8r ; 0.482353 ; DirectX::Colors::MediumSlateBlue
	DD	03ed0d0d2r			; 0.407843
	DD	03f6eeef0r			; 0.933333
	DD	03f800000r			; 1
CONST	ENDS
;	COMDAT ?MediumSeaGreen@Colors@DirectX@@3UXMVECTORF32@2@B
CONST	SEGMENT
?MediumSeaGreen@Colors@DirectX@@3UXMVECTORF32@2@B DD 03e70f0f2r ; 0.235294 ; DirectX::Colors::MediumSeaGreen
	DD	03f33b3b4r			; 0.701961
	DD	03ee2e2e4r			; 0.443137
	DD	03f800000r			; 1
CONST	ENDS
;	COMDAT ?MediumPurple@Colors@DirectX@@3UXMVECTORF32@2@B
CONST	SEGMENT
?MediumPurple@Colors@DirectX@@3UXMVECTORF32@2@B DD 03f139394r ; 0.576471 ; DirectX::Colors::MediumPurple
	DD	03ee0e0e2r			; 0.439216
	DD	03f5bdbddr			; 0.858824
	DD	03f800000r			; 1
CONST	ENDS
;	COMDAT ?MediumOrchid@Colors@DirectX@@3UXMVECTORF32@2@B
CONST	SEGMENT
?MediumOrchid@Colors@DirectX@@3UXMVECTORF32@2@B DD 03f3ababbr ; 0.729412 ; DirectX::Colors::MediumOrchid
	DD	03eaaaaabr			; 0.333333
	DD	03f53d3d5r			; 0.827451
	DD	03f800000r			; 1
CONST	ENDS
;	COMDAT ?MediumBlue@Colors@DirectX@@3UXMVECTORF32@2@B
CONST	SEGMENT
?MediumBlue@Colors@DirectX@@3UXMVECTORF32@2@B DD 000000000r ; 0 ; DirectX::Colors::MediumBlue
	DD	000000000r			; 0
	DD	03f4dcdcfr			; 0.803922
	DD	03f800000r			; 1
CONST	ENDS
;	COMDAT ?MediumAquamarine@Colors@DirectX@@3UXMVECTORF32@2@B
CONST	SEGMENT
?MediumAquamarine@Colors@DirectX@@3UXMVECTORF32@2@B DD 03ecccccer ; 0.4 ; DirectX::Colors::MediumAquamarine
	DD	03f4dcdcfr			; 0.803922
	DD	03f2aaaabr			; 0.666667
	DD	03f800000r			; 1
CONST	ENDS
;	COMDAT ?Maroon@Colors@DirectX@@3UXMVECTORF32@2@B
CONST	SEGMENT
?Maroon@Colors@DirectX@@3UXMVECTORF32@2@B DD 03f008081r ; 0.501961 ; DirectX::Colors::Maroon
	DD	000000000r			; 0
	DD	000000000r			; 0
	DD	03f800000r			; 1
CONST	ENDS
;	COMDAT ?Magenta@Colors@DirectX@@3UXMVECTORF32@2@B
CONST	SEGMENT
?Magenta@Colors@DirectX@@3UXMVECTORF32@2@B DD 03f800000r ; 1 ; DirectX::Colors::Magenta
	DD	000000000r			; 0
	DD	03f800000r			; 1
	DD	03f800000r			; 1
CONST	ENDS
;	COMDAT ?Linen@Colors@DirectX@@3UXMVECTORF32@2@B
CONST	SEGMENT
?Linen@Colors@DirectX@@3UXMVECTORF32@2@B DD 03f7afafcr ; 0.980392 ; DirectX::Colors::Linen
	DD	03f70f0f2r			; 0.941177
	DD	03f66e6e8r			; 0.901961
	DD	03f800000r			; 1
CONST	ENDS
;	COMDAT ?LimeGreen@Colors@DirectX@@3UXMVECTORF32@2@B
CONST	SEGMENT
?LimeGreen@Colors@DirectX@@3UXMVECTORF32@2@B DD 03e48c8car ; 0.196078 ; DirectX::Colors::LimeGreen
	DD	03f4dcdcfr			; 0.803922
	DD	03e48c8car			; 0.196078
	DD	03f800000r			; 1
CONST	ENDS
;	COMDAT ?Lime@Colors@DirectX@@3UXMVECTORF32@2@B
CONST	SEGMENT
?Lime@Colors@DirectX@@3UXMVECTORF32@2@B DD 000000000r ; 0 ; DirectX::Colors::Lime
	DD	03f800000r			; 1
	DD	000000000r			; 0
	DD	03f800000r			; 1
CONST	ENDS
;	COMDAT ?LightYellow@Colors@DirectX@@3UXMVECTORF32@2@B
CONST	SEGMENT
?LightYellow@Colors@DirectX@@3UXMVECTORF32@2@B DD 03f800000r ; 1 ; DirectX::Colors::LightYellow
	DD	03f800000r			; 1
	DD	03f60e0e2r			; 0.878431
	DD	03f800000r			; 1
CONST	ENDS
;	COMDAT ?LightSteelBlue@Colors@DirectX@@3UXMVECTORF32@2@B
CONST	SEGMENT
?LightSteelBlue@Colors@DirectX@@3UXMVECTORF32@2@B DD 03f30b0b1r ; 0.690196 ; DirectX::Colors::LightSteelBlue
	DD	03f44c4c6r			; 0.768628
	DD	03f5edee0r			; 0.870588
	DD	03f800000r			; 1
CONST	ENDS
;	COMDAT ?LightSlateGray@Colors@DirectX@@3UXMVECTORF32@2@B
CONST	SEGMENT
?LightSlateGray@Colors@DirectX@@3UXMVECTORF32@2@B DD 03eeeeef0r ; 0.466667 ; DirectX::Colors::LightSlateGray
	DD	03f088889r			; 0.533333
	DD	03f19999ar			; 0.6
	DD	03f800000r			; 1
CONST	ENDS
;	COMDAT ?LightSkyBlue@Colors@DirectX@@3UXMVECTORF32@2@B
CONST	SEGMENT
?LightSkyBlue@Colors@DirectX@@3UXMVECTORF32@2@B DD 03f078788r ; 0.529412 ; DirectX::Colors::LightSkyBlue
	DD	03f4eced0r			; 0.807843
	DD	03f7afafcr			; 0.980392
	DD	03f800000r			; 1
CONST	ENDS
;	COMDAT ?LightSeaGreen@Colors@DirectX@@3UXMVECTORF32@2@B
CONST	SEGMENT
?LightSeaGreen@Colors@DirectX@@3UXMVECTORF32@2@B DD 03e008081r ; 0.12549 ; DirectX::Colors::LightSeaGreen
	DD	03f32b2b3r			; 0.698039
	DD	03f2aaaabr			; 0.666667
	DD	03f800000r			; 1
CONST	ENDS
;	COMDAT ?LightSalmon@Colors@DirectX@@3UXMVECTORF32@2@B
CONST	SEGMENT
?LightSalmon@Colors@DirectX@@3UXMVECTORF32@2@B DD 03f800000r ; 1 ; DirectX::Colors::LightSalmon
	DD	03f20a0a1r			; 0.627451
	DD	03ef4f4f6r			; 0.478431
	DD	03f800000r			; 1
CONST	ENDS
;	COMDAT ?LightPink@Colors@DirectX@@3UXMVECTORF32@2@B
CONST	SEGMENT
?LightPink@Colors@DirectX@@3UXMVECTORF32@2@B DD 03f800000r ; 1 ; DirectX::Colors::LightPink
	DD	03f36b6b7r			; 0.713726
	DD	03f41c1c3r			; 0.756863
	DD	03f800000r			; 1
CONST	ENDS
;	COMDAT ?LightGray@Colors@DirectX@@3UXMVECTORF32@2@B
CONST	SEGMENT
?LightGray@Colors@DirectX@@3UXMVECTORF32@2@B DD 03f53d3d5r ; 0.827451 ; DirectX::Colors::LightGray
	DD	03f53d3d5r			; 0.827451
	DD	03f53d3d5r			; 0.827451
	DD	03f800000r			; 1
CONST	ENDS
;	COMDAT ?LightGreen@Colors@DirectX@@3UXMVECTORF32@2@B
CONST	SEGMENT
?LightGreen@Colors@DirectX@@3UXMVECTORF32@2@B DD 03f109091r ; 0.564706 ; DirectX::Colors::LightGreen
	DD	03f6eeef0r			; 0.933333
	DD	03f109091r			; 0.564706
	DD	03f800000r			; 1
CONST	ENDS
;	COMDAT ?LightGoldenrodYellow@Colors@DirectX@@3UXMVECTORF32@2@B
CONST	SEGMENT
?LightGoldenrodYellow@Colors@DirectX@@3UXMVECTORF32@2@B DD 03f7afafcr ; 0.980392 ; DirectX::Colors::LightGoldenrodYellow
	DD	03f7afafcr			; 0.980392
	DD	03f52d2d4r			; 0.823529
	DD	03f800000r			; 1
CONST	ENDS
;	COMDAT ?LightCyan@Colors@DirectX@@3UXMVECTORF32@2@B
CONST	SEGMENT
?LightCyan@Colors@DirectX@@3UXMVECTORF32@2@B DD 03f60e0e2r ; 0.878431 ; DirectX::Colors::LightCyan
	DD	03f800000r			; 1
	DD	03f800000r			; 1
	DD	03f800000r			; 1
CONST	ENDS
;	COMDAT ?LightCoral@Colors@DirectX@@3UXMVECTORF32@2@B
CONST	SEGMENT
?LightCoral@Colors@DirectX@@3UXMVECTORF32@2@B DD 03f70f0f2r ; 0.941177 ; DirectX::Colors::LightCoral
	DD	03f008081r			; 0.501961
	DD	03f008081r			; 0.501961
	DD	03f800000r			; 1
CONST	ENDS
;	COMDAT ?LightBlue@Colors@DirectX@@3UXMVECTORF32@2@B
CONST	SEGMENT
?LightBlue@Colors@DirectX@@3UXMVECTORF32@2@B DD 03f2dadaer ; 0.678431 ; DirectX::Colors::LightBlue
	DD	03f58d8dar			; 0.847059
	DD	03f66e6e8r			; 0.901961
	DD	03f800000r			; 1
CONST	ENDS
;	COMDAT ?LemonChiffon@Colors@DirectX@@3UXMVECTORF32@2@B
CONST	SEGMENT
?LemonChiffon@Colors@DirectX@@3UXMVECTORF32@2@B DD 03f800000r ; 1 ; DirectX::Colors::LemonChiffon
	DD	03f7afafcr			; 0.980392
	DD	03f4dcdcfr			; 0.803922
	DD	03f800000r			; 1
CONST	ENDS
;	COMDAT ?LawnGreen@Colors@DirectX@@3UXMVECTORF32@2@B
CONST	SEGMENT
?LawnGreen@Colors@DirectX@@3UXMVECTORF32@2@B DD 03ef8f8far ; 0.486275 ; DirectX::Colors::LawnGreen
	DD	03f7cfcfer			; 0.988235
	DD	000000000r			; 0
	DD	03f800000r			; 1
CONST	ENDS
;	COMDAT ?LavenderBlush@Colors@DirectX@@3UXMVECTORF32@2@B
CONST	SEGMENT
?LavenderBlush@Colors@DirectX@@3UXMVECTORF32@2@B DD 03f800000r ; 1 ; DirectX::Colors::LavenderBlush
	DD	03f70f0f2r			; 0.941177
	DD	03f75f5f7r			; 0.960784
	DD	03f800000r			; 1
CONST	ENDS
;	COMDAT ?Lavender@Colors@DirectX@@3UXMVECTORF32@2@B
CONST	SEGMENT
?Lavender@Colors@DirectX@@3UXMVECTORF32@2@B DD 03f66e6e8r ; 0.901961 ; DirectX::Colors::Lavender
	DD	03f66e6e8r			; 0.901961
	DD	03f7afafcr			; 0.980392
	DD	03f800000r			; 1
CONST	ENDS
;	COMDAT ?Khaki@Colors@DirectX@@3UXMVECTORF32@2@B
CONST	SEGMENT
?Khaki@Colors@DirectX@@3UXMVECTORF32@2@B DD 03f70f0f2r ; 0.941177 ; DirectX::Colors::Khaki
	DD	03f66e6e8r			; 0.901961
	DD	03f0c8c8dr			; 0.54902
	DD	03f800000r			; 1
CONST	ENDS
;	COMDAT ?Ivory@Colors@DirectX@@3UXMVECTORF32@2@B
CONST	SEGMENT
?Ivory@Colors@DirectX@@3UXMVECTORF32@2@B DD 03f800000r ; 1 ; DirectX::Colors::Ivory
	DD	03f800000r			; 1
	DD	03f70f0f2r			; 0.941177
	DD	03f800000r			; 1
CONST	ENDS
;	COMDAT ?Indigo@Colors@DirectX@@3UXMVECTORF32@2@B
CONST	SEGMENT
?Indigo@Colors@DirectX@@3UXMVECTORF32@2@B DD 03e969697r ; 0.294118 ; DirectX::Colors::Indigo
	DD	000000000r			; 0
	DD	03f028283r			; 0.509804
	DD	03f800000r			; 1
CONST	ENDS
;	COMDAT ?IndianRed@Colors@DirectX@@3UXMVECTORF32@2@B
CONST	SEGMENT
?IndianRed@Colors@DirectX@@3UXMVECTORF32@2@B DD 03f4dcdcfr ; 0.803922 ; DirectX::Colors::IndianRed
	DD	03eb8b8b9r			; 0.360784
	DD	03eb8b8b9r			; 0.360784
	DD	03f800000r			; 1
CONST	ENDS
;	COMDAT ?HotPink@Colors@DirectX@@3UXMVECTORF32@2@B
CONST	SEGMENT
?HotPink@Colors@DirectX@@3UXMVECTORF32@2@B DD 03f800000r ; 1 ; DirectX::Colors::HotPink
	DD	03ed2d2d4r			; 0.411765
	DD	03f34b4b5r			; 0.705882
	DD	03f800000r			; 1
CONST	ENDS
;	COMDAT ?Honeydew@Colors@DirectX@@3UXMVECTORF32@2@B
CONST	SEGMENT
?Honeydew@Colors@DirectX@@3UXMVECTORF32@2@B DD 03f70f0f2r ; 0.941177 ; DirectX::Colors::Honeydew
	DD	03f800000r			; 1
	DD	03f70f0f2r			; 0.941177
	DD	03f800000r			; 1
CONST	ENDS
;	COMDAT ?GreenYellow@Colors@DirectX@@3UXMVECTORF32@2@B
CONST	SEGMENT
?GreenYellow@Colors@DirectX@@3UXMVECTORF32@2@B DD 03f2dadaer ; 0.678431 ; DirectX::Colors::GreenYellow
	DD	03f800000r			; 1
	DD	03e3cbcbdr			; 0.184314
	DD	03f800000r			; 1
CONST	ENDS
;	COMDAT ?Green@Colors@DirectX@@3UXMVECTORF32@2@B
CONST	SEGMENT
?Green@Colors@DirectX@@3UXMVECTORF32@2@B DD 000000000r ; 0 ; DirectX::Colors::Green
	DD	03f008081r			; 0.501961
	DD	000000000r			; 0
	DD	03f800000r			; 1
CONST	ENDS
;	COMDAT ?Gray@Colors@DirectX@@3UXMVECTORF32@2@B
CONST	SEGMENT
?Gray@Colors@DirectX@@3UXMVECTORF32@2@B DD 03f008081r ; 0.501961 ; DirectX::Colors::Gray
	DD	03f008081r			; 0.501961
	DD	03f008081r			; 0.501961
	DD	03f800000r			; 1
CONST	ENDS
;	COMDAT ?Goldenrod@Colors@DirectX@@3UXMVECTORF32@2@B
CONST	SEGMENT
?Goldenrod@Colors@DirectX@@3UXMVECTORF32@2@B DD 03f5adadcr ; 0.854902 ; DirectX::Colors::Goldenrod
	DD	03f25a5a6r			; 0.647059
	DD	03e008081r			; 0.12549
	DD	03f800000r			; 1
CONST	ENDS
;	COMDAT ?Gold@Colors@DirectX@@3UXMVECTORF32@2@B
CONST	SEGMENT
?Gold@Colors@DirectX@@3UXMVECTORF32@2@B DD 03f800000r ; 1 ; DirectX::Colors::Gold
	DD	03f57d7d9r			; 0.843137
	DD	000000000r			; 0
	DD	03f800000r			; 1
CONST	ENDS
;	COMDAT ?GhostWhite@Colors@DirectX@@3UXMVECTORF32@2@B
CONST	SEGMENT
?GhostWhite@Colors@DirectX@@3UXMVECTORF32@2@B DD 03f78f8far ; 0.972549 ; DirectX::Colors::GhostWhite
	DD	03f78f8far			; 0.972549
	DD	03f800000r			; 1
	DD	03f800000r			; 1
CONST	ENDS
;	COMDAT ?Gainsboro@Colors@DirectX@@3UXMVECTORF32@2@B
CONST	SEGMENT
?Gainsboro@Colors@DirectX@@3UXMVECTORF32@2@B DD 03f5cdcder ; 0.862745 ; DirectX::Colors::Gainsboro
	DD	03f5cdcder			; 0.862745
	DD	03f5cdcder			; 0.862745
	DD	03f800000r			; 1
CONST	ENDS
;	COMDAT ?Fuchsia@Colors@DirectX@@3UXMVECTORF32@2@B
CONST	SEGMENT
?Fuchsia@Colors@DirectX@@3UXMVECTORF32@2@B DD 03f800000r ; 1 ; DirectX::Colors::Fuchsia
	DD	000000000r			; 0
	DD	03f800000r			; 1
	DD	03f800000r			; 1
CONST	ENDS
;	COMDAT ?ForestGreen@Colors@DirectX@@3UXMVECTORF32@2@B
CONST	SEGMENT
?ForestGreen@Colors@DirectX@@3UXMVECTORF32@2@B DD 03e088889r ; 0.133333 ; DirectX::Colors::ForestGreen
	DD	03f0b8b8cr			; 0.545098
	DD	03e088889r			; 0.133333
	DD	03f800000r			; 1
CONST	ENDS
;	COMDAT ?FloralWhite@Colors@DirectX@@3UXMVECTORF32@2@B
CONST	SEGMENT
?FloralWhite@Colors@DirectX@@3UXMVECTORF32@2@B DD 03f800000r ; 1 ; DirectX::Colors::FloralWhite
	DD	03f7afafcr			; 0.980392
	DD	03f70f0f2r			; 0.941177
	DD	03f800000r			; 1
CONST	ENDS
;	COMDAT ?Firebrick@Colors@DirectX@@3UXMVECTORF32@2@B
CONST	SEGMENT
?Firebrick@Colors@DirectX@@3UXMVECTORF32@2@B DD 03f32b2b3r ; 0.698039 ; DirectX::Colors::Firebrick
	DD	03e088889r			; 0.133333
	DD	03e088889r			; 0.133333
	DD	03f800000r			; 1
CONST	ENDS
;	COMDAT ?DodgerBlue@Colors@DirectX@@3UXMVECTORF32@2@B
CONST	SEGMENT
?DodgerBlue@Colors@DirectX@@3UXMVECTORF32@2@B DD 03df0f0f2r ; 0.117647 ; DirectX::Colors::DodgerBlue
	DD	03f109091r			; 0.564706
	DD	03f800000r			; 1
	DD	03f800000r			; 1
CONST	ENDS
;	COMDAT ?DimGray@Colors@DirectX@@3UXMVECTORF32@2@B
CONST	SEGMENT
?DimGray@Colors@DirectX@@3UXMVECTORF32@2@B DD 03ed2d2d4r ; 0.411765 ; DirectX::Colors::DimGray
	DD	03ed2d2d4r			; 0.411765
	DD	03ed2d2d4r			; 0.411765
	DD	03f800000r			; 1
CONST	ENDS
;	COMDAT ?DeepSkyBlue@Colors@DirectX@@3UXMVECTORF32@2@B
CONST	SEGMENT
?DeepSkyBlue@Colors@DirectX@@3UXMVECTORF32@2@B DD 000000000r ; 0 ; DirectX::Colors::DeepSkyBlue
	DD	03f3fbfc0r			; 0.74902
	DD	03f800000r			; 1
	DD	03f800000r			; 1
CONST	ENDS
;	COMDAT ?DeepPink@Colors@DirectX@@3UXMVECTORF32@2@B
CONST	SEGMENT
?DeepPink@Colors@DirectX@@3UXMVECTORF32@2@B DD 03f800000r ; 1 ; DirectX::Colors::DeepPink
	DD	03da0a0a1r			; 0.0784314
	DD	03f139394r			; 0.576471
	DD	03f800000r			; 1
CONST	ENDS
;	COMDAT ?DarkViolet@Colors@DirectX@@3UXMVECTORF32@2@B
CONST	SEGMENT
?DarkViolet@Colors@DirectX@@3UXMVECTORF32@2@B DD 03f149495r ; 0.580392 ; DirectX::Colors::DarkViolet
	DD	000000000r			; 0
	DD	03f53d3d5r			; 0.827451
	DD	03f800000r			; 1
CONST	ENDS
;	COMDAT ?DarkTurquoise@Colors@DirectX@@3UXMVECTORF32@2@B
CONST	SEGMENT
?DarkTurquoise@Colors@DirectX@@3UXMVECTORF32@2@B DD 000000000r ; 0 ; DirectX::Colors::DarkTurquoise
	DD	03f4eced0r			; 0.807843
	DD	03f51d1d3r			; 0.819608
	DD	03f800000r			; 1
CONST	ENDS
;	COMDAT ?DarkSlateGray@Colors@DirectX@@3UXMVECTORF32@2@B
CONST	SEGMENT
?DarkSlateGray@Colors@DirectX@@3UXMVECTORF32@2@B DD 03e3cbcbdr ; 0.184314 ; DirectX::Colors::DarkSlateGray
	DD	03e9e9e9fr			; 0.309804
	DD	03e9e9e9fr			; 0.309804
	DD	03f800000r			; 1
CONST	ENDS
;	COMDAT ?DarkSlateBlue@Colors@DirectX@@3UXMVECTORF32@2@B
CONST	SEGMENT
?DarkSlateBlue@Colors@DirectX@@3UXMVECTORF32@2@B DD 03e909091r ; 0.282353 ; DirectX::Colors::DarkSlateBlue
	DD	03e74f4f6r			; 0.239216
	DD	03f0b8b8cr			; 0.545098
	DD	03f800000r			; 1
CONST	ENDS
;	COMDAT ?DarkSeaGreen@Colors@DirectX@@3UXMVECTORF32@2@B
CONST	SEGMENT
?DarkSeaGreen@Colors@DirectX@@3UXMVECTORF32@2@B DD 03f0f8f90r ; 0.560784 ; DirectX::Colors::DarkSeaGreen
	DD	03f3cbcbdr			; 0.737255
	DD	03f0b8b8cr			; 0.545098
	DD	03f800000r			; 1
CONST	ENDS
;	COMDAT ?DarkSalmon@Colors@DirectX@@3UXMVECTORF32@2@B
CONST	SEGMENT
?DarkSalmon@Colors@DirectX@@3UXMVECTORF32@2@B DD 03f69e9ebr ; 0.913726 ; DirectX::Colors::DarkSalmon
	DD	03f169697r			; 0.588235
	DD	03ef4f4f6r			; 0.478431
	DD	03f800000r			; 1
CONST	ENDS
;	COMDAT ?DarkRed@Colors@DirectX@@3UXMVECTORF32@2@B
CONST	SEGMENT
?DarkRed@Colors@DirectX@@3UXMVECTORF32@2@B DD 03f0b8b8cr ; 0.545098 ; DirectX::Colors::DarkRed
	DD	000000000r			; 0
	DD	000000000r			; 0
	DD	03f800000r			; 1
CONST	ENDS
;	COMDAT ?DarkOrchid@Colors@DirectX@@3UXMVECTORF32@2@B
CONST	SEGMENT
?DarkOrchid@Colors@DirectX@@3UXMVECTORF32@2@B DD 03f19999ar ; 0.6 ; DirectX::Colors::DarkOrchid
	DD	03e48c8car			; 0.196078
	DD	03f4ccccer			; 0.8
	DD	03f800000r			; 1
CONST	ENDS
;	COMDAT ?DarkOrange@Colors@DirectX@@3UXMVECTORF32@2@B
CONST	SEGMENT
?DarkOrange@Colors@DirectX@@3UXMVECTORF32@2@B DD 03f800000r ; 1 ; DirectX::Colors::DarkOrange
	DD	03f0c8c8dr			; 0.54902
	DD	000000000r			; 0
	DD	03f800000r			; 1
CONST	ENDS
;	COMDAT ?DarkOliveGreen@Colors@DirectX@@3UXMVECTORF32@2@B
CONST	SEGMENT
?DarkOliveGreen@Colors@DirectX@@3UXMVECTORF32@2@B DD 03eaaaaabr ; 0.333333 ; DirectX::Colors::DarkOliveGreen
	DD	03ed6d6d8r			; 0.419608
	DD	03e3cbcbdr			; 0.184314
	DD	03f800000r			; 1
CONST	ENDS
;	COMDAT ?DarkMagenta@Colors@DirectX@@3UXMVECTORF32@2@B
CONST	SEGMENT
?DarkMagenta@Colors@DirectX@@3UXMVECTORF32@2@B DD 03f0b8b8cr ; 0.545098 ; DirectX::Colors::DarkMagenta
	DD	000000000r			; 0
	DD	03f0b8b8cr			; 0.545098
	DD	03f800000r			; 1
CONST	ENDS
;	COMDAT ?DarkKhaki@Colors@DirectX@@3UXMVECTORF32@2@B
CONST	SEGMENT
?DarkKhaki@Colors@DirectX@@3UXMVECTORF32@2@B DD 03f3dbdber ; 0.741176 ; DirectX::Colors::DarkKhaki
	DD	03f37b7b8r			; 0.717647
	DD	03ed6d6d8r			; 0.419608
	DD	03f800000r			; 1
CONST	ENDS
;	COMDAT ?DarkGreen@Colors@DirectX@@3UXMVECTORF32@2@B
CONST	SEGMENT
?DarkGreen@Colors@DirectX@@3UXMVECTORF32@2@B DD 000000000r ; 0 ; DirectX::Colors::DarkGreen
	DD	03ec8c8car			; 0.392157
	DD	000000000r			; 0
	DD	03f800000r			; 1
CONST	ENDS
;	COMDAT ?DarkGray@Colors@DirectX@@3UXMVECTORF32@2@B
CONST	SEGMENT
?DarkGray@Colors@DirectX@@3UXMVECTORF32@2@B DD 03f29a9aar ; 0.662745 ; DirectX::Colors::DarkGray
	DD	03f29a9aar			; 0.662745
	DD	03f29a9aar			; 0.662745
	DD	03f800000r			; 1
CONST	ENDS
;	COMDAT ?DarkGoldenrod@Colors@DirectX@@3UXMVECTORF32@2@B
CONST	SEGMENT
?DarkGoldenrod@Colors@DirectX@@3UXMVECTORF32@2@B DD 03f38b8b9r ; 0.721569 ; DirectX::Colors::DarkGoldenrod
	DD	03f068687r			; 0.52549
	DD	03d30b0b1r			; 0.0431373
	DD	03f800000r			; 1
CONST	ENDS
;	COMDAT ?DarkCyan@Colors@DirectX@@3UXMVECTORF32@2@B
CONST	SEGMENT
?DarkCyan@Colors@DirectX@@3UXMVECTORF32@2@B DD 000000000r ; 0 ; DirectX::Colors::DarkCyan
	DD	03f0b8b8cr			; 0.545098
	DD	03f0b8b8cr			; 0.545098
	DD	03f800000r			; 1
CONST	ENDS
;	COMDAT ?DarkBlue@Colors@DirectX@@3UXMVECTORF32@2@B
CONST	SEGMENT
?DarkBlue@Colors@DirectX@@3UXMVECTORF32@2@B DD 000000000r ; 0 ; DirectX::Colors::DarkBlue
	DD	000000000r			; 0
	DD	03f0b8b8cr			; 0.545098
	DD	03f800000r			; 1
CONST	ENDS
;	COMDAT ?Cyan@Colors@DirectX@@3UXMVECTORF32@2@B
CONST	SEGMENT
?Cyan@Colors@DirectX@@3UXMVECTORF32@2@B DD 000000000r ; 0 ; DirectX::Colors::Cyan
	DD	03f800000r			; 1
	DD	03f800000r			; 1
	DD	03f800000r			; 1
CONST	ENDS
;	COMDAT ?Crimson@Colors@DirectX@@3UXMVECTORF32@2@B
CONST	SEGMENT
?Crimson@Colors@DirectX@@3UXMVECTORF32@2@B DD 03f5cdcder ; 0.862745 ; DirectX::Colors::Crimson
	DD	03da0a0a1r			; 0.0784314
	DD	03e70f0f2r			; 0.235294
	DD	03f800000r			; 1
CONST	ENDS
;	COMDAT ?Cornsilk@Colors@DirectX@@3UXMVECTORF32@2@B
CONST	SEGMENT
?Cornsilk@Colors@DirectX@@3UXMVECTORF32@2@B DD 03f800000r ; 1 ; DirectX::Colors::Cornsilk
	DD	03f78f8far			; 0.972549
	DD	03f5cdcder			; 0.862745
	DD	03f800000r			; 1
CONST	ENDS
;	COMDAT ?CornflowerBlue@Colors@DirectX@@3UXMVECTORF32@2@B
CONST	SEGMENT
?CornflowerBlue@Colors@DirectX@@3UXMVECTORF32@2@B DD 03ec8c8car ; 0.392157 ; DirectX::Colors::CornflowerBlue
	DD	03f159596r			; 0.584314
	DD	03f6dedefr			; 0.929412
	DD	03f800000r			; 1
CONST	ENDS
;	COMDAT ?Coral@Colors@DirectX@@3UXMVECTORF32@2@B
CONST	SEGMENT
?Coral@Colors@DirectX@@3UXMVECTORF32@2@B DD 03f800000r ; 1 ; DirectX::Colors::Coral
	DD	03efeff00r			; 0.498039
	DD	03ea0a0a1r			; 0.313726
	DD	03f800000r			; 1
CONST	ENDS
;	COMDAT ?Chocolate@Colors@DirectX@@3UXMVECTORF32@2@B
CONST	SEGMENT
?Chocolate@Colors@DirectX@@3UXMVECTORF32@2@B DD 03f52d2d4r ; 0.823529 ; DirectX::Colors::Chocolate
	DD	03ed2d2d4r			; 0.411765
	DD	03df0f0f2r			; 0.117647
	DD	03f800000r			; 1
CONST	ENDS
;	COMDAT ?Chartreuse@Colors@DirectX@@3UXMVECTORF32@2@B
CONST	SEGMENT
?Chartreuse@Colors@DirectX@@3UXMVECTORF32@2@B DD 03efeff00r ; 0.498039 ; DirectX::Colors::Chartreuse
	DD	03f800000r			; 1
	DD	000000000r			; 0
	DD	03f800000r			; 1
CONST	ENDS
;	COMDAT ?CadetBlue@Colors@DirectX@@3UXMVECTORF32@2@B
CONST	SEGMENT
?CadetBlue@Colors@DirectX@@3UXMVECTORF32@2@B DD 03ebebebfr ; 0.372549 ; DirectX::Colors::CadetBlue
	DD	03f1e9e9fr			; 0.619608
	DD	03f20a0a1r			; 0.627451
	DD	03f800000r			; 1
CONST	ENDS
;	COMDAT ?BurlyWood@Colors@DirectX@@3UXMVECTORF32@2@B
CONST	SEGMENT
?BurlyWood@Colors@DirectX@@3UXMVECTORF32@2@B DD 03f5edee0r ; 0.870588 ; DirectX::Colors::BurlyWood
	DD	03f38b8b9r			; 0.721569
	DD	03f078788r			; 0.529412
	DD	03f800000r			; 1
CONST	ENDS
;	COMDAT ?Brown@Colors@DirectX@@3UXMVECTORF32@2@B
CONST	SEGMENT
?Brown@Colors@DirectX@@3UXMVECTORF32@2@B DD 03f25a5a6r ; 0.647059 ; DirectX::Colors::Brown
	DD	03e28a8a9r			; 0.164706
	DD	03e28a8a9r			; 0.164706
	DD	03f800000r			; 1
CONST	ENDS
;	COMDAT ?BlueViolet@Colors@DirectX@@3UXMVECTORF32@2@B
CONST	SEGMENT
?BlueViolet@Colors@DirectX@@3UXMVECTORF32@2@B DD 03f0a8a8br ; 0.541176 ; DirectX::Colors::BlueViolet
	DD	03e2cacadr			; 0.168627
	DD	03f62e2e4r			; 0.886275
	DD	03f800000r			; 1
CONST	ENDS
;	COMDAT ?Blue@Colors@DirectX@@3UXMVECTORF32@2@B
CONST	SEGMENT
?Blue@Colors@DirectX@@3UXMVECTORF32@2@B DD 000000000r ; 0 ; DirectX::Colors::Blue
	DD	000000000r			; 0
	DD	03f800000r			; 1
	DD	03f800000r			; 1
CONST	ENDS
;	COMDAT ?BlanchedAlmond@Colors@DirectX@@3UXMVECTORF32@2@B
CONST	SEGMENT
?BlanchedAlmond@Colors@DirectX@@3UXMVECTORF32@2@B DD 03f800000r ; 1 ; DirectX::Colors::BlanchedAlmond
	DD	03f6bebedr			; 0.921569
	DD	03f4dcdcfr			; 0.803922
	DD	03f800000r			; 1
CONST	ENDS
;	COMDAT ?Black@Colors@DirectX@@3UXMVECTORF32@2@B
CONST	SEGMENT
?Black@Colors@DirectX@@3UXMVECTORF32@2@B DD 000000000r ; 0 ; DirectX::Colors::Black
	DD	000000000r			; 0
	DD	000000000r			; 0
	DD	03f800000r			; 1
CONST	ENDS
;	COMDAT ?Bisque@Colors@DirectX@@3UXMVECTORF32@2@B
CONST	SEGMENT
?Bisque@Colors@DirectX@@3UXMVECTORF32@2@B DD 03f800000r ; 1 ; DirectX::Colors::Bisque
	DD	03f64e4e6r			; 0.894118
	DD	03f44c4c6r			; 0.768628
	DD	03f800000r			; 1
CONST	ENDS
;	COMDAT ?Beige@Colors@DirectX@@3UXMVECTORF32@2@B
CONST	SEGMENT
?Beige@Colors@DirectX@@3UXMVECTORF32@2@B DD 03f75f5f7r ; 0.960784 ; DirectX::Colors::Beige
	DD	03f75f5f7r			; 0.960784
	DD	03f5cdcder			; 0.862745
	DD	03f800000r			; 1
CONST	ENDS
;	COMDAT ?Azure@Colors@DirectX@@3UXMVECTORF32@2@B
CONST	SEGMENT
?Azure@Colors@DirectX@@3UXMVECTORF32@2@B DD 03f70f0f2r ; 0.941177 ; DirectX::Colors::Azure
	DD	03f800000r			; 1
	DD	03f800000r			; 1
	DD	03f800000r			; 1
CONST	ENDS
;	COMDAT ?Aquamarine@Colors@DirectX@@3UXMVECTORF32@2@B
CONST	SEGMENT
?Aquamarine@Colors@DirectX@@3UXMVECTORF32@2@B DD 03efeff00r ; 0.498039 ; DirectX::Colors::Aquamarine
	DD	03f800000r			; 1
	DD	03f54d4d6r			; 0.831373
	DD	03f800000r			; 1
CONST	ENDS
;	COMDAT ?Aqua@Colors@DirectX@@3UXMVECTORF32@2@B
CONST	SEGMENT
?Aqua@Colors@DirectX@@3UXMVECTORF32@2@B DD 000000000r ; 0 ; DirectX::Colors::Aqua
	DD	03f800000r			; 1
	DD	03f800000r			; 1
	DD	03f800000r			; 1
CONST	ENDS
;	COMDAT ?AntiqueWhite@Colors@DirectX@@3UXMVECTORF32@2@B
CONST	SEGMENT
?AntiqueWhite@Colors@DirectX@@3UXMVECTORF32@2@B DD 03f7afafcr ; 0.980392 ; DirectX::Colors::AntiqueWhite
	DD	03f6bebedr			; 0.921569
	DD	03f57d7d9r			; 0.843137
	DD	03f800000r			; 1
CONST	ENDS
;	COMDAT ?AliceBlue@Colors@DirectX@@3UXMVECTORF32@2@B
CONST	SEGMENT
?AliceBlue@Colors@DirectX@@3UXMVECTORF32@2@B DD 03f70f0f2r ; 0.941177 ; DirectX::Colors::AliceBlue
	DD	03f78f8far			; 0.972549
	DD	03f800000r			; 1
	DD	03f800000r			; 1
CONST	ENDS
PUBLIC	??_H@YAXPEAX_K1P6APEAX0@Z@Z			; `vector constructor iterator'
PUBLIC	?__empty_global_delete@@YAXPEAX@Z		; __empty_global_delete
PUBLIC	?__empty_global_delete@@YAXPEAX_K@Z		; __empty_global_delete
PUBLIC	?XMConvertToRadians@DirectX@@YAMM@Z		; DirectX::XMConvertToRadians
PUBLIC	??BXMVECTORI32@DirectX@@QEBA?AT__m128@@XZ	; DirectX::XMVECTORI32::operator __m128
PUBLIC	??BXMVECTORU32@DirectX@@QEBA?AT__m128@@XZ	; DirectX::XMVECTORU32::operator __m128
PUBLIC	??GDirectX@@YQ?AT__m128@@T1@@Z			; DirectX::operator-
PUBLIC	??HDirectX@@YQ?AT__m128@@T1@0@Z			; DirectX::operator+
PUBLIC	??GDirectX@@YQ?AT__m128@@T1@0@Z			; DirectX::operator-
PUBLIC	??DDirectX@@YQ?AT__m128@@T1@M@Z			; DirectX::operator*
PUBLIC	??0XMMATRIX@DirectX@@QEAA@XZ			; DirectX::XMMATRIX::XMMATRIX
PUBLIC	??0XMFLOAT3@DirectX@@QEAA@XZ			; DirectX::XMFLOAT3::XMFLOAT3
PUBLIC	??0XMFLOAT3@DirectX@@QEAA@MMM@Z			; DirectX::XMFLOAT3::XMFLOAT3
PUBLIC	??4XMFLOAT3@DirectX@@QEAAAEAU01@AEBU01@@Z	; DirectX::XMFLOAT3::operator=
PUBLIC	?XMLoadFloat4@DirectX@@YQ?AT__m128@@PEBUXMFLOAT4@1@@Z ; DirectX::XMLoadFloat4
PUBLIC	?XMLoadFloat4x4@DirectX@@YQ?AUXMMATRIX@1@PEBUXMFLOAT4X4@1@@Z ; DirectX::XMLoadFloat4x4
PUBLIC	?XMVectorSet@DirectX@@YQ?AT__m128@@MMMM@Z	; DirectX::XMVectorSet
PUBLIC	?XMVectorGetX@DirectX@@YQMT__m128@@@Z		; DirectX::XMVectorGetX
PUBLIC	?XMVectorGetY@DirectX@@YQMT__m128@@@Z		; DirectX::XMVectorGetY
PUBLIC	?XMVectorSetY@DirectX@@YQ?AT__m128@@T2@M@Z	; DirectX::XMVectorSetY
PUBLIC	?XMVectorNegate@DirectX@@YQ?AT__m128@@T2@@Z	; DirectX::XMVectorNegate
PUBLIC	?XMVectorAdd@DirectX@@YQ?AT__m128@@T2@0@Z	; DirectX::XMVectorAdd
PUBLIC	?XMVectorSubtract@DirectX@@YQ?AT__m128@@T2@0@Z	; DirectX::XMVectorSubtract
PUBLIC	?XMVectorScale@DirectX@@YQ?AT__m128@@T2@M@Z	; DirectX::XMVectorScale
PUBLIC	?XMVector3Cross@DirectX@@YQ?AT__m128@@T2@0@Z	; DirectX::XMVector3Cross
PUBLIC	?XMVector3Length@DirectX@@YQ?AT__m128@@T2@@Z	; DirectX::XMVector3Length
PUBLIC	?XMVector3Normalize@DirectX@@YQ?AT__m128@@T2@@Z	; DirectX::XMVector3Normalize
PUBLIC	??0tagColliderDesc@CCollider@Engine@@QEAA@XZ	; Engine::CCollider::tagColliderDesc::tagColliderDesc
PUBLIC	??0CThorn@Client@@AEAA@PEAUID3D11Device@@PEAUID3D11DeviceContext@@@Z ; Client::CThorn::CThorn
PUBLIC	??1CThorn@Client@@EEAA@XZ			; Client::CThorn::~CThorn
PUBLIC	?Initialize_Prototype@CThorn@Client@@UEAAJXZ	; Client::CThorn::Initialize_Prototype
PUBLIC	?Initialize@CThorn@Client@@UEAAJPEAX@Z		; Client::CThorn::Initialize
PUBLIC	?Tick@CThorn@Client@@UEAAXN@Z			; Client::CThorn::Tick
PUBLIC	?LateTick@CThorn@Client@@UEAAXN@Z		; Client::CThorn::LateTick
PUBLIC	?Render@CThorn@Client@@UEAAJXZ			; Client::CThorn::Render
PUBLIC	?RenderGUI@CThorn@Client@@UEAAXXZ		; Client::CThorn::RenderGUI
PUBLIC	?GetLengthFromCamera@CThorn@Client@@UEAAMXZ	; Client::CThorn::GetLengthFromCamera
PUBLIC	?Reset@CThorn@Client@@QEAAXXZ			; Client::CThorn::Reset
PUBLIC	?SetPosition@CThorn@Client@@QEAAXT__m128@@@Z	; Client::CThorn::SetPosition
PUBLIC	?SetRotationXYZ@CThorn@Client@@QEAAXUXMFLOAT3@DirectX@@@Z ; Client::CThorn::SetRotationXYZ
PUBLIC	?SetRotationToTarget@CThorn@Client@@QEAAXT__m128@@@Z ; Client::CThorn::SetRotationToTarget
PUBLIC	?SetupScaleUpStart@CThorn@Client@@QEAAXM@Z	; Client::CThorn::SetupScaleUpStart
PUBLIC	?SetupScaleUpDownStart@CThorn@Client@@QEAAXM@Z	; Client::CThorn::SetupScaleUpDownStart
PUBLIC	?SetupScaleSmoothUpStart@CThorn@Client@@QEAAXM@Z ; Client::CThorn::SetupScaleSmoothUpStart
PUBLIC	?SetupScaleSmoothDownStart@CThorn@Client@@QEAAXXZ ; Client::CThorn::SetupScaleSmoothDownStart
PUBLIC	?ScaleUpProcess@CThorn@Client@@QEAA_NN@Z	; Client::CThorn::ScaleUpProcess
PUBLIC	?ScaleUpSmoothProcess@CThorn@Client@@QEAA_NN@Z	; Client::CThorn::ScaleUpSmoothProcess
PUBLIC	?ScaleDownSmoothProcess@CThorn@Client@@QEAA_NN@Z ; Client::CThorn::ScaleDownSmoothProcess
PUBLIC	?MoveProcess@CThorn@Client@@QEAA_NN@Z		; Client::CThorn::MoveProcess
PUBLIC	?IsScaleFinish@CThorn@Client@@QEAA_NXZ		; Client::CThorn::IsScaleFinish
PUBLIC	?AddComponents@CThorn@Client@@AEAAJXZ		; Client::CThorn::AddComponents
PUBLIC	?SetupShaderResources@CThorn@Client@@AEAAJXZ	; Client::CThorn::SetupShaderResources
PUBLIC	?SameObjectNoDetection@CThorn@Client@@EEAAXXZ	; Client::CThorn::SameObjectNoDetection
PUBLIC	?OnCollisionEnter@CThorn@Client@@EEAAXPEAVCCollider@Engine@@0@Z ; Client::CThorn::OnCollisionEnter
PUBLIC	?OnCollisionStay@CThorn@Client@@EEAAXPEAVCCollider@Engine@@0@Z ; Client::CThorn::OnCollisionStay
PUBLIC	?OnCollisionExit@CThorn@Client@@EEAAXPEAVCCollider@Engine@@0@Z ; Client::CThorn::OnCollisionExit
PUBLIC	?Create@CThorn@Client@@SAPEAV12@PEAUID3D11Device@@PEAUID3D11DeviceContext@@@Z ; Client::CThorn::Create
PUBLIC	?Clone@CThorn@Client@@UEAAPEAVCGameObject@Engine@@PEAX@Z ; Client::CThorn::Clone
PUBLIC	?Free@CThorn@Client@@UEAAXXZ			; Client::CThorn::Free
PUBLIC	??0CThorn@Client@@QEAA@AEBV01@@Z		; Client::CThorn::CThorn
PUBLIC	??_GCThorn@Client@@EEAAPEAXI@Z			; Client::CThorn::`scalar deleting destructor'
PUBLIC	?IsFreeze@CApplicationManager@Client@@QEBA_NXZ	; Client::CApplicationManager::IsFreeze
PUBLIC	?GetBodyCollider@CCharacter@Client@@QEBAPEAVCCollider@Engine@@XZ ; Client::CCharacter::GetBodyCollider
PUBLIC	??$Safe_Release@PEAVCThorn@Client@@@Engine@@YAKAEAPEAVCThorn@Client@@@Z ; Engine::Safe_Release<Client::CThorn * __ptr64>
PUBLIC	??$Safe_Release@PEAVCSphereCollider@Engine@@@Engine@@YAKAEAPEAVCSphereCollider@0@@Z ; Engine::Safe_Release<Engine::CSphereCollider * __ptr64>
PUBLIC	??$Safe_Release@PEAVCRenderer@Engine@@@Engine@@YAKAEAPEAVCRenderer@0@@Z ; Engine::Safe_Release<Engine::CRenderer * __ptr64>
PUBLIC	??$Safe_Release@PEAVCTransform@Engine@@@Engine@@YAKAEAPEAVCTransform@0@@Z ; Engine::Safe_Release<Engine::CTransform * __ptr64>
PUBLIC	??$Safe_Release@PEAVCModel@Engine@@@Engine@@YAKAEAPEAVCModel@0@@Z ; Engine::Safe_Release<Engine::CModel * __ptr64>
PUBLIC	??$Safe_Release@PEAVCShader@Engine@@@Engine@@YAKAEAPEAVCShader@0@@Z ; Engine::Safe_Release<Engine::CShader * __ptr64>
PUBLIC	??$Safe_Release@PEAVCVIBuffer_Rect@Engine@@@Engine@@YAKAEAPEAVCVIBuffer_Rect@0@@Z ; Engine::Safe_Release<Engine::CVIBuffer_Rect * __ptr64>
PUBLIC	??$Safe_Release@PEAVCTexture@Engine@@@Engine@@YAKAEAPEAVCTexture@0@@Z ; Engine::Safe_Release<Engine::CTexture * __ptr64>
PUBLIC	??_C@_1JE@DMOBBMDE@?$AAc?$AA?3?$AA?2?$AAp?$AAr?$AAo?$AAg?$AAr?$AAa?$AAm?$AA?5?$AAf?$AAi?$AAl?$AAe?$AAs?$AA?5?$AA?$CI?$AAx?$AA8?$AA6?$AA?$CJ?$AA?2?$AAw?$AAi?$AAn?$AAd?$AAo?$AAw?$AAs?$AA?5?$AAk@ ; `string'
PUBLIC	??_C@_1BA@LBADLIHI@?$AAp?$AAS?$AAo?$AAu?$AAr?$AAc?$AAe?$AA?$AA@ ; `string'
PUBLIC	?__LINE__Var@?0??XMLoadFloat4@DirectX@@YQ?AT__m128@@PEBUXMFLOAT4@2@@Z@4JA ; `DirectX::XMLoadFloat4'::`1'::__LINE__Var
PUBLIC	?__LINE__Var@?0??XMLoadFloat4x4@DirectX@@YQ?AUXMMATRIX@2@PEBUXMFLOAT4X4@2@@Z@4JA ; `DirectX::XMLoadFloat4x4'::`1'::__LINE__Var
PUBLIC	??_7CThorn@Client@@6BCGameObject@Engine@@@	; Client::CThorn::`vftable'
PUBLIC	??_7CThorn@Client@@6BISameObjectNoDetection@Engine@@@ ; Client::CThorn::`vftable'
PUBLIC	??_7CThorn@Client@@6BIOnCollisionEnter@Engine@@@ ; Client::CThorn::`vftable'
PUBLIC	??_7CThorn@Client@@6BIOnCollisionStay@Engine@@@	; Client::CThorn::`vftable'
PUBLIC	??_7CThorn@Client@@6BIOnCollisionExit@Engine@@@	; Client::CThorn::`vftable'
PUBLIC	??_C@_0N@ELIMCBLG@g_ViewMatrix?$AA@		; `string'
PUBLIC	??_C@_0N@OOHDPIO@g_ProjMatrix?$AA@		; `string'
PUBLIC	??_C@_0O@PFNLPMLD@g_WorldMatrix?$AA@		; `string'
PUBLIC	??_C@_09HCHKCCII@g_Texture?$AA@			; `string'
PUBLIC	??_C@_09IPLGGENB@g_TimeAcc?$AA@			; `string'
PUBLIC	??_C@_0BB@FMIBAICL@g_DiffuseTexture?$AA@	; `string'
PUBLIC	??_C@_0L@IHOCIKLF@g_fTimeAcc?$AA@		; `string'
PUBLIC	??_C@_1BK@GIOMOCNE@?$AAc?$AAo?$AAm?$AA_?$AAr?$AAe?$AAn?$AAd?$AAe?$AAr?$AAe?$AAr?$AA?$AA@ ; `string'
PUBLIC	??_C@_1CG@COFFFCLL@?$AAp?$AAr?$AAo?$AAt?$AAo?$AA_?$AAc?$AAo?$AAm?$AA_?$AAr?$AAe?$AAn?$AAd?$AAe?$AAr?$AAe?$AAr?$AA?$AA@ ; `string'
PUBLIC	??_C@_1BM@CJMPMHDD@?$AAc?$AAo?$AAm?$AA_?$AAt?$AAr?$AAa?$AAn?$AAs?$AAf?$AAo?$AAr?$AAm?$AA?$AA@ ; `string'
PUBLIC	??_C@_1CI@MLEFGO@?$AAp?$AAr?$AAo?$AAt?$AAo?$AA_?$AAc?$AAo?$AAm?$AA_?$AAt?$AAr?$AAa?$AAn?$AAs?$AAf?$AAo?$AAr?$AAm?$AA?$AA@ ; `string'
PUBLIC	??_C@_1CG@DBHLCHEM@?$AAc?$AAo?$AAm?$AA_?$AAt?$AAr?$AAa?$AAn?$AAs?$AAf?$AAo?$AAr?$AAm?$AAt?$AAr?$AAa?$AAi?$AAl?$AA?$AA@ ; `string'
PUBLIC	??_C@_1BO@BDPFEMKD@?$AAc?$AAo?$AAm?$AA_?$AAt?$AAr?$AAa?$AAn?$AAs?$AAf?$AAo?$AAr?$AAm?$AA3?$AA?$AA@ ; `string'
PUBLIC	??_C@_1BG@GGOMMBBL@?$AAc?$AAo?$AAm?$AA_?$AAs?$AAh?$AAa?$AAd?$AAe?$AAr?$AA?$AA@ ; `string'
PUBLIC	??_C@_1DE@OMAPGAIH@?$AAp?$AAr?$AAo?$AAt?$AAo?$AA_?$AAc?$AAo?$AAm?$AA_?$AAs?$AAh?$AAa?$AAd?$AAe?$AAr?$AA_?$AAv?$AAt?$AAx?$AAm?$AAo?$AAd?$AAe?$AAl?$AA?$AA@ ; `string'
PUBLIC	??_C@_1BI@NMCMAJE@?$AAc?$AAo?$AAm?$AA_?$AAs?$AAh?$AAa?$AAd?$AAe?$AAr?$AA1?$AA?$AA@ ; `string'
PUBLIC	??_C@_1DA@NCILMLLP@?$AAp?$AAr?$AAo?$AAt?$AAo?$AA_?$AAc?$AAo?$AAm?$AA_?$AAs?$AAh?$AAa?$AAd?$AAe?$AAr?$AA_?$AAv?$AAt?$AAx?$AAt?$AAe?$AAx?$AA?$AA@ ; `string'
PUBLIC	??_C@_1BM@EDKHFEBF@?$AAc?$AAo?$AAm?$AA_?$AAm?$AAo?$AAd?$AAe?$AA_?$AAg?$AAa?$AAr?$AAd?$AA?$AA@ ; `string'
PUBLIC	??_C@_1DE@KBCIPNKP@?$AAp?$AAr?$AAo?$AAt?$AAo?$AA_?$AAc?$AAo?$AAm?$AA_?$AAm?$AAo?$AAd?$AAe?$AAl?$AA_?$AAt?$AAh?$AAo?$AAr?$AAn?$AAg?$AAa?$AAr?$AAd?$AA?$AA@ ; `string'
PUBLIC	??_C@_1BE@MLNOEPCA@?$AAc?$AAo?$AAm?$AA_?$AAm?$AAo?$AAd?$AAe?$AAl?$AA?$AA@ ; `string'
PUBLIC	??_C@_1CM@NLPIEOMO@?$AAp?$AAr?$AAo?$AAt?$AAo?$AA_?$AAc?$AAo?$AAm?$AA_?$AAm?$AAo?$AAd?$AAe?$AAl?$AA_?$AAt?$AAh?$AAo?$AAr?$AAn?$AA?$AA@ ; `string'
PUBLIC	??_C@_1BK@BKCENIHA@?$AAc?$AAo?$AAm?$AA_?$AAc?$AAo?$AAl?$AAl?$AAi?$AAd?$AAe?$AAr?$AA?$AA@ ; `string'
PUBLIC	??_C@_1DE@OCAJEKIC@?$AAp?$AAr?$AAo?$AAt?$AAo?$AA_?$AAc?$AAo?$AAm?$AA_?$AAs?$AAp?$AAh?$AAe?$AAr?$AAe?$AA_?$AAc?$AAo?$AAl?$AAl?$AAi?$AAd?$AAe?$AAr?$AA?$AA@ ; `string'
PUBLIC	??_C@_1CM@EIJDBIDJ@?$AAc?$AAo?$AAm?$AA_?$AAt?$AAr?$AAa?$AAn?$AAs?$AA_?$AAf?$AAl?$AAo?$AAo?$AAr?$AAe?$AAf?$AAe?$AAe?$AAc?$AAt?$AA?$AA@ ; `string'
PUBLIC	??_C@_1CI@EJHCKIFB@?$AAc?$AAo?$AAm?$AA_?$AAt?$AAe?$AAx?$AAt?$AAu?$AAr?$AAe?$AA_?$AAd?$AAi?$AAf?$AAf?$AAu?$AAs?$AAe?$AA?$AA@ ; `string'
PUBLIC	??_C@_1DO@HAGCFBOL@?$AAp?$AAr?$AAo?$AAt?$AAo?$AA_?$AAc?$AAo?$AAm?$AA_?$AAt?$AAe?$AAx?$AAt?$AAu?$AAr?$AAe?$AA_?$AAt?$AAh?$AAo?$AAr?$AAn?$AAd?$AAi?$AAf?$AAf?$AAu?$AAs?$AAe?$AA?$AA@ ; `string'
PUBLIC	??_C@_1CC@CLEGOIHO@?$AAc?$AAo?$AAm?$AA_?$AAt?$AAe?$AAx?$AAt?$AAu?$AAr?$AAe?$AA_?$AAm?$AAa?$AAs?$AAk?$AA?$AA@ ; `string'
PUBLIC	??_C@_1DI@LAEBNKBN@?$AAp?$AAr?$AAo?$AAt?$AAo?$AA_?$AAc?$AAo?$AAm?$AA_?$AAt?$AAe?$AAx?$AAt?$AAu?$AAr?$AAe?$AA_?$AAt?$AAh?$AAo?$AAr?$AAn?$AAm?$AAa?$AAs?$AAk?$AA?$AA@ ; `string'
PUBLIC	??_C@_1CK@ECFCAHLG@?$AAc?$AAo?$AAm?$AA_?$AAt?$AAe?$AAx?$AAt?$AAu?$AAr?$AAe?$AA_?$AAg?$AAa?$AAr?$AAd?$AAm?$AAa?$AAs?$AAk?$AA?$AA@ ; `string'
PUBLIC	??_C@_1DG@OMECKGAB@?$AAp?$AAr?$AAo?$AAt?$AAo?$AA_?$AAc?$AAo?$AAm?$AA_?$AAt?$AAe?$AAx?$AAt?$AAu?$AAr?$AAe?$AA_?$AAg?$AAa?$AAr?$AAd?$AAm?$AAa?$AAs?$AAk?$AA?$AA@ ; `string'
PUBLIC	??_C@_1BG@KPBPOMBH@?$AAc?$AAo?$AAm?$AA_?$AAb?$AAu?$AAf?$AAf?$AAe?$AAr?$AA?$AA@ ; `string'
PUBLIC	??_C@_1DA@BAIPNHMH@?$AAp?$AAr?$AAo?$AAt?$AAo?$AA_?$AAc?$AAo?$AAm?$AA_?$AAv?$AAi?$AAb?$AAu?$AAf?$AAf?$AAe?$AAr?$AA_?$AAr?$AAe?$AAc?$AAt?$AA?$AA@ ; `string'
PUBLIC	??_C@_1CA@NLFBHNMH@?$AAc?$AAo?$AAm?$AA_?$AAs?$AAh?$AAa?$AAd?$AAe?$AAr?$AAt?$AAr?$AAa?$AAi?$AAl?$AA?$AA@ ; `string'
PUBLIC	??_C@_1CO@DKOHJLDJ@?$AAp?$AAr?$AAo?$AAt?$AAo?$AA_?$AAc?$AAo?$AAm?$AA_?$AAs?$AAh?$AAa?$AAd?$AAe?$AAr?$AA_?$AAt?$AAr?$AAa?$AAi?$AAl?$AA?$AA@ ; `string'
PUBLIC	??_C@_1CA@JKLCDBEM@?$AAc?$AAo?$AAm?$AA_?$AAb?$AAu?$AAf?$AAf?$AAe?$AAr?$AAt?$AAr?$AAa?$AAi?$AAl?$AA?$AA@ ; `string'
PUBLIC	??_C@_1CM@NMJMGJPG@?$AAc?$AAo?$AAm?$AA_?$AAt?$AAe?$AAx?$AAt?$AAu?$AAr?$AAe?$AA_?$AAm?$AAa?$AAs?$AAk?$AAt?$AAr?$AAa?$AAi?$AAl?$AA?$AA@ ; `string'
PUBLIC	??_C@_1DA@MGAJDFLL@?$AAp?$AAr?$AAo?$AAt?$AAo?$AA_?$AAc?$AAo?$AAm?$AA_?$AAt?$AAe?$AAx?$AAt?$AAu?$AAr?$AAe?$AA_?$AAt?$AAr?$AAa?$AAi?$AAl?$AA?$AA@ ; `string'
PUBLIC	??_C@_0P@BDEIJKBM@g_vCamPosition?$AA@		; `string'
PUBLIC	??_C@_0M@NHGOLGEL@g_vLightDir?$AA@		; `string'
PUBLIC	??_C@_0BA@PCOGIHOF@g_vLightDiffuse?$AA@		; `string'
PUBLIC	??_C@_0BB@IJIIKIH@g_vLightSpecular?$AA@		; `string'
PUBLIC	??_C@_0BA@EALGDMPJ@g_vLightAmbient?$AA@		; `string'
PUBLIC	?__LINE__Var@?0??Create@CThorn@Client@@SAPEAV23@PEAUID3D11Device@@PEAUID3D11DeviceContext@@@Z@4JA ; `Client::CThorn::Create'::`1'::__LINE__Var
PUBLIC	??_C@_0ED@NMCGMBOD@c?3?2users?2arcco?2documents?2github?2@ ; `string'
PUBLIC	??_C@_1BA@HHOMBECE@?$AAM?$AAe?$AAs?$AAs?$AAa?$AAg?$AAe?$AA?$AA@ ; `string'
PUBLIC	??_C@_1DE@ECNCIPJH@?$AAF?$AAa?$AAi?$AAl?$AAe?$AAd?$AA?5?$AAt?$AAo?$AA?5?$AAC?$AAr?$AAe?$AAa?$AAt?$AAe?$AA?5?$AA?3?$AA?5?$AAC?$AAT?$AAh?$AAo?$AAr?$AAn?$AA?$AA@ ; `string'
PUBLIC	?__LINE__Var@?0??Clone@CThorn@Client@@UEAAPEAVCGameObject@Engine@@PEAX@Z@4JA ; `Client::CThorn::Clone'::`1'::__LINE__Var
PUBLIC	??_C@_1DC@DHJPJPDL@?$AAF?$AAa?$AAi?$AAl?$AAe?$AAd?$AA?5?$AAt?$AAo?$AA?5?$AAC?$AAl?$AAo?$AAn?$AAe?$AA?5?$AA?3?$AA?5?$AAC?$AAT?$AAh?$AAo?$AAr?$AAn?$AA?$AA@ ; `string'
PUBLIC	??_R0?AVCGameObject@Engine@@@8			; Engine::CGameObject `RTTI Type Descriptor'
PUBLIC	??_R0?AVCCharacter@Client@@@8			; Client::CCharacter `RTTI Type Descriptor'
PUBLIC	??_R4CThorn@Client@@6BCGameObject@Engine@@@	; Client::CThorn::`RTTI Complete Object Locator'
PUBLIC	??_R0?AVCThorn@Client@@@8			; Client::CThorn `RTTI Type Descriptor'
PUBLIC	??_R3CThorn@Client@@8				; Client::CThorn::`RTTI Class Hierarchy Descriptor'
PUBLIC	??_R2CThorn@Client@@8				; Client::CThorn::`RTTI Base Class Array'
PUBLIC	??_R1A@?0A@EA@CThorn@Client@@8			; Client::CThorn::`RTTI Base Class Descriptor at (0,-1,0,64)'
PUBLIC	??_R1A@?0A@EA@CGameObject@Engine@@8		; Engine::CGameObject::`RTTI Base Class Descriptor at (0,-1,0,64)'
PUBLIC	??_R3CGameObject@Engine@@8			; Engine::CGameObject::`RTTI Class Hierarchy Descriptor'
PUBLIC	??_R2CGameObject@Engine@@8			; Engine::CGameObject::`RTTI Base Class Array'
PUBLIC	??_R1A@?0A@EA@CBase@Engine@@8			; Engine::CBase::`RTTI Base Class Descriptor at (0,-1,0,64)'
PUBLIC	??_R0?AVCBase@Engine@@@8			; Engine::CBase `RTTI Type Descriptor'
PUBLIC	??_R3CBase@Engine@@8				; Engine::CBase::`RTTI Class Hierarchy Descriptor'
PUBLIC	??_R2CBase@Engine@@8				; Engine::CBase::`RTTI Base Class Array'
PUBLIC	??_R1HI@?0A@EA@ISameObjectNoDetection@Engine@@8	; Engine::ISameObjectNoDetection::`RTTI Base Class Descriptor at (120,-1,0,64)'
PUBLIC	??_R0?AVISameObjectNoDetection@Engine@@@8	; Engine::ISameObjectNoDetection `RTTI Type Descriptor'
PUBLIC	??_R3ISameObjectNoDetection@Engine@@8		; Engine::ISameObjectNoDetection::`RTTI Class Hierarchy Descriptor'
PUBLIC	??_R2ISameObjectNoDetection@Engine@@8		; Engine::ISameObjectNoDetection::`RTTI Base Class Array'
PUBLIC	??_R1A@?0A@EA@ISameObjectNoDetection@Engine@@8	; Engine::ISameObjectNoDetection::`RTTI Base Class Descriptor at (0,-1,0,64)'
PUBLIC	??_R1IA@?0A@EA@IOnCollisionEnter@Engine@@8	; Engine::IOnCollisionEnter::`RTTI Base Class Descriptor at (128,-1,0,64)'
PUBLIC	??_R0?AVIOnCollisionEnter@Engine@@@8		; Engine::IOnCollisionEnter `RTTI Type Descriptor'
PUBLIC	??_R3IOnCollisionEnter@Engine@@8		; Engine::IOnCollisionEnter::`RTTI Class Hierarchy Descriptor'
PUBLIC	??_R2IOnCollisionEnter@Engine@@8		; Engine::IOnCollisionEnter::`RTTI Base Class Array'
PUBLIC	??_R1A@?0A@EA@IOnCollisionEnter@Engine@@8	; Engine::IOnCollisionEnter::`RTTI Base Class Descriptor at (0,-1,0,64)'
PUBLIC	??_R1II@?0A@EA@IOnCollisionStay@Engine@@8	; Engine::IOnCollisionStay::`RTTI Base Class Descriptor at (136,-1,0,64)'
PUBLIC	??_R0?AVIOnCollisionStay@Engine@@@8		; Engine::IOnCollisionStay `RTTI Type Descriptor'
PUBLIC	??_R3IOnCollisionStay@Engine@@8			; Engine::IOnCollisionStay::`RTTI Class Hierarchy Descriptor'
PUBLIC	??_R2IOnCollisionStay@Engine@@8			; Engine::IOnCollisionStay::`RTTI Base Class Array'
PUBLIC	??_R1A@?0A@EA@IOnCollisionStay@Engine@@8	; Engine::IOnCollisionStay::`RTTI Base Class Descriptor at (0,-1,0,64)'
PUBLIC	??_R1JA@?0A@EA@IOnCollisionExit@Engine@@8	; Engine::IOnCollisionExit::`RTTI Base Class Descriptor at (144,-1,0,64)'
PUBLIC	??_R0?AVIOnCollisionExit@Engine@@@8		; Engine::IOnCollisionExit `RTTI Type Descriptor'
PUBLIC	??_R3IOnCollisionExit@Engine@@8			; Engine::IOnCollisionExit::`RTTI Class Hierarchy Descriptor'
PUBLIC	??_R2IOnCollisionExit@Engine@@8			; Engine::IOnCollisionExit::`RTTI Base Class Array'
PUBLIC	??_R1A@?0A@EA@IOnCollisionExit@Engine@@8	; Engine::IOnCollisionExit::`RTTI Base Class Descriptor at (0,-1,0,64)'
PUBLIC	??_R4CThorn@Client@@6BISameObjectNoDetection@Engine@@@ ; Client::CThorn::`RTTI Complete Object Locator'
PUBLIC	??_R4CThorn@Client@@6BIOnCollisionEnter@Engine@@@ ; Client::CThorn::`RTTI Complete Object Locator'
PUBLIC	??_R4CThorn@Client@@6BIOnCollisionStay@Engine@@@ ; Client::CThorn::`RTTI Complete Object Locator'
PUBLIC	??_R4CThorn@Client@@6BIOnCollisionExit@Engine@@@ ; Client::CThorn::`RTTI Complete Object Locator'
PUBLIC	__real@3c23d70a
PUBLIC	__real@3c8efa35
PUBLIC	__real@3dcccccd
PUBLIC	__real@3e4ccccd
PUBLIC	__real@3e800000
PUBLIC	__real@3e99999a
PUBLIC	__real@3f000000
PUBLIC	__real@3f333333
PUBLIC	__real@3f4ccccd
PUBLIC	__real@3f800000
PUBLIC	__real@3fd3333340000000
PUBLIC	__real@40000000
PUBLIC	__real@4000000000000000
PUBLIC	__real@4014000000000000
PUBLIC	__real@40400000
PUBLIC	__real@40600000
PUBLIC	__real@40800000
PUBLIC	__real@41200000
PUBLIC	__real@41c80000
PUBLIC	__real@41f00000
PUBLIC	__real@42480000
PUBLIC	__real@42b40000
PUBLIC	__real@44610000
EXTRN	??3@YAXPEAX_K@Z:PROC				; operator delete
EXTRN	memset:PROC
EXTRN	__imp_MessageBoxW:PROC
EXTRN	__imp__wassert:PROC
EXTRN	__imp_powf:PROC
EXTRN	??2@YAPEAX_KHPEBDH@Z:PROC			; operator new
EXTRN	??3@YAXPEAXHPEBDH@Z:PROC			; operator delete
EXTRN	__imp_?Release@CBase@Engine@@QEAAKXZ:PROC
EXTRN	__imp_??0CGameObject@Engine@@IEAA@PEAUID3D11Device@@PEAUID3D11DeviceContext@@@Z:PROC
EXTRN	__imp_??0CGameObject@Engine@@IEAA@AEBV01@@Z:PROC
EXTRN	__imp_??1CGameObject@Engine@@MEAA@XZ:PROC
EXTRN	__imp_?Initialize_Prototype@CGameObject@Engine@@UEAAJXZ:PROC
EXTRN	__imp_?Initialize@CGameObject@Engine@@UEAAJPEAX@Z:PROC
EXTRN	__imp_?Tick@CGameObject@Engine@@UEAAXN@Z:PROC
EXTRN	__imp_?LateTick@CGameObject@Engine@@UEAAXN@Z:PROC
EXTRN	__imp_?Render@CGameObject@Engine@@UEAAJXZ:PROC
EXTRN	__imp_?Add_Component@CGameObject@Engine@@IEAAJIPEB_W0PEAPEAVCComponent@2@PEAX@Z:PROC
EXTRN	__imp_?Free@CGameObject@Engine@@UEAAXXZ:PROC
EXTRN	__imp_?Compare@CCollider@Engine@@QEAA_NPEAV12@@Z:PROC
EXTRN	__imp_?GetOwner@CCollider@Engine@@QEBAPEAVCGameObject@2@XZ:PROC
EXTRN	__imp_??0IOnCollisionEnter@Engine@@QEAA@XZ:PROC
EXTRN	__imp_??0IOnCollisionEnter@Engine@@QEAA@AEBV01@@Z:PROC
EXTRN	__imp_??0IOnCollisionStay@Engine@@QEAA@XZ:PROC
EXTRN	__imp_??0IOnCollisionStay@Engine@@QEAA@AEBV01@@Z:PROC
EXTRN	__imp_??0IOnCollisionExit@Engine@@QEAA@XZ:PROC
EXTRN	__imp_??0IOnCollisionExit@Engine@@QEAA@AEBV01@@Z:PROC
EXTRN	__imp_??0ISameObjectNoDetection@Engine@@QEAA@XZ:PROC
EXTRN	__imp_??0ISameObjectNoDetection@Engine@@QEAA@AEBV01@@Z:PROC
EXTRN	??_ECThorn@Client@@EEAAPEAXI@Z:PROC		; Client::CThorn::`vector deleting destructor'
EXTRN	__imp_?Setup_ShaderMaterialResource@CModel@Engine@@QEAAJPEAVCShader@2@PEBDIW4aiTextureType@@@Z:PROC
EXTRN	__imp_?Render@CModel@Engine@@QEAAJI@Z:PROC
EXTRN	__imp_?Get_MeshCount@CModel@Engine@@QEAAIXZ:PROC
EXTRN	__imp_?Update@CSphereCollider@Engine@@UEAAXUXMMATRIX@DirectX@@@Z:PROC
EXTRN	__imp_?Render@CVIBuffer@Engine@@UEAAJXZ:PROC
EXTRN	__imp_?Get_State@CTransform@Engine@@QEAA?AT__m128@@W4STATE@12@@Z:PROC
EXTRN	__imp_?Get_WorldMatrix@CTransform@Engine@@QEAA?AUXMFLOAT4X4@DirectX@@XZ:PROC
EXTRN	__imp_?Set_Scale@CTransform@Engine@@QEAAXUXMFLOAT3@DirectX@@@Z:PROC
EXTRN	__imp_?Set_State@CTransform@Engine@@QEAAXW4STATE@12@T__m128@@@Z:PROC
EXTRN	__imp_?SetRotationXYZ@CTransform@Engine@@QEAAXUXMFLOAT3@DirectX@@@Z:PROC
EXTRN	__imp_?SetRotation@CTransform@Engine@@QEAAXT__m128@@M@Z:PROC
EXTRN	__imp_?Rotate@CTransform@Engine@@QEAAXT__m128@@N@Z:PROC
EXTRN	__imp_?Setup_ShaderResource@CTransform@Engine@@QEAAJPEAVCShader@2@PEBD@Z:PROC
EXTRN	__imp_?Add_RenderGroup@CRenderer@Engine@@QEAAJW4RENDER_GROUP@12@PEAVCGameObject@2@@Z:PROC
EXTRN	__imp_?Setup_ShaderResource@CTexture@Engine@@QEAAJPEAVCShader@2@PEBDI@Z:PROC
EXTRN	__imp_?Begin@CShader@Engine@@QEAAJI@Z:PROC
EXTRN	__imp_?SetMatrix@CShader@Engine@@QEAAJPEBDPEBUXMFLOAT4X4@DirectX@@@Z:PROC
EXTRN	__imp_?SetRawValue@CShader@Engine@@QEAAJPEBDPEBXI@Z:PROC
EXTRN	__imp_?GetInstance@CPipeLine@Engine@@SAPEAV12@XZ:PROC
EXTRN	__imp_?Get_CamPosition@CPipeLine@Engine@@QEAA?AUXMFLOAT4@DirectX@@XZ:PROC
EXTRN	__imp_?GetInstance@CGameInstance@Engine@@SAPEAV12@XZ:PROC
EXTRN	__imp_?Get_Transform_float4x4@CGameInstance@Engine@@QEAA?AUXMFLOAT4X4@DirectX@@W4TRANSFORM_STATE@CPipeLine@2@@Z:PROC
EXTRN	__imp_?Get_CamPosition@CGameInstance@Engine@@QEAA?AUXMFLOAT4@DirectX@@XZ:PROC
EXTRN	__imp_?GetLightDesc@CGameInstance@Engine@@QEAAPEBUtagLight_Desc@2@I@Z:PROC
EXTRN	__imp_?AddCollider@CGameInstance@Engine@@QEAAJPEAVCCollider@2@I@Z:PROC
EXTRN	?GetInstance@CApplicationManager@Client@@SAPEAV12@XZ:PROC ; Client::CApplicationManager::GetInstance
EXTRN	?Hit@CCharacter@Client@@QEAAXXZ:PROC		; Client::CCharacter::Hit
EXTRN	?RecvDamage@CCharacter@Client@@QEAAXM@Z:PROC	; Client::CCharacter::RecvDamage
EXTRN	_RTC_CheckStackVars:PROC
EXTRN	_RTC_InitBase:PROC
EXTRN	_RTC_Shutdown:PROC
EXTRN	__CxxFrameHandler3:PROC
EXTRN	__GSHandlerCheck:PROC
EXTRN	__GSHandlerCheck_EH:PROC
EXTRN	__RTDynamicCast:PROC
EXTRN	__security_check_cookie:PROC
EXTRN	??_7type_info@@6B@:BYTE				; type_info::`vftable'
EXTRN	__security_cookie:QWORD
EXTRN	_fltused:DWORD
;	COMDAT pdata
pdata	SEGMENT
$pdata$??_H@YAXPEAX_K1P6APEAX0@Z@Z DD imagerel $LN7
	DD	imagerel $LN7+181
	DD	imagerel $unwind$??_H@YAXPEAX_K1P6APEAX0@Z@Z
pdata	ENDS
;	COMDAT pdata
pdata	SEGMENT
$pdata$?__empty_global_delete@@YAXPEAX@Z DD imagerel $LN3
	DD	imagerel $LN3+50
	DD	imagerel $unwind$?__empty_global_delete@@YAXPEAX@Z
pdata	ENDS
;	COMDAT pdata
pdata	SEGMENT
$pdata$?__empty_global_delete@@YAXPEAX_K@Z DD imagerel $LN3
	DD	imagerel $LN3+55
	DD	imagerel $unwind$?__empty_global_delete@@YAXPEAX_K@Z
pdata	ENDS
;	COMDAT pdata
pdata	SEGMENT
$pdata$?XMConvertToRadians@DirectX@@YAMM@Z DD imagerel $LN3
	DD	imagerel $LN3+61
	DD	imagerel $unwind$?XMConvertToRadians@DirectX@@YAMM@Z
pdata	ENDS
;	COMDAT pdata
pdata	SEGMENT
$pdata$??BXMVECTORI32@DirectX@@QEBA?AT__m128@@XZ DD imagerel $LN3
	DD	imagerel $LN3+82
	DD	imagerel $unwind$??BXMVECTORI32@DirectX@@QEBA?AT__m128@@XZ
pdata	ENDS
;	COMDAT pdata
pdata	SEGMENT
$pdata$??BXMVECTORU32@DirectX@@QEBA?AT__m128@@XZ DD imagerel $LN3
	DD	imagerel $LN3+82
	DD	imagerel $unwind$??BXMVECTORU32@DirectX@@QEBA?AT__m128@@XZ
pdata	ENDS
;	COMDAT pdata
pdata	SEGMENT
$pdata$??GDirectX@@YQ?AT__m128@@T1@@Z DD imagerel $LN3
	DD	imagerel $LN3+79
	DD	imagerel $unwind$??GDirectX@@YQ?AT__m128@@T1@@Z
pdata	ENDS
;	COMDAT pdata
pdata	SEGMENT
$pdata$??HDirectX@@YQ?AT__m128@@T1@0@Z DD imagerel $LN3
	DD	imagerel $LN3+99
	DD	imagerel $unwind$??HDirectX@@YQ?AT__m128@@T1@0@Z
pdata	ENDS
;	COMDAT pdata
pdata	SEGMENT
$pdata$??GDirectX@@YQ?AT__m128@@T1@0@Z DD imagerel $LN3
	DD	imagerel $LN3+99
	DD	imagerel $unwind$??GDirectX@@YQ?AT__m128@@T1@0@Z
pdata	ENDS
;	COMDAT pdata
pdata	SEGMENT
$pdata$??DDirectX@@YQ?AT__m128@@T1@M@Z DD imagerel $LN3
	DD	imagerel $LN3+92
	DD	imagerel $unwind$??DDirectX@@YQ?AT__m128@@T1@M@Z
pdata	ENDS
;	COMDAT pdata
pdata	SEGMENT
$pdata$??0XMMATRIX@DirectX@@QEAA@XZ DD imagerel $LN3
	DD	imagerel $LN3+57
	DD	imagerel $unwind$??0XMMATRIX@DirectX@@QEAA@XZ
pdata	ENDS
;	COMDAT pdata
pdata	SEGMENT
$pdata$??0XMFLOAT3@DirectX@@QEAA@XZ DD imagerel $LN3
	DD	imagerel $LN3+57
	DD	imagerel $unwind$??0XMFLOAT3@DirectX@@QEAA@XZ
pdata	ENDS
;	COMDAT pdata
pdata	SEGMENT
$pdata$??0XMFLOAT3@DirectX@@QEAA@MMM@Z DD imagerel $LN3
	DD	imagerel $LN3+134
	DD	imagerel $unwind$??0XMFLOAT3@DirectX@@QEAA@MMM@Z
pdata	ENDS
;	COMDAT pdata
pdata	SEGMENT
$pdata$??4XMFLOAT3@DirectX@@QEAAAEAU01@AEBU01@@Z DD imagerel $LN3
	DD	imagerel $LN3+132
	DD	imagerel $unwind$??4XMFLOAT3@DirectX@@QEAAAEAU01@AEBU01@@Z
pdata	ENDS
;	COMDAT pdata
pdata	SEGMENT
$pdata$?XMLoadFloat4@DirectX@@YQ?AT__m128@@PEBUXMFLOAT4@1@@Z DD imagerel $LN4
	DD	imagerel $LN4+119
	DD	imagerel $unwind$?XMLoadFloat4@DirectX@@YQ?AT__m128@@PEBUXMFLOAT4@1@@Z
pdata	ENDS
;	COMDAT pdata
pdata	SEGMENT
$pdata$?XMLoadFloat4x4@DirectX@@YQ?AUXMMATRIX@1@PEBUXMFLOAT4X4@1@@Z DD imagerel $LN4
	DD	imagerel $LN4+344
	DD	imagerel $unwind$?XMLoadFloat4x4@DirectX@@YQ?AUXMMATRIX@1@PEBUXMFLOAT4X4@1@@Z
pdata	ENDS
;	COMDAT pdata
pdata	SEGMENT
$pdata$?XMVectorSet@DirectX@@YQ?AT__m128@@MMMM@Z DD imagerel $LN3
	DD	imagerel $LN3+121
	DD	imagerel $unwind$?XMVectorSet@DirectX@@YQ?AT__m128@@MMMM@Z
pdata	ENDS
;	COMDAT pdata
pdata	SEGMENT
$pdata$?XMVectorGetX@DirectX@@YQMT__m128@@@Z DD imagerel $LN3
	DD	imagerel $LN3+76
	DD	imagerel $unwind$?XMVectorGetX@DirectX@@YQMT__m128@@@Z
pdata	ENDS
;	COMDAT pdata
pdata	SEGMENT
$pdata$?XMVectorGetY@DirectX@@YQMT__m128@@@Z DD imagerel $LN3
	DD	imagerel $LN3+103
	DD	imagerel $unwind$?XMVectorGetY@DirectX@@YQMT__m128@@@Z
pdata	ENDS
;	COMDAT pdata
pdata	SEGMENT
$pdata$?XMVectorSetY@DirectX@@YQ?AT__m128@@T2@M@Z DD imagerel $LN3
	DD	imagerel $LN3+185
	DD	imagerel $unwind$?XMVectorSetY@DirectX@@YQ?AT__m128@@T2@M@Z
pdata	ENDS
;	COMDAT pdata
pdata	SEGMENT
$pdata$?XMVectorNegate@DirectX@@YQ?AT__m128@@T2@@Z DD imagerel $LN3
	DD	imagerel $LN3+99
	DD	imagerel $unwind$?XMVectorNegate@DirectX@@YQ?AT__m128@@T2@@Z
pdata	ENDS
;	COMDAT pdata
pdata	SEGMENT
$pdata$?XMVectorAdd@DirectX@@YQ?AT__m128@@T2@0@Z DD imagerel $LN3
	DD	imagerel $LN3+94
	DD	imagerel $unwind$?XMVectorAdd@DirectX@@YQ?AT__m128@@T2@0@Z
pdata	ENDS
;	COMDAT pdata
pdata	SEGMENT
$pdata$?XMVectorSubtract@DirectX@@YQ?AT__m128@@T2@0@Z DD imagerel $LN3
	DD	imagerel $LN3+94
	DD	imagerel $unwind$?XMVectorSubtract@DirectX@@YQ?AT__m128@@T2@0@Z
pdata	ENDS
;	COMDAT pdata
pdata	SEGMENT
$pdata$?XMVectorScale@DirectX@@YQ?AT__m128@@T2@M@Z DD imagerel $LN3
	DD	imagerel $LN3+113
	DD	imagerel $unwind$?XMVectorScale@DirectX@@YQ?AT__m128@@T2@M@Z
pdata	ENDS
;	COMDAT pdata
pdata	SEGMENT
$pdata$?XMVector3Cross@DirectX@@YQ?AT__m128@@T2@0@Z DD imagerel $LN3
	DD	imagerel $LN3+328
	DD	imagerel $unwind$?XMVector3Cross@DirectX@@YQ?AT__m128@@T2@0@Z
pdata	ENDS
;	COMDAT pdata
pdata	SEGMENT
$pdata$?XMVector3Length@DirectX@@YQ?AT__m128@@T2@@Z DD imagerel $LN3
	DD	imagerel $LN3+243
	DD	imagerel $unwind$?XMVector3Length@DirectX@@YQ?AT__m128@@T2@@Z
pdata	ENDS
;	COMDAT pdata
pdata	SEGMENT
$pdata$?XMVector3Normalize@DirectX@@YQ?AT__m128@@T2@@Z DD imagerel $LN3
	DD	imagerel $LN3+535
	DD	imagerel $unwind$?XMVector3Normalize@DirectX@@YQ?AT__m128@@T2@@Z
pdata	ENDS
;	COMDAT pdata
pdata	SEGMENT
$pdata$??0tagColliderDesc@CCollider@Engine@@QEAA@XZ DD imagerel $LN3
	DD	imagerel $LN3+116
	DD	imagerel $unwind$??0tagColliderDesc@CCollider@Engine@@QEAA@XZ
pdata	ENDS
;	COMDAT pdata
pdata	SEGMENT
$pdata$??0CThorn@Client@@AEAA@PEAUID3D11Device@@PEAUID3D11DeviceContext@@@Z DD imagerel $LN4
	DD	imagerel $LN4+1031
	DD	imagerel $unwind$??0CThorn@Client@@AEAA@PEAUID3D11Device@@PEAUID3D11DeviceContext@@@Z
pdata	ENDS
;	COMDAT pdata
pdata	SEGMENT
$pdata$?dtor$0@?0???0CThorn@Client@@AEAA@PEAUID3D11Device@@PEAUID3D11DeviceContext@@@Z@4HA DD imagerel ?dtor$0@?0???0CThorn@Client@@AEAA@PEAUID3D11Device@@PEAUID3D11DeviceContext@@@Z@4HA
	DD	imagerel ?dtor$0@?0???0CThorn@Client@@AEAA@PEAUID3D11Device@@PEAUID3D11DeviceContext@@@Z@4HA+40
	DD	imagerel $unwind$?dtor$0@?0???0CThorn@Client@@AEAA@PEAUID3D11Device@@PEAUID3D11DeviceContext@@@Z@4HA
pdata	ENDS
;	COMDAT pdata
pdata	SEGMENT
$pdata$??1CThorn@Client@@EEAA@XZ DD imagerel $LN3
	DD	imagerel $LN3+65
	DD	imagerel $unwind$??1CThorn@Client@@EEAA@XZ
pdata	ENDS
;	COMDAT pdata
pdata	SEGMENT
$pdata$?Initialize_Prototype@CThorn@Client@@UEAAJXZ DD imagerel $LN4
	DD	imagerel $LN4+78
	DD	imagerel $unwind$?Initialize_Prototype@CThorn@Client@@UEAAJXZ
pdata	ENDS
;	COMDAT pdata
pdata	SEGMENT
$pdata$?Initialize@CThorn@Client@@UEAAJPEAX@Z DD imagerel $LN5
	DD	imagerel $LN5+520
	DD	imagerel $unwind$?Initialize@CThorn@Client@@UEAAJPEAX@Z
pdata	ENDS
;	COMDAT pdata
pdata	SEGMENT
$pdata$?Tick@CThorn@Client@@UEAAXN@Z DD imagerel $LN12
	DD	imagerel $LN12+667
	DD	imagerel $unwind$?Tick@CThorn@Client@@UEAAXN@Z
pdata	ENDS
;	COMDAT pdata
pdata	SEGMENT
$pdata$?LateTick@CThorn@Client@@UEAAXN@Z DD imagerel $LN11
	DD	imagerel $LN11+566
	DD	imagerel $unwind$?LateTick@CThorn@Client@@UEAAXN@Z
pdata	ENDS
;	COMDAT pdata
pdata	SEGMENT
$pdata$?Render@CThorn@Client@@UEAAJXZ DD imagerel $LN26
	DD	imagerel $LN26+1355
	DD	imagerel $unwind$?Render@CThorn@Client@@UEAAJXZ
pdata	ENDS
;	COMDAT pdata
pdata	SEGMENT
$pdata$?RenderGUI@CThorn@Client@@UEAAXXZ DD imagerel $LN3
	DD	imagerel $LN3+50
	DD	imagerel $unwind$?RenderGUI@CThorn@Client@@UEAAXXZ
pdata	ENDS
;	COMDAT pdata
pdata	SEGMENT
$pdata$?GetLengthFromCamera@CThorn@Client@@UEAAMXZ DD imagerel $LN3
	DD	imagerel $LN3+262
	DD	imagerel $unwind$?GetLengthFromCamera@CThorn@Client@@UEAAMXZ
pdata	ENDS
;	COMDAT pdata
pdata	SEGMENT
$pdata$?Reset@CThorn@Client@@QEAAXXZ DD imagerel $LN3
	DD	imagerel $LN3+464
	DD	imagerel $unwind$?Reset@CThorn@Client@@QEAAXXZ
pdata	ENDS
;	COMDAT pdata
pdata	SEGMENT
$pdata$?SetPosition@CThorn@Client@@QEAAXT__m128@@@Z DD imagerel $LN4
	DD	imagerel $LN4+329
	DD	imagerel $unwind$?SetPosition@CThorn@Client@@QEAAXT__m128@@@Z
pdata	ENDS
;	COMDAT pdata
pdata	SEGMENT
$pdata$?SetRotationXYZ@CThorn@Client@@QEAAXUXMFLOAT3@DirectX@@@Z DD imagerel $LN4
	DD	imagerel $LN4+127
	DD	imagerel $unwind$?SetRotationXYZ@CThorn@Client@@QEAAXUXMFLOAT3@DirectX@@@Z
pdata	ENDS
;	COMDAT pdata
pdata	SEGMENT
$pdata$?SetRotationToTarget@CThorn@Client@@QEAAXT__m128@@@Z DD imagerel $LN3
	DD	imagerel $LN3+641
	DD	imagerel $unwind$?SetRotationToTarget@CThorn@Client@@QEAAXT__m128@@@Z
pdata	ENDS
;	COMDAT pdata
pdata	SEGMENT
$pdata$?SetupScaleUpStart@CThorn@Client@@QEAAXM@Z DD imagerel $LN3
	DD	imagerel $LN3+107
	DD	imagerel $unwind$?SetupScaleUpStart@CThorn@Client@@QEAAXM@Z
pdata	ENDS
;	COMDAT pdata
pdata	SEGMENT
$pdata$?SetupScaleUpDownStart@CThorn@Client@@QEAAXM@Z DD imagerel $LN3
	DD	imagerel $LN3+107
	DD	imagerel $unwind$?SetupScaleUpDownStart@CThorn@Client@@QEAAXM@Z
pdata	ENDS
;	COMDAT pdata
pdata	SEGMENT
$pdata$?SetupScaleSmoothUpStart@CThorn@Client@@QEAAXM@Z DD imagerel $LN3
	DD	imagerel $LN3+107
	DD	imagerel $unwind$?SetupScaleSmoothUpStart@CThorn@Client@@QEAAXM@Z
pdata	ENDS
;	COMDAT pdata
pdata	SEGMENT
$pdata$?SetupScaleSmoothDownStart@CThorn@Client@@QEAAXXZ DD imagerel $LN3
	DD	imagerel $LN3+64
	DD	imagerel $unwind$?SetupScaleSmoothDownStart@CThorn@Client@@QEAAXXZ
pdata	ENDS
;	COMDAT pdata
pdata	SEGMENT
$pdata$?ScaleUpProcess@CThorn@Client@@QEAA_NN@Z DD imagerel $LN8
	DD	imagerel $LN8+795
	DD	imagerel $unwind$?ScaleUpProcess@CThorn@Client@@QEAA_NN@Z
pdata	ENDS
;	COMDAT pdata
pdata	SEGMENT
$pdata$?ScaleUpSmoothProcess@CThorn@Client@@QEAA_NN@Z DD imagerel $LN8
	DD	imagerel $LN8+795
	DD	imagerel $unwind$?ScaleUpSmoothProcess@CThorn@Client@@QEAA_NN@Z
pdata	ENDS
;	COMDAT pdata
pdata	SEGMENT
$pdata$?ScaleDownSmoothProcess@CThorn@Client@@QEAA_NN@Z DD imagerel $LN6
	DD	imagerel $LN6+731
	DD	imagerel $unwind$?ScaleDownSmoothProcess@CThorn@Client@@QEAA_NN@Z
pdata	ENDS
;	COMDAT pdata
pdata	SEGMENT
$pdata$?MoveProcess@CThorn@Client@@QEAA_NN@Z DD imagerel $LN5
	DD	imagerel $LN5+1074
	DD	imagerel $unwind$?MoveProcess@CThorn@Client@@QEAA_NN@Z
pdata	ENDS
;	COMDAT pdata
pdata	SEGMENT
$pdata$?IsScaleFinish@CThorn@Client@@QEAA_NXZ DD imagerel $LN3
	DD	imagerel $LN3+64
	DD	imagerel $unwind$?IsScaleFinish@CThorn@Client@@QEAA_NXZ
pdata	ENDS
;	COMDAT pdata
pdata	SEGMENT
$pdata$?AddComponents@CThorn@Client@@AEAAJXZ DD imagerel $LN20
	DD	imagerel $LN20+1467
	DD	imagerel $unwind$?AddComponents@CThorn@Client@@AEAAJXZ
pdata	ENDS
;	COMDAT pdata
pdata	SEGMENT
$pdata$?SetupShaderResources@CThorn@Client@@AEAAJXZ DD imagerel $LN12
	DD	imagerel $LN12+545
	DD	imagerel $unwind$?SetupShaderResources@CThorn@Client@@AEAAJXZ
pdata	ENDS
;	COMDAT pdata
pdata	SEGMENT
$pdata$?SameObjectNoDetection@CThorn@Client@@EEAAXXZ DD imagerel $LN3
	DD	imagerel $LN3+50
	DD	imagerel $unwind$?SameObjectNoDetection@CThorn@Client@@EEAAXXZ
pdata	ENDS
;	COMDAT pdata
pdata	SEGMENT
$pdata$?OnCollisionEnter@CThorn@Client@@EEAAXPEAVCCollider@Engine@@0@Z DD imagerel $LN9
	DD	imagerel $LN9+236
	DD	imagerel $unwind$?OnCollisionEnter@CThorn@Client@@EEAAXPEAVCCollider@Engine@@0@Z
pdata	ENDS
;	COMDAT pdata
pdata	SEGMENT
$pdata$?OnCollisionStay@CThorn@Client@@EEAAXPEAVCCollider@Engine@@0@Z DD imagerel $LN3
	DD	imagerel $LN3+60
	DD	imagerel $unwind$?OnCollisionStay@CThorn@Client@@EEAAXPEAVCCollider@Engine@@0@Z
pdata	ENDS
;	COMDAT pdata
pdata	SEGMENT
$pdata$?OnCollisionExit@CThorn@Client@@EEAAXPEAVCCollider@Engine@@0@Z DD imagerel $LN3
	DD	imagerel $LN3+60
	DD	imagerel $unwind$?OnCollisionExit@CThorn@Client@@EEAAXPEAVCCollider@Engine@@0@Z
pdata	ENDS
;	COMDAT pdata
pdata	SEGMENT
$pdata$?Create@CThorn@Client@@SAPEAV12@PEAUID3D11Device@@PEAUID3D11DeviceContext@@@Z DD imagerel $LN7
	DD	imagerel $LN7+294
	DD	imagerel $unwind$?Create@CThorn@Client@@SAPEAV12@PEAUID3D11Device@@PEAUID3D11DeviceContext@@@Z
pdata	ENDS
;	COMDAT pdata
pdata	SEGMENT
$pdata$?dtor$0@?0??Create@CThorn@Client@@SAPEAV12@PEAUID3D11Device@@PEAUID3D11DeviceContext@@@Z@4HA DD imagerel ?dtor$0@?0??Create@CThorn@Client@@SAPEAV12@PEAUID3D11Device@@PEAUID3D11DeviceContext@@@Z@4HA
	DD	imagerel ?dtor$0@?0??Create@CThorn@Client@@SAPEAV12@PEAUID3D11Device@@PEAUID3D11DeviceContext@@@Z@4HA+61
	DD	imagerel $unwind$?dtor$0@?0??Create@CThorn@Client@@SAPEAV12@PEAUID3D11Device@@PEAUID3D11DeviceContext@@@Z@4HA
pdata	ENDS
;	COMDAT pdata
pdata	SEGMENT
$pdata$?Clone@CThorn@Client@@UEAAPEAVCGameObject@Engine@@PEAX@Z DD imagerel $LN7
	DD	imagerel $LN7+294
	DD	imagerel $unwind$?Clone@CThorn@Client@@UEAAPEAVCGameObject@Engine@@PEAX@Z
pdata	ENDS
;	COMDAT pdata
pdata	SEGMENT
$pdata$?dtor$0@?0??Clone@CThorn@Client@@UEAAPEAVCGameObject@Engine@@PEAX@Z@4HA DD imagerel ?dtor$0@?0??Clone@CThorn@Client@@UEAAPEAVCGameObject@Engine@@PEAX@Z@4HA
	DD	imagerel ?dtor$0@?0??Clone@CThorn@Client@@UEAAPEAVCGameObject@Engine@@PEAX@Z@4HA+61
	DD	imagerel $unwind$?dtor$0@?0??Clone@CThorn@Client@@UEAAPEAVCGameObject@Engine@@PEAX@Z@4HA
pdata	ENDS
;	COMDAT pdata
pdata	SEGMENT
$pdata$?Free@CThorn@Client@@UEAAXXZ DD imagerel $LN3
	DD	imagerel $LN3+422
	DD	imagerel $unwind$?Free@CThorn@Client@@UEAAXXZ
pdata	ENDS
;	COMDAT pdata
pdata	SEGMENT
$pdata$??0CThorn@Client@@QEAA@AEBV01@@Z DD imagerel $LN12
	DD	imagerel $LN12+1607
	DD	imagerel $unwind$??0CThorn@Client@@QEAA@AEBV01@@Z
pdata	ENDS
;	COMDAT pdata
pdata	SEGMENT
$pdata$??_GCThorn@Client@@EEAAPEAXI@Z DD imagerel $LN4
	DD	imagerel $LN4+105
	DD	imagerel $unwind$??_GCThorn@Client@@EEAAPEAXI@Z
pdata	ENDS
;	COMDAT pdata
pdata	SEGMENT
$pdata$?IsFreeze@CApplicationManager@Client@@QEBA_NXZ DD imagerel $LN3
	DD	imagerel $LN3+61
	DD	imagerel $unwind$?IsFreeze@CApplicationManager@Client@@QEBA_NXZ
pdata	ENDS
;	COMDAT pdata
pdata	SEGMENT
$pdata$?GetBodyCollider@CCharacter@Client@@QEBAPEAVCCollider@Engine@@XZ DD imagerel $LN3
	DD	imagerel $LN3+64
	DD	imagerel $unwind$?GetBodyCollider@CCharacter@Client@@QEBAPEAVCCollider@Engine@@XZ
pdata	ENDS
;	COMDAT pdata
pdata	SEGMENT
$pdata$??$Safe_Release@PEAVCThorn@Client@@@Engine@@YAKAEAPEAVCThorn@Client@@@Z DD imagerel $LN5
	DD	imagerel $LN5+114
	DD	imagerel $unwind$??$Safe_Release@PEAVCThorn@Client@@@Engine@@YAKAEAPEAVCThorn@Client@@@Z
pdata	ENDS
;	COMDAT pdata
pdata	SEGMENT
$pdata$??$Safe_Release@PEAVCSphereCollider@Engine@@@Engine@@YAKAEAPEAVCSphereCollider@0@@Z DD imagerel $LN5
	DD	imagerel $LN5+114
	DD	imagerel $unwind$??$Safe_Release@PEAVCSphereCollider@Engine@@@Engine@@YAKAEAPEAVCSphereCollider@0@@Z
pdata	ENDS
;	COMDAT pdata
pdata	SEGMENT
$pdata$??$Safe_Release@PEAVCRenderer@Engine@@@Engine@@YAKAEAPEAVCRenderer@0@@Z DD imagerel $LN5
	DD	imagerel $LN5+114
	DD	imagerel $unwind$??$Safe_Release@PEAVCRenderer@Engine@@@Engine@@YAKAEAPEAVCRenderer@0@@Z
pdata	ENDS
;	COMDAT pdata
pdata	SEGMENT
$pdata$??$Safe_Release@PEAVCTransform@Engine@@@Engine@@YAKAEAPEAVCTransform@0@@Z DD imagerel $LN5
	DD	imagerel $LN5+114
	DD	imagerel $unwind$??$Safe_Release@PEAVCTransform@Engine@@@Engine@@YAKAEAPEAVCTransform@0@@Z
pdata	ENDS
;	COMDAT pdata
pdata	SEGMENT
$pdata$??$Safe_Release@PEAVCModel@Engine@@@Engine@@YAKAEAPEAVCModel@0@@Z DD imagerel $LN5
	DD	imagerel $LN5+114
	DD	imagerel $unwind$??$Safe_Release@PEAVCModel@Engine@@@Engine@@YAKAEAPEAVCModel@0@@Z
pdata	ENDS
;	COMDAT pdata
pdata	SEGMENT
$pdata$??$Safe_Release@PEAVCShader@Engine@@@Engine@@YAKAEAPEAVCShader@0@@Z DD imagerel $LN5
	DD	imagerel $LN5+114
	DD	imagerel $unwind$??$Safe_Release@PEAVCShader@Engine@@@Engine@@YAKAEAPEAVCShader@0@@Z
pdata	ENDS
;	COMDAT pdata
pdata	SEGMENT
$pdata$??$Safe_Release@PEAVCVIBuffer_Rect@Engine@@@Engine@@YAKAEAPEAVCVIBuffer_Rect@0@@Z DD imagerel $LN5
	DD	imagerel $LN5+114
	DD	imagerel $unwind$??$Safe_Release@PEAVCVIBuffer_Rect@Engine@@@Engine@@YAKAEAPEAVCVIBuffer_Rect@0@@Z
pdata	ENDS
;	COMDAT pdata
pdata	SEGMENT
$pdata$??$Safe_Release@PEAVCTexture@Engine@@@Engine@@YAKAEAPEAVCTexture@0@@Z DD imagerel $LN5
	DD	imagerel $LN5+114
	DD	imagerel $unwind$??$Safe_Release@PEAVCTexture@Engine@@@Engine@@YAKAEAPEAVCTexture@0@@Z
pdata	ENDS
;	COMDAT __real@44610000
CONST	SEGMENT
__real@44610000 DD 044610000r			; 900
CONST	ENDS
;	COMDAT __real@42b40000
CONST	SEGMENT
__real@42b40000 DD 042b40000r			; 90
CONST	ENDS
;	COMDAT __real@42480000
CONST	SEGMENT
__real@42480000 DD 042480000r			; 50
CONST	ENDS
;	COMDAT __real@41f00000
CONST	SEGMENT
__real@41f00000 DD 041f00000r			; 30
CONST	ENDS
;	COMDAT __real@41c80000
CONST	SEGMENT
__real@41c80000 DD 041c80000r			; 25
CONST	ENDS
;	COMDAT __real@41200000
CONST	SEGMENT
__real@41200000 DD 041200000r			; 10
CONST	ENDS
;	COMDAT __real@40800000
CONST	SEGMENT
__real@40800000 DD 040800000r			; 4
CONST	ENDS
;	COMDAT __real@40600000
CONST	SEGMENT
__real@40600000 DD 040600000r			; 3.5
CONST	ENDS
;	COMDAT __real@40400000
CONST	SEGMENT
__real@40400000 DD 040400000r			; 3
CONST	ENDS
;	COMDAT __real@4014000000000000
CONST	SEGMENT
__real@4014000000000000 DQ 04014000000000000r	; 5
CONST	ENDS
;	COMDAT __real@4000000000000000
CONST	SEGMENT
__real@4000000000000000 DQ 04000000000000000r	; 2
CONST	ENDS
;	COMDAT __real@40000000
CONST	SEGMENT
__real@40000000 DD 040000000r			; 2
CONST	ENDS
;	COMDAT __real@3fd3333340000000
CONST	SEGMENT
__real@3fd3333340000000 DQ 03fd3333340000000r	; 0.3
CONST	ENDS
;	COMDAT __real@3f800000
CONST	SEGMENT
__real@3f800000 DD 03f800000r			; 1
CONST	ENDS
;	COMDAT __real@3f4ccccd
CONST	SEGMENT
__real@3f4ccccd DD 03f4ccccdr			; 0.8
CONST	ENDS
;	COMDAT __real@3f333333
CONST	SEGMENT
__real@3f333333 DD 03f333333r			; 0.7
CONST	ENDS
;	COMDAT __real@3f000000
CONST	SEGMENT
__real@3f000000 DD 03f000000r			; 0.5
CONST	ENDS
;	COMDAT __real@3e99999a
CONST	SEGMENT
__real@3e99999a DD 03e99999ar			; 0.3
CONST	ENDS
;	COMDAT __real@3e800000
CONST	SEGMENT
__real@3e800000 DD 03e800000r			; 0.25
CONST	ENDS
;	COMDAT __real@3e4ccccd
CONST	SEGMENT
__real@3e4ccccd DD 03e4ccccdr			; 0.2
CONST	ENDS
;	COMDAT __real@3dcccccd
CONST	SEGMENT
__real@3dcccccd DD 03dcccccdr			; 0.1
CONST	ENDS
;	COMDAT __real@3c8efa35
CONST	SEGMENT
__real@3c8efa35 DD 03c8efa35r			; 0.0174533
CONST	ENDS
;	COMDAT __real@3c23d70a
CONST	SEGMENT
__real@3c23d70a DD 03c23d70ar			; 0.01
CONST	ENDS
;	COMDAT rtc$TMZ
rtc$TMZ	SEGMENT
_RTC_Shutdown.rtc$TMZ DQ FLAT:_RTC_Shutdown
rtc$TMZ	ENDS
;	COMDAT rtc$IMZ
rtc$IMZ	SEGMENT
_RTC_InitBase.rtc$IMZ DQ FLAT:_RTC_InitBase
rtc$IMZ	ENDS
;	COMDAT ??_R4CThorn@Client@@6BIOnCollisionExit@Engine@@@
rdata$r	SEGMENT
??_R4CThorn@Client@@6BIOnCollisionExit@Engine@@@ DD 01H	; Client::CThorn::`RTTI Complete Object Locator'
	DD	090H
	DD	00H
	DD	imagerel ??_R0?AVCThorn@Client@@@8
	DD	imagerel ??_R3CThorn@Client@@8
	DD	imagerel ??_R4CThorn@Client@@6BIOnCollisionExit@Engine@@@
rdata$r	ENDS
;	COMDAT ??_R4CThorn@Client@@6BIOnCollisionStay@Engine@@@
rdata$r	SEGMENT
??_R4CThorn@Client@@6BIOnCollisionStay@Engine@@@ DD 01H	; Client::CThorn::`RTTI Complete Object Locator'
	DD	088H
	DD	00H
	DD	imagerel ??_R0?AVCThorn@Client@@@8
	DD	imagerel ??_R3CThorn@Client@@8
	DD	imagerel ??_R4CThorn@Client@@6BIOnCollisionStay@Engine@@@
rdata$r	ENDS
;	COMDAT ??_R4CThorn@Client@@6BIOnCollisionEnter@Engine@@@
rdata$r	SEGMENT
??_R4CThorn@Client@@6BIOnCollisionEnter@Engine@@@ DD 01H ; Client::CThorn::`RTTI Complete Object Locator'
	DD	080H
	DD	00H
	DD	imagerel ??_R0?AVCThorn@Client@@@8
	DD	imagerel ??_R3CThorn@Client@@8
	DD	imagerel ??_R4CThorn@Client@@6BIOnCollisionEnter@Engine@@@
rdata$r	ENDS
;	COMDAT ??_R4CThorn@Client@@6BISameObjectNoDetection@Engine@@@
rdata$r	SEGMENT
??_R4CThorn@Client@@6BISameObjectNoDetection@Engine@@@ DD 01H ; Client::CThorn::`RTTI Complete Object Locator'
	DD	078H
	DD	00H
	DD	imagerel ??_R0?AVCThorn@Client@@@8
	DD	imagerel ??_R3CThorn@Client@@8
	DD	imagerel ??_R4CThorn@Client@@6BISameObjectNoDetection@Engine@@@
rdata$r	ENDS
;	COMDAT ??_R1A@?0A@EA@IOnCollisionExit@Engine@@8
rdata$r	SEGMENT
??_R1A@?0A@EA@IOnCollisionExit@Engine@@8 DD imagerel ??_R0?AVIOnCollisionExit@Engine@@@8 ; Engine::IOnCollisionExit::`RTTI Base Class Descriptor at (0,-1,0,64)'
	DD	00H
	DD	00H
	DD	0ffffffffH
	DD	00H
	DD	040H
	DD	imagerel ??_R3IOnCollisionExit@Engine@@8
rdata$r	ENDS
;	COMDAT ??_R2IOnCollisionExit@Engine@@8
rdata$r	SEGMENT
??_R2IOnCollisionExit@Engine@@8 DD imagerel ??_R1A@?0A@EA@IOnCollisionExit@Engine@@8 ; Engine::IOnCollisionExit::`RTTI Base Class Array'
	ORG $+3
rdata$r	ENDS
;	COMDAT ??_R3IOnCollisionExit@Engine@@8
rdata$r	SEGMENT
??_R3IOnCollisionExit@Engine@@8 DD 00H			; Engine::IOnCollisionExit::`RTTI Class Hierarchy Descriptor'
	DD	00H
	DD	01H
	DD	imagerel ??_R2IOnCollisionExit@Engine@@8
rdata$r	ENDS
;	COMDAT ??_R0?AVIOnCollisionExit@Engine@@@8
data$r	SEGMENT
??_R0?AVIOnCollisionExit@Engine@@@8 DQ FLAT:??_7type_info@@6B@ ; Engine::IOnCollisionExit `RTTI Type Descriptor'
	DQ	0000000000000000H
	DB	'.?AVIOnCollisionExit@Engine@@', 00H
data$r	ENDS
;	COMDAT ??_R1JA@?0A@EA@IOnCollisionExit@Engine@@8
rdata$r	SEGMENT
??_R1JA@?0A@EA@IOnCollisionExit@Engine@@8 DD imagerel ??_R0?AVIOnCollisionExit@Engine@@@8 ; Engine::IOnCollisionExit::`RTTI Base Class Descriptor at (144,-1,0,64)'
	DD	00H
	DD	090H
	DD	0ffffffffH
	DD	00H
	DD	040H
	DD	imagerel ??_R3IOnCollisionExit@Engine@@8
rdata$r	ENDS
;	COMDAT ??_R1A@?0A@EA@IOnCollisionStay@Engine@@8
rdata$r	SEGMENT
??_R1A@?0A@EA@IOnCollisionStay@Engine@@8 DD imagerel ??_R0?AVIOnCollisionStay@Engine@@@8 ; Engine::IOnCollisionStay::`RTTI Base Class Descriptor at (0,-1,0,64)'
	DD	00H
	DD	00H
	DD	0ffffffffH
	DD	00H
	DD	040H
	DD	imagerel ??_R3IOnCollisionStay@Engine@@8
rdata$r	ENDS
;	COMDAT ??_R2IOnCollisionStay@Engine@@8
rdata$r	SEGMENT
??_R2IOnCollisionStay@Engine@@8 DD imagerel ??_R1A@?0A@EA@IOnCollisionStay@Engine@@8 ; Engine::IOnCollisionStay::`RTTI Base Class Array'
	ORG $+3
rdata$r	ENDS
;	COMDAT ??_R3IOnCollisionStay@Engine@@8
rdata$r	SEGMENT
??_R3IOnCollisionStay@Engine@@8 DD 00H			; Engine::IOnCollisionStay::`RTTI Class Hierarchy Descriptor'
	DD	00H
	DD	01H
	DD	imagerel ??_R2IOnCollisionStay@Engine@@8
rdata$r	ENDS
;	COMDAT ??_R0?AVIOnCollisionStay@Engine@@@8
data$r	SEGMENT
??_R0?AVIOnCollisionStay@Engine@@@8 DQ FLAT:??_7type_info@@6B@ ; Engine::IOnCollisionStay `RTTI Type Descriptor'
	DQ	0000000000000000H
	DB	'.?AVIOnCollisionStay@Engine@@', 00H
data$r	ENDS
;	COMDAT ??_R1II@?0A@EA@IOnCollisionStay@Engine@@8
rdata$r	SEGMENT
??_R1II@?0A@EA@IOnCollisionStay@Engine@@8 DD imagerel ??_R0?AVIOnCollisionStay@Engine@@@8 ; Engine::IOnCollisionStay::`RTTI Base Class Descriptor at (136,-1,0,64)'
	DD	00H
	DD	088H
	DD	0ffffffffH
	DD	00H
	DD	040H
	DD	imagerel ??_R3IOnCollisionStay@Engine@@8
rdata$r	ENDS
;	COMDAT ??_R1A@?0A@EA@IOnCollisionEnter@Engine@@8
rdata$r	SEGMENT
??_R1A@?0A@EA@IOnCollisionEnter@Engine@@8 DD imagerel ??_R0?AVIOnCollisionEnter@Engine@@@8 ; Engine::IOnCollisionEnter::`RTTI Base Class Descriptor at (0,-1,0,64)'
	DD	00H
	DD	00H
	DD	0ffffffffH
	DD	00H
	DD	040H
	DD	imagerel ??_R3IOnCollisionEnter@Engine@@8
rdata$r	ENDS
;	COMDAT ??_R2IOnCollisionEnter@Engine@@8
rdata$r	SEGMENT
??_R2IOnCollisionEnter@Engine@@8 DD imagerel ??_R1A@?0A@EA@IOnCollisionEnter@Engine@@8 ; Engine::IOnCollisionEnter::`RTTI Base Class Array'
	ORG $+3
rdata$r	ENDS
;	COMDAT ??_R3IOnCollisionEnter@Engine@@8
rdata$r	SEGMENT
??_R3IOnCollisionEnter@Engine@@8 DD 00H			; Engine::IOnCollisionEnter::`RTTI Class Hierarchy Descriptor'
	DD	00H
	DD	01H
	DD	imagerel ??_R2IOnCollisionEnter@Engine@@8
rdata$r	ENDS
;	COMDAT ??_R0?AVIOnCollisionEnter@Engine@@@8
data$r	SEGMENT
??_R0?AVIOnCollisionEnter@Engine@@@8 DQ FLAT:??_7type_info@@6B@ ; Engine::IOnCollisionEnter `RTTI Type Descriptor'
	DQ	0000000000000000H
	DB	'.?AVIOnCollisionEnter@Engine@@', 00H
data$r	ENDS
;	COMDAT ??_R1IA@?0A@EA@IOnCollisionEnter@Engine@@8
rdata$r	SEGMENT
??_R1IA@?0A@EA@IOnCollisionEnter@Engine@@8 DD imagerel ??_R0?AVIOnCollisionEnter@Engine@@@8 ; Engine::IOnCollisionEnter::`RTTI Base Class Descriptor at (128,-1,0,64)'
	DD	00H
	DD	080H
	DD	0ffffffffH
	DD	00H
	DD	040H
	DD	imagerel ??_R3IOnCollisionEnter@Engine@@8
rdata$r	ENDS
;	COMDAT ??_R1A@?0A@EA@ISameObjectNoDetection@Engine@@8
rdata$r	SEGMENT
??_R1A@?0A@EA@ISameObjectNoDetection@Engine@@8 DD imagerel ??_R0?AVISameObjectNoDetection@Engine@@@8 ; Engine::ISameObjectNoDetection::`RTTI Base Class Descriptor at (0,-1,0,64)'
	DD	00H
	DD	00H
	DD	0ffffffffH
	DD	00H
	DD	040H
	DD	imagerel ??_R3ISameObjectNoDetection@Engine@@8
rdata$r	ENDS
;	COMDAT ??_R2ISameObjectNoDetection@Engine@@8
rdata$r	SEGMENT
??_R2ISameObjectNoDetection@Engine@@8 DD imagerel ??_R1A@?0A@EA@ISameObjectNoDetection@Engine@@8 ; Engine::ISameObjectNoDetection::`RTTI Base Class Array'
	ORG $+3
rdata$r	ENDS
;	COMDAT ??_R3ISameObjectNoDetection@Engine@@8
rdata$r	SEGMENT
??_R3ISameObjectNoDetection@Engine@@8 DD 00H		; Engine::ISameObjectNoDetection::`RTTI Class Hierarchy Descriptor'
	DD	00H
	DD	01H
	DD	imagerel ??_R2ISameObjectNoDetection@Engine@@8
rdata$r	ENDS
;	COMDAT ??_R0?AVISameObjectNoDetection@Engine@@@8
data$r	SEGMENT
??_R0?AVISameObjectNoDetection@Engine@@@8 DQ FLAT:??_7type_info@@6B@ ; Engine::ISameObjectNoDetection `RTTI Type Descriptor'
	DQ	0000000000000000H
	DB	'.?AVISameObjectNoDetection@Engine@@', 00H
data$r	ENDS
;	COMDAT ??_R1HI@?0A@EA@ISameObjectNoDetection@Engine@@8
rdata$r	SEGMENT
??_R1HI@?0A@EA@ISameObjectNoDetection@Engine@@8 DD imagerel ??_R0?AVISameObjectNoDetection@Engine@@@8 ; Engine::ISameObjectNoDetection::`RTTI Base Class Descriptor at (120,-1,0,64)'
	DD	00H
	DD	078H
	DD	0ffffffffH
	DD	00H
	DD	040H
	DD	imagerel ??_R3ISameObjectNoDetection@Engine@@8
rdata$r	ENDS
;	COMDAT ??_R2CBase@Engine@@8
rdata$r	SEGMENT
??_R2CBase@Engine@@8 DD imagerel ??_R1A@?0A@EA@CBase@Engine@@8 ; Engine::CBase::`RTTI Base Class Array'
	ORG $+3
rdata$r	ENDS
;	COMDAT ??_R3CBase@Engine@@8
rdata$r	SEGMENT
??_R3CBase@Engine@@8 DD 00H				; Engine::CBase::`RTTI Class Hierarchy Descriptor'
	DD	00H
	DD	01H
	DD	imagerel ??_R2CBase@Engine@@8
rdata$r	ENDS
;	COMDAT ??_R0?AVCBase@Engine@@@8
data$r	SEGMENT
??_R0?AVCBase@Engine@@@8 DQ FLAT:??_7type_info@@6B@	; Engine::CBase `RTTI Type Descriptor'
	DQ	0000000000000000H
	DB	'.?AVCBase@Engine@@', 00H
data$r	ENDS
;	COMDAT ??_R1A@?0A@EA@CBase@Engine@@8
rdata$r	SEGMENT
??_R1A@?0A@EA@CBase@Engine@@8 DD imagerel ??_R0?AVCBase@Engine@@@8 ; Engine::CBase::`RTTI Base Class Descriptor at (0,-1,0,64)'
	DD	00H
	DD	00H
	DD	0ffffffffH
	DD	00H
	DD	040H
	DD	imagerel ??_R3CBase@Engine@@8
rdata$r	ENDS
;	COMDAT ??_R2CGameObject@Engine@@8
rdata$r	SEGMENT
??_R2CGameObject@Engine@@8 DD imagerel ??_R1A@?0A@EA@CGameObject@Engine@@8 ; Engine::CGameObject::`RTTI Base Class Array'
	DD	imagerel ??_R1A@?0A@EA@CBase@Engine@@8
	ORG $+3
rdata$r	ENDS
;	COMDAT ??_R3CGameObject@Engine@@8
rdata$r	SEGMENT
??_R3CGameObject@Engine@@8 DD 00H			; Engine::CGameObject::`RTTI Class Hierarchy Descriptor'
	DD	00H
	DD	02H
	DD	imagerel ??_R2CGameObject@Engine@@8
rdata$r	ENDS
;	COMDAT ??_R1A@?0A@EA@CGameObject@Engine@@8
rdata$r	SEGMENT
??_R1A@?0A@EA@CGameObject@Engine@@8 DD imagerel ??_R0?AVCGameObject@Engine@@@8 ; Engine::CGameObject::`RTTI Base Class Descriptor at (0,-1,0,64)'
	DD	01H
	DD	00H
	DD	0ffffffffH
	DD	00H
	DD	040H
	DD	imagerel ??_R3CGameObject@Engine@@8
rdata$r	ENDS
;	COMDAT ??_R1A@?0A@EA@CThorn@Client@@8
rdata$r	SEGMENT
??_R1A@?0A@EA@CThorn@Client@@8 DD imagerel ??_R0?AVCThorn@Client@@@8 ; Client::CThorn::`RTTI Base Class Descriptor at (0,-1,0,64)'
	DD	06H
	DD	00H
	DD	0ffffffffH
	DD	00H
	DD	040H
	DD	imagerel ??_R3CThorn@Client@@8
rdata$r	ENDS
;	COMDAT ??_R2CThorn@Client@@8
rdata$r	SEGMENT
??_R2CThorn@Client@@8 DD imagerel ??_R1A@?0A@EA@CThorn@Client@@8 ; Client::CThorn::`RTTI Base Class Array'
	DD	imagerel ??_R1A@?0A@EA@CGameObject@Engine@@8
	DD	imagerel ??_R1A@?0A@EA@CBase@Engine@@8
	DD	imagerel ??_R1HI@?0A@EA@ISameObjectNoDetection@Engine@@8
	DD	imagerel ??_R1IA@?0A@EA@IOnCollisionEnter@Engine@@8
	DD	imagerel ??_R1II@?0A@EA@IOnCollisionStay@Engine@@8
	DD	imagerel ??_R1JA@?0A@EA@IOnCollisionExit@Engine@@8
	ORG $+3
rdata$r	ENDS
;	COMDAT ??_R3CThorn@Client@@8
rdata$r	SEGMENT
??_R3CThorn@Client@@8 DD 00H				; Client::CThorn::`RTTI Class Hierarchy Descriptor'
	DD	01H
	DD	07H
	DD	imagerel ??_R2CThorn@Client@@8
rdata$r	ENDS
;	COMDAT ??_R0?AVCThorn@Client@@@8
data$r	SEGMENT
??_R0?AVCThorn@Client@@@8 DQ FLAT:??_7type_info@@6B@	; Client::CThorn `RTTI Type Descriptor'
	DQ	0000000000000000H
	DB	'.?AVCThorn@Client@@', 00H
data$r	ENDS
;	COMDAT ??_R4CThorn@Client@@6BCGameObject@Engine@@@
rdata$r	SEGMENT
??_R4CThorn@Client@@6BCGameObject@Engine@@@ DD 01H	; Client::CThorn::`RTTI Complete Object Locator'
	DD	00H
	DD	00H
	DD	imagerel ??_R0?AVCThorn@Client@@@8
	DD	imagerel ??_R3CThorn@Client@@8
	DD	imagerel ??_R4CThorn@Client@@6BCGameObject@Engine@@@
rdata$r	ENDS
;	COMDAT ??_R0?AVCCharacter@Client@@@8
data$r	SEGMENT
??_R0?AVCCharacter@Client@@@8 DQ FLAT:??_7type_info@@6B@ ; Client::CCharacter `RTTI Type Descriptor'
	DQ	0000000000000000H
	DB	'.?AVCCharacter@Client@@', 00H
data$r	ENDS
;	COMDAT ??_R0?AVCGameObject@Engine@@@8
data$r	SEGMENT
??_R0?AVCGameObject@Engine@@@8 DQ FLAT:??_7type_info@@6B@ ; Engine::CGameObject `RTTI Type Descriptor'
	DQ	0000000000000000H
	DB	'.?AVCGameObject@Engine@@', 00H
data$r	ENDS
;	COMDAT ??_C@_1DC@DHJPJPDL@?$AAF?$AAa?$AAi?$AAl?$AAe?$AAd?$AA?5?$AAt?$AAo?$AA?5?$AAC?$AAl?$AAo?$AAn?$AAe?$AA?5?$AA?3?$AA?5?$AAC?$AAT?$AAh?$AAo?$AAr?$AAn?$AA?$AA@
CONST	SEGMENT
??_C@_1DC@DHJPJPDL@?$AAF?$AAa?$AAi?$AAl?$AAe?$AAd?$AA?5?$AAt?$AAo?$AA?5?$AAC?$AAl?$AAo?$AAn?$AAe?$AA?5?$AA?3?$AA?5?$AAC?$AAT?$AAh?$AAo?$AAr?$AAn?$AA?$AA@ DB 'F'
	DB	00H, 'a', 00H, 'i', 00H, 'l', 00H, 'e', 00H, 'd', 00H, ' ', 00H
	DB	't', 00H, 'o', 00H, ' ', 00H, 'C', 00H, 'l', 00H, 'o', 00H, 'n'
	DB	00H, 'e', 00H, ' ', 00H, ':', 00H, ' ', 00H, 'C', 00H, 'T', 00H
	DB	'h', 00H, 'o', 00H, 'r', 00H, 'n', 00H, 00H, 00H ; `string'
CONST	ENDS
;	COMDAT ?__LINE__Var@?0??Clone@CThorn@Client@@UEAAPEAVCGameObject@Engine@@PEAX@Z@4JA
_DATA	SEGMENT
?__LINE__Var@?0??Clone@CThorn@Client@@UEAAPEAVCGameObject@Engine@@PEAX@Z@4JA DD 0237H ; `Client::CThorn::Clone'::`1'::__LINE__Var
_DATA	ENDS
;	COMDAT ??_C@_1DE@ECNCIPJH@?$AAF?$AAa?$AAi?$AAl?$AAe?$AAd?$AA?5?$AAt?$AAo?$AA?5?$AAC?$AAr?$AAe?$AAa?$AAt?$AAe?$AA?5?$AA?3?$AA?5?$AAC?$AAT?$AAh?$AAo?$AAr?$AAn?$AA?$AA@
CONST	SEGMENT
??_C@_1DE@ECNCIPJH@?$AAF?$AAa?$AAi?$AAl?$AAe?$AAd?$AA?5?$AAt?$AAo?$AA?5?$AAC?$AAr?$AAe?$AAa?$AAt?$AAe?$AA?5?$AA?3?$AA?5?$AAC?$AAT?$AAh?$AAo?$AAr?$AAn?$AA?$AA@ DB 'F'
	DB	00H, 'a', 00H, 'i', 00H, 'l', 00H, 'e', 00H, 'd', 00H, ' ', 00H
	DB	't', 00H, 'o', 00H, ' ', 00H, 'C', 00H, 'r', 00H, 'e', 00H, 'a'
	DB	00H, 't', 00H, 'e', 00H, ' ', 00H, ':', 00H, ' ', 00H, 'C', 00H
	DB	'T', 00H, 'h', 00H, 'o', 00H, 'r', 00H, 'n', 00H, 00H, 00H ; `string'
CONST	ENDS
;	COMDAT ??_C@_1BA@HHOMBECE@?$AAM?$AAe?$AAs?$AAs?$AAa?$AAg?$AAe?$AA?$AA@
CONST	SEGMENT
??_C@_1BA@HHOMBECE@?$AAM?$AAe?$AAs?$AAs?$AAa?$AAg?$AAe?$AA?$AA@ DB 'M', 00H
	DB	'e', 00H, 's', 00H, 's', 00H, 'a', 00H, 'g', 00H, 'e', 00H, 00H
	DB	00H						; `string'
CONST	ENDS
;	COMDAT ??_C@_0ED@NMCGMBOD@c?3?2users?2arcco?2documents?2github?2@
CONST	SEGMENT
??_C@_0ED@NMCGMBOD@c?3?2users?2arcco?2documents?2github?2@ DB 'c:\users\a'
	DB	'rcco\documents\github\framework\client\private\thorn.cpp', 00H ; `string'
CONST	ENDS
;	COMDAT ?__LINE__Var@?0??Create@CThorn@Client@@SAPEAV23@PEAUID3D11Device@@PEAUID3D11DeviceContext@@@Z@4JA
_DATA	SEGMENT
?__LINE__Var@?0??Create@CThorn@Client@@SAPEAV23@PEAUID3D11Device@@PEAUID3D11DeviceContext@@@Z@4JA DD 022bH ; `Client::CThorn::Create'::`1'::__LINE__Var
_DATA	ENDS
;	COMDAT ??_C@_0BA@EALGDMPJ@g_vLightAmbient?$AA@
CONST	SEGMENT
??_C@_0BA@EALGDMPJ@g_vLightAmbient?$AA@ DB 'g_vLightAmbient', 00H ; `string'
CONST	ENDS
;	COMDAT ??_C@_0BB@IJIIKIH@g_vLightSpecular?$AA@
CONST	SEGMENT
??_C@_0BB@IJIIKIH@g_vLightSpecular?$AA@ DB 'g_vLightSpecular', 00H ; `string'
CONST	ENDS
;	COMDAT ??_C@_0BA@PCOGIHOF@g_vLightDiffuse?$AA@
CONST	SEGMENT
??_C@_0BA@PCOGIHOF@g_vLightDiffuse?$AA@ DB 'g_vLightDiffuse', 00H ; `string'
CONST	ENDS
;	COMDAT ??_C@_0M@NHGOLGEL@g_vLightDir?$AA@
CONST	SEGMENT
??_C@_0M@NHGOLGEL@g_vLightDir?$AA@ DB 'g_vLightDir', 00H ; `string'
CONST	ENDS
;	COMDAT ??_C@_0P@BDEIJKBM@g_vCamPosition?$AA@
CONST	SEGMENT
??_C@_0P@BDEIJKBM@g_vCamPosition?$AA@ DB 'g_vCamPosition', 00H ; `string'
CONST	ENDS
;	COMDAT ??_C@_1DA@MGAJDFLL@?$AAp?$AAr?$AAo?$AAt?$AAo?$AA_?$AAc?$AAo?$AAm?$AA_?$AAt?$AAe?$AAx?$AAt?$AAu?$AAr?$AAe?$AA_?$AAt?$AAr?$AAa?$AAi?$AAl?$AA?$AA@
CONST	SEGMENT
??_C@_1DA@MGAJDFLL@?$AAp?$AAr?$AAo?$AAt?$AAo?$AA_?$AAc?$AAo?$AAm?$AA_?$AAt?$AAe?$AAx?$AAt?$AAu?$AAr?$AAe?$AA_?$AAt?$AAr?$AAa?$AAi?$AAl?$AA?$AA@ DB 'p'
	DB	00H, 'r', 00H, 'o', 00H, 't', 00H, 'o', 00H, '_', 00H, 'c', 00H
	DB	'o', 00H, 'm', 00H, '_', 00H, 't', 00H, 'e', 00H, 'x', 00H, 't'
	DB	00H, 'u', 00H, 'r', 00H, 'e', 00H, '_', 00H, 't', 00H, 'r', 00H
	DB	'a', 00H, 'i', 00H, 'l', 00H, 00H, 00H	; `string'
CONST	ENDS
;	COMDAT ??_C@_1CM@NMJMGJPG@?$AAc?$AAo?$AAm?$AA_?$AAt?$AAe?$AAx?$AAt?$AAu?$AAr?$AAe?$AA_?$AAm?$AAa?$AAs?$AAk?$AAt?$AAr?$AAa?$AAi?$AAl?$AA?$AA@
CONST	SEGMENT
??_C@_1CM@NMJMGJPG@?$AAc?$AAo?$AAm?$AA_?$AAt?$AAe?$AAx?$AAt?$AAu?$AAr?$AAe?$AA_?$AAm?$AAa?$AAs?$AAk?$AAt?$AAr?$AAa?$AAi?$AAl?$AA?$AA@ DB 'c'
	DB	00H, 'o', 00H, 'm', 00H, '_', 00H, 't', 00H, 'e', 00H, 'x', 00H
	DB	't', 00H, 'u', 00H, 'r', 00H, 'e', 00H, '_', 00H, 'm', 00H, 'a'
	DB	00H, 's', 00H, 'k', 00H, 't', 00H, 'r', 00H, 'a', 00H, 'i', 00H
	DB	'l', 00H, 00H, 00H				; `string'
CONST	ENDS
;	COMDAT ??_C@_1CA@JKLCDBEM@?$AAc?$AAo?$AAm?$AA_?$AAb?$AAu?$AAf?$AAf?$AAe?$AAr?$AAt?$AAr?$AAa?$AAi?$AAl?$AA?$AA@
CONST	SEGMENT
??_C@_1CA@JKLCDBEM@?$AAc?$AAo?$AAm?$AA_?$AAb?$AAu?$AAf?$AAf?$AAe?$AAr?$AAt?$AAr?$AAa?$AAi?$AAl?$AA?$AA@ DB 'c'
	DB	00H, 'o', 00H, 'm', 00H, '_', 00H, 'b', 00H, 'u', 00H, 'f', 00H
	DB	'f', 00H, 'e', 00H, 'r', 00H, 't', 00H, 'r', 00H, 'a', 00H, 'i'
	DB	00H, 'l', 00H, 00H, 00H			; `string'
CONST	ENDS
;	COMDAT ??_C@_1CO@DKOHJLDJ@?$AAp?$AAr?$AAo?$AAt?$AAo?$AA_?$AAc?$AAo?$AAm?$AA_?$AAs?$AAh?$AAa?$AAd?$AAe?$AAr?$AA_?$AAt?$AAr?$AAa?$AAi?$AAl?$AA?$AA@
CONST	SEGMENT
??_C@_1CO@DKOHJLDJ@?$AAp?$AAr?$AAo?$AAt?$AAo?$AA_?$AAc?$AAo?$AAm?$AA_?$AAs?$AAh?$AAa?$AAd?$AAe?$AAr?$AA_?$AAt?$AAr?$AAa?$AAi?$AAl?$AA?$AA@ DB 'p'
	DB	00H, 'r', 00H, 'o', 00H, 't', 00H, 'o', 00H, '_', 00H, 'c', 00H
	DB	'o', 00H, 'm', 00H, '_', 00H, 's', 00H, 'h', 00H, 'a', 00H, 'd'
	DB	00H, 'e', 00H, 'r', 00H, '_', 00H, 't', 00H, 'r', 00H, 'a', 00H
	DB	'i', 00H, 'l', 00H, 00H, 00H			; `string'
CONST	ENDS
;	COMDAT ??_C@_1CA@NLFBHNMH@?$AAc?$AAo?$AAm?$AA_?$AAs?$AAh?$AAa?$AAd?$AAe?$AAr?$AAt?$AAr?$AAa?$AAi?$AAl?$AA?$AA@
CONST	SEGMENT
??_C@_1CA@NLFBHNMH@?$AAc?$AAo?$AAm?$AA_?$AAs?$AAh?$AAa?$AAd?$AAe?$AAr?$AAt?$AAr?$AAa?$AAi?$AAl?$AA?$AA@ DB 'c'
	DB	00H, 'o', 00H, 'm', 00H, '_', 00H, 's', 00H, 'h', 00H, 'a', 00H
	DB	'd', 00H, 'e', 00H, 'r', 00H, 't', 00H, 'r', 00H, 'a', 00H, 'i'
	DB	00H, 'l', 00H, 00H, 00H			; `string'
CONST	ENDS
;	COMDAT ??_C@_1DA@BAIPNHMH@?$AAp?$AAr?$AAo?$AAt?$AAo?$AA_?$AAc?$AAo?$AAm?$AA_?$AAv?$AAi?$AAb?$AAu?$AAf?$AAf?$AAe?$AAr?$AA_?$AAr?$AAe?$AAc?$AAt?$AA?$AA@
CONST	SEGMENT
??_C@_1DA@BAIPNHMH@?$AAp?$AAr?$AAo?$AAt?$AAo?$AA_?$AAc?$AAo?$AAm?$AA_?$AAv?$AAi?$AAb?$AAu?$AAf?$AAf?$AAe?$AAr?$AA_?$AAr?$AAe?$AAc?$AAt?$AA?$AA@ DB 'p'
	DB	00H, 'r', 00H, 'o', 00H, 't', 00H, 'o', 00H, '_', 00H, 'c', 00H
	DB	'o', 00H, 'm', 00H, '_', 00H, 'v', 00H, 'i', 00H, 'b', 00H, 'u'
	DB	00H, 'f', 00H, 'f', 00H, 'e', 00H, 'r', 00H, '_', 00H, 'r', 00H
	DB	'e', 00H, 'c', 00H, 't', 00H, 00H, 00H	; `string'
CONST	ENDS
;	COMDAT ??_C@_1BG@KPBPOMBH@?$AAc?$AAo?$AAm?$AA_?$AAb?$AAu?$AAf?$AAf?$AAe?$AAr?$AA?$AA@
CONST	SEGMENT
??_C@_1BG@KPBPOMBH@?$AAc?$AAo?$AAm?$AA_?$AAb?$AAu?$AAf?$AAf?$AAe?$AAr?$AA?$AA@ DB 'c'
	DB	00H, 'o', 00H, 'm', 00H, '_', 00H, 'b', 00H, 'u', 00H, 'f', 00H
	DB	'f', 00H, 'e', 00H, 'r', 00H, 00H, 00H	; `string'
CONST	ENDS
;	COMDAT ??_C@_1DG@OMECKGAB@?$AAp?$AAr?$AAo?$AAt?$AAo?$AA_?$AAc?$AAo?$AAm?$AA_?$AAt?$AAe?$AAx?$AAt?$AAu?$AAr?$AAe?$AA_?$AAg?$AAa?$AAr?$AAd?$AAm?$AAa?$AAs?$AAk?$AA?$AA@
CONST	SEGMENT
??_C@_1DG@OMECKGAB@?$AAp?$AAr?$AAo?$AAt?$AAo?$AA_?$AAc?$AAo?$AAm?$AA_?$AAt?$AAe?$AAx?$AAt?$AAu?$AAr?$AAe?$AA_?$AAg?$AAa?$AAr?$AAd?$AAm?$AAa?$AAs?$AAk?$AA?$AA@ DB 'p'
	DB	00H, 'r', 00H, 'o', 00H, 't', 00H, 'o', 00H, '_', 00H, 'c', 00H
	DB	'o', 00H, 'm', 00H, '_', 00H, 't', 00H, 'e', 00H, 'x', 00H, 't'
	DB	00H, 'u', 00H, 'r', 00H, 'e', 00H, '_', 00H, 'g', 00H, 'a', 00H
	DB	'r', 00H, 'd', 00H, 'm', 00H, 'a', 00H, 's', 00H, 'k', 00H, 00H
	DB	00H						; `string'
CONST	ENDS
;	COMDAT ??_C@_1CK@ECFCAHLG@?$AAc?$AAo?$AAm?$AA_?$AAt?$AAe?$AAx?$AAt?$AAu?$AAr?$AAe?$AA_?$AAg?$AAa?$AAr?$AAd?$AAm?$AAa?$AAs?$AAk?$AA?$AA@
CONST	SEGMENT
??_C@_1CK@ECFCAHLG@?$AAc?$AAo?$AAm?$AA_?$AAt?$AAe?$AAx?$AAt?$AAu?$AAr?$AAe?$AA_?$AAg?$AAa?$AAr?$AAd?$AAm?$AAa?$AAs?$AAk?$AA?$AA@ DB 'c'
	DB	00H, 'o', 00H, 'm', 00H, '_', 00H, 't', 00H, 'e', 00H, 'x', 00H
	DB	't', 00H, 'u', 00H, 'r', 00H, 'e', 00H, '_', 00H, 'g', 00H, 'a'
	DB	00H, 'r', 00H, 'd', 00H, 'm', 00H, 'a', 00H, 's', 00H, 'k', 00H
	DB	00H, 00H					; `string'
CONST	ENDS
;	COMDAT ??_C@_1DI@LAEBNKBN@?$AAp?$AAr?$AAo?$AAt?$AAo?$AA_?$AAc?$AAo?$AAm?$AA_?$AAt?$AAe?$AAx?$AAt?$AAu?$AAr?$AAe?$AA_?$AAt?$AAh?$AAo?$AAr?$AAn?$AAm?$AAa?$AAs?$AAk?$AA?$AA@
CONST	SEGMENT
??_C@_1DI@LAEBNKBN@?$AAp?$AAr?$AAo?$AAt?$AAo?$AA_?$AAc?$AAo?$AAm?$AA_?$AAt?$AAe?$AAx?$AAt?$AAu?$AAr?$AAe?$AA_?$AAt?$AAh?$AAo?$AAr?$AAn?$AAm?$AAa?$AAs?$AAk?$AA?$AA@ DB 'p'
	DB	00H, 'r', 00H, 'o', 00H, 't', 00H, 'o', 00H, '_', 00H, 'c', 00H
	DB	'o', 00H, 'm', 00H, '_', 00H, 't', 00H, 'e', 00H, 'x', 00H, 't'
	DB	00H, 'u', 00H, 'r', 00H, 'e', 00H, '_', 00H, 't', 00H, 'h', 00H
	DB	'o', 00H, 'r', 00H, 'n', 00H, 'm', 00H, 'a', 00H, 's', 00H, 'k'
	DB	00H, 00H, 00H				; `string'
CONST	ENDS
;	COMDAT ??_C@_1CC@CLEGOIHO@?$AAc?$AAo?$AAm?$AA_?$AAt?$AAe?$AAx?$AAt?$AAu?$AAr?$AAe?$AA_?$AAm?$AAa?$AAs?$AAk?$AA?$AA@
CONST	SEGMENT
??_C@_1CC@CLEGOIHO@?$AAc?$AAo?$AAm?$AA_?$AAt?$AAe?$AAx?$AAt?$AAu?$AAr?$AAe?$AA_?$AAm?$AAa?$AAs?$AAk?$AA?$AA@ DB 'c'
	DB	00H, 'o', 00H, 'm', 00H, '_', 00H, 't', 00H, 'e', 00H, 'x', 00H
	DB	't', 00H, 'u', 00H, 'r', 00H, 'e', 00H, '_', 00H, 'm', 00H, 'a'
	DB	00H, 's', 00H, 'k', 00H, 00H, 00H		; `string'
CONST	ENDS
;	COMDAT ??_C@_1DO@HAGCFBOL@?$AAp?$AAr?$AAo?$AAt?$AAo?$AA_?$AAc?$AAo?$AAm?$AA_?$AAt?$AAe?$AAx?$AAt?$AAu?$AAr?$AAe?$AA_?$AAt?$AAh?$AAo?$AAr?$AAn?$AAd?$AAi?$AAf?$AAf?$AAu?$AAs?$AAe?$AA?$AA@
CONST	SEGMENT
??_C@_1DO@HAGCFBOL@?$AAp?$AAr?$AAo?$AAt?$AAo?$AA_?$AAc?$AAo?$AAm?$AA_?$AAt?$AAe?$AAx?$AAt?$AAu?$AAr?$AAe?$AA_?$AAt?$AAh?$AAo?$AAr?$AAn?$AAd?$AAi?$AAf?$AAf?$AAu?$AAs?$AAe?$AA?$AA@ DB 'p'
	DB	00H, 'r', 00H, 'o', 00H, 't', 00H, 'o', 00H, '_', 00H, 'c', 00H
	DB	'o', 00H, 'm', 00H, '_', 00H, 't', 00H, 'e', 00H, 'x', 00H, 't'
	DB	00H, 'u', 00H, 'r', 00H, 'e', 00H, '_', 00H, 't', 00H, 'h', 00H
	DB	'o', 00H, 'r', 00H, 'n', 00H, 'd', 00H, 'i', 00H, 'f', 00H, 'f'
	DB	00H, 'u', 00H, 's', 00H, 'e', 00H, 00H, 00H	; `string'
CONST	ENDS
;	COMDAT ??_C@_1CI@EJHCKIFB@?$AAc?$AAo?$AAm?$AA_?$AAt?$AAe?$AAx?$AAt?$AAu?$AAr?$AAe?$AA_?$AAd?$AAi?$AAf?$AAf?$AAu?$AAs?$AAe?$AA?$AA@
CONST	SEGMENT
??_C@_1CI@EJHCKIFB@?$AAc?$AAo?$AAm?$AA_?$AAt?$AAe?$AAx?$AAt?$AAu?$AAr?$AAe?$AA_?$AAd?$AAi?$AAf?$AAf?$AAu?$AAs?$AAe?$AA?$AA@ DB 'c'
	DB	00H, 'o', 00H, 'm', 00H, '_', 00H, 't', 00H, 'e', 00H, 'x', 00H
	DB	't', 00H, 'u', 00H, 'r', 00H, 'e', 00H, '_', 00H, 'd', 00H, 'i'
	DB	00H, 'f', 00H, 'f', 00H, 'u', 00H, 's', 00H, 'e', 00H, 00H, 00H ; `string'
CONST	ENDS
;	COMDAT ??_C@_1CM@EIJDBIDJ@?$AAc?$AAo?$AAm?$AA_?$AAt?$AAr?$AAa?$AAn?$AAs?$AA_?$AAf?$AAl?$AAo?$AAo?$AAr?$AAe?$AAf?$AAe?$AAe?$AAc?$AAt?$AA?$AA@
CONST	SEGMENT
??_C@_1CM@EIJDBIDJ@?$AAc?$AAo?$AAm?$AA_?$AAt?$AAr?$AAa?$AAn?$AAs?$AA_?$AAf?$AAl?$AAo?$AAo?$AAr?$AAe?$AAf?$AAe?$AAe?$AAc?$AAt?$AA?$AA@ DB 'c'
	DB	00H, 'o', 00H, 'm', 00H, '_', 00H, 't', 00H, 'r', 00H, 'a', 00H
	DB	'n', 00H, 's', 00H, '_', 00H, 'f', 00H, 'l', 00H, 'o', 00H, 'o'
	DB	00H, 'r', 00H, 'e', 00H, 'f', 00H, 'e', 00H, 'e', 00H, 'c', 00H
	DB	't', 00H, 00H, 00H				; `string'
CONST	ENDS
;	COMDAT ??_C@_1DE@OCAJEKIC@?$AAp?$AAr?$AAo?$AAt?$AAo?$AA_?$AAc?$AAo?$AAm?$AA_?$AAs?$AAp?$AAh?$AAe?$AAr?$AAe?$AA_?$AAc?$AAo?$AAl?$AAl?$AAi?$AAd?$AAe?$AAr?$AA?$AA@
CONST	SEGMENT
??_C@_1DE@OCAJEKIC@?$AAp?$AAr?$AAo?$AAt?$AAo?$AA_?$AAc?$AAo?$AAm?$AA_?$AAs?$AAp?$AAh?$AAe?$AAr?$AAe?$AA_?$AAc?$AAo?$AAl?$AAl?$AAi?$AAd?$AAe?$AAr?$AA?$AA@ DB 'p'
	DB	00H, 'r', 00H, 'o', 00H, 't', 00H, 'o', 00H, '_', 00H, 'c', 00H
	DB	'o', 00H, 'm', 00H, '_', 00H, 's', 00H, 'p', 00H, 'h', 00H, 'e'
	DB	00H, 'r', 00H, 'e', 00H, '_', 00H, 'c', 00H, 'o', 00H, 'l', 00H
	DB	'l', 00H, 'i', 00H, 'd', 00H, 'e', 00H, 'r', 00H, 00H, 00H ; `string'
CONST	ENDS
;	COMDAT ??_C@_1BK@BKCENIHA@?$AAc?$AAo?$AAm?$AA_?$AAc?$AAo?$AAl?$AAl?$AAi?$AAd?$AAe?$AAr?$AA?$AA@
CONST	SEGMENT
??_C@_1BK@BKCENIHA@?$AAc?$AAo?$AAm?$AA_?$AAc?$AAo?$AAl?$AAl?$AAi?$AAd?$AAe?$AAr?$AA?$AA@ DB 'c'
	DB	00H, 'o', 00H, 'm', 00H, '_', 00H, 'c', 00H, 'o', 00H, 'l', 00H
	DB	'l', 00H, 'i', 00H, 'd', 00H, 'e', 00H, 'r', 00H, 00H, 00H ; `string'
CONST	ENDS
;	COMDAT ??_C@_1CM@NLPIEOMO@?$AAp?$AAr?$AAo?$AAt?$AAo?$AA_?$AAc?$AAo?$AAm?$AA_?$AAm?$AAo?$AAd?$AAe?$AAl?$AA_?$AAt?$AAh?$AAo?$AAr?$AAn?$AA?$AA@
CONST	SEGMENT
??_C@_1CM@NLPIEOMO@?$AAp?$AAr?$AAo?$AAt?$AAo?$AA_?$AAc?$AAo?$AAm?$AA_?$AAm?$AAo?$AAd?$AAe?$AAl?$AA_?$AAt?$AAh?$AAo?$AAr?$AAn?$AA?$AA@ DB 'p'
	DB	00H, 'r', 00H, 'o', 00H, 't', 00H, 'o', 00H, '_', 00H, 'c', 00H
	DB	'o', 00H, 'm', 00H, '_', 00H, 'm', 00H, 'o', 00H, 'd', 00H, 'e'
	DB	00H, 'l', 00H, '_', 00H, 't', 00H, 'h', 00H, 'o', 00H, 'r', 00H
	DB	'n', 00H, 00H, 00H				; `string'
CONST	ENDS
;	COMDAT ??_C@_1BE@MLNOEPCA@?$AAc?$AAo?$AAm?$AA_?$AAm?$AAo?$AAd?$AAe?$AAl?$AA?$AA@
CONST	SEGMENT
??_C@_1BE@MLNOEPCA@?$AAc?$AAo?$AAm?$AA_?$AAm?$AAo?$AAd?$AAe?$AAl?$AA?$AA@ DB 'c'
	DB	00H, 'o', 00H, 'm', 00H, '_', 00H, 'm', 00H, 'o', 00H, 'd', 00H
	DB	'e', 00H, 'l', 00H, 00H, 00H			; `string'
CONST	ENDS
;	COMDAT ??_C@_1DE@KBCIPNKP@?$AAp?$AAr?$AAo?$AAt?$AAo?$AA_?$AAc?$AAo?$AAm?$AA_?$AAm?$AAo?$AAd?$AAe?$AAl?$AA_?$AAt?$AAh?$AAo?$AAr?$AAn?$AAg?$AAa?$AAr?$AAd?$AA?$AA@
CONST	SEGMENT
??_C@_1DE@KBCIPNKP@?$AAp?$AAr?$AAo?$AAt?$AAo?$AA_?$AAc?$AAo?$AAm?$AA_?$AAm?$AAo?$AAd?$AAe?$AAl?$AA_?$AAt?$AAh?$AAo?$AAr?$AAn?$AAg?$AAa?$AAr?$AAd?$AA?$AA@ DB 'p'
	DB	00H, 'r', 00H, 'o', 00H, 't', 00H, 'o', 00H, '_', 00H, 'c', 00H
	DB	'o', 00H, 'm', 00H, '_', 00H, 'm', 00H, 'o', 00H, 'd', 00H, 'e'
	DB	00H, 'l', 00H, '_', 00H, 't', 00H, 'h', 00H, 'o', 00H, 'r', 00H
	DB	'n', 00H, 'g', 00H, 'a', 00H, 'r', 00H, 'd', 00H, 00H, 00H ; `string'
CONST	ENDS
;	COMDAT ??_C@_1BM@EDKHFEBF@?$AAc?$AAo?$AAm?$AA_?$AAm?$AAo?$AAd?$AAe?$AA_?$AAg?$AAa?$AAr?$AAd?$AA?$AA@
CONST	SEGMENT
??_C@_1BM@EDKHFEBF@?$AAc?$AAo?$AAm?$AA_?$AAm?$AAo?$AAd?$AAe?$AA_?$AAg?$AAa?$AAr?$AAd?$AA?$AA@ DB 'c'
	DB	00H, 'o', 00H, 'm', 00H, '_', 00H, 'm', 00H, 'o', 00H, 'd', 00H
	DB	'e', 00H, '_', 00H, 'g', 00H, 'a', 00H, 'r', 00H, 'd', 00H, 00H
	DB	00H						; `string'
CONST	ENDS
;	COMDAT ??_C@_1DA@NCILMLLP@?$AAp?$AAr?$AAo?$AAt?$AAo?$AA_?$AAc?$AAo?$AAm?$AA_?$AAs?$AAh?$AAa?$AAd?$AAe?$AAr?$AA_?$AAv?$AAt?$AAx?$AAt?$AAe?$AAx?$AA?$AA@
CONST	SEGMENT
??_C@_1DA@NCILMLLP@?$AAp?$AAr?$AAo?$AAt?$AAo?$AA_?$AAc?$AAo?$AAm?$AA_?$AAs?$AAh?$AAa?$AAd?$AAe?$AAr?$AA_?$AAv?$AAt?$AAx?$AAt?$AAe?$AAx?$AA?$AA@ DB 'p'
	DB	00H, 'r', 00H, 'o', 00H, 't', 00H, 'o', 00H, '_', 00H, 'c', 00H
	DB	'o', 00H, 'm', 00H, '_', 00H, 's', 00H, 'h', 00H, 'a', 00H, 'd'
	DB	00H, 'e', 00H, 'r', 00H, '_', 00H, 'v', 00H, 't', 00H, 'x', 00H
	DB	't', 00H, 'e', 00H, 'x', 00H, 00H, 00H	; `string'
CONST	ENDS
;	COMDAT ??_C@_1BI@NMCMAJE@?$AAc?$AAo?$AAm?$AA_?$AAs?$AAh?$AAa?$AAd?$AAe?$AAr?$AA1?$AA?$AA@
CONST	SEGMENT
??_C@_1BI@NMCMAJE@?$AAc?$AAo?$AAm?$AA_?$AAs?$AAh?$AAa?$AAd?$AAe?$AAr?$AA1?$AA?$AA@ DB 'c'
	DB	00H, 'o', 00H, 'm', 00H, '_', 00H, 's', 00H, 'h', 00H, 'a', 00H
	DB	'd', 00H, 'e', 00H, 'r', 00H, '1', 00H, 00H, 00H ; `string'
CONST	ENDS
;	COMDAT ??_C@_1DE@OMAPGAIH@?$AAp?$AAr?$AAo?$AAt?$AAo?$AA_?$AAc?$AAo?$AAm?$AA_?$AAs?$AAh?$AAa?$AAd?$AAe?$AAr?$AA_?$AAv?$AAt?$AAx?$AAm?$AAo?$AAd?$AAe?$AAl?$AA?$AA@
CONST	SEGMENT
??_C@_1DE@OMAPGAIH@?$AAp?$AAr?$AAo?$AAt?$AAo?$AA_?$AAc?$AAo?$AAm?$AA_?$AAs?$AAh?$AAa?$AAd?$AAe?$AAr?$AA_?$AAv?$AAt?$AAx?$AAm?$AAo?$AAd?$AAe?$AAl?$AA?$AA@ DB 'p'
	DB	00H, 'r', 00H, 'o', 00H, 't', 00H, 'o', 00H, '_', 00H, 'c', 00H
	DB	'o', 00H, 'm', 00H, '_', 00H, 's', 00H, 'h', 00H, 'a', 00H, 'd'
	DB	00H, 'e', 00H, 'r', 00H, '_', 00H, 'v', 00H, 't', 00H, 'x', 00H
	DB	'm', 00H, 'o', 00H, 'd', 00H, 'e', 00H, 'l', 00H, 00H, 00H ; `string'
CONST	ENDS
;	COMDAT ??_C@_1BG@GGOMMBBL@?$AAc?$AAo?$AAm?$AA_?$AAs?$AAh?$AAa?$AAd?$AAe?$AAr?$AA?$AA@
CONST	SEGMENT
??_C@_1BG@GGOMMBBL@?$AAc?$AAo?$AAm?$AA_?$AAs?$AAh?$AAa?$AAd?$AAe?$AAr?$AA?$AA@ DB 'c'
	DB	00H, 'o', 00H, 'm', 00H, '_', 00H, 's', 00H, 'h', 00H, 'a', 00H
	DB	'd', 00H, 'e', 00H, 'r', 00H, 00H, 00H	; `string'
CONST	ENDS
;	COMDAT ??_C@_1BO@BDPFEMKD@?$AAc?$AAo?$AAm?$AA_?$AAt?$AAr?$AAa?$AAn?$AAs?$AAf?$AAo?$AAr?$AAm?$AA3?$AA?$AA@
CONST	SEGMENT
??_C@_1BO@BDPFEMKD@?$AAc?$AAo?$AAm?$AA_?$AAt?$AAr?$AAa?$AAn?$AAs?$AAf?$AAo?$AAr?$AAm?$AA3?$AA?$AA@ DB 'c'
	DB	00H, 'o', 00H, 'm', 00H, '_', 00H, 't', 00H, 'r', 00H, 'a', 00H
	DB	'n', 00H, 's', 00H, 'f', 00H, 'o', 00H, 'r', 00H, 'm', 00H, '3'
	DB	00H, 00H, 00H				; `string'
CONST	ENDS
;	COMDAT ??_C@_1CG@DBHLCHEM@?$AAc?$AAo?$AAm?$AA_?$AAt?$AAr?$AAa?$AAn?$AAs?$AAf?$AAo?$AAr?$AAm?$AAt?$AAr?$AAa?$AAi?$AAl?$AA?$AA@
CONST	SEGMENT
??_C@_1CG@DBHLCHEM@?$AAc?$AAo?$AAm?$AA_?$AAt?$AAr?$AAa?$AAn?$AAs?$AAf?$AAo?$AAr?$AAm?$AAt?$AAr?$AAa?$AAi?$AAl?$AA?$AA@ DB 'c'
	DB	00H, 'o', 00H, 'm', 00H, '_', 00H, 't', 00H, 'r', 00H, 'a', 00H
	DB	'n', 00H, 's', 00H, 'f', 00H, 'o', 00H, 'r', 00H, 'm', 00H, 't'
	DB	00H, 'r', 00H, 'a', 00H, 'i', 00H, 'l', 00H, 00H, 00H ; `string'
CONST	ENDS
;	COMDAT ??_C@_1CI@MLEFGO@?$AAp?$AAr?$AAo?$AAt?$AAo?$AA_?$AAc?$AAo?$AAm?$AA_?$AAt?$AAr?$AAa?$AAn?$AAs?$AAf?$AAo?$AAr?$AAm?$AA?$AA@
CONST	SEGMENT
??_C@_1CI@MLEFGO@?$AAp?$AAr?$AAo?$AAt?$AAo?$AA_?$AAc?$AAo?$AAm?$AA_?$AAt?$AAr?$AAa?$AAn?$AAs?$AAf?$AAo?$AAr?$AAm?$AA?$AA@ DB 'p'
	DB	00H, 'r', 00H, 'o', 00H, 't', 00H, 'o', 00H, '_', 00H, 'c', 00H
	DB	'o', 00H, 'm', 00H, '_', 00H, 't', 00H, 'r', 00H, 'a', 00H, 'n'
	DB	00H, 's', 00H, 'f', 00H, 'o', 00H, 'r', 00H, 'm', 00H, 00H, 00H ; `string'
CONST	ENDS
;	COMDAT ??_C@_1BM@CJMPMHDD@?$AAc?$AAo?$AAm?$AA_?$AAt?$AAr?$AAa?$AAn?$AAs?$AAf?$AAo?$AAr?$AAm?$AA?$AA@
CONST	SEGMENT
??_C@_1BM@CJMPMHDD@?$AAc?$AAo?$AAm?$AA_?$AAt?$AAr?$AAa?$AAn?$AAs?$AAf?$AAo?$AAr?$AAm?$AA?$AA@ DB 'c'
	DB	00H, 'o', 00H, 'm', 00H, '_', 00H, 't', 00H, 'r', 00H, 'a', 00H
	DB	'n', 00H, 's', 00H, 'f', 00H, 'o', 00H, 'r', 00H, 'm', 00H, 00H
	DB	00H						; `string'
CONST	ENDS
;	COMDAT ??_C@_1CG@COFFFCLL@?$AAp?$AAr?$AAo?$AAt?$AAo?$AA_?$AAc?$AAo?$AAm?$AA_?$AAr?$AAe?$AAn?$AAd?$AAe?$AAr?$AAe?$AAr?$AA?$AA@
CONST	SEGMENT
??_C@_1CG@COFFFCLL@?$AAp?$AAr?$AAo?$AAt?$AAo?$AA_?$AAc?$AAo?$AAm?$AA_?$AAr?$AAe?$AAn?$AAd?$AAe?$AAr?$AAe?$AAr?$AA?$AA@ DB 'p'
	DB	00H, 'r', 00H, 'o', 00H, 't', 00H, 'o', 00H, '_', 00H, 'c', 00H
	DB	'o', 00H, 'm', 00H, '_', 00H, 'r', 00H, 'e', 00H, 'n', 00H, 'd'
	DB	00H, 'e', 00H, 'r', 00H, 'e', 00H, 'r', 00H, 00H, 00H ; `string'
CONST	ENDS
;	COMDAT ??_C@_1BK@GIOMOCNE@?$AAc?$AAo?$AAm?$AA_?$AAr?$AAe?$AAn?$AAd?$AAe?$AAr?$AAe?$AAr?$AA?$AA@
CONST	SEGMENT
??_C@_1BK@GIOMOCNE@?$AAc?$AAo?$AAm?$AA_?$AAr?$AAe?$AAn?$AAd?$AAe?$AAr?$AAe?$AAr?$AA?$AA@ DB 'c'
	DB	00H, 'o', 00H, 'm', 00H, '_', 00H, 'r', 00H, 'e', 00H, 'n', 00H
	DB	'd', 00H, 'e', 00H, 'r', 00H, 'e', 00H, 'r', 00H, 00H, 00H ; `string'
CONST	ENDS
;	COMDAT ??_C@_0L@IHOCIKLF@g_fTimeAcc?$AA@
CONST	SEGMENT
??_C@_0L@IHOCIKLF@g_fTimeAcc?$AA@ DB 'g_fTimeAcc', 00H	; `string'
CONST	ENDS
;	COMDAT ??_C@_0BB@FMIBAICL@g_DiffuseTexture?$AA@
CONST	SEGMENT
??_C@_0BB@FMIBAICL@g_DiffuseTexture?$AA@ DB 'g_DiffuseTexture', 00H ; `string'
CONST	ENDS
;	COMDAT ??_C@_09IPLGGENB@g_TimeAcc?$AA@
CONST	SEGMENT
??_C@_09IPLGGENB@g_TimeAcc?$AA@ DB 'g_TimeAcc', 00H	; `string'
CONST	ENDS
;	COMDAT ??_C@_09HCHKCCII@g_Texture?$AA@
CONST	SEGMENT
??_C@_09HCHKCCII@g_Texture?$AA@ DB 'g_Texture', 00H	; `string'
CONST	ENDS
;	COMDAT ??_C@_0O@PFNLPMLD@g_WorldMatrix?$AA@
CONST	SEGMENT
??_C@_0O@PFNLPMLD@g_WorldMatrix?$AA@ DB 'g_WorldMatrix', 00H ; `string'
CONST	ENDS
;	COMDAT ??_C@_0N@OOHDPIO@g_ProjMatrix?$AA@
CONST	SEGMENT
??_C@_0N@OOHDPIO@g_ProjMatrix?$AA@ DB 'g_ProjMatrix', 00H ; `string'
CONST	ENDS
;	COMDAT ??_C@_0N@ELIMCBLG@g_ViewMatrix?$AA@
CONST	SEGMENT
??_C@_0N@ELIMCBLG@g_ViewMatrix?$AA@ DB 'g_ViewMatrix', 00H ; `string'
CONST	ENDS
;	COMDAT ??_7CThorn@Client@@6BIOnCollisionExit@Engine@@@
CONST	SEGMENT
??_7CThorn@Client@@6BIOnCollisionExit@Engine@@@ DQ FLAT:??_R4CThorn@Client@@6BIOnCollisionExit@Engine@@@ ; Client::CThorn::`vftable'
	DQ	FLAT:?OnCollisionExit@CThorn@Client@@EEAAXPEAVCCollider@Engine@@0@Z
CONST	ENDS
;	COMDAT ??_7CThorn@Client@@6BIOnCollisionStay@Engine@@@
CONST	SEGMENT
??_7CThorn@Client@@6BIOnCollisionStay@Engine@@@ DQ FLAT:??_R4CThorn@Client@@6BIOnCollisionStay@Engine@@@ ; Client::CThorn::`vftable'
	DQ	FLAT:?OnCollisionStay@CThorn@Client@@EEAAXPEAVCCollider@Engine@@0@Z
CONST	ENDS
;	COMDAT ??_7CThorn@Client@@6BIOnCollisionEnter@Engine@@@
CONST	SEGMENT
??_7CThorn@Client@@6BIOnCollisionEnter@Engine@@@ DQ FLAT:??_R4CThorn@Client@@6BIOnCollisionEnter@Engine@@@ ; Client::CThorn::`vftable'
	DQ	FLAT:?OnCollisionEnter@CThorn@Client@@EEAAXPEAVCCollider@Engine@@0@Z
CONST	ENDS
;	COMDAT ??_7CThorn@Client@@6BISameObjectNoDetection@Engine@@@
CONST	SEGMENT
??_7CThorn@Client@@6BISameObjectNoDetection@Engine@@@ DQ FLAT:??_R4CThorn@Client@@6BISameObjectNoDetection@Engine@@@ ; Client::CThorn::`vftable'
	DQ	FLAT:?SameObjectNoDetection@CThorn@Client@@EEAAXXZ
CONST	ENDS
;	COMDAT ??_7CThorn@Client@@6BCGameObject@Engine@@@
CONST	SEGMENT
??_7CThorn@Client@@6BCGameObject@Engine@@@ DQ FLAT:??_R4CThorn@Client@@6BCGameObject@Engine@@@ ; Client::CThorn::`vftable'
	DQ	FLAT:??_ECThorn@Client@@EEAAPEAXI@Z
	DQ	FLAT:?Free@CThorn@Client@@UEAAXXZ
	DQ	FLAT:?Initialize_Prototype@CThorn@Client@@UEAAJXZ
	DQ	FLAT:?Initialize@CThorn@Client@@UEAAJPEAX@Z
	DQ	FLAT:?Tick@CThorn@Client@@UEAAXN@Z
	DQ	FLAT:?LateTick@CThorn@Client@@UEAAXN@Z
	DQ	FLAT:?Render@CThorn@Client@@UEAAJXZ
	DQ	FLAT:?RenderGUI@CThorn@Client@@UEAAXXZ
	DQ	FLAT:?GetLengthFromCamera@CThorn@Client@@UEAAMXZ
	DQ	FLAT:?Clone@CThorn@Client@@UEAAPEAVCGameObject@Engine@@PEAX@Z
CONST	ENDS
;	COMDAT ?__LINE__Var@?0??XMLoadFloat4x4@DirectX@@YQ?AUXMMATRIX@2@PEBUXMFLOAT4X4@2@@Z@4JA
_DATA	SEGMENT
?__LINE__Var@?0??XMLoadFloat4x4@DirectX@@YQ?AUXMMATRIX@2@PEBUXMFLOAT4X4@2@@Z@4JA DD 03f5H ; `DirectX::XMLoadFloat4x4'::`1'::__LINE__Var
_DATA	ENDS
;	COMDAT ?__LINE__Var@?0??XMLoadFloat4@DirectX@@YQ?AT__m128@@PEBUXMFLOAT4@2@@Z@4JA
_DATA	SEGMENT
?__LINE__Var@?0??XMLoadFloat4@DirectX@@YQ?AT__m128@@PEBUXMFLOAT4@2@@Z@4JA DD 02a8H ; `DirectX::XMLoadFloat4'::`1'::__LINE__Var
_DATA	ENDS
;	COMDAT ??_C@_1BA@LBADLIHI@?$AAp?$AAS?$AAo?$AAu?$AAr?$AAc?$AAe?$AA?$AA@
CONST	SEGMENT
??_C@_1BA@LBADLIHI@?$AAp?$AAS?$AAo?$AAu?$AAr?$AAc?$AAe?$AA?$AA@ DB 'p', 00H
	DB	'S', 00H, 'o', 00H, 'u', 00H, 'r', 00H, 'c', 00H, 'e', 00H, 00H
	DB	00H						; `string'
CONST	ENDS
;	COMDAT ??_C@_1JE@DMOBBMDE@?$AAc?$AA?3?$AA?2?$AAp?$AAr?$AAo?$AAg?$AAr?$AAa?$AAm?$AA?5?$AAf?$AAi?$AAl?$AAe?$AAs?$AA?5?$AA?$CI?$AAx?$AA8?$AA6?$AA?$CJ?$AA?2?$AAw?$AAi?$AAn?$AAd?$AAo?$AAw?$AAs?$AA?5?$AAk@
CONST	SEGMENT
??_C@_1JE@DMOBBMDE@?$AAc?$AA?3?$AA?2?$AAp?$AAr?$AAo?$AAg?$AAr?$AAa?$AAm?$AA?5?$AAf?$AAi?$AAl?$AAe?$AAs?$AA?5?$AA?$CI?$AAx?$AA8?$AA6?$AA?$CJ?$AA?2?$AAw?$AAi?$AAn?$AAd?$AAo?$AAw?$AAs?$AA?5?$AAk@ DB 'c'
	DB	00H, ':', 00H, '\', 00H, 'p', 00H, 'r', 00H, 'o', 00H, 'g', 00H
	DB	'r', 00H, 'a', 00H, 'm', 00H, ' ', 00H, 'f', 00H, 'i', 00H, 'l'
	DB	00H, 'e', 00H, 's', 00H, ' ', 00H, '(', 00H, 'x', 00H, '8', 00H
	DB	'6', 00H, ')', 00H, '\', 00H, 'w', 00H, 'i', 00H, 'n', 00H, 'd'
	DB	00H, 'o', 00H, 'w', 00H, 's', 00H, ' ', 00H, 'k', 00H, 'i', 00H
	DB	't', 00H, 's', 00H, '\', 00H, '8', 00H, '.', 00H, '1', 00H, '\'
	DB	00H, 'i', 00H, 'n', 00H, 'c', 00H, 'l', 00H, 'u', 00H, 'd', 00H
	DB	'e', 00H, '\', 00H, 'u', 00H, 'm', 00H, '\', 00H, 'd', 00H, 'i'
	DB	00H, 'r', 00H, 'e', 00H, 'c', 00H, 't', 00H, 'x', 00H, 'm', 00H
	DB	'a', 00H, 't', 00H, 'h', 00H, 'c', 00H, 'o', 00H, 'n', 00H, 'v'
	DB	00H, 'e', 00H, 'r', 00H, 't', 00H, '.', 00H, 'i', 00H, 'n', 00H
	DB	'l', 00H, 00H, 00H				; `string'
CONST	ENDS
;	COMDAT xdata
xdata	SEGMENT
$unwind$??$Safe_Release@PEAVCTexture@Engine@@@Engine@@YAKAEAPEAVCTexture@0@@Z DD 025052a01H
	DD	010e2313H
	DD	070070021H
	DD	05006H
xdata	ENDS
;	COMDAT xdata
xdata	SEGMENT
$unwind$??$Safe_Release@PEAVCVIBuffer_Rect@Engine@@@Engine@@YAKAEAPEAVCVIBuffer_Rect@0@@Z DD 025052a01H
	DD	010e2313H
	DD	070070021H
	DD	05006H
xdata	ENDS
;	COMDAT xdata
xdata	SEGMENT
$unwind$??$Safe_Release@PEAVCShader@Engine@@@Engine@@YAKAEAPEAVCShader@0@@Z DD 025052a01H
	DD	010e2313H
	DD	070070021H
	DD	05006H
xdata	ENDS
;	COMDAT xdata
xdata	SEGMENT
$unwind$??$Safe_Release@PEAVCModel@Engine@@@Engine@@YAKAEAPEAVCModel@0@@Z DD 025052a01H
	DD	010e2313H
	DD	070070021H
	DD	05006H
xdata	ENDS
;	COMDAT xdata
xdata	SEGMENT
$unwind$??$Safe_Release@PEAVCTransform@Engine@@@Engine@@YAKAEAPEAVCTransform@0@@Z DD 025052a01H
	DD	010e2313H
	DD	070070021H
	DD	05006H
xdata	ENDS
;	COMDAT xdata
xdata	SEGMENT
$unwind$??$Safe_Release@PEAVCRenderer@Engine@@@Engine@@YAKAEAPEAVCRenderer@0@@Z DD 025052a01H
	DD	010e2313H
	DD	070070021H
	DD	05006H
xdata	ENDS
;	COMDAT xdata
xdata	SEGMENT
$unwind$??$Safe_Release@PEAVCSphereCollider@Engine@@@Engine@@YAKAEAPEAVCSphereCollider@0@@Z DD 025052a01H
	DD	010e2313H
	DD	070070021H
	DD	05006H
xdata	ENDS
;	COMDAT xdata
xdata	SEGMENT
$unwind$??$Safe_Release@PEAVCThorn@Client@@@Engine@@YAKAEAPEAVCThorn@Client@@@Z DD 025052a01H
	DD	010e2313H
	DD	070070021H
	DD	05006H
xdata	ENDS
;	COMDAT xdata
xdata	SEGMENT
$unwind$?GetBodyCollider@CCharacter@Client@@QEBAPEAVCCollider@Engine@@XZ DD 05052801H
	DD	010e0311H
	DD	070070019H
	DD	05006H
xdata	ENDS
;	COMDAT xdata
xdata	SEGMENT
$unwind$?IsFreeze@CApplicationManager@Client@@QEBA_NXZ DD 05052801H
	DD	010e0311H
	DD	070070019H
	DD	05006H
xdata	ENDS
;	COMDAT xdata
xdata	SEGMENT
$unwind$??_GCThorn@Client@@EEAAPEAXI@Z DD 025052e01H
	DD	01122317H
	DD	0700b001dH
	DD	0500aH
xdata	ENDS
;	COMDAT xdata
xdata	SEGMENT
$unwind$??0CThorn@Client@@QEAA@AEBV01@@Z DD 025063001H
	DD	01142319H
	DD	0700d001eH
	DD	0500b600cH
xdata	ENDS
;	COMDAT xdata
xdata	SEGMENT
$unwind$?Free@CThorn@Client@@UEAAXXZ DD 025052a01H
	DD	010e2313H
	DD	07007001dH
	DD	05006H
xdata	ENDS
;	COMDAT xdata
xdata	SEGMENT
$unwind$?dtor$0@?0??Clone@CThorn@Client@@UEAAPEAVCGameObject@Engine@@PEAX@Z@4HA DD 031001H
	DD	0700c4210H
	DD	0500bH
xdata	ENDS
;	COMDAT xdata
xdata	SEGMENT
$ip2state$?Clone@CThorn@Client@@UEAAPEAVCGameObject@Engine@@PEAX@Z DD imagerel ?Clone@CThorn@Client@@UEAAPEAVCGameObject@Engine@@PEAX@Z
	DD	0ffffffffH
	DD	imagerel ?Clone@CThorn@Client@@UEAAPEAVCGameObject@Engine@@PEAX@Z+115
	DD	00H
	DD	imagerel ?Clone@CThorn@Client@@UEAAPEAVCGameObject@Engine@@PEAX@Z+178
	DD	0ffffffffH
xdata	ENDS
;	COMDAT xdata
xdata	SEGMENT
$stateUnwindMap$?Clone@CThorn@Client@@UEAAPEAVCGameObject@Engine@@PEAX@Z DD 0ffffffffH
	DD	imagerel ?dtor$0@?0??Clone@CThorn@Client@@UEAAPEAVCGameObject@Engine@@PEAX@Z@4HA
xdata	ENDS
;	COMDAT xdata
xdata	SEGMENT
$unwind$?Clone@CThorn@Client@@UEAAPEAVCGameObject@Engine@@PEAX@Z DD 025054b19H
	DD	01132318H
	DD	0700c002fH
	DD	0500bH
	DD	imagerel __GSHandlerCheck_EH
	DD	imagerel $cppxdata$?Clone@CThorn@Client@@UEAAPEAVCGameObject@Engine@@PEAX@Z
	DD	0162H
xdata	ENDS
;	COMDAT CONST
CONST	SEGMENT
?Clone@CThorn@Client@@UEAAPEAVCGameObject@Engine@@PEAX@Z$rtcName$0 DB 070H ; Client::CThorn::Clone
	DB	049H
	DB	06eH
	DB	073H
	DB	074H
	DB	061H
	DB	06eH
	DB	063H
	DB	065H
	DB	00H
	ORG $+6
?Clone@CThorn@Client@@UEAAPEAVCGameObject@Engine@@PEAX@Z$rtcVarDesc DD 028H ; Client::CThorn::Clone
	DD	08H
	DQ	FLAT:?Clone@CThorn@Client@@UEAAPEAVCGameObject@Engine@@PEAX@Z$rtcName$0
	ORG $+48
?Clone@CThorn@Client@@UEAAPEAVCGameObject@Engine@@PEAX@Z$rtcFrameData DD 01H ; Client::CThorn::Clone
	DD	00H
	DQ	FLAT:?Clone@CThorn@Client@@UEAAPEAVCGameObject@Engine@@PEAX@Z$rtcVarDesc
$cppxdata$?Clone@CThorn@Client@@UEAAPEAVCGameObject@Engine@@PEAX@Z DD 019930522H
	DD	01H
	DD	imagerel $stateUnwindMap$?Clone@CThorn@Client@@UEAAPEAVCGameObject@Engine@@PEAX@Z
	DD	00H
	DD	00H
	DD	03H
	DD	imagerel $ip2state$?Clone@CThorn@Client@@UEAAPEAVCGameObject@Engine@@PEAX@Z
	DD	0148H
	DD	00H
	DD	01H
CONST	ENDS
;	COMDAT xdata
xdata	SEGMENT
$unwind$?dtor$0@?0??Create@CThorn@Client@@SAPEAV12@PEAUID3D11Device@@PEAUID3D11DeviceContext@@@Z@4HA DD 031001H
	DD	0700c4210H
	DD	0500bH
xdata	ENDS
;	COMDAT xdata
xdata	SEGMENT
$ip2state$?Create@CThorn@Client@@SAPEAV12@PEAUID3D11Device@@PEAUID3D11DeviceContext@@@Z DD imagerel ?Create@CThorn@Client@@SAPEAV12@PEAUID3D11Device@@PEAUID3D11DeviceContext@@@Z
	DD	0ffffffffH
	DD	imagerel ?Create@CThorn@Client@@SAPEAV12@PEAUID3D11Device@@PEAUID3D11DeviceContext@@@Z+115
	DD	00H
	DD	imagerel ?Create@CThorn@Client@@SAPEAV12@PEAUID3D11Device@@PEAUID3D11DeviceContext@@@Z+185
	DD	0ffffffffH
xdata	ENDS
;	COMDAT xdata
xdata	SEGMENT
$stateUnwindMap$?Create@CThorn@Client@@SAPEAV12@PEAUID3D11Device@@PEAUID3D11DeviceContext@@@Z DD 0ffffffffH
	DD	imagerel ?dtor$0@?0??Create@CThorn@Client@@SAPEAV12@PEAUID3D11Device@@PEAUID3D11DeviceContext@@@Z@4HA
xdata	ENDS
;	COMDAT xdata
xdata	SEGMENT
$unwind$?Create@CThorn@Client@@SAPEAV12@PEAUID3D11Device@@PEAUID3D11DeviceContext@@@Z DD 025054b19H
	DD	01132318H
	DD	0700c002fH
	DD	0500bH
	DD	imagerel __GSHandlerCheck_EH
	DD	imagerel $cppxdata$?Create@CThorn@Client@@SAPEAV12@PEAUID3D11Device@@PEAUID3D11DeviceContext@@@Z
	DD	0162H
xdata	ENDS
;	COMDAT CONST
CONST	SEGMENT
?Create@CThorn@Client@@SAPEAV12@PEAUID3D11Device@@PEAUID3D11DeviceContext@@@Z$rtcName$0 DB 070H ; Client::CThorn::Create
	DB	049H
	DB	06eH
	DB	073H
	DB	074H
	DB	061H
	DB	06eH
	DB	063H
	DB	065H
	DB	00H
	ORG $+6
?Create@CThorn@Client@@SAPEAV12@PEAUID3D11Device@@PEAUID3D11DeviceContext@@@Z$rtcVarDesc DD 028H ; Client::CThorn::Create
	DD	08H
	DQ	FLAT:?Create@CThorn@Client@@SAPEAV12@PEAUID3D11Device@@PEAUID3D11DeviceContext@@@Z$rtcName$0
	ORG $+48
?Create@CThorn@Client@@SAPEAV12@PEAUID3D11Device@@PEAUID3D11DeviceContext@@@Z$rtcFrameData DD 01H ; Client::CThorn::Create
	DD	00H
	DQ	FLAT:?Create@CThorn@Client@@SAPEAV12@PEAUID3D11Device@@PEAUID3D11DeviceContext@@@Z$rtcVarDesc
$cppxdata$?Create@CThorn@Client@@SAPEAV12@PEAUID3D11Device@@PEAUID3D11DeviceContext@@@Z DD 019930522H
	DD	01H
	DD	imagerel $stateUnwindMap$?Create@CThorn@Client@@SAPEAV12@PEAUID3D11Device@@PEAUID3D11DeviceContext@@@Z
	DD	00H
	DD	00H
	DD	03H
	DD	imagerel $ip2state$?Create@CThorn@Client@@SAPEAV12@PEAUID3D11Device@@PEAUID3D11DeviceContext@@@Z
	DD	0148H
	DD	00H
	DD	01H
CONST	ENDS
;	COMDAT xdata
xdata	SEGMENT
$unwind$?OnCollisionExit@CThorn@Client@@EEAAXPEAVCCollider@Engine@@0@Z DD 05053201H
	DD	0118031bH
	DD	070110019H
	DD	05010H
xdata	ENDS
;	COMDAT xdata
xdata	SEGMENT
$unwind$?OnCollisionStay@CThorn@Client@@EEAAXPEAVCCollider@Engine@@0@Z DD 05053201H
	DD	0118031bH
	DD	070110019H
	DD	05010H
xdata	ENDS
;	COMDAT xdata
xdata	SEGMENT
$unwind$?OnCollisionEnter@CThorn@Client@@EEAAXPEAVCCollider@Engine@@0@Z DD 035053401H
	DD	0118331dH
	DD	070110027H
	DD	05010H
xdata	ENDS
;	COMDAT xdata
xdata	SEGMENT
$unwind$?SameObjectNoDetection@CThorn@Client@@EEAAXXZ DD 05052801H
	DD	010e0311H
	DD	070070019H
	DD	05006H
xdata	ENDS
;	COMDAT xdata
xdata	SEGMENT
$unwind$?SetupShaderResources@CThorn@Client@@AEAAJXZ DD 025052a01H
	DD	010e2313H
	DD	070070043H
	DD	05006H
xdata	ENDS
;	COMDAT xdata
xdata	SEGMENT
$unwind$?AddComponents@CThorn@Client@@AEAAJXZ DD 035053b19H
	DD	010e3313H
	DD	070070039H
	DD	05006H
	DD	imagerel __GSHandlerCheck
	DD	01b8H
xdata	ENDS
;	COMDAT CONST
CONST	SEGMENT
?AddComponents@CThorn@Client@@AEAAJXZ$rtcName$0 DB 064H	; Client::CThorn::AddComponents
	DB	065H
	DB	073H
	DB	063H
	DB	00H
	ORG $+3
?AddComponents@CThorn@Client@@AEAAJXZ$rtcName$1 DB 063H	; Client::CThorn::AddComponents
	DB	06fH
	DB	06cH
	DB	06cH
	DB	044H
	DB	065H
	DB	073H
	DB	063H
	DB	00H
	ORG $+15
?AddComponents@CThorn@Client@@AEAAJXZ$rtcVarDesc DD 058H ; Client::CThorn::AddComponents
	DD	030H
	DQ	FLAT:?AddComponents@CThorn@Client@@AEAAJXZ$rtcName$1
	DD	038H
	DD	08H
	DQ	FLAT:?AddComponents@CThorn@Client@@AEAAJXZ$rtcName$0
	ORG $+96
?AddComponents@CThorn@Client@@AEAAJXZ$rtcFrameData DD 02H ; Client::CThorn::AddComponents
	DD	00H
	DQ	FLAT:?AddComponents@CThorn@Client@@AEAAJXZ$rtcVarDesc
CONST	ENDS
;	COMDAT xdata
xdata	SEGMENT
$unwind$?IsScaleFinish@CThorn@Client@@QEAA_NXZ DD 05052801H
	DD	010e0311H
	DD	070070019H
	DD	05006H
xdata	ENDS
;	COMDAT xdata
xdata	SEGMENT
$unwind$?MoveProcess@CThorn@Client@@QEAA_NN@Z DD 025054119H
	DD	01142319H
	DD	0700d00edH
	DD	0500cH
	DD	imagerel __GSHandlerCheck
	DD	0758H
xdata	ENDS
;	COMDAT CONST
CONST	SEGMENT
?MoveProcess@CThorn@Client@@QEAA_NN@Z$rtcName$0 DB 076H	; Client::CThorn::MoveProcess
	DB	050H
	DB	06fH
	DB	073H
	DB	00H
	ORG $+3
?MoveProcess@CThorn@Client@@QEAA_NN@Z$rtcName$1 DB 076H	; Client::CThorn::MoveProcess
	DB	054H
	DB	072H
	DB	061H
	DB	069H
	DB	06cH
	DB	055H
	DB	070H
	DB	00H
	ORG $+15
?MoveProcess@CThorn@Client@@QEAA_NN@Z$rtcVarDesc DD 090H ; Client::CThorn::MoveProcess
	DD	010H
	DQ	FLAT:?MoveProcess@CThorn@Client@@QEAA_NN@Z$rtcName$1
	DD	030H
	DD	010H
	DQ	FLAT:?MoveProcess@CThorn@Client@@QEAA_NN@Z$rtcName$0
	ORG $+96
?MoveProcess@CThorn@Client@@QEAA_NN@Z$rtcFrameData DD 02H ; Client::CThorn::MoveProcess
	DD	00H
	DQ	FLAT:?MoveProcess@CThorn@Client@@QEAA_NN@Z$rtcVarDesc
CONST	ENDS
;	COMDAT xdata
xdata	SEGMENT
$unwind$?ScaleDownSmoothProcess@CThorn@Client@@QEAA_NN@Z DD 025064219H
	DD	0115231aH
	DD	0700e0076H
	DD	0500c600dH
	DD	imagerel __GSHandlerCheck
	DD	03a8H
xdata	ENDS
;	COMDAT CONST
CONST	SEGMENT
?ScaleDownSmoothProcess@CThorn@Client@@QEAA_NN@Z$rtcName$0 DB 076H ; Client::CThorn::ScaleDownSmoothProcess
	DB	04cH
	DB	065H
	DB	06eH
	DB	067H
	DB	074H
	DB	068H
	DB	00H
	ORG $+8
?ScaleDownSmoothProcess@CThorn@Client@@QEAA_NN@Z$rtcVarDesc DD 088H ; Client::CThorn::ScaleDownSmoothProcess
	DD	0cH
	DQ	FLAT:?ScaleDownSmoothProcess@CThorn@Client@@QEAA_NN@Z$rtcName$0
	ORG $+48
?ScaleDownSmoothProcess@CThorn@Client@@QEAA_NN@Z$rtcFrameData DD 01H ; Client::CThorn::ScaleDownSmoothProcess
	DD	00H
	DQ	FLAT:?ScaleDownSmoothProcess@CThorn@Client@@QEAA_NN@Z$rtcVarDesc
CONST	ENDS
;	COMDAT xdata
xdata	SEGMENT
$unwind$?ScaleUpSmoothProcess@CThorn@Client@@QEAA_NN@Z DD 025064219H
	DD	0115231aH
	DD	0700e0058H
	DD	0500c600dH
	DD	imagerel __GSHandlerCheck
	DD	02b8H
xdata	ENDS
;	COMDAT CONST
CONST	SEGMENT
?ScaleUpSmoothProcess@CThorn@Client@@QEAA_NN@Z$rtcName$0 DB 076H ; Client::CThorn::ScaleUpSmoothProcess
	DB	04cH
	DB	065H
	DB	06eH
	DB	067H
	DB	074H
	DB	068H
	DB	00H
	ORG $+8
?ScaleUpSmoothProcess@CThorn@Client@@QEAA_NN@Z$rtcVarDesc DD 088H ; Client::CThorn::ScaleUpSmoothProcess
	DD	0cH
	DQ	FLAT:?ScaleUpSmoothProcess@CThorn@Client@@QEAA_NN@Z$rtcName$0
	ORG $+48
?ScaleUpSmoothProcess@CThorn@Client@@QEAA_NN@Z$rtcFrameData DD 01H ; Client::CThorn::ScaleUpSmoothProcess
	DD	00H
	DQ	FLAT:?ScaleUpSmoothProcess@CThorn@Client@@QEAA_NN@Z$rtcVarDesc
CONST	ENDS
;	COMDAT xdata
xdata	SEGMENT
$unwind$?ScaleUpProcess@CThorn@Client@@QEAA_NN@Z DD 025064219H
	DD	0115231aH
	DD	0700e0058H
	DD	0500c600dH
	DD	imagerel __GSHandlerCheck
	DD	02b8H
xdata	ENDS
;	COMDAT CONST
CONST	SEGMENT
?ScaleUpProcess@CThorn@Client@@QEAA_NN@Z$rtcName$0 DB 076H ; Client::CThorn::ScaleUpProcess
	DB	04cH
	DB	065H
	DB	06eH
	DB	067H
	DB	074H
	DB	068H
	DB	00H
	ORG $+8
?ScaleUpProcess@CThorn@Client@@QEAA_NN@Z$rtcVarDesc DD 088H ; Client::CThorn::ScaleUpProcess
	DD	0cH
	DQ	FLAT:?ScaleUpProcess@CThorn@Client@@QEAA_NN@Z$rtcName$0
	ORG $+48
?ScaleUpProcess@CThorn@Client@@QEAA_NN@Z$rtcFrameData DD 01H ; Client::CThorn::ScaleUpProcess
	DD	00H
	DQ	FLAT:?ScaleUpProcess@CThorn@Client@@QEAA_NN@Z$rtcVarDesc
CONST	ENDS
;	COMDAT xdata
xdata	SEGMENT
$unwind$?SetupScaleSmoothDownStart@CThorn@Client@@QEAAXXZ DD 05052801H
	DD	010e0311H
	DD	070070019H
	DD	05006H
xdata	ENDS
;	COMDAT xdata
xdata	SEGMENT
$unwind$?SetupScaleSmoothUpStart@CThorn@Client@@QEAAXM@Z DD 05052e01H
	DD	01140317H
	DD	0700d0019H
	DD	0500cH
xdata	ENDS
;	COMDAT xdata
xdata	SEGMENT
$unwind$?SetupScaleUpDownStart@CThorn@Client@@QEAAXM@Z DD 05052e01H
	DD	01140317H
	DD	0700d0019H
	DD	0500cH
xdata	ENDS
;	COMDAT xdata
xdata	SEGMENT
$unwind$?SetupScaleUpStart@CThorn@Client@@QEAAXM@Z DD 05052e01H
	DD	01140317H
	DD	0700d0019H
	DD	0500cH
xdata	ENDS
;	COMDAT xdata
xdata	SEGMENT
$unwind$?SetRotationToTarget@CThorn@Client@@QEAAXT__m128@@@Z DD 025052f01H
	DD	01132318H
	DD	0700c00a7H
	DD	0500bH
xdata	ENDS
;	COMDAT xdata
xdata	SEGMENT
$unwind$?SetRotationXYZ@CThorn@Client@@QEAAXUXMFLOAT3@DirectX@@@Z DD 025063001H
	DD	01142319H
	DD	0700d0022H
	DD	0500b600cH
xdata	ENDS
;	COMDAT xdata
xdata	SEGMENT
$unwind$?SetPosition@CThorn@Client@@QEAAXT__m128@@@Z DD 025052f01H
	DD	01132318H
	DD	0700c0041H
	DD	0500bH
xdata	ENDS
;	COMDAT xdata
xdata	SEGMENT
$unwind$?Reset@CThorn@Client@@QEAAXXZ DD 025062b01H
	DD	010f2314H
	DD	070080040H
	DD	050066007H
xdata	ENDS
;	COMDAT xdata
xdata	SEGMENT
$unwind$?GetLengthFromCamera@CThorn@Client@@UEAAMXZ DD 035053b19H
	DD	010e3313H
	DD	07007004bH
	DD	05006H
	DD	imagerel __GSHandlerCheck
	DD	0248H
xdata	ENDS
;	COMDAT CONST
CONST	SEGMENT
?GetLengthFromCamera@CThorn@Client@@UEAAMXZ$rtcName$0 DB 076H ; Client::CThorn::GetLengthFromCamera
	DB	050H
	DB	06fH
	DB	073H
	DB	00H
	ORG $+11
?GetLengthFromCamera@CThorn@Client@@UEAAMXZ$rtcVarDesc DD 060H ; Client::CThorn::GetLengthFromCamera
	DD	010H
	DQ	FLAT:?GetLengthFromCamera@CThorn@Client@@UEAAMXZ$rtcName$0
	ORG $+48
?GetLengthFromCamera@CThorn@Client@@UEAAMXZ$rtcFrameData DD 01H ; Client::CThorn::GetLengthFromCamera
	DD	00H
	DQ	FLAT:?GetLengthFromCamera@CThorn@Client@@UEAAMXZ$rtcVarDesc
CONST	ENDS
;	COMDAT xdata
xdata	SEGMENT
$unwind$?RenderGUI@CThorn@Client@@UEAAXXZ DD 05052801H
	DD	010e0311H
	DD	070070019H
	DD	05006H
xdata	ENDS
;	COMDAT xdata
xdata	SEGMENT
$unwind$?Render@CThorn@Client@@UEAAJXZ DD 035052a01H
	DD	010e3313H
	DD	07007005bH
	DD	05006H
xdata	ENDS
;	COMDAT xdata
xdata	SEGMENT
$unwind$?LateTick@CThorn@Client@@UEAAXN@Z DD 025063101H
	DD	0115231aH
	DD	0700e0054H
	DD	0500c600dH
xdata	ENDS
;	COMDAT xdata
xdata	SEGMENT
$unwind$?Tick@CThorn@Client@@UEAAXN@Z DD 025053001H
	DD	01142319H
	DD	0700d002dH
	DD	0500cH
xdata	ENDS
;	COMDAT xdata
xdata	SEGMENT
$unwind$?Initialize@CThorn@Client@@UEAAJPEAX@Z DD 025063001H
	DD	01142319H
	DD	0700d004eH
	DD	0500b600cH
xdata	ENDS
;	COMDAT xdata
xdata	SEGMENT
$unwind$?Initialize_Prototype@CThorn@Client@@UEAAJXZ DD 025052a01H
	DD	010e2313H
	DD	07007001dH
	DD	05006H
xdata	ENDS
;	COMDAT xdata
xdata	SEGMENT
$unwind$??1CThorn@Client@@EEAA@XZ DD 025052a01H
	DD	010e2313H
	DD	07007001dH
	DD	05006H
xdata	ENDS
;	COMDAT xdata
xdata	SEGMENT
$unwind$?dtor$0@?0???0CThorn@Client@@AEAA@PEAUID3D11Device@@PEAUID3D11DeviceContext@@@Z@4HA DD 031001H
	DD	0700c4210H
	DD	0500bH
xdata	ENDS
;	COMDAT xdata
xdata	SEGMENT
$ip2state$??0CThorn@Client@@AEAA@PEAUID3D11Device@@PEAUID3D11DeviceContext@@@Z DD imagerel ??0CThorn@Client@@AEAA@PEAUID3D11Device@@PEAUID3D11DeviceContext@@@Z
	DD	0ffffffffH
	DD	imagerel ??0CThorn@Client@@AEAA@PEAUID3D11Device@@PEAUID3D11DeviceContext@@@Z+91
	DD	00H
	DD	imagerel ??0CThorn@Client@@AEAA@PEAUID3D11Device@@PEAUID3D11DeviceContext@@@Z+1014
	DD	0ffffffffH
xdata	ENDS
;	COMDAT xdata
xdata	SEGMENT
$stateUnwindMap$??0CThorn@Client@@AEAA@PEAUID3D11Device@@PEAUID3D11DeviceContext@@@Z DD 0ffffffffH
	DD	imagerel ?dtor$0@?0???0CThorn@Client@@AEAA@PEAUID3D11Device@@PEAUID3D11DeviceContext@@@Z@4HA
xdata	ENDS
;	COMDAT CONST
CONST	SEGMENT
$cppxdata$??0CThorn@Client@@AEAA@PEAUID3D11Device@@PEAUID3D11DeviceContext@@@Z DD 019930522H
	DD	01H
	DD	imagerel $stateUnwindMap$??0CThorn@Client@@AEAA@PEAUID3D11Device@@PEAUID3D11DeviceContext@@@Z
	DD	00H
	DD	00H
	DD	03H
	DD	imagerel $ip2state$??0CThorn@Client@@AEAA@PEAUID3D11Device@@PEAUID3D11DeviceContext@@@Z
	DD	0e8H
	DD	00H
	DD	01H
CONST	ENDS
;	COMDAT xdata
xdata	SEGMENT
$unwind$??0CThorn@Client@@AEAA@PEAUID3D11Device@@PEAUID3D11DeviceContext@@@Z DD 025053f11H
	DD	0118231dH
	DD	070110021H
	DD	05010H
	DD	imagerel __CxxFrameHandler3
	DD	imagerel $cppxdata$??0CThorn@Client@@AEAA@PEAUID3D11Device@@PEAUID3D11DeviceContext@@@Z
xdata	ENDS
;	COMDAT xdata
xdata	SEGMENT
$unwind$??0tagColliderDesc@CCollider@Engine@@QEAA@XZ DD 025052a01H
	DD	010e2313H
	DD	07007001dH
	DD	05006H
xdata	ENDS
;	COMDAT xdata
xdata	SEGMENT
$unwind$?XMVector3Normalize@DirectX@@YQ?AT__m128@@T2@@Z DD 035052a01H
	DD	010a330fH
	DD	0700300dfH
	DD	05002H
xdata	ENDS
;	COMDAT xdata
xdata	SEGMENT
$unwind$?XMVector3Length@DirectX@@YQ?AT__m128@@T2@@Z DD 015052a01H
	DD	010a130fH
	DD	070030057H
	DD	05002H
xdata	ENDS
;	COMDAT xdata
xdata	SEGMENT
$unwind$?XMVector3Cross@DirectX@@YQ?AT__m128@@T2@0@Z DD 035053601H
	DD	010a330fH
	DD	07003008bH
	DD	05002H
xdata	ENDS
;	COMDAT xdata
xdata	SEGMENT
$unwind$?XMVectorScale@DirectX@@YQ?AT__m128@@T2@M@Z DD 015052f01H
	DD	010f1314H
	DD	070080033H
	DD	05007H
xdata	ENDS
;	COMDAT xdata
xdata	SEGMENT
$unwind$?XMVectorSubtract@DirectX@@YQ?AT__m128@@T2@0@Z DD 015053601H
	DD	010a130fH
	DD	07003002dH
	DD	05002H
xdata	ENDS
;	COMDAT xdata
xdata	SEGMENT
$unwind$?XMVectorAdd@DirectX@@YQ?AT__m128@@T2@0@Z DD 015053601H
	DD	010a130fH
	DD	07003002dH
	DD	05002H
xdata	ENDS
;	COMDAT xdata
xdata	SEGMENT
$unwind$?XMVectorNegate@DirectX@@YQ?AT__m128@@T2@@Z DD 015052a01H
	DD	010a130fH
	DD	070030033H
	DD	05002H
xdata	ENDS
;	COMDAT xdata
xdata	SEGMENT
$unwind$?XMVectorSetY@DirectX@@YQ?AT__m128@@T2@M@Z DD 015052f01H
	DD	010f1314H
	DD	070080045H
	DD	05007H
xdata	ENDS
;	COMDAT xdata
xdata	SEGMENT
$unwind$?XMVectorGetY@DirectX@@YQMT__m128@@@Z DD 015052a01H
	DD	010a130fH
	DD	07003002dH
	DD	05002H
xdata	ENDS
;	COMDAT xdata
xdata	SEGMENT
$unwind$?XMVectorGetX@DirectX@@YQMT__m128@@@Z DD 015052a01H
	DD	010a130fH
	DD	070030021H
	DD	05002H
xdata	ENDS
;	COMDAT xdata
xdata	SEGMENT
$unwind$?XMVectorSet@DirectX@@YQ?AT__m128@@MMMM@Z DD 015053501H
	DD	01211326H
	DD	0701a0021H
	DD	05019H
xdata	ENDS
;	COMDAT xdata
xdata	SEGMENT
$unwind$?XMLoadFloat4x4@DirectX@@YQ?AUXMMATRIX@1@PEBUXMFLOAT4X4@1@@Z DD 035053b19H
	DD	010e3313H
	DD	070070043H
	DD	05006H
	DD	imagerel __GSHandlerCheck
	DD	0208H
xdata	ENDS
;	COMDAT CONST
CONST	SEGMENT
?XMLoadFloat4x4@DirectX@@YQ?AUXMMATRIX@1@PEBUXMFLOAT4X4@1@@Z$rtcName$0 DB 04dH ; DirectX::XMLoadFloat4x4
	DB	00H
	ORG $+14
?XMLoadFloat4x4@DirectX@@YQ?AUXMMATRIX@1@PEBUXMFLOAT4X4@1@@Z$rtcVarDesc DD 040H ; DirectX::XMLoadFloat4x4
	DD	040H
	DQ	FLAT:?XMLoadFloat4x4@DirectX@@YQ?AUXMMATRIX@1@PEBUXMFLOAT4X4@1@@Z$rtcName$0
	ORG $+48
?XMLoadFloat4x4@DirectX@@YQ?AUXMMATRIX@1@PEBUXMFLOAT4X4@1@@Z$rtcFrameData DD 01H ; DirectX::XMLoadFloat4x4
	DD	00H
	DQ	FLAT:?XMLoadFloat4x4@DirectX@@YQ?AUXMMATRIX@1@PEBUXMFLOAT4X4@1@@Z$rtcVarDesc
CONST	ENDS
;	COMDAT xdata
xdata	SEGMENT
$unwind$?XMLoadFloat4@DirectX@@YQ?AT__m128@@PEBUXMFLOAT4@1@@Z DD 035052a01H
	DD	010e3313H
	DD	070070025H
	DD	05006H
xdata	ENDS
;	COMDAT xdata
xdata	SEGMENT
$unwind$??4XMFLOAT3@DirectX@@QEAAAEAU01@AEBU01@@Z DD 05052d01H
	DD	01130316H
	DD	0700c0019H
	DD	0500bH
xdata	ENDS
;	COMDAT xdata
xdata	SEGMENT
$unwind$??0XMFLOAT3@DirectX@@QEAA@MMM@Z DD 05053a01H
	DD	01200323H
	DD	070190019H
	DD	05018H
xdata	ENDS
;	COMDAT xdata
xdata	SEGMENT
$unwind$??0XMFLOAT3@DirectX@@QEAA@XZ DD 05052801H
	DD	010e0311H
	DD	070070019H
	DD	05006H
xdata	ENDS
;	COMDAT xdata
xdata	SEGMENT
$unwind$??0XMMATRIX@DirectX@@QEAA@XZ DD 05052801H
	DD	010e0311H
	DD	070070019H
	DD	05006H
xdata	ENDS
;	COMDAT xdata
xdata	SEGMENT
$unwind$??DDirectX@@YQ?AT__m128@@T1@M@Z DD 035052f01H
	DD	010f3314H
	DD	07008002bH
	DD	05007H
xdata	ENDS
;	COMDAT xdata
xdata	SEGMENT
$unwind$??GDirectX@@YQ?AT__m128@@T1@0@Z DD 035053601H
	DD	010a330fH
	DD	070030031H
	DD	05002H
xdata	ENDS
;	COMDAT xdata
xdata	SEGMENT
$unwind$??HDirectX@@YQ?AT__m128@@T1@0@Z DD 035053601H
	DD	010a330fH
	DD	070030031H
	DD	05002H
xdata	ENDS
;	COMDAT xdata
xdata	SEGMENT
$unwind$??GDirectX@@YQ?AT__m128@@T1@@Z DD 035052a01H
	DD	010a330fH
	DD	07003002bH
	DD	05002H
xdata	ENDS
;	COMDAT xdata
xdata	SEGMENT
$unwind$??BXMVECTORU32@DirectX@@QEBA?AT__m128@@XZ DD 05052d01H
	DD	01130316H
	DD	0700c0019H
	DD	0500bH
xdata	ENDS
;	COMDAT xdata
xdata	SEGMENT
$unwind$??BXMVECTORI32@DirectX@@QEBA?AT__m128@@XZ DD 05052d01H
	DD	01130316H
	DD	0700c0019H
	DD	0500bH
xdata	ENDS
;	COMDAT xdata
xdata	SEGMENT
$unwind$?XMConvertToRadians@DirectX@@YAMM@Z DD 015052301H
	DD	010f1314H
	DD	07008001bH
	DD	05007H
xdata	ENDS
;	COMDAT xdata
xdata	SEGMENT
$unwind$?__empty_global_delete@@YAXPEAX_K@Z DD 05052d01H
	DD	01130316H
	DD	0700c0019H
	DD	0500bH
xdata	ENDS
;	COMDAT xdata
xdata	SEGMENT
$unwind$?__empty_global_delete@@YAXPEAX@Z DD 05052801H
	DD	010e0311H
	DD	070070019H
	DD	05006H
xdata	ENDS
;	COMDAT xdata
xdata	SEGMENT
$unwind$??_H@YAXPEAX_K1P6APEAX0@Z@Z DD 025053901H
	DD	011d2322H
	DD	07016001fH
	DD	05015H
xdata	ENDS
; Function compile flags: /Odtp /RTCsu /ZI
; File c:\users\arcco\documents\github\framework\reference\headers\engine_template.h
;	COMDAT ??$Safe_Release@PEAVCTexture@Engine@@@Engine@@YAKAEAPEAVCTexture@0@@Z
_TEXT	SEGMENT
dwRefCnt$ = 4
classType$ = 256
??$Safe_Release@PEAVCTexture@Engine@@@Engine@@YAKAEAPEAVCTexture@0@@Z PROC ; Engine::Safe_Release<Engine::CTexture * __ptr64>, COMDAT

; 18   : 	{

$LN5:
  00000	48 89 4c 24 08	 mov	 QWORD PTR [rsp+8], rcx
  00005	55		 push	 rbp
  00006	57		 push	 rdi
  00007	48 81 ec 08 01
	00 00		 sub	 rsp, 264		; 00000108H
  0000e	48 8d 6c 24 20	 lea	 rbp, QWORD PTR [rsp+32]
  00013	48 8b fc	 mov	 rdi, rsp
  00016	b9 42 00 00 00	 mov	 ecx, 66			; 00000042H
  0001b	b8 cc cc cc cc	 mov	 eax, -858993460		; ccccccccH
  00020	f3 ab		 rep stosd
  00022	48 8b 8c 24 28
	01 00 00	 mov	 rcx, QWORD PTR [rsp+296]

; 19   : 		unsigned long dwRefCnt = 0;

  0002a	c7 45 04 00 00
	00 00		 mov	 DWORD PTR dwRefCnt$[rbp], 0

; 20   : 
; 21   : 		if (nullptr != classType)

  00031	48 8b 85 00 01
	00 00		 mov	 rax, QWORD PTR classType$[rbp]
  00038	48 83 38 00	 cmp	 QWORD PTR [rax], 0
  0003c	74 27		 je	 SHORT $LN2@Safe_Relea

; 22   : 		{
; 23   : 			dwRefCnt = classType->Release();

  0003e	48 8b 85 00 01
	00 00		 mov	 rax, QWORD PTR classType$[rbp]
  00045	48 8b 08	 mov	 rcx, QWORD PTR [rax]
  00048	ff 15 00 00 00
	00		 call	 QWORD PTR __imp_?Release@CBase@Engine@@QEAAKXZ
  0004e	89 45 04	 mov	 DWORD PTR dwRefCnt$[rbp], eax

; 24   : 
; 25   : 			if (0 == dwRefCnt)

  00051	83 7d 04 00	 cmp	 DWORD PTR dwRefCnt$[rbp], 0
  00055	75 0e		 jne	 SHORT $LN3@Safe_Relea

; 26   : 			{
; 27   : 				classType = nullptr;

  00057	48 8b 85 00 01
	00 00		 mov	 rax, QWORD PTR classType$[rbp]
  0005e	48 c7 00 00 00
	00 00		 mov	 QWORD PTR [rax], 0
$LN3@Safe_Relea:
$LN2@Safe_Relea:

; 28   : 			}
; 29   : 		}
; 30   : 
; 31   : 		return dwRefCnt;

  00065	8b 45 04	 mov	 eax, DWORD PTR dwRefCnt$[rbp]

; 32   : 	}

  00068	48 8d a5 e8 00
	00 00		 lea	 rsp, QWORD PTR [rbp+232]
  0006f	5f		 pop	 rdi
  00070	5d		 pop	 rbp
  00071	c3		 ret	 0
??$Safe_Release@PEAVCTexture@Engine@@@Engine@@YAKAEAPEAVCTexture@0@@Z ENDP ; Engine::Safe_Release<Engine::CTexture * __ptr64>
_TEXT	ENDS
; Function compile flags: /Odtp /RTCsu /ZI
; File c:\users\arcco\documents\github\framework\reference\headers\engine_template.h
;	COMDAT ??$Safe_Release@PEAVCVIBuffer_Rect@Engine@@@Engine@@YAKAEAPEAVCVIBuffer_Rect@0@@Z
_TEXT	SEGMENT
dwRefCnt$ = 4
classType$ = 256
??$Safe_Release@PEAVCVIBuffer_Rect@Engine@@@Engine@@YAKAEAPEAVCVIBuffer_Rect@0@@Z PROC ; Engine::Safe_Release<Engine::CVIBuffer_Rect * __ptr64>, COMDAT

; 18   : 	{

$LN5:
  00000	48 89 4c 24 08	 mov	 QWORD PTR [rsp+8], rcx
  00005	55		 push	 rbp
  00006	57		 push	 rdi
  00007	48 81 ec 08 01
	00 00		 sub	 rsp, 264		; 00000108H
  0000e	48 8d 6c 24 20	 lea	 rbp, QWORD PTR [rsp+32]
  00013	48 8b fc	 mov	 rdi, rsp
  00016	b9 42 00 00 00	 mov	 ecx, 66			; 00000042H
  0001b	b8 cc cc cc cc	 mov	 eax, -858993460		; ccccccccH
  00020	f3 ab		 rep stosd
  00022	48 8b 8c 24 28
	01 00 00	 mov	 rcx, QWORD PTR [rsp+296]

; 19   : 		unsigned long dwRefCnt = 0;

  0002a	c7 45 04 00 00
	00 00		 mov	 DWORD PTR dwRefCnt$[rbp], 0

; 20   : 
; 21   : 		if (nullptr != classType)

  00031	48 8b 85 00 01
	00 00		 mov	 rax, QWORD PTR classType$[rbp]
  00038	48 83 38 00	 cmp	 QWORD PTR [rax], 0
  0003c	74 27		 je	 SHORT $LN2@Safe_Relea

; 22   : 		{
; 23   : 			dwRefCnt = classType->Release();

  0003e	48 8b 85 00 01
	00 00		 mov	 rax, QWORD PTR classType$[rbp]
  00045	48 8b 08	 mov	 rcx, QWORD PTR [rax]
  00048	ff 15 00 00 00
	00		 call	 QWORD PTR __imp_?Release@CBase@Engine@@QEAAKXZ
  0004e	89 45 04	 mov	 DWORD PTR dwRefCnt$[rbp], eax

; 24   : 
; 25   : 			if (0 == dwRefCnt)

  00051	83 7d 04 00	 cmp	 DWORD PTR dwRefCnt$[rbp], 0
  00055	75 0e		 jne	 SHORT $LN3@Safe_Relea

; 26   : 			{
; 27   : 				classType = nullptr;

  00057	48 8b 85 00 01
	00 00		 mov	 rax, QWORD PTR classType$[rbp]
  0005e	48 c7 00 00 00
	00 00		 mov	 QWORD PTR [rax], 0
$LN3@Safe_Relea:
$LN2@Safe_Relea:

; 28   : 			}
; 29   : 		}
; 30   : 
; 31   : 		return dwRefCnt;

  00065	8b 45 04	 mov	 eax, DWORD PTR dwRefCnt$[rbp]

; 32   : 	}

  00068	48 8d a5 e8 00
	00 00		 lea	 rsp, QWORD PTR [rbp+232]
  0006f	5f		 pop	 rdi
  00070	5d		 pop	 rbp
  00071	c3		 ret	 0
??$Safe_Release@PEAVCVIBuffer_Rect@Engine@@@Engine@@YAKAEAPEAVCVIBuffer_Rect@0@@Z ENDP ; Engine::Safe_Release<Engine::CVIBuffer_Rect * __ptr64>
_TEXT	ENDS
; Function compile flags: /Odtp /RTCsu /ZI
; File c:\users\arcco\documents\github\framework\reference\headers\engine_template.h
;	COMDAT ??$Safe_Release@PEAVCShader@Engine@@@Engine@@YAKAEAPEAVCShader@0@@Z
_TEXT	SEGMENT
dwRefCnt$ = 4
classType$ = 256
??$Safe_Release@PEAVCShader@Engine@@@Engine@@YAKAEAPEAVCShader@0@@Z PROC ; Engine::Safe_Release<Engine::CShader * __ptr64>, COMDAT

; 18   : 	{

$LN5:
  00000	48 89 4c 24 08	 mov	 QWORD PTR [rsp+8], rcx
  00005	55		 push	 rbp
  00006	57		 push	 rdi
  00007	48 81 ec 08 01
	00 00		 sub	 rsp, 264		; 00000108H
  0000e	48 8d 6c 24 20	 lea	 rbp, QWORD PTR [rsp+32]
  00013	48 8b fc	 mov	 rdi, rsp
  00016	b9 42 00 00 00	 mov	 ecx, 66			; 00000042H
  0001b	b8 cc cc cc cc	 mov	 eax, -858993460		; ccccccccH
  00020	f3 ab		 rep stosd
  00022	48 8b 8c 24 28
	01 00 00	 mov	 rcx, QWORD PTR [rsp+296]

; 19   : 		unsigned long dwRefCnt = 0;

  0002a	c7 45 04 00 00
	00 00		 mov	 DWORD PTR dwRefCnt$[rbp], 0

; 20   : 
; 21   : 		if (nullptr != classType)

  00031	48 8b 85 00 01
	00 00		 mov	 rax, QWORD PTR classType$[rbp]
  00038	48 83 38 00	 cmp	 QWORD PTR [rax], 0
  0003c	74 27		 je	 SHORT $LN2@Safe_Relea

; 22   : 		{
; 23   : 			dwRefCnt = classType->Release();

  0003e	48 8b 85 00 01
	00 00		 mov	 rax, QWORD PTR classType$[rbp]
  00045	48 8b 08	 mov	 rcx, QWORD PTR [rax]
  00048	ff 15 00 00 00
	00		 call	 QWORD PTR __imp_?Release@CBase@Engine@@QEAAKXZ
  0004e	89 45 04	 mov	 DWORD PTR dwRefCnt$[rbp], eax

; 24   : 
; 25   : 			if (0 == dwRefCnt)

  00051	83 7d 04 00	 cmp	 DWORD PTR dwRefCnt$[rbp], 0
  00055	75 0e		 jne	 SHORT $LN3@Safe_Relea

; 26   : 			{
; 27   : 				classType = nullptr;

  00057	48 8b 85 00 01
	00 00		 mov	 rax, QWORD PTR classType$[rbp]
  0005e	48 c7 00 00 00
	00 00		 mov	 QWORD PTR [rax], 0
$LN3@Safe_Relea:
$LN2@Safe_Relea:

; 28   : 			}
; 29   : 		}
; 30   : 
; 31   : 		return dwRefCnt;

  00065	8b 45 04	 mov	 eax, DWORD PTR dwRefCnt$[rbp]

; 32   : 	}

  00068	48 8d a5 e8 00
	00 00		 lea	 rsp, QWORD PTR [rbp+232]
  0006f	5f		 pop	 rdi
  00070	5d		 pop	 rbp
  00071	c3		 ret	 0
??$Safe_Release@PEAVCShader@Engine@@@Engine@@YAKAEAPEAVCShader@0@@Z ENDP ; Engine::Safe_Release<Engine::CShader * __ptr64>
_TEXT	ENDS
; Function compile flags: /Odtp /RTCsu /ZI
; File c:\users\arcco\documents\github\framework\reference\headers\engine_template.h
;	COMDAT ??$Safe_Release@PEAVCModel@Engine@@@Engine@@YAKAEAPEAVCModel@0@@Z
_TEXT	SEGMENT
dwRefCnt$ = 4
classType$ = 256
??$Safe_Release@PEAVCModel@Engine@@@Engine@@YAKAEAPEAVCModel@0@@Z PROC ; Engine::Safe_Release<Engine::CModel * __ptr64>, COMDAT

; 18   : 	{

$LN5:
  00000	48 89 4c 24 08	 mov	 QWORD PTR [rsp+8], rcx
  00005	55		 push	 rbp
  00006	57		 push	 rdi
  00007	48 81 ec 08 01
	00 00		 sub	 rsp, 264		; 00000108H
  0000e	48 8d 6c 24 20	 lea	 rbp, QWORD PTR [rsp+32]
  00013	48 8b fc	 mov	 rdi, rsp
  00016	b9 42 00 00 00	 mov	 ecx, 66			; 00000042H
  0001b	b8 cc cc cc cc	 mov	 eax, -858993460		; ccccccccH
  00020	f3 ab		 rep stosd
  00022	48 8b 8c 24 28
	01 00 00	 mov	 rcx, QWORD PTR [rsp+296]

; 19   : 		unsigned long dwRefCnt = 0;

  0002a	c7 45 04 00 00
	00 00		 mov	 DWORD PTR dwRefCnt$[rbp], 0

; 20   : 
; 21   : 		if (nullptr != classType)

  00031	48 8b 85 00 01
	00 00		 mov	 rax, QWORD PTR classType$[rbp]
  00038	48 83 38 00	 cmp	 QWORD PTR [rax], 0
  0003c	74 27		 je	 SHORT $LN2@Safe_Relea

; 22   : 		{
; 23   : 			dwRefCnt = classType->Release();

  0003e	48 8b 85 00 01
	00 00		 mov	 rax, QWORD PTR classType$[rbp]
  00045	48 8b 08	 mov	 rcx, QWORD PTR [rax]
  00048	ff 15 00 00 00
	00		 call	 QWORD PTR __imp_?Release@CBase@Engine@@QEAAKXZ
  0004e	89 45 04	 mov	 DWORD PTR dwRefCnt$[rbp], eax

; 24   : 
; 25   : 			if (0 == dwRefCnt)

  00051	83 7d 04 00	 cmp	 DWORD PTR dwRefCnt$[rbp], 0
  00055	75 0e		 jne	 SHORT $LN3@Safe_Relea

; 26   : 			{
; 27   : 				classType = nullptr;

  00057	48 8b 85 00 01
	00 00		 mov	 rax, QWORD PTR classType$[rbp]
  0005e	48 c7 00 00 00
	00 00		 mov	 QWORD PTR [rax], 0
$LN3@Safe_Relea:
$LN2@Safe_Relea:

; 28   : 			}
; 29   : 		}
; 30   : 
; 31   : 		return dwRefCnt;

  00065	8b 45 04	 mov	 eax, DWORD PTR dwRefCnt$[rbp]

; 32   : 	}

  00068	48 8d a5 e8 00
	00 00		 lea	 rsp, QWORD PTR [rbp+232]
  0006f	5f		 pop	 rdi
  00070	5d		 pop	 rbp
  00071	c3		 ret	 0
??$Safe_Release@PEAVCModel@Engine@@@Engine@@YAKAEAPEAVCModel@0@@Z ENDP ; Engine::Safe_Release<Engine::CModel * __ptr64>
_TEXT	ENDS
; Function compile flags: /Odtp /RTCsu /ZI
; File c:\users\arcco\documents\github\framework\reference\headers\engine_template.h
;	COMDAT ??$Safe_Release@PEAVCTransform@Engine@@@Engine@@YAKAEAPEAVCTransform@0@@Z
_TEXT	SEGMENT
dwRefCnt$ = 4
classType$ = 256
??$Safe_Release@PEAVCTransform@Engine@@@Engine@@YAKAEAPEAVCTransform@0@@Z PROC ; Engine::Safe_Release<Engine::CTransform * __ptr64>, COMDAT

; 18   : 	{

$LN5:
  00000	48 89 4c 24 08	 mov	 QWORD PTR [rsp+8], rcx
  00005	55		 push	 rbp
  00006	57		 push	 rdi
  00007	48 81 ec 08 01
	00 00		 sub	 rsp, 264		; 00000108H
  0000e	48 8d 6c 24 20	 lea	 rbp, QWORD PTR [rsp+32]
  00013	48 8b fc	 mov	 rdi, rsp
  00016	b9 42 00 00 00	 mov	 ecx, 66			; 00000042H
  0001b	b8 cc cc cc cc	 mov	 eax, -858993460		; ccccccccH
  00020	f3 ab		 rep stosd
  00022	48 8b 8c 24 28
	01 00 00	 mov	 rcx, QWORD PTR [rsp+296]

; 19   : 		unsigned long dwRefCnt = 0;

  0002a	c7 45 04 00 00
	00 00		 mov	 DWORD PTR dwRefCnt$[rbp], 0

; 20   : 
; 21   : 		if (nullptr != classType)

  00031	48 8b 85 00 01
	00 00		 mov	 rax, QWORD PTR classType$[rbp]
  00038	48 83 38 00	 cmp	 QWORD PTR [rax], 0
  0003c	74 27		 je	 SHORT $LN2@Safe_Relea

; 22   : 		{
; 23   : 			dwRefCnt = classType->Release();

  0003e	48 8b 85 00 01
	00 00		 mov	 rax, QWORD PTR classType$[rbp]
  00045	48 8b 08	 mov	 rcx, QWORD PTR [rax]
  00048	ff 15 00 00 00
	00		 call	 QWORD PTR __imp_?Release@CBase@Engine@@QEAAKXZ
  0004e	89 45 04	 mov	 DWORD PTR dwRefCnt$[rbp], eax

; 24   : 
; 25   : 			if (0 == dwRefCnt)

  00051	83 7d 04 00	 cmp	 DWORD PTR dwRefCnt$[rbp], 0
  00055	75 0e		 jne	 SHORT $LN3@Safe_Relea

; 26   : 			{
; 27   : 				classType = nullptr;

  00057	48 8b 85 00 01
	00 00		 mov	 rax, QWORD PTR classType$[rbp]
  0005e	48 c7 00 00 00
	00 00		 mov	 QWORD PTR [rax], 0
$LN3@Safe_Relea:
$LN2@Safe_Relea:

; 28   : 			}
; 29   : 		}
; 30   : 
; 31   : 		return dwRefCnt;

  00065	8b 45 04	 mov	 eax, DWORD PTR dwRefCnt$[rbp]

; 32   : 	}

  00068	48 8d a5 e8 00
	00 00		 lea	 rsp, QWORD PTR [rbp+232]
  0006f	5f		 pop	 rdi
  00070	5d		 pop	 rbp
  00071	c3		 ret	 0
??$Safe_Release@PEAVCTransform@Engine@@@Engine@@YAKAEAPEAVCTransform@0@@Z ENDP ; Engine::Safe_Release<Engine::CTransform * __ptr64>
_TEXT	ENDS
; Function compile flags: /Odtp /RTCsu /ZI
; File c:\users\arcco\documents\github\framework\reference\headers\engine_template.h
;	COMDAT ??$Safe_Release@PEAVCRenderer@Engine@@@Engine@@YAKAEAPEAVCRenderer@0@@Z
_TEXT	SEGMENT
dwRefCnt$ = 4
classType$ = 256
??$Safe_Release@PEAVCRenderer@Engine@@@Engine@@YAKAEAPEAVCRenderer@0@@Z PROC ; Engine::Safe_Release<Engine::CRenderer * __ptr64>, COMDAT

; 18   : 	{

$LN5:
  00000	48 89 4c 24 08	 mov	 QWORD PTR [rsp+8], rcx
  00005	55		 push	 rbp
  00006	57		 push	 rdi
  00007	48 81 ec 08 01
	00 00		 sub	 rsp, 264		; 00000108H
  0000e	48 8d 6c 24 20	 lea	 rbp, QWORD PTR [rsp+32]
  00013	48 8b fc	 mov	 rdi, rsp
  00016	b9 42 00 00 00	 mov	 ecx, 66			; 00000042H
  0001b	b8 cc cc cc cc	 mov	 eax, -858993460		; ccccccccH
  00020	f3 ab		 rep stosd
  00022	48 8b 8c 24 28
	01 00 00	 mov	 rcx, QWORD PTR [rsp+296]

; 19   : 		unsigned long dwRefCnt = 0;

  0002a	c7 45 04 00 00
	00 00		 mov	 DWORD PTR dwRefCnt$[rbp], 0

; 20   : 
; 21   : 		if (nullptr != classType)

  00031	48 8b 85 00 01
	00 00		 mov	 rax, QWORD PTR classType$[rbp]
  00038	48 83 38 00	 cmp	 QWORD PTR [rax], 0
  0003c	74 27		 je	 SHORT $LN2@Safe_Relea

; 22   : 		{
; 23   : 			dwRefCnt = classType->Release();

  0003e	48 8b 85 00 01
	00 00		 mov	 rax, QWORD PTR classType$[rbp]
  00045	48 8b 08	 mov	 rcx, QWORD PTR [rax]
  00048	ff 15 00 00 00
	00		 call	 QWORD PTR __imp_?Release@CBase@Engine@@QEAAKXZ
  0004e	89 45 04	 mov	 DWORD PTR dwRefCnt$[rbp], eax

; 24   : 
; 25   : 			if (0 == dwRefCnt)

  00051	83 7d 04 00	 cmp	 DWORD PTR dwRefCnt$[rbp], 0
  00055	75 0e		 jne	 SHORT $LN3@Safe_Relea

; 26   : 			{
; 27   : 				classType = nullptr;

  00057	48 8b 85 00 01
	00 00		 mov	 rax, QWORD PTR classType$[rbp]
  0005e	48 c7 00 00 00
	00 00		 mov	 QWORD PTR [rax], 0
$LN3@Safe_Relea:
$LN2@Safe_Relea:

; 28   : 			}
; 29   : 		}
; 30   : 
; 31   : 		return dwRefCnt;

  00065	8b 45 04	 mov	 eax, DWORD PTR dwRefCnt$[rbp]

; 32   : 	}

  00068	48 8d a5 e8 00
	00 00		 lea	 rsp, QWORD PTR [rbp+232]
  0006f	5f		 pop	 rdi
  00070	5d		 pop	 rbp
  00071	c3		 ret	 0
??$Safe_Release@PEAVCRenderer@Engine@@@Engine@@YAKAEAPEAVCRenderer@0@@Z ENDP ; Engine::Safe_Release<Engine::CRenderer * __ptr64>
_TEXT	ENDS
; Function compile flags: /Odtp /RTCsu /ZI
; File c:\users\arcco\documents\github\framework\reference\headers\engine_template.h
;	COMDAT ??$Safe_Release@PEAVCSphereCollider@Engine@@@Engine@@YAKAEAPEAVCSphereCollider@0@@Z
_TEXT	SEGMENT
dwRefCnt$ = 4
classType$ = 256
??$Safe_Release@PEAVCSphereCollider@Engine@@@Engine@@YAKAEAPEAVCSphereCollider@0@@Z PROC ; Engine::Safe_Release<Engine::CSphereCollider * __ptr64>, COMDAT

; 18   : 	{

$LN5:
  00000	48 89 4c 24 08	 mov	 QWORD PTR [rsp+8], rcx
  00005	55		 push	 rbp
  00006	57		 push	 rdi
  00007	48 81 ec 08 01
	00 00		 sub	 rsp, 264		; 00000108H
  0000e	48 8d 6c 24 20	 lea	 rbp, QWORD PTR [rsp+32]
  00013	48 8b fc	 mov	 rdi, rsp
  00016	b9 42 00 00 00	 mov	 ecx, 66			; 00000042H
  0001b	b8 cc cc cc cc	 mov	 eax, -858993460		; ccccccccH
  00020	f3 ab		 rep stosd
  00022	48 8b 8c 24 28
	01 00 00	 mov	 rcx, QWORD PTR [rsp+296]

; 19   : 		unsigned long dwRefCnt = 0;

  0002a	c7 45 04 00 00
	00 00		 mov	 DWORD PTR dwRefCnt$[rbp], 0

; 20   : 
; 21   : 		if (nullptr != classType)

  00031	48 8b 85 00 01
	00 00		 mov	 rax, QWORD PTR classType$[rbp]
  00038	48 83 38 00	 cmp	 QWORD PTR [rax], 0
  0003c	74 27		 je	 SHORT $LN2@Safe_Relea

; 22   : 		{
; 23   : 			dwRefCnt = classType->Release();

  0003e	48 8b 85 00 01
	00 00		 mov	 rax, QWORD PTR classType$[rbp]
  00045	48 8b 08	 mov	 rcx, QWORD PTR [rax]
  00048	ff 15 00 00 00
	00		 call	 QWORD PTR __imp_?Release@CBase@Engine@@QEAAKXZ
  0004e	89 45 04	 mov	 DWORD PTR dwRefCnt$[rbp], eax

; 24   : 
; 25   : 			if (0 == dwRefCnt)

  00051	83 7d 04 00	 cmp	 DWORD PTR dwRefCnt$[rbp], 0
  00055	75 0e		 jne	 SHORT $LN3@Safe_Relea

; 26   : 			{
; 27   : 				classType = nullptr;

  00057	48 8b 85 00 01
	00 00		 mov	 rax, QWORD PTR classType$[rbp]
  0005e	48 c7 00 00 00
	00 00		 mov	 QWORD PTR [rax], 0
$LN3@Safe_Relea:
$LN2@Safe_Relea:

; 28   : 			}
; 29   : 		}
; 30   : 
; 31   : 		return dwRefCnt;

  00065	8b 45 04	 mov	 eax, DWORD PTR dwRefCnt$[rbp]

; 32   : 	}

  00068	48 8d a5 e8 00
	00 00		 lea	 rsp, QWORD PTR [rbp+232]
  0006f	5f		 pop	 rdi
  00070	5d		 pop	 rbp
  00071	c3		 ret	 0
??$Safe_Release@PEAVCSphereCollider@Engine@@@Engine@@YAKAEAPEAVCSphereCollider@0@@Z ENDP ; Engine::Safe_Release<Engine::CSphereCollider * __ptr64>
_TEXT	ENDS
; Function compile flags: /Odtp /RTCsu /ZI
; File c:\users\arcco\documents\github\framework\reference\headers\engine_template.h
;	COMDAT ??$Safe_Release@PEAVCThorn@Client@@@Engine@@YAKAEAPEAVCThorn@Client@@@Z
_TEXT	SEGMENT
dwRefCnt$ = 4
classType$ = 256
??$Safe_Release@PEAVCThorn@Client@@@Engine@@YAKAEAPEAVCThorn@Client@@@Z PROC ; Engine::Safe_Release<Client::CThorn * __ptr64>, COMDAT

; 18   : 	{

$LN5:
  00000	48 89 4c 24 08	 mov	 QWORD PTR [rsp+8], rcx
  00005	55		 push	 rbp
  00006	57		 push	 rdi
  00007	48 81 ec 08 01
	00 00		 sub	 rsp, 264		; 00000108H
  0000e	48 8d 6c 24 20	 lea	 rbp, QWORD PTR [rsp+32]
  00013	48 8b fc	 mov	 rdi, rsp
  00016	b9 42 00 00 00	 mov	 ecx, 66			; 00000042H
  0001b	b8 cc cc cc cc	 mov	 eax, -858993460		; ccccccccH
  00020	f3 ab		 rep stosd
  00022	48 8b 8c 24 28
	01 00 00	 mov	 rcx, QWORD PTR [rsp+296]

; 19   : 		unsigned long dwRefCnt = 0;

  0002a	c7 45 04 00 00
	00 00		 mov	 DWORD PTR dwRefCnt$[rbp], 0

; 20   : 
; 21   : 		if (nullptr != classType)

  00031	48 8b 85 00 01
	00 00		 mov	 rax, QWORD PTR classType$[rbp]
  00038	48 83 38 00	 cmp	 QWORD PTR [rax], 0
  0003c	74 27		 je	 SHORT $LN2@Safe_Relea

; 22   : 		{
; 23   : 			dwRefCnt = classType->Release();

  0003e	48 8b 85 00 01
	00 00		 mov	 rax, QWORD PTR classType$[rbp]
  00045	48 8b 08	 mov	 rcx, QWORD PTR [rax]
  00048	ff 15 00 00 00
	00		 call	 QWORD PTR __imp_?Release@CBase@Engine@@QEAAKXZ
  0004e	89 45 04	 mov	 DWORD PTR dwRefCnt$[rbp], eax

; 24   : 
; 25   : 			if (0 == dwRefCnt)

  00051	83 7d 04 00	 cmp	 DWORD PTR dwRefCnt$[rbp], 0
  00055	75 0e		 jne	 SHORT $LN3@Safe_Relea

; 26   : 			{
; 27   : 				classType = nullptr;

  00057	48 8b 85 00 01
	00 00		 mov	 rax, QWORD PTR classType$[rbp]
  0005e	48 c7 00 00 00
	00 00		 mov	 QWORD PTR [rax], 0
$LN3@Safe_Relea:
$LN2@Safe_Relea:

; 28   : 			}
; 29   : 		}
; 30   : 
; 31   : 		return dwRefCnt;

  00065	8b 45 04	 mov	 eax, DWORD PTR dwRefCnt$[rbp]

; 32   : 	}

  00068	48 8d a5 e8 00
	00 00		 lea	 rsp, QWORD PTR [rbp+232]
  0006f	5f		 pop	 rdi
  00070	5d		 pop	 rbp
  00071	c3		 ret	 0
??$Safe_Release@PEAVCThorn@Client@@@Engine@@YAKAEAPEAVCThorn@Client@@@Z ENDP ; Engine::Safe_Release<Client::CThorn * __ptr64>
_TEXT	ENDS
; Function compile flags: /Odtp /RTCsu /ZI
; File c:\users\arcco\documents\github\framework\client\public\character.h
;	COMDAT ?GetBodyCollider@CCharacter@Client@@QEBAPEAVCCollider@Engine@@XZ
_TEXT	SEGMENT
this$ = 224
?GetBodyCollider@CCharacter@Client@@QEBAPEAVCCollider@Engine@@XZ PROC ; Client::CCharacter::GetBodyCollider, COMDAT

; 239  : 	class CCollider* GetBodyCollider() const { return mCollider; };

$LN3:
  00000	48 89 4c 24 08	 mov	 QWORD PTR [rsp+8], rcx
  00005	55		 push	 rbp
  00006	57		 push	 rdi
  00007	48 81 ec c8 00
	00 00		 sub	 rsp, 200		; 000000c8H
  0000e	48 8b ec	 mov	 rbp, rsp
  00011	48 8b fc	 mov	 rdi, rsp
  00014	b9 32 00 00 00	 mov	 ecx, 50			; 00000032H
  00019	b8 cc cc cc cc	 mov	 eax, -858993460		; ccccccccH
  0001e	f3 ab		 rep stosd
  00020	48 8b 8c 24 e8
	00 00 00	 mov	 rcx, QWORD PTR [rsp+232]
  00028	48 8b 85 e0 00
	00 00		 mov	 rax, QWORD PTR this$[rbp]
  0002f	48 8b 80 b0 00
	00 00		 mov	 rax, QWORD PTR [rax+176]
  00036	48 8d a5 c8 00
	00 00		 lea	 rsp, QWORD PTR [rbp+200]
  0003d	5f		 pop	 rdi
  0003e	5d		 pop	 rbp
  0003f	c3		 ret	 0
?GetBodyCollider@CCharacter@Client@@QEBAPEAVCCollider@Engine@@XZ ENDP ; Client::CCharacter::GetBodyCollider
_TEXT	ENDS
; Function compile flags: /Odtp /RTCsu /ZI
; File c:\users\arcco\documents\github\framework\client\public\applicationmanager.h
;	COMDAT ?IsFreeze@CApplicationManager@Client@@QEBA_NXZ
_TEXT	SEGMENT
this$ = 224
?IsFreeze@CApplicationManager@Client@@QEBA_NXZ PROC	; Client::CApplicationManager::IsFreeze, COMDAT

; 25   : 	_bool IsFreeze() const { return m_bFreeze; }

$LN3:
  00000	48 89 4c 24 08	 mov	 QWORD PTR [rsp+8], rcx
  00005	55		 push	 rbp
  00006	57		 push	 rdi
  00007	48 81 ec c8 00
	00 00		 sub	 rsp, 200		; 000000c8H
  0000e	48 8b ec	 mov	 rbp, rsp
  00011	48 8b fc	 mov	 rdi, rsp
  00014	b9 32 00 00 00	 mov	 ecx, 50			; 00000032H
  00019	b8 cc cc cc cc	 mov	 eax, -858993460		; ccccccccH
  0001e	f3 ab		 rep stosd
  00020	48 8b 8c 24 e8
	00 00 00	 mov	 rcx, QWORD PTR [rsp+232]
  00028	48 8b 85 e0 00
	00 00		 mov	 rax, QWORD PTR this$[rbp]
  0002f	0f b6 40 38	 movzx	 eax, BYTE PTR [rax+56]
  00033	48 8d a5 c8 00
	00 00		 lea	 rsp, QWORD PTR [rbp+200]
  0003a	5f		 pop	 rdi
  0003b	5d		 pop	 rbp
  0003c	c3		 ret	 0
?IsFreeze@CApplicationManager@Client@@QEBA_NXZ ENDP	; Client::CApplicationManager::IsFreeze
_TEXT	ENDS
; Function compile flags: /Odtp /RTCsu /ZI
;	COMDAT ??_GCThorn@Client@@EEAAPEAXI@Z
_TEXT	SEGMENT
this$ = 224
__flags$ = 232
??_GCThorn@Client@@EEAAPEAXI@Z PROC			; Client::CThorn::`scalar deleting destructor', COMDAT
$LN4:
  00000	89 54 24 10	 mov	 DWORD PTR [rsp+16], edx
  00004	48 89 4c 24 08	 mov	 QWORD PTR [rsp+8], rcx
  00009	55		 push	 rbp
  0000a	57		 push	 rdi
  0000b	48 81 ec e8 00
	00 00		 sub	 rsp, 232		; 000000e8H
  00012	48 8d 6c 24 20	 lea	 rbp, QWORD PTR [rsp+32]
  00017	48 8b fc	 mov	 rdi, rsp
  0001a	b9 3a 00 00 00	 mov	 ecx, 58			; 0000003aH
  0001f	b8 cc cc cc cc	 mov	 eax, -858993460		; ccccccccH
  00024	f3 ab		 rep stosd
  00026	48 8b 8c 24 08
	01 00 00	 mov	 rcx, QWORD PTR [rsp+264]
  0002e	48 8b 8d e0 00
	00 00		 mov	 rcx, QWORD PTR this$[rbp]
  00035	e8 00 00 00 00	 call	 ??1CThorn@Client@@EEAA@XZ ; Client::CThorn::~CThorn
  0003a	8b 85 e8 00 00
	00		 mov	 eax, DWORD PTR __flags$[rbp]
  00040	83 e0 01	 and	 eax, 1
  00043	85 c0		 test	 eax, eax
  00045	74 11		 je	 SHORT $LN2@scalar
  00047	ba 80 01 00 00	 mov	 edx, 384		; 00000180H
  0004c	48 8b 8d e0 00
	00 00		 mov	 rcx, QWORD PTR this$[rbp]
  00053	e8 00 00 00 00	 call	 ??3@YAXPEAX_K@Z		; operator delete
$LN2@scalar:
  00058	48 8b 85 e0 00
	00 00		 mov	 rax, QWORD PTR this$[rbp]
  0005f	48 8d a5 c8 00
	00 00		 lea	 rsp, QWORD PTR [rbp+200]
  00066	5f		 pop	 rdi
  00067	5d		 pop	 rbp
  00068	c3		 ret	 0
??_GCThorn@Client@@EEAAPEAXI@Z ENDP			; Client::CThorn::`scalar deleting destructor'
_TEXT	ENDS
; Function compile flags: /Odtp /RTCsu /ZI
;	COMDAT ??0CThorn@Client@@QEAA@AEBV01@@Z
_TEXT	SEGMENT
tv158 = 192
tv146 = 192
tv134 = 192
tv90 = 192
this$ = 240
__that$ = 248
??0CThorn@Client@@QEAA@AEBV01@@Z PROC			; Client::CThorn::CThorn, COMDAT
$LN12:
  00000	48 89 54 24 10	 mov	 QWORD PTR [rsp+16], rdx
  00005	48 89 4c 24 08	 mov	 QWORD PTR [rsp+8], rcx
  0000a	55		 push	 rbp
  0000b	56		 push	 rsi
  0000c	57		 push	 rdi
  0000d	48 81 ec f0 00
	00 00		 sub	 rsp, 240		; 000000f0H
  00014	48 8d 6c 24 20	 lea	 rbp, QWORD PTR [rsp+32]
  00019	48 8b fc	 mov	 rdi, rsp
  0001c	b9 3c 00 00 00	 mov	 ecx, 60			; 0000003cH
  00021	b8 cc cc cc cc	 mov	 eax, -858993460		; ccccccccH
  00026	f3 ab		 rep stosd
  00028	48 8b 8c 24 18
	01 00 00	 mov	 rcx, QWORD PTR [rsp+280]
  00030	48 8b 95 f8 00
	00 00		 mov	 rdx, QWORD PTR __that$[rbp]
  00037	48 8b 8d f0 00
	00 00		 mov	 rcx, QWORD PTR this$[rbp]
  0003e	ff 15 00 00 00
	00		 call	 QWORD PTR __imp_??0CGameObject@Engine@@IEAA@AEBV01@@Z
  00044	48 83 bd f8 00
	00 00 00	 cmp	 QWORD PTR __that$[rbp], 0
  0004c	74 14		 je	 SHORT $LN3@CThorn
  0004e	48 8b 85 f8 00
	00 00		 mov	 rax, QWORD PTR __that$[rbp]
  00055	48 83 c0 78	 add	 rax, 120		; 00000078H
  00059	48 89 85 c0 00
	00 00		 mov	 QWORD PTR tv90[rbp], rax
  00060	eb 0b		 jmp	 SHORT $LN4@CThorn
$LN3@CThorn:
  00062	48 c7 85 c0 00
	00 00 00 00 00
	00		 mov	 QWORD PTR tv90[rbp], 0
$LN4@CThorn:
  0006d	48 8b 85 f0 00
	00 00		 mov	 rax, QWORD PTR this$[rbp]
  00074	48 83 c0 78	 add	 rax, 120		; 00000078H
  00078	48 8b 95 c0 00
	00 00		 mov	 rdx, QWORD PTR tv90[rbp]
  0007f	48 8b c8	 mov	 rcx, rax
  00082	ff 15 00 00 00
	00		 call	 QWORD PTR __imp_??0ISameObjectNoDetection@Engine@@QEAA@AEBV01@@Z
  00088	48 83 bd f8 00
	00 00 00	 cmp	 QWORD PTR __that$[rbp], 0
  00090	74 16		 je	 SHORT $LN5@CThorn
  00092	48 8b 85 f8 00
	00 00		 mov	 rax, QWORD PTR __that$[rbp]
  00099	48 05 80 00 00
	00		 add	 rax, 128		; 00000080H
  0009f	48 89 85 c0 00
	00 00		 mov	 QWORD PTR tv134[rbp], rax
  000a6	eb 0b		 jmp	 SHORT $LN6@CThorn
$LN5@CThorn:
  000a8	48 c7 85 c0 00
	00 00 00 00 00
	00		 mov	 QWORD PTR tv134[rbp], 0
$LN6@CThorn:
  000b3	48 8b 85 f0 00
	00 00		 mov	 rax, QWORD PTR this$[rbp]
  000ba	48 05 80 00 00
	00		 add	 rax, 128		; 00000080H
  000c0	48 8b 95 c0 00
	00 00		 mov	 rdx, QWORD PTR tv134[rbp]
  000c7	48 8b c8	 mov	 rcx, rax
  000ca	ff 15 00 00 00
	00		 call	 QWORD PTR __imp_??0IOnCollisionEnter@Engine@@QEAA@AEBV01@@Z
  000d0	48 83 bd f8 00
	00 00 00	 cmp	 QWORD PTR __that$[rbp], 0
  000d8	74 16		 je	 SHORT $LN7@CThorn
  000da	48 8b 85 f8 00
	00 00		 mov	 rax, QWORD PTR __that$[rbp]
  000e1	48 05 88 00 00
	00		 add	 rax, 136		; 00000088H
  000e7	48 89 85 c0 00
	00 00		 mov	 QWORD PTR tv146[rbp], rax
  000ee	eb 0b		 jmp	 SHORT $LN8@CThorn
$LN7@CThorn:
  000f0	48 c7 85 c0 00
	00 00 00 00 00
	00		 mov	 QWORD PTR tv146[rbp], 0
$LN8@CThorn:
  000fb	48 8b 85 f0 00
	00 00		 mov	 rax, QWORD PTR this$[rbp]
  00102	48 05 88 00 00
	00		 add	 rax, 136		; 00000088H
  00108	48 8b 95 c0 00
	00 00		 mov	 rdx, QWORD PTR tv146[rbp]
  0010f	48 8b c8	 mov	 rcx, rax
  00112	ff 15 00 00 00
	00		 call	 QWORD PTR __imp_??0IOnCollisionStay@Engine@@QEAA@AEBV01@@Z
  00118	48 83 bd f8 00
	00 00 00	 cmp	 QWORD PTR __that$[rbp], 0
  00120	74 16		 je	 SHORT $LN9@CThorn
  00122	48 8b 85 f8 00
	00 00		 mov	 rax, QWORD PTR __that$[rbp]
  00129	48 05 90 00 00
	00		 add	 rax, 144		; 00000090H
  0012f	48 89 85 c0 00
	00 00		 mov	 QWORD PTR tv158[rbp], rax
  00136	eb 0b		 jmp	 SHORT $LN10@CThorn
$LN9@CThorn:
  00138	48 c7 85 c0 00
	00 00 00 00 00
	00		 mov	 QWORD PTR tv158[rbp], 0
$LN10@CThorn:
  00143	48 8b 85 f0 00
	00 00		 mov	 rax, QWORD PTR this$[rbp]
  0014a	48 05 90 00 00
	00		 add	 rax, 144		; 00000090H
  00150	48 8b 95 c0 00
	00 00		 mov	 rdx, QWORD PTR tv158[rbp]
  00157	48 8b c8	 mov	 rcx, rax
  0015a	ff 15 00 00 00
	00		 call	 QWORD PTR __imp_??0IOnCollisionExit@Engine@@QEAA@AEBV01@@Z
  00160	48 8b 85 f0 00
	00 00		 mov	 rax, QWORD PTR this$[rbp]
  00167	48 8d 0d 00 00
	00 00		 lea	 rcx, OFFSET FLAT:??_7CThorn@Client@@6BCGameObject@Engine@@@
  0016e	48 89 08	 mov	 QWORD PTR [rax], rcx
  00171	48 8b 85 f0 00
	00 00		 mov	 rax, QWORD PTR this$[rbp]
  00178	48 8d 0d 00 00
	00 00		 lea	 rcx, OFFSET FLAT:??_7CThorn@Client@@6BISameObjectNoDetection@Engine@@@
  0017f	48 89 48 78	 mov	 QWORD PTR [rax+120], rcx
  00183	48 8b 85 f0 00
	00 00		 mov	 rax, QWORD PTR this$[rbp]
  0018a	48 8d 0d 00 00
	00 00		 lea	 rcx, OFFSET FLAT:??_7CThorn@Client@@6BIOnCollisionEnter@Engine@@@
  00191	48 89 88 80 00
	00 00		 mov	 QWORD PTR [rax+128], rcx
  00198	48 8b 85 f0 00
	00 00		 mov	 rax, QWORD PTR this$[rbp]
  0019f	48 8d 0d 00 00
	00 00		 lea	 rcx, OFFSET FLAT:??_7CThorn@Client@@6BIOnCollisionStay@Engine@@@
  001a6	48 89 88 88 00
	00 00		 mov	 QWORD PTR [rax+136], rcx
  001ad	48 8b 85 f0 00
	00 00		 mov	 rax, QWORD PTR this$[rbp]
  001b4	48 8d 0d 00 00
	00 00		 lea	 rcx, OFFSET FLAT:??_7CThorn@Client@@6BIOnCollisionExit@Engine@@@
  001bb	48 89 88 90 00
	00 00		 mov	 QWORD PTR [rax+144], rcx
  001c2	48 8b 85 f0 00
	00 00		 mov	 rax, QWORD PTR this$[rbp]
  001c9	48 8b 8d f8 00
	00 00		 mov	 rcx, QWORD PTR __that$[rbp]
  001d0	48 8b 89 98 00
	00 00		 mov	 rcx, QWORD PTR [rcx+152]
  001d7	48 89 88 98 00
	00 00		 mov	 QWORD PTR [rax+152], rcx
  001de	48 8b 85 f0 00
	00 00		 mov	 rax, QWORD PTR this$[rbp]
  001e5	48 8b 8d f8 00
	00 00		 mov	 rcx, QWORD PTR __that$[rbp]
  001ec	8b 89 a0 00 00
	00		 mov	 ecx, DWORD PTR [rcx+160]
  001f2	89 88 a0 00 00
	00		 mov	 DWORD PTR [rax+160], ecx
  001f8	48 8b 85 f0 00
	00 00		 mov	 rax, QWORD PTR this$[rbp]
  001ff	48 8b 8d f8 00
	00 00		 mov	 rcx, QWORD PTR __that$[rbp]
  00206	48 8b 89 a8 00
	00 00		 mov	 rcx, QWORD PTR [rcx+168]
  0020d	48 89 88 a8 00
	00 00		 mov	 QWORD PTR [rax+168], rcx
  00214	48 8b 85 f0 00
	00 00		 mov	 rax, QWORD PTR this$[rbp]
  0021b	48 8b 8d f8 00
	00 00		 mov	 rcx, QWORD PTR __that$[rbp]
  00222	48 8b 89 b0 00
	00 00		 mov	 rcx, QWORD PTR [rcx+176]
  00229	48 89 88 b0 00
	00 00		 mov	 QWORD PTR [rax+176], rcx
  00230	48 8b 85 f0 00
	00 00		 mov	 rax, QWORD PTR this$[rbp]
  00237	48 8b 8d f8 00
	00 00		 mov	 rcx, QWORD PTR __that$[rbp]
  0023e	48 8b 89 b8 00
	00 00		 mov	 rcx, QWORD PTR [rcx+184]
  00245	48 89 88 b8 00
	00 00		 mov	 QWORD PTR [rax+184], rcx
  0024c	48 8b 85 f0 00
	00 00		 mov	 rax, QWORD PTR this$[rbp]
  00253	48 8b 8d f8 00
	00 00		 mov	 rcx, QWORD PTR __that$[rbp]
  0025a	48 8b 89 c0 00
	00 00		 mov	 rcx, QWORD PTR [rcx+192]
  00261	48 89 88 c0 00
	00 00		 mov	 QWORD PTR [rax+192], rcx
  00268	48 8b 85 f0 00
	00 00		 mov	 rax, QWORD PTR this$[rbp]
  0026f	48 8b 8d f8 00
	00 00		 mov	 rcx, QWORD PTR __that$[rbp]
  00276	0f b6 89 c8 00
	00 00		 movzx	 ecx, BYTE PTR [rcx+200]
  0027d	88 88 c8 00 00
	00		 mov	 BYTE PTR [rax+200], cl
  00283	48 8b 85 f0 00
	00 00		 mov	 rax, QWORD PTR this$[rbp]
  0028a	48 8b 8d f8 00
	00 00		 mov	 rcx, QWORD PTR __that$[rbp]
  00291	0f b6 89 c9 00
	00 00		 movzx	 ecx, BYTE PTR [rcx+201]
  00298	88 88 c9 00 00
	00		 mov	 BYTE PTR [rax+201], cl
  0029e	48 8b 85 f0 00
	00 00		 mov	 rax, QWORD PTR this$[rbp]
  002a5	48 8b 8d f8 00
	00 00		 mov	 rcx, QWORD PTR __that$[rbp]
  002ac	0f b6 89 ca 00
	00 00		 movzx	 ecx, BYTE PTR [rcx+202]
  002b3	88 88 ca 00 00
	00		 mov	 BYTE PTR [rax+202], cl
  002b9	48 8b 85 f0 00
	00 00		 mov	 rax, QWORD PTR this$[rbp]
  002c0	48 8b 8d f8 00
	00 00		 mov	 rcx, QWORD PTR __that$[rbp]
  002c7	0f b6 89 cb 00
	00 00		 movzx	 ecx, BYTE PTR [rcx+203]
  002ce	88 88 cb 00 00
	00		 mov	 BYTE PTR [rax+203], cl
  002d4	48 8b 85 f0 00
	00 00		 mov	 rax, QWORD PTR this$[rbp]
  002db	48 8b 8d f8 00
	00 00		 mov	 rcx, QWORD PTR __that$[rbp]
  002e2	0f b6 89 cc 00
	00 00		 movzx	 ecx, BYTE PTR [rcx+204]
  002e9	88 88 cc 00 00
	00		 mov	 BYTE PTR [rax+204], cl
  002ef	48 8b 85 f0 00
	00 00		 mov	 rax, QWORD PTR this$[rbp]
  002f6	48 8b 8d f8 00
	00 00		 mov	 rcx, QWORD PTR __that$[rbp]
  002fd	0f b6 89 cd 00
	00 00		 movzx	 ecx, BYTE PTR [rcx+205]
  00304	88 88 cd 00 00
	00		 mov	 BYTE PTR [rax+205], cl
  0030a	48 8b 85 f0 00
	00 00		 mov	 rax, QWORD PTR this$[rbp]
  00311	48 8b 8d f8 00
	00 00		 mov	 rcx, QWORD PTR __that$[rbp]
  00318	0f b6 89 ce 00
	00 00		 movzx	 ecx, BYTE PTR [rcx+206]
  0031f	88 88 ce 00 00
	00		 mov	 BYTE PTR [rax+206], cl
  00325	48 8b 85 f0 00
	00 00		 mov	 rax, QWORD PTR this$[rbp]
  0032c	48 8b 8d f8 00
	00 00		 mov	 rcx, QWORD PTR __that$[rbp]
  00333	0f b6 89 cf 00
	00 00		 movzx	 ecx, BYTE PTR [rcx+207]
  0033a	88 88 cf 00 00
	00		 mov	 BYTE PTR [rax+207], cl
  00340	48 8b 85 f0 00
	00 00		 mov	 rax, QWORD PTR this$[rbp]
  00347	48 8b 8d f8 00
	00 00		 mov	 rcx, QWORD PTR __that$[rbp]
  0034e	f3 0f 10 81 d0
	00 00 00	 movss	 xmm0, DWORD PTR [rcx+208]
  00356	f3 0f 11 80 d0
	00 00 00	 movss	 DWORD PTR [rax+208], xmm0
  0035e	48 8b 85 f0 00
	00 00		 mov	 rax, QWORD PTR this$[rbp]
  00365	48 8b 8d f8 00
	00 00		 mov	 rcx, QWORD PTR __that$[rbp]
  0036c	f3 0f 10 81 d4
	00 00 00	 movss	 xmm0, DWORD PTR [rcx+212]
  00374	f3 0f 11 80 d4
	00 00 00	 movss	 DWORD PTR [rax+212], xmm0
  0037c	48 8b 85 f0 00
	00 00		 mov	 rax, QWORD PTR this$[rbp]
  00383	48 8b 8d f8 00
	00 00		 mov	 rcx, QWORD PTR __that$[rbp]
  0038a	48 8d b8 d8 00
	00 00		 lea	 rdi, QWORD PTR [rax+216]
  00391	48 8d b1 d8 00
	00 00		 lea	 rsi, QWORD PTR [rcx+216]
  00398	b9 0c 00 00 00	 mov	 ecx, 12
  0039d	f3 a4		 rep movsb
  0039f	48 8b 85 f0 00
	00 00		 mov	 rax, QWORD PTR this$[rbp]
  003a6	48 8b 8d f8 00
	00 00		 mov	 rcx, QWORD PTR __that$[rbp]
  003ad	f3 0f 10 81 e4
	00 00 00	 movss	 xmm0, DWORD PTR [rcx+228]
  003b5	f3 0f 11 80 e4
	00 00 00	 movss	 DWORD PTR [rax+228], xmm0
  003bd	48 8b 85 f0 00
	00 00		 mov	 rax, QWORD PTR this$[rbp]
  003c4	48 8b 8d f8 00
	00 00		 mov	 rcx, QWORD PTR __that$[rbp]
  003cb	f3 0f 10 81 e8
	00 00 00	 movss	 xmm0, DWORD PTR [rcx+232]
  003d3	f3 0f 11 80 e8
	00 00 00	 movss	 DWORD PTR [rax+232], xmm0
  003db	48 8b 85 f0 00
	00 00		 mov	 rax, QWORD PTR this$[rbp]
  003e2	48 8b 8d f8 00
	00 00		 mov	 rcx, QWORD PTR __that$[rbp]
  003e9	0f b6 89 ec 00
	00 00		 movzx	 ecx, BYTE PTR [rcx+236]
  003f0	88 88 ec 00 00
	00		 mov	 BYTE PTR [rax+236], cl
  003f6	48 8b 85 f0 00
	00 00		 mov	 rax, QWORD PTR this$[rbp]
  003fd	48 8b 8d f8 00
	00 00		 mov	 rcx, QWORD PTR __that$[rbp]
  00404	f3 0f 10 81 f0
	00 00 00	 movss	 xmm0, DWORD PTR [rcx+240]
  0040c	f3 0f 11 80 f0
	00 00 00	 movss	 DWORD PTR [rax+240], xmm0
  00414	48 8b 85 f0 00
	00 00		 mov	 rax, QWORD PTR this$[rbp]
  0041b	48 8b 8d f8 00
	00 00		 mov	 rcx, QWORD PTR __that$[rbp]
  00422	48 8b 89 f8 00
	00 00		 mov	 rcx, QWORD PTR [rcx+248]
  00429	48 89 88 f8 00
	00 00		 mov	 QWORD PTR [rax+248], rcx
  00430	48 8b 85 f0 00
	00 00		 mov	 rax, QWORD PTR this$[rbp]
  00437	48 8b 8d f8 00
	00 00		 mov	 rcx, QWORD PTR __that$[rbp]
  0043e	48 8b 89 00 01
	00 00		 mov	 rcx, QWORD PTR [rcx+256]
  00445	48 89 88 00 01
	00 00		 mov	 QWORD PTR [rax+256], rcx
  0044c	48 8b 85 f0 00
	00 00		 mov	 rax, QWORD PTR this$[rbp]
  00453	48 8b 8d f8 00
	00 00		 mov	 rcx, QWORD PTR __that$[rbp]
  0045a	48 8b 89 08 01
	00 00		 mov	 rcx, QWORD PTR [rcx+264]
  00461	48 89 88 08 01
	00 00		 mov	 QWORD PTR [rax+264], rcx
  00468	48 8b 85 f0 00
	00 00		 mov	 rax, QWORD PTR this$[rbp]
  0046f	48 8b 8d f8 00
	00 00		 mov	 rcx, QWORD PTR __that$[rbp]
  00476	48 8b 89 10 01
	00 00		 mov	 rcx, QWORD PTR [rcx+272]
  0047d	48 89 88 10 01
	00 00		 mov	 QWORD PTR [rax+272], rcx
  00484	48 8b 85 f0 00
	00 00		 mov	 rax, QWORD PTR this$[rbp]
  0048b	48 8b 8d f8 00
	00 00		 mov	 rcx, QWORD PTR __that$[rbp]
  00492	48 8b 89 18 01
	00 00		 mov	 rcx, QWORD PTR [rcx+280]
  00499	48 89 88 18 01
	00 00		 mov	 QWORD PTR [rax+280], rcx
  004a0	48 8b 85 f0 00
	00 00		 mov	 rax, QWORD PTR this$[rbp]
  004a7	48 8b 8d f8 00
	00 00		 mov	 rcx, QWORD PTR __that$[rbp]
  004ae	48 8b 89 20 01
	00 00		 mov	 rcx, QWORD PTR [rcx+288]
  004b5	48 89 88 20 01
	00 00		 mov	 QWORD PTR [rax+288], rcx
  004bc	48 8b 85 f0 00
	00 00		 mov	 rax, QWORD PTR this$[rbp]
  004c3	48 8b 8d f8 00
	00 00		 mov	 rcx, QWORD PTR __that$[rbp]
  004ca	48 8b 89 28 01
	00 00		 mov	 rcx, QWORD PTR [rcx+296]
  004d1	48 89 88 28 01
	00 00		 mov	 QWORD PTR [rax+296], rcx
  004d8	48 8b 85 f0 00
	00 00		 mov	 rax, QWORD PTR this$[rbp]
  004df	48 8b 8d f8 00
	00 00		 mov	 rcx, QWORD PTR __that$[rbp]
  004e6	48 8b 89 30 01
	00 00		 mov	 rcx, QWORD PTR [rcx+304]
  004ed	48 89 88 30 01
	00 00		 mov	 QWORD PTR [rax+304], rcx
  004f4	48 8b 85 f0 00
	00 00		 mov	 rax, QWORD PTR this$[rbp]
  004fb	48 8b 8d f8 00
	00 00		 mov	 rcx, QWORD PTR __that$[rbp]
  00502	f2 0f 10 81 38
	01 00 00	 movsd	 xmm0, QWORD PTR [rcx+312]
  0050a	f2 0f 11 80 38
	01 00 00	 movsd	 QWORD PTR [rax+312], xmm0
  00512	48 8b 85 f0 00
	00 00		 mov	 rax, QWORD PTR this$[rbp]
  00519	48 8b 8d f8 00
	00 00		 mov	 rcx, QWORD PTR __that$[rbp]
  00520	f3 0f 10 81 40
	01 00 00	 movss	 xmm0, DWORD PTR [rcx+320]
  00528	f3 0f 11 80 40
	01 00 00	 movss	 DWORD PTR [rax+320], xmm0
  00530	48 8b 85 f0 00
	00 00		 mov	 rax, QWORD PTR this$[rbp]
  00537	48 8b 8d f8 00
	00 00		 mov	 rcx, QWORD PTR __that$[rbp]
  0053e	0f b6 89 44 01
	00 00		 movzx	 ecx, BYTE PTR [rcx+324]
  00545	88 88 44 01 00
	00		 mov	 BYTE PTR [rax+324], cl
  0054b	48 8b 85 f0 00
	00 00		 mov	 rax, QWORD PTR this$[rbp]
  00552	48 8b 8d f8 00
	00 00		 mov	 rcx, QWORD PTR __that$[rbp]
  00559	0f b6 89 45 01
	00 00		 movzx	 ecx, BYTE PTR [rcx+325]
  00560	88 88 45 01 00
	00		 mov	 BYTE PTR [rax+325], cl
  00566	48 8b 85 f0 00
	00 00		 mov	 rax, QWORD PTR this$[rbp]
  0056d	48 8b 8d f8 00
	00 00		 mov	 rcx, QWORD PTR __that$[rbp]
  00574	f3 0f 10 81 48
	01 00 00	 movss	 xmm0, DWORD PTR [rcx+328]
  0057c	f3 0f 11 80 48
	01 00 00	 movss	 DWORD PTR [rax+328], xmm0
  00584	48 8b 85 f0 00
	00 00		 mov	 rax, QWORD PTR this$[rbp]
  0058b	48 8b 8d f8 00
	00 00		 mov	 rcx, QWORD PTR __that$[rbp]
  00592	48 8b 89 50 01
	00 00		 mov	 rcx, QWORD PTR [rcx+336]
  00599	48 89 88 50 01
	00 00		 mov	 QWORD PTR [rax+336], rcx
  005a0	48 8b 85 f0 00
	00 00		 mov	 rax, QWORD PTR this$[rbp]
  005a7	48 8b 8d f8 00
	00 00		 mov	 rcx, QWORD PTR __that$[rbp]
  005ae	48 8b 89 58 01
	00 00		 mov	 rcx, QWORD PTR [rcx+344]
  005b5	48 89 88 58 01
	00 00		 mov	 QWORD PTR [rax+344], rcx
  005bc	48 8b 85 f0 00
	00 00		 mov	 rax, QWORD PTR this$[rbp]
  005c3	48 8b 8d f8 00
	00 00		 mov	 rcx, QWORD PTR __that$[rbp]
  005ca	48 8b 89 60 01
	00 00		 mov	 rcx, QWORD PTR [rcx+352]
  005d1	48 89 88 60 01
	00 00		 mov	 QWORD PTR [rax+352], rcx
  005d8	48 8b 85 f0 00
	00 00		 mov	 rax, QWORD PTR this$[rbp]
  005df	48 8b 8d f8 00
	00 00		 mov	 rcx, QWORD PTR __that$[rbp]
  005e6	48 8b 89 68 01
	00 00		 mov	 rcx, QWORD PTR [rcx+360]
  005ed	48 89 88 68 01
	00 00		 mov	 QWORD PTR [rax+360], rcx
  005f4	48 8b 85 f0 00
	00 00		 mov	 rax, QWORD PTR this$[rbp]
  005fb	48 8b 8d f8 00
	00 00		 mov	 rcx, QWORD PTR __that$[rbp]
  00602	48 8d b8 70 01
	00 00		 lea	 rdi, QWORD PTR [rax+368]
  00609	48 8d b1 70 01
	00 00		 lea	 rsi, QWORD PTR [rcx+368]
  00610	b9 0c 00 00 00	 mov	 ecx, 12
  00615	f3 a4		 rep movsb
  00617	48 8b 85 f0 00
	00 00		 mov	 rax, QWORD PTR this$[rbp]
  0061e	48 8b 8d f8 00
	00 00		 mov	 rcx, QWORD PTR __that$[rbp]
  00625	f3 0f 10 81 7c
	01 00 00	 movss	 xmm0, DWORD PTR [rcx+380]
  0062d	f3 0f 11 80 7c
	01 00 00	 movss	 DWORD PTR [rax+380], xmm0
  00635	48 8b 85 f0 00
	00 00		 mov	 rax, QWORD PTR this$[rbp]
  0063c	48 8d a5 d0 00
	00 00		 lea	 rsp, QWORD PTR [rbp+208]
  00643	5f		 pop	 rdi
  00644	5e		 pop	 rsi
  00645	5d		 pop	 rbp
  00646	c3		 ret	 0
??0CThorn@Client@@QEAA@AEBV01@@Z ENDP			; Client::CThorn::CThorn
_TEXT	ENDS
; Function compile flags: /Odtp /RTCsu /ZI
; File c:\users\arcco\documents\github\framework\client\private\thorn.cpp
;	COMDAT ?Free@CThorn@Client@@UEAAXXZ
_TEXT	SEGMENT
this$ = 224
?Free@CThorn@Client@@UEAAXXZ PROC			; Client::CThorn::Free, COMDAT

; 579  : {

$LN3:
  00000	48 89 4c 24 08	 mov	 QWORD PTR [rsp+8], rcx
  00005	55		 push	 rbp
  00006	57		 push	 rdi
  00007	48 81 ec e8 00
	00 00		 sub	 rsp, 232		; 000000e8H
  0000e	48 8d 6c 24 20	 lea	 rbp, QWORD PTR [rsp+32]
  00013	48 8b fc	 mov	 rdi, rsp
  00016	b9 3a 00 00 00	 mov	 ecx, 58			; 0000003aH
  0001b	b8 cc cc cc cc	 mov	 eax, -858993460		; ccccccccH
  00020	f3 ab		 rep stosd
  00022	48 8b 8c 24 08
	01 00 00	 mov	 rcx, QWORD PTR [rsp+264]

; 580  : 	__super::Free();

  0002a	48 8b 8d e0 00
	00 00		 mov	 rcx, QWORD PTR this$[rbp]
  00031	ff 15 00 00 00
	00		 call	 QWORD PTR __imp_?Free@CGameObject@Engine@@UEAAXXZ

; 581  : 
; 582  : 	Safe_Release(m_pCollider);

  00037	48 8b 85 e0 00
	00 00		 mov	 rax, QWORD PTR this$[rbp]
  0003e	48 05 98 00 00
	00		 add	 rax, 152		; 00000098H
  00044	48 8b c8	 mov	 rcx, rax
  00047	e8 00 00 00 00	 call	 ??$Safe_Release@PEAVCSphereCollider@Engine@@@Engine@@YAKAEAPEAVCSphereCollider@0@@Z ; Engine::Safe_Release<Engine::CSphereCollider * __ptr64>

; 583  : 	Safe_Release(m_pRenderer);

  0004c	48 8b 85 e0 00
	00 00		 mov	 rax, QWORD PTR this$[rbp]
  00053	48 05 a8 00 00
	00		 add	 rax, 168		; 000000a8H
  00059	48 8b c8	 mov	 rcx, rax
  0005c	e8 00 00 00 00	 call	 ??$Safe_Release@PEAVCRenderer@Engine@@@Engine@@YAKAEAPEAVCRenderer@0@@Z ; Engine::Safe_Release<Engine::CRenderer * __ptr64>

; 584  : 	Safe_Release(m_pTransform);

  00061	48 8b 85 e0 00
	00 00		 mov	 rax, QWORD PTR this$[rbp]
  00068	48 05 b0 00 00
	00		 add	 rax, 176		; 000000b0H
  0006e	48 8b c8	 mov	 rcx, rax
  00071	e8 00 00 00 00	 call	 ??$Safe_Release@PEAVCTransform@Engine@@@Engine@@YAKAEAPEAVCTransform@0@@Z ; Engine::Safe_Release<Engine::CTransform * __ptr64>

; 585  : 	Safe_Release(m_pModel);

  00076	48 8b 85 e0 00
	00 00		 mov	 rax, QWORD PTR this$[rbp]
  0007d	48 05 b8 00 00
	00		 add	 rax, 184		; 000000b8H
  00083	48 8b c8	 mov	 rcx, rax
  00086	e8 00 00 00 00	 call	 ??$Safe_Release@PEAVCModel@Engine@@@Engine@@YAKAEAPEAVCModel@0@@Z ; Engine::Safe_Release<Engine::CModel * __ptr64>

; 586  : 	Safe_Release(m_pShader);

  0008b	48 8b 85 e0 00
	00 00		 mov	 rax, QWORD PTR this$[rbp]
  00092	48 05 c0 00 00
	00		 add	 rax, 192		; 000000c0H
  00098	48 8b c8	 mov	 rcx, rax
  0009b	e8 00 00 00 00	 call	 ??$Safe_Release@PEAVCShader@Engine@@@Engine@@YAKAEAPEAVCShader@0@@Z ; Engine::Safe_Release<Engine::CShader * __ptr64>

; 587  : 
; 588  : 	Safe_Release(m_pFloorEffectTransform);

  000a0	48 8b 85 e0 00
	00 00		 mov	 rax, QWORD PTR this$[rbp]
  000a7	48 05 f8 00 00
	00		 add	 rax, 248		; 000000f8H
  000ad	48 8b c8	 mov	 rcx, rax
  000b0	e8 00 00 00 00	 call	 ??$Safe_Release@PEAVCTransform@Engine@@@Engine@@YAKAEAPEAVCTransform@0@@Z ; Engine::Safe_Release<Engine::CTransform * __ptr64>

; 589  : 	Safe_Release(m_pFloorEffectBuffer);

  000b5	48 8b 85 e0 00
	00 00		 mov	 rax, QWORD PTR this$[rbp]
  000bc	48 05 00 01 00
	00		 add	 rax, 256		; 00000100H
  000c2	48 8b c8	 mov	 rcx, rax
  000c5	e8 00 00 00 00	 call	 ??$Safe_Release@PEAVCVIBuffer_Rect@Engine@@@Engine@@YAKAEAPEAVCVIBuffer_Rect@0@@Z ; Engine::Safe_Release<Engine::CVIBuffer_Rect * __ptr64>

; 590  : 	Safe_Release(m_pFloorShader);

  000ca	48 8b 85 e0 00
	00 00		 mov	 rax, QWORD PTR this$[rbp]
  000d1	48 05 08 01 00
	00		 add	 rax, 264		; 00000108H
  000d7	48 8b c8	 mov	 rcx, rax
  000da	e8 00 00 00 00	 call	 ??$Safe_Release@PEAVCShader@Engine@@@Engine@@YAKAEAPEAVCShader@0@@Z ; Engine::Safe_Release<Engine::CShader * __ptr64>

; 591  : 
; 592  : 	Safe_Release(m_pFloorEffectDiffuse);

  000df	48 8b 85 e0 00
	00 00		 mov	 rax, QWORD PTR this$[rbp]
  000e6	48 05 10 01 00
	00		 add	 rax, 272		; 00000110H
  000ec	48 8b c8	 mov	 rcx, rax
  000ef	e8 00 00 00 00	 call	 ??$Safe_Release@PEAVCTexture@Engine@@@Engine@@YAKAEAPEAVCTexture@0@@Z ; Engine::Safe_Release<Engine::CTexture * __ptr64>

; 593  : 	Safe_Release(m_pFloorEffectMask);

  000f4	48 8b 85 e0 00
	00 00		 mov	 rax, QWORD PTR this$[rbp]
  000fb	48 05 18 01 00
	00		 add	 rax, 280		; 00000118H
  00101	48 8b c8	 mov	 rcx, rax
  00104	e8 00 00 00 00	 call	 ??$Safe_Release@PEAVCTexture@Engine@@@Engine@@YAKAEAPEAVCTexture@0@@Z ; Engine::Safe_Release<Engine::CTexture * __ptr64>

; 594  : 
; 595  : 	Safe_Release(m_pFloorGard);

  00109	48 8b 85 e0 00
	00 00		 mov	 rax, QWORD PTR this$[rbp]
  00110	48 05 20 01 00
	00		 add	 rax, 288		; 00000120H
  00116	48 8b c8	 mov	 rcx, rax
  00119	e8 00 00 00 00	 call	 ??$Safe_Release@PEAVCModel@Engine@@@Engine@@YAKAEAPEAVCModel@0@@Z ; Engine::Safe_Release<Engine::CModel * __ptr64>

; 596  : 	Safe_Release(m_pFloorGardTransform);

  0011e	48 8b 85 e0 00
	00 00		 mov	 rax, QWORD PTR this$[rbp]
  00125	48 05 28 01 00
	00		 add	 rax, 296		; 00000128H
  0012b	48 8b c8	 mov	 rcx, rax
  0012e	e8 00 00 00 00	 call	 ??$Safe_Release@PEAVCTransform@Engine@@@Engine@@YAKAEAPEAVCTransform@0@@Z ; Engine::Safe_Release<Engine::CTransform * __ptr64>

; 597  : 	Safe_Release(m_pFloorGardTexture);

  00133	48 8b 85 e0 00
	00 00		 mov	 rax, QWORD PTR this$[rbp]
  0013a	48 05 30 01 00
	00		 add	 rax, 304		; 00000130H
  00140	48 8b c8	 mov	 rcx, rax
  00143	e8 00 00 00 00	 call	 ??$Safe_Release@PEAVCTexture@Engine@@@Engine@@YAKAEAPEAVCTexture@0@@Z ; Engine::Safe_Release<Engine::CTexture * __ptr64>

; 598  : 
; 599  : 	Safe_Release(m_pTrailEffectBuffer);

  00148	48 8b 85 e0 00
	00 00		 mov	 rax, QWORD PTR this$[rbp]
  0014f	48 05 50 01 00
	00		 add	 rax, 336		; 00000150H
  00155	48 8b c8	 mov	 rcx, rax
  00158	e8 00 00 00 00	 call	 ??$Safe_Release@PEAVCVIBuffer_Rect@Engine@@@Engine@@YAKAEAPEAVCVIBuffer_Rect@0@@Z ; Engine::Safe_Release<Engine::CVIBuffer_Rect * __ptr64>

; 600  : 	Safe_Release(m_pTrailTransform);

  0015d	48 8b 85 e0 00
	00 00		 mov	 rax, QWORD PTR this$[rbp]
  00164	48 05 58 01 00
	00		 add	 rax, 344		; 00000158H
  0016a	48 8b c8	 mov	 rcx, rax
  0016d	e8 00 00 00 00	 call	 ??$Safe_Release@PEAVCTransform@Engine@@@Engine@@YAKAEAPEAVCTransform@0@@Z ; Engine::Safe_Release<Engine::CTransform * __ptr64>

; 601  : 	Safe_Release(m_pTrailTexture);

  00172	48 8b 85 e0 00
	00 00		 mov	 rax, QWORD PTR this$[rbp]
  00179	48 05 60 01 00
	00		 add	 rax, 352		; 00000160H
  0017f	48 8b c8	 mov	 rcx, rax
  00182	e8 00 00 00 00	 call	 ??$Safe_Release@PEAVCTexture@Engine@@@Engine@@YAKAEAPEAVCTexture@0@@Z ; Engine::Safe_Release<Engine::CTexture * __ptr64>

; 602  : 	Safe_Release(m_pTrailEffectShader);

  00187	48 8b 85 e0 00
	00 00		 mov	 rax, QWORD PTR this$[rbp]
  0018e	48 05 68 01 00
	00		 add	 rax, 360		; 00000168H
  00194	48 8b c8	 mov	 rcx, rax
  00197	e8 00 00 00 00	 call	 ??$Safe_Release@PEAVCShader@Engine@@@Engine@@YAKAEAPEAVCShader@0@@Z ; Engine::Safe_Release<Engine::CShader * __ptr64>

; 603  : }

  0019c	48 8d a5 c8 00
	00 00		 lea	 rsp, QWORD PTR [rbp+200]
  001a3	5f		 pop	 rdi
  001a4	5d		 pop	 rbp
  001a5	c3		 ret	 0
?Free@CThorn@Client@@UEAAXXZ ENDP			; Client::CThorn::Free
_TEXT	ENDS
; Function compile flags: /Odtp /RTCsu /ZI
; File c:\users\arcco\documents\github\framework\client\private\thorn.cpp
;	COMDAT ?Clone@CThorn@Client@@UEAAPEAVCGameObject@Engine@@PEAX@Z
_TEXT	SEGMENT
pInstance$ = 8
$T4 = 232
$T5 = 264
$T6 = 296
tv83 = 312
__$ArrayPad$ = 320
this$ = 368
pArg$ = 376
?Clone@CThorn@Client@@UEAAPEAVCGameObject@Engine@@PEAX@Z PROC ; Client::CThorn::Clone, COMDAT

; 567  : {

$LN7:
  00000	48 89 54 24 10	 mov	 QWORD PTR [rsp+16], rdx
  00005	48 89 4c 24 08	 mov	 QWORD PTR [rsp+8], rcx
  0000a	55		 push	 rbp
  0000b	57		 push	 rdi
  0000c	48 81 ec 78 01
	00 00		 sub	 rsp, 376		; 00000178H
  00013	48 8d 6c 24 20	 lea	 rbp, QWORD PTR [rsp+32]
  00018	48 8b fc	 mov	 rdi, rsp
  0001b	b9 5e 00 00 00	 mov	 ecx, 94			; 0000005eH
  00020	b8 cc cc cc cc	 mov	 eax, -858993460		; ccccccccH
  00025	f3 ab		 rep stosd
  00027	48 8b 8c 24 98
	01 00 00	 mov	 rcx, QWORD PTR [rsp+408]
  0002f	48 c7 85 28 01
	00 00 fe ff ff
	ff		 mov	 QWORD PTR $T6[rbp], -2
  0003a	48 8b 05 00 00
	00 00		 mov	 rax, QWORD PTR __security_cookie
  00041	48 33 c5	 xor	 rax, rbp
  00044	48 89 85 40 01
	00 00		 mov	 QWORD PTR __$ArrayPad$[rbp], rax

; 568  : 	CThorn* pInstance = new CThorn(*this);

  0004b	8b 05 00 00 00
	00		 mov	 eax, DWORD PTR ?__LINE__Var@?0??Clone@CThorn@Client@@UEAAPEAVCGameObject@Engine@@PEAX@Z@4JA
  00051	ff c0		 inc	 eax
  00053	44 8b c8	 mov	 r9d, eax
  00056	4c 8d 05 00 00
	00 00		 lea	 r8, OFFSET FLAT:??_C@_0ED@NMCGMBOD@c?3?2users?2arcco?2documents?2github?2@
  0005d	ba 01 00 00 00	 mov	 edx, 1
  00062	b9 80 01 00 00	 mov	 ecx, 384		; 00000180H
  00067	e8 00 00 00 00	 call	 ??2@YAPEAX_KHPEBDH@Z	; operator new
  0006c	48 89 85 08 01
	00 00		 mov	 QWORD PTR $T5[rbp], rax
  00073	48 83 bd 08 01
	00 00 00	 cmp	 QWORD PTR $T5[rbp], 0
  0007b	74 1c		 je	 SHORT $LN4@Clone
  0007d	48 8b 95 70 01
	00 00		 mov	 rdx, QWORD PTR this$[rbp]
  00084	48 8b 8d 08 01
	00 00		 mov	 rcx, QWORD PTR $T5[rbp]
  0008b	e8 00 00 00 00	 call	 ??0CThorn@Client@@QEAA@AEBV01@@Z
  00090	48 89 85 38 01
	00 00		 mov	 QWORD PTR tv83[rbp], rax
  00097	eb 0b		 jmp	 SHORT $LN5@Clone
$LN4@Clone:
  00099	48 c7 85 38 01
	00 00 00 00 00
	00		 mov	 QWORD PTR tv83[rbp], 0
$LN5@Clone:
  000a4	48 8b 85 38 01
	00 00		 mov	 rax, QWORD PTR tv83[rbp]
  000ab	48 89 85 e8 00
	00 00		 mov	 QWORD PTR $T4[rbp], rax
  000b2	48 8b 85 e8 00
	00 00		 mov	 rax, QWORD PTR $T4[rbp]
  000b9	48 89 45 08	 mov	 QWORD PTR pInstance$[rbp], rax

; 569  : 	if (FAILED(pInstance->Initialize(pArg)))

  000bd	48 8b 95 78 01
	00 00		 mov	 rdx, QWORD PTR pArg$[rbp]
  000c4	48 8b 4d 08	 mov	 rcx, QWORD PTR pInstance$[rbp]
  000c8	e8 00 00 00 00	 call	 ?Initialize@CThorn@Client@@UEAAJPEAX@Z ; Client::CThorn::Initialize
  000cd	85 c0		 test	 eax, eax
  000cf	7d 22		 jge	 SHORT $LN2@Clone

; 570  : 	{
; 571  : 		MSG_BOX("Failed to Clone : CThorn");

  000d1	45 33 c9	 xor	 r9d, r9d
  000d4	4c 8d 05 00 00
	00 00		 lea	 r8, OFFSET FLAT:??_C@_1BA@HHOMBECE@?$AAM?$AAe?$AAs?$AAs?$AAa?$AAg?$AAe?$AA?$AA@
  000db	48 8d 15 00 00
	00 00		 lea	 rdx, OFFSET FLAT:??_C@_1DC@DHJPJPDL@?$AAF?$AAa?$AAi?$AAl?$AAe?$AAd?$AA?5?$AAt?$AAo?$AA?5?$AAC?$AAl?$AAo?$AAn?$AAe?$AA?5?$AA?3?$AA?5?$AAC?$AAT?$AAh?$AAo?$AAr?$AAn?$AA?$AA@
  000e2	33 c9		 xor	 ecx, ecx
  000e4	ff 15 00 00 00
	00		 call	 QWORD PTR __imp_MessageBoxW

; 572  : 		Safe_Release(pInstance);

  000ea	48 8d 4d 08	 lea	 rcx, QWORD PTR pInstance$[rbp]
  000ee	e8 00 00 00 00	 call	 ??$Safe_Release@PEAVCThorn@Client@@@Engine@@YAKAEAPEAVCThorn@Client@@@Z ; Engine::Safe_Release<Client::CThorn * __ptr64>
$LN2@Clone:

; 573  : 	}
; 574  : 
; 575  : 	return pInstance;

  000f3	48 8b 45 08	 mov	 rax, QWORD PTR pInstance$[rbp]

; 576  : }

  000f7	48 8b f8	 mov	 rdi, rax
  000fa	48 8d 4d e0	 lea	 rcx, QWORD PTR [rbp-32]
  000fe	48 8d 15 00 00
	00 00		 lea	 rdx, OFFSET FLAT:?Clone@CThorn@Client@@UEAAPEAVCGameObject@Engine@@PEAX@Z$rtcFrameData
  00105	e8 00 00 00 00	 call	 _RTC_CheckStackVars
  0010a	48 8b c7	 mov	 rax, rdi
  0010d	48 8b 8d 40 01
	00 00		 mov	 rcx, QWORD PTR __$ArrayPad$[rbp]
  00114	48 33 cd	 xor	 rcx, rbp
  00117	e8 00 00 00 00	 call	 __security_check_cookie
  0011c	48 8d a5 58 01
	00 00		 lea	 rsp, QWORD PTR [rbp+344]
  00123	5f		 pop	 rdi
  00124	5d		 pop	 rbp
  00125	c3		 ret	 0
?Clone@CThorn@Client@@UEAAPEAVCGameObject@Engine@@PEAX@Z ENDP ; Client::CThorn::Clone
_TEXT	ENDS
;	COMDAT text$x
text$x	SEGMENT
pInstance$ = 8
$T4 = 232
$T5 = 264
$T6 = 296
tv83 = 312
__$ArrayPad$ = 320
this$ = 368
pArg$ = 376
?dtor$0@?0??Clone@CThorn@Client@@UEAAPEAVCGameObject@Engine@@PEAX@Z@4HA PROC ; `Client::CThorn::Clone'::`1'::dtor$0
  00000	48 89 4c 24 08	 mov	 QWORD PTR [rsp+8], rcx
  00005	48 89 54 24 10	 mov	 QWORD PTR [rsp+16], rdx
  0000a	55		 push	 rbp
  0000b	57		 push	 rdi
  0000c	48 83 ec 28	 sub	 rsp, 40			; 00000028H
  00010	48 8d 6a 20	 lea	 rbp, QWORD PTR [rdx+32]
  00014	44 8b 0d 00 00
	00 00		 mov	 r9d, DWORD PTR ?__LINE__Var@?0??Clone@CThorn@Client@@UEAAPEAVCGameObject@Engine@@PEAX@Z@4JA
  0001b	41 ff c1	 inc	 r9d
  0001e	4c 8d 05 00 00
	00 00		 lea	 r8, OFFSET FLAT:??_C@_0ED@NMCGMBOD@c?3?2users?2arcco?2documents?2github?2@
  00025	ba 01 00 00 00	 mov	 edx, 1
  0002a	48 8b 8d 08 01
	00 00		 mov	 rcx, QWORD PTR $T5[rbp]
  00031	e8 00 00 00 00	 call	 ??3@YAXPEAXHPEBDH@Z	; operator delete
  00036	48 83 c4 28	 add	 rsp, 40			; 00000028H
  0003a	5f		 pop	 rdi
  0003b	5d		 pop	 rbp
  0003c	c3		 ret	 0
?dtor$0@?0??Clone@CThorn@Client@@UEAAPEAVCGameObject@Engine@@PEAX@Z@4HA ENDP ; `Client::CThorn::Clone'::`1'::dtor$0
text$x	ENDS
; Function compile flags: /Odtp /RTCsu /ZI
;	COMDAT text$x
text$x	SEGMENT
pInstance$ = 8
$T4 = 232
$T5 = 264
$T6 = 296
tv83 = 312
__$ArrayPad$ = 320
this$ = 368
pArg$ = 376
?dtor$0@?0??Clone@CThorn@Client@@UEAAPEAVCGameObject@Engine@@PEAX@Z@4HA PROC ; `Client::CThorn::Clone'::`1'::dtor$0
  00000	48 89 4c 24 08	 mov	 QWORD PTR [rsp+8], rcx
  00005	48 89 54 24 10	 mov	 QWORD PTR [rsp+16], rdx
  0000a	55		 push	 rbp
  0000b	57		 push	 rdi
  0000c	48 83 ec 28	 sub	 rsp, 40			; 00000028H
  00010	48 8d 6a 20	 lea	 rbp, QWORD PTR [rdx+32]
  00014	44 8b 0d 00 00
	00 00		 mov	 r9d, DWORD PTR ?__LINE__Var@?0??Clone@CThorn@Client@@UEAAPEAVCGameObject@Engine@@PEAX@Z@4JA
  0001b	41 ff c1	 inc	 r9d
  0001e	4c 8d 05 00 00
	00 00		 lea	 r8, OFFSET FLAT:??_C@_0ED@NMCGMBOD@c?3?2users?2arcco?2documents?2github?2@
  00025	ba 01 00 00 00	 mov	 edx, 1
  0002a	48 8b 8d 08 01
	00 00		 mov	 rcx, QWORD PTR $T5[rbp]
  00031	e8 00 00 00 00	 call	 ??3@YAXPEAXHPEBDH@Z	; operator delete
  00036	48 83 c4 28	 add	 rsp, 40			; 00000028H
  0003a	5f		 pop	 rdi
  0003b	5d		 pop	 rbp
  0003c	c3		 ret	 0
?dtor$0@?0??Clone@CThorn@Client@@UEAAPEAVCGameObject@Engine@@PEAX@Z@4HA ENDP ; `Client::CThorn::Clone'::`1'::dtor$0
text$x	ENDS
; Function compile flags: /Odtp /RTCsu /ZI
; File c:\users\arcco\documents\github\framework\client\private\thorn.cpp
;	COMDAT ?Create@CThorn@Client@@SAPEAV12@PEAUID3D11Device@@PEAUID3D11DeviceContext@@@Z
_TEXT	SEGMENT
pInstance$ = 8
$T4 = 232
$T5 = 264
$T6 = 296
tv84 = 312
__$ArrayPad$ = 320
pDevice$ = 368
pContext$ = 376
?Create@CThorn@Client@@SAPEAV12@PEAUID3D11Device@@PEAUID3D11DeviceContext@@@Z PROC ; Client::CThorn::Create, COMDAT

; 555  : {

$LN7:
  00000	48 89 54 24 10	 mov	 QWORD PTR [rsp+16], rdx
  00005	48 89 4c 24 08	 mov	 QWORD PTR [rsp+8], rcx
  0000a	55		 push	 rbp
  0000b	57		 push	 rdi
  0000c	48 81 ec 78 01
	00 00		 sub	 rsp, 376		; 00000178H
  00013	48 8d 6c 24 20	 lea	 rbp, QWORD PTR [rsp+32]
  00018	48 8b fc	 mov	 rdi, rsp
  0001b	b9 5e 00 00 00	 mov	 ecx, 94			; 0000005eH
  00020	b8 cc cc cc cc	 mov	 eax, -858993460		; ccccccccH
  00025	f3 ab		 rep stosd
  00027	48 8b 8c 24 98
	01 00 00	 mov	 rcx, QWORD PTR [rsp+408]
  0002f	48 c7 85 28 01
	00 00 fe ff ff
	ff		 mov	 QWORD PTR $T6[rbp], -2
  0003a	48 8b 05 00 00
	00 00		 mov	 rax, QWORD PTR __security_cookie
  00041	48 33 c5	 xor	 rax, rbp
  00044	48 89 85 40 01
	00 00		 mov	 QWORD PTR __$ArrayPad$[rbp], rax

; 556  : 	CThorn*	pInstance = new CThorn(pDevice, pContext);

  0004b	8b 05 00 00 00
	00		 mov	 eax, DWORD PTR ?__LINE__Var@?0??Create@CThorn@Client@@SAPEAV23@PEAUID3D11Device@@PEAUID3D11DeviceContext@@@Z@4JA
  00051	ff c0		 inc	 eax
  00053	44 8b c8	 mov	 r9d, eax
  00056	4c 8d 05 00 00
	00 00		 lea	 r8, OFFSET FLAT:??_C@_0ED@NMCGMBOD@c?3?2users?2arcco?2documents?2github?2@
  0005d	ba 01 00 00 00	 mov	 edx, 1
  00062	b9 80 01 00 00	 mov	 ecx, 384		; 00000180H
  00067	e8 00 00 00 00	 call	 ??2@YAPEAX_KHPEBDH@Z	; operator new
  0006c	48 89 85 08 01
	00 00		 mov	 QWORD PTR $T5[rbp], rax
  00073	48 83 bd 08 01
	00 00 00	 cmp	 QWORD PTR $T5[rbp], 0
  0007b	74 23		 je	 SHORT $LN4@Create
  0007d	4c 8b 85 78 01
	00 00		 mov	 r8, QWORD PTR pContext$[rbp]
  00084	48 8b 95 70 01
	00 00		 mov	 rdx, QWORD PTR pDevice$[rbp]
  0008b	48 8b 8d 08 01
	00 00		 mov	 rcx, QWORD PTR $T5[rbp]
  00092	e8 00 00 00 00	 call	 ??0CThorn@Client@@AEAA@PEAUID3D11Device@@PEAUID3D11DeviceContext@@@Z ; Client::CThorn::CThorn
  00097	48 89 85 38 01
	00 00		 mov	 QWORD PTR tv84[rbp], rax
  0009e	eb 0b		 jmp	 SHORT $LN5@Create
$LN4@Create:
  000a0	48 c7 85 38 01
	00 00 00 00 00
	00		 mov	 QWORD PTR tv84[rbp], 0
$LN5@Create:
  000ab	48 8b 85 38 01
	00 00		 mov	 rax, QWORD PTR tv84[rbp]
  000b2	48 89 85 e8 00
	00 00		 mov	 QWORD PTR $T4[rbp], rax
  000b9	48 8b 85 e8 00
	00 00		 mov	 rax, QWORD PTR $T4[rbp]
  000c0	48 89 45 08	 mov	 QWORD PTR pInstance$[rbp], rax

; 557  : 	if (FAILED(pInstance->Initialize_Prototype()))

  000c4	48 8b 4d 08	 mov	 rcx, QWORD PTR pInstance$[rbp]
  000c8	e8 00 00 00 00	 call	 ?Initialize_Prototype@CThorn@Client@@UEAAJXZ ; Client::CThorn::Initialize_Prototype
  000cd	85 c0		 test	 eax, eax
  000cf	7d 22		 jge	 SHORT $LN2@Create

; 558  : 	{
; 559  : 		MSG_BOX("Failed to Create : CThorn");

  000d1	45 33 c9	 xor	 r9d, r9d
  000d4	4c 8d 05 00 00
	00 00		 lea	 r8, OFFSET FLAT:??_C@_1BA@HHOMBECE@?$AAM?$AAe?$AAs?$AAs?$AAa?$AAg?$AAe?$AA?$AA@
  000db	48 8d 15 00 00
	00 00		 lea	 rdx, OFFSET FLAT:??_C@_1DE@ECNCIPJH@?$AAF?$AAa?$AAi?$AAl?$AAe?$AAd?$AA?5?$AAt?$AAo?$AA?5?$AAC?$AAr?$AAe?$AAa?$AAt?$AAe?$AA?5?$AA?3?$AA?5?$AAC?$AAT?$AAh?$AAo?$AAr?$AAn?$AA?$AA@
  000e2	33 c9		 xor	 ecx, ecx
  000e4	ff 15 00 00 00
	00		 call	 QWORD PTR __imp_MessageBoxW

; 560  : 		Safe_Release(pInstance);

  000ea	48 8d 4d 08	 lea	 rcx, QWORD PTR pInstance$[rbp]
  000ee	e8 00 00 00 00	 call	 ??$Safe_Release@PEAVCThorn@Client@@@Engine@@YAKAEAPEAVCThorn@Client@@@Z ; Engine::Safe_Release<Client::CThorn * __ptr64>
$LN2@Create:

; 561  : 	}
; 562  : 
; 563  : 	return pInstance;

  000f3	48 8b 45 08	 mov	 rax, QWORD PTR pInstance$[rbp]

; 564  : }

  000f7	48 8b f8	 mov	 rdi, rax
  000fa	48 8d 4d e0	 lea	 rcx, QWORD PTR [rbp-32]
  000fe	48 8d 15 00 00
	00 00		 lea	 rdx, OFFSET FLAT:?Create@CThorn@Client@@SAPEAV12@PEAUID3D11Device@@PEAUID3D11DeviceContext@@@Z$rtcFrameData
  00105	e8 00 00 00 00	 call	 _RTC_CheckStackVars
  0010a	48 8b c7	 mov	 rax, rdi
  0010d	48 8b 8d 40 01
	00 00		 mov	 rcx, QWORD PTR __$ArrayPad$[rbp]
  00114	48 33 cd	 xor	 rcx, rbp
  00117	e8 00 00 00 00	 call	 __security_check_cookie
  0011c	48 8d a5 58 01
	00 00		 lea	 rsp, QWORD PTR [rbp+344]
  00123	5f		 pop	 rdi
  00124	5d		 pop	 rbp
  00125	c3		 ret	 0
?Create@CThorn@Client@@SAPEAV12@PEAUID3D11Device@@PEAUID3D11DeviceContext@@@Z ENDP ; Client::CThorn::Create
_TEXT	ENDS
;	COMDAT text$x
text$x	SEGMENT
pInstance$ = 8
$T4 = 232
$T5 = 264
$T6 = 296
tv84 = 312
__$ArrayPad$ = 320
pDevice$ = 368
pContext$ = 376
?dtor$0@?0??Create@CThorn@Client@@SAPEAV12@PEAUID3D11Device@@PEAUID3D11DeviceContext@@@Z@4HA PROC ; `Client::CThorn::Create'::`1'::dtor$0
  00000	48 89 4c 24 08	 mov	 QWORD PTR [rsp+8], rcx
  00005	48 89 54 24 10	 mov	 QWORD PTR [rsp+16], rdx
  0000a	55		 push	 rbp
  0000b	57		 push	 rdi
  0000c	48 83 ec 28	 sub	 rsp, 40			; 00000028H
  00010	48 8d 6a 20	 lea	 rbp, QWORD PTR [rdx+32]
  00014	44 8b 0d 00 00
	00 00		 mov	 r9d, DWORD PTR ?__LINE__Var@?0??Create@CThorn@Client@@SAPEAV23@PEAUID3D11Device@@PEAUID3D11DeviceContext@@@Z@4JA
  0001b	41 ff c1	 inc	 r9d
  0001e	4c 8d 05 00 00
	00 00		 lea	 r8, OFFSET FLAT:??_C@_0ED@NMCGMBOD@c?3?2users?2arcco?2documents?2github?2@
  00025	ba 01 00 00 00	 mov	 edx, 1
  0002a	48 8b 8d 08 01
	00 00		 mov	 rcx, QWORD PTR $T5[rbp]
  00031	e8 00 00 00 00	 call	 ??3@YAXPEAXHPEBDH@Z	; operator delete
  00036	48 83 c4 28	 add	 rsp, 40			; 00000028H
  0003a	5f		 pop	 rdi
  0003b	5d		 pop	 rbp
  0003c	c3		 ret	 0
?dtor$0@?0??Create@CThorn@Client@@SAPEAV12@PEAUID3D11Device@@PEAUID3D11DeviceContext@@@Z@4HA ENDP ; `Client::CThorn::Create'::`1'::dtor$0
text$x	ENDS
; Function compile flags: /Odtp /RTCsu /ZI
;	COMDAT text$x
text$x	SEGMENT
pInstance$ = 8
$T4 = 232
$T5 = 264
$T6 = 296
tv84 = 312
__$ArrayPad$ = 320
pDevice$ = 368
pContext$ = 376
?dtor$0@?0??Create@CThorn@Client@@SAPEAV12@PEAUID3D11Device@@PEAUID3D11DeviceContext@@@Z@4HA PROC ; `Client::CThorn::Create'::`1'::dtor$0
  00000	48 89 4c 24 08	 mov	 QWORD PTR [rsp+8], rcx
  00005	48 89 54 24 10	 mov	 QWORD PTR [rsp+16], rdx
  0000a	55		 push	 rbp
  0000b	57		 push	 rdi
  0000c	48 83 ec 28	 sub	 rsp, 40			; 00000028H
  00010	48 8d 6a 20	 lea	 rbp, QWORD PTR [rdx+32]
  00014	44 8b 0d 00 00
	00 00		 mov	 r9d, DWORD PTR ?__LINE__Var@?0??Create@CThorn@Client@@SAPEAV23@PEAUID3D11Device@@PEAUID3D11DeviceContext@@@Z@4JA
  0001b	41 ff c1	 inc	 r9d
  0001e	4c 8d 05 00 00
	00 00		 lea	 r8, OFFSET FLAT:??_C@_0ED@NMCGMBOD@c?3?2users?2arcco?2documents?2github?2@
  00025	ba 01 00 00 00	 mov	 edx, 1
  0002a	48 8b 8d 08 01
	00 00		 mov	 rcx, QWORD PTR $T5[rbp]
  00031	e8 00 00 00 00	 call	 ??3@YAXPEAXHPEBDH@Z	; operator delete
  00036	48 83 c4 28	 add	 rsp, 40			; 00000028H
  0003a	5f		 pop	 rdi
  0003b	5d		 pop	 rbp
  0003c	c3		 ret	 0
?dtor$0@?0??Create@CThorn@Client@@SAPEAV12@PEAUID3D11Device@@PEAUID3D11DeviceContext@@@Z@4HA ENDP ; `Client::CThorn::Create'::`1'::dtor$0
text$x	ENDS
; Function compile flags: /Odtp /RTCsu /ZI
; File c:\users\arcco\documents\github\framework\client\private\thorn.cpp
;	COMDAT ?OnCollisionExit@CThorn@Client@@EEAAXPEAVCCollider@Engine@@0@Z
_TEXT	SEGMENT
this$ = 224
src$ = 232
dest$ = 240
?OnCollisionExit@CThorn@Client@@EEAAXPEAVCCollider@Engine@@0@Z PROC ; Client::CThorn::OnCollisionExit, COMDAT

; 638  : {

$LN3:
  00000	4c 89 44 24 18	 mov	 QWORD PTR [rsp+24], r8
  00005	48 89 54 24 10	 mov	 QWORD PTR [rsp+16], rdx
  0000a	48 89 4c 24 08	 mov	 QWORD PTR [rsp+8], rcx
  0000f	55		 push	 rbp
  00010	57		 push	 rdi
  00011	48 81 ec c8 00
	00 00		 sub	 rsp, 200		; 000000c8H
  00018	48 8b ec	 mov	 rbp, rsp
  0001b	48 8b fc	 mov	 rdi, rsp
  0001e	b9 32 00 00 00	 mov	 ecx, 50			; 00000032H
  00023	b8 cc cc cc cc	 mov	 eax, -858993460		; ccccccccH
  00028	f3 ab		 rep stosd
  0002a	48 8b 8c 24 e8
	00 00 00	 mov	 rcx, QWORD PTR [rsp+232]

; 639  : }

  00032	48 8d a5 c8 00
	00 00		 lea	 rsp, QWORD PTR [rbp+200]
  00039	5f		 pop	 rdi
  0003a	5d		 pop	 rbp
  0003b	c3		 ret	 0
?OnCollisionExit@CThorn@Client@@EEAAXPEAVCCollider@Engine@@0@Z ENDP ; Client::CThorn::OnCollisionExit
_TEXT	ENDS
; Function compile flags: /Odtp /RTCsu /ZI
; File c:\users\arcco\documents\github\framework\client\private\thorn.cpp
;	COMDAT ?OnCollisionStay@CThorn@Client@@EEAAXPEAVCCollider@Engine@@0@Z
_TEXT	SEGMENT
this$ = 224
src$ = 232
dest$ = 240
?OnCollisionStay@CThorn@Client@@EEAAXPEAVCCollider@Engine@@0@Z PROC ; Client::CThorn::OnCollisionStay, COMDAT

; 634  : {

$LN3:
  00000	4c 89 44 24 18	 mov	 QWORD PTR [rsp+24], r8
  00005	48 89 54 24 10	 mov	 QWORD PTR [rsp+16], rdx
  0000a	48 89 4c 24 08	 mov	 QWORD PTR [rsp+8], rcx
  0000f	55		 push	 rbp
  00010	57		 push	 rdi
  00011	48 81 ec c8 00
	00 00		 sub	 rsp, 200		; 000000c8H
  00018	48 8b ec	 mov	 rbp, rsp
  0001b	48 8b fc	 mov	 rdi, rsp
  0001e	b9 32 00 00 00	 mov	 ecx, 50			; 00000032H
  00023	b8 cc cc cc cc	 mov	 eax, -858993460		; ccccccccH
  00028	f3 ab		 rep stosd
  0002a	48 8b 8c 24 e8
	00 00 00	 mov	 rcx, QWORD PTR [rsp+232]

; 635  : }

  00032	48 8d a5 c8 00
	00 00		 lea	 rsp, QWORD PTR [rbp+200]
  00039	5f		 pop	 rdi
  0003a	5d		 pop	 rbp
  0003b	c3		 ret	 0
?OnCollisionStay@CThorn@Client@@EEAAXPEAVCCollider@Engine@@0@Z ENDP ; Client::CThorn::OnCollisionStay
_TEXT	ENDS
; Function compile flags: /Odtp /RTCsu /ZI
; File c:\users\arcco\documents\github\framework\client\private\thorn.cpp
;	COMDAT ?OnCollisionEnter@CThorn@Client@@EEAAXPEAVCCollider@Engine@@0@Z
_TEXT	SEGMENT
pPlayer$ = 8
pPlayerColl$1 = 40
tv82 = 244
this$ = 288
src$ = 296
dest$ = 304
?OnCollisionEnter@CThorn@Client@@EEAAXPEAVCCollider@Engine@@0@Z PROC ; Client::CThorn::OnCollisionEnter, COMDAT

; 610  : {

$LN9:
  00000	4c 89 44 24 18	 mov	 QWORD PTR [rsp+24], r8
  00005	48 89 54 24 10	 mov	 QWORD PTR [rsp+16], rdx
  0000a	48 89 4c 24 08	 mov	 QWORD PTR [rsp+8], rcx
  0000f	55		 push	 rbp
  00010	57		 push	 rdi
  00011	48 81 ec 38 01
	00 00		 sub	 rsp, 312		; 00000138H
  00018	48 8d 6c 24 30	 lea	 rbp, QWORD PTR [rsp+48]
  0001d	48 8b fc	 mov	 rdi, rsp
  00020	b9 4e 00 00 00	 mov	 ecx, 78			; 0000004eH
  00025	b8 cc cc cc cc	 mov	 eax, -858993460		; ccccccccH
  0002a	f3 ab		 rep stosd
  0002c	48 8b 8c 24 58
	01 00 00	 mov	 rcx, QWORD PTR [rsp+344]

; 611  : 	CCharacter* pPlayer = dynamic_cast<CCharacter*>(dest->GetOwner());

  00034	48 8b 8d 30 01
	00 00		 mov	 rcx, QWORD PTR dest$[rbp]
  0003b	ff 15 00 00 00
	00		 call	 QWORD PTR __imp_?GetOwner@CCollider@Engine@@QEBAPEAVCGameObject@2@XZ
  00041	c7 44 24 20 00
	00 00 00	 mov	 DWORD PTR [rsp+32], 0
  00049	4c 8d 0d 00 00
	00 00		 lea	 r9, OFFSET FLAT:??_R0?AVCCharacter@Client@@@8
  00050	4c 8d 05 00 00
	00 00		 lea	 r8, OFFSET FLAT:??_R0?AVCGameObject@Engine@@@8
  00057	33 d2		 xor	 edx, edx
  00059	48 8b c8	 mov	 rcx, rax
  0005c	e8 00 00 00 00	 call	 __RTDynamicCast
  00061	48 89 45 08	 mov	 QWORD PTR pPlayer$[rbp], rax

; 612  : 	if (pPlayer)

  00065	48 83 7d 08 00	 cmp	 QWORD PTR pPlayer$[rbp], 0
  0006a	74 76		 je	 SHORT $LN4@OnCollisio

; 613  : 	{
; 614  : 		CCollider* pPlayerColl = pPlayer->GetBodyCollider();

  0006c	48 8b 4d 08	 mov	 rcx, QWORD PTR pPlayer$[rbp]
  00070	e8 00 00 00 00	 call	 ?GetBodyCollider@CCharacter@Client@@QEBAPEAVCCollider@Engine@@XZ ; Client::CCharacter::GetBodyCollider
  00075	48 89 45 28	 mov	 QWORD PTR pPlayerColl$1[rbp], rax

; 615  : 		if (dest->Compare(pPlayerColl))

  00079	48 8b 55 28	 mov	 rdx, QWORD PTR pPlayerColl$1[rbp]
  0007d	48 8b 8d 30 01
	00 00		 mov	 rcx, QWORD PTR dest$[rbp]
  00084	ff 15 00 00 00
	00		 call	 QWORD PTR __imp_?Compare@CCollider@Engine@@QEAA_NPEAV12@@Z
  0008a	0f b6 c0	 movzx	 eax, al
  0008d	85 c0		 test	 eax, eax
  0008f	74 51		 je	 SHORT $LN5@OnCollisio

; 616  : 		{
; 617  : 			switch (m_eThornType)

  00091	48 8b 85 20 01
	00 00		 mov	 rax, QWORD PTR this$[rbp]
  00098	8b 40 20	 mov	 eax, DWORD PTR [rax+32]
  0009b	89 85 f4 00 00
	00		 mov	 DWORD PTR tv82[rbp], eax
  000a1	83 bd f4 00 00
	00 00		 cmp	 DWORD PTR tv82[rbp], 0
  000a8	74 0b		 je	 SHORT $LN6@OnCollisio
  000aa	83 bd f4 00 00
	00 01		 cmp	 DWORD PTR tv82[rbp], 1
  000b1	74 15		 je	 SHORT $LN7@OnCollisio
  000b3	eb 2d		 jmp	 SHORT $LN2@OnCollisio
$LN6@OnCollisio:

; 618  : 			{
; 619  : 			case THORN:
; 620  : 				pPlayer->RecvDamage(10.f);

  000b5	f3 0f 10 0d 00
	00 00 00	 movss	 xmm1, DWORD PTR __real@41200000
  000bd	48 8b 4d 08	 mov	 rcx, QWORD PTR pPlayer$[rbp]
  000c1	e8 00 00 00 00	 call	 ?RecvDamage@CCharacter@Client@@QEAAXM@Z ; Client::CCharacter::RecvDamage

; 621  : 				break;

  000c6	eb 1a		 jmp	 SHORT $LN2@OnCollisio
$LN7@OnCollisio:

; 622  : 			case MISSILE:
; 623  : 				//pPlayer->Airbone();
; 624  : 				pPlayer->Hit();

  000c8	48 8b 4d 08	 mov	 rcx, QWORD PTR pPlayer$[rbp]
  000cc	e8 00 00 00 00	 call	 ?Hit@CCharacter@Client@@QEAAXXZ ; Client::CCharacter::Hit

; 625  : 				pPlayer->RecvDamage(25.f);

  000d1	f3 0f 10 0d 00
	00 00 00	 movss	 xmm1, DWORD PTR __real@41c80000
  000d9	48 8b 4d 08	 mov	 rcx, QWORD PTR pPlayer$[rbp]
  000dd	e8 00 00 00 00	 call	 ?RecvDamage@CCharacter@Client@@QEAAXM@Z ; Client::CCharacter::RecvDamage
$LN2@OnCollisio:
$LN5@OnCollisio:
$LN4@OnCollisio:

; 626  : 				break;
; 627  : 			}
; 628  : 		}
; 629  : 
; 630  : 	}
; 631  : }

  000e2	48 8d a5 08 01
	00 00		 lea	 rsp, QWORD PTR [rbp+264]
  000e9	5f		 pop	 rdi
  000ea	5d		 pop	 rbp
  000eb	c3		 ret	 0
?OnCollisionEnter@CThorn@Client@@EEAAXPEAVCCollider@Engine@@0@Z ENDP ; Client::CThorn::OnCollisionEnter
_TEXT	ENDS
; Function compile flags: /Odtp /RTCsu /ZI
; File c:\users\arcco\documents\github\framework\client\private\thorn.cpp
;	COMDAT ?SameObjectNoDetection@CThorn@Client@@EEAAXXZ
_TEXT	SEGMENT
this$ = 224
?SameObjectNoDetection@CThorn@Client@@EEAAXXZ PROC	; Client::CThorn::SameObjectNoDetection, COMDAT

; 606  : {

$LN3:
  00000	48 89 4c 24 08	 mov	 QWORD PTR [rsp+8], rcx
  00005	55		 push	 rbp
  00006	57		 push	 rdi
  00007	48 81 ec c8 00
	00 00		 sub	 rsp, 200		; 000000c8H
  0000e	48 8b ec	 mov	 rbp, rsp
  00011	48 8b fc	 mov	 rdi, rsp
  00014	b9 32 00 00 00	 mov	 ecx, 50			; 00000032H
  00019	b8 cc cc cc cc	 mov	 eax, -858993460		; ccccccccH
  0001e	f3 ab		 rep stosd
  00020	48 8b 8c 24 e8
	00 00 00	 mov	 rcx, QWORD PTR [rsp+232]

; 607  : }

  00028	48 8d a5 c8 00
	00 00		 lea	 rsp, QWORD PTR [rbp+200]
  0002f	5f		 pop	 rdi
  00030	5d		 pop	 rbp
  00031	c3		 ret	 0
?SameObjectNoDetection@CThorn@Client@@EEAAXXZ ENDP	; Client::CThorn::SameObjectNoDetection
_TEXT	ENDS
; Function compile flags: /Odtp /RTCsu /ZI
; File c:\users\arcco\documents\github\framework\client\private\thorn.cpp
;	COMDAT ?SetupShaderResources@CThorn@Client@@AEAAJXZ
_TEXT	SEGMENT
pInstance$ = 8
LightDesc$ = 40
$T1 = 260
$T2 = 356
$T3 = 452
this$ = 528
?SetupShaderResources@CThorn@Client@@AEAAJXZ PROC	; Client::CThorn::SetupShaderResources, COMDAT

; 523  : {

$LN12:
  00000	48 89 4c 24 08	 mov	 QWORD PTR [rsp+8], rcx
  00005	55		 push	 rbp
  00006	57		 push	 rdi
  00007	48 81 ec 18 02
	00 00		 sub	 rsp, 536		; 00000218H
  0000e	48 8d 6c 24 20	 lea	 rbp, QWORD PTR [rsp+32]
  00013	48 8b fc	 mov	 rdi, rsp
  00016	b9 86 00 00 00	 mov	 ecx, 134		; 00000086H
  0001b	b8 cc cc cc cc	 mov	 eax, -858993460		; ccccccccH
  00020	f3 ab		 rep stosd
  00022	48 8b 8c 24 38
	02 00 00	 mov	 rcx, QWORD PTR [rsp+568]

; 524  : 	if (nullptr == m_pShader)

  0002a	48 8b 85 10 02
	00 00		 mov	 rax, QWORD PTR this$[rbp]
  00031	48 83 b8 c0 00
	00 00 00	 cmp	 QWORD PTR [rax+192], 0
  00039	75 0a		 jne	 SHORT $LN2@SetupShade

; 525  : 		return E_FAIL;

  0003b	b8 05 40 00 80	 mov	 eax, -2147467259	; ffffffff80004005H
  00040	e9 d2 01 00 00	 jmp	 $LN1@SetupShade
$LN2@SetupShade:

; 526  : 
; 527  : 	CGameInstance* pInstance = CGameInstance::GetInstance();

  00045	ff 15 00 00 00
	00		 call	 QWORD PTR __imp_?GetInstance@CGameInstance@Engine@@SAPEAV12@XZ
  0004b	48 89 45 08	 mov	 QWORD PTR pInstance$[rbp], rax

; 528  : 
; 529  : 	if (FAILED(m_pShader->SetMatrix("g_ViewMatrix", &pInstance->Get_Transform_float4x4(CPipeLine::TS_VIEW))))

  0004f	45 33 c0	 xor	 r8d, r8d
  00052	48 8d 95 04 01
	00 00		 lea	 rdx, QWORD PTR $T1[rbp]
  00059	48 8b 4d 08	 mov	 rcx, QWORD PTR pInstance$[rbp]
  0005d	ff 15 00 00 00
	00		 call	 QWORD PTR __imp_?Get_Transform_float4x4@CGameInstance@Engine@@QEAA?AUXMFLOAT4X4@DirectX@@W4TRANSFORM_STATE@CPipeLine@2@@Z
  00063	4c 8b c0	 mov	 r8, rax
  00066	48 8d 15 00 00
	00 00		 lea	 rdx, OFFSET FLAT:??_C@_0N@ELIMCBLG@g_ViewMatrix?$AA@
  0006d	48 8b 85 10 02
	00 00		 mov	 rax, QWORD PTR this$[rbp]
  00074	48 8b 88 c0 00
	00 00		 mov	 rcx, QWORD PTR [rax+192]
  0007b	ff 15 00 00 00
	00		 call	 QWORD PTR __imp_?SetMatrix@CShader@Engine@@QEAAJPEBDPEBUXMFLOAT4X4@DirectX@@@Z
  00081	85 c0		 test	 eax, eax
  00083	7d 0a		 jge	 SHORT $LN3@SetupShade

; 530  : 		return E_FAIL;

  00085	b8 05 40 00 80	 mov	 eax, -2147467259	; ffffffff80004005H
  0008a	e9 88 01 00 00	 jmp	 $LN1@SetupShade
$LN3@SetupShade:

; 531  : 
; 532  : 	if (FAILED(m_pShader->SetMatrix("g_ProjMatrix", &pInstance->Get_Transform_float4x4(CPipeLine::TS_PROJ))))

  0008f	41 b8 01 00 00
	00		 mov	 r8d, 1
  00095	48 8d 95 64 01
	00 00		 lea	 rdx, QWORD PTR $T2[rbp]
  0009c	48 8b 4d 08	 mov	 rcx, QWORD PTR pInstance$[rbp]
  000a0	ff 15 00 00 00
	00		 call	 QWORD PTR __imp_?Get_Transform_float4x4@CGameInstance@Engine@@QEAA?AUXMFLOAT4X4@DirectX@@W4TRANSFORM_STATE@CPipeLine@2@@Z
  000a6	4c 8b c0	 mov	 r8, rax
  000a9	48 8d 15 00 00
	00 00		 lea	 rdx, OFFSET FLAT:??_C@_0N@OOHDPIO@g_ProjMatrix?$AA@
  000b0	48 8b 85 10 02
	00 00		 mov	 rax, QWORD PTR this$[rbp]
  000b7	48 8b 88 c0 00
	00 00		 mov	 rcx, QWORD PTR [rax+192]
  000be	ff 15 00 00 00
	00		 call	 QWORD PTR __imp_?SetMatrix@CShader@Engine@@QEAAJPEBDPEBUXMFLOAT4X4@DirectX@@@Z
  000c4	85 c0		 test	 eax, eax
  000c6	7d 0a		 jge	 SHORT $LN4@SetupShade

; 533  : 		return E_FAIL;

  000c8	b8 05 40 00 80	 mov	 eax, -2147467259	; ffffffff80004005H
  000cd	e9 45 01 00 00	 jmp	 $LN1@SetupShade
$LN4@SetupShade:

; 534  : 
; 535  : 	if (FAILED(m_pShader->SetRawValue("g_vCamPosition", &pInstance->Get_CamPosition(), sizeof(_float3))))

  000d2	48 8d 95 c4 01
	00 00		 lea	 rdx, QWORD PTR $T3[rbp]
  000d9	48 8b 4d 08	 mov	 rcx, QWORD PTR pInstance$[rbp]
  000dd	ff 15 00 00 00
	00		 call	 QWORD PTR __imp_?Get_CamPosition@CGameInstance@Engine@@QEAA?AUXMFLOAT4@DirectX@@XZ
  000e3	41 b9 0c 00 00
	00		 mov	 r9d, 12
  000e9	4c 8b c0	 mov	 r8, rax
  000ec	48 8d 15 00 00
	00 00		 lea	 rdx, OFFSET FLAT:??_C@_0P@BDEIJKBM@g_vCamPosition?$AA@
  000f3	48 8b 85 10 02
	00 00		 mov	 rax, QWORD PTR this$[rbp]
  000fa	48 8b 88 c0 00
	00 00		 mov	 rcx, QWORD PTR [rax+192]
  00101	ff 15 00 00 00
	00		 call	 QWORD PTR __imp_?SetRawValue@CShader@Engine@@QEAAJPEBDPEBXI@Z
  00107	85 c0		 test	 eax, eax
  00109	7d 0a		 jge	 SHORT $LN5@SetupShade

; 536  : 		return E_FAIL;

  0010b	b8 05 40 00 80	 mov	 eax, -2147467259	; ffffffff80004005H
  00110	e9 02 01 00 00	 jmp	 $LN1@SetupShade
$LN5@SetupShade:

; 537  : 
; 538  : 	const LIGHT_DESC* LightDesc = pInstance->GetLightDesc(0);

  00115	33 d2		 xor	 edx, edx
  00117	48 8b 4d 08	 mov	 rcx, QWORD PTR pInstance$[rbp]
  0011b	ff 15 00 00 00
	00		 call	 QWORD PTR __imp_?GetLightDesc@CGameInstance@Engine@@QEAAPEBUtagLight_Desc@2@I@Z
  00121	48 89 45 28	 mov	 QWORD PTR LightDesc$[rbp], rax

; 539  : 	if (nullptr == LightDesc)

  00125	48 83 7d 28 00	 cmp	 QWORD PTR LightDesc$[rbp], 0
  0012a	75 0a		 jne	 SHORT $LN6@SetupShade

; 540  : 		return E_FAIL;

  0012c	b8 05 40 00 80	 mov	 eax, -2147467259	; ffffffff80004005H
  00131	e9 e1 00 00 00	 jmp	 $LN1@SetupShade
$LN6@SetupShade:

; 541  : 
; 542  : 	if (FAILED(m_pShader->SetRawValue("g_vLightDir", &LightDesc->vDirection, sizeof(_float4))))

  00136	48 8b 45 28	 mov	 rax, QWORD PTR LightDesc$[rbp]
  0013a	48 83 c0 04	 add	 rax, 4
  0013e	41 b9 10 00 00
	00		 mov	 r9d, 16
  00144	4c 8b c0	 mov	 r8, rax
  00147	48 8d 15 00 00
	00 00		 lea	 rdx, OFFSET FLAT:??_C@_0M@NHGOLGEL@g_vLightDir?$AA@
  0014e	48 8b 85 10 02
	00 00		 mov	 rax, QWORD PTR this$[rbp]
  00155	48 8b 88 c0 00
	00 00		 mov	 rcx, QWORD PTR [rax+192]
  0015c	ff 15 00 00 00
	00		 call	 QWORD PTR __imp_?SetRawValue@CShader@Engine@@QEAAJPEBDPEBXI@Z
  00162	85 c0		 test	 eax, eax
  00164	7d 0a		 jge	 SHORT $LN7@SetupShade

; 543  : 		return E_FAIL;

  00166	b8 05 40 00 80	 mov	 eax, -2147467259	; ffffffff80004005H
  0016b	e9 a7 00 00 00	 jmp	 $LN1@SetupShade
$LN7@SetupShade:

; 544  : 	if (FAILED(m_pShader->SetRawValue("g_vLightDiffuse", &LightDesc->vDiffuse, sizeof(_float4))))

  00170	48 8b 45 28	 mov	 rax, QWORD PTR LightDesc$[rbp]
  00174	48 83 c0 28	 add	 rax, 40			; 00000028H
  00178	41 b9 10 00 00
	00		 mov	 r9d, 16
  0017e	4c 8b c0	 mov	 r8, rax
  00181	48 8d 15 00 00
	00 00		 lea	 rdx, OFFSET FLAT:??_C@_0BA@PCOGIHOF@g_vLightDiffuse?$AA@
  00188	48 8b 85 10 02
	00 00		 mov	 rax, QWORD PTR this$[rbp]
  0018f	48 8b 88 c0 00
	00 00		 mov	 rcx, QWORD PTR [rax+192]
  00196	ff 15 00 00 00
	00		 call	 QWORD PTR __imp_?SetRawValue@CShader@Engine@@QEAAJPEBDPEBXI@Z
  0019c	85 c0		 test	 eax, eax
  0019e	7d 07		 jge	 SHORT $LN8@SetupShade

; 545  : 		return E_FAIL;

  001a0	b8 05 40 00 80	 mov	 eax, -2147467259	; ffffffff80004005H
  001a5	eb 70		 jmp	 SHORT $LN1@SetupShade
$LN8@SetupShade:

; 546  : 	if (FAILED(m_pShader->SetRawValue("g_vLightSpecular", &LightDesc->vSpecular, sizeof(_float4))))

  001a7	48 8b 45 28	 mov	 rax, QWORD PTR LightDesc$[rbp]
  001ab	48 83 c0 48	 add	 rax, 72			; 00000048H
  001af	41 b9 10 00 00
	00		 mov	 r9d, 16
  001b5	4c 8b c0	 mov	 r8, rax
  001b8	48 8d 15 00 00
	00 00		 lea	 rdx, OFFSET FLAT:??_C@_0BB@IJIIKIH@g_vLightSpecular?$AA@
  001bf	48 8b 85 10 02
	00 00		 mov	 rax, QWORD PTR this$[rbp]
  001c6	48 8b 88 c0 00
	00 00		 mov	 rcx, QWORD PTR [rax+192]
  001cd	ff 15 00 00 00
	00		 call	 QWORD PTR __imp_?SetRawValue@CShader@Engine@@QEAAJPEBDPEBXI@Z
  001d3	85 c0		 test	 eax, eax
  001d5	7d 07		 jge	 SHORT $LN9@SetupShade

; 547  : 		return E_FAIL;

  001d7	b8 05 40 00 80	 mov	 eax, -2147467259	; ffffffff80004005H
  001dc	eb 39		 jmp	 SHORT $LN1@SetupShade
$LN9@SetupShade:

; 548  : 	if (FAILED(m_pShader->SetRawValue("g_vLightAmbient", &LightDesc->vAmbient, sizeof(_float4))))

  001de	48 8b 45 28	 mov	 rax, QWORD PTR LightDesc$[rbp]
  001e2	48 83 c0 38	 add	 rax, 56			; 00000038H
  001e6	41 b9 10 00 00
	00		 mov	 r9d, 16
  001ec	4c 8b c0	 mov	 r8, rax
  001ef	48 8d 15 00 00
	00 00		 lea	 rdx, OFFSET FLAT:??_C@_0BA@EALGDMPJ@g_vLightAmbient?$AA@
  001f6	48 8b 85 10 02
	00 00		 mov	 rax, QWORD PTR this$[rbp]
  001fd	48 8b 88 c0 00
	00 00		 mov	 rcx, QWORD PTR [rax+192]
  00204	ff 15 00 00 00
	00		 call	 QWORD PTR __imp_?SetRawValue@CShader@Engine@@QEAAJPEBDPEBXI@Z
  0020a	85 c0		 test	 eax, eax
  0020c	7d 07		 jge	 SHORT $LN10@SetupShade

; 549  : 		return E_FAIL;

  0020e	b8 05 40 00 80	 mov	 eax, -2147467259	; ffffffff80004005H
  00213	eb 02		 jmp	 SHORT $LN1@SetupShade
$LN10@SetupShade:

; 550  : 
; 551  : 	return S_OK;

  00215	33 c0		 xor	 eax, eax
$LN1@SetupShade:

; 552  : }

  00217	48 8d a5 f8 01
	00 00		 lea	 rsp, QWORD PTR [rbp+504]
  0021e	5f		 pop	 rdi
  0021f	5d		 pop	 rbp
  00220	c3		 ret	 0
?SetupShaderResources@CThorn@Client@@AEAAJXZ ENDP	; Client::CThorn::SetupShaderResources
_TEXT	ENDS
; Function compile flags: /Odtp /RTCsu /ZI
; File c:\users\arcco\documents\github\framework\client\private\thorn.cpp
;	COMDAT ?AddComponents@CThorn@Client@@AEAAJXZ
_TEXT	SEGMENT
desc$ = 8
collDesc$ = 40
$T5 = 308
$T6 = 340
$T7 = 372
__$ArrayPad$ = 392
this$ = 432
?AddComponents@CThorn@Client@@AEAAJXZ PROC		; Client::CThorn::AddComponents, COMDAT

; 462  : {

$LN20:
  00000	48 89 4c 24 08	 mov	 QWORD PTR [rsp+8], rcx
  00005	55		 push	 rbp
  00006	57		 push	 rdi
  00007	48 81 ec c8 01
	00 00		 sub	 rsp, 456		; 000001c8H
  0000e	48 8d 6c 24 30	 lea	 rbp, QWORD PTR [rsp+48]
  00013	48 8b fc	 mov	 rdi, rsp
  00016	b9 72 00 00 00	 mov	 ecx, 114		; 00000072H
  0001b	b8 cc cc cc cc	 mov	 eax, -858993460		; ccccccccH
  00020	f3 ab		 rep stosd
  00022	48 8b 8c 24 e8
	01 00 00	 mov	 rcx, QWORD PTR [rsp+488]
  0002a	48 8b 05 00 00
	00 00		 mov	 rax, QWORD PTR __security_cookie
  00031	48 33 c5	 xor	 rax, rbp
  00034	48 89 85 88 01
	00 00		 mov	 QWORD PTR __$ArrayPad$[rbp], rax

; 463  : 	if (FAILED(CGameObject::Add_Component(LEVEL_STATIC, TEXT("proto_com_renderer"), TEXT("com_renderer"), (CComponent**)&m_pRenderer)))

  0003b	48 8b 85 b0 01
	00 00		 mov	 rax, QWORD PTR this$[rbp]
  00042	48 05 a8 00 00
	00		 add	 rax, 168		; 000000a8H
  00048	48 c7 44 24 28
	00 00 00 00	 mov	 QWORD PTR [rsp+40], 0
  00051	48 89 44 24 20	 mov	 QWORD PTR [rsp+32], rax
  00056	4c 8d 0d 00 00
	00 00		 lea	 r9, OFFSET FLAT:??_C@_1BK@GIOMOCNE@?$AAc?$AAo?$AAm?$AA_?$AAr?$AAe?$AAn?$AAd?$AAe?$AAr?$AAe?$AAr?$AA?$AA@
  0005d	4c 8d 05 00 00
	00 00		 lea	 r8, OFFSET FLAT:??_C@_1CG@COFFFCLL@?$AAp?$AAr?$AAo?$AAt?$AAo?$AA_?$AAc?$AAo?$AAm?$AA_?$AAr?$AAe?$AAn?$AAd?$AAe?$AAr?$AAe?$AAr?$AA?$AA@
  00064	33 d2		 xor	 edx, edx
  00066	48 8b 8d b0 01
	00 00		 mov	 rcx, QWORD PTR this$[rbp]
  0006d	ff 15 00 00 00
	00		 call	 QWORD PTR __imp_?Add_Component@CGameObject@Engine@@IEAAJIPEB_W0PEAPEAVCComponent@2@PEAX@Z
  00073	85 c0		 test	 eax, eax
  00075	7d 0a		 jge	 SHORT $LN2@AddCompone

; 464  : 		return E_FAIL;

  00077	b8 05 40 00 80	 mov	 eax, -2147467259	; ffffffff80004005H
  0007c	e9 0b 05 00 00	 jmp	 $LN1@AddCompone
$LN2@AddCompone:

; 465  : 
; 466  : 	if (FAILED(CGameObject::Add_Component(LEVEL_STATIC, TEXT("proto_com_transform"), TEXT("com_transform"), (CComponent**)&m_pTransform)))

  00081	48 8b 85 b0 01
	00 00		 mov	 rax, QWORD PTR this$[rbp]
  00088	48 05 b0 00 00
	00		 add	 rax, 176		; 000000b0H
  0008e	48 c7 44 24 28
	00 00 00 00	 mov	 QWORD PTR [rsp+40], 0
  00097	48 89 44 24 20	 mov	 QWORD PTR [rsp+32], rax
  0009c	4c 8d 0d 00 00
	00 00		 lea	 r9, OFFSET FLAT:??_C@_1BM@CJMPMHDD@?$AAc?$AAo?$AAm?$AA_?$AAt?$AAr?$AAa?$AAn?$AAs?$AAf?$AAo?$AAr?$AAm?$AA?$AA@
  000a3	4c 8d 05 00 00
	00 00		 lea	 r8, OFFSET FLAT:??_C@_1CI@MLEFGO@?$AAp?$AAr?$AAo?$AAt?$AAo?$AA_?$AAc?$AAo?$AAm?$AA_?$AAt?$AAr?$AAa?$AAn?$AAs?$AAf?$AAo?$AAr?$AAm?$AA?$AA@
  000aa	33 d2		 xor	 edx, edx
  000ac	48 8b 8d b0 01
	00 00		 mov	 rcx, QWORD PTR this$[rbp]
  000b3	ff 15 00 00 00
	00		 call	 QWORD PTR __imp_?Add_Component@CGameObject@Engine@@IEAAJIPEB_W0PEAPEAVCComponent@2@PEAX@Z
  000b9	85 c0		 test	 eax, eax
  000bb	7d 0a		 jge	 SHORT $LN3@AddCompone

; 467  : 		return E_FAIL;

  000bd	b8 05 40 00 80	 mov	 eax, -2147467259	; ffffffff80004005H
  000c2	e9 c5 04 00 00	 jmp	 $LN1@AddCompone
$LN3@AddCompone:

; 468  : 
; 469  : 	if (FAILED(CGameObject::Add_Component(LEVEL_STATIC, TEXT("proto_com_transform"), TEXT("com_transformtrail"), (CComponent**)&m_pTrailTransform)))

  000c7	48 8b 85 b0 01
	00 00		 mov	 rax, QWORD PTR this$[rbp]
  000ce	48 05 58 01 00
	00		 add	 rax, 344		; 00000158H
  000d4	48 c7 44 24 28
	00 00 00 00	 mov	 QWORD PTR [rsp+40], 0
  000dd	48 89 44 24 20	 mov	 QWORD PTR [rsp+32], rax
  000e2	4c 8d 0d 00 00
	00 00		 lea	 r9, OFFSET FLAT:??_C@_1CG@DBHLCHEM@?$AAc?$AAo?$AAm?$AA_?$AAt?$AAr?$AAa?$AAn?$AAs?$AAf?$AAo?$AAr?$AAm?$AAt?$AAr?$AAa?$AAi?$AAl?$AA?$AA@
  000e9	4c 8d 05 00 00
	00 00		 lea	 r8, OFFSET FLAT:??_C@_1CI@MLEFGO@?$AAp?$AAr?$AAo?$AAt?$AAo?$AA_?$AAc?$AAo?$AAm?$AA_?$AAt?$AAr?$AAa?$AAn?$AAs?$AAf?$AAo?$AAr?$AAm?$AA?$AA@
  000f0	33 d2		 xor	 edx, edx
  000f2	48 8b 8d b0 01
	00 00		 mov	 rcx, QWORD PTR this$[rbp]
  000f9	ff 15 00 00 00
	00		 call	 QWORD PTR __imp_?Add_Component@CGameObject@Engine@@IEAAJIPEB_W0PEAPEAVCComponent@2@PEAX@Z
  000ff	85 c0		 test	 eax, eax
  00101	7d 0a		 jge	 SHORT $LN4@AddCompone

; 470  : 		return E_FAIL;

  00103	b8 05 40 00 80	 mov	 eax, -2147467259	; ffffffff80004005H
  00108	e9 7f 04 00 00	 jmp	 $LN1@AddCompone
$LN4@AddCompone:

; 471  : 
; 472  : 	CTransform::TRANSFORM_DESC desc;
; 473  : 	ZeroMemory(&desc, sizeof(desc));

  0010d	41 b8 08 00 00
	00		 mov	 r8d, 8
  00113	33 d2		 xor	 edx, edx
  00115	48 8d 4d 08	 lea	 rcx, QWORD PTR desc$[rbp]
  00119	e8 00 00 00 00	 call	 memset

; 474  : 	desc.fRotationSpeed = XMConvertToRadians(30.f);

  0011e	f3 0f 10 05 00
	00 00 00	 movss	 xmm0, DWORD PTR __real@41f00000
  00126	e8 00 00 00 00	 call	 ?XMConvertToRadians@DirectX@@YAMM@Z ; DirectX::XMConvertToRadians
  0012b	f3 0f 11 45 0c	 movss	 DWORD PTR desc$[rbp+4], xmm0

; 475  : 	if (FAILED(CGameObject::Add_Component(LEVEL_STATIC, TEXT("proto_com_transform"), TEXT("com_transform3"), (CComponent**)&m_pFloorGardTransform, &desc)))

  00130	48 8b 85 b0 01
	00 00		 mov	 rax, QWORD PTR this$[rbp]
  00137	48 05 28 01 00
	00		 add	 rax, 296		; 00000128H
  0013d	48 8d 4d 08	 lea	 rcx, QWORD PTR desc$[rbp]
  00141	48 89 4c 24 28	 mov	 QWORD PTR [rsp+40], rcx
  00146	48 89 44 24 20	 mov	 QWORD PTR [rsp+32], rax
  0014b	4c 8d 0d 00 00
	00 00		 lea	 r9, OFFSET FLAT:??_C@_1BO@BDPFEMKD@?$AAc?$AAo?$AAm?$AA_?$AAt?$AAr?$AAa?$AAn?$AAs?$AAf?$AAo?$AAr?$AAm?$AA3?$AA?$AA@
  00152	4c 8d 05 00 00
	00 00		 lea	 r8, OFFSET FLAT:??_C@_1CI@MLEFGO@?$AAp?$AAr?$AAo?$AAt?$AAo?$AA_?$AAc?$AAo?$AAm?$AA_?$AAt?$AAr?$AAa?$AAn?$AAs?$AAf?$AAo?$AAr?$AAm?$AA?$AA@
  00159	33 d2		 xor	 edx, edx
  0015b	48 8b 8d b0 01
	00 00		 mov	 rcx, QWORD PTR this$[rbp]
  00162	ff 15 00 00 00
	00		 call	 QWORD PTR __imp_?Add_Component@CGameObject@Engine@@IEAAJIPEB_W0PEAPEAVCComponent@2@PEAX@Z
  00168	85 c0		 test	 eax, eax
  0016a	7d 0a		 jge	 SHORT $LN5@AddCompone

; 476  : 		return E_FAIL;

  0016c	b8 05 40 00 80	 mov	 eax, -2147467259	; ffffffff80004005H
  00171	e9 16 04 00 00	 jmp	 $LN1@AddCompone
$LN5@AddCompone:

; 477  : 
; 478  : 	if (FAILED(CGameObject::Add_Component(LEVEL_STATIC, TEXT("proto_com_shader_vtxmodel"), TEXT("com_shader"), (CComponent**)&m_pShader)))

  00176	48 8b 85 b0 01
	00 00		 mov	 rax, QWORD PTR this$[rbp]
  0017d	48 05 c0 00 00
	00		 add	 rax, 192		; 000000c0H
  00183	48 c7 44 24 28
	00 00 00 00	 mov	 QWORD PTR [rsp+40], 0
  0018c	48 89 44 24 20	 mov	 QWORD PTR [rsp+32], rax
  00191	4c 8d 0d 00 00
	00 00		 lea	 r9, OFFSET FLAT:??_C@_1BG@GGOMMBBL@?$AAc?$AAo?$AAm?$AA_?$AAs?$AAh?$AAa?$AAd?$AAe?$AAr?$AA?$AA@
  00198	4c 8d 05 00 00
	00 00		 lea	 r8, OFFSET FLAT:??_C@_1DE@OMAPGAIH@?$AAp?$AAr?$AAo?$AAt?$AAo?$AA_?$AAc?$AAo?$AAm?$AA_?$AAs?$AAh?$AAa?$AAd?$AAe?$AAr?$AA_?$AAv?$AAt?$AAx?$AAm?$AAo?$AAd?$AAe?$AAl?$AA?$AA@
  0019f	33 d2		 xor	 edx, edx
  001a1	48 8b 8d b0 01
	00 00		 mov	 rcx, QWORD PTR this$[rbp]
  001a8	ff 15 00 00 00
	00		 call	 QWORD PTR __imp_?Add_Component@CGameObject@Engine@@IEAAJIPEB_W0PEAPEAVCComponent@2@PEAX@Z
  001ae	85 c0		 test	 eax, eax
  001b0	7d 0a		 jge	 SHORT $LN6@AddCompone

; 479  : 		return E_FAIL;

  001b2	b8 05 40 00 80	 mov	 eax, -2147467259	; ffffffff80004005H
  001b7	e9 d0 03 00 00	 jmp	 $LN1@AddCompone
$LN6@AddCompone:

; 480  : 
; 481  : 	if (FAILED(CGameObject::Add_Component(LEVEL_STATIC, TEXT("proto_com_shader_vtxtex"), TEXT("com_shader1"), (CComponent**)&m_pFloorShader)))

  001bc	48 8b 85 b0 01
	00 00		 mov	 rax, QWORD PTR this$[rbp]
  001c3	48 05 08 01 00
	00		 add	 rax, 264		; 00000108H
  001c9	48 c7 44 24 28
	00 00 00 00	 mov	 QWORD PTR [rsp+40], 0
  001d2	48 89 44 24 20	 mov	 QWORD PTR [rsp+32], rax
  001d7	4c 8d 0d 00 00
	00 00		 lea	 r9, OFFSET FLAT:??_C@_1BI@NMCMAJE@?$AAc?$AAo?$AAm?$AA_?$AAs?$AAh?$AAa?$AAd?$AAe?$AAr?$AA1?$AA?$AA@
  001de	4c 8d 05 00 00
	00 00		 lea	 r8, OFFSET FLAT:??_C@_1DA@NCILMLLP@?$AAp?$AAr?$AAo?$AAt?$AAo?$AA_?$AAc?$AAo?$AAm?$AA_?$AAs?$AAh?$AAa?$AAd?$AAe?$AAr?$AA_?$AAv?$AAt?$AAx?$AAt?$AAe?$AAx?$AA?$AA@
  001e5	33 d2		 xor	 edx, edx
  001e7	48 8b 8d b0 01
	00 00		 mov	 rcx, QWORD PTR this$[rbp]
  001ee	ff 15 00 00 00
	00		 call	 QWORD PTR __imp_?Add_Component@CGameObject@Engine@@IEAAJIPEB_W0PEAPEAVCComponent@2@PEAX@Z
  001f4	85 c0		 test	 eax, eax
  001f6	7d 0a		 jge	 SHORT $LN7@AddCompone

; 482  : 		return E_FAIL;

  001f8	b8 05 40 00 80	 mov	 eax, -2147467259	; ffffffff80004005H
  001fd	e9 8a 03 00 00	 jmp	 $LN1@AddCompone
$LN7@AddCompone:

; 483  : 
; 484  : 	if (FAILED(CGameObject::Add_Component(LEVEL_STATIC, TEXT("proto_com_model_thorngard"), TEXT("com_mode_gard"), (CComponent**)&m_pFloorGard)))

  00202	48 8b 85 b0 01
	00 00		 mov	 rax, QWORD PTR this$[rbp]
  00209	48 05 20 01 00
	00		 add	 rax, 288		; 00000120H
  0020f	48 c7 44 24 28
	00 00 00 00	 mov	 QWORD PTR [rsp+40], 0
  00218	48 89 44 24 20	 mov	 QWORD PTR [rsp+32], rax
  0021d	4c 8d 0d 00 00
	00 00		 lea	 r9, OFFSET FLAT:??_C@_1BM@EDKHFEBF@?$AAc?$AAo?$AAm?$AA_?$AAm?$AAo?$AAd?$AAe?$AA_?$AAg?$AAa?$AAr?$AAd?$AA?$AA@
  00224	4c 8d 05 00 00
	00 00		 lea	 r8, OFFSET FLAT:??_C@_1DE@KBCIPNKP@?$AAp?$AAr?$AAo?$AAt?$AAo?$AA_?$AAc?$AAo?$AAm?$AA_?$AAm?$AAo?$AAd?$AAe?$AAl?$AA_?$AAt?$AAh?$AAo?$AAr?$AAn?$AAg?$AAa?$AAr?$AAd?$AA?$AA@
  0022b	33 d2		 xor	 edx, edx
  0022d	48 8b 8d b0 01
	00 00		 mov	 rcx, QWORD PTR this$[rbp]
  00234	ff 15 00 00 00
	00		 call	 QWORD PTR __imp_?Add_Component@CGameObject@Engine@@IEAAJIPEB_W0PEAPEAVCComponent@2@PEAX@Z
  0023a	85 c0		 test	 eax, eax
  0023c	7d 0a		 jge	 SHORT $LN8@AddCompone

; 485  : 		return E_FAIL;

  0023e	b8 05 40 00 80	 mov	 eax, -2147467259	; ffffffff80004005H
  00243	e9 44 03 00 00	 jmp	 $LN1@AddCompone
$LN8@AddCompone:

; 486  : 
; 487  : 	if (FAILED(CGameObject::Add_Component(LEVEL_BOSS, TEXT("proto_com_model_thorn"), TEXT("com_model"), (CComponent**)&m_pModel)))

  00248	48 8b 85 b0 01
	00 00		 mov	 rax, QWORD PTR this$[rbp]
  0024f	48 05 b8 00 00
	00		 add	 rax, 184		; 000000b8H
  00255	48 c7 44 24 28
	00 00 00 00	 mov	 QWORD PTR [rsp+40], 0
  0025e	48 89 44 24 20	 mov	 QWORD PTR [rsp+32], rax
  00263	4c 8d 0d 00 00
	00 00		 lea	 r9, OFFSET FLAT:??_C@_1BE@MLNOEPCA@?$AAc?$AAo?$AAm?$AA_?$AAm?$AAo?$AAd?$AAe?$AAl?$AA?$AA@
  0026a	4c 8d 05 00 00
	00 00		 lea	 r8, OFFSET FLAT:??_C@_1CM@NLPIEOMO@?$AAp?$AAr?$AAo?$AAt?$AAo?$AA_?$AAc?$AAo?$AAm?$AA_?$AAm?$AAo?$AAd?$AAe?$AAl?$AA_?$AAt?$AAh?$AAo?$AAr?$AAn?$AA?$AA@
  00271	ba 04 00 00 00	 mov	 edx, 4
  00276	48 8b 8d b0 01
	00 00		 mov	 rcx, QWORD PTR this$[rbp]
  0027d	ff 15 00 00 00
	00		 call	 QWORD PTR __imp_?Add_Component@CGameObject@Engine@@IEAAJIPEB_W0PEAPEAVCComponent@2@PEAX@Z
  00283	85 c0		 test	 eax, eax
  00285	7d 0a		 jge	 SHORT $LN9@AddCompone

; 488  : 		return E_FAIL;

  00287	b8 05 40 00 80	 mov	 eax, -2147467259	; ffffffff80004005H
  0028c	e9 fb 02 00 00	 jmp	 $LN1@AddCompone
$LN9@AddCompone:

; 489  : 
; 490  : 	CCollider::COLLIDER_DESC collDesc;

  00291	48 8d 4d 28	 lea	 rcx, QWORD PTR collDesc$[rbp]
  00295	e8 00 00 00 00	 call	 ??0tagColliderDesc@CCollider@Engine@@QEAA@XZ

; 491  : 	collDesc.owner = this;

  0029a	48 8b 85 b0 01
	00 00		 mov	 rax, QWORD PTR this$[rbp]
  002a1	48 89 45 28	 mov	 QWORD PTR collDesc$[rbp], rax

; 492  : 	collDesc.vCenter = _float3(0.f, 0.f, 0.f);

  002a5	0f 57 db	 xorps	 xmm3, xmm3
  002a8	0f 57 d2	 xorps	 xmm2, xmm2
  002ab	0f 57 c9	 xorps	 xmm1, xmm1
  002ae	48 8d 8d 34 01
	00 00		 lea	 rcx, QWORD PTR $T5[rbp]
  002b5	e8 00 00 00 00	 call	 ??0XMFLOAT3@DirectX@@QEAA@MMM@Z ; DirectX::XMFLOAT3::XMFLOAT3
  002ba	48 8b d0	 mov	 rdx, rax
  002bd	48 8d 4d 30	 lea	 rcx, QWORD PTR collDesc$[rbp+8]
  002c1	e8 00 00 00 00	 call	 ??4XMFLOAT3@DirectX@@QEAAAEAU01@AEBU01@@Z ; DirectX::XMFLOAT3::operator=

; 493  : 	collDesc.vExtents = _float3(0.5f, 0.5f, 0.5f);

  002c6	f3 0f 10 1d 00
	00 00 00	 movss	 xmm3, DWORD PTR __real@3f000000
  002ce	f3 0f 10 15 00
	00 00 00	 movss	 xmm2, DWORD PTR __real@3f000000
  002d6	f3 0f 10 0d 00
	00 00 00	 movss	 xmm1, DWORD PTR __real@3f000000
  002de	48 8d 8d 54 01
	00 00		 lea	 rcx, QWORD PTR $T6[rbp]
  002e5	e8 00 00 00 00	 call	 ??0XMFLOAT3@DirectX@@QEAA@MMM@Z ; DirectX::XMFLOAT3::XMFLOAT3
  002ea	48 8b d0	 mov	 rdx, rax
  002ed	48 8d 4d 3c	 lea	 rcx, QWORD PTR collDesc$[rbp+20]
  002f1	e8 00 00 00 00	 call	 ??4XMFLOAT3@DirectX@@QEAAAEAU01@AEBU01@@Z ; DirectX::XMFLOAT3::operator=

; 494  : 	collDesc.vRotation = _float3(0.f, 0.f, 0.f);

  002f6	0f 57 db	 xorps	 xmm3, xmm3
  002f9	0f 57 d2	 xorps	 xmm2, xmm2
  002fc	0f 57 c9	 xorps	 xmm1, xmm1
  002ff	48 8d 8d 74 01
	00 00		 lea	 rcx, QWORD PTR $T7[rbp]
  00306	e8 00 00 00 00	 call	 ??0XMFLOAT3@DirectX@@QEAA@MMM@Z ; DirectX::XMFLOAT3::XMFLOAT3
  0030b	48 8b d0	 mov	 rdx, rax
  0030e	48 8d 4d 48	 lea	 rcx, QWORD PTR collDesc$[rbp+32]
  00312	e8 00 00 00 00	 call	 ??4XMFLOAT3@DirectX@@QEAAAEAU01@AEBU01@@Z ; DirectX::XMFLOAT3::operator=

; 495  : 
; 496  : 	if (FAILED(CGameObject::Add_Component(LEVEL_GAMEPLAY, TEXT("proto_com_sphere_collider"), TEXT("com_collider"), (CComponent**)&m_pCollider, &collDesc)))

  00317	48 8b 85 b0 01
	00 00		 mov	 rax, QWORD PTR this$[rbp]
  0031e	48 05 98 00 00
	00		 add	 rax, 152		; 00000098H
  00324	48 8d 4d 28	 lea	 rcx, QWORD PTR collDesc$[rbp]
  00328	48 89 4c 24 28	 mov	 QWORD PTR [rsp+40], rcx
  0032d	48 89 44 24 20	 mov	 QWORD PTR [rsp+32], rax
  00332	4c 8d 0d 00 00
	00 00		 lea	 r9, OFFSET FLAT:??_C@_1BK@BKCENIHA@?$AAc?$AAo?$AAm?$AA_?$AAc?$AAo?$AAl?$AAl?$AAi?$AAd?$AAe?$AAr?$AA?$AA@
  00339	4c 8d 05 00 00
	00 00		 lea	 r8, OFFSET FLAT:??_C@_1DE@OCAJEKIC@?$AAp?$AAr?$AAo?$AAt?$AAo?$AA_?$AAc?$AAo?$AAm?$AA_?$AAs?$AAp?$AAh?$AAe?$AAr?$AAe?$AA_?$AAc?$AAo?$AAl?$AAl?$AAi?$AAd?$AAe?$AAr?$AA?$AA@
  00340	ba 03 00 00 00	 mov	 edx, 3
  00345	48 8b 8d b0 01
	00 00		 mov	 rcx, QWORD PTR this$[rbp]
  0034c	ff 15 00 00 00
	00		 call	 QWORD PTR __imp_?Add_Component@CGameObject@Engine@@IEAAJIPEB_W0PEAPEAVCComponent@2@PEAX@Z
  00352	85 c0		 test	 eax, eax
  00354	7d 0a		 jge	 SHORT $LN10@AddCompone

; 497  : 		return E_FAIL;

  00356	b8 05 40 00 80	 mov	 eax, -2147467259	; ffffffff80004005H
  0035b	e9 2c 02 00 00	 jmp	 $LN1@AddCompone
$LN10@AddCompone:

; 498  : 
; 499  : 	if (FAILED(CGameObject::Add_Component(LEVEL_STATIC, TEXT("proto_com_transform"), TEXT("com_trans_floorefeect"), (CComponent**)&m_pFloorEffectTransform, &desc)))

  00360	48 8b 85 b0 01
	00 00		 mov	 rax, QWORD PTR this$[rbp]
  00367	48 05 f8 00 00
	00		 add	 rax, 248		; 000000f8H
  0036d	48 8d 4d 08	 lea	 rcx, QWORD PTR desc$[rbp]
  00371	48 89 4c 24 28	 mov	 QWORD PTR [rsp+40], rcx
  00376	48 89 44 24 20	 mov	 QWORD PTR [rsp+32], rax
  0037b	4c 8d 0d 00 00
	00 00		 lea	 r9, OFFSET FLAT:??_C@_1CM@EIJDBIDJ@?$AAc?$AAo?$AAm?$AA_?$AAt?$AAr?$AAa?$AAn?$AAs?$AA_?$AAf?$AAl?$AAo?$AAo?$AAr?$AAe?$AAf?$AAe?$AAe?$AAc?$AAt?$AA?$AA@
  00382	4c 8d 05 00 00
	00 00		 lea	 r8, OFFSET FLAT:??_C@_1CI@MLEFGO@?$AAp?$AAr?$AAo?$AAt?$AAo?$AA_?$AAc?$AAo?$AAm?$AA_?$AAt?$AAr?$AAa?$AAn?$AAs?$AAf?$AAo?$AAr?$AAm?$AA?$AA@
  00389	33 d2		 xor	 edx, edx
  0038b	48 8b 8d b0 01
	00 00		 mov	 rcx, QWORD PTR this$[rbp]
  00392	ff 15 00 00 00
	00		 call	 QWORD PTR __imp_?Add_Component@CGameObject@Engine@@IEAAJIPEB_W0PEAPEAVCComponent@2@PEAX@Z
  00398	85 c0		 test	 eax, eax
  0039a	7d 0a		 jge	 SHORT $LN11@AddCompone

; 500  : 		return E_FAIL;

  0039c	b8 05 40 00 80	 mov	 eax, -2147467259	; ffffffff80004005H
  003a1	e9 e6 01 00 00	 jmp	 $LN1@AddCompone
$LN11@AddCompone:

; 501  : 
; 502  : 	if (FAILED(CGameObject::Add_Component(LEVEL_STATIC, TEXT("proto_com_texture_thorndiffuse"), TEXT("com_texture_diffuse"), (CComponent**)&m_pFloorEffectDiffuse)))

  003a6	48 8b 85 b0 01
	00 00		 mov	 rax, QWORD PTR this$[rbp]
  003ad	48 05 10 01 00
	00		 add	 rax, 272		; 00000110H
  003b3	48 c7 44 24 28
	00 00 00 00	 mov	 QWORD PTR [rsp+40], 0
  003bc	48 89 44 24 20	 mov	 QWORD PTR [rsp+32], rax
  003c1	4c 8d 0d 00 00
	00 00		 lea	 r9, OFFSET FLAT:??_C@_1CI@EJHCKIFB@?$AAc?$AAo?$AAm?$AA_?$AAt?$AAe?$AAx?$AAt?$AAu?$AAr?$AAe?$AA_?$AAd?$AAi?$AAf?$AAf?$AAu?$AAs?$AAe?$AA?$AA@
  003c8	4c 8d 05 00 00
	00 00		 lea	 r8, OFFSET FLAT:??_C@_1DO@HAGCFBOL@?$AAp?$AAr?$AAo?$AAt?$AAo?$AA_?$AAc?$AAo?$AAm?$AA_?$AAt?$AAe?$AAx?$AAt?$AAu?$AAr?$AAe?$AA_?$AAt?$AAh?$AAo?$AAr?$AAn?$AAd?$AAi?$AAf?$AAf?$AAu?$AAs?$AAe?$AA?$AA@
  003cf	33 d2		 xor	 edx, edx
  003d1	48 8b 8d b0 01
	00 00		 mov	 rcx, QWORD PTR this$[rbp]
  003d8	ff 15 00 00 00
	00		 call	 QWORD PTR __imp_?Add_Component@CGameObject@Engine@@IEAAJIPEB_W0PEAPEAVCComponent@2@PEAX@Z
  003de	85 c0		 test	 eax, eax
  003e0	7d 0a		 jge	 SHORT $LN12@AddCompone

; 503  : 		return E_FAIL;

  003e2	b8 05 40 00 80	 mov	 eax, -2147467259	; ffffffff80004005H
  003e7	e9 a0 01 00 00	 jmp	 $LN1@AddCompone
$LN12@AddCompone:

; 504  : 	if (FAILED(CGameObject::Add_Component(LEVEL_STATIC, TEXT("proto_com_texture_thornmask"), TEXT("com_texture_mask"), (CComponent**)&m_pFloorEffectMask)))

  003ec	48 8b 85 b0 01
	00 00		 mov	 rax, QWORD PTR this$[rbp]
  003f3	48 05 18 01 00
	00		 add	 rax, 280		; 00000118H
  003f9	48 c7 44 24 28
	00 00 00 00	 mov	 QWORD PTR [rsp+40], 0
  00402	48 89 44 24 20	 mov	 QWORD PTR [rsp+32], rax
  00407	4c 8d 0d 00 00
	00 00		 lea	 r9, OFFSET FLAT:??_C@_1CC@CLEGOIHO@?$AAc?$AAo?$AAm?$AA_?$AAt?$AAe?$AAx?$AAt?$AAu?$AAr?$AAe?$AA_?$AAm?$AAa?$AAs?$AAk?$AA?$AA@
  0040e	4c 8d 05 00 00
	00 00		 lea	 r8, OFFSET FLAT:??_C@_1DI@LAEBNKBN@?$AAp?$AAr?$AAo?$AAt?$AAo?$AA_?$AAc?$AAo?$AAm?$AA_?$AAt?$AAe?$AAx?$AAt?$AAu?$AAr?$AAe?$AA_?$AAt?$AAh?$AAo?$AAr?$AAn?$AAm?$AAa?$AAs?$AAk?$AA?$AA@
  00415	33 d2		 xor	 edx, edx
  00417	48 8b 8d b0 01
	00 00		 mov	 rcx, QWORD PTR this$[rbp]
  0041e	ff 15 00 00 00
	00		 call	 QWORD PTR __imp_?Add_Component@CGameObject@Engine@@IEAAJIPEB_W0PEAPEAVCComponent@2@PEAX@Z
  00424	85 c0		 test	 eax, eax
  00426	7d 0a		 jge	 SHORT $LN13@AddCompone

; 505  : 		return E_FAIL;

  00428	b8 05 40 00 80	 mov	 eax, -2147467259	; ffffffff80004005H
  0042d	e9 5a 01 00 00	 jmp	 $LN1@AddCompone
$LN13@AddCompone:

; 506  : 	if (FAILED(CGameObject::Add_Component(LEVEL_STATIC, TEXT("proto_com_texture_gardmask"), TEXT("com_texture_gardmask"), (CComponent**)&m_pFloorGardTexture)))

  00432	48 8b 85 b0 01
	00 00		 mov	 rax, QWORD PTR this$[rbp]
  00439	48 05 30 01 00
	00		 add	 rax, 304		; 00000130H
  0043f	48 c7 44 24 28
	00 00 00 00	 mov	 QWORD PTR [rsp+40], 0
  00448	48 89 44 24 20	 mov	 QWORD PTR [rsp+32], rax
  0044d	4c 8d 0d 00 00
	00 00		 lea	 r9, OFFSET FLAT:??_C@_1CK@ECFCAHLG@?$AAc?$AAo?$AAm?$AA_?$AAt?$AAe?$AAx?$AAt?$AAu?$AAr?$AAe?$AA_?$AAg?$AAa?$AAr?$AAd?$AAm?$AAa?$AAs?$AAk?$AA?$AA@
  00454	4c 8d 05 00 00
	00 00		 lea	 r8, OFFSET FLAT:??_C@_1DG@OMECKGAB@?$AAp?$AAr?$AAo?$AAt?$AAo?$AA_?$AAc?$AAo?$AAm?$AA_?$AAt?$AAe?$AAx?$AAt?$AAu?$AAr?$AAe?$AA_?$AAg?$AAa?$AAr?$AAd?$AAm?$AAa?$AAs?$AAk?$AA?$AA@
  0045b	33 d2		 xor	 edx, edx
  0045d	48 8b 8d b0 01
	00 00		 mov	 rcx, QWORD PTR this$[rbp]
  00464	ff 15 00 00 00
	00		 call	 QWORD PTR __imp_?Add_Component@CGameObject@Engine@@IEAAJIPEB_W0PEAPEAVCComponent@2@PEAX@Z
  0046a	85 c0		 test	 eax, eax
  0046c	7d 0a		 jge	 SHORT $LN14@AddCompone

; 507  : 		return E_FAIL;

  0046e	b8 05 40 00 80	 mov	 eax, -2147467259	; ffffffff80004005H
  00473	e9 14 01 00 00	 jmp	 $LN1@AddCompone
$LN14@AddCompone:

; 508  : 	if (FAILED(CGameObject::Add_Component(LEVEL_STATIC, TEXT("proto_com_vibuffer_rect"), TEXT("com_buffer"), (CComponent**)&m_pFloorEffectBuffer)))

  00478	48 8b 85 b0 01
	00 00		 mov	 rax, QWORD PTR this$[rbp]
  0047f	48 05 00 01 00
	00		 add	 rax, 256		; 00000100H
  00485	48 c7 44 24 28
	00 00 00 00	 mov	 QWORD PTR [rsp+40], 0
  0048e	48 89 44 24 20	 mov	 QWORD PTR [rsp+32], rax
  00493	4c 8d 0d 00 00
	00 00		 lea	 r9, OFFSET FLAT:??_C@_1BG@KPBPOMBH@?$AAc?$AAo?$AAm?$AA_?$AAb?$AAu?$AAf?$AAf?$AAe?$AAr?$AA?$AA@
  0049a	4c 8d 05 00 00
	00 00		 lea	 r8, OFFSET FLAT:??_C@_1DA@BAIPNHMH@?$AAp?$AAr?$AAo?$AAt?$AAo?$AA_?$AAc?$AAo?$AAm?$AA_?$AAv?$AAi?$AAb?$AAu?$AAf?$AAf?$AAe?$AAr?$AA_?$AAr?$AAe?$AAc?$AAt?$AA?$AA@
  004a1	33 d2		 xor	 edx, edx
  004a3	48 8b 8d b0 01
	00 00		 mov	 rcx, QWORD PTR this$[rbp]
  004aa	ff 15 00 00 00
	00		 call	 QWORD PTR __imp_?Add_Component@CGameObject@Engine@@IEAAJIPEB_W0PEAPEAVCComponent@2@PEAX@Z
  004b0	85 c0		 test	 eax, eax
  004b2	7d 0a		 jge	 SHORT $LN15@AddCompone

; 509  : 		return E_FAIL;

  004b4	b8 05 40 00 80	 mov	 eax, -2147467259	; ffffffff80004005H
  004b9	e9 ce 00 00 00	 jmp	 $LN1@AddCompone
$LN15@AddCompone:

; 510  : 
; 511  : 	////
; 512  : 	if (FAILED(CGameObject::Add_Component(LEVEL_STATIC, TEXT("proto_com_shader_trail"), TEXT("com_shadertrail"), (CComponent**)&m_pTrailEffectShader)))

  004be	48 8b 85 b0 01
	00 00		 mov	 rax, QWORD PTR this$[rbp]
  004c5	48 05 68 01 00
	00		 add	 rax, 360		; 00000168H
  004cb	48 c7 44 24 28
	00 00 00 00	 mov	 QWORD PTR [rsp+40], 0
  004d4	48 89 44 24 20	 mov	 QWORD PTR [rsp+32], rax
  004d9	4c 8d 0d 00 00
	00 00		 lea	 r9, OFFSET FLAT:??_C@_1CA@NLFBHNMH@?$AAc?$AAo?$AAm?$AA_?$AAs?$AAh?$AAa?$AAd?$AAe?$AAr?$AAt?$AAr?$AAa?$AAi?$AAl?$AA?$AA@
  004e0	4c 8d 05 00 00
	00 00		 lea	 r8, OFFSET FLAT:??_C@_1CO@DKOHJLDJ@?$AAp?$AAr?$AAo?$AAt?$AAo?$AA_?$AAc?$AAo?$AAm?$AA_?$AAs?$AAh?$AAa?$AAd?$AAe?$AAr?$AA_?$AAt?$AAr?$AAa?$AAi?$AAl?$AA?$AA@
  004e7	33 d2		 xor	 edx, edx
  004e9	48 8b 8d b0 01
	00 00		 mov	 rcx, QWORD PTR this$[rbp]
  004f0	ff 15 00 00 00
	00		 call	 QWORD PTR __imp_?Add_Component@CGameObject@Engine@@IEAAJIPEB_W0PEAPEAVCComponent@2@PEAX@Z
  004f6	85 c0		 test	 eax, eax
  004f8	7d 0a		 jge	 SHORT $LN16@AddCompone

; 513  : 		return E_FAIL;

  004fa	b8 05 40 00 80	 mov	 eax, -2147467259	; ffffffff80004005H
  004ff	e9 88 00 00 00	 jmp	 $LN1@AddCompone
$LN16@AddCompone:

; 514  : 	if (FAILED(CGameObject::Add_Component(LEVEL_STATIC, TEXT("proto_com_vibuffer_rect"), TEXT("com_buffertrail"), (CComponent**)&m_pTrailEffectBuffer)))

  00504	48 8b 85 b0 01
	00 00		 mov	 rax, QWORD PTR this$[rbp]
  0050b	48 05 50 01 00
	00		 add	 rax, 336		; 00000150H
  00511	48 c7 44 24 28
	00 00 00 00	 mov	 QWORD PTR [rsp+40], 0
  0051a	48 89 44 24 20	 mov	 QWORD PTR [rsp+32], rax
  0051f	4c 8d 0d 00 00
	00 00		 lea	 r9, OFFSET FLAT:??_C@_1CA@JKLCDBEM@?$AAc?$AAo?$AAm?$AA_?$AAb?$AAu?$AAf?$AAf?$AAe?$AAr?$AAt?$AAr?$AAa?$AAi?$AAl?$AA?$AA@
  00526	4c 8d 05 00 00
	00 00		 lea	 r8, OFFSET FLAT:??_C@_1DA@BAIPNHMH@?$AAp?$AAr?$AAo?$AAt?$AAo?$AA_?$AAc?$AAo?$AAm?$AA_?$AAv?$AAi?$AAb?$AAu?$AAf?$AAf?$AAe?$AAr?$AA_?$AAr?$AAe?$AAc?$AAt?$AA?$AA@
  0052d	33 d2		 xor	 edx, edx
  0052f	48 8b 8d b0 01
	00 00		 mov	 rcx, QWORD PTR this$[rbp]
  00536	ff 15 00 00 00
	00		 call	 QWORD PTR __imp_?Add_Component@CGameObject@Engine@@IEAAJIPEB_W0PEAPEAVCComponent@2@PEAX@Z
  0053c	85 c0		 test	 eax, eax
  0053e	7d 07		 jge	 SHORT $LN17@AddCompone

; 515  : 		return E_FAIL;

  00540	b8 05 40 00 80	 mov	 eax, -2147467259	; ffffffff80004005H
  00545	eb 45		 jmp	 SHORT $LN1@AddCompone
$LN17@AddCompone:

; 516  : 	if (FAILED(CGameObject::Add_Component(LEVEL_STATIC, TEXT("proto_com_texture_trail"), TEXT("com_texture_masktrail"), (CComponent**)&m_pTrailTexture)))

  00547	48 8b 85 b0 01
	00 00		 mov	 rax, QWORD PTR this$[rbp]
  0054e	48 05 60 01 00
	00		 add	 rax, 352		; 00000160H
  00554	48 c7 44 24 28
	00 00 00 00	 mov	 QWORD PTR [rsp+40], 0
  0055d	48 89 44 24 20	 mov	 QWORD PTR [rsp+32], rax
  00562	4c 8d 0d 00 00
	00 00		 lea	 r9, OFFSET FLAT:??_C@_1CM@NMJMGJPG@?$AAc?$AAo?$AAm?$AA_?$AAt?$AAe?$AAx?$AAt?$AAu?$AAr?$AAe?$AA_?$AAm?$AAa?$AAs?$AAk?$AAt?$AAr?$AAa?$AAi?$AAl?$AA?$AA@
  00569	4c 8d 05 00 00
	00 00		 lea	 r8, OFFSET FLAT:??_C@_1DA@MGAJDFLL@?$AAp?$AAr?$AAo?$AAt?$AAo?$AA_?$AAc?$AAo?$AAm?$AA_?$AAt?$AAe?$AAx?$AAt?$AAu?$AAr?$AAe?$AA_?$AAt?$AAr?$AAa?$AAi?$AAl?$AA?$AA@
  00570	33 d2		 xor	 edx, edx
  00572	48 8b 8d b0 01
	00 00		 mov	 rcx, QWORD PTR this$[rbp]
  00579	ff 15 00 00 00
	00		 call	 QWORD PTR __imp_?Add_Component@CGameObject@Engine@@IEAAJIPEB_W0PEAPEAVCComponent@2@PEAX@Z
  0057f	85 c0		 test	 eax, eax
  00581	7d 07		 jge	 SHORT $LN18@AddCompone

; 517  : 		return E_FAIL;

  00583	b8 05 40 00 80	 mov	 eax, -2147467259	; ffffffff80004005H
  00588	eb 02		 jmp	 SHORT $LN1@AddCompone
$LN18@AddCompone:

; 518  : 
; 519  : 	return S_OK;

  0058a	33 c0		 xor	 eax, eax
$LN1@AddCompone:

; 520  : }

  0058c	48 8b f8	 mov	 rdi, rax
  0058f	48 8d 4d d0	 lea	 rcx, QWORD PTR [rbp-48]
  00593	48 8d 15 00 00
	00 00		 lea	 rdx, OFFSET FLAT:?AddComponents@CThorn@Client@@AEAAJXZ$rtcFrameData
  0059a	e8 00 00 00 00	 call	 _RTC_CheckStackVars
  0059f	48 8b c7	 mov	 rax, rdi
  005a2	48 8b 8d 88 01
	00 00		 mov	 rcx, QWORD PTR __$ArrayPad$[rbp]
  005a9	48 33 cd	 xor	 rcx, rbp
  005ac	e8 00 00 00 00	 call	 __security_check_cookie
  005b1	48 8d a5 98 01
	00 00		 lea	 rsp, QWORD PTR [rbp+408]
  005b8	5f		 pop	 rdi
  005b9	5d		 pop	 rbp
  005ba	c3		 ret	 0
?AddComponents@CThorn@Client@@AEAAJXZ ENDP		; Client::CThorn::AddComponents
_TEXT	ENDS
; Function compile flags: /Odtp /RTCsu /ZI
; File c:\users\arcco\documents\github\framework\client\public\thorn.h
;	COMDAT ?IsScaleFinish@CThorn@Client@@QEAA_NXZ
_TEXT	SEGMENT
this$ = 224
?IsScaleFinish@CThorn@Client@@QEAA_NXZ PROC		; Client::CThorn::IsScaleFinish, COMDAT

; 78   : 	_bool IsScaleFinish() { return m_bScaleFinish; };

$LN3:
  00000	48 89 4c 24 08	 mov	 QWORD PTR [rsp+8], rcx
  00005	55		 push	 rbp
  00006	57		 push	 rdi
  00007	48 81 ec c8 00
	00 00		 sub	 rsp, 200		; 000000c8H
  0000e	48 8b ec	 mov	 rbp, rsp
  00011	48 8b fc	 mov	 rdi, rsp
  00014	b9 32 00 00 00	 mov	 ecx, 50			; 00000032H
  00019	b8 cc cc cc cc	 mov	 eax, -858993460		; ccccccccH
  0001e	f3 ab		 rep stosd
  00020	48 8b 8c 24 e8
	00 00 00	 mov	 rcx, QWORD PTR [rsp+232]
  00028	48 8b 85 e0 00
	00 00		 mov	 rax, QWORD PTR this$[rbp]
  0002f	0f b6 80 ca 00
	00 00		 movzx	 eax, BYTE PTR [rax+202]
  00036	48 8d a5 c8 00
	00 00		 lea	 rsp, QWORD PTR [rbp+200]
  0003d	5f		 pop	 rdi
  0003e	5d		 pop	 rbp
  0003f	c3		 ret	 0
?IsScaleFinish@CThorn@Client@@QEAA_NXZ ENDP		; Client::CThorn::IsScaleFinish
_TEXT	ENDS
; Function compile flags: /Odtp /RTCsu /ZI
; File c:\users\arcco\documents\github\framework\client\private\thorn.cpp
;	COMDAT ?MoveProcess@CThorn@Client@@QEAA_NN@Z
_TEXT	SEGMENT
vPos$ = 16
vUp$ = 64
vTrailUp$ = 112
vTrailDir$ = 160
fHalfLength$ = 196
vTrailPos$ = 240
$T5 = 864
$T6 = 912
$T7 = 960
$T8 = 1008
$T9 = 1056
$T10 = 1104
$T11 = 1152
$T12 = 1200
$T13 = 1248
$T14 = 1296
$T15 = 1344
$T16 = 1392
$T17 = 1440
$T18 = 1488
$T19 = 1536
$T20 = 1584
$T21 = 1632
$T22 = 1680
$T23 = 1728
$T24 = 1776
$T25 = 1824
__$ArrayPad$ = 1848
this$ = 1888
TimeDelta$ = 1896
?MoveProcess@CThorn@Client@@QEAA_NN@Z PROC		; Client::CThorn::MoveProcess, COMDAT

; 430  : {

$LN5:
  00000	f2 0f 11 4c 24
	10		 movsd	 QWORD PTR [rsp+16], xmm1
  00006	48 89 4c 24 08	 mov	 QWORD PTR [rsp+8], rcx
  0000b	55		 push	 rbp
  0000c	57		 push	 rdi
  0000d	48 81 ec 68 07
	00 00		 sub	 rsp, 1896		; 00000768H
  00014	48 8d 6c 24 20	 lea	 rbp, QWORD PTR [rsp+32]
  00019	48 8b fc	 mov	 rdi, rsp
  0001c	b9 da 01 00 00	 mov	 ecx, 474		; 000001daH
  00021	b8 cc cc cc cc	 mov	 eax, -858993460		; ccccccccH
  00026	f3 ab		 rep stosd
  00028	48 8b 8c 24 88
	07 00 00	 mov	 rcx, QWORD PTR [rsp+1928]
  00030	48 8b 05 00 00
	00 00		 mov	 rax, QWORD PTR __security_cookie
  00037	48 33 c5	 xor	 rax, rbp
  0003a	48 89 85 38 07
	00 00		 mov	 QWORD PTR __$ArrayPad$[rbp], rax

; 431  : 	// Up  MissileType
; 432  : 	_vector vPos = m_pTransform->Get_State(CTransform::STATE_POSITION);

  00041	41 b8 03 00 00
	00		 mov	 r8d, 3
  00047	48 8d 55 10	 lea	 rdx, QWORD PTR vPos$[rbp]
  0004b	48 8b 85 60 07
	00 00		 mov	 rax, QWORD PTR this$[rbp]
  00052	48 8b 88 b0 00
	00 00		 mov	 rcx, QWORD PTR [rax+176]
  00059	ff 15 00 00 00
	00		 call	 QWORD PTR __imp_?Get_State@CTransform@Engine@@QEAA?AT__m128@@W4STATE@12@@Z

; 433  : 	_vector vUp = XMVector3Normalize(m_pTransform->Get_State(CTransform::STATE_UP));

  0005f	41 b8 01 00 00
	00		 mov	 r8d, 1
  00065	48 8d 95 90 03
	00 00		 lea	 rdx, QWORD PTR $T6[rbp]
  0006c	48 8b 85 60 07
	00 00		 mov	 rax, QWORD PTR this$[rbp]
  00073	48 8b 88 b0 00
	00 00		 mov	 rcx, QWORD PTR [rax+176]
  0007a	ff 15 00 00 00
	00		 call	 QWORD PTR __imp_?Get_State@CTransform@Engine@@QEAA?AT__m128@@W4STATE@12@@Z
  00080	0f 10 00	 movups	 xmm0, XMMWORD PTR [rax]
  00083	e8 00 00 00 00	 call	 ?XMVector3Normalize@DirectX@@YQ?AT__m128@@T2@@Z ; DirectX::XMVector3Normalize
  00088	0f 29 85 60 03
	00 00		 movaps	 XMMWORD PTR $T5[rbp], xmm0
  0008f	0f 28 85 60 03
	00 00		 movaps	 xmm0, XMMWORD PTR $T5[rbp]
  00096	0f 29 45 40	 movaps	 XMMWORD PTR vUp$[rbp], xmm0

; 434  : 
; 435  : 	m_fMoveAcc += TimeDelta;

  0009a	48 8b 85 60 07
	00 00		 mov	 rax, QWORD PTR this$[rbp]
  000a1	f3 0f 5a 80 f0
	00 00 00	 cvtss2sd xmm0, DWORD PTR [rax+240]
  000a9	f2 0f 58 85 68
	07 00 00	 addsd	 xmm0, QWORD PTR TimeDelta$[rbp]
  000b1	f2 0f 5a c0	 cvtsd2ss xmm0, xmm0
  000b5	48 8b 85 60 07
	00 00		 mov	 rax, QWORD PTR this$[rbp]
  000bc	f3 0f 11 80 f0
	00 00 00	 movss	 DWORD PTR [rax+240], xmm0

; 436  : 	m_vTrailAcc += TimeDelta * 0.3f;

  000c4	f2 0f 10 85 68
	07 00 00	 movsd	 xmm0, QWORD PTR TimeDelta$[rbp]
  000cc	f2 0f 59 05 00
	00 00 00	 mulsd	 xmm0, QWORD PTR __real@3fd3333340000000
  000d4	48 8b 85 60 07
	00 00		 mov	 rax, QWORD PTR this$[rbp]
  000db	f3 0f 5a 88 7c
	01 00 00	 cvtss2sd xmm1, DWORD PTR [rax+380]
  000e3	f2 0f 58 c8	 addsd	 xmm1, xmm0
  000e7	0f 28 c1	 movaps	 xmm0, xmm1
  000ea	f2 0f 5a c0	 cvtsd2ss xmm0, xmm0
  000ee	48 8b 85 60 07
	00 00		 mov	 rax, QWORD PTR this$[rbp]
  000f5	f3 0f 11 80 7c
	01 00 00	 movss	 DWORD PTR [rax+380], xmm0

; 437  : 	vPos = vPos + vUp * powf(m_fMoveAcc, 0.8f) * 50.f * TimeDelta;

  000fd	f3 0f 10 0d 00
	00 00 00	 movss	 xmm1, DWORD PTR __real@3f4ccccd
  00105	48 8b 85 60 07
	00 00		 mov	 rax, QWORD PTR this$[rbp]
  0010c	f3 0f 10 80 f0
	00 00 00	 movss	 xmm0, DWORD PTR [rax+240]
  00114	ff 15 00 00 00
	00		 call	 QWORD PTR __imp_powf
  0011a	0f 28 c8	 movaps	 xmm1, xmm0
  0011d	0f 28 45 40	 movaps	 xmm0, XMMWORD PTR vUp$[rbp]
  00121	e8 00 00 00 00	 call	 ??DDirectX@@YQ?AT__m128@@T1@M@Z ; DirectX::operator*
  00126	0f 29 85 50 04
	00 00		 movaps	 XMMWORD PTR $T10[rbp], xmm0
  0012d	f3 0f 10 0d 00
	00 00 00	 movss	 xmm1, DWORD PTR __real@42480000
  00135	0f 28 85 50 04
	00 00		 movaps	 xmm0, XMMWORD PTR $T10[rbp]
  0013c	e8 00 00 00 00	 call	 ??DDirectX@@YQ?AT__m128@@T1@M@Z ; DirectX::operator*
  00141	0f 29 85 20 04
	00 00		 movaps	 XMMWORD PTR $T9[rbp], xmm0
  00148	f2 0f 5a 85 68
	07 00 00	 cvtsd2ss xmm0, QWORD PTR TimeDelta$[rbp]
  00150	0f 28 c8	 movaps	 xmm1, xmm0
  00153	0f 28 85 20 04
	00 00		 movaps	 xmm0, XMMWORD PTR $T9[rbp]
  0015a	e8 00 00 00 00	 call	 ??DDirectX@@YQ?AT__m128@@T1@M@Z ; DirectX::operator*
  0015f	0f 29 85 f0 03
	00 00		 movaps	 XMMWORD PTR $T8[rbp], xmm0
  00166	0f 28 8d f0 03
	00 00		 movaps	 xmm1, XMMWORD PTR $T8[rbp]
  0016d	0f 28 45 10	 movaps	 xmm0, XMMWORD PTR vPos$[rbp]
  00171	e8 00 00 00 00	 call	 ??HDirectX@@YQ?AT__m128@@T1@0@Z ; DirectX::operator+
  00176	0f 29 85 c0 03
	00 00		 movaps	 XMMWORD PTR $T7[rbp], xmm0
  0017d	0f 28 85 c0 03
	00 00		 movaps	 xmm0, XMMWORD PTR $T7[rbp]
  00184	0f 29 45 10	 movaps	 XMMWORD PTR vPos$[rbp], xmm0

; 438  : 
; 439  : 	_vector vTrailUp = m_pTrailTransform->Get_State(CTransform::STATE_UP);

  00188	41 b8 01 00 00
	00		 mov	 r8d, 1
  0018e	48 8d 55 70	 lea	 rdx, QWORD PTR vTrailUp$[rbp]
  00192	48 8b 85 60 07
	00 00		 mov	 rax, QWORD PTR this$[rbp]
  00199	48 8b 88 58 01
	00 00		 mov	 rcx, QWORD PTR [rax+344]
  001a0	ff 15 00 00 00
	00		 call	 QWORD PTR __imp_?Get_State@CTransform@Engine@@QEAA?AT__m128@@W4STATE@12@@Z

; 440  : 	_vector vTrailDir = XMVector3Normalize(m_pTrailTransform->Get_State(CTransform::STATE_UP));

  001a6	41 b8 01 00 00
	00		 mov	 r8d, 1
  001ac	48 8d 95 b0 04
	00 00		 lea	 rdx, QWORD PTR $T12[rbp]
  001b3	48 8b 85 60 07
	00 00		 mov	 rax, QWORD PTR this$[rbp]
  001ba	48 8b 88 58 01
	00 00		 mov	 rcx, QWORD PTR [rax+344]
  001c1	ff 15 00 00 00
	00		 call	 QWORD PTR __imp_?Get_State@CTransform@Engine@@QEAA?AT__m128@@W4STATE@12@@Z
  001c7	0f 10 00	 movups	 xmm0, XMMWORD PTR [rax]
  001ca	e8 00 00 00 00	 call	 ?XMVector3Normalize@DirectX@@YQ?AT__m128@@T2@@Z ; DirectX::XMVector3Normalize
  001cf	0f 29 85 80 04
	00 00		 movaps	 XMMWORD PTR $T11[rbp], xmm0
  001d6	0f 28 85 80 04
	00 00		 movaps	 xmm0, XMMWORD PTR $T11[rbp]
  001dd	0f 29 85 a0 00
	00 00		 movaps	 XMMWORD PTR vTrailDir$[rbp], xmm0

; 441  : 	if (XMVectorGetX(XMVector3Length(vTrailUp)) < 50.f)

  001e4	0f 28 45 70	 movaps	 xmm0, XMMWORD PTR vTrailUp$[rbp]
  001e8	e8 00 00 00 00	 call	 ?XMVector3Length@DirectX@@YQ?AT__m128@@T2@@Z ; DirectX::XMVector3Length
  001ed	0f 29 85 e0 04
	00 00		 movaps	 XMMWORD PTR $T13[rbp], xmm0
  001f4	0f 28 85 e0 04
	00 00		 movaps	 xmm0, XMMWORD PTR $T13[rbp]
  001fb	e8 00 00 00 00	 call	 ?XMVectorGetX@DirectX@@YQMT__m128@@@Z ; DirectX::XMVectorGetX
  00200	f3 0f 10 0d 00
	00 00 00	 movss	 xmm1, DWORD PTR __real@42480000
  00208	0f 2f c8	 comiss	 xmm1, xmm0
  0020b	76 60		 jbe	 SHORT $LN2@MoveProces

; 442  : 	{
; 443  : 		vTrailUp = vTrailUp * (1.f + m_vTrailAcc);

  0020d	48 8b 85 60 07
	00 00		 mov	 rax, QWORD PTR this$[rbp]
  00214	f3 0f 10 05 00
	00 00 00	 movss	 xmm0, DWORD PTR __real@3f800000
  0021c	f3 0f 58 80 7c
	01 00 00	 addss	 xmm0, DWORD PTR [rax+380]
  00224	0f 28 c8	 movaps	 xmm1, xmm0
  00227	0f 28 45 70	 movaps	 xmm0, XMMWORD PTR vTrailUp$[rbp]
  0022b	e8 00 00 00 00	 call	 ??DDirectX@@YQ?AT__m128@@T1@M@Z ; DirectX::operator*
  00230	0f 29 85 10 05
	00 00		 movaps	 XMMWORD PTR $T14[rbp], xmm0
  00237	0f 28 85 10 05
	00 00		 movaps	 xmm0, XMMWORD PTR $T14[rbp]
  0023e	0f 29 45 70	 movaps	 XMMWORD PTR vTrailUp$[rbp], xmm0

; 444  : 		m_pTrailTransform->Set_State(CTransform::STATE_UP, vTrailUp);

  00242	0f 28 45 70	 movaps	 xmm0, XMMWORD PTR vTrailUp$[rbp]
  00246	0f 29 85 c0 06
	00 00		 movaps	 XMMWORD PTR $T23[rbp], xmm0
  0024d	4c 8d 85 c0 06
	00 00		 lea	 r8, QWORD PTR $T23[rbp]
  00254	ba 01 00 00 00	 mov	 edx, 1
  00259	48 8b 85 60 07
	00 00		 mov	 rax, QWORD PTR this$[rbp]
  00260	48 8b 88 58 01
	00 00		 mov	 rcx, QWORD PTR [rax+344]
  00267	ff 15 00 00 00
	00		 call	 QWORD PTR __imp_?Set_State@CTransform@Engine@@QEAAXW4STATE@12@T__m128@@@Z
$LN2@MoveProces:

; 445  : 	}
; 446  : 
; 447  : 	_float fHalfLength = XMVectorGetX(XMVector3Length(m_pTransform->Get_State(CTransform::STATE_UP))) * 0.5f;

  0026d	41 b8 01 00 00
	00		 mov	 r8d, 1
  00273	48 8d 95 70 05
	00 00		 lea	 rdx, QWORD PTR $T16[rbp]
  0027a	48 8b 85 60 07
	00 00		 mov	 rax, QWORD PTR this$[rbp]
  00281	48 8b 88 b0 00
	00 00		 mov	 rcx, QWORD PTR [rax+176]
  00288	ff 15 00 00 00
	00		 call	 QWORD PTR __imp_?Get_State@CTransform@Engine@@QEAA?AT__m128@@W4STATE@12@@Z
  0028e	0f 10 00	 movups	 xmm0, XMMWORD PTR [rax]
  00291	e8 00 00 00 00	 call	 ?XMVector3Length@DirectX@@YQ?AT__m128@@T2@@Z ; DirectX::XMVector3Length
  00296	0f 29 85 40 05
	00 00		 movaps	 XMMWORD PTR $T15[rbp], xmm0
  0029d	0f 28 85 40 05
	00 00		 movaps	 xmm0, XMMWORD PTR $T15[rbp]
  002a4	e8 00 00 00 00	 call	 ?XMVectorGetX@DirectX@@YQMT__m128@@@Z ; DirectX::XMVectorGetX
  002a9	f3 0f 59 05 00
	00 00 00	 mulss	 xmm0, DWORD PTR __real@3f000000
  002b1	f3 0f 11 85 c4
	00 00 00	 movss	 DWORD PTR fHalfLength$[rbp], xmm0

; 448  : 	_vector vTrailPos = vPos - vTrailDir * fHalfLength;

  002b9	f3 0f 10 8d c4
	00 00 00	 movss	 xmm1, DWORD PTR fHalfLength$[rbp]
  002c1	0f 28 85 a0 00
	00 00		 movaps	 xmm0, XMMWORD PTR vTrailDir$[rbp]
  002c8	e8 00 00 00 00	 call	 ??DDirectX@@YQ?AT__m128@@T1@M@Z ; DirectX::operator*
  002cd	0f 29 85 d0 05
	00 00		 movaps	 XMMWORD PTR $T18[rbp], xmm0
  002d4	0f 28 8d d0 05
	00 00		 movaps	 xmm1, XMMWORD PTR $T18[rbp]
  002db	0f 28 45 10	 movaps	 xmm0, XMMWORD PTR vPos$[rbp]
  002df	e8 00 00 00 00	 call	 ??GDirectX@@YQ?AT__m128@@T1@0@Z ; DirectX::operator-
  002e4	0f 29 85 a0 05
	00 00		 movaps	 XMMWORD PTR $T17[rbp], xmm0
  002eb	0f 28 85 a0 05
	00 00		 movaps	 xmm0, XMMWORD PTR $T17[rbp]
  002f2	0f 29 85 f0 00
	00 00		 movaps	 XMMWORD PTR vTrailPos$[rbp], xmm0

; 449  : 	m_pTrailTransform->Set_State(CTransform::STATE_POSITION, vTrailPos - vTrailDir * (XMVectorGetX(XMVector3Length(vTrailUp) * 0.5f)));

  002f9	0f 28 45 70	 movaps	 xmm0, XMMWORD PTR vTrailUp$[rbp]
  002fd	e8 00 00 00 00	 call	 ?XMVector3Length@DirectX@@YQ?AT__m128@@T2@@Z ; DirectX::XMVector3Length
  00302	0f 29 85 90 06
	00 00		 movaps	 XMMWORD PTR $T22[rbp], xmm0
  00309	f3 0f 10 0d 00
	00 00 00	 movss	 xmm1, DWORD PTR __real@3f000000
  00311	0f 28 85 90 06
	00 00		 movaps	 xmm0, XMMWORD PTR $T22[rbp]
  00318	e8 00 00 00 00	 call	 ??DDirectX@@YQ?AT__m128@@T1@M@Z ; DirectX::operator*
  0031d	0f 29 85 60 06
	00 00		 movaps	 XMMWORD PTR $T21[rbp], xmm0
  00324	0f 28 85 60 06
	00 00		 movaps	 xmm0, XMMWORD PTR $T21[rbp]
  0032b	e8 00 00 00 00	 call	 ?XMVectorGetX@DirectX@@YQMT__m128@@@Z ; DirectX::XMVectorGetX
  00330	0f 28 c8	 movaps	 xmm1, xmm0
  00333	0f 28 85 a0 00
	00 00		 movaps	 xmm0, XMMWORD PTR vTrailDir$[rbp]
  0033a	e8 00 00 00 00	 call	 ??DDirectX@@YQ?AT__m128@@T1@M@Z ; DirectX::operator*
  0033f	0f 29 85 30 06
	00 00		 movaps	 XMMWORD PTR $T20[rbp], xmm0
  00346	0f 28 8d 30 06
	00 00		 movaps	 xmm1, XMMWORD PTR $T20[rbp]
  0034d	0f 28 85 f0 00
	00 00		 movaps	 xmm0, XMMWORD PTR vTrailPos$[rbp]
  00354	e8 00 00 00 00	 call	 ??GDirectX@@YQ?AT__m128@@T1@0@Z ; DirectX::operator-
  00359	0f 29 85 00 06
	00 00		 movaps	 XMMWORD PTR $T19[rbp], xmm0
  00360	0f 28 85 00 06
	00 00		 movaps	 xmm0, XMMWORD PTR $T19[rbp]
  00367	0f 29 85 f0 06
	00 00		 movaps	 XMMWORD PTR $T24[rbp], xmm0
  0036e	4c 8d 85 f0 06
	00 00		 lea	 r8, QWORD PTR $T24[rbp]
  00375	ba 03 00 00 00	 mov	 edx, 3
  0037a	48 8b 85 60 07
	00 00		 mov	 rax, QWORD PTR this$[rbp]
  00381	48 8b 88 58 01
	00 00		 mov	 rcx, QWORD PTR [rax+344]
  00388	ff 15 00 00 00
	00		 call	 QWORD PTR __imp_?Set_State@CTransform@Engine@@QEAAXW4STATE@12@T__m128@@@Z

; 450  : 	m_pTransform->Set_State(CTransform::STATE_POSITION, vPos);

  0038e	0f 28 45 10	 movaps	 xmm0, XMMWORD PTR vPos$[rbp]
  00392	0f 29 85 20 07
	00 00		 movaps	 XMMWORD PTR $T25[rbp], xmm0
  00399	4c 8d 85 20 07
	00 00		 lea	 r8, QWORD PTR $T25[rbp]
  003a0	ba 03 00 00 00	 mov	 edx, 3
  003a5	48 8b 85 60 07
	00 00		 mov	 rax, QWORD PTR this$[rbp]
  003ac	48 8b 88 b0 00
	00 00		 mov	 rcx, QWORD PTR [rax+176]
  003b3	ff 15 00 00 00
	00		 call	 QWORD PTR __imp_?Set_State@CTransform@Engine@@QEAAXW4STATE@12@T__m128@@@Z

; 451  : 	if (m_fMoveAcc >= 2.f)

  003b9	48 8b 85 60 07
	00 00		 mov	 rax, QWORD PTR this$[rbp]
  003c0	f3 0f 10 80 f0
	00 00 00	 movss	 xmm0, DWORD PTR [rax+240]
  003c8	0f 2f 05 00 00
	00 00		 comiss	 xmm0, DWORD PTR __real@40000000
  003cf	72 30		 jb	 SHORT $LN3@MoveProces

; 452  : 	{
; 453  : 		Reset();

  003d1	48 8b 8d 60 07
	00 00		 mov	 rcx, QWORD PTR this$[rbp]
  003d8	e8 00 00 00 00	 call	 ?Reset@CThorn@Client@@QEAAXXZ ; Client::CThorn::Reset

; 454  : 		m_fMoveAcc = 0.f;

  003dd	48 8b 85 60 07
	00 00		 mov	 rax, QWORD PTR this$[rbp]
  003e4	0f 57 c0	 xorps	 xmm0, xmm0
  003e7	f3 0f 11 80 f0
	00 00 00	 movss	 DWORD PTR [rax+240], xmm0

; 455  : 		m_vTrailAcc = 0.f;

  003ef	48 8b 85 60 07
	00 00		 mov	 rax, QWORD PTR this$[rbp]
  003f6	0f 57 c0	 xorps	 xmm0, xmm0
  003f9	f3 0f 11 80 7c
	01 00 00	 movss	 DWORD PTR [rax+380], xmm0
$LN3@MoveProces:

; 456  : 	}
; 457  : 
; 458  : 	return true;

  00401	b0 01		 mov	 al, 1

; 459  : }

  00403	48 8b f8	 mov	 rdi, rax
  00406	48 8d 4d e0	 lea	 rcx, QWORD PTR [rbp-32]
  0040a	48 8d 15 00 00
	00 00		 lea	 rdx, OFFSET FLAT:?MoveProcess@CThorn@Client@@QEAA_NN@Z$rtcFrameData
  00411	e8 00 00 00 00	 call	 _RTC_CheckStackVars
  00416	48 8b c7	 mov	 rax, rdi
  00419	48 8b 8d 38 07
	00 00		 mov	 rcx, QWORD PTR __$ArrayPad$[rbp]
  00420	48 33 cd	 xor	 rcx, rbp
  00423	e8 00 00 00 00	 call	 __security_check_cookie
  00428	48 8d a5 48 07
	00 00		 lea	 rsp, QWORD PTR [rbp+1864]
  0042f	5f		 pop	 rdi
  00430	5d		 pop	 rbp
  00431	c3		 ret	 0
?MoveProcess@CThorn@Client@@QEAA_NN@Z ENDP		; Client::CThorn::MoveProcess
_TEXT	ENDS
; Function compile flags: /Odtp /RTCsu /ZI
; File c:\users\arcco\documents\github\framework\client\private\thorn.cpp
;	COMDAT ?ScaleDownSmoothProcess@CThorn@Client@@QEAA_NN@Z
_TEXT	SEGMENT
vRightLength$ = 4
vUpLength$ = 36
vLookLength$ = 68
vLength$ = 104
$T4 = 544
$T5 = 592
$T6 = 640
$T7 = 688
$T8 = 736
$T9 = 784
$T10 = 832
$T11 = 880
__$ArrayPad$ = 904
this$ = 944
TimeDelta$ = 952
?ScaleDownSmoothProcess@CThorn@Client@@QEAA_NN@Z PROC	; Client::CThorn::ScaleDownSmoothProcess, COMDAT

; 394  : {

$LN6:
  00000	f2 0f 11 4c 24
	10		 movsd	 QWORD PTR [rsp+16], xmm1
  00006	48 89 4c 24 08	 mov	 QWORD PTR [rsp+8], rcx
  0000b	55		 push	 rbp
  0000c	56		 push	 rsi
  0000d	57		 push	 rdi
  0000e	48 81 ec b0 03
	00 00		 sub	 rsp, 944		; 000003b0H
  00015	48 8d 6c 24 20	 lea	 rbp, QWORD PTR [rsp+32]
  0001a	48 8b fc	 mov	 rdi, rsp
  0001d	b9 ec 00 00 00	 mov	 ecx, 236		; 000000ecH
  00022	b8 cc cc cc cc	 mov	 eax, -858993460		; ccccccccH
  00027	f3 ab		 rep stosd
  00029	48 8b 8c 24 d8
	03 00 00	 mov	 rcx, QWORD PTR [rsp+984]
  00031	48 8b 05 00 00
	00 00		 mov	 rax, QWORD PTR __security_cookie
  00038	48 33 c5	 xor	 rax, rbp
  0003b	48 89 85 88 03
	00 00		 mov	 QWORD PTR __$ArrayPad$[rbp], rax

; 395  : 	_float vRightLength = XMVectorGetX(XMVector3Length(m_pTransform->Get_State(CTransform::STATE_RIGHT)));

  00042	45 33 c0	 xor	 r8d, r8d
  00045	48 8d 95 50 02
	00 00		 lea	 rdx, QWORD PTR $T5[rbp]
  0004c	48 8b 85 b0 03
	00 00		 mov	 rax, QWORD PTR this$[rbp]
  00053	48 8b 88 b0 00
	00 00		 mov	 rcx, QWORD PTR [rax+176]
  0005a	ff 15 00 00 00
	00		 call	 QWORD PTR __imp_?Get_State@CTransform@Engine@@QEAA?AT__m128@@W4STATE@12@@Z
  00060	0f 10 00	 movups	 xmm0, XMMWORD PTR [rax]
  00063	e8 00 00 00 00	 call	 ?XMVector3Length@DirectX@@YQ?AT__m128@@T2@@Z ; DirectX::XMVector3Length
  00068	0f 29 85 20 02
	00 00		 movaps	 XMMWORD PTR $T4[rbp], xmm0
  0006f	0f 28 85 20 02
	00 00		 movaps	 xmm0, XMMWORD PTR $T4[rbp]
  00076	e8 00 00 00 00	 call	 ?XMVectorGetX@DirectX@@YQMT__m128@@@Z ; DirectX::XMVectorGetX
  0007b	f3 0f 11 45 04	 movss	 DWORD PTR vRightLength$[rbp], xmm0

; 396  : 	_float vUpLength = XMVectorGetX(XMVector3Length(m_pTransform->Get_State(CTransform::STATE_UP)));

  00080	41 b8 01 00 00
	00		 mov	 r8d, 1
  00086	48 8d 95 b0 02
	00 00		 lea	 rdx, QWORD PTR $T7[rbp]
  0008d	48 8b 85 b0 03
	00 00		 mov	 rax, QWORD PTR this$[rbp]
  00094	48 8b 88 b0 00
	00 00		 mov	 rcx, QWORD PTR [rax+176]
  0009b	ff 15 00 00 00
	00		 call	 QWORD PTR __imp_?Get_State@CTransform@Engine@@QEAA?AT__m128@@W4STATE@12@@Z
  000a1	0f 10 00	 movups	 xmm0, XMMWORD PTR [rax]
  000a4	e8 00 00 00 00	 call	 ?XMVector3Length@DirectX@@YQ?AT__m128@@T2@@Z ; DirectX::XMVector3Length
  000a9	0f 29 85 80 02
	00 00		 movaps	 XMMWORD PTR $T6[rbp], xmm0
  000b0	0f 28 85 80 02
	00 00		 movaps	 xmm0, XMMWORD PTR $T6[rbp]
  000b7	e8 00 00 00 00	 call	 ?XMVectorGetX@DirectX@@YQMT__m128@@@Z ; DirectX::XMVectorGetX
  000bc	f3 0f 11 45 24	 movss	 DWORD PTR vUpLength$[rbp], xmm0

; 397  : 	_float vLookLength = XMVectorGetX(XMVector3Length(m_pTransform->Get_State(CTransform::STATE_LOOK)));

  000c1	41 b8 02 00 00
	00		 mov	 r8d, 2
  000c7	48 8d 95 10 03
	00 00		 lea	 rdx, QWORD PTR $T9[rbp]
  000ce	48 8b 85 b0 03
	00 00		 mov	 rax, QWORD PTR this$[rbp]
  000d5	48 8b 88 b0 00
	00 00		 mov	 rcx, QWORD PTR [rax+176]
  000dc	ff 15 00 00 00
	00		 call	 QWORD PTR __imp_?Get_State@CTransform@Engine@@QEAA?AT__m128@@W4STATE@12@@Z
  000e2	0f 10 00	 movups	 xmm0, XMMWORD PTR [rax]
  000e5	e8 00 00 00 00	 call	 ?XMVector3Length@DirectX@@YQ?AT__m128@@T2@@Z ; DirectX::XMVector3Length
  000ea	0f 29 85 e0 02
	00 00		 movaps	 XMMWORD PTR $T8[rbp], xmm0
  000f1	0f 28 85 e0 02
	00 00		 movaps	 xmm0, XMMWORD PTR $T8[rbp]
  000f8	e8 00 00 00 00	 call	 ?XMVectorGetX@DirectX@@YQMT__m128@@@Z ; DirectX::XMVectorGetX
  000fd	f3 0f 11 45 44	 movss	 DWORD PTR vLookLength$[rbp], xmm0

; 398  : 
; 399  : 	_float3 vLength;

  00102	48 8d 4d 68	 lea	 rcx, QWORD PTR vLength$[rbp]
  00106	e8 00 00 00 00	 call	 ??0XMFLOAT3@DirectX@@QEAA@XZ ; DirectX::XMFLOAT3::XMFLOAT3

; 400  : 	if (m_eThornType == THORN)

  0010b	48 8b 85 b0 03
	00 00		 mov	 rax, QWORD PTR this$[rbp]
  00112	83 b8 a0 00 00
	00 00		 cmp	 DWORD PTR [rax+160], 0
  00119	0f 85 cc 00 00
	00		 jne	 $LN2@ScaleDownS

; 401  : 	{
; 402  : 		m_fScaleAcc += TimeDelta;

  0011f	48 8b 85 b0 03
	00 00		 mov	 rax, QWORD PTR this$[rbp]
  00126	f3 0f 5a 80 d0
	00 00 00	 cvtss2sd xmm0, DWORD PTR [rax+208]
  0012e	f2 0f 58 85 b8
	03 00 00	 addsd	 xmm0, QWORD PTR TimeDelta$[rbp]
  00136	f2 0f 5a c0	 cvtsd2ss xmm0, xmm0
  0013a	48 8b 85 b0 03
	00 00		 mov	 rax, QWORD PTR this$[rbp]
  00141	f3 0f 11 80 d0
	00 00 00	 movss	 DWORD PTR [rax+208], xmm0

; 403  : 		//vLength.x = vRightLength + powf(vRightLength, m_fScaleAcc);
; 404  : 		//vLength.y = vUpLength + powf(vUpLength, m_fScaleAcc);
; 405  : 		//vLength.z = vLookLength + powf(vLookLength, m_fScaleAcc);
; 406  : 
; 407  : 		vLength.x = vRightLength - powf(m_fScaleAcc, 2.f) * 3.f;

  00149	f3 0f 10 0d 00
	00 00 00	 movss	 xmm1, DWORD PTR __real@40000000
  00151	48 8b 85 b0 03
	00 00		 mov	 rax, QWORD PTR this$[rbp]
  00158	f3 0f 10 80 d0
	00 00 00	 movss	 xmm0, DWORD PTR [rax+208]
  00160	ff 15 00 00 00
	00		 call	 QWORD PTR __imp_powf
  00166	f3 0f 59 05 00
	00 00 00	 mulss	 xmm0, DWORD PTR __real@40400000
  0016e	f3 0f 10 4d 04	 movss	 xmm1, DWORD PTR vRightLength$[rbp]
  00173	f3 0f 5c c8	 subss	 xmm1, xmm0
  00177	0f 28 c1	 movaps	 xmm0, xmm1
  0017a	f3 0f 11 45 68	 movss	 DWORD PTR vLength$[rbp], xmm0

; 408  : 		vLength.y = vUpLength - powf(m_fScaleAcc, 2.f) * 3.f;

  0017f	f3 0f 10 0d 00
	00 00 00	 movss	 xmm1, DWORD PTR __real@40000000
  00187	48 8b 85 b0 03
	00 00		 mov	 rax, QWORD PTR this$[rbp]
  0018e	f3 0f 10 80 d0
	00 00 00	 movss	 xmm0, DWORD PTR [rax+208]
  00196	ff 15 00 00 00
	00		 call	 QWORD PTR __imp_powf
  0019c	f3 0f 59 05 00
	00 00 00	 mulss	 xmm0, DWORD PTR __real@40400000
  001a4	f3 0f 10 4d 24	 movss	 xmm1, DWORD PTR vUpLength$[rbp]
  001a9	f3 0f 5c c8	 subss	 xmm1, xmm0
  001ad	0f 28 c1	 movaps	 xmm0, xmm1
  001b0	f3 0f 11 45 6c	 movss	 DWORD PTR vLength$[rbp+4], xmm0

; 409  : 		vLength.z = vLookLength - powf(m_fScaleAcc, 2.f) * 3.f;

  001b5	f3 0f 10 0d 00
	00 00 00	 movss	 xmm1, DWORD PTR __real@40000000
  001bd	48 8b 85 b0 03
	00 00		 mov	 rax, QWORD PTR this$[rbp]
  001c4	f3 0f 10 80 d0
	00 00 00	 movss	 xmm0, DWORD PTR [rax+208]
  001cc	ff 15 00 00 00
	00		 call	 QWORD PTR __imp_powf
  001d2	f3 0f 59 05 00
	00 00 00	 mulss	 xmm0, DWORD PTR __real@40400000
  001da	f3 0f 10 4d 44	 movss	 xmm1, DWORD PTR vLookLength$[rbp]
  001df	f3 0f 5c c8	 subss	 xmm1, xmm0
  001e3	0f 28 c1	 movaps	 xmm0, xmm1
  001e6	f3 0f 11 45 70	 movss	 DWORD PTR vLength$[rbp+8], xmm0
$LN2@ScaleDownS:

; 410  : 	}
; 411  : 	
; 412  : 	if (vLength.y <= m_fPrevScale.y)

  001eb	48 8b 85 b0 03
	00 00		 mov	 rax, QWORD PTR this$[rbp]
  001f2	f3 0f 10 80 dc
	00 00 00	 movss	 xmm0, DWORD PTR [rax+220]
  001fa	0f 2f 45 6c	 comiss	 xmm0, DWORD PTR vLength$[rbp+4]
  001fe	72 76		 jb	 SHORT $LN3@ScaleDownS

; 413  : 	{
; 414  : 		m_bScaleSmoothDown = false;

  00200	48 8b 85 b0 03
	00 00		 mov	 rax, QWORD PTR this$[rbp]
  00207	c6 80 cf 00 00
	00 00		 mov	 BYTE PTR [rax+207], 0

; 415  : 		m_bScaleDownFinish = true;

  0020e	48 8b 85 b0 03
	00 00		 mov	 rax, QWORD PTR this$[rbp]
  00215	c6 80 ce 00 00
	00 01		 mov	 BYTE PTR [rax+206], 1

; 416  : 		m_bScaleFinish = true;

  0021c	48 8b 85 b0 03
	00 00		 mov	 rax, QWORD PTR this$[rbp]
  00223	c6 80 ca 00 00
	00 01		 mov	 BYTE PTR [rax+202], 1

; 417  : 
; 418  : 		Reset();

  0022a	48 8b 8d b0 03
	00 00		 mov	 rcx, QWORD PTR this$[rbp]
  00231	e8 00 00 00 00	 call	 ?Reset@CThorn@Client@@QEAAXXZ ; Client::CThorn::Reset

; 419  : 		m_pTransform->Set_Scale(m_fPrevScale);

  00236	48 8d 85 40 03
	00 00		 lea	 rax, QWORD PTR $T10[rbp]
  0023d	48 8b 8d b0 03
	00 00		 mov	 rcx, QWORD PTR this$[rbp]
  00244	48 8b f8	 mov	 rdi, rax
  00247	48 8d b1 d8 00
	00 00		 lea	 rsi, QWORD PTR [rcx+216]
  0024e	b9 0c 00 00 00	 mov	 ecx, 12
  00253	f3 a4		 rep movsb
  00255	48 8d 95 40 03
	00 00		 lea	 rdx, QWORD PTR $T10[rbp]
  0025c	48 8b 85 b0 03
	00 00		 mov	 rax, QWORD PTR this$[rbp]
  00263	48 8b 88 b0 00
	00 00		 mov	 rcx, QWORD PTR [rax+176]
  0026a	ff 15 00 00 00
	00		 call	 QWORD PTR __imp_?Set_Scale@CTransform@Engine@@QEAAXUXMFLOAT3@DirectX@@@Z

; 420  : 		return true;

  00270	b0 01		 mov	 al, 1
  00272	eb 37		 jmp	 SHORT $LN1@ScaleDownS

; 421  : 	}
; 422  : 	else

  00274	eb 35		 jmp	 SHORT $LN4@ScaleDownS
$LN3@ScaleDownS:

; 423  : 	{
; 424  : 		m_pTransform->Set_Scale(vLength);

  00276	48 8d 85 70 03
	00 00		 lea	 rax, QWORD PTR $T11[rbp]
  0027d	48 8d 4d 68	 lea	 rcx, QWORD PTR vLength$[rbp]
  00281	48 8b f8	 mov	 rdi, rax
  00284	48 8b f1	 mov	 rsi, rcx
  00287	b9 0c 00 00 00	 mov	 ecx, 12
  0028c	f3 a4		 rep movsb
  0028e	48 8d 95 70 03
	00 00		 lea	 rdx, QWORD PTR $T11[rbp]
  00295	48 8b 85 b0 03
	00 00		 mov	 rax, QWORD PTR this$[rbp]
  0029c	48 8b 88 b0 00
	00 00		 mov	 rcx, QWORD PTR [rax+176]
  002a3	ff 15 00 00 00
	00		 call	 QWORD PTR __imp_?Set_Scale@CTransform@Engine@@QEAAXUXMFLOAT3@DirectX@@@Z

; 425  : 		return false;

  002a9	32 c0		 xor	 al, al
$LN4@ScaleDownS:
$LN1@ScaleDownS:

; 426  : 	}
; 427  : }

  002ab	48 8b f8	 mov	 rdi, rax
  002ae	48 8d 4d e0	 lea	 rcx, QWORD PTR [rbp-32]
  002b2	48 8d 15 00 00
	00 00		 lea	 rdx, OFFSET FLAT:?ScaleDownSmoothProcess@CThorn@Client@@QEAA_NN@Z$rtcFrameData
  002b9	e8 00 00 00 00	 call	 _RTC_CheckStackVars
  002be	48 8b c7	 mov	 rax, rdi
  002c1	48 8b 8d 88 03
	00 00		 mov	 rcx, QWORD PTR __$ArrayPad$[rbp]
  002c8	48 33 cd	 xor	 rcx, rbp
  002cb	e8 00 00 00 00	 call	 __security_check_cookie
  002d0	48 8d a5 90 03
	00 00		 lea	 rsp, QWORD PTR [rbp+912]
  002d7	5f		 pop	 rdi
  002d8	5e		 pop	 rsi
  002d9	5d		 pop	 rbp
  002da	c3		 ret	 0
?ScaleDownSmoothProcess@CThorn@Client@@QEAA_NN@Z ENDP	; Client::CThorn::ScaleDownSmoothProcess
_TEXT	ENDS
; Function compile flags: /Odtp /RTCsu /ZI
; File c:\users\arcco\documents\github\framework\client\private\thorn.cpp
;	COMDAT ?ScaleUpSmoothProcess@CThorn@Client@@QEAA_NN@Z
_TEXT	SEGMENT
vRightLength$ = 4
vUpLength$ = 36
vLookLength$ = 68
vLength$ = 104
$T4 = 352
$T5 = 400
$T6 = 448
$T7 = 496
$T8 = 544
$T9 = 592
$T10 = 640
__$ArrayPad$ = 664
this$ = 704
TimeDelta$ = 712
?ScaleUpSmoothProcess@CThorn@Client@@QEAA_NN@Z PROC	; Client::CThorn::ScaleUpSmoothProcess, COMDAT

; 355  : {

$LN8:
  00000	f2 0f 11 4c 24
	10		 movsd	 QWORD PTR [rsp+16], xmm1
  00006	48 89 4c 24 08	 mov	 QWORD PTR [rsp+8], rcx
  0000b	55		 push	 rbp
  0000c	56		 push	 rsi
  0000d	57		 push	 rdi
  0000e	48 81 ec c0 02
	00 00		 sub	 rsp, 704		; 000002c0H
  00015	48 8d 6c 24 20	 lea	 rbp, QWORD PTR [rsp+32]
  0001a	48 8b fc	 mov	 rdi, rsp
  0001d	b9 b0 00 00 00	 mov	 ecx, 176		; 000000b0H
  00022	b8 cc cc cc cc	 mov	 eax, -858993460		; ccccccccH
  00027	f3 ab		 rep stosd
  00029	48 8b 8c 24 e8
	02 00 00	 mov	 rcx, QWORD PTR [rsp+744]
  00031	48 8b 05 00 00
	00 00		 mov	 rax, QWORD PTR __security_cookie
  00038	48 33 c5	 xor	 rax, rbp
  0003b	48 89 85 98 02
	00 00		 mov	 QWORD PTR __$ArrayPad$[rbp], rax

; 356  : 	_float vRightLength = XMVectorGetX(XMVector3Length(m_pTransform->Get_State(CTransform::STATE_RIGHT)));

  00042	45 33 c0	 xor	 r8d, r8d
  00045	48 8d 95 90 01
	00 00		 lea	 rdx, QWORD PTR $T5[rbp]
  0004c	48 8b 85 c0 02
	00 00		 mov	 rax, QWORD PTR this$[rbp]
  00053	48 8b 88 b0 00
	00 00		 mov	 rcx, QWORD PTR [rax+176]
  0005a	ff 15 00 00 00
	00		 call	 QWORD PTR __imp_?Get_State@CTransform@Engine@@QEAA?AT__m128@@W4STATE@12@@Z
  00060	0f 10 00	 movups	 xmm0, XMMWORD PTR [rax]
  00063	e8 00 00 00 00	 call	 ?XMVector3Length@DirectX@@YQ?AT__m128@@T2@@Z ; DirectX::XMVector3Length
  00068	0f 29 85 60 01
	00 00		 movaps	 XMMWORD PTR $T4[rbp], xmm0
  0006f	0f 28 85 60 01
	00 00		 movaps	 xmm0, XMMWORD PTR $T4[rbp]
  00076	e8 00 00 00 00	 call	 ?XMVectorGetX@DirectX@@YQMT__m128@@@Z ; DirectX::XMVectorGetX
  0007b	f3 0f 11 45 04	 movss	 DWORD PTR vRightLength$[rbp], xmm0

; 357  : 	_float vUpLength = XMVectorGetX(XMVector3Length(m_pTransform->Get_State(CTransform::STATE_UP)));

  00080	41 b8 01 00 00
	00		 mov	 r8d, 1
  00086	48 8d 95 f0 01
	00 00		 lea	 rdx, QWORD PTR $T7[rbp]
  0008d	48 8b 85 c0 02
	00 00		 mov	 rax, QWORD PTR this$[rbp]
  00094	48 8b 88 b0 00
	00 00		 mov	 rcx, QWORD PTR [rax+176]
  0009b	ff 15 00 00 00
	00		 call	 QWORD PTR __imp_?Get_State@CTransform@Engine@@QEAA?AT__m128@@W4STATE@12@@Z
  000a1	0f 10 00	 movups	 xmm0, XMMWORD PTR [rax]
  000a4	e8 00 00 00 00	 call	 ?XMVector3Length@DirectX@@YQ?AT__m128@@T2@@Z ; DirectX::XMVector3Length
  000a9	0f 29 85 c0 01
	00 00		 movaps	 XMMWORD PTR $T6[rbp], xmm0
  000b0	0f 28 85 c0 01
	00 00		 movaps	 xmm0, XMMWORD PTR $T6[rbp]
  000b7	e8 00 00 00 00	 call	 ?XMVectorGetX@DirectX@@YQMT__m128@@@Z ; DirectX::XMVectorGetX
  000bc	f3 0f 11 45 24	 movss	 DWORD PTR vUpLength$[rbp], xmm0

; 358  : 	_float vLookLength = XMVectorGetX(XMVector3Length(m_pTransform->Get_State(CTransform::STATE_LOOK)));

  000c1	41 b8 02 00 00
	00		 mov	 r8d, 2
  000c7	48 8d 95 50 02
	00 00		 lea	 rdx, QWORD PTR $T9[rbp]
  000ce	48 8b 85 c0 02
	00 00		 mov	 rax, QWORD PTR this$[rbp]
  000d5	48 8b 88 b0 00
	00 00		 mov	 rcx, QWORD PTR [rax+176]
  000dc	ff 15 00 00 00
	00		 call	 QWORD PTR __imp_?Get_State@CTransform@Engine@@QEAA?AT__m128@@W4STATE@12@@Z
  000e2	0f 10 00	 movups	 xmm0, XMMWORD PTR [rax]
  000e5	e8 00 00 00 00	 call	 ?XMVector3Length@DirectX@@YQ?AT__m128@@T2@@Z ; DirectX::XMVector3Length
  000ea	0f 29 85 20 02
	00 00		 movaps	 XMMWORD PTR $T8[rbp], xmm0
  000f1	0f 28 85 20 02
	00 00		 movaps	 xmm0, XMMWORD PTR $T8[rbp]
  000f8	e8 00 00 00 00	 call	 ?XMVectorGetX@DirectX@@YQMT__m128@@@Z ; DirectX::XMVectorGetX
  000fd	f3 0f 11 45 44	 movss	 DWORD PTR vLookLength$[rbp], xmm0

; 359  : 
; 360  : 	_float3 vLength;

  00102	48 8d 4d 68	 lea	 rcx, QWORD PTR vLength$[rbp]
  00106	e8 00 00 00 00	 call	 ??0XMFLOAT3@DirectX@@QEAA@XZ ; DirectX::XMFLOAT3::XMFLOAT3

; 361  : 	if (m_eThornType == THORN)

  0010b	48 8b 85 c0 02
	00 00		 mov	 rax, QWORD PTR this$[rbp]
  00112	83 b8 a0 00 00
	00 00		 cmp	 DWORD PTR [rax+160], 0
  00119	0f 85 ea 00 00
	00		 jne	 $LN2@ScaleUpSmo

; 362  : 	{
; 363  : 		m_bFloorRender = true;

  0011f	48 8b 85 c0 02
	00 00		 mov	 rax, QWORD PTR this$[rbp]
  00126	c6 80 45 01 00
	00 01		 mov	 BYTE PTR [rax+325], 1

; 364  : 		m_bGardRender = true;

  0012d	48 8b 85 c0 02
	00 00		 mov	 rax, QWORD PTR this$[rbp]
  00134	c6 80 44 01 00
	00 01		 mov	 BYTE PTR [rax+324], 1

; 365  : 		m_fScaleAcc += TimeDelta;

  0013b	48 8b 85 c0 02
	00 00		 mov	 rax, QWORD PTR this$[rbp]
  00142	f3 0f 5a 80 d0
	00 00 00	 cvtss2sd xmm0, DWORD PTR [rax+208]
  0014a	f2 0f 58 85 c8
	02 00 00	 addsd	 xmm0, QWORD PTR TimeDelta$[rbp]
  00152	f2 0f 5a c0	 cvtsd2ss xmm0, xmm0
  00156	48 8b 85 c0 02
	00 00		 mov	 rax, QWORD PTR this$[rbp]
  0015d	f3 0f 11 80 d0
	00 00 00	 movss	 DWORD PTR [rax+208], xmm0

; 366  : 		//vLength.x = vRightLength + powf(vRightLength, m_fScaleAcc);
; 367  : 		//vLength.y = vUpLength + powf(vUpLength, m_fScaleAcc);
; 368  : 		//vLength.z = vLookLength + powf(vLookLength, m_fScaleAcc);
; 369  : 
; 370  : 		vLength.x = vRightLength + powf(m_fScaleAcc, 2.f) * 3.f;

  00165	f3 0f 10 0d 00
	00 00 00	 movss	 xmm1, DWORD PTR __real@40000000
  0016d	48 8b 85 c0 02
	00 00		 mov	 rax, QWORD PTR this$[rbp]
  00174	f3 0f 10 80 d0
	00 00 00	 movss	 xmm0, DWORD PTR [rax+208]
  0017c	ff 15 00 00 00
	00		 call	 QWORD PTR __imp_powf
  00182	f3 0f 59 05 00
	00 00 00	 mulss	 xmm0, DWORD PTR __real@40400000
  0018a	f3 0f 10 4d 04	 movss	 xmm1, DWORD PTR vRightLength$[rbp]
  0018f	f3 0f 58 c8	 addss	 xmm1, xmm0
  00193	0f 28 c1	 movaps	 xmm0, xmm1
  00196	f3 0f 11 45 68	 movss	 DWORD PTR vLength$[rbp], xmm0

; 371  : 		vLength.y = vUpLength + powf(m_fScaleAcc, 2.f) * 3.f;

  0019b	f3 0f 10 0d 00
	00 00 00	 movss	 xmm1, DWORD PTR __real@40000000
  001a3	48 8b 85 c0 02
	00 00		 mov	 rax, QWORD PTR this$[rbp]
  001aa	f3 0f 10 80 d0
	00 00 00	 movss	 xmm0, DWORD PTR [rax+208]
  001b2	ff 15 00 00 00
	00		 call	 QWORD PTR __imp_powf
  001b8	f3 0f 59 05 00
	00 00 00	 mulss	 xmm0, DWORD PTR __real@40400000
  001c0	f3 0f 10 4d 24	 movss	 xmm1, DWORD PTR vUpLength$[rbp]
  001c5	f3 0f 58 c8	 addss	 xmm1, xmm0
  001c9	0f 28 c1	 movaps	 xmm0, xmm1
  001cc	f3 0f 11 45 6c	 movss	 DWORD PTR vLength$[rbp+4], xmm0

; 372  : 		vLength.z = vLookLength + powf(m_fScaleAcc, 2.f) * 3.f;

  001d1	f3 0f 10 0d 00
	00 00 00	 movss	 xmm1, DWORD PTR __real@40000000
  001d9	48 8b 85 c0 02
	00 00		 mov	 rax, QWORD PTR this$[rbp]
  001e0	f3 0f 10 80 d0
	00 00 00	 movss	 xmm0, DWORD PTR [rax+208]
  001e8	ff 15 00 00 00
	00		 call	 QWORD PTR __imp_powf
  001ee	f3 0f 59 05 00
	00 00 00	 mulss	 xmm0, DWORD PTR __real@40400000
  001f6	f3 0f 10 4d 44	 movss	 xmm1, DWORD PTR vLookLength$[rbp]
  001fb	f3 0f 58 c8	 addss	 xmm1, xmm0
  001ff	0f 28 c1	 movaps	 xmm0, xmm1
  00202	f3 0f 11 45 70	 movss	 DWORD PTR vLength$[rbp+8], xmm0
  00207	eb 76		 jmp	 SHORT $LN3@ScaleUpSmo
$LN2@ScaleUpSmo:

; 373  : 	}
; 374  : 	else if (m_eThornType == MISSILE)

  00209	48 8b 85 c0 02
	00 00		 mov	 rax, QWORD PTR this$[rbp]
  00210	83 b8 a0 00 00
	00 01		 cmp	 DWORD PTR [rax+160], 1
  00217	75 66		 jne	 SHORT $LN4@ScaleUpSmo

; 375  : 	{
; 376  : 		vLength.x = vRightLength + TimeDelta * 5.f;

  00219	f3 0f 5a 45 04	 cvtss2sd xmm0, DWORD PTR vRightLength$[rbp]
  0021e	f2 0f 10 8d c8
	02 00 00	 movsd	 xmm1, QWORD PTR TimeDelta$[rbp]
  00226	f2 0f 59 0d 00
	00 00 00	 mulsd	 xmm1, QWORD PTR __real@4014000000000000
  0022e	f2 0f 58 c1	 addsd	 xmm0, xmm1
  00232	f2 0f 5a c0	 cvtsd2ss xmm0, xmm0
  00236	f3 0f 11 45 68	 movss	 DWORD PTR vLength$[rbp], xmm0

; 377  : 		vLength.y = vUpLength + TimeDelta * 2.f;

  0023b	f3 0f 5a 45 24	 cvtss2sd xmm0, DWORD PTR vUpLength$[rbp]
  00240	f2 0f 10 8d c8
	02 00 00	 movsd	 xmm1, QWORD PTR TimeDelta$[rbp]
  00248	f2 0f 59 0d 00
	00 00 00	 mulsd	 xmm1, QWORD PTR __real@4000000000000000
  00250	f2 0f 58 c1	 addsd	 xmm0, xmm1
  00254	f2 0f 5a c0	 cvtsd2ss xmm0, xmm0
  00258	f3 0f 11 45 6c	 movss	 DWORD PTR vLength$[rbp+4], xmm0

; 378  : 		vLength.z = vLookLength + TimeDelta * 5.f;

  0025d	f3 0f 5a 45 44	 cvtss2sd xmm0, DWORD PTR vLookLength$[rbp]
  00262	f2 0f 10 8d c8
	02 00 00	 movsd	 xmm1, QWORD PTR TimeDelta$[rbp]
  0026a	f2 0f 59 0d 00
	00 00 00	 mulsd	 xmm1, QWORD PTR __real@4014000000000000
  00272	f2 0f 58 c1	 addsd	 xmm0, xmm1
  00276	f2 0f 5a c0	 cvtsd2ss xmm0, xmm0
  0027a	f3 0f 11 45 70	 movss	 DWORD PTR vLength$[rbp+8], xmm0
$LN4@ScaleUpSmo:
$LN3@ScaleUpSmo:

; 379  : 	}
; 380  : 
; 381  : 	m_pTransform->Set_Scale(vLength);

  0027f	48 8d 85 80 02
	00 00		 lea	 rax, QWORD PTR $T10[rbp]
  00286	48 8d 4d 68	 lea	 rcx, QWORD PTR vLength$[rbp]
  0028a	48 8b f8	 mov	 rdi, rax
  0028d	48 8b f1	 mov	 rsi, rcx
  00290	b9 0c 00 00 00	 mov	 ecx, 12
  00295	f3 a4		 rep movsb
  00297	48 8d 95 80 02
	00 00		 lea	 rdx, QWORD PTR $T10[rbp]
  0029e	48 8b 85 c0 02
	00 00		 mov	 rax, QWORD PTR this$[rbp]
  002a5	48 8b 88 b0 00
	00 00		 mov	 rcx, QWORD PTR [rax+176]
  002ac	ff 15 00 00 00
	00		 call	 QWORD PTR __imp_?Set_Scale@CTransform@Engine@@QEAAXUXMFLOAT3@DirectX@@@Z

; 382  : 
; 383  : 	if (vLength.y >= m_fLength)

  002b2	48 8b 85 c0 02
	00 00		 mov	 rax, QWORD PTR this$[rbp]
  002b9	f3 0f 10 45 6c	 movss	 xmm0, DWORD PTR vLength$[rbp+4]
  002be	0f 2f 80 d4 00
	00 00		 comiss	 xmm0, DWORD PTR [rax+212]
  002c5	72 22		 jb	 SHORT $LN5@ScaleUpSmo

; 384  : 	{
; 385  : 		m_bScaleSmoothUp = false;

  002c7	48 8b 85 c0 02
	00 00		 mov	 rax, QWORD PTR this$[rbp]
  002ce	c6 80 cd 00 00
	00 00		 mov	 BYTE PTR [rax+205], 0

; 386  : 		m_bScaleFinish = true;

  002d5	48 8b 85 c0 02
	00 00		 mov	 rax, QWORD PTR this$[rbp]
  002dc	c6 80 ca 00 00
	00 01		 mov	 BYTE PTR [rax+202], 1

; 387  : 		return true;

  002e3	b0 01		 mov	 al, 1
  002e5	eb 04		 jmp	 SHORT $LN1@ScaleUpSmo

; 388  : 	}
; 389  : 	else

  002e7	eb 02		 jmp	 SHORT $LN6@ScaleUpSmo
$LN5@ScaleUpSmo:

; 390  : 		return false;

  002e9	32 c0		 xor	 al, al
$LN6@ScaleUpSmo:
$LN1@ScaleUpSmo:

; 391  : }

  002eb	48 8b f8	 mov	 rdi, rax
  002ee	48 8d 4d e0	 lea	 rcx, QWORD PTR [rbp-32]
  002f2	48 8d 15 00 00
	00 00		 lea	 rdx, OFFSET FLAT:?ScaleUpSmoothProcess@CThorn@Client@@QEAA_NN@Z$rtcFrameData
  002f9	e8 00 00 00 00	 call	 _RTC_CheckStackVars
  002fe	48 8b c7	 mov	 rax, rdi
  00301	48 8b 8d 98 02
	00 00		 mov	 rcx, QWORD PTR __$ArrayPad$[rbp]
  00308	48 33 cd	 xor	 rcx, rbp
  0030b	e8 00 00 00 00	 call	 __security_check_cookie
  00310	48 8d a5 a0 02
	00 00		 lea	 rsp, QWORD PTR [rbp+672]
  00317	5f		 pop	 rdi
  00318	5e		 pop	 rsi
  00319	5d		 pop	 rbp
  0031a	c3		 ret	 0
?ScaleUpSmoothProcess@CThorn@Client@@QEAA_NN@Z ENDP	; Client::CThorn::ScaleUpSmoothProcess
_TEXT	ENDS
; Function compile flags: /Odtp /RTCsu /ZI
; File c:\users\arcco\documents\github\framework\client\private\thorn.cpp
;	COMDAT ?ScaleUpProcess@CThorn@Client@@QEAA_NN@Z
_TEXT	SEGMENT
vRightLength$ = 4
vUpLength$ = 36
vLookLength$ = 68
vLength$ = 104
$T4 = 352
$T5 = 400
$T6 = 448
$T7 = 496
$T8 = 544
$T9 = 592
$T10 = 640
__$ArrayPad$ = 664
this$ = 704
TimeDelta$ = 712
?ScaleUpProcess@CThorn@Client@@QEAA_NN@Z PROC		; Client::CThorn::ScaleUpProcess, COMDAT

; 316  : {

$LN8:
  00000	f2 0f 11 4c 24
	10		 movsd	 QWORD PTR [rsp+16], xmm1
  00006	48 89 4c 24 08	 mov	 QWORD PTR [rsp+8], rcx
  0000b	55		 push	 rbp
  0000c	56		 push	 rsi
  0000d	57		 push	 rdi
  0000e	48 81 ec c0 02
	00 00		 sub	 rsp, 704		; 000002c0H
  00015	48 8d 6c 24 20	 lea	 rbp, QWORD PTR [rsp+32]
  0001a	48 8b fc	 mov	 rdi, rsp
  0001d	b9 b0 00 00 00	 mov	 ecx, 176		; 000000b0H
  00022	b8 cc cc cc cc	 mov	 eax, -858993460		; ccccccccH
  00027	f3 ab		 rep stosd
  00029	48 8b 8c 24 e8
	02 00 00	 mov	 rcx, QWORD PTR [rsp+744]
  00031	48 8b 05 00 00
	00 00		 mov	 rax, QWORD PTR __security_cookie
  00038	48 33 c5	 xor	 rax, rbp
  0003b	48 89 85 98 02
	00 00		 mov	 QWORD PTR __$ArrayPad$[rbp], rax

; 317  : 	_float vRightLength = XMVectorGetX(XMVector3Length(m_pTransform->Get_State(CTransform::STATE_RIGHT)));

  00042	45 33 c0	 xor	 r8d, r8d
  00045	48 8d 95 90 01
	00 00		 lea	 rdx, QWORD PTR $T5[rbp]
  0004c	48 8b 85 c0 02
	00 00		 mov	 rax, QWORD PTR this$[rbp]
  00053	48 8b 88 b0 00
	00 00		 mov	 rcx, QWORD PTR [rax+176]
  0005a	ff 15 00 00 00
	00		 call	 QWORD PTR __imp_?Get_State@CTransform@Engine@@QEAA?AT__m128@@W4STATE@12@@Z
  00060	0f 10 00	 movups	 xmm0, XMMWORD PTR [rax]
  00063	e8 00 00 00 00	 call	 ?XMVector3Length@DirectX@@YQ?AT__m128@@T2@@Z ; DirectX::XMVector3Length
  00068	0f 29 85 60 01
	00 00		 movaps	 XMMWORD PTR $T4[rbp], xmm0
  0006f	0f 28 85 60 01
	00 00		 movaps	 xmm0, XMMWORD PTR $T4[rbp]
  00076	e8 00 00 00 00	 call	 ?XMVectorGetX@DirectX@@YQMT__m128@@@Z ; DirectX::XMVectorGetX
  0007b	f3 0f 11 45 04	 movss	 DWORD PTR vRightLength$[rbp], xmm0

; 318  : 	_float vUpLength = XMVectorGetX(XMVector3Length(m_pTransform->Get_State(CTransform::STATE_UP)));

  00080	41 b8 01 00 00
	00		 mov	 r8d, 1
  00086	48 8d 95 f0 01
	00 00		 lea	 rdx, QWORD PTR $T7[rbp]
  0008d	48 8b 85 c0 02
	00 00		 mov	 rax, QWORD PTR this$[rbp]
  00094	48 8b 88 b0 00
	00 00		 mov	 rcx, QWORD PTR [rax+176]
  0009b	ff 15 00 00 00
	00		 call	 QWORD PTR __imp_?Get_State@CTransform@Engine@@QEAA?AT__m128@@W4STATE@12@@Z
  000a1	0f 10 00	 movups	 xmm0, XMMWORD PTR [rax]
  000a4	e8 00 00 00 00	 call	 ?XMVector3Length@DirectX@@YQ?AT__m128@@T2@@Z ; DirectX::XMVector3Length
  000a9	0f 29 85 c0 01
	00 00		 movaps	 XMMWORD PTR $T6[rbp], xmm0
  000b0	0f 28 85 c0 01
	00 00		 movaps	 xmm0, XMMWORD PTR $T6[rbp]
  000b7	e8 00 00 00 00	 call	 ?XMVectorGetX@DirectX@@YQMT__m128@@@Z ; DirectX::XMVectorGetX
  000bc	f3 0f 11 45 24	 movss	 DWORD PTR vUpLength$[rbp], xmm0

; 319  : 	_float vLookLength = XMVectorGetX(XMVector3Length(m_pTransform->Get_State(CTransform::STATE_LOOK)));

  000c1	41 b8 02 00 00
	00		 mov	 r8d, 2
  000c7	48 8d 95 50 02
	00 00		 lea	 rdx, QWORD PTR $T9[rbp]
  000ce	48 8b 85 c0 02
	00 00		 mov	 rax, QWORD PTR this$[rbp]
  000d5	48 8b 88 b0 00
	00 00		 mov	 rcx, QWORD PTR [rax+176]
  000dc	ff 15 00 00 00
	00		 call	 QWORD PTR __imp_?Get_State@CTransform@Engine@@QEAA?AT__m128@@W4STATE@12@@Z
  000e2	0f 10 00	 movups	 xmm0, XMMWORD PTR [rax]
  000e5	e8 00 00 00 00	 call	 ?XMVector3Length@DirectX@@YQ?AT__m128@@T2@@Z ; DirectX::XMVector3Length
  000ea	0f 29 85 20 02
	00 00		 movaps	 XMMWORD PTR $T8[rbp], xmm0
  000f1	0f 28 85 20 02
	00 00		 movaps	 xmm0, XMMWORD PTR $T8[rbp]
  000f8	e8 00 00 00 00	 call	 ?XMVectorGetX@DirectX@@YQMT__m128@@@Z ; DirectX::XMVectorGetX
  000fd	f3 0f 11 45 44	 movss	 DWORD PTR vLookLength$[rbp], xmm0

; 320  : 
; 321  : 	_float3 vLength;

  00102	48 8d 4d 68	 lea	 rcx, QWORD PTR vLength$[rbp]
  00106	e8 00 00 00 00	 call	 ??0XMFLOAT3@DirectX@@QEAA@XZ ; DirectX::XMFLOAT3::XMFLOAT3

; 322  : 	if (m_eThornType == THORN)

  0010b	48 8b 85 c0 02
	00 00		 mov	 rax, QWORD PTR this$[rbp]
  00112	83 b8 a0 00 00
	00 00		 cmp	 DWORD PTR [rax+160], 0
  00119	0f 85 ea 00 00
	00		 jne	 $LN2@ScaleUpPro

; 323  : 	{
; 324  : 		m_bFloorRender = true;

  0011f	48 8b 85 c0 02
	00 00		 mov	 rax, QWORD PTR this$[rbp]
  00126	c6 80 45 01 00
	00 01		 mov	 BYTE PTR [rax+325], 1

; 325  : 		m_bGardRender = true;

  0012d	48 8b 85 c0 02
	00 00		 mov	 rax, QWORD PTR this$[rbp]
  00134	c6 80 44 01 00
	00 01		 mov	 BYTE PTR [rax+324], 1

; 326  : 		m_fScaleAcc += TimeDelta;

  0013b	48 8b 85 c0 02
	00 00		 mov	 rax, QWORD PTR this$[rbp]
  00142	f3 0f 5a 80 d0
	00 00 00	 cvtss2sd xmm0, DWORD PTR [rax+208]
  0014a	f2 0f 58 85 c8
	02 00 00	 addsd	 xmm0, QWORD PTR TimeDelta$[rbp]
  00152	f2 0f 5a c0	 cvtsd2ss xmm0, xmm0
  00156	48 8b 85 c0 02
	00 00		 mov	 rax, QWORD PTR this$[rbp]
  0015d	f3 0f 11 80 d0
	00 00 00	 movss	 DWORD PTR [rax+208], xmm0

; 327  : 		//vLength.x = vRightLength + powf(vRightLength, m_fScaleAcc);
; 328  : 		//vLength.y = vUpLength + powf(vUpLength, m_fScaleAcc);
; 329  : 		//vLength.z = vLookLength + powf(vLookLength, m_fScaleAcc);
; 330  : 
; 331  : 		vLength.x = vRightLength + powf(m_fScaleAcc, 2.f) * 900.f;

  00165	f3 0f 10 0d 00
	00 00 00	 movss	 xmm1, DWORD PTR __real@40000000
  0016d	48 8b 85 c0 02
	00 00		 mov	 rax, QWORD PTR this$[rbp]
  00174	f3 0f 10 80 d0
	00 00 00	 movss	 xmm0, DWORD PTR [rax+208]
  0017c	ff 15 00 00 00
	00		 call	 QWORD PTR __imp_powf
  00182	f3 0f 59 05 00
	00 00 00	 mulss	 xmm0, DWORD PTR __real@44610000
  0018a	f3 0f 10 4d 04	 movss	 xmm1, DWORD PTR vRightLength$[rbp]
  0018f	f3 0f 58 c8	 addss	 xmm1, xmm0
  00193	0f 28 c1	 movaps	 xmm0, xmm1
  00196	f3 0f 11 45 68	 movss	 DWORD PTR vLength$[rbp], xmm0

; 332  : 		vLength.y = vUpLength + powf(m_fScaleAcc, 2.f) * 900.f;

  0019b	f3 0f 10 0d 00
	00 00 00	 movss	 xmm1, DWORD PTR __real@40000000
  001a3	48 8b 85 c0 02
	00 00		 mov	 rax, QWORD PTR this$[rbp]
  001aa	f3 0f 10 80 d0
	00 00 00	 movss	 xmm0, DWORD PTR [rax+208]
  001b2	ff 15 00 00 00
	00		 call	 QWORD PTR __imp_powf
  001b8	f3 0f 59 05 00
	00 00 00	 mulss	 xmm0, DWORD PTR __real@44610000
  001c0	f3 0f 10 4d 24	 movss	 xmm1, DWORD PTR vUpLength$[rbp]
  001c5	f3 0f 58 c8	 addss	 xmm1, xmm0
  001c9	0f 28 c1	 movaps	 xmm0, xmm1
  001cc	f3 0f 11 45 6c	 movss	 DWORD PTR vLength$[rbp+4], xmm0

; 333  : 		vLength.z = vLookLength + powf(m_fScaleAcc, 2.f) * 900.f;

  001d1	f3 0f 10 0d 00
	00 00 00	 movss	 xmm1, DWORD PTR __real@40000000
  001d9	48 8b 85 c0 02
	00 00		 mov	 rax, QWORD PTR this$[rbp]
  001e0	f3 0f 10 80 d0
	00 00 00	 movss	 xmm0, DWORD PTR [rax+208]
  001e8	ff 15 00 00 00
	00		 call	 QWORD PTR __imp_powf
  001ee	f3 0f 59 05 00
	00 00 00	 mulss	 xmm0, DWORD PTR __real@44610000
  001f6	f3 0f 10 4d 44	 movss	 xmm1, DWORD PTR vLookLength$[rbp]
  001fb	f3 0f 58 c8	 addss	 xmm1, xmm0
  001ff	0f 28 c1	 movaps	 xmm0, xmm1
  00202	f3 0f 11 45 70	 movss	 DWORD PTR vLength$[rbp+8], xmm0
  00207	eb 76		 jmp	 SHORT $LN3@ScaleUpPro
$LN2@ScaleUpPro:

; 334  : 	}
; 335  : 	else if (m_eThornType == MISSILE)

  00209	48 8b 85 c0 02
	00 00		 mov	 rax, QWORD PTR this$[rbp]
  00210	83 b8 a0 00 00
	00 01		 cmp	 DWORD PTR [rax+160], 1
  00217	75 66		 jne	 SHORT $LN4@ScaleUpPro

; 336  : 	{
; 337  : 		vLength.x = vRightLength + TimeDelta * 2.f;

  00219	f3 0f 5a 45 04	 cvtss2sd xmm0, DWORD PTR vRightLength$[rbp]
  0021e	f2 0f 10 8d c8
	02 00 00	 movsd	 xmm1, QWORD PTR TimeDelta$[rbp]
  00226	f2 0f 59 0d 00
	00 00 00	 mulsd	 xmm1, QWORD PTR __real@4000000000000000
  0022e	f2 0f 58 c1	 addsd	 xmm0, xmm1
  00232	f2 0f 5a c0	 cvtsd2ss xmm0, xmm0
  00236	f3 0f 11 45 68	 movss	 DWORD PTR vLength$[rbp], xmm0

; 338  : 		vLength.y = vUpLength + TimeDelta * 2.f;

  0023b	f3 0f 5a 45 24	 cvtss2sd xmm0, DWORD PTR vUpLength$[rbp]
  00240	f2 0f 10 8d c8
	02 00 00	 movsd	 xmm1, QWORD PTR TimeDelta$[rbp]
  00248	f2 0f 59 0d 00
	00 00 00	 mulsd	 xmm1, QWORD PTR __real@4000000000000000
  00250	f2 0f 58 c1	 addsd	 xmm0, xmm1
  00254	f2 0f 5a c0	 cvtsd2ss xmm0, xmm0
  00258	f3 0f 11 45 6c	 movss	 DWORD PTR vLength$[rbp+4], xmm0

; 339  : 		vLength.z = vLookLength + TimeDelta * 2.f;

  0025d	f3 0f 5a 45 44	 cvtss2sd xmm0, DWORD PTR vLookLength$[rbp]
  00262	f2 0f 10 8d c8
	02 00 00	 movsd	 xmm1, QWORD PTR TimeDelta$[rbp]
  0026a	f2 0f 59 0d 00
	00 00 00	 mulsd	 xmm1, QWORD PTR __real@4000000000000000
  00272	f2 0f 58 c1	 addsd	 xmm0, xmm1
  00276	f2 0f 5a c0	 cvtsd2ss xmm0, xmm0
  0027a	f3 0f 11 45 70	 movss	 DWORD PTR vLength$[rbp+8], xmm0
$LN4@ScaleUpPro:
$LN3@ScaleUpPro:

; 340  : 	}
; 341  : 
; 342  : 	m_pTransform->Set_Scale(vLength);

  0027f	48 8d 85 80 02
	00 00		 lea	 rax, QWORD PTR $T10[rbp]
  00286	48 8d 4d 68	 lea	 rcx, QWORD PTR vLength$[rbp]
  0028a	48 8b f8	 mov	 rdi, rax
  0028d	48 8b f1	 mov	 rsi, rcx
  00290	b9 0c 00 00 00	 mov	 ecx, 12
  00295	f3 a4		 rep movsb
  00297	48 8d 95 80 02
	00 00		 lea	 rdx, QWORD PTR $T10[rbp]
  0029e	48 8b 85 c0 02
	00 00		 mov	 rax, QWORD PTR this$[rbp]
  002a5	48 8b 88 b0 00
	00 00		 mov	 rcx, QWORD PTR [rax+176]
  002ac	ff 15 00 00 00
	00		 call	 QWORD PTR __imp_?Set_Scale@CTransform@Engine@@QEAAXUXMFLOAT3@DirectX@@@Z

; 343  : 
; 344  : 	if (vLength.y >= m_fLength)

  002b2	48 8b 85 c0 02
	00 00		 mov	 rax, QWORD PTR this$[rbp]
  002b9	f3 0f 10 45 6c	 movss	 xmm0, DWORD PTR vLength$[rbp+4]
  002be	0f 2f 80 d4 00
	00 00		 comiss	 xmm0, DWORD PTR [rax+212]
  002c5	72 22		 jb	 SHORT $LN5@ScaleUpPro

; 345  : 	{
; 346  : 		m_bScaleUp = false;

  002c7	48 8b 85 c0 02
	00 00		 mov	 rax, QWORD PTR this$[rbp]
  002ce	c6 80 cc 00 00
	00 00		 mov	 BYTE PTR [rax+204], 0

; 347  : 		m_bScaleFinish = true;

  002d5	48 8b 85 c0 02
	00 00		 mov	 rax, QWORD PTR this$[rbp]
  002dc	c6 80 ca 00 00
	00 01		 mov	 BYTE PTR [rax+202], 1

; 348  : 		return true;

  002e3	b0 01		 mov	 al, 1
  002e5	eb 04		 jmp	 SHORT $LN1@ScaleUpPro

; 349  : 	}
; 350  : 	else

  002e7	eb 02		 jmp	 SHORT $LN6@ScaleUpPro
$LN5@ScaleUpPro:

; 351  : 		return false;

  002e9	32 c0		 xor	 al, al
$LN6@ScaleUpPro:
$LN1@ScaleUpPro:

; 352  : }

  002eb	48 8b f8	 mov	 rdi, rax
  002ee	48 8d 4d e0	 lea	 rcx, QWORD PTR [rbp-32]
  002f2	48 8d 15 00 00
	00 00		 lea	 rdx, OFFSET FLAT:?ScaleUpProcess@CThorn@Client@@QEAA_NN@Z$rtcFrameData
  002f9	e8 00 00 00 00	 call	 _RTC_CheckStackVars
  002fe	48 8b c7	 mov	 rax, rdi
  00301	48 8b 8d 98 02
	00 00		 mov	 rcx, QWORD PTR __$ArrayPad$[rbp]
  00308	48 33 cd	 xor	 rcx, rbp
  0030b	e8 00 00 00 00	 call	 __security_check_cookie
  00310	48 8d a5 a0 02
	00 00		 lea	 rsp, QWORD PTR [rbp+672]
  00317	5f		 pop	 rdi
  00318	5e		 pop	 rsi
  00319	5d		 pop	 rbp
  0031a	c3		 ret	 0
?ScaleUpProcess@CThorn@Client@@QEAA_NN@Z ENDP		; Client::CThorn::ScaleUpProcess
_TEXT	ENDS
; Function compile flags: /Odtp /RTCsu /ZI
; File c:\users\arcco\documents\github\framework\client\private\thorn.cpp
;	COMDAT ?SetupScaleSmoothDownStart@CThorn@Client@@QEAAXXZ
_TEXT	SEGMENT
this$ = 224
?SetupScaleSmoothDownStart@CThorn@Client@@QEAAXXZ PROC	; Client::CThorn::SetupScaleSmoothDownStart, COMDAT

; 310  : {

$LN3:
  00000	48 89 4c 24 08	 mov	 QWORD PTR [rsp+8], rcx
  00005	55		 push	 rbp
  00006	57		 push	 rdi
  00007	48 81 ec c8 00
	00 00		 sub	 rsp, 200		; 000000c8H
  0000e	48 8b ec	 mov	 rbp, rsp
  00011	48 8b fc	 mov	 rdi, rsp
  00014	b9 32 00 00 00	 mov	 ecx, 50			; 00000032H
  00019	b8 cc cc cc cc	 mov	 eax, -858993460		; ccccccccH
  0001e	f3 ab		 rep stosd
  00020	48 8b 8c 24 e8
	00 00 00	 mov	 rcx, QWORD PTR [rsp+232]

; 311  : 	m_bScaleSmoothDown = true;

  00028	48 8b 85 e0 00
	00 00		 mov	 rax, QWORD PTR this$[rbp]
  0002f	c6 80 cf 00 00
	00 01		 mov	 BYTE PTR [rax+207], 1

; 312  : }

  00036	48 8d a5 c8 00
	00 00		 lea	 rsp, QWORD PTR [rbp+200]
  0003d	5f		 pop	 rdi
  0003e	5d		 pop	 rbp
  0003f	c3		 ret	 0
?SetupScaleSmoothDownStart@CThorn@Client@@QEAAXXZ ENDP	; Client::CThorn::SetupScaleSmoothDownStart
_TEXT	ENDS
; Function compile flags: /Odtp /RTCsu /ZI
; File c:\users\arcco\documents\github\framework\client\private\thorn.cpp
;	COMDAT ?SetupScaleSmoothUpStart@CThorn@Client@@QEAAXM@Z
_TEXT	SEGMENT
this$ = 224
fLength$ = 232
?SetupScaleSmoothUpStart@CThorn@Client@@QEAAXM@Z PROC	; Client::CThorn::SetupScaleSmoothUpStart, COMDAT

; 303  : {

$LN3:
  00000	f3 0f 11 4c 24
	10		 movss	 DWORD PTR [rsp+16], xmm1
  00006	48 89 4c 24 08	 mov	 QWORD PTR [rsp+8], rcx
  0000b	55		 push	 rbp
  0000c	57		 push	 rdi
  0000d	48 81 ec c8 00
	00 00		 sub	 rsp, 200		; 000000c8H
  00014	48 8b ec	 mov	 rbp, rsp
  00017	48 8b fc	 mov	 rdi, rsp
  0001a	b9 32 00 00 00	 mov	 ecx, 50			; 00000032H
  0001f	b8 cc cc cc cc	 mov	 eax, -858993460		; ccccccccH
  00024	f3 ab		 rep stosd
  00026	48 8b 8c 24 e8
	00 00 00	 mov	 rcx, QWORD PTR [rsp+232]

; 304  : 	m_bScaleSmoothUp = true;

  0002e	48 8b 85 e0 00
	00 00		 mov	 rax, QWORD PTR this$[rbp]
  00035	c6 80 cd 00 00
	00 01		 mov	 BYTE PTR [rax+205], 1

; 305  : 	m_bRender = true;

  0003c	48 8b 85 e0 00
	00 00		 mov	 rax, QWORD PTR this$[rbp]
  00043	c6 80 c9 00 00
	00 01		 mov	 BYTE PTR [rax+201], 1

; 306  : 	m_fLength = fLength;

  0004a	48 8b 85 e0 00
	00 00		 mov	 rax, QWORD PTR this$[rbp]
  00051	f3 0f 10 85 e8
	00 00 00	 movss	 xmm0, DWORD PTR fLength$[rbp]
  00059	f3 0f 11 80 d4
	00 00 00	 movss	 DWORD PTR [rax+212], xmm0

; 307  : }

  00061	48 8d a5 c8 00
	00 00		 lea	 rsp, QWORD PTR [rbp+200]
  00068	5f		 pop	 rdi
  00069	5d		 pop	 rbp
  0006a	c3		 ret	 0
?SetupScaleSmoothUpStart@CThorn@Client@@QEAAXM@Z ENDP	; Client::CThorn::SetupScaleSmoothUpStart
_TEXT	ENDS
; Function compile flags: /Odtp /RTCsu /ZI
; File c:\users\arcco\documents\github\framework\client\private\thorn.cpp
;	COMDAT ?SetupScaleUpDownStart@CThorn@Client@@QEAAXM@Z
_TEXT	SEGMENT
this$ = 224
fLength$ = 232
?SetupScaleUpDownStart@CThorn@Client@@QEAAXM@Z PROC	; Client::CThorn::SetupScaleUpDownStart, COMDAT

; 296  : {

$LN3:
  00000	f3 0f 11 4c 24
	10		 movss	 DWORD PTR [rsp+16], xmm1
  00006	48 89 4c 24 08	 mov	 QWORD PTR [rsp+8], rcx
  0000b	55		 push	 rbp
  0000c	57		 push	 rdi
  0000d	48 81 ec c8 00
	00 00		 sub	 rsp, 200		; 000000c8H
  00014	48 8b ec	 mov	 rbp, rsp
  00017	48 8b fc	 mov	 rdi, rsp
  0001a	b9 32 00 00 00	 mov	 ecx, 50			; 00000032H
  0001f	b8 cc cc cc cc	 mov	 eax, -858993460		; ccccccccH
  00024	f3 ab		 rep stosd
  00026	48 8b 8c 24 e8
	00 00 00	 mov	 rcx, QWORD PTR [rsp+232]

; 297  : 	m_bScaleUpDown = true;

  0002e	48 8b 85 e0 00
	00 00		 mov	 rax, QWORD PTR this$[rbp]
  00035	c6 80 cb 00 00
	00 01		 mov	 BYTE PTR [rax+203], 1

; 298  : 	m_bRender = true;

  0003c	48 8b 85 e0 00
	00 00		 mov	 rax, QWORD PTR this$[rbp]
  00043	c6 80 c9 00 00
	00 01		 mov	 BYTE PTR [rax+201], 1

; 299  : 	m_fLength = fLength;

  0004a	48 8b 85 e0 00
	00 00		 mov	 rax, QWORD PTR this$[rbp]
  00051	f3 0f 10 85 e8
	00 00 00	 movss	 xmm0, DWORD PTR fLength$[rbp]
  00059	f3 0f 11 80 d4
	00 00 00	 movss	 DWORD PTR [rax+212], xmm0

; 300  : }

  00061	48 8d a5 c8 00
	00 00		 lea	 rsp, QWORD PTR [rbp+200]
  00068	5f		 pop	 rdi
  00069	5d		 pop	 rbp
  0006a	c3		 ret	 0
?SetupScaleUpDownStart@CThorn@Client@@QEAAXM@Z ENDP	; Client::CThorn::SetupScaleUpDownStart
_TEXT	ENDS
; Function compile flags: /Odtp /RTCsu /ZI
; File c:\users\arcco\documents\github\framework\client\private\thorn.cpp
;	COMDAT ?SetupScaleUpStart@CThorn@Client@@QEAAXM@Z
_TEXT	SEGMENT
this$ = 224
fLength$ = 232
?SetupScaleUpStart@CThorn@Client@@QEAAXM@Z PROC		; Client::CThorn::SetupScaleUpStart, COMDAT

; 289  : {

$LN3:
  00000	f3 0f 11 4c 24
	10		 movss	 DWORD PTR [rsp+16], xmm1
  00006	48 89 4c 24 08	 mov	 QWORD PTR [rsp+8], rcx
  0000b	55		 push	 rbp
  0000c	57		 push	 rdi
  0000d	48 81 ec c8 00
	00 00		 sub	 rsp, 200		; 000000c8H
  00014	48 8b ec	 mov	 rbp, rsp
  00017	48 8b fc	 mov	 rdi, rsp
  0001a	b9 32 00 00 00	 mov	 ecx, 50			; 00000032H
  0001f	b8 cc cc cc cc	 mov	 eax, -858993460		; ccccccccH
  00024	f3 ab		 rep stosd
  00026	48 8b 8c 24 e8
	00 00 00	 mov	 rcx, QWORD PTR [rsp+232]

; 290  : 	m_bScaleUp = true;

  0002e	48 8b 85 e0 00
	00 00		 mov	 rax, QWORD PTR this$[rbp]
  00035	c6 80 cc 00 00
	00 01		 mov	 BYTE PTR [rax+204], 1

; 291  : 	m_bRender = true;

  0003c	48 8b 85 e0 00
	00 00		 mov	 rax, QWORD PTR this$[rbp]
  00043	c6 80 c9 00 00
	00 01		 mov	 BYTE PTR [rax+201], 1

; 292  : 	m_fLength = fLength;

  0004a	48 8b 85 e0 00
	00 00		 mov	 rax, QWORD PTR this$[rbp]
  00051	f3 0f 10 85 e8
	00 00 00	 movss	 xmm0, DWORD PTR fLength$[rbp]
  00059	f3 0f 11 80 d4
	00 00 00	 movss	 DWORD PTR [rax+212], xmm0

; 293  : }

  00061	48 8d a5 c8 00
	00 00		 lea	 rsp, QWORD PTR [rbp+200]
  00068	5f		 pop	 rdi
  00069	5d		 pop	 rbp
  0006a	c3		 ret	 0
?SetupScaleUpStart@CThorn@Client@@QEAAXM@Z ENDP		; Client::CThorn::SetupScaleUpStart
_TEXT	ENDS
; Function compile flags: /Odtp /RTCsu /ZI
; File c:\users\arcco\documents\github\framework\client\private\thorn.cpp
;	COMDAT ?SetRotationToTarget@CThorn@Client@@QEAAXT__m128@@@Z
_TEXT	SEGMENT
vDir$ = 16
vRight$ = 64
$T1 = 496
$T2 = 544
$T3 = 592
$T4 = 640
$T5 = 688
$T6 = 736
$T7 = 784
$T8 = 832
$T9 = 880
$T10 = 928
$T11 = 976
$T12 = 1024
$T13 = 1072
$T14 = 1120
$T15 = 1168
$T16 = 1216
$T17 = 1264
this$ = 1328
vTargetDir$ = 1336
?SetRotationToTarget@CThorn@Client@@QEAAXT__m128@@@Z PROC ; Client::CThorn::SetRotationToTarget, COMDAT

; 271  : {

$LN3:
  00000	48 89 54 24 10	 mov	 QWORD PTR [rsp+16], rdx
  00005	48 89 4c 24 08	 mov	 QWORD PTR [rsp+8], rcx
  0000a	55		 push	 rbp
  0000b	57		 push	 rdi
  0000c	48 81 ec 38 05
	00 00		 sub	 rsp, 1336		; 00000538H
  00013	48 8d 6c 24 20	 lea	 rbp, QWORD PTR [rsp+32]
  00018	48 8b fc	 mov	 rdi, rsp
  0001b	b9 4e 01 00 00	 mov	 ecx, 334		; 0000014eH
  00020	b8 cc cc cc cc	 mov	 eax, -858993460		; ccccccccH
  00025	f3 ab		 rep stosd
  00027	48 8b 8c 24 58
	05 00 00	 mov	 rcx, QWORD PTR [rsp+1368]

; 272  : 	_vector vDir = XMVector3Normalize(vTargetDir);

  0002f	48 8b 85 38 05
	00 00		 mov	 rax, QWORD PTR vTargetDir$[rbp]
  00036	0f 10 00	 movups	 xmm0, XMMWORD PTR [rax]
  00039	e8 00 00 00 00	 call	 ?XMVector3Normalize@DirectX@@YQ?AT__m128@@T2@@Z ; DirectX::XMVector3Normalize
  0003e	0f 29 85 f0 01
	00 00		 movaps	 XMMWORD PTR $T1[rbp], xmm0
  00045	0f 28 85 f0 01
	00 00		 movaps	 xmm0, XMMWORD PTR $T1[rbp]
  0004c	0f 29 45 10	 movaps	 XMMWORD PTR vDir$[rbp], xmm0

; 273  : 	//_vector vUp = m_pTransform->Get_State(CTransform::STATE_UP);
; 274  : 	//_vector vPos = XMVectorSetY(m_pTransform->Get_State(CTransform::STATE_POSITION), 0.f);
; 275  : 	//_vector vDir = XMVector3Normalize(vTarget - vPos);
; 276  : 
; 277  : 	m_pTransform->Set_State(CTransform::STATE_UP, vDir);

  00050	0f 28 45 10	 movaps	 xmm0, XMMWORD PTR vDir$[rbp]
  00054	0f 29 85 00 04
	00 00		 movaps	 XMMWORD PTR $T12[rbp], xmm0
  0005b	4c 8d 85 00 04
	00 00		 lea	 r8, QWORD PTR $T12[rbp]
  00062	ba 01 00 00 00	 mov	 edx, 1
  00067	48 8b 85 30 05
	00 00		 mov	 rax, QWORD PTR this$[rbp]
  0006e	48 8b 88 b0 00
	00 00		 mov	 rcx, QWORD PTR [rax+176]
  00075	ff 15 00 00 00
	00		 call	 QWORD PTR __imp_?Set_State@CTransform@Engine@@QEAAXW4STATE@12@T__m128@@@Z

; 278  : 	m_pTransform->Set_State(CTransform::STATE_LOOK, -VECTOR_UP);

  0007b	0f 57 db	 xorps	 xmm3, xmm3
  0007e	0f 57 d2	 xorps	 xmm2, xmm2
  00081	f3 0f 10 0d 00
	00 00 00	 movss	 xmm1, DWORD PTR __real@3f800000
  00089	0f 57 c0	 xorps	 xmm0, xmm0
  0008c	e8 00 00 00 00	 call	 ?XMVectorSet@DirectX@@YQ?AT__m128@@MMMM@Z ; DirectX::XMVectorSet
  00091	0f 29 85 50 02
	00 00		 movaps	 XMMWORD PTR $T3[rbp], xmm0
  00098	0f 28 85 50 02
	00 00		 movaps	 xmm0, XMMWORD PTR $T3[rbp]
  0009f	e8 00 00 00 00	 call	 ??GDirectX@@YQ?AT__m128@@T1@@Z ; DirectX::operator-
  000a4	0f 29 85 20 02
	00 00		 movaps	 XMMWORD PTR $T2[rbp], xmm0
  000ab	0f 28 85 20 02
	00 00		 movaps	 xmm0, XMMWORD PTR $T2[rbp]
  000b2	0f 29 85 30 04
	00 00		 movaps	 XMMWORD PTR $T13[rbp], xmm0
  000b9	4c 8d 85 30 04
	00 00		 lea	 r8, QWORD PTR $T13[rbp]
  000c0	ba 02 00 00 00	 mov	 edx, 2
  000c5	48 8b 85 30 05
	00 00		 mov	 rax, QWORD PTR this$[rbp]
  000cc	48 8b 88 b0 00
	00 00		 mov	 rcx, QWORD PTR [rax+176]
  000d3	ff 15 00 00 00
	00		 call	 QWORD PTR __imp_?Set_State@CTransform@Engine@@QEAAXW4STATE@12@T__m128@@@Z

; 279  : 	_vector vRight = XMVector3Cross(m_pTransform->Get_State(CTransform::STATE_UP), -VECTOR_UP);

  000d9	0f 57 db	 xorps	 xmm3, xmm3
  000dc	0f 57 d2	 xorps	 xmm2, xmm2
  000df	f3 0f 10 0d 00
	00 00 00	 movss	 xmm1, DWORD PTR __real@3f800000
  000e7	0f 57 c0	 xorps	 xmm0, xmm0
  000ea	e8 00 00 00 00	 call	 ?XMVectorSet@DirectX@@YQ?AT__m128@@MMMM@Z ; DirectX::XMVectorSet
  000ef	0f 29 85 e0 02
	00 00		 movaps	 XMMWORD PTR $T6[rbp], xmm0
  000f6	0f 28 85 e0 02
	00 00		 movaps	 xmm0, XMMWORD PTR $T6[rbp]
  000fd	e8 00 00 00 00	 call	 ??GDirectX@@YQ?AT__m128@@T1@@Z ; DirectX::operator-
  00102	0f 29 85 b0 02
	00 00		 movaps	 XMMWORD PTR $T5[rbp], xmm0
  00109	41 b8 01 00 00
	00		 mov	 r8d, 1
  0010f	48 8d 95 10 03
	00 00		 lea	 rdx, QWORD PTR $T7[rbp]
  00116	48 8b 85 30 05
	00 00		 mov	 rax, QWORD PTR this$[rbp]
  0011d	48 8b 88 b0 00
	00 00		 mov	 rcx, QWORD PTR [rax+176]
  00124	ff 15 00 00 00
	00		 call	 QWORD PTR __imp_?Get_State@CTransform@Engine@@QEAA?AT__m128@@W4STATE@12@@Z
  0012a	0f 28 8d b0 02
	00 00		 movaps	 xmm1, XMMWORD PTR $T5[rbp]
  00131	0f 10 00	 movups	 xmm0, XMMWORD PTR [rax]
  00134	e8 00 00 00 00	 call	 ?XMVector3Cross@DirectX@@YQ?AT__m128@@T2@0@Z ; DirectX::XMVector3Cross
  00139	0f 29 85 80 02
	00 00		 movaps	 XMMWORD PTR $T4[rbp], xmm0
  00140	0f 28 85 80 02
	00 00		 movaps	 xmm0, XMMWORD PTR $T4[rbp]
  00147	0f 29 45 40	 movaps	 XMMWORD PTR vRight$[rbp], xmm0

; 280  : 
; 281  : 	m_pTransform->Set_State(CTransform::STATE_RIGHT, vRight);

  0014b	0f 28 45 40	 movaps	 xmm0, XMMWORD PTR vRight$[rbp]
  0014f	0f 29 85 60 04
	00 00		 movaps	 XMMWORD PTR $T14[rbp], xmm0
  00156	4c 8d 85 60 04
	00 00		 lea	 r8, QWORD PTR $T14[rbp]
  0015d	33 d2		 xor	 edx, edx
  0015f	48 8b 85 30 05
	00 00		 mov	 rax, QWORD PTR this$[rbp]
  00166	48 8b 88 b0 00
	00 00		 mov	 rcx, QWORD PTR [rax+176]
  0016d	ff 15 00 00 00
	00		 call	 QWORD PTR __imp_?Set_State@CTransform@Engine@@QEAAXW4STATE@12@T__m128@@@Z

; 282  : 
; 283  : 	m_pTrailTransform->Set_State(CTransform::STATE_UP, vDir * vTrailScale.y);

  00173	48 8b 85 30 05
	00 00		 mov	 rax, QWORD PTR this$[rbp]
  0017a	f3 0f 10 88 74
	01 00 00	 movss	 xmm1, DWORD PTR [rax+372]
  00182	0f 28 45 10	 movaps	 xmm0, XMMWORD PTR vDir$[rbp]
  00186	e8 00 00 00 00	 call	 ??DDirectX@@YQ?AT__m128@@T1@M@Z ; DirectX::operator*
  0018b	0f 29 85 40 03
	00 00		 movaps	 XMMWORD PTR $T8[rbp], xmm0
  00192	0f 28 85 40 03
	00 00		 movaps	 xmm0, XMMWORD PTR $T8[rbp]
  00199	0f 29 85 90 04
	00 00		 movaps	 XMMWORD PTR $T15[rbp], xmm0
  001a0	4c 8d 85 90 04
	00 00		 lea	 r8, QWORD PTR $T15[rbp]
  001a7	ba 01 00 00 00	 mov	 edx, 1
  001ac	48 8b 85 30 05
	00 00		 mov	 rax, QWORD PTR this$[rbp]
  001b3	48 8b 88 58 01
	00 00		 mov	 rcx, QWORD PTR [rax+344]
  001ba	ff 15 00 00 00
	00		 call	 QWORD PTR __imp_?Set_State@CTransform@Engine@@QEAAXW4STATE@12@T__m128@@@Z

; 284  : 	m_pTrailTransform->Set_State(CTransform::STATE_LOOK, vRight * vTrailScale.x);

  001c0	48 8b 85 30 05
	00 00		 mov	 rax, QWORD PTR this$[rbp]
  001c7	f3 0f 10 88 70
	01 00 00	 movss	 xmm1, DWORD PTR [rax+368]
  001cf	0f 28 45 40	 movaps	 xmm0, XMMWORD PTR vRight$[rbp]
  001d3	e8 00 00 00 00	 call	 ??DDirectX@@YQ?AT__m128@@T1@M@Z ; DirectX::operator*
  001d8	0f 29 85 70 03
	00 00		 movaps	 XMMWORD PTR $T9[rbp], xmm0
  001df	0f 28 85 70 03
	00 00		 movaps	 xmm0, XMMWORD PTR $T9[rbp]
  001e6	0f 29 85 c0 04
	00 00		 movaps	 XMMWORD PTR $T16[rbp], xmm0
  001ed	4c 8d 85 c0 04
	00 00		 lea	 r8, QWORD PTR $T16[rbp]
  001f4	ba 02 00 00 00	 mov	 edx, 2
  001f9	48 8b 85 30 05
	00 00		 mov	 rax, QWORD PTR this$[rbp]
  00200	48 8b 88 58 01
	00 00		 mov	 rcx, QWORD PTR [rax+344]
  00207	ff 15 00 00 00
	00		 call	 QWORD PTR __imp_?Set_State@CTransform@Engine@@QEAAXW4STATE@12@T__m128@@@Z

; 285  : 	m_pTrailTransform->Set_State(CTransform::STATE_RIGHT, VECTOR_UP * vTrailScale.z);

  0020d	0f 57 db	 xorps	 xmm3, xmm3
  00210	0f 57 d2	 xorps	 xmm2, xmm2
  00213	f3 0f 10 0d 00
	00 00 00	 movss	 xmm1, DWORD PTR __real@3f800000
  0021b	0f 57 c0	 xorps	 xmm0, xmm0
  0021e	e8 00 00 00 00	 call	 ?XMVectorSet@DirectX@@YQ?AT__m128@@MMMM@Z ; DirectX::XMVectorSet
  00223	0f 29 85 d0 03
	00 00		 movaps	 XMMWORD PTR $T11[rbp], xmm0
  0022a	48 8b 85 30 05
	00 00		 mov	 rax, QWORD PTR this$[rbp]
  00231	f3 0f 10 88 78
	01 00 00	 movss	 xmm1, DWORD PTR [rax+376]
  00239	0f 28 85 d0 03
	00 00		 movaps	 xmm0, XMMWORD PTR $T11[rbp]
  00240	e8 00 00 00 00	 call	 ??DDirectX@@YQ?AT__m128@@T1@M@Z ; DirectX::operator*
  00245	0f 29 85 a0 03
	00 00		 movaps	 XMMWORD PTR $T10[rbp], xmm0
  0024c	0f 28 85 a0 03
	00 00		 movaps	 xmm0, XMMWORD PTR $T10[rbp]
  00253	0f 29 85 f0 04
	00 00		 movaps	 XMMWORD PTR $T17[rbp], xmm0
  0025a	4c 8d 85 f0 04
	00 00		 lea	 r8, QWORD PTR $T17[rbp]
  00261	33 d2		 xor	 edx, edx
  00263	48 8b 85 30 05
	00 00		 mov	 rax, QWORD PTR this$[rbp]
  0026a	48 8b 88 58 01
	00 00		 mov	 rcx, QWORD PTR [rax+344]
  00271	ff 15 00 00 00
	00		 call	 QWORD PTR __imp_?Set_State@CTransform@Engine@@QEAAXW4STATE@12@T__m128@@@Z

; 286  : }

  00277	48 8d a5 18 05
	00 00		 lea	 rsp, QWORD PTR [rbp+1304]
  0027e	5f		 pop	 rdi
  0027f	5d		 pop	 rbp
  00280	c3		 ret	 0
?SetRotationToTarget@CThorn@Client@@QEAAXT__m128@@@Z ENDP ; Client::CThorn::SetRotationToTarget
_TEXT	ENDS
; Function compile flags: /Odtp /RTCsu /ZI
; File c:\users\arcco\documents\github\framework\client\private\thorn.cpp
;	COMDAT ?SetRotationXYZ@CThorn@Client@@QEAAXUXMFLOAT3@DirectX@@@Z
_TEXT	SEGMENT
$T1 = 208
this$ = 272
vAngle$ = 280
?SetRotationXYZ@CThorn@Client@@QEAAXUXMFLOAT3@DirectX@@@Z PROC ; Client::CThorn::SetRotationXYZ, COMDAT

; 265  : {

$LN4:
  00000	48 89 54 24 10	 mov	 QWORD PTR [rsp+16], rdx
  00005	48 89 4c 24 08	 mov	 QWORD PTR [rsp+8], rcx
  0000a	55		 push	 rbp
  0000b	56		 push	 rsi
  0000c	57		 push	 rdi
  0000d	48 81 ec 10 01
	00 00		 sub	 rsp, 272		; 00000110H
  00014	48 8d 6c 24 20	 lea	 rbp, QWORD PTR [rsp+32]
  00019	48 8b fc	 mov	 rdi, rsp
  0001c	b9 44 00 00 00	 mov	 ecx, 68			; 00000044H
  00021	b8 cc cc cc cc	 mov	 eax, -858993460		; ccccccccH
  00026	f3 ab		 rep stosd
  00028	48 8b 8c 24 38
	01 00 00	 mov	 rcx, QWORD PTR [rsp+312]

; 266  : 	if (m_pTransform)

  00030	48 8b 85 10 01
	00 00		 mov	 rax, QWORD PTR this$[rbp]
  00037	48 83 b8 b0 00
	00 00 00	 cmp	 QWORD PTR [rax+176], 0
  0003f	74 33		 je	 SHORT $LN2@SetRotatio

; 267  : 		m_pTransform->SetRotationXYZ(vAngle);

  00041	48 8d 85 d0 00
	00 00		 lea	 rax, QWORD PTR $T1[rbp]
  00048	48 8b f8	 mov	 rdi, rax
  0004b	48 8b b5 18 01
	00 00		 mov	 rsi, QWORD PTR vAngle$[rbp]
  00052	b9 0c 00 00 00	 mov	 ecx, 12
  00057	f3 a4		 rep movsb
  00059	48 8d 95 d0 00
	00 00		 lea	 rdx, QWORD PTR $T1[rbp]
  00060	48 8b 85 10 01
	00 00		 mov	 rax, QWORD PTR this$[rbp]
  00067	48 8b 88 b0 00
	00 00		 mov	 rcx, QWORD PTR [rax+176]
  0006e	ff 15 00 00 00
	00		 call	 QWORD PTR __imp_?SetRotationXYZ@CTransform@Engine@@QEAAXUXMFLOAT3@DirectX@@@Z
$LN2@SetRotatio:

; 268  : }

  00074	48 8d a5 f0 00
	00 00		 lea	 rsp, QWORD PTR [rbp+240]
  0007b	5f		 pop	 rdi
  0007c	5e		 pop	 rsi
  0007d	5d		 pop	 rbp
  0007e	c3		 ret	 0
?SetRotationXYZ@CThorn@Client@@QEAAXUXMFLOAT3@DirectX@@@Z ENDP ; Client::CThorn::SetRotationXYZ
_TEXT	ENDS
; Function compile flags: /Odtp /RTCsu /ZI
; File c:\users\arcco\documents\github\framework\client\private\thorn.cpp
;	COMDAT ?SetPosition@CThorn@Client@@QEAAXT__m128@@@Z
_TEXT	SEGMENT
pos$ = 16
$T1 = 256
$T2 = 304
$T3 = 352
$T4 = 400
$T5 = 448
this$ = 512
vPos$ = 520
?SetPosition@CThorn@Client@@QEAAXT__m128@@@Z PROC	; Client::CThorn::SetPosition, COMDAT

; 251  : {

$LN4:
  00000	48 89 54 24 10	 mov	 QWORD PTR [rsp+16], rdx
  00005	48 89 4c 24 08	 mov	 QWORD PTR [rsp+8], rcx
  0000a	55		 push	 rbp
  0000b	57		 push	 rdi
  0000c	48 81 ec 08 02
	00 00		 sub	 rsp, 520		; 00000208H
  00013	48 8d 6c 24 20	 lea	 rbp, QWORD PTR [rsp+32]
  00018	48 8b fc	 mov	 rdi, rsp
  0001b	b9 82 00 00 00	 mov	 ecx, 130		; 00000082H
  00020	b8 cc cc cc cc	 mov	 eax, -858993460		; ccccccccH
  00025	f3 ab		 rep stosd
  00027	48 8b 8c 24 28
	02 00 00	 mov	 rcx, QWORD PTR [rsp+552]

; 252  : 	_vector pos = vPos;

  0002f	48 8b 85 08 02
	00 00		 mov	 rax, QWORD PTR vPos$[rbp]
  00036	0f 10 00	 movups	 xmm0, XMMWORD PTR [rax]
  00039	0f 11 45 10	 movups	 XMMWORD PTR pos$[rbp], xmm0

; 253  : 	if (m_pTransform)

  0003d	48 8b 85 00 02
	00 00		 mov	 rax, QWORD PTR this$[rbp]
  00044	48 83 b8 b0 00
	00 00 00	 cmp	 QWORD PTR [rax+176], 0
  0004c	0f 84 ed 00 00
	00		 je	 $LN2@SetPositio

; 254  : 	{
; 255  : 		m_pTransform->Set_State(CTransform::STATE_POSITION, vPos);

  00052	48 8b 85 08 02
	00 00		 mov	 rax, QWORD PTR vPos$[rbp]
  00059	0f 10 00	 movups	 xmm0, XMMWORD PTR [rax]
  0005c	0f 11 85 30 01
	00 00		 movups	 XMMWORD PTR $T2[rbp], xmm0
  00063	4c 8d 85 30 01
	00 00		 lea	 r8, QWORD PTR $T2[rbp]
  0006a	ba 03 00 00 00	 mov	 edx, 3
  0006f	48 8b 85 00 02
	00 00		 mov	 rax, QWORD PTR this$[rbp]
  00076	48 8b 88 b0 00
	00 00		 mov	 rcx, QWORD PTR [rax+176]
  0007d	ff 15 00 00 00
	00		 call	 QWORD PTR __imp_?Set_State@CTransform@Engine@@QEAAXW4STATE@12@T__m128@@@Z

; 256  : 		pos = XMVectorSetY(vPos, XMVectorGetY(vPos) + 0.1f);

  00083	48 8b 85 08 02
	00 00		 mov	 rax, QWORD PTR vPos$[rbp]
  0008a	0f 10 00	 movups	 xmm0, XMMWORD PTR [rax]
  0008d	e8 00 00 00 00	 call	 ?XMVectorGetY@DirectX@@YQMT__m128@@@Z ; DirectX::XMVectorGetY
  00092	f3 0f 58 05 00
	00 00 00	 addss	 xmm0, DWORD PTR __real@3dcccccd
  0009a	0f 28 c8	 movaps	 xmm1, xmm0
  0009d	48 8b 85 08 02
	00 00		 mov	 rax, QWORD PTR vPos$[rbp]
  000a4	0f 10 00	 movups	 xmm0, XMMWORD PTR [rax]
  000a7	e8 00 00 00 00	 call	 ?XMVectorSetY@DirectX@@YQ?AT__m128@@T2@M@Z ; DirectX::XMVectorSetY
  000ac	0f 29 85 00 01
	00 00		 movaps	 XMMWORD PTR $T1[rbp], xmm0
  000b3	0f 28 85 00 01
	00 00		 movaps	 xmm0, XMMWORD PTR $T1[rbp]
  000ba	0f 29 45 10	 movaps	 XMMWORD PTR pos$[rbp], xmm0

; 257  : 		m_pFloorEffectTransform->Set_State(CTransform::STATE_POSITION, pos);

  000be	0f 28 45 10	 movaps	 xmm0, XMMWORD PTR pos$[rbp]
  000c2	0f 29 85 60 01
	00 00		 movaps	 XMMWORD PTR $T3[rbp], xmm0
  000c9	4c 8d 85 60 01
	00 00		 lea	 r8, QWORD PTR $T3[rbp]
  000d0	ba 03 00 00 00	 mov	 edx, 3
  000d5	48 8b 85 00 02
	00 00		 mov	 rax, QWORD PTR this$[rbp]
  000dc	48 8b 88 f8 00
	00 00		 mov	 rcx, QWORD PTR [rax+248]
  000e3	ff 15 00 00 00
	00		 call	 QWORD PTR __imp_?Set_State@CTransform@Engine@@QEAAXW4STATE@12@T__m128@@@Z

; 258  : 		m_pFloorGardTransform->Set_State(CTransform::STATE_POSITION, pos);

  000e9	0f 28 45 10	 movaps	 xmm0, XMMWORD PTR pos$[rbp]
  000ed	0f 29 85 90 01
	00 00		 movaps	 XMMWORD PTR $T4[rbp], xmm0
  000f4	4c 8d 85 90 01
	00 00		 lea	 r8, QWORD PTR $T4[rbp]
  000fb	ba 03 00 00 00	 mov	 edx, 3
  00100	48 8b 85 00 02
	00 00		 mov	 rax, QWORD PTR this$[rbp]
  00107	48 8b 88 28 01
	00 00		 mov	 rcx, QWORD PTR [rax+296]
  0010e	ff 15 00 00 00
	00		 call	 QWORD PTR __imp_?Set_State@CTransform@Engine@@QEAAXW4STATE@12@T__m128@@@Z

; 259  : 		m_pTrailTransform->Set_State(CTransform::STATE_POSITION, pos);

  00114	0f 28 45 10	 movaps	 xmm0, XMMWORD PTR pos$[rbp]
  00118	0f 29 85 c0 01
	00 00		 movaps	 XMMWORD PTR $T5[rbp], xmm0
  0011f	4c 8d 85 c0 01
	00 00		 lea	 r8, QWORD PTR $T5[rbp]
  00126	ba 03 00 00 00	 mov	 edx, 3
  0012b	48 8b 85 00 02
	00 00		 mov	 rax, QWORD PTR this$[rbp]
  00132	48 8b 88 58 01
	00 00		 mov	 rcx, QWORD PTR [rax+344]
  00139	ff 15 00 00 00
	00		 call	 QWORD PTR __imp_?Set_State@CTransform@Engine@@QEAAXW4STATE@12@T__m128@@@Z
$LN2@SetPositio:

; 260  : 	}
; 261  : 
; 262  : }

  0013f	48 8d a5 e8 01
	00 00		 lea	 rsp, QWORD PTR [rbp+488]
  00146	5f		 pop	 rdi
  00147	5d		 pop	 rbp
  00148	c3		 ret	 0
?SetPosition@CThorn@Client@@QEAAXT__m128@@@Z ENDP	; Client::CThorn::SetPosition
_TEXT	ENDS
; Function compile flags: /Odtp /RTCsu /ZI
; File c:\users\arcco\documents\github\framework\client\private\thorn.cpp
;	COMDAT ?Reset@CThorn@Client@@QEAAXXZ
_TEXT	SEGMENT
$T1 = 208
$T2 = 256
$T3 = 304
$T4 = 352
$T5 = 400
$T6 = 448
this$ = 512
?Reset@CThorn@Client@@QEAAXXZ PROC			; Client::CThorn::Reset, COMDAT

; 228  : {

$LN3:
  00000	48 89 4c 24 08	 mov	 QWORD PTR [rsp+8], rcx
  00005	55		 push	 rbp
  00006	56		 push	 rsi
  00007	57		 push	 rdi
  00008	48 81 ec 00 02
	00 00		 sub	 rsp, 512		; 00000200H
  0000f	48 8d 6c 24 20	 lea	 rbp, QWORD PTR [rsp+32]
  00014	48 8b fc	 mov	 rdi, rsp
  00017	b9 80 00 00 00	 mov	 ecx, 128		; 00000080H
  0001c	b8 cc cc cc cc	 mov	 eax, -858993460		; ccccccccH
  00021	f3 ab		 rep stosd
  00023	48 8b 8c 24 28
	02 00 00	 mov	 rcx, QWORD PTR [rsp+552]

; 229  : 	m_bRender = false;

  0002b	48 8b 85 00 02
	00 00		 mov	 rax, QWORD PTR this$[rbp]
  00032	c6 80 c9 00 00
	00 00		 mov	 BYTE PTR [rax+201], 0

; 230  : 	m_bScaleUpDown = false;

  00039	48 8b 85 00 02
	00 00		 mov	 rax, QWORD PTR this$[rbp]
  00040	c6 80 cb 00 00
	00 00		 mov	 BYTE PTR [rax+203], 0

; 231  : 
; 232  : 	m_bMove = false;

  00047	48 8b 85 00 02
	00 00		 mov	 rax, QWORD PTR this$[rbp]
  0004e	c6 80 ec 00 00
	00 00		 mov	 BYTE PTR [rax+236], 0

; 233  : 	m_bScaleUp = false;

  00055	48 8b 85 00 02
	00 00		 mov	 rax, QWORD PTR this$[rbp]
  0005c	c6 80 cc 00 00
	00 00		 mov	 BYTE PTR [rax+204], 0

; 234  : 
; 235  : 	m_bScaleFinish = false;

  00063	48 8b 85 00 02
	00 00		 mov	 rax, QWORD PTR this$[rbp]
  0006a	c6 80 ca 00 00
	00 00		 mov	 BYTE PTR [rax+202], 0

; 236  : 
; 237  : 	m_bScaleDownFinish = false;

  00071	48 8b 85 00 02
	00 00		 mov	 rax, QWORD PTR this$[rbp]
  00078	c6 80 ce 00 00
	00 00		 mov	 BYTE PTR [rax+206], 0

; 238  : 	m_bScaleSmoothDown = false;

  0007f	48 8b 85 00 02
	00 00		 mov	 rax, QWORD PTR this$[rbp]
  00086	c6 80 cf 00 00
	00 00		 mov	 BYTE PTR [rax+207], 0

; 239  : 
; 240  : 	m_fLength = 1.f;

  0008d	48 8b 85 00 02
	00 00		 mov	 rax, QWORD PTR this$[rbp]
  00094	f3 0f 10 05 00
	00 00 00	 movss	 xmm0, DWORD PTR __real@3f800000
  0009c	f3 0f 11 80 d4
	00 00 00	 movss	 DWORD PTR [rax+212], xmm0

; 241  : 	m_fScaleAcc = 0.01f;

  000a4	48 8b 85 00 02
	00 00		 mov	 rax, QWORD PTR this$[rbp]
  000ab	f3 0f 10 05 00
	00 00 00	 movss	 xmm0, DWORD PTR __real@3c23d70a
  000b3	f3 0f 11 80 d0
	00 00 00	 movss	 DWORD PTR [rax+208], xmm0

; 242  : 
; 243  : 	m_pTransform->Set_Scale(m_fPrevScale);

  000bb	48 8d 85 30 01
	00 00		 lea	 rax, QWORD PTR $T3[rbp]
  000c2	48 8b 8d 00 02
	00 00		 mov	 rcx, QWORD PTR this$[rbp]
  000c9	48 8b f8	 mov	 rdi, rax
  000cc	48 8d b1 d8 00
	00 00		 lea	 rsi, QWORD PTR [rcx+216]
  000d3	b9 0c 00 00 00	 mov	 ecx, 12
  000d8	f3 a4		 rep movsb
  000da	48 8d 95 30 01
	00 00		 lea	 rdx, QWORD PTR $T3[rbp]
  000e1	48 8b 85 00 02
	00 00		 mov	 rax, QWORD PTR this$[rbp]
  000e8	48 8b 88 b0 00
	00 00		 mov	 rcx, QWORD PTR [rax+176]
  000ef	ff 15 00 00 00
	00		 call	 QWORD PTR __imp_?Set_Scale@CTransform@Engine@@QEAAXUXMFLOAT3@DirectX@@@Z

; 244  : 	m_pTransform->Set_State(CTransform::STATE_POSITION, XMVectorSet(0.f, 0.f, 0.f, 1.f));

  000f5	f3 0f 10 1d 00
	00 00 00	 movss	 xmm3, DWORD PTR __real@3f800000
  000fd	0f 57 d2	 xorps	 xmm2, xmm2
  00100	0f 57 c9	 xorps	 xmm1, xmm1
  00103	0f 57 c0	 xorps	 xmm0, xmm0
  00106	e8 00 00 00 00	 call	 ?XMVectorSet@DirectX@@YQ?AT__m128@@MMMM@Z ; DirectX::XMVectorSet
  0010b	0f 29 85 d0 00
	00 00		 movaps	 XMMWORD PTR $T1[rbp], xmm0
  00112	0f 28 85 d0 00
	00 00		 movaps	 xmm0, XMMWORD PTR $T1[rbp]
  00119	0f 29 85 60 01
	00 00		 movaps	 XMMWORD PTR $T4[rbp], xmm0
  00120	4c 8d 85 60 01
	00 00		 lea	 r8, QWORD PTR $T4[rbp]
  00127	ba 03 00 00 00	 mov	 edx, 3
  0012c	48 8b 85 00 02
	00 00		 mov	 rax, QWORD PTR this$[rbp]
  00133	48 8b 88 b0 00
	00 00		 mov	 rcx, QWORD PTR [rax+176]
  0013a	ff 15 00 00 00
	00		 call	 QWORD PTR __imp_?Set_State@CTransform@Engine@@QEAAXW4STATE@12@T__m128@@@Z

; 245  : 
; 246  : 	m_pTrailTransform->Set_Scale(vTrailScale);

  00140	48 8d 85 90 01
	00 00		 lea	 rax, QWORD PTR $T5[rbp]
  00147	48 8b 8d 00 02
	00 00		 mov	 rcx, QWORD PTR this$[rbp]
  0014e	48 8b f8	 mov	 rdi, rax
  00151	48 8d b1 70 01
	00 00		 lea	 rsi, QWORD PTR [rcx+368]
  00158	b9 0c 00 00 00	 mov	 ecx, 12
  0015d	f3 a4		 rep movsb
  0015f	48 8d 95 90 01
	00 00		 lea	 rdx, QWORD PTR $T5[rbp]
  00166	48 8b 85 00 02
	00 00		 mov	 rax, QWORD PTR this$[rbp]
  0016d	48 8b 88 58 01
	00 00		 mov	 rcx, QWORD PTR [rax+344]
  00174	ff 15 00 00 00
	00		 call	 QWORD PTR __imp_?Set_Scale@CTransform@Engine@@QEAAXUXMFLOAT3@DirectX@@@Z

; 247  : 	m_pTrailTransform->Set_State(CTransform::STATE_POSITION, XMVectorSet(0.f, 0.f, 0.f, 1.f));

  0017a	f3 0f 10 1d 00
	00 00 00	 movss	 xmm3, DWORD PTR __real@3f800000
  00182	0f 57 d2	 xorps	 xmm2, xmm2
  00185	0f 57 c9	 xorps	 xmm1, xmm1
  00188	0f 57 c0	 xorps	 xmm0, xmm0
  0018b	e8 00 00 00 00	 call	 ?XMVectorSet@DirectX@@YQ?AT__m128@@MMMM@Z ; DirectX::XMVectorSet
  00190	0f 29 85 00 01
	00 00		 movaps	 XMMWORD PTR $T2[rbp], xmm0
  00197	0f 28 85 00 01
	00 00		 movaps	 xmm0, XMMWORD PTR $T2[rbp]
  0019e	0f 29 85 c0 01
	00 00		 movaps	 XMMWORD PTR $T6[rbp], xmm0
  001a5	4c 8d 85 c0 01
	00 00		 lea	 r8, QWORD PTR $T6[rbp]
  001ac	ba 03 00 00 00	 mov	 edx, 3
  001b1	48 8b 85 00 02
	00 00		 mov	 rax, QWORD PTR this$[rbp]
  001b8	48 8b 88 58 01
	00 00		 mov	 rcx, QWORD PTR [rax+344]
  001bf	ff 15 00 00 00
	00		 call	 QWORD PTR __imp_?Set_State@CTransform@Engine@@QEAAXW4STATE@12@T__m128@@@Z

; 248  : }

  001c5	48 8d a5 e0 01
	00 00		 lea	 rsp, QWORD PTR [rbp+480]
  001cc	5f		 pop	 rdi
  001cd	5e		 pop	 rsi
  001ce	5d		 pop	 rbp
  001cf	c3		 ret	 0
?Reset@CThorn@Client@@QEAAXXZ ENDP			; Client::CThorn::Reset
_TEXT	ENDS
; Function compile flags: /Odtp /RTCsu /ZI
; File c:\users\arcco\documents\github\framework\client\private\thorn.cpp
;	COMDAT ?GetLengthFromCamera@CThorn@Client@@UEAAMXZ
_TEXT	SEGMENT
pPipeLine$ = 8
vPos$ = 48
vCamPos$ = 96
fLength$ = 132
$T4 = 368
$T5 = 404
$T6 = 464
$T7 = 512
__$ArrayPad$ = 536
this$ = 576
?GetLengthFromCamera@CThorn@Client@@UEAAMXZ PROC	; Client::CThorn::GetLengthFromCamera, COMDAT

; 216  : {

$LN3:
  00000	48 89 4c 24 08	 mov	 QWORD PTR [rsp+8], rcx
  00005	55		 push	 rbp
  00006	57		 push	 rdi
  00007	48 81 ec 58 02
	00 00		 sub	 rsp, 600		; 00000258H
  0000e	48 8d 6c 24 30	 lea	 rbp, QWORD PTR [rsp+48]
  00013	48 8b fc	 mov	 rdi, rsp
  00016	b9 96 00 00 00	 mov	 ecx, 150		; 00000096H
  0001b	b8 cc cc cc cc	 mov	 eax, -858993460		; ccccccccH
  00020	f3 ab		 rep stosd
  00022	48 8b 8c 24 78
	02 00 00	 mov	 rcx, QWORD PTR [rsp+632]
  0002a	48 8b 05 00 00
	00 00		 mov	 rax, QWORD PTR __security_cookie
  00031	48 33 c5	 xor	 rax, rbp
  00034	48 89 85 18 02
	00 00		 mov	 QWORD PTR __$ArrayPad$[rbp], rax

; 217  : 	CPipeLine* pPipeLine = CPipeLine::GetInstance();

  0003b	ff 15 00 00 00
	00		 call	 QWORD PTR __imp_?GetInstance@CPipeLine@Engine@@SAPEAV12@XZ
  00041	48 89 45 08	 mov	 QWORD PTR pPipeLine$[rbp], rax

; 218  : 
; 219  : 	_vector vPos = m_pTransform->Get_State(CTransform::STATE_POSITION);

  00045	41 b8 03 00 00
	00		 mov	 r8d, 3
  0004b	48 8d 55 30	 lea	 rdx, QWORD PTR vPos$[rbp]
  0004f	48 8b 85 40 02
	00 00		 mov	 rax, QWORD PTR this$[rbp]
  00056	48 8b 88 b0 00
	00 00		 mov	 rcx, QWORD PTR [rax+176]
  0005d	ff 15 00 00 00
	00		 call	 QWORD PTR __imp_?Get_State@CTransform@Engine@@QEAA?AT__m128@@W4STATE@12@@Z

; 220  : 	_vector vCamPos = XMLoadFloat4(&pPipeLine->Get_CamPosition());

  00063	48 8d 95 94 01
	00 00		 lea	 rdx, QWORD PTR $T5[rbp]
  0006a	48 8b 4d 08	 mov	 rcx, QWORD PTR pPipeLine$[rbp]
  0006e	ff 15 00 00 00
	00		 call	 QWORD PTR __imp_?Get_CamPosition@CPipeLine@Engine@@QEAA?AUXMFLOAT4@DirectX@@XZ
  00074	48 8b c8	 mov	 rcx, rax
  00077	e8 00 00 00 00	 call	 ?XMLoadFloat4@DirectX@@YQ?AT__m128@@PEBUXMFLOAT4@1@@Z ; DirectX::XMLoadFloat4
  0007c	0f 29 85 70 01
	00 00		 movaps	 XMMWORD PTR $T4[rbp], xmm0
  00083	0f 28 85 70 01
	00 00		 movaps	 xmm0, XMMWORD PTR $T4[rbp]
  0008a	0f 29 45 60	 movaps	 XMMWORD PTR vCamPos$[rbp], xmm0

; 221  : 
; 222  : 	_float fLength = XMVectorGetX(XMVector3Length(vPos - vCamPos));

  0008e	0f 28 4d 60	 movaps	 xmm1, XMMWORD PTR vCamPos$[rbp]
  00092	0f 28 45 30	 movaps	 xmm0, XMMWORD PTR vPos$[rbp]
  00096	e8 00 00 00 00	 call	 ??GDirectX@@YQ?AT__m128@@T1@0@Z ; DirectX::operator-
  0009b	0f 29 85 00 02
	00 00		 movaps	 XMMWORD PTR $T7[rbp], xmm0
  000a2	0f 28 85 00 02
	00 00		 movaps	 xmm0, XMMWORD PTR $T7[rbp]
  000a9	e8 00 00 00 00	 call	 ?XMVector3Length@DirectX@@YQ?AT__m128@@T2@@Z ; DirectX::XMVector3Length
  000ae	0f 29 85 d0 01
	00 00		 movaps	 XMMWORD PTR $T6[rbp], xmm0
  000b5	0f 28 85 d0 01
	00 00		 movaps	 xmm0, XMMWORD PTR $T6[rbp]
  000bc	e8 00 00 00 00	 call	 ?XMVectorGetX@DirectX@@YQMT__m128@@@Z ; DirectX::XMVectorGetX
  000c1	f3 0f 11 85 84
	00 00 00	 movss	 DWORD PTR fLength$[rbp], xmm0

; 223  : 	
; 224  : 	return fLength;

  000c9	f3 0f 10 85 84
	00 00 00	 movss	 xmm0, DWORD PTR fLength$[rbp]

; 225  : }

  000d1	f3 0f 7f 44 24
	20		 movdqu	 XMMWORD PTR [rsp+32], xmm0
  000d7	48 8d 4d d0	 lea	 rcx, QWORD PTR [rbp-48]
  000db	48 8d 15 00 00
	00 00		 lea	 rdx, OFFSET FLAT:?GetLengthFromCamera@CThorn@Client@@UEAAMXZ$rtcFrameData
  000e2	e8 00 00 00 00	 call	 _RTC_CheckStackVars
  000e7	f3 0f 6f 44 24
	20		 movdqu	 xmm0, XMMWORD PTR [rsp+32]
  000ed	48 8b 8d 18 02
	00 00		 mov	 rcx, QWORD PTR __$ArrayPad$[rbp]
  000f4	48 33 cd	 xor	 rcx, rbp
  000f7	e8 00 00 00 00	 call	 __security_check_cookie
  000fc	48 8d a5 28 02
	00 00		 lea	 rsp, QWORD PTR [rbp+552]
  00103	5f		 pop	 rdi
  00104	5d		 pop	 rbp
  00105	c3		 ret	 0
?GetLengthFromCamera@CThorn@Client@@UEAAMXZ ENDP	; Client::CThorn::GetLengthFromCamera
_TEXT	ENDS
; Function compile flags: /Odtp /RTCsu /ZI
; File c:\users\arcco\documents\github\framework\client\private\thorn.cpp
;	COMDAT ?RenderGUI@CThorn@Client@@UEAAXXZ
_TEXT	SEGMENT
this$ = 224
?RenderGUI@CThorn@Client@@UEAAXXZ PROC			; Client::CThorn::RenderGUI, COMDAT

; 212  : {

$LN3:
  00000	48 89 4c 24 08	 mov	 QWORD PTR [rsp+8], rcx
  00005	55		 push	 rbp
  00006	57		 push	 rdi
  00007	48 81 ec c8 00
	00 00		 sub	 rsp, 200		; 000000c8H
  0000e	48 8b ec	 mov	 rbp, rsp
  00011	48 8b fc	 mov	 rdi, rsp
  00014	b9 32 00 00 00	 mov	 ecx, 50			; 00000032H
  00019	b8 cc cc cc cc	 mov	 eax, -858993460		; ccccccccH
  0001e	f3 ab		 rep stosd
  00020	48 8b 8c 24 e8
	00 00 00	 mov	 rcx, QWORD PTR [rsp+232]

; 213  : }

  00028	48 8d a5 c8 00
	00 00		 lea	 rsp, QWORD PTR [rbp+200]
  0002f	5f		 pop	 rdi
  00030	5d		 pop	 rbp
  00031	c3		 ret	 0
?RenderGUI@CThorn@Client@@UEAAXXZ ENDP			; Client::CThorn::RenderGUI
_TEXT	ENDS
; Function compile flags: /Odtp /RTCsu /ZI
; File c:\users\arcco\documents\github\framework\client\private\thorn.cpp
;	COMDAT ?Render@CThorn@Client@@UEAAJXZ
_TEXT	SEGMENT
pInstance$ = 8
MeshCount$1 = 36
i$2 = 68
$T3 = 292
$T4 = 388
$T5 = 484
$T6 = 580
this$ = 704
?Render@CThorn@Client@@UEAAJXZ PROC			; Client::CThorn::Render, COMDAT

; 120  : {

$LN26:
  00000	48 89 4c 24 08	 mov	 QWORD PTR [rsp+8], rcx
  00005	55		 push	 rbp
  00006	57		 push	 rdi
  00007	48 81 ec d8 02
	00 00		 sub	 rsp, 728		; 000002d8H
  0000e	48 8d 6c 24 30	 lea	 rbp, QWORD PTR [rsp+48]
  00013	48 8b fc	 mov	 rdi, rsp
  00016	b9 b6 00 00 00	 mov	 ecx, 182		; 000000b6H
  0001b	b8 cc cc cc cc	 mov	 eax, -858993460		; ccccccccH
  00020	f3 ab		 rep stosd
  00022	48 8b 8c 24 f8
	02 00 00	 mov	 rcx, QWORD PTR [rsp+760]

; 121  : 	if (FAILED(__super::Render()))

  0002a	48 8b 8d c0 02
	00 00		 mov	 rcx, QWORD PTR this$[rbp]
  00031	ff 15 00 00 00
	00		 call	 QWORD PTR __imp_?Render@CGameObject@Engine@@UEAAJXZ
  00037	85 c0		 test	 eax, eax
  00039	7d 0a		 jge	 SHORT $LN5@Render

; 122  : 		return E_FAIL;

  0003b	b8 05 40 00 80	 mov	 eax, -2147467259	; ffffffff80004005H
  00040	e9 fc 04 00 00	 jmp	 $LN1@Render
$LN5@Render:

; 123  : 
; 124  : 	CGameInstance* pInstance = CGameInstance::GetInstance();

  00045	ff 15 00 00 00
	00		 call	 QWORD PTR __imp_?GetInstance@CGameInstance@Engine@@SAPEAV12@XZ
  0004b	48 89 45 08	 mov	 QWORD PTR pInstance$[rbp], rax

; 125  : 
; 126  : 
; 127  : 	if (m_eThornType == THORN)

  0004f	48 8b 85 c0 02
	00 00		 mov	 rax, QWORD PTR this$[rbp]
  00056	83 b8 a0 00 00
	00 00		 cmp	 DWORD PTR [rax+160], 0
  0005d	0f 85 36 02 00
	00		 jne	 $LN6@Render

; 128  : 	{
; 129  : 		//  
; 130  : 		if (m_bFloorRender)

  00063	48 8b 85 c0 02
	00 00		 mov	 rax, QWORD PTR this$[rbp]
  0006a	0f b6 80 45 01
	00 00		 movzx	 eax, BYTE PTR [rax+325]
  00071	85 c0		 test	 eax, eax
  00073	0f 84 36 01 00
	00		 je	 $LN8@Render

; 131  : 		{
; 132  : 			// 
; 133  : 			if (FAILED(m_pFloorShader->SetMatrix("g_ViewMatrix", &pInstance->Get_Transform_float4x4(CPipeLine::TS_VIEW))))

  00079	45 33 c0	 xor	 r8d, r8d
  0007c	48 8d 95 24 01
	00 00		 lea	 rdx, QWORD PTR $T3[rbp]
  00083	48 8b 4d 08	 mov	 rcx, QWORD PTR pInstance$[rbp]
  00087	ff 15 00 00 00
	00		 call	 QWORD PTR __imp_?Get_Transform_float4x4@CGameInstance@Engine@@QEAA?AUXMFLOAT4X4@DirectX@@W4TRANSFORM_STATE@CPipeLine@2@@Z
  0008d	4c 8b c0	 mov	 r8, rax
  00090	48 8d 15 00 00
	00 00		 lea	 rdx, OFFSET FLAT:??_C@_0N@ELIMCBLG@g_ViewMatrix?$AA@
  00097	48 8b 85 c0 02
	00 00		 mov	 rax, QWORD PTR this$[rbp]
  0009e	48 8b 88 08 01
	00 00		 mov	 rcx, QWORD PTR [rax+264]
  000a5	ff 15 00 00 00
	00		 call	 QWORD PTR __imp_?SetMatrix@CShader@Engine@@QEAAJPEBDPEBUXMFLOAT4X4@DirectX@@@Z
  000ab	85 c0		 test	 eax, eax
  000ad	7d 0a		 jge	 SHORT $LN9@Render

; 134  : 				return E_FAIL;

  000af	b8 05 40 00 80	 mov	 eax, -2147467259	; ffffffff80004005H
  000b4	e9 88 04 00 00	 jmp	 $LN1@Render
$LN9@Render:

; 135  : 			if (FAILED(m_pFloorShader->SetMatrix("g_ProjMatrix", &pInstance->Get_Transform_float4x4(CPipeLine::TS_PROJ))))

  000b9	41 b8 01 00 00
	00		 mov	 r8d, 1
  000bf	48 8d 95 84 01
	00 00		 lea	 rdx, QWORD PTR $T4[rbp]
  000c6	48 8b 4d 08	 mov	 rcx, QWORD PTR pInstance$[rbp]
  000ca	ff 15 00 00 00
	00		 call	 QWORD PTR __imp_?Get_Transform_float4x4@CGameInstance@Engine@@QEAA?AUXMFLOAT4X4@DirectX@@W4TRANSFORM_STATE@CPipeLine@2@@Z
  000d0	4c 8b c0	 mov	 r8, rax
  000d3	48 8d 15 00 00
	00 00		 lea	 rdx, OFFSET FLAT:??_C@_0N@OOHDPIO@g_ProjMatrix?$AA@
  000da	48 8b 85 c0 02
	00 00		 mov	 rax, QWORD PTR this$[rbp]
  000e1	48 8b 88 08 01
	00 00		 mov	 rcx, QWORD PTR [rax+264]
  000e8	ff 15 00 00 00
	00		 call	 QWORD PTR __imp_?SetMatrix@CShader@Engine@@QEAAJPEBDPEBUXMFLOAT4X4@DirectX@@@Z
  000ee	85 c0		 test	 eax, eax
  000f0	7d 0a		 jge	 SHORT $LN10@Render

; 136  : 				return E_FAIL;

  000f2	b8 05 40 00 80	 mov	 eax, -2147467259	; ffffffff80004005H
  000f7	e9 45 04 00 00	 jmp	 $LN1@Render
$LN10@Render:

; 137  : 			m_pFloorEffectTransform->Setup_ShaderResource(m_pFloorShader, "g_WorldMatrix");

  000fc	4c 8d 05 00 00
	00 00		 lea	 r8, OFFSET FLAT:??_C@_0O@PFNLPMLD@g_WorldMatrix?$AA@
  00103	48 8b 85 c0 02
	00 00		 mov	 rax, QWORD PTR this$[rbp]
  0010a	48 8b 90 08 01
	00 00		 mov	 rdx, QWORD PTR [rax+264]
  00111	48 8b 85 c0 02
	00 00		 mov	 rax, QWORD PTR this$[rbp]
  00118	48 8b 88 f8 00
	00 00		 mov	 rcx, QWORD PTR [rax+248]
  0011f	ff 15 00 00 00
	00		 call	 QWORD PTR __imp_?Setup_ShaderResource@CTransform@Engine@@QEAAJPEAVCShader@2@PEBD@Z

; 138  : 			m_pFloorEffectDiffuse->Setup_ShaderResource(m_pFloorShader, "g_Texture");

  00125	45 33 c9	 xor	 r9d, r9d
  00128	4c 8d 05 00 00
	00 00		 lea	 r8, OFFSET FLAT:??_C@_09HCHKCCII@g_Texture?$AA@
  0012f	48 8b 85 c0 02
	00 00		 mov	 rax, QWORD PTR this$[rbp]
  00136	48 8b 90 08 01
	00 00		 mov	 rdx, QWORD PTR [rax+264]
  0013d	48 8b 85 c0 02
	00 00		 mov	 rax, QWORD PTR this$[rbp]
  00144	48 8b 88 10 01
	00 00		 mov	 rcx, QWORD PTR [rax+272]
  0014b	ff 15 00 00 00
	00		 call	 QWORD PTR __imp_?Setup_ShaderResource@CTexture@Engine@@QEAAJPEAVCShader@2@PEBDI@Z

; 139  : 			m_pFloorShader->SetRawValue("g_TimeAcc", &m_fFloorAlphaAcc, sizeof(float));

  00151	48 8b 85 c0 02
	00 00		 mov	 rax, QWORD PTR this$[rbp]
  00158	48 05 48 01 00
	00		 add	 rax, 328		; 00000148H
  0015e	41 b9 04 00 00
	00		 mov	 r9d, 4
  00164	4c 8b c0	 mov	 r8, rax
  00167	48 8d 15 00 00
	00 00		 lea	 rdx, OFFSET FLAT:??_C@_09IPLGGENB@g_TimeAcc?$AA@
  0016e	48 8b 85 c0 02
	00 00		 mov	 rax, QWORD PTR this$[rbp]
  00175	48 8b 88 08 01
	00 00		 mov	 rcx, QWORD PTR [rax+264]
  0017c	ff 15 00 00 00
	00		 call	 QWORD PTR __imp_?SetRawValue@CShader@Engine@@QEAAJPEBDPEBXI@Z

; 140  : 
; 141  : 			//BS_AlphaBlend & DS_ZTest_NoZWrite
; 142  : 			m_pFloorShader->Begin(5);

  00182	ba 05 00 00 00	 mov	 edx, 5
  00187	48 8b 85 c0 02
	00 00		 mov	 rax, QWORD PTR this$[rbp]
  0018e	48 8b 88 08 01
	00 00		 mov	 rcx, QWORD PTR [rax+264]
  00195	ff 15 00 00 00
	00		 call	 QWORD PTR __imp_?Begin@CShader@Engine@@QEAAJI@Z

; 143  : 			m_pFloorEffectBuffer->Render();

  0019b	48 8b 85 c0 02
	00 00		 mov	 rax, QWORD PTR this$[rbp]
  001a2	48 8b 88 00 01
	00 00		 mov	 rcx, QWORD PTR [rax+256]
  001a9	ff 15 00 00 00
	00		 call	 QWORD PTR __imp_?Render@CVIBuffer@Engine@@UEAAJXZ
$LN8@Render:

; 144  : 		}
; 145  : 
; 146  : 		// 
; 147  : 		if (m_bGardRender)

  001af	48 8b 85 c0 02
	00 00		 mov	 rax, QWORD PTR this$[rbp]
  001b6	0f b6 80 44 01
	00 00		 movzx	 eax, BYTE PTR [rax+324]
  001bd	85 c0		 test	 eax, eax
  001bf	0f 84 cf 00 00
	00		 je	 $LN11@Render

; 148  : 		{
; 149  : 			if (FAILED(SetupShaderResources()))

  001c5	48 8b 8d c0 02
	00 00		 mov	 rcx, QWORD PTR this$[rbp]
  001cc	e8 00 00 00 00	 call	 ?SetupShaderResources@CThorn@Client@@AEAAJXZ ; Client::CThorn::SetupShaderResources
  001d1	85 c0		 test	 eax, eax
  001d3	7d 0a		 jge	 SHORT $LN12@Render

; 150  : 				return E_FAIL;

  001d5	b8 05 40 00 80	 mov	 eax, -2147467259	; ffffffff80004005H
  001da	e9 62 03 00 00	 jmp	 $LN1@Render
$LN12@Render:

; 151  : 			m_pFloorGardTransform->Setup_ShaderResource(m_pShader, "g_WorldMatrix");

  001df	4c 8d 05 00 00
	00 00		 lea	 r8, OFFSET FLAT:??_C@_0O@PFNLPMLD@g_WorldMatrix?$AA@
  001e6	48 8b 85 c0 02
	00 00		 mov	 rax, QWORD PTR this$[rbp]
  001ed	48 8b 90 c0 00
	00 00		 mov	 rdx, QWORD PTR [rax+192]
  001f4	48 8b 85 c0 02
	00 00		 mov	 rax, QWORD PTR this$[rbp]
  001fb	48 8b 88 28 01
	00 00		 mov	 rcx, QWORD PTR [rax+296]
  00202	ff 15 00 00 00
	00		 call	 QWORD PTR __imp_?Setup_ShaderResource@CTransform@Engine@@QEAAJPEAVCShader@2@PEBD@Z

; 152  : 			m_pFloorGardTexture->Setup_ShaderResource(m_pShader, "g_DiffuseTexture");

  00208	45 33 c9	 xor	 r9d, r9d
  0020b	4c 8d 05 00 00
	00 00		 lea	 r8, OFFSET FLAT:??_C@_0BB@FMIBAICL@g_DiffuseTexture?$AA@
  00212	48 8b 85 c0 02
	00 00		 mov	 rax, QWORD PTR this$[rbp]
  00219	48 8b 90 c0 00
	00 00		 mov	 rdx, QWORD PTR [rax+192]
  00220	48 8b 85 c0 02
	00 00		 mov	 rax, QWORD PTR this$[rbp]
  00227	48 8b 88 30 01
	00 00		 mov	 rcx, QWORD PTR [rax+304]
  0022e	ff 15 00 00 00
	00		 call	 QWORD PTR __imp_?Setup_ShaderResource@CTexture@Engine@@QEAAJPEAVCShader@2@PEBDI@Z

; 153  : 			m_pShader->SetRawValue("g_fTimeAcc", &m_fTimeAcc, sizeof(float));

  00234	48 8b 85 c0 02
	00 00		 mov	 rax, QWORD PTR this$[rbp]
  0023b	48 05 40 01 00
	00		 add	 rax, 320		; 00000140H
  00241	41 b9 04 00 00
	00		 mov	 r9d, 4
  00247	4c 8b c0	 mov	 r8, rax
  0024a	48 8d 15 00 00
	00 00		 lea	 rdx, OFFSET FLAT:??_C@_0L@IHOCIKLF@g_fTimeAcc?$AA@
  00251	48 8b 85 c0 02
	00 00		 mov	 rax, QWORD PTR this$[rbp]
  00258	48 8b 88 c0 00
	00 00		 mov	 rcx, QWORD PTR [rax+192]
  0025f	ff 15 00 00 00
	00		 call	 QWORD PTR __imp_?SetRawValue@CShader@Engine@@QEAAJPEBDPEBXI@Z

; 154  : 
; 155  : 			//BS_AlphaBlend & DS_ZTest_NoZWrite
; 156  : 			m_pShader->Begin(6);

  00265	ba 06 00 00 00	 mov	 edx, 6
  0026a	48 8b 85 c0 02
	00 00		 mov	 rax, QWORD PTR this$[rbp]
  00271	48 8b 88 c0 00
	00 00		 mov	 rcx, QWORD PTR [rax+192]
  00278	ff 15 00 00 00
	00		 call	 QWORD PTR __imp_?Begin@CShader@Engine@@QEAAJI@Z

; 157  : 			m_pFloorGard->Render(0);

  0027e	33 d2		 xor	 edx, edx
  00280	48 8b 85 c0 02
	00 00		 mov	 rax, QWORD PTR this$[rbp]
  00287	48 8b 88 20 01
	00 00		 mov	 rcx, QWORD PTR [rax+288]
  0028e	ff 15 00 00 00
	00		 call	 QWORD PTR __imp_?Render@CModel@Engine@@QEAAJI@Z
$LN11@Render:

; 158  : 		}
; 159  : 	}
; 160  : 	else

  00294	e9 18 01 00 00	 jmp	 $LN7@Render
$LN6@Render:

; 161  : 	{
; 162  : 		if (m_bMove)

  00299	48 8b 85 c0 02
	00 00		 mov	 rax, QWORD PTR this$[rbp]
  002a0	0f b6 80 ec 00
	00 00		 movzx	 eax, BYTE PTR [rax+236]
  002a7	85 c0		 test	 eax, eax
  002a9	0f 84 02 01 00
	00		 je	 $LN13@Render

; 163  : 		{
; 164  : 			// 
; 165  : 			if (FAILED(m_pTrailEffectShader->SetMatrix("g_ViewMatrix", &pInstance->Get_Transform_float4x4(CPipeLine::TS_VIEW))))

  002af	45 33 c0	 xor	 r8d, r8d
  002b2	48 8d 95 e4 01
	00 00		 lea	 rdx, QWORD PTR $T5[rbp]
  002b9	48 8b 4d 08	 mov	 rcx, QWORD PTR pInstance$[rbp]
  002bd	ff 15 00 00 00
	00		 call	 QWORD PTR __imp_?Get_Transform_float4x4@CGameInstance@Engine@@QEAA?AUXMFLOAT4X4@DirectX@@W4TRANSFORM_STATE@CPipeLine@2@@Z
  002c3	4c 8b c0	 mov	 r8, rax
  002c6	48 8d 15 00 00
	00 00		 lea	 rdx, OFFSET FLAT:??_C@_0N@ELIMCBLG@g_ViewMatrix?$AA@
  002cd	48 8b 85 c0 02
	00 00		 mov	 rax, QWORD PTR this$[rbp]
  002d4	48 8b 88 68 01
	00 00		 mov	 rcx, QWORD PTR [rax+360]
  002db	ff 15 00 00 00
	00		 call	 QWORD PTR __imp_?SetMatrix@CShader@Engine@@QEAAJPEBDPEBUXMFLOAT4X4@DirectX@@@Z
  002e1	85 c0		 test	 eax, eax
  002e3	7d 0a		 jge	 SHORT $LN14@Render

; 166  : 				return E_FAIL;

  002e5	b8 05 40 00 80	 mov	 eax, -2147467259	; ffffffff80004005H
  002ea	e9 52 02 00 00	 jmp	 $LN1@Render
$LN14@Render:

; 167  : 			if (FAILED(m_pTrailEffectShader->SetMatrix("g_ProjMatrix", &pInstance->Get_Transform_float4x4(CPipeLine::TS_PROJ))))

  002ef	41 b8 01 00 00
	00		 mov	 r8d, 1
  002f5	48 8d 95 44 02
	00 00		 lea	 rdx, QWORD PTR $T6[rbp]
  002fc	48 8b 4d 08	 mov	 rcx, QWORD PTR pInstance$[rbp]
  00300	ff 15 00 00 00
	00		 call	 QWORD PTR __imp_?Get_Transform_float4x4@CGameInstance@Engine@@QEAA?AUXMFLOAT4X4@DirectX@@W4TRANSFORM_STATE@CPipeLine@2@@Z
  00306	4c 8b c0	 mov	 r8, rax
  00309	48 8d 15 00 00
	00 00		 lea	 rdx, OFFSET FLAT:??_C@_0N@OOHDPIO@g_ProjMatrix?$AA@
  00310	48 8b 85 c0 02
	00 00		 mov	 rax, QWORD PTR this$[rbp]
  00317	48 8b 88 68 01
	00 00		 mov	 rcx, QWORD PTR [rax+360]
  0031e	ff 15 00 00 00
	00		 call	 QWORD PTR __imp_?SetMatrix@CShader@Engine@@QEAAJPEBDPEBUXMFLOAT4X4@DirectX@@@Z
  00324	85 c0		 test	 eax, eax
  00326	7d 0a		 jge	 SHORT $LN15@Render

; 168  : 				return E_FAIL;

  00328	b8 05 40 00 80	 mov	 eax, -2147467259	; ffffffff80004005H
  0032d	e9 0f 02 00 00	 jmp	 $LN1@Render
$LN15@Render:

; 169  : 
; 170  : 			m_pTrailTransform->Setup_ShaderResource(m_pTrailEffectShader, "g_WorldMatrix");

  00332	4c 8d 05 00 00
	00 00		 lea	 r8, OFFSET FLAT:??_C@_0O@PFNLPMLD@g_WorldMatrix?$AA@
  00339	48 8b 85 c0 02
	00 00		 mov	 rax, QWORD PTR this$[rbp]
  00340	48 8b 90 68 01
	00 00		 mov	 rdx, QWORD PTR [rax+360]
  00347	48 8b 85 c0 02
	00 00		 mov	 rax, QWORD PTR this$[rbp]
  0034e	48 8b 88 58 01
	00 00		 mov	 rcx, QWORD PTR [rax+344]
  00355	ff 15 00 00 00
	00		 call	 QWORD PTR __imp_?Setup_ShaderResource@CTransform@Engine@@QEAAJPEAVCShader@2@PEBD@Z

; 171  : 			m_pTrailTexture->Setup_ShaderResource(m_pTrailEffectShader, "g_Texture");

  0035b	45 33 c9	 xor	 r9d, r9d
  0035e	4c 8d 05 00 00
	00 00		 lea	 r8, OFFSET FLAT:??_C@_09HCHKCCII@g_Texture?$AA@
  00365	48 8b 85 c0 02
	00 00		 mov	 rax, QWORD PTR this$[rbp]
  0036c	48 8b 90 68 01
	00 00		 mov	 rdx, QWORD PTR [rax+360]
  00373	48 8b 85 c0 02
	00 00		 mov	 rax, QWORD PTR this$[rbp]
  0037a	48 8b 88 60 01
	00 00		 mov	 rcx, QWORD PTR [rax+352]
  00381	ff 15 00 00 00
	00		 call	 QWORD PTR __imp_?Setup_ShaderResource@CTexture@Engine@@QEAAJPEAVCShader@2@PEBDI@Z

; 172  : 
; 173  : 			m_pTrailEffectShader->Begin(0);

  00387	33 d2		 xor	 edx, edx
  00389	48 8b 85 c0 02
	00 00		 mov	 rax, QWORD PTR this$[rbp]
  00390	48 8b 88 68 01
	00 00		 mov	 rcx, QWORD PTR [rax+360]
  00397	ff 15 00 00 00
	00		 call	 QWORD PTR __imp_?Begin@CShader@Engine@@QEAAJI@Z

; 174  : 			m_pTrailEffectBuffer->Render();

  0039d	48 8b 85 c0 02
	00 00		 mov	 rax, QWORD PTR this$[rbp]
  003a4	48 8b 88 50 01
	00 00		 mov	 rcx, QWORD PTR [rax+336]
  003ab	ff 15 00 00 00
	00		 call	 QWORD PTR __imp_?Render@CVIBuffer@Engine@@UEAAJXZ
$LN13@Render:
$LN7@Render:

; 175  : 		}
; 176  : 	} 
; 177  : 
; 178  : 	if (m_bRender)

  003b1	48 8b 85 c0 02
	00 00		 mov	 rax, QWORD PTR this$[rbp]
  003b8	0f b6 80 c9 00
	00 00		 movzx	 eax, BYTE PTR [rax+201]
  003bf	85 c0		 test	 eax, eax
  003c1	0f 84 78 01 00
	00		 je	 $LN16@Render

; 179  : 	{
; 180  : 		if (FAILED(SetupShaderResources()))

  003c7	48 8b 8d c0 02
	00 00		 mov	 rcx, QWORD PTR this$[rbp]
  003ce	e8 00 00 00 00	 call	 ?SetupShaderResources@CThorn@Client@@AEAAJXZ ; Client::CThorn::SetupShaderResources
  003d3	85 c0		 test	 eax, eax
  003d5	7d 0a		 jge	 SHORT $LN17@Render

; 181  : 			return E_FAIL;

  003d7	b8 05 40 00 80	 mov	 eax, -2147467259	; ffffffff80004005H
  003dc	e9 60 01 00 00	 jmp	 $LN1@Render
$LN17@Render:

; 182  : 		if (FAILED(m_pTransform->Setup_ShaderResource(m_pShader, "g_WorldMatrix")))

  003e1	4c 8d 05 00 00
	00 00		 lea	 r8, OFFSET FLAT:??_C@_0O@PFNLPMLD@g_WorldMatrix?$AA@
  003e8	48 8b 85 c0 02
	00 00		 mov	 rax, QWORD PTR this$[rbp]
  003ef	48 8b 90 c0 00
	00 00		 mov	 rdx, QWORD PTR [rax+192]
  003f6	48 8b 85 c0 02
	00 00		 mov	 rax, QWORD PTR this$[rbp]
  003fd	48 8b 88 b0 00
	00 00		 mov	 rcx, QWORD PTR [rax+176]
  00404	ff 15 00 00 00
	00		 call	 QWORD PTR __imp_?Setup_ShaderResource@CTransform@Engine@@QEAAJPEAVCShader@2@PEBD@Z
  0040a	85 c0		 test	 eax, eax
  0040c	7d 0a		 jge	 SHORT $LN18@Render

; 183  : 			return E_FAIL;

  0040e	b8 05 40 00 80	 mov	 eax, -2147467259	; ffffffff80004005H
  00413	e9 29 01 00 00	 jmp	 $LN1@Render
$LN18@Render:

; 184  : 		_uint MeshCount = m_pModel->Get_MeshCount();

  00418	48 8b 85 c0 02
	00 00		 mov	 rax, QWORD PTR this$[rbp]
  0041f	48 8b 88 b8 00
	00 00		 mov	 rcx, QWORD PTR [rax+184]
  00426	ff 15 00 00 00
	00		 call	 QWORD PTR __imp_?Get_MeshCount@CModel@Engine@@QEAAIXZ
  0042c	89 45 24	 mov	 DWORD PTR MeshCount$1[rbp], eax

; 185  : 		for (_uint i = 0; i < MeshCount; ++i)

  0042f	c7 45 44 00 00
	00 00		 mov	 DWORD PTR i$2[rbp], 0
  00436	eb 08		 jmp	 SHORT $LN4@Render
$LN2@Render:
  00438	8b 45 44	 mov	 eax, DWORD PTR i$2[rbp]
  0043b	ff c0		 inc	 eax
  0043d	89 45 44	 mov	 DWORD PTR i$2[rbp], eax
$LN4@Render:
  00440	8b 45 24	 mov	 eax, DWORD PTR MeshCount$1[rbp]
  00443	39 45 44	 cmp	 DWORD PTR i$2[rbp], eax
  00446	0f 83 f3 00 00
	00		 jae	 $LN3@Render

; 186  : 		{
; 187  : 			m_pModel->Setup_ShaderMaterialResource(m_pShader, "g_DiffuseTexture", i, aiTextureType::aiTextureType_DIFFUSE);

  0044c	c7 44 24 20 01
	00 00 00	 mov	 DWORD PTR [rsp+32], 1
  00454	44 8b 4d 44	 mov	 r9d, DWORD PTR i$2[rbp]
  00458	4c 8d 05 00 00
	00 00		 lea	 r8, OFFSET FLAT:??_C@_0BB@FMIBAICL@g_DiffuseTexture?$AA@
  0045f	48 8b 85 c0 02
	00 00		 mov	 rax, QWORD PTR this$[rbp]
  00466	48 8b 90 c0 00
	00 00		 mov	 rdx, QWORD PTR [rax+192]
  0046d	48 8b 85 c0 02
	00 00		 mov	 rax, QWORD PTR this$[rbp]
  00474	48 8b 88 b8 00
	00 00		 mov	 rcx, QWORD PTR [rax+184]
  0047b	ff 15 00 00 00
	00		 call	 QWORD PTR __imp_?Setup_ShaderMaterialResource@CModel@Engine@@QEAAJPEAVCShader@2@PEBDIW4aiTextureType@@@Z

; 188  : 
; 189  : 			if (CApplicationManager::GetInstance()->IsFreeze())

  00481	e8 00 00 00 00	 call	 ?GetInstance@CApplicationManager@Client@@SAPEAV12@XZ ; Client::CApplicationManager::GetInstance
  00486	48 8b c8	 mov	 rcx, rax
  00489	e8 00 00 00 00	 call	 ?IsFreeze@CApplicationManager@Client@@QEBA_NXZ ; Client::CApplicationManager::IsFreeze
  0048e	0f b6 c0	 movzx	 eax, al
  00491	85 c0		 test	 eax, eax
  00493	74 48		 je	 SHORT $LN19@Render

; 190  : 			{
; 191  : 				if(m_bAlpha)

  00495	48 8b 85 c0 02
	00 00		 mov	 rax, QWORD PTR this$[rbp]
  0049c	0f b6 80 c8 00
	00 00		 movzx	 eax, BYTE PTR [rax+200]
  004a3	85 c0		 test	 eax, eax
  004a5	74 1b		 je	 SHORT $LN21@Render

; 192  : 					m_pShader->Begin(10);

  004a7	ba 0a 00 00 00	 mov	 edx, 10
  004ac	48 8b 85 c0 02
	00 00		 mov	 rax, QWORD PTR this$[rbp]
  004b3	48 8b 88 c0 00
	00 00		 mov	 rcx, QWORD PTR [rax+192]
  004ba	ff 15 00 00 00
	00		 call	 QWORD PTR __imp_?Begin@CShader@Engine@@QEAAJI@Z

; 193  : 				else

  004c0	eb 19		 jmp	 SHORT $LN22@Render
$LN21@Render:

; 194  : 					m_pShader->Begin(8);

  004c2	ba 08 00 00 00	 mov	 edx, 8
  004c7	48 8b 85 c0 02
	00 00		 mov	 rax, QWORD PTR this$[rbp]
  004ce	48 8b 88 c0 00
	00 00		 mov	 rcx, QWORD PTR [rax+192]
  004d5	ff 15 00 00 00
	00		 call	 QWORD PTR __imp_?Begin@CShader@Engine@@QEAAJI@Z
$LN22@Render:

; 195  : 			}
; 196  : 			else

  004db	eb 46		 jmp	 SHORT $LN20@Render
$LN19@Render:

; 197  : 			{
; 198  : 				if (m_bAlpha)

  004dd	48 8b 85 c0 02
	00 00		 mov	 rax, QWORD PTR this$[rbp]
  004e4	0f b6 80 c8 00
	00 00		 movzx	 eax, BYTE PTR [rax+200]
  004eb	85 c0		 test	 eax, eax
  004ed	74 1b		 je	 SHORT $LN23@Render

; 199  : 					m_pShader->Begin(9);

  004ef	ba 09 00 00 00	 mov	 edx, 9
  004f4	48 8b 85 c0 02
	00 00		 mov	 rax, QWORD PTR this$[rbp]
  004fb	48 8b 88 c0 00
	00 00		 mov	 rcx, QWORD PTR [rax+192]
  00502	ff 15 00 00 00
	00		 call	 QWORD PTR __imp_?Begin@CShader@Engine@@QEAAJI@Z

; 200  : 				else

  00508	eb 19		 jmp	 SHORT $LN24@Render
$LN23@Render:

; 201  : 					m_pShader->Begin(2);

  0050a	ba 02 00 00 00	 mov	 edx, 2
  0050f	48 8b 85 c0 02
	00 00		 mov	 rax, QWORD PTR this$[rbp]
  00516	48 8b 88 c0 00
	00 00		 mov	 rcx, QWORD PTR [rax+192]
  0051d	ff 15 00 00 00
	00		 call	 QWORD PTR __imp_?Begin@CShader@Engine@@QEAAJI@Z
$LN24@Render:
$LN20@Render:

; 202  : 			}
; 203  : 
; 204  : 			m_pModel->Render(i);

  00523	8b 55 44	 mov	 edx, DWORD PTR i$2[rbp]
  00526	48 8b 85 c0 02
	00 00		 mov	 rax, QWORD PTR this$[rbp]
  0052d	48 8b 88 b8 00
	00 00		 mov	 rcx, QWORD PTR [rax+184]
  00534	ff 15 00 00 00
	00		 call	 QWORD PTR __imp_?Render@CModel@Engine@@QEAAJI@Z

; 205  : 		}

  0053a	e9 f9 fe ff ff	 jmp	 $LN2@Render
$LN3@Render:
$LN16@Render:

; 206  : 	}
; 207  : 
; 208  : 	return S_OK;

  0053f	33 c0		 xor	 eax, eax
$LN1@Render:

; 209  : }

  00541	48 8d a5 a8 02
	00 00		 lea	 rsp, QWORD PTR [rbp+680]
  00548	5f		 pop	 rdi
  00549	5d		 pop	 rbp
  0054a	c3		 ret	 0
?Render@CThorn@Client@@UEAAJXZ ENDP			; Client::CThorn::Render
_TEXT	ENDS
; Function compile flags: /Odtp /RTCsu /ZI
; File c:\users\arcco\documents\github\framework\client\private\thorn.cpp
;	COMDAT ?LateTick@CThorn@Client@@UEAAXN@Z
_TEXT	SEGMENT
pGameInstance$ = 8
fLength$ = 36
$T1 = 272
$T2 = 356
$T3 = 464
$T4 = 560
this$ = 672
TimeDelta$ = 680
?LateTick@CThorn@Client@@UEAAXN@Z PROC			; Client::CThorn::LateTick, COMDAT

; 89   : {

$LN11:
  00000	f2 0f 11 4c 24
	10		 movsd	 QWORD PTR [rsp+16], xmm1
  00006	48 89 4c 24 08	 mov	 QWORD PTR [rsp+8], rcx
  0000b	55		 push	 rbp
  0000c	56		 push	 rsi
  0000d	57		 push	 rdi
  0000e	48 81 ec a0 02
	00 00		 sub	 rsp, 672		; 000002a0H
  00015	48 8d 6c 24 20	 lea	 rbp, QWORD PTR [rsp+32]
  0001a	48 8b fc	 mov	 rdi, rsp
  0001d	b9 a8 00 00 00	 mov	 ecx, 168		; 000000a8H
  00022	b8 cc cc cc cc	 mov	 eax, -858993460		; ccccccccH
  00027	f3 ab		 rep stosd
  00029	48 8b 8c 24 c8
	02 00 00	 mov	 rcx, QWORD PTR [rsp+712]

; 90   : 	CGameInstance* pGameInstance = CGameInstance::GetInstance();

  00031	ff 15 00 00 00
	00		 call	 QWORD PTR __imp_?GetInstance@CGameInstance@Engine@@SAPEAV12@XZ
  00037	48 89 45 08	 mov	 QWORD PTR pGameInstance$[rbp], rax

; 91   : 
; 92   : 	if (IsScaleFinish() && m_eThornType == MISSILE)

  0003b	48 8b 8d a0 02
	00 00		 mov	 rcx, QWORD PTR this$[rbp]
  00042	e8 00 00 00 00	 call	 ?IsScaleFinish@CThorn@Client@@QEAA_NXZ ; Client::CThorn::IsScaleFinish
  00047	0f b6 c0	 movzx	 eax, al
  0004a	85 c0		 test	 eax, eax
  0004c	74 2b		 je	 SHORT $LN2@LateTick
  0004e	48 8b 85 a0 02
	00 00		 mov	 rax, QWORD PTR this$[rbp]
  00055	83 b8 a0 00 00
	00 01		 cmp	 DWORD PTR [rax+160], 1
  0005c	75 1b		 jne	 SHORT $LN2@LateTick

; 93   : 		pGameInstance->AddCollider(m_pCollider);

  0005e	45 33 c0	 xor	 r8d, r8d
  00061	48 8b 85 a0 02
	00 00		 mov	 rax, QWORD PTR this$[rbp]
  00068	48 8b 90 98 00
	00 00		 mov	 rdx, QWORD PTR [rax+152]
  0006f	48 8b 4d 08	 mov	 rcx, QWORD PTR pGameInstance$[rbp]
  00073	ff 15 00 00 00
	00		 call	 QWORD PTR __imp_?AddCollider@CGameInstance@Engine@@QEAAJPEAVCCollider@2@I@Z
$LN2@LateTick:

; 94   : 	if (IsScaleFinish() && m_eThornType == MISSILE)

  00079	48 8b 8d a0 02
	00 00		 mov	 rcx, QWORD PTR this$[rbp]
  00080	e8 00 00 00 00	 call	 ?IsScaleFinish@CThorn@Client@@QEAA_NXZ ; Client::CThorn::IsScaleFinish
  00085	0f b6 c0	 movzx	 eax, al
  00088	85 c0		 test	 eax, eax
  0008a	0f 84 a4 00 00
	00		 je	 $LN3@LateTick
  00090	48 8b 85 a0 02
	00 00		 mov	 rax, QWORD PTR this$[rbp]
  00097	83 b8 a0 00 00
	00 01		 cmp	 DWORD PTR [rax+160], 1
  0009e	0f 85 90 00 00
	00		 jne	 $LN3@LateTick

; 95   : 		m_pCollider->Update(XMLoadFloat4x4(&m_pTransform->Get_WorldMatrix()));

  000a4	48 8d 95 64 01
	00 00		 lea	 rdx, QWORD PTR $T2[rbp]
  000ab	48 8b 85 a0 02
	00 00		 mov	 rax, QWORD PTR this$[rbp]
  000b2	48 8b 88 b0 00
	00 00		 mov	 rcx, QWORD PTR [rax+176]
  000b9	ff 15 00 00 00
	00		 call	 QWORD PTR __imp_?Get_WorldMatrix@CTransform@Engine@@QEAA?AUXMFLOAT4X4@DirectX@@XZ
  000bf	48 8b c8	 mov	 rcx, rax
  000c2	e8 00 00 00 00	 call	 ?XMLoadFloat4x4@DirectX@@YQ?AUXMMATRIX@1@PEBUXMFLOAT4X4@1@@Z ; DirectX::XMLoadFloat4x4
  000c7	0f 29 9d 60 02
	00 00		 movaps	 XMMWORD PTR $T4[rbp+48], xmm3
  000ce	0f 29 95 50 02
	00 00		 movaps	 XMMWORD PTR $T4[rbp+32], xmm2
  000d5	0f 29 8d 40 02
	00 00		 movaps	 XMMWORD PTR $T4[rbp+16], xmm1
  000dc	0f 29 85 30 02
	00 00		 movaps	 XMMWORD PTR $T4[rbp], xmm0
  000e3	48 8d 85 10 01
	00 00		 lea	 rax, QWORD PTR $T1[rbp]
  000ea	48 8d 8d 30 02
	00 00		 lea	 rcx, QWORD PTR $T4[rbp]
  000f1	48 8b f8	 mov	 rdi, rax
  000f4	48 8b f1	 mov	 rsi, rcx
  000f7	b9 40 00 00 00	 mov	 ecx, 64			; 00000040H
  000fc	f3 a4		 rep movsb
  000fe	48 8d 85 d0 01
	00 00		 lea	 rax, QWORD PTR $T3[rbp]
  00105	48 8d 8d 10 01
	00 00		 lea	 rcx, QWORD PTR $T1[rbp]
  0010c	48 8b f8	 mov	 rdi, rax
  0010f	48 8b f1	 mov	 rsi, rcx
  00112	b9 40 00 00 00	 mov	 ecx, 64			; 00000040H
  00117	f3 a4		 rep movsb
  00119	48 8d 95 d0 01
	00 00		 lea	 rdx, QWORD PTR $T3[rbp]
  00120	48 8b 85 a0 02
	00 00		 mov	 rax, QWORD PTR this$[rbp]
  00127	48 8b 88 98 00
	00 00		 mov	 rcx, QWORD PTR [rax+152]
  0012e	ff 15 00 00 00
	00		 call	 QWORD PTR __imp_?Update@CSphereCollider@Engine@@UEAAXUXMMATRIX@DirectX@@@Z
$LN3@LateTick:

; 96   : 
; 97   : 	__super::LateTick(m_FixedTimeDelta);

  00134	48 8b 85 a0 02
	00 00		 mov	 rax, QWORD PTR this$[rbp]
  0013b	f2 0f 10 88 38
	01 00 00	 movsd	 xmm1, QWORD PTR [rax+312]
  00143	48 8b 8d a0 02
	00 00		 mov	 rcx, QWORD PTR this$[rbp]
  0014a	ff 15 00 00 00
	00		 call	 QWORD PTR __imp_?LateTick@CGameObject@Engine@@UEAAXN@Z

; 98   : 
; 99   : 	_float fLength = GetLengthFromCamera();

  00150	48 8b 8d a0 02
	00 00		 mov	 rcx, QWORD PTR this$[rbp]
  00157	e8 00 00 00 00	 call	 ?GetLengthFromCamera@CThorn@Client@@UEAAMXZ ; Client::CThorn::GetLengthFromCamera
  0015c	f3 0f 11 45 24	 movss	 DWORD PTR fLength$[rbp], xmm0

; 100  : 
; 101  : 	if (m_eThornType == THORN)

  00161	48 8b 85 a0 02
	00 00		 mov	 rax, QWORD PTR this$[rbp]
  00168	83 b8 a0 00 00
	00 00		 cmp	 DWORD PTR [rax+160], 0
  0016f	75 69		 jne	 SHORT $LN4@LateTick

; 102  : 	{
; 103  : 		//if (fLength < 5.f)
; 104  : 		//	m_bAlpha = true;
; 105  : 		//else
; 106  : 		//	m_bAlpha = false;
; 107  : 
; 108  : 		if (nullptr != m_pRenderer && m_bRender || m_bGardRender || m_bFloorRender)

  00171	48 8b 85 a0 02
	00 00		 mov	 rax, QWORD PTR this$[rbp]
  00178	48 83 b8 a8 00
	00 00 00	 cmp	 QWORD PTR [rax+168], 0
  00180	74 12		 je	 SHORT $LN8@LateTick
  00182	48 8b 85 a0 02
	00 00		 mov	 rax, QWORD PTR this$[rbp]
  00189	0f b6 80 c9 00
	00 00		 movzx	 eax, BYTE PTR [rax+201]
  00190	85 c0		 test	 eax, eax
  00192	75 24		 jne	 SHORT $LN7@LateTick
$LN8@LateTick:
  00194	48 8b 85 a0 02
	00 00		 mov	 rax, QWORD PTR this$[rbp]
  0019b	0f b6 80 44 01
	00 00		 movzx	 eax, BYTE PTR [rax+324]
  001a2	85 c0		 test	 eax, eax
  001a4	75 12		 jne	 SHORT $LN7@LateTick
  001a6	48 8b 85 a0 02
	00 00		 mov	 rax, QWORD PTR this$[rbp]
  001ad	0f b6 80 45 01
	00 00		 movzx	 eax, BYTE PTR [rax+325]
  001b4	85 c0		 test	 eax, eax
  001b6	74 20		 je	 SHORT $LN6@LateTick
$LN7@LateTick:

; 109  : 			m_pRenderer->Add_RenderGroup(CRenderer::RENDER_NONALPHA, this);

  001b8	4c 8b 85 a0 02
	00 00		 mov	 r8, QWORD PTR this$[rbp]
  001bf	ba 01 00 00 00	 mov	 edx, 1
  001c4	48 8b 85 a0 02
	00 00		 mov	 rax, QWORD PTR this$[rbp]
  001cb	48 8b 88 a8 00
	00 00		 mov	 rcx, QWORD PTR [rax+168]
  001d2	ff 15 00 00 00
	00		 call	 QWORD PTR __imp_?Add_RenderGroup@CRenderer@Engine@@QEAAJW4RENDER_GROUP@12@PEAVCGameObject@2@@Z
$LN6@LateTick:

; 110  : 	}
; 111  : 	else

  001d8	eb 51		 jmp	 SHORT $LN5@LateTick
$LN4@LateTick:

; 112  : 	{
; 113  : 		m_bAlpha = false;

  001da	48 8b 85 a0 02
	00 00		 mov	 rax, QWORD PTR this$[rbp]
  001e1	c6 80 c8 00 00
	00 00		 mov	 BYTE PTR [rax+200], 0

; 114  : 		if (nullptr != m_pRenderer && m_bRender)

  001e8	48 8b 85 a0 02
	00 00		 mov	 rax, QWORD PTR this$[rbp]
  001ef	48 83 b8 a8 00
	00 00 00	 cmp	 QWORD PTR [rax+168], 0
  001f7	74 32		 je	 SHORT $LN9@LateTick
  001f9	48 8b 85 a0 02
	00 00		 mov	 rax, QWORD PTR this$[rbp]
  00200	0f b6 80 c9 00
	00 00		 movzx	 eax, BYTE PTR [rax+201]
  00207	85 c0		 test	 eax, eax
  00209	74 20		 je	 SHORT $LN9@LateTick

; 115  : 			m_pRenderer->Add_RenderGroup(CRenderer::RENDER_ALPHABLEND, this);

  0020b	4c 8b 85 a0 02
	00 00		 mov	 r8, QWORD PTR this$[rbp]
  00212	ba 03 00 00 00	 mov	 edx, 3
  00217	48 8b 85 a0 02
	00 00		 mov	 rax, QWORD PTR this$[rbp]
  0021e	48 8b 88 a8 00
	00 00		 mov	 rcx, QWORD PTR [rax+168]
  00225	ff 15 00 00 00
	00		 call	 QWORD PTR __imp_?Add_RenderGroup@CRenderer@Engine@@QEAAJW4RENDER_GROUP@12@PEAVCGameObject@2@@Z
$LN9@LateTick:
$LN5@LateTick:

; 116  : 	}
; 117  : }

  0022b	48 8d a5 80 02
	00 00		 lea	 rsp, QWORD PTR [rbp+640]
  00232	5f		 pop	 rdi
  00233	5e		 pop	 rsi
  00234	5d		 pop	 rbp
  00235	c3		 ret	 0
?LateTick@CThorn@Client@@UEAAXN@Z ENDP			; Client::CThorn::LateTick
_TEXT	ENDS
; Function compile flags: /Odtp /RTCsu /ZI
; File c:\users\arcco\documents\github\framework\client\private\thorn.cpp
;	COMDAT ?Tick@CThorn@Client@@UEAAXN@Z
_TEXT	SEGMENT
pGameInstance$ = 8
$T1 = 240
$T2 = 288
this$ = 352
TimeDelta$ = 360
?Tick@CThorn@Client@@UEAAXN@Z PROC			; Client::CThorn::Tick, COMDAT

; 44   : {

$LN12:
  00000	f2 0f 11 4c 24
	10		 movsd	 QWORD PTR [rsp+16], xmm1
  00006	48 89 4c 24 08	 mov	 QWORD PTR [rsp+8], rcx
  0000b	55		 push	 rbp
  0000c	57		 push	 rdi
  0000d	48 81 ec 68 01
	00 00		 sub	 rsp, 360		; 00000168H
  00014	48 8d 6c 24 20	 lea	 rbp, QWORD PTR [rsp+32]
  00019	48 8b fc	 mov	 rdi, rsp
  0001c	b9 5a 00 00 00	 mov	 ecx, 90			; 0000005aH
  00021	b8 cc cc cc cc	 mov	 eax, -858993460		; ccccccccH
  00026	f3 ab		 rep stosd
  00028	48 8b 8c 24 88
	01 00 00	 mov	 rcx, QWORD PTR [rsp+392]

; 45   : 	CGameInstance* pGameInstance = CGameInstance::GetInstance();

  00030	ff 15 00 00 00
	00		 call	 QWORD PTR __imp_?GetInstance@CGameInstance@Engine@@SAPEAV12@XZ
  00036	48 89 45 08	 mov	 QWORD PTR pGameInstance$[rbp], rax

; 46   : 
; 47   : 	__super::Tick(m_FixedTimeDelta);

  0003a	48 8b 85 60 01
	00 00		 mov	 rax, QWORD PTR this$[rbp]
  00041	f2 0f 10 88 38
	01 00 00	 movsd	 xmm1, QWORD PTR [rax+312]
  00049	48 8b 8d 60 01
	00 00		 mov	 rcx, QWORD PTR this$[rbp]
  00050	ff 15 00 00 00
	00		 call	 QWORD PTR __imp_?Tick@CGameObject@Engine@@UEAAXN@Z

; 48   : 
; 49   : 	if (m_bGardRender)

  00056	48 8b 85 60 01
	00 00		 mov	 rax, QWORD PTR this$[rbp]
  0005d	0f b6 80 44 01
	00 00		 movzx	 eax, BYTE PTR [rax+324]
  00064	85 c0		 test	 eax, eax
  00066	74 78		 je	 SHORT $LN2@Tick

; 50   : 	{
; 51   : 		m_fTimeAcc += m_FixedTimeDelta * 2.f;

  00068	48 8b 85 60 01
	00 00		 mov	 rax, QWORD PTR this$[rbp]
  0006f	f2 0f 10 80 38
	01 00 00	 movsd	 xmm0, QWORD PTR [rax+312]
  00077	f2 0f 59 05 00
	00 00 00	 mulsd	 xmm0, QWORD PTR __real@4000000000000000
  0007f	48 8b 85 60 01
	00 00		 mov	 rax, QWORD PTR this$[rbp]
  00086	f3 0f 5a 88 40
	01 00 00	 cvtss2sd xmm1, DWORD PTR [rax+320]
  0008e	f2 0f 58 c8	 addsd	 xmm1, xmm0
  00092	0f 28 c1	 movaps	 xmm0, xmm1
  00095	f2 0f 5a c0	 cvtsd2ss xmm0, xmm0
  00099	48 8b 85 60 01
	00 00		 mov	 rax, QWORD PTR this$[rbp]
  000a0	f3 0f 11 80 40
	01 00 00	 movss	 DWORD PTR [rax+320], xmm0

; 52   : 		if (m_fTimeAcc >= 2.f)

  000a8	48 8b 85 60 01
	00 00		 mov	 rax, QWORD PTR this$[rbp]
  000af	f3 0f 10 80 40
	01 00 00	 movss	 xmm0, DWORD PTR [rax+320]
  000b7	0f 2f 05 00 00
	00 00		 comiss	 xmm0, DWORD PTR __real@40000000
  000be	72 20		 jb	 SHORT $LN3@Tick

; 53   : 		{
; 54   : 			m_fTimeAcc = 0.f;

  000c0	48 8b 85 60 01
	00 00		 mov	 rax, QWORD PTR this$[rbp]
  000c7	0f 57 c0	 xorps	 xmm0, xmm0
  000ca	f3 0f 11 80 40
	01 00 00	 movss	 DWORD PTR [rax+320], xmm0

; 55   : 			m_bGardRender = false;

  000d2	48 8b 85 60 01
	00 00		 mov	 rax, QWORD PTR this$[rbp]
  000d9	c6 80 44 01 00
	00 00		 mov	 BYTE PTR [rax+324], 0
$LN3@Tick:
$LN2@Tick:

; 56   : 		}
; 57   : 	}
; 58   : 
; 59   : 	if (m_bFloorRender)

  000e0	48 8b 85 60 01
	00 00		 mov	 rax, QWORD PTR this$[rbp]
  000e7	0f b6 80 45 01
	00 00		 movzx	 eax, BYTE PTR [rax+325]
  000ee	85 c0		 test	 eax, eax
  000f0	74 69		 je	 SHORT $LN4@Tick

; 60   : 	{
; 61   : 		m_fFloorAlphaAcc += m_FixedTimeDelta;

  000f2	48 8b 85 60 01
	00 00		 mov	 rax, QWORD PTR this$[rbp]
  000f9	f3 0f 5a 80 48
	01 00 00	 cvtss2sd xmm0, DWORD PTR [rax+328]
  00101	48 8b 85 60 01
	00 00		 mov	 rax, QWORD PTR this$[rbp]
  00108	f2 0f 58 80 38
	01 00 00	 addsd	 xmm0, QWORD PTR [rax+312]
  00110	f2 0f 5a c0	 cvtsd2ss xmm0, xmm0
  00114	48 8b 85 60 01
	00 00		 mov	 rax, QWORD PTR this$[rbp]
  0011b	f3 0f 11 80 48
	01 00 00	 movss	 DWORD PTR [rax+328], xmm0

; 62   : 		if (m_fFloorAlphaAcc >= 4.f)

  00123	48 8b 85 60 01
	00 00		 mov	 rax, QWORD PTR this$[rbp]
  0012a	f3 0f 10 80 48
	01 00 00	 movss	 xmm0, DWORD PTR [rax+328]
  00132	0f 2f 05 00 00
	00 00		 comiss	 xmm0, DWORD PTR __real@40800000
  00139	72 20		 jb	 SHORT $LN5@Tick

; 63   : 		{
; 64   : 			m_fFloorAlphaAcc = 0.f;

  0013b	48 8b 85 60 01
	00 00		 mov	 rax, QWORD PTR this$[rbp]
  00142	0f 57 c0	 xorps	 xmm0, xmm0
  00145	f3 0f 11 80 48
	01 00 00	 movss	 DWORD PTR [rax+328], xmm0

; 65   : 			m_bFloorRender = false;

  0014d	48 8b 85 60 01
	00 00		 mov	 rax, QWORD PTR this$[rbp]
  00154	c6 80 45 01 00
	00 00		 mov	 BYTE PTR [rax+325], 0
$LN5@Tick:
$LN4@Tick:

; 66   : 		}
; 67   : 	}
; 68   : 
; 69   : 	m_pFloorEffectTransform->Rotate(VECTOR_UP, m_FixedTimeDelta);

  0015b	0f 57 db	 xorps	 xmm3, xmm3
  0015e	0f 57 d2	 xorps	 xmm2, xmm2
  00161	f3 0f 10 0d 00
	00 00 00	 movss	 xmm1, DWORD PTR __real@3f800000
  00169	0f 57 c0	 xorps	 xmm0, xmm0
  0016c	e8 00 00 00 00	 call	 ?XMVectorSet@DirectX@@YQ?AT__m128@@MMMM@Z ; DirectX::XMVectorSet
  00171	0f 29 85 f0 00
	00 00		 movaps	 XMMWORD PTR $T1[rbp], xmm0
  00178	0f 28 85 f0 00
	00 00		 movaps	 xmm0, XMMWORD PTR $T1[rbp]
  0017f	0f 29 85 20 01
	00 00		 movaps	 XMMWORD PTR $T2[rbp], xmm0
  00186	48 8b 85 60 01
	00 00		 mov	 rax, QWORD PTR this$[rbp]
  0018d	f2 0f 10 90 38
	01 00 00	 movsd	 xmm2, QWORD PTR [rax+312]
  00195	48 8d 95 20 01
	00 00		 lea	 rdx, QWORD PTR $T2[rbp]
  0019c	48 8b 85 60 01
	00 00		 mov	 rax, QWORD PTR this$[rbp]
  001a3	48 8b 88 f8 00
	00 00		 mov	 rcx, QWORD PTR [rax+248]
  001aa	ff 15 00 00 00
	00		 call	 QWORD PTR __imp_?Rotate@CTransform@Engine@@QEAAXT__m128@@N@Z

; 70   : 
; 71   : 	if (m_bScaleUp)

  001b0	48 8b 85 60 01
	00 00		 mov	 rax, QWORD PTR this$[rbp]
  001b7	0f b6 80 cc 00
	00 00		 movzx	 eax, BYTE PTR [rax+204]
  001be	85 c0		 test	 eax, eax
  001c0	74 1b		 je	 SHORT $LN6@Tick

; 72   : 		ScaleUpProcess(m_FixedTimeDelta);

  001c2	48 8b 85 60 01
	00 00		 mov	 rax, QWORD PTR this$[rbp]
  001c9	f2 0f 10 88 38
	01 00 00	 movsd	 xmm1, QWORD PTR [rax+312]
  001d1	48 8b 8d 60 01
	00 00		 mov	 rcx, QWORD PTR this$[rbp]
  001d8	e8 00 00 00 00	 call	 ?ScaleUpProcess@CThorn@Client@@QEAA_NN@Z ; Client::CThorn::ScaleUpProcess
$LN6@Tick:

; 73   : 
; 74   : 	if (m_bScaleUpDown)

  001dd	48 8b 85 60 01
	00 00		 mov	 rax, QWORD PTR this$[rbp]
  001e4	0f b6 80 cb 00
	00 00		 movzx	 eax, BYTE PTR [rax+203]
  001eb	85 c0		 test	 eax, eax
  001ed	74 1b		 je	 SHORT $LN7@Tick

; 75   : 		ScaleUpProcess(m_FixedTimeDelta);

  001ef	48 8b 85 60 01
	00 00		 mov	 rax, QWORD PTR this$[rbp]
  001f6	f2 0f 10 88 38
	01 00 00	 movsd	 xmm1, QWORD PTR [rax+312]
  001fe	48 8b 8d 60 01
	00 00		 mov	 rcx, QWORD PTR this$[rbp]
  00205	e8 00 00 00 00	 call	 ?ScaleUpProcess@CThorn@Client@@QEAA_NN@Z ; Client::CThorn::ScaleUpProcess
$LN7@Tick:

; 76   : 
; 77   : 	if (m_bScaleSmoothUp)

  0020a	48 8b 85 60 01
	00 00		 mov	 rax, QWORD PTR this$[rbp]
  00211	0f b6 80 cd 00
	00 00		 movzx	 eax, BYTE PTR [rax+205]
  00218	85 c0		 test	 eax, eax
  0021a	74 1b		 je	 SHORT $LN8@Tick

; 78   : 		ScaleUpSmoothProcess(m_FixedTimeDelta);

  0021c	48 8b 85 60 01
	00 00		 mov	 rax, QWORD PTR this$[rbp]
  00223	f2 0f 10 88 38
	01 00 00	 movsd	 xmm1, QWORD PTR [rax+312]
  0022b	48 8b 8d 60 01
	00 00		 mov	 rcx, QWORD PTR this$[rbp]
  00232	e8 00 00 00 00	 call	 ?ScaleUpSmoothProcess@CThorn@Client@@QEAA_NN@Z ; Client::CThorn::ScaleUpSmoothProcess
$LN8@Tick:

; 79   : 	
; 80   : 	if (m_bScaleSmoothDown)

  00237	48 8b 85 60 01
	00 00		 mov	 rax, QWORD PTR this$[rbp]
  0023e	0f b6 80 cf 00
	00 00		 movzx	 eax, BYTE PTR [rax+207]
  00245	85 c0		 test	 eax, eax
  00247	74 1b		 je	 SHORT $LN9@Tick

; 81   : 		ScaleDownSmoothProcess(m_FixedTimeDelta);

  00249	48 8b 85 60 01
	00 00		 mov	 rax, QWORD PTR this$[rbp]
  00250	f2 0f 10 88 38
	01 00 00	 movsd	 xmm1, QWORD PTR [rax+312]
  00258	48 8b 8d 60 01
	00 00		 mov	 rcx, QWORD PTR this$[rbp]
  0025f	e8 00 00 00 00	 call	 ?ScaleDownSmoothProcess@CThorn@Client@@QEAA_NN@Z ; Client::CThorn::ScaleDownSmoothProcess
$LN9@Tick:

; 82   : 
; 83   : 	if (m_bMove)

  00264	48 8b 85 60 01
	00 00		 mov	 rax, QWORD PTR this$[rbp]
  0026b	0f b6 80 ec 00
	00 00		 movzx	 eax, BYTE PTR [rax+236]
  00272	85 c0		 test	 eax, eax
  00274	74 1b		 je	 SHORT $LN10@Tick

; 84   : 		MoveProcess(m_FixedTimeDelta);

  00276	48 8b 85 60 01
	00 00		 mov	 rax, QWORD PTR this$[rbp]
  0027d	f2 0f 10 88 38
	01 00 00	 movsd	 xmm1, QWORD PTR [rax+312]
  00285	48 8b 8d 60 01
	00 00		 mov	 rcx, QWORD PTR this$[rbp]
  0028c	e8 00 00 00 00	 call	 ?MoveProcess@CThorn@Client@@QEAA_NN@Z ; Client::CThorn::MoveProcess
$LN10@Tick:

; 85   : 
; 86   : }

  00291	48 8d a5 48 01
	00 00		 lea	 rsp, QWORD PTR [rbp+328]
  00298	5f		 pop	 rdi
  00299	5d		 pop	 rbp
  0029a	c3		 ret	 0
?Tick@CThorn@Client@@UEAAXN@Z ENDP			; Client::CThorn::Tick
_TEXT	ENDS
; Function compile flags: /Odtp /RTCsu /ZI
; File c:\users\arcco\documents\github\framework\client\private\thorn.cpp
;	COMDAT ?Initialize@CThorn@Client@@UEAAJPEAX@Z
_TEXT	SEGMENT
$T1 = 208
$T2 = 244
$T3 = 288
$T4 = 324
$T5 = 368
$T6 = 416
$T7 = 464
$T8 = 512
$T9 = 560
this$ = 624
pArg$ = 632
?Initialize@CThorn@Client@@UEAAJPEAX@Z PROC		; Client::CThorn::Initialize, COMDAT

; 24   : {

$LN5:
  00000	48 89 54 24 10	 mov	 QWORD PTR [rsp+16], rdx
  00005	48 89 4c 24 08	 mov	 QWORD PTR [rsp+8], rcx
  0000a	55		 push	 rbp
  0000b	56		 push	 rsi
  0000c	57		 push	 rdi
  0000d	48 81 ec 70 02
	00 00		 sub	 rsp, 624		; 00000270H
  00014	48 8d 6c 24 20	 lea	 rbp, QWORD PTR [rsp+32]
  00019	48 8b fc	 mov	 rdi, rsp
  0001c	b9 9c 00 00 00	 mov	 ecx, 156		; 0000009cH
  00021	b8 cc cc cc cc	 mov	 eax, -858993460		; ccccccccH
  00026	f3 ab		 rep stosd
  00028	48 8b 8c 24 98
	02 00 00	 mov	 rcx, QWORD PTR [rsp+664]

; 25   : 	ObjectID = 2;

  00030	48 8b 85 70 02
	00 00		 mov	 rax, QWORD PTR this$[rbp]
  00037	c7 40 70 02 00
	00 00		 mov	 DWORD PTR [rax+112], 2

; 26   : 
; 27   : 	if (FAILED(__super::Initialize(pArg)))

  0003e	48 8b 95 78 02
	00 00		 mov	 rdx, QWORD PTR pArg$[rbp]
  00045	48 8b 8d 70 02
	00 00		 mov	 rcx, QWORD PTR this$[rbp]
  0004c	ff 15 00 00 00
	00		 call	 QWORD PTR __imp_?Initialize@CGameObject@Engine@@UEAAJPEAX@Z
  00052	85 c0		 test	 eax, eax
  00054	7d 0a		 jge	 SHORT $LN2@Initialize

; 28   : 		return E_FAIL;

  00056	b8 05 40 00 80	 mov	 eax, -2147467259	; ffffffff80004005H
  0005b	e9 9d 01 00 00	 jmp	 $LN1@Initialize
$LN2@Initialize:

; 29   : 
; 30   : 	if (FAILED(AddComponents()))

  00060	48 8b 8d 70 02
	00 00		 mov	 rcx, QWORD PTR this$[rbp]
  00067	e8 00 00 00 00	 call	 ?AddComponents@CThorn@Client@@AEAAJXZ ; Client::CThorn::AddComponents
  0006c	85 c0		 test	 eax, eax
  0006e	7d 0a		 jge	 SHORT $LN3@Initialize

; 31   : 		return E_FAIL;

  00070	b8 05 40 00 80	 mov	 eax, -2147467259	; ffffffff80004005H
  00075	e9 83 01 00 00	 jmp	 $LN1@Initialize
$LN3@Initialize:

; 32   : 
; 33   : 	m_pFloorEffectTransform->SetRotation(VECTOR_RIGHT, XMConvertToRadians(90.f));

  0007a	0f 57 db	 xorps	 xmm3, xmm3
  0007d	0f 57 d2	 xorps	 xmm2, xmm2
  00080	0f 57 c9	 xorps	 xmm1, xmm1
  00083	f3 0f 10 05 00
	00 00 00	 movss	 xmm0, DWORD PTR __real@3f800000
  0008b	e8 00 00 00 00	 call	 ?XMVectorSet@DirectX@@YQ?AT__m128@@MMMM@Z ; DirectX::XMVectorSet
  00090	0f 29 85 d0 00
	00 00		 movaps	 XMMWORD PTR $T1[rbp], xmm0
  00097	f3 0f 10 05 00
	00 00 00	 movss	 xmm0, DWORD PTR __real@42b40000
  0009f	e8 00 00 00 00	 call	 ?XMConvertToRadians@DirectX@@YAMM@Z ; DirectX::XMConvertToRadians
  000a4	0f 28 8d d0 00
	00 00		 movaps	 xmm1, XMMWORD PTR $T1[rbp]
  000ab	0f 29 8d 70 01
	00 00		 movaps	 XMMWORD PTR $T5[rbp], xmm1
  000b2	0f 28 d0	 movaps	 xmm2, xmm0
  000b5	48 8d 95 70 01
	00 00		 lea	 rdx, QWORD PTR $T5[rbp]
  000bc	48 8b 85 70 02
	00 00		 mov	 rax, QWORD PTR this$[rbp]
  000c3	48 8b 88 f8 00
	00 00		 mov	 rcx, QWORD PTR [rax+248]
  000ca	ff 15 00 00 00
	00		 call	 QWORD PTR __imp_?SetRotation@CTransform@Engine@@QEAAXT__m128@@M@Z

; 34   : 	m_pFloorEffectTransform->Set_Scale(_float3(3.5f, 1.f, 3.5f));

  000d0	f3 0f 10 1d 00
	00 00 00	 movss	 xmm3, DWORD PTR __real@40600000
  000d8	f3 0f 10 15 00
	00 00 00	 movss	 xmm2, DWORD PTR __real@3f800000
  000e0	f3 0f 10 0d 00
	00 00 00	 movss	 xmm1, DWORD PTR __real@40600000
  000e8	48 8d 8d f4 00
	00 00		 lea	 rcx, QWORD PTR $T2[rbp]
  000ef	e8 00 00 00 00	 call	 ??0XMFLOAT3@DirectX@@QEAA@MMM@Z ; DirectX::XMFLOAT3::XMFLOAT3
  000f4	48 8d 8d a0 01
	00 00		 lea	 rcx, QWORD PTR $T6[rbp]
  000fb	48 8b f9	 mov	 rdi, rcx
  000fe	48 8b f0	 mov	 rsi, rax
  00101	b9 0c 00 00 00	 mov	 ecx, 12
  00106	f3 a4		 rep movsb
  00108	48 8d 95 a0 01
	00 00		 lea	 rdx, QWORD PTR $T6[rbp]
  0010f	48 8b 85 70 02
	00 00		 mov	 rax, QWORD PTR this$[rbp]
  00116	48 8b 88 f8 00
	00 00		 mov	 rcx, QWORD PTR [rax+248]
  0011d	ff 15 00 00 00
	00		 call	 QWORD PTR __imp_?Set_Scale@CTransform@Engine@@QEAAXUXMFLOAT3@DirectX@@@Z

; 35   : 	m_pTransform->Set_State(CTransform::STATE_POSITION, XMVectorSet(0.f, 0.f, 0.f, 1.f));

  00123	f3 0f 10 1d 00
	00 00 00	 movss	 xmm3, DWORD PTR __real@3f800000
  0012b	0f 57 d2	 xorps	 xmm2, xmm2
  0012e	0f 57 c9	 xorps	 xmm1, xmm1
  00131	0f 57 c0	 xorps	 xmm0, xmm0
  00134	e8 00 00 00 00	 call	 ?XMVectorSet@DirectX@@YQ?AT__m128@@MMMM@Z ; DirectX::XMVectorSet
  00139	0f 29 85 20 01
	00 00		 movaps	 XMMWORD PTR $T3[rbp], xmm0
  00140	0f 28 85 20 01
	00 00		 movaps	 xmm0, XMMWORD PTR $T3[rbp]
  00147	0f 29 85 d0 01
	00 00		 movaps	 XMMWORD PTR $T7[rbp], xmm0
  0014e	4c 8d 85 d0 01
	00 00		 lea	 r8, QWORD PTR $T7[rbp]
  00155	ba 03 00 00 00	 mov	 edx, 3
  0015a	48 8b 85 70 02
	00 00		 mov	 rax, QWORD PTR this$[rbp]
  00161	48 8b 88 b0 00
	00 00		 mov	 rcx, QWORD PTR [rax+176]
  00168	ff 15 00 00 00
	00		 call	 QWORD PTR __imp_?Set_State@CTransform@Engine@@QEAAXW4STATE@12@T__m128@@@Z

; 36   : 
; 37   : 	m_pFloorGardTransform->Set_Scale(_float3(0.7f, 0.3f, 0.7f));

  0016e	f3 0f 10 1d 00
	00 00 00	 movss	 xmm3, DWORD PTR __real@3f333333
  00176	f3 0f 10 15 00
	00 00 00	 movss	 xmm2, DWORD PTR __real@3e99999a
  0017e	f3 0f 10 0d 00
	00 00 00	 movss	 xmm1, DWORD PTR __real@3f333333
  00186	48 8d 8d 44 01
	00 00		 lea	 rcx, QWORD PTR $T4[rbp]
  0018d	e8 00 00 00 00	 call	 ??0XMFLOAT3@DirectX@@QEAA@MMM@Z ; DirectX::XMFLOAT3::XMFLOAT3
  00192	48 8d 8d 00 02
	00 00		 lea	 rcx, QWORD PTR $T8[rbp]
  00199	48 8b f9	 mov	 rdi, rcx
  0019c	48 8b f0	 mov	 rsi, rax
  0019f	b9 0c 00 00 00	 mov	 ecx, 12
  001a4	f3 a4		 rep movsb
  001a6	48 8d 95 00 02
	00 00		 lea	 rdx, QWORD PTR $T8[rbp]
  001ad	48 8b 85 70 02
	00 00		 mov	 rax, QWORD PTR this$[rbp]
  001b4	48 8b 88 28 01
	00 00		 mov	 rcx, QWORD PTR [rax+296]
  001bb	ff 15 00 00 00
	00		 call	 QWORD PTR __imp_?Set_Scale@CTransform@Engine@@QEAAXUXMFLOAT3@DirectX@@@Z

; 38   : 	m_pTrailTransform->Set_Scale(vTrailScale);

  001c1	48 8d 85 30 02
	00 00		 lea	 rax, QWORD PTR $T9[rbp]
  001c8	48 8b 8d 70 02
	00 00		 mov	 rcx, QWORD PTR this$[rbp]
  001cf	48 8b f8	 mov	 rdi, rax
  001d2	48 8d b1 70 01
	00 00		 lea	 rsi, QWORD PTR [rcx+368]
  001d9	b9 0c 00 00 00	 mov	 ecx, 12
  001de	f3 a4		 rep movsb
  001e0	48 8d 95 30 02
	00 00		 lea	 rdx, QWORD PTR $T9[rbp]
  001e7	48 8b 85 70 02
	00 00		 mov	 rax, QWORD PTR this$[rbp]
  001ee	48 8b 88 58 01
	00 00		 mov	 rcx, QWORD PTR [rax+344]
  001f5	ff 15 00 00 00
	00		 call	 QWORD PTR __imp_?Set_Scale@CTransform@Engine@@QEAAXUXMFLOAT3@DirectX@@@Z

; 39   : 
; 40   : 	return S_OK;

  001fb	33 c0		 xor	 eax, eax
$LN1@Initialize:

; 41   : }

  001fd	48 8d a5 50 02
	00 00		 lea	 rsp, QWORD PTR [rbp+592]
  00204	5f		 pop	 rdi
  00205	5e		 pop	 rsi
  00206	5d		 pop	 rbp
  00207	c3		 ret	 0
?Initialize@CThorn@Client@@UEAAJPEAX@Z ENDP		; Client::CThorn::Initialize
_TEXT	ENDS
; Function compile flags: /Odtp /RTCsu /ZI
; File c:\users\arcco\documents\github\framework\client\private\thorn.cpp
;	COMDAT ?Initialize_Prototype@CThorn@Client@@UEAAJXZ
_TEXT	SEGMENT
this$ = 224
?Initialize_Prototype@CThorn@Client@@UEAAJXZ PROC	; Client::CThorn::Initialize_Prototype, COMDAT

; 16   : {

$LN4:
  00000	48 89 4c 24 08	 mov	 QWORD PTR [rsp+8], rcx
  00005	55		 push	 rbp
  00006	57		 push	 rdi
  00007	48 81 ec e8 00
	00 00		 sub	 rsp, 232		; 000000e8H
  0000e	48 8d 6c 24 20	 lea	 rbp, QWORD PTR [rsp+32]
  00013	48 8b fc	 mov	 rdi, rsp
  00016	b9 3a 00 00 00	 mov	 ecx, 58			; 0000003aH
  0001b	b8 cc cc cc cc	 mov	 eax, -858993460		; ccccccccH
  00020	f3 ab		 rep stosd
  00022	48 8b 8c 24 08
	01 00 00	 mov	 rcx, QWORD PTR [rsp+264]

; 17   : 	if (FAILED(__super::Initialize_Prototype()))

  0002a	48 8b 8d e0 00
	00 00		 mov	 rcx, QWORD PTR this$[rbp]
  00031	ff 15 00 00 00
	00		 call	 QWORD PTR __imp_?Initialize_Prototype@CGameObject@Engine@@UEAAJXZ
  00037	85 c0		 test	 eax, eax
  00039	7d 07		 jge	 SHORT $LN2@Initialize

; 18   : 		return E_FAIL;

  0003b	b8 05 40 00 80	 mov	 eax, -2147467259	; ffffffff80004005H
  00040	eb 02		 jmp	 SHORT $LN1@Initialize
$LN2@Initialize:

; 19   : 
; 20   : 	return S_OK;

  00042	33 c0		 xor	 eax, eax
$LN1@Initialize:

; 21   : }

  00044	48 8d a5 c8 00
	00 00		 lea	 rsp, QWORD PTR [rbp+200]
  0004b	5f		 pop	 rdi
  0004c	5d		 pop	 rbp
  0004d	c3		 ret	 0
?Initialize_Prototype@CThorn@Client@@UEAAJXZ ENDP	; Client::CThorn::Initialize_Prototype
_TEXT	ENDS
; Function compile flags: /Odtp /RTCsu /ZI
; File c:\users\arcco\documents\github\framework\client\private\thorn.cpp
;	COMDAT ??1CThorn@Client@@EEAA@XZ
_TEXT	SEGMENT
this$ = 224
??1CThorn@Client@@EEAA@XZ PROC				; Client::CThorn::~CThorn, COMDAT

; 13   : }

$LN3:
  00000	48 89 4c 24 08	 mov	 QWORD PTR [rsp+8], rcx
  00005	55		 push	 rbp
  00006	57		 push	 rdi
  00007	48 81 ec e8 00
	00 00		 sub	 rsp, 232		; 000000e8H
  0000e	48 8d 6c 24 20	 lea	 rbp, QWORD PTR [rsp+32]
  00013	48 8b fc	 mov	 rdi, rsp
  00016	b9 3a 00 00 00	 mov	 ecx, 58			; 0000003aH
  0001b	b8 cc cc cc cc	 mov	 eax, -858993460		; ccccccccH
  00020	f3 ab		 rep stosd
  00022	48 8b 8c 24 08
	01 00 00	 mov	 rcx, QWORD PTR [rsp+264]
  0002a	48 8b 8d e0 00
	00 00		 mov	 rcx, QWORD PTR this$[rbp]
  00031	ff 15 00 00 00
	00		 call	 QWORD PTR __imp_??1CGameObject@Engine@@MEAA@XZ
  00037	48 8d a5 c8 00
	00 00		 lea	 rsp, QWORD PTR [rbp+200]
  0003e	5f		 pop	 rdi
  0003f	5d		 pop	 rbp
  00040	c3		 ret	 0
??1CThorn@Client@@EEAA@XZ ENDP				; Client::CThorn::~CThorn
_TEXT	ENDS
; Function compile flags: /Odtp /RTCsu /ZI
; File c:\users\arcco\documents\github\framework\client\private\thorn.cpp
; File c:\users\arcco\documents\github\framework\client\public\thorn.h
; File c:\users\arcco\documents\github\framework\client\private\thorn.cpp
;	COMDAT ??0CThorn@Client@@AEAA@PEAUID3D11Device@@PEAUID3D11DeviceContext@@@Z
_TEXT	SEGMENT
$T1 = 200
this$ = 256
pDevice$ = 264
pContext$ = 272
??0CThorn@Client@@AEAA@PEAUID3D11Device@@PEAUID3D11DeviceContext@@@Z PROC ; Client::CThorn::CThorn, COMDAT

; 12   : {

$LN4:
  00000	4c 89 44 24 18	 mov	 QWORD PTR [rsp+24], r8
  00005	48 89 54 24 10	 mov	 QWORD PTR [rsp+16], rdx
  0000a	48 89 4c 24 08	 mov	 QWORD PTR [rsp+8], rcx
  0000f	55		 push	 rbp
  00010	57		 push	 rdi
  00011	48 81 ec 08 01
	00 00		 sub	 rsp, 264		; 00000108H
  00018	48 8d 6c 24 20	 lea	 rbp, QWORD PTR [rsp+32]
  0001d	48 8b fc	 mov	 rdi, rsp
  00020	b9 42 00 00 00	 mov	 ecx, 66			; 00000042H
  00025	b8 cc cc cc cc	 mov	 eax, -858993460		; ccccccccH
  0002a	f3 ab		 rep stosd
  0002c	48 8b 8c 24 28
	01 00 00	 mov	 rcx, QWORD PTR [rsp+296]
  00034	48 c7 85 c8 00
	00 00 fe ff ff
	ff		 mov	 QWORD PTR $T1[rbp], -2

; 11   : 	: CGameObject(pDevice, pContext)

  0003f	4c 8b 85 10 01
	00 00		 mov	 r8, QWORD PTR pContext$[rbp]
  00046	48 8b 95 08 01
	00 00		 mov	 rdx, QWORD PTR pDevice$[rbp]
  0004d	48 8b 8d 00 01
	00 00		 mov	 rcx, QWORD PTR this$[rbp]
  00054	ff 15 00 00 00
	00		 call	 QWORD PTR __imp_??0CGameObject@Engine@@IEAA@PEAUID3D11Device@@PEAUID3D11DeviceContext@@@Z
  0005a	90		 npad	 1

; 12   : {

  0005b	48 8b 85 00 01
	00 00		 mov	 rax, QWORD PTR this$[rbp]
  00062	48 83 c0 78	 add	 rax, 120		; 00000078H
  00066	48 8b c8	 mov	 rcx, rax
  00069	ff 15 00 00 00
	00		 call	 QWORD PTR __imp_??0ISameObjectNoDetection@Engine@@QEAA@XZ
  0006f	48 8b 85 00 01
	00 00		 mov	 rax, QWORD PTR this$[rbp]
  00076	48 05 80 00 00
	00		 add	 rax, 128		; 00000080H
  0007c	48 8b c8	 mov	 rcx, rax
  0007f	ff 15 00 00 00
	00		 call	 QWORD PTR __imp_??0IOnCollisionEnter@Engine@@QEAA@XZ
  00085	48 8b 85 00 01
	00 00		 mov	 rax, QWORD PTR this$[rbp]
  0008c	48 05 88 00 00
	00		 add	 rax, 136		; 00000088H
  00092	48 8b c8	 mov	 rcx, rax
  00095	ff 15 00 00 00
	00		 call	 QWORD PTR __imp_??0IOnCollisionStay@Engine@@QEAA@XZ
  0009b	48 8b 85 00 01
	00 00		 mov	 rax, QWORD PTR this$[rbp]
  000a2	48 05 90 00 00
	00		 add	 rax, 144		; 00000090H
  000a8	48 8b c8	 mov	 rcx, rax
  000ab	ff 15 00 00 00
	00		 call	 QWORD PTR __imp_??0IOnCollisionExit@Engine@@QEAA@XZ
  000b1	48 8b 85 00 01
	00 00		 mov	 rax, QWORD PTR this$[rbp]
  000b8	48 8d 0d 00 00
	00 00		 lea	 rcx, OFFSET FLAT:??_7CThorn@Client@@6BCGameObject@Engine@@@
  000bf	48 89 08	 mov	 QWORD PTR [rax], rcx
  000c2	48 8b 85 00 01
	00 00		 mov	 rax, QWORD PTR this$[rbp]
  000c9	48 8d 0d 00 00
	00 00		 lea	 rcx, OFFSET FLAT:??_7CThorn@Client@@6BISameObjectNoDetection@Engine@@@
  000d0	48 89 48 78	 mov	 QWORD PTR [rax+120], rcx
  000d4	48 8b 85 00 01
	00 00		 mov	 rax, QWORD PTR this$[rbp]
  000db	48 8d 0d 00 00
	00 00		 lea	 rcx, OFFSET FLAT:??_7CThorn@Client@@6BIOnCollisionEnter@Engine@@@
  000e2	48 89 88 80 00
	00 00		 mov	 QWORD PTR [rax+128], rcx
  000e9	48 8b 85 00 01
	00 00		 mov	 rax, QWORD PTR this$[rbp]
  000f0	48 8d 0d 00 00
	00 00		 lea	 rcx, OFFSET FLAT:??_7CThorn@Client@@6BIOnCollisionStay@Engine@@@
  000f7	48 89 88 88 00
	00 00		 mov	 QWORD PTR [rax+136], rcx
  000fe	48 8b 85 00 01
	00 00		 mov	 rax, QWORD PTR this$[rbp]
  00105	48 8d 0d 00 00
	00 00		 lea	 rcx, OFFSET FLAT:??_7CThorn@Client@@6BIOnCollisionExit@Engine@@@
  0010c	48 89 88 90 00
	00 00		 mov	 QWORD PTR [rax+144], rcx
; File c:\users\arcco\documents\github\framework\client\public\thorn.h

; 96   : 	CSphereCollider* m_pCollider = nullptr;

  00113	48 8b 85 00 01
	00 00		 mov	 rax, QWORD PTR this$[rbp]
  0011a	48 c7 80 98 00
	00 00 00 00 00
	00		 mov	 QWORD PTR [rax+152], 0

; 97   : 
; 98   : 	TYPE m_eThornType = THORN;

  00125	48 8b 85 00 01
	00 00		 mov	 rax, QWORD PTR this$[rbp]
  0012c	c7 80 a0 00 00
	00 00 00 00 00	 mov	 DWORD PTR [rax+160], 0

; 99   : 	CRenderer* m_pRenderer = nullptr;

  00136	48 8b 85 00 01
	00 00		 mov	 rax, QWORD PTR this$[rbp]
  0013d	48 c7 80 a8 00
	00 00 00 00 00
	00		 mov	 QWORD PTR [rax+168], 0

; 100  : 	CTransform* m_pTransform = nullptr;

  00148	48 8b 85 00 01
	00 00		 mov	 rax, QWORD PTR this$[rbp]
  0014f	48 c7 80 b0 00
	00 00 00 00 00
	00		 mov	 QWORD PTR [rax+176], 0

; 101  : 	CModel* m_pModel = nullptr;

  0015a	48 8b 85 00 01
	00 00		 mov	 rax, QWORD PTR this$[rbp]
  00161	48 c7 80 b8 00
	00 00 00 00 00
	00		 mov	 QWORD PTR [rax+184], 0

; 102  : 	CShader* m_pShader = nullptr;

  0016c	48 8b 85 00 01
	00 00		 mov	 rax, QWORD PTR this$[rbp]
  00173	48 c7 80 c0 00
	00 00 00 00 00
	00		 mov	 QWORD PTR [rax+192], 0

; 103  : 
; 104  : 	_bool m_bAlpha = false;

  0017e	48 8b 85 00 01
	00 00		 mov	 rax, QWORD PTR this$[rbp]
  00185	c6 80 c8 00 00
	00 00		 mov	 BYTE PTR [rax+200], 0

; 105  : 	//   
; 106  : 	_bool m_bRender = false;

  0018c	48 8b 85 00 01
	00 00		 mov	 rax, QWORD PTR this$[rbp]
  00193	c6 80 c9 00 00
	00 00		 mov	 BYTE PTR [rax+201], 0

; 107  : 	_bool m_bScaleFinish = false;

  0019a	48 8b 85 00 01
	00 00		 mov	 rax, QWORD PTR this$[rbp]
  001a1	c6 80 ca 00 00
	00 00		 mov	 BYTE PTR [rax+202], 0

; 108  : 
; 109  : 	_bool m_bScaleUpDown = false;	//  

  001a8	48 8b 85 00 01
	00 00		 mov	 rax, QWORD PTR this$[rbp]
  001af	c6 80 cb 00 00
	00 00		 mov	 BYTE PTR [rax+203], 0

; 110  : 	_bool m_bScaleUp = false;		// 

  001b6	48 8b 85 00 01
	00 00		 mov	 rax, QWORD PTR this$[rbp]
  001bd	c6 80 cc 00 00
	00 00		 mov	 BYTE PTR [rax+204], 0

; 111  : 	_bool m_bScaleSmoothUp = false; // 

  001c4	48 8b 85 00 01
	00 00		 mov	 rax, QWORD PTR this$[rbp]
  001cb	c6 80 cd 00 00
	00 00		 mov	 BYTE PTR [rax+205], 0

; 112  : 
; 113  : 	_bool m_bScaleDownFinish = false;

  001d2	48 8b 85 00 01
	00 00		 mov	 rax, QWORD PTR this$[rbp]
  001d9	c6 80 ce 00 00
	00 00		 mov	 BYTE PTR [rax+206], 0

; 114  : 	_bool m_bScaleSmoothDown = false;

  001e0	48 8b 85 00 01
	00 00		 mov	 rax, QWORD PTR this$[rbp]
  001e7	c6 80 cf 00 00
	00 00		 mov	 BYTE PTR [rax+207], 0

; 115  : 	_float m_fScaleAcc = 0.f;

  001ee	48 8b 85 00 01
	00 00		 mov	 rax, QWORD PTR this$[rbp]
  001f5	0f 57 c0	 xorps	 xmm0, xmm0
  001f8	f3 0f 11 80 d0
	00 00 00	 movss	 DWORD PTR [rax+208], xmm0

; 116  : 	_float m_fLength = 1.f;		//  

  00200	48 8b 85 00 01
	00 00		 mov	 rax, QWORD PTR this$[rbp]
  00207	f3 0f 10 05 00
	00 00 00	 movss	 xmm0, DWORD PTR __real@3f800000
  0020f	f3 0f 11 80 d4
	00 00 00	 movss	 DWORD PTR [rax+212], xmm0

; 117  : 	const _float3 m_fPrevScale = { 0.2f, 0.2f, 0.2f };

  00217	48 8b 85 00 01
	00 00		 mov	 rax, QWORD PTR this$[rbp]
  0021e	48 05 d8 00 00
	00		 add	 rax, 216		; 000000d8H
  00224	f3 0f 10 1d 00
	00 00 00	 movss	 xmm3, DWORD PTR __real@3e4ccccd
  0022c	f3 0f 10 15 00
	00 00 00	 movss	 xmm2, DWORD PTR __real@3e4ccccd
  00234	f3 0f 10 0d 00
	00 00 00	 movss	 xmm1, DWORD PTR __real@3e4ccccd
  0023c	48 8b c8	 mov	 rcx, rax
  0023f	e8 00 00 00 00	 call	 ??0XMFLOAT3@DirectX@@QEAA@MMM@Z ; DirectX::XMFLOAT3::XMFLOAT3

; 118  : 
; 119  : 	_float m_fWaitAcc = 0.f;

  00244	48 8b 85 00 01
	00 00		 mov	 rax, QWORD PTR this$[rbp]
  0024b	0f 57 c0	 xorps	 xmm0, xmm0
  0024e	f3 0f 11 80 e4
	00 00 00	 movss	 DWORD PTR [rax+228], xmm0

; 120  : 	const _float m_fWaitTime = 2.f;

  00256	48 8b 85 00 01
	00 00		 mov	 rax, QWORD PTR this$[rbp]
  0025d	f3 0f 10 05 00
	00 00 00	 movss	 xmm0, DWORD PTR __real@40000000
  00265	f3 0f 11 80 e8
	00 00 00	 movss	 DWORD PTR [rax+232], xmm0

; 121  : 
; 122  : 	// Up    5
; 123  : 	_bool m_bMove = false;

  0026d	48 8b 85 00 01
	00 00		 mov	 rax, QWORD PTR this$[rbp]
  00274	c6 80 ec 00 00
	00 00		 mov	 BYTE PTR [rax+236], 0

; 124  : 	_float m_fMoveAcc = 0.f;

  0027b	48 8b 85 00 01
	00 00		 mov	 rax, QWORD PTR this$[rbp]
  00282	0f 57 c0	 xorps	 xmm0, xmm0
  00285	f3 0f 11 80 f0
	00 00 00	 movss	 DWORD PTR [rax+240], xmm0

; 125  : 
; 126  : 	// 
; 127  : 	CTransform* m_pFloorEffectTransform = nullptr;

  0028d	48 8b 85 00 01
	00 00		 mov	 rax, QWORD PTR this$[rbp]
  00294	48 c7 80 f8 00
	00 00 00 00 00
	00		 mov	 QWORD PTR [rax+248], 0

; 128  : 	CVIBuffer_Rect* m_pFloorEffectBuffer = nullptr;

  0029f	48 8b 85 00 01
	00 00		 mov	 rax, QWORD PTR this$[rbp]
  002a6	48 c7 80 00 01
	00 00 00 00 00
	00		 mov	 QWORD PTR [rax+256], 0

; 129  : 	CShader* m_pFloorShader = nullptr;

  002b1	48 8b 85 00 01
	00 00		 mov	 rax, QWORD PTR this$[rbp]
  002b8	48 c7 80 08 01
	00 00 00 00 00
	00		 mov	 QWORD PTR [rax+264], 0

; 130  : 
; 131  : 	CTexture* m_pFloorEffectDiffuse = nullptr;

  002c3	48 8b 85 00 01
	00 00		 mov	 rax, QWORD PTR this$[rbp]
  002ca	48 c7 80 10 01
	00 00 00 00 00
	00		 mov	 QWORD PTR [rax+272], 0

; 132  : 	CTexture* m_pFloorEffectMask = nullptr;

  002d5	48 8b 85 00 01
	00 00		 mov	 rax, QWORD PTR this$[rbp]
  002dc	48 c7 80 18 01
	00 00 00 00 00
	00		 mov	 QWORD PTR [rax+280], 0

; 133  : 
; 134  : 	CModel* m_pFloorGard = nullptr;

  002e7	48 8b 85 00 01
	00 00		 mov	 rax, QWORD PTR this$[rbp]
  002ee	48 c7 80 20 01
	00 00 00 00 00
	00		 mov	 QWORD PTR [rax+288], 0

; 135  : 	CTransform* m_pFloorGardTransform = nullptr;

  002f9	48 8b 85 00 01
	00 00		 mov	 rax, QWORD PTR this$[rbp]
  00300	48 c7 80 28 01
	00 00 00 00 00
	00		 mov	 QWORD PTR [rax+296], 0

; 136  : 	CTexture* m_pFloorGardTexture = nullptr;

  0030b	48 8b 85 00 01
	00 00		 mov	 rax, QWORD PTR this$[rbp]
  00312	48 c7 80 30 01
	00 00 00 00 00
	00		 mov	 QWORD PTR [rax+304], 0

; 137  : 
; 138  : 	_double m_FixedTimeDelta = 0.f;

  0031d	48 8b 85 00 01
	00 00		 mov	 rax, QWORD PTR this$[rbp]
  00324	0f 57 c0	 xorps	 xmm0, xmm0
  00327	f2 0f 11 80 38
	01 00 00	 movsd	 QWORD PTR [rax+312], xmm0

; 139  : 	_float m_fTimeAcc = 0.f;

  0032f	48 8b 85 00 01
	00 00		 mov	 rax, QWORD PTR this$[rbp]
  00336	0f 57 c0	 xorps	 xmm0, xmm0
  00339	f3 0f 11 80 40
	01 00 00	 movss	 DWORD PTR [rax+320], xmm0

; 140  : 	_bool m_bGardRender = false;

  00341	48 8b 85 00 01
	00 00		 mov	 rax, QWORD PTR this$[rbp]
  00348	c6 80 44 01 00
	00 00		 mov	 BYTE PTR [rax+324], 0

; 141  : 	_bool m_bFloorRender = false;

  0034f	48 8b 85 00 01
	00 00		 mov	 rax, QWORD PTR this$[rbp]
  00356	c6 80 45 01 00
	00 00		 mov	 BYTE PTR [rax+325], 0

; 142  : 	_float m_fFloorAlphaAcc = 0.f;

  0035d	48 8b 85 00 01
	00 00		 mov	 rax, QWORD PTR this$[rbp]
  00364	0f 57 c0	 xorps	 xmm0, xmm0
  00367	f3 0f 11 80 48
	01 00 00	 movss	 DWORD PTR [rax+328], xmm0

; 143  : 
; 144  : 	// 
; 145  : 	CVIBuffer_Rect* m_pTrailEffectBuffer = nullptr;

  0036f	48 8b 85 00 01
	00 00		 mov	 rax, QWORD PTR this$[rbp]
  00376	48 c7 80 50 01
	00 00 00 00 00
	00		 mov	 QWORD PTR [rax+336], 0

; 146  : 	CTransform* m_pTrailTransform = nullptr;

  00381	48 8b 85 00 01
	00 00		 mov	 rax, QWORD PTR this$[rbp]
  00388	48 c7 80 58 01
	00 00 00 00 00
	00		 mov	 QWORD PTR [rax+344], 0

; 147  : 	CTexture* m_pTrailTexture = nullptr;

  00393	48 8b 85 00 01
	00 00		 mov	 rax, QWORD PTR this$[rbp]
  0039a	48 c7 80 60 01
	00 00 00 00 00
	00		 mov	 QWORD PTR [rax+352], 0

; 148  : 	CShader* m_pTrailEffectShader = nullptr;

  003a5	48 8b 85 00 01
	00 00		 mov	 rax, QWORD PTR this$[rbp]
  003ac	48 c7 80 68 01
	00 00 00 00 00
	00		 mov	 QWORD PTR [rax+360], 0

; 149  : 	_float3 vTrailScale = { 0.25f, 0.25f, 0.25f };

  003b7	48 8b 85 00 01
	00 00		 mov	 rax, QWORD PTR this$[rbp]
  003be	48 05 70 01 00
	00		 add	 rax, 368		; 00000170H
  003c4	f3 0f 10 1d 00
	00 00 00	 movss	 xmm3, DWORD PTR __real@3e800000
  003cc	f3 0f 10 15 00
	00 00 00	 movss	 xmm2, DWORD PTR __real@3e800000
  003d4	f3 0f 10 0d 00
	00 00 00	 movss	 xmm1, DWORD PTR __real@3e800000
  003dc	48 8b c8	 mov	 rcx, rax
  003df	e8 00 00 00 00	 call	 ??0XMFLOAT3@DirectX@@QEAA@MMM@Z ; DirectX::XMFLOAT3::XMFLOAT3

; 150  : 	_float m_vTrailAcc = 0.f;

  003e4	48 8b 85 00 01
	00 00		 mov	 rax, QWORD PTR this$[rbp]
  003eb	0f 57 c0	 xorps	 xmm0, xmm0
  003ee	f3 0f 11 80 7c
	01 00 00	 movss	 DWORD PTR [rax+380], xmm0
; File c:\users\arcco\documents\github\framework\client\private\thorn.cpp

; 13   : }

  003f6	48 8b 85 00 01
	00 00		 mov	 rax, QWORD PTR this$[rbp]
  003fd	48 8d a5 e8 00
	00 00		 lea	 rsp, QWORD PTR [rbp+232]
  00404	5f		 pop	 rdi
  00405	5d		 pop	 rbp
  00406	c3		 ret	 0
??0CThorn@Client@@AEAA@PEAUID3D11Device@@PEAUID3D11DeviceContext@@@Z ENDP ; Client::CThorn::CThorn
_TEXT	ENDS
;	COMDAT text$x
text$x	SEGMENT
$T1 = 200
this$ = 256
pDevice$ = 264
pContext$ = 272
?dtor$0@?0???0CThorn@Client@@AEAA@PEAUID3D11Device@@PEAUID3D11DeviceContext@@@Z@4HA PROC ; `Client::CThorn::CThorn'::`1'::dtor$0
  00000	48 89 4c 24 08	 mov	 QWORD PTR [rsp+8], rcx
  00005	48 89 54 24 10	 mov	 QWORD PTR [rsp+16], rdx
  0000a	55		 push	 rbp
  0000b	57		 push	 rdi
  0000c	48 83 ec 28	 sub	 rsp, 40			; 00000028H
  00010	48 8d 6a 20	 lea	 rbp, QWORD PTR [rdx+32]
  00014	48 8b 8d 00 01
	00 00		 mov	 rcx, QWORD PTR this$[rbp]
  0001b	ff 15 00 00 00
	00		 call	 QWORD PTR __imp_??1CGameObject@Engine@@MEAA@XZ
  00021	48 83 c4 28	 add	 rsp, 40			; 00000028H
  00025	5f		 pop	 rdi
  00026	5d		 pop	 rbp
  00027	c3		 ret	 0
?dtor$0@?0???0CThorn@Client@@AEAA@PEAUID3D11Device@@PEAUID3D11DeviceContext@@@Z@4HA ENDP ; `Client::CThorn::CThorn'::`1'::dtor$0
text$x	ENDS
; Function compile flags: /Odtp /RTCsu /ZI
;	COMDAT text$x
text$x	SEGMENT
$T1 = 200
this$ = 256
pDevice$ = 264
pContext$ = 272
?dtor$0@?0???0CThorn@Client@@AEAA@PEAUID3D11Device@@PEAUID3D11DeviceContext@@@Z@4HA PROC ; `Client::CThorn::CThorn'::`1'::dtor$0
  00000	48 89 4c 24 08	 mov	 QWORD PTR [rsp+8], rcx
  00005	48 89 54 24 10	 mov	 QWORD PTR [rsp+16], rdx
  0000a	55		 push	 rbp
  0000b	57		 push	 rdi
  0000c	48 83 ec 28	 sub	 rsp, 40			; 00000028H
  00010	48 8d 6a 20	 lea	 rbp, QWORD PTR [rdx+32]
  00014	48 8b 8d 00 01
	00 00		 mov	 rcx, QWORD PTR this$[rbp]
  0001b	ff 15 00 00 00
	00		 call	 QWORD PTR __imp_??1CGameObject@Engine@@MEAA@XZ
  00021	48 83 c4 28	 add	 rsp, 40			; 00000028H
  00025	5f		 pop	 rdi
  00026	5d		 pop	 rbp
  00027	c3		 ret	 0
?dtor$0@?0???0CThorn@Client@@AEAA@PEAUID3D11Device@@PEAUID3D11DeviceContext@@@Z@4HA ENDP ; `Client::CThorn::CThorn'::`1'::dtor$0
text$x	ENDS
; Function compile flags: /Odtp /RTCsu /ZI
;	COMDAT ??0tagColliderDesc@CCollider@Engine@@QEAA@XZ
_TEXT	SEGMENT
this$ = 224
??0tagColliderDesc@CCollider@Engine@@QEAA@XZ PROC	; Engine::CCollider::tagColliderDesc::tagColliderDesc, COMDAT
$LN3:
  00000	48 89 4c 24 08	 mov	 QWORD PTR [rsp+8], rcx
  00005	55		 push	 rbp
  00006	57		 push	 rdi
  00007	48 81 ec e8 00
	00 00		 sub	 rsp, 232		; 000000e8H
  0000e	48 8d 6c 24 20	 lea	 rbp, QWORD PTR [rsp+32]
  00013	48 8b fc	 mov	 rdi, rsp
  00016	b9 3a 00 00 00	 mov	 ecx, 58			; 0000003aH
  0001b	b8 cc cc cc cc	 mov	 eax, -858993460		; ccccccccH
  00020	f3 ab		 rep stosd
  00022	48 8b 8c 24 08
	01 00 00	 mov	 rcx, QWORD PTR [rsp+264]
  0002a	48 8b 85 e0 00
	00 00		 mov	 rax, QWORD PTR this$[rbp]
  00031	48 83 c0 08	 add	 rax, 8
  00035	48 8b c8	 mov	 rcx, rax
  00038	e8 00 00 00 00	 call	 ??0XMFLOAT3@DirectX@@QEAA@XZ ; DirectX::XMFLOAT3::XMFLOAT3
  0003d	48 8b 85 e0 00
	00 00		 mov	 rax, QWORD PTR this$[rbp]
  00044	48 83 c0 14	 add	 rax, 20
  00048	48 8b c8	 mov	 rcx, rax
  0004b	e8 00 00 00 00	 call	 ??0XMFLOAT3@DirectX@@QEAA@XZ ; DirectX::XMFLOAT3::XMFLOAT3
  00050	48 8b 85 e0 00
	00 00		 mov	 rax, QWORD PTR this$[rbp]
  00057	48 83 c0 20	 add	 rax, 32			; 00000020H
  0005b	48 8b c8	 mov	 rcx, rax
  0005e	e8 00 00 00 00	 call	 ??0XMFLOAT3@DirectX@@QEAA@XZ ; DirectX::XMFLOAT3::XMFLOAT3
  00063	48 8b 85 e0 00
	00 00		 mov	 rax, QWORD PTR this$[rbp]
  0006a	48 8d a5 c8 00
	00 00		 lea	 rsp, QWORD PTR [rbp+200]
  00071	5f		 pop	 rdi
  00072	5d		 pop	 rbp
  00073	c3		 ret	 0
??0tagColliderDesc@CCollider@Engine@@QEAA@XZ ENDP	; Engine::CCollider::tagColliderDesc::tagColliderDesc
_TEXT	ENDS
; Function compile flags: /Odtp /RTCsu /ZI
; File c:\program files (x86)\windows kits\8.1\include\um\directxmathvector.inl
;	COMDAT ?XMVector3Normalize@DirectX@@YQ?AT__m128@@T2@@Z
_TEXT	SEGMENT
V$ = 16
vLengthSq$ = 64
vTemp$ = 112
vResult$ = 160
vZeroMask$ = 208
vTemp1$ = 256
vTemp2$ = 304
$T1 = 928
$T2 = 976
$T3 = 1024
$T4 = 1072
$T5 = 1120
$T6 = 1168
$T7 = 1216
$T8 = 1264
$T9 = 1312
$T10 = 1360
$T11 = 1408
$T12 = 1456
$T13 = 1504
$T14 = 1552
$T15 = 1600
$T16 = 1648
$T17 = 1696
?XMVector3Normalize@DirectX@@YQ?AT__m128@@T2@@Z PROC	; DirectX::XMVector3Normalize, COMDAT

; 9238 : {

$LN3:
  00000	40 55		 push	 rbp
  00002	57		 push	 rdi
  00003	48 81 ec f8 06
	00 00		 sub	 rsp, 1784		; 000006f8H
  0000a	48 8d 6c 24 30	 lea	 rbp, QWORD PTR [rsp+48]
  0000f	48 8b fc	 mov	 rdi, rsp
  00012	b9 be 01 00 00	 mov	 ecx, 446		; 000001beH
  00017	b8 cc cc cc cc	 mov	 eax, -858993460		; ccccccccH
  0001c	f3 ab		 rep stosd
  0001e	48 8d 45 10	 lea	 rax, QWORD PTR V$[rbp]
  00022	48 89 84 24 10
	07 00 00	 mov	 QWORD PTR [rsp+1808], rax
  0002a	0f 29 45 10	 movaps	 XMMWORD PTR V$[rbp], xmm0

; 9239 : #if defined(_XM_NO_INTRINSICS_)
; 9240 :     float fLength;
; 9241 :     XMVECTOR vResult;
; 9242 : 
; 9243 :     vResult = XMVector3Length( V );
; 9244 :     fLength = vResult.vector4_f32[0];
; 9245 : 
; 9246 :     // Prevent divide by zero
; 9247 :     if (fLength > 0) {
; 9248 :         fLength = 1.0f/fLength;
; 9249 :     }
; 9250 :     
; 9251 :     vResult.vector4_f32[0] = V.vector4_f32[0]*fLength;
; 9252 :     vResult.vector4_f32[1] = V.vector4_f32[1]*fLength;
; 9253 :     vResult.vector4_f32[2] = V.vector4_f32[2]*fLength;
; 9254 :     vResult.vector4_f32[3] = V.vector4_f32[3]*fLength;
; 9255 :     return vResult;
; 9256 : 
; 9257 : #elif defined(_XM_ARM_NEON_INTRINSICS_)
; 9258 :     // Dot3
; 9259 :     float32x4_t vTemp = vmulq_f32( V, V );
; 9260 :     float32x2_t v1 = vget_low_f32( vTemp );
; 9261 :     float32x2_t v2 = vget_high_f32( vTemp );
; 9262 :     v1 = vpadd_f32( v1, v1 );
; 9263 :     v2 = vdup_lane_f32( v2, 0 );
; 9264 :     v1 = vadd_f32( v1, v2 );
; 9265 :     uint32x2_t VEqualsZero = vceq_f32( v1, vdup_n_f32(0) );
; 9266 :     uint32x2_t VEqualsInf = vceq_f32( v1, vget_low_f32(g_XMInfinity) );
; 9267 :     // Reciprocal sqrt (2 iterations of Newton-Raphson)
; 9268 :     float32x2_t S0 = vrsqrte_f32( v1 );
; 9269 :     float32x2_t P0 = vmul_f32( v1, S0 );
; 9270 :     float32x2_t R0 = vrsqrts_f32( P0, S0 );
; 9271 :     float32x2_t S1 = vmul_f32( S0, R0 );
; 9272 :     float32x2_t P1 = vmul_f32( v1, S1 );
; 9273 :     float32x2_t R1 = vrsqrts_f32( P1, S1 );
; 9274 :     v2 = vmul_f32( S1, R1 );
; 9275 :     // Normalize
; 9276 :     XMVECTOR vResult = vmulq_f32( V, vcombine_f32(v2,v2) );
; 9277 :     vResult = vbslq_f32( vcombine_f32(VEqualsZero,VEqualsZero), vdupq_n_f32(0), vResult );
; 9278 :     return vbslq_f32( vcombine_f32(VEqualsInf,VEqualsInf), g_XMQNaN, vResult );
; 9279 : #elif defined(_XM_SSE_INTRINSICS_)
; 9280 :     // Perform the dot product on x,y and z only
; 9281 :     XMVECTOR vLengthSq = _mm_mul_ps(V,V);

  0002e	0f 28 45 10	 movaps	 xmm0, XMMWORD PTR V$[rbp]
  00032	0f 59 45 10	 mulps	 xmm0, XMMWORD PTR V$[rbp]
  00036	0f 29 85 a0 03
	00 00		 movaps	 XMMWORD PTR $T1[rbp], xmm0
  0003d	0f 28 85 a0 03
	00 00		 movaps	 xmm0, XMMWORD PTR $T1[rbp]
  00044	0f 29 45 40	 movaps	 XMMWORD PTR vLengthSq$[rbp], xmm0

; 9282 :     XMVECTOR vTemp = XM_PERMUTE_PS(vLengthSq,_MM_SHUFFLE(2,1,2,1));

  00048	0f 28 45 40	 movaps	 xmm0, XMMWORD PTR vLengthSq$[rbp]
  0004c	0f c6 45 40 99	 shufps	 xmm0, XMMWORD PTR vLengthSq$[rbp], 153 ; 00000099H
  00051	0f 29 85 d0 03
	00 00		 movaps	 XMMWORD PTR $T2[rbp], xmm0
  00058	0f 28 85 d0 03
	00 00		 movaps	 xmm0, XMMWORD PTR $T2[rbp]
  0005f	0f 29 45 70	 movaps	 XMMWORD PTR vTemp$[rbp], xmm0

; 9283 :     vLengthSq = _mm_add_ss(vLengthSq,vTemp);

  00063	0f 28 45 40	 movaps	 xmm0, XMMWORD PTR vLengthSq$[rbp]
  00067	f3 0f 58 45 70	 addss	 xmm0, DWORD PTR vTemp$[rbp]
  0006c	0f 29 85 00 04
	00 00		 movaps	 XMMWORD PTR $T3[rbp], xmm0
  00073	0f 28 85 00 04
	00 00		 movaps	 xmm0, XMMWORD PTR $T3[rbp]
  0007a	0f 29 45 40	 movaps	 XMMWORD PTR vLengthSq$[rbp], xmm0

; 9284 :     vTemp = XM_PERMUTE_PS(vTemp,_MM_SHUFFLE(1,1,1,1));

  0007e	0f 28 45 70	 movaps	 xmm0, XMMWORD PTR vTemp$[rbp]
  00082	0f c6 45 70 55	 shufps	 xmm0, XMMWORD PTR vTemp$[rbp], 85 ; 00000055H
  00087	0f 29 85 30 04
	00 00		 movaps	 XMMWORD PTR $T4[rbp], xmm0
  0008e	0f 28 85 30 04
	00 00		 movaps	 xmm0, XMMWORD PTR $T4[rbp]
  00095	0f 29 45 70	 movaps	 XMMWORD PTR vTemp$[rbp], xmm0

; 9285 :     vLengthSq = _mm_add_ss(vLengthSq,vTemp);

  00099	0f 28 45 40	 movaps	 xmm0, XMMWORD PTR vLengthSq$[rbp]
  0009d	f3 0f 58 45 70	 addss	 xmm0, DWORD PTR vTemp$[rbp]
  000a2	0f 29 85 60 04
	00 00		 movaps	 XMMWORD PTR $T5[rbp], xmm0
  000a9	0f 28 85 60 04
	00 00		 movaps	 xmm0, XMMWORD PTR $T5[rbp]
  000b0	0f 29 45 40	 movaps	 XMMWORD PTR vLengthSq$[rbp], xmm0

; 9286 :     vLengthSq = XM_PERMUTE_PS(vLengthSq,_MM_SHUFFLE(0,0,0,0));

  000b4	0f 28 45 40	 movaps	 xmm0, XMMWORD PTR vLengthSq$[rbp]
  000b8	0f c6 45 40 00	 shufps	 xmm0, XMMWORD PTR vLengthSq$[rbp], 0
  000bd	0f 29 85 90 04
	00 00		 movaps	 XMMWORD PTR $T6[rbp], xmm0
  000c4	0f 28 85 90 04
	00 00		 movaps	 xmm0, XMMWORD PTR $T6[rbp]
  000cb	0f 29 45 40	 movaps	 XMMWORD PTR vLengthSq$[rbp], xmm0

; 9287 :     // Prepare for the division
; 9288 :     XMVECTOR vResult = _mm_sqrt_ps(vLengthSq);

  000cf	0f 51 45 40	 sqrtps	 xmm0, XMMWORD PTR vLengthSq$[rbp]
  000d3	0f 29 85 c0 04
	00 00		 movaps	 XMMWORD PTR $T7[rbp], xmm0
  000da	0f 28 85 c0 04
	00 00		 movaps	 xmm0, XMMWORD PTR $T7[rbp]
  000e1	0f 29 85 a0 00
	00 00		 movaps	 XMMWORD PTR vResult$[rbp], xmm0

; 9289 :     // Create zero with a single instruction
; 9290 :     XMVECTOR vZeroMask = _mm_setzero_ps();

  000e8	0f 57 c0	 xorps	 xmm0, xmm0
  000eb	0f 29 85 f0 04
	00 00		 movaps	 XMMWORD PTR $T8[rbp], xmm0
  000f2	0f 28 85 f0 04
	00 00		 movaps	 xmm0, XMMWORD PTR $T8[rbp]
  000f9	0f 29 85 d0 00
	00 00		 movaps	 XMMWORD PTR vZeroMask$[rbp], xmm0

; 9291 :     // Test for a divide by zero (Must be FP to detect -0.0)
; 9292 :     vZeroMask = _mm_cmpneq_ps(vZeroMask,vResult);

  00100	0f 28 85 d0 00
	00 00		 movaps	 xmm0, XMMWORD PTR vZeroMask$[rbp]
  00107	0f c2 85 a0 00
	00 00 04	 cmpneqps xmm0, XMMWORD PTR vResult$[rbp]
  0010f	0f 29 85 20 05
	00 00		 movaps	 XMMWORD PTR $T9[rbp], xmm0
  00116	0f 28 85 20 05
	00 00		 movaps	 xmm0, XMMWORD PTR $T9[rbp]
  0011d	0f 29 85 d0 00
	00 00		 movaps	 XMMWORD PTR vZeroMask$[rbp], xmm0

; 9293 :     // Failsafe on zero (Or epsilon) length planes
; 9294 :     // If the length is infinity, set the elements to zero
; 9295 :     vLengthSq = _mm_cmpneq_ps(vLengthSq,g_XMInfinity);

  00124	48 8d 95 80 05
	00 00		 lea	 rdx, QWORD PTR $T11[rbp]
  0012b	48 8d 0d 00 00
	00 00		 lea	 rcx, OFFSET FLAT:?g_XMInfinity@DirectX@@3UXMVECTORI32@1@B ; DirectX::g_XMInfinity
  00132	e8 00 00 00 00	 call	 ??BXMVECTORI32@DirectX@@QEBA?AT__m128@@XZ ; DirectX::XMVECTORI32::operator __m128
  00137	0f 28 45 40	 movaps	 xmm0, XMMWORD PTR vLengthSq$[rbp]
  0013b	0f c2 00 04	 cmpneqps xmm0, XMMWORD PTR [rax]
  0013f	0f 29 85 50 05
	00 00		 movaps	 XMMWORD PTR $T10[rbp], xmm0
  00146	0f 28 85 50 05
	00 00		 movaps	 xmm0, XMMWORD PTR $T10[rbp]
  0014d	0f 29 45 40	 movaps	 XMMWORD PTR vLengthSq$[rbp], xmm0

; 9296 :     // Divide to perform the normalization
; 9297 :     vResult = _mm_div_ps(V,vResult);

  00151	0f 28 45 10	 movaps	 xmm0, XMMWORD PTR V$[rbp]
  00155	0f 5e 85 a0 00
	00 00		 divps	 xmm0, XMMWORD PTR vResult$[rbp]
  0015c	0f 29 85 b0 05
	00 00		 movaps	 XMMWORD PTR $T12[rbp], xmm0
  00163	0f 28 85 b0 05
	00 00		 movaps	 xmm0, XMMWORD PTR $T12[rbp]
  0016a	0f 29 85 a0 00
	00 00		 movaps	 XMMWORD PTR vResult$[rbp], xmm0

; 9298 :     // Any that are infinity, set to zero
; 9299 :     vResult = _mm_and_ps(vResult,vZeroMask);

  00171	0f 28 85 a0 00
	00 00		 movaps	 xmm0, XMMWORD PTR vResult$[rbp]
  00178	0f 54 85 d0 00
	00 00		 andps	 xmm0, XMMWORD PTR vZeroMask$[rbp]
  0017f	0f 29 85 e0 05
	00 00		 movaps	 XMMWORD PTR $T13[rbp], xmm0
  00186	0f 28 85 e0 05
	00 00		 movaps	 xmm0, XMMWORD PTR $T13[rbp]
  0018d	0f 29 85 a0 00
	00 00		 movaps	 XMMWORD PTR vResult$[rbp], xmm0

; 9300 :     // Select qnan or result based on infinite length
; 9301 :     XMVECTOR vTemp1 = _mm_andnot_ps(vLengthSq,g_XMQNaN);

  00194	48 8d 95 40 06
	00 00		 lea	 rdx, QWORD PTR $T15[rbp]
  0019b	48 8d 0d 00 00
	00 00		 lea	 rcx, OFFSET FLAT:?g_XMQNaN@DirectX@@3UXMVECTORI32@1@B ; DirectX::g_XMQNaN
  001a2	e8 00 00 00 00	 call	 ??BXMVECTORI32@DirectX@@QEBA?AT__m128@@XZ ; DirectX::XMVECTORI32::operator __m128
  001a7	0f 28 45 40	 movaps	 xmm0, XMMWORD PTR vLengthSq$[rbp]
  001ab	0f 55 00	 andnps	 xmm0, XMMWORD PTR [rax]
  001ae	0f 29 85 10 06
	00 00		 movaps	 XMMWORD PTR $T14[rbp], xmm0
  001b5	0f 28 85 10 06
	00 00		 movaps	 xmm0, XMMWORD PTR $T14[rbp]
  001bc	0f 29 85 00 01
	00 00		 movaps	 XMMWORD PTR vTemp1$[rbp], xmm0

; 9302 :     XMVECTOR vTemp2 = _mm_and_ps(vResult,vLengthSq);

  001c3	0f 28 85 a0 00
	00 00		 movaps	 xmm0, XMMWORD PTR vResult$[rbp]
  001ca	0f 54 45 40	 andps	 xmm0, XMMWORD PTR vLengthSq$[rbp]
  001ce	0f 29 85 70 06
	00 00		 movaps	 XMMWORD PTR $T16[rbp], xmm0
  001d5	0f 28 85 70 06
	00 00		 movaps	 xmm0, XMMWORD PTR $T16[rbp]
  001dc	0f 29 85 30 01
	00 00		 movaps	 XMMWORD PTR vTemp2$[rbp], xmm0

; 9303 :     vResult = _mm_or_ps(vTemp1,vTemp2);

  001e3	0f 28 85 00 01
	00 00		 movaps	 xmm0, XMMWORD PTR vTemp1$[rbp]
  001ea	0f 56 85 30 01
	00 00		 orps	 xmm0, XMMWORD PTR vTemp2$[rbp]
  001f1	0f 29 85 a0 06
	00 00		 movaps	 XMMWORD PTR $T17[rbp], xmm0
  001f8	0f 28 85 a0 06
	00 00		 movaps	 xmm0, XMMWORD PTR $T17[rbp]
  001ff	0f 29 85 a0 00
	00 00		 movaps	 XMMWORD PTR vResult$[rbp], xmm0

; 9304 :     return vResult;

  00206	0f 28 85 a0 00
	00 00		 movaps	 xmm0, XMMWORD PTR vResult$[rbp]

; 9305 : #endif
; 9306 : }

  0020d	48 8d a5 c8 06
	00 00		 lea	 rsp, QWORD PTR [rbp+1736]
  00214	5f		 pop	 rdi
  00215	5d		 pop	 rbp
  00216	c3		 ret	 0
?XMVector3Normalize@DirectX@@YQ?AT__m128@@T2@@Z ENDP	; DirectX::XMVector3Normalize
_TEXT	ENDS
; Function compile flags: /Odtp /RTCsu /ZI
; File c:\program files (x86)\windows kits\8.1\include\um\directxmathvector.inl
;	COMDAT ?XMVector3Length@DirectX@@YQ?AT__m128@@T2@@Z
_TEXT	SEGMENT
V$ = 16
vLengthSq$ = 64
vTemp$ = 112
$T1 = 352
$T2 = 400
$T3 = 448
$T4 = 496
$T5 = 544
$T6 = 592
$T7 = 640
?XMVector3Length@DirectX@@YQ?AT__m128@@T2@@Z PROC	; DirectX::XMVector3Length, COMDAT

; 9133 : {

$LN3:
  00000	40 55		 push	 rbp
  00002	57		 push	 rdi
  00003	48 81 ec b8 02
	00 00		 sub	 rsp, 696		; 000002b8H
  0000a	48 8d 6c 24 10	 lea	 rbp, QWORD PTR [rsp+16]
  0000f	48 8b fc	 mov	 rdi, rsp
  00012	b9 ae 00 00 00	 mov	 ecx, 174		; 000000aeH
  00017	b8 cc cc cc cc	 mov	 eax, -858993460		; ccccccccH
  0001c	f3 ab		 rep stosd
  0001e	48 8d 45 10	 lea	 rax, QWORD PTR V$[rbp]
  00022	48 89 84 24 d0
	02 00 00	 mov	 QWORD PTR [rsp+720], rax
  0002a	0f 29 45 10	 movaps	 XMMWORD PTR V$[rbp], xmm0

; 9134 : #if defined(_XM_NO_INTRINSICS_)
; 9135 : 
; 9136 :     XMVECTOR Result;
; 9137 : 
; 9138 :     Result = XMVector3LengthSq(V);
; 9139 :     Result = XMVectorSqrt(Result);
; 9140 : 
; 9141 :     return Result;
; 9142 : 
; 9143 : #elif defined(_XM_ARM_NEON_INTRINSICS_)
; 9144 :     // Dot3
; 9145 :     float32x4_t vTemp = vmulq_f32( V, V );
; 9146 :     float32x2_t v1 = vget_low_f32( vTemp );
; 9147 :     float32x2_t v2 = vget_high_f32( vTemp );
; 9148 :     v1 = vpadd_f32( v1, v1 );
; 9149 :     v2 = vdup_lane_f32( v2, 0 );
; 9150 :     v1 = vadd_f32( v1, v2 );
; 9151 :     const float32x2_t zero = vdup_n_f32(0);
; 9152 :     uint32x2_t VEqualsZero = vceq_f32( v1, zero );
; 9153 :     // Sqrt
; 9154 :     float32x2_t S0 = vrsqrte_f32( v1 );
; 9155 :     float32x2_t P0 = vmul_f32( v1, S0 );
; 9156 :     float32x2_t R0 = vrsqrts_f32( P0, S0 );
; 9157 :     float32x2_t S1 = vmul_f32( S0, R0 );
; 9158 :     float32x2_t P1 = vmul_f32( v1, S1 );
; 9159 :     float32x2_t R1 = vrsqrts_f32( P1, S1 );
; 9160 :     float32x2_t Result = vmul_f32( S1, R1 );
; 9161 :     Result = vmul_f32( v1, Result );
; 9162 :     Result = vbsl_f32( VEqualsZero, zero, Result );
; 9163 :     return vcombine_f32( Result, Result );
; 9164 : #elif defined(_XM_SSE_INTRINSICS_)
; 9165 :     // Perform the dot product on x,y and z
; 9166 :     XMVECTOR vLengthSq = _mm_mul_ps(V,V);

  0002e	0f 28 45 10	 movaps	 xmm0, XMMWORD PTR V$[rbp]
  00032	0f 59 45 10	 mulps	 xmm0, XMMWORD PTR V$[rbp]
  00036	0f 29 85 60 01
	00 00		 movaps	 XMMWORD PTR $T1[rbp], xmm0
  0003d	0f 28 85 60 01
	00 00		 movaps	 xmm0, XMMWORD PTR $T1[rbp]
  00044	0f 29 45 40	 movaps	 XMMWORD PTR vLengthSq$[rbp], xmm0

; 9167 :     // vTemp has z and y
; 9168 :     XMVECTOR vTemp = XM_PERMUTE_PS(vLengthSq,_MM_SHUFFLE(1,2,1,2));

  00048	0f 28 45 40	 movaps	 xmm0, XMMWORD PTR vLengthSq$[rbp]
  0004c	0f c6 45 40 66	 shufps	 xmm0, XMMWORD PTR vLengthSq$[rbp], 102 ; 00000066H
  00051	0f 29 85 90 01
	00 00		 movaps	 XMMWORD PTR $T2[rbp], xmm0
  00058	0f 28 85 90 01
	00 00		 movaps	 xmm0, XMMWORD PTR $T2[rbp]
  0005f	0f 29 45 70	 movaps	 XMMWORD PTR vTemp$[rbp], xmm0

; 9169 :     // x+z, y
; 9170 :     vLengthSq = _mm_add_ss(vLengthSq,vTemp);

  00063	0f 28 45 40	 movaps	 xmm0, XMMWORD PTR vLengthSq$[rbp]
  00067	f3 0f 58 45 70	 addss	 xmm0, DWORD PTR vTemp$[rbp]
  0006c	0f 29 85 c0 01
	00 00		 movaps	 XMMWORD PTR $T3[rbp], xmm0
  00073	0f 28 85 c0 01
	00 00		 movaps	 xmm0, XMMWORD PTR $T3[rbp]
  0007a	0f 29 45 40	 movaps	 XMMWORD PTR vLengthSq$[rbp], xmm0

; 9171 :     // y,y,y,y
; 9172 :     vTemp = XM_PERMUTE_PS(vTemp,_MM_SHUFFLE(1,1,1,1));

  0007e	0f 28 45 70	 movaps	 xmm0, XMMWORD PTR vTemp$[rbp]
  00082	0f c6 45 70 55	 shufps	 xmm0, XMMWORD PTR vTemp$[rbp], 85 ; 00000055H
  00087	0f 29 85 f0 01
	00 00		 movaps	 XMMWORD PTR $T4[rbp], xmm0
  0008e	0f 28 85 f0 01
	00 00		 movaps	 xmm0, XMMWORD PTR $T4[rbp]
  00095	0f 29 45 70	 movaps	 XMMWORD PTR vTemp$[rbp], xmm0

; 9173 :     // x+z+y,??,??,??
; 9174 :     vLengthSq = _mm_add_ss(vLengthSq,vTemp);

  00099	0f 28 45 40	 movaps	 xmm0, XMMWORD PTR vLengthSq$[rbp]
  0009d	f3 0f 58 45 70	 addss	 xmm0, DWORD PTR vTemp$[rbp]
  000a2	0f 29 85 20 02
	00 00		 movaps	 XMMWORD PTR $T5[rbp], xmm0
  000a9	0f 28 85 20 02
	00 00		 movaps	 xmm0, XMMWORD PTR $T5[rbp]
  000b0	0f 29 45 40	 movaps	 XMMWORD PTR vLengthSq$[rbp], xmm0

; 9175 :     // Splat the length squared
; 9176 :     vLengthSq = XM_PERMUTE_PS(vLengthSq,_MM_SHUFFLE(0,0,0,0));

  000b4	0f 28 45 40	 movaps	 xmm0, XMMWORD PTR vLengthSq$[rbp]
  000b8	0f c6 45 40 00	 shufps	 xmm0, XMMWORD PTR vLengthSq$[rbp], 0
  000bd	0f 29 85 50 02
	00 00		 movaps	 XMMWORD PTR $T6[rbp], xmm0
  000c4	0f 28 85 50 02
	00 00		 movaps	 xmm0, XMMWORD PTR $T6[rbp]
  000cb	0f 29 45 40	 movaps	 XMMWORD PTR vLengthSq$[rbp], xmm0

; 9177 :     // Get the length
; 9178 :     vLengthSq = _mm_sqrt_ps(vLengthSq);

  000cf	0f 51 45 40	 sqrtps	 xmm0, XMMWORD PTR vLengthSq$[rbp]
  000d3	0f 29 85 80 02
	00 00		 movaps	 XMMWORD PTR $T7[rbp], xmm0
  000da	0f 28 85 80 02
	00 00		 movaps	 xmm0, XMMWORD PTR $T7[rbp]
  000e1	0f 29 45 40	 movaps	 XMMWORD PTR vLengthSq$[rbp], xmm0

; 9179 :     return vLengthSq;

  000e5	0f 28 45 40	 movaps	 xmm0, XMMWORD PTR vLengthSq$[rbp]

; 9180 : #endif
; 9181 : }

  000e9	48 8d a5 a8 02
	00 00		 lea	 rsp, QWORD PTR [rbp+680]
  000f0	5f		 pop	 rdi
  000f1	5d		 pop	 rbp
  000f2	c3		 ret	 0
?XMVector3Length@DirectX@@YQ?AT__m128@@T2@@Z ENDP	; DirectX::XMVector3Length
_TEXT	ENDS
; Function compile flags: /Odtp /RTCsu /ZI
; File c:\program files (x86)\windows kits\8.1\include\um\directxmathvector.inl
;	COMDAT ?XMVector3Cross@DirectX@@YQ?AT__m128@@T2@0@Z
_TEXT	SEGMENT
V1$ = 16
V2$ = 64
vTemp1$ = 112
vTemp2$ = 160
vResult$ = 208
$T1 = 640
$T2 = 688
$T3 = 736
$T4 = 784
$T5 = 832
$T6 = 880
$T7 = 928
$T8 = 976
$T9 = 1024
?XMVector3Cross@DirectX@@YQ?AT__m128@@T2@0@Z PROC	; DirectX::XMVector3Cross, COMDAT

; 8922 : {

$LN3:
  00000	40 55		 push	 rbp
  00002	57		 push	 rdi
  00003	48 81 ec 58 04
	00 00		 sub	 rsp, 1112		; 00000458H
  0000a	48 8d 6c 24 30	 lea	 rbp, QWORD PTR [rsp+48]
  0000f	48 8b fc	 mov	 rdi, rsp
  00012	b9 16 01 00 00	 mov	 ecx, 278		; 00000116H
  00017	b8 cc cc cc cc	 mov	 eax, -858993460		; ccccccccH
  0001c	f3 ab		 rep stosd
  0001e	48 8d 45 10	 lea	 rax, QWORD PTR V1$[rbp]
  00022	48 89 84 24 70
	04 00 00	 mov	 QWORD PTR [rsp+1136], rax
  0002a	48 8d 45 40	 lea	 rax, QWORD PTR V2$[rbp]
  0002e	48 89 84 24 78
	04 00 00	 mov	 QWORD PTR [rsp+1144], rax
  00036	0f 29 4d 40	 movaps	 XMMWORD PTR V2$[rbp], xmm1
  0003a	0f 29 45 10	 movaps	 XMMWORD PTR V1$[rbp], xmm0

; 8923 :     // [ V1.y*V2.z - V1.z*V2.y, V1.z*V2.x - V1.x*V2.z, V1.x*V2.y - V1.y*V2.x ]
; 8924 : 
; 8925 : #if defined(_XM_NO_INTRINSICS_)
; 8926 :     XMVECTOR vResult = {
; 8927 :         (V1.vector4_f32[1] * V2.vector4_f32[2]) - (V1.vector4_f32[2] * V2.vector4_f32[1]),
; 8928 :         (V1.vector4_f32[2] * V2.vector4_f32[0]) - (V1.vector4_f32[0] * V2.vector4_f32[2]),
; 8929 :         (V1.vector4_f32[0] * V2.vector4_f32[1]) - (V1.vector4_f32[1] * V2.vector4_f32[0]),
; 8930 :         0.0f
; 8931 :     };
; 8932 :     return vResult;
; 8933 : #elif defined(_XM_ARM_NEON_INTRINSICS_)
; 8934 :     float32x2_t v1xy = vget_low_f32(V1);
; 8935 :     float32x2_t v2xy = vget_low_f32(V2);
; 8936 : 
; 8937 :     float32x2_t v1yx = vrev64_f32( v1xy );
; 8938 :     float32x2_t v2yx = vrev64_f32( v2xy );
; 8939 : 
; 8940 :     float32x2_t v1zz = vdup_lane_f32( vget_high_f32(V1), 0 );
; 8941 :     float32x2_t v2zz = vdup_lane_f32( vget_high_f32(V2), 0 );
; 8942 : 
; 8943 :     XMVECTOR vResult = vmulq_f32( vcombine_f32(v1yx,v1xy), vcombine_f32(v2zz,v2yx) );
; 8944 :     vResult = vmlsq_f32( vResult, vcombine_f32(v1zz,v1yx), vcombine_f32(v2yx,v2xy) );
; 8945 :     vResult = veorq_u32( vResult, g_XMFlipY );
; 8946 :     return vandq_u32( vResult, g_XMMask3 );
; 8947 : #elif defined(_XM_SSE_INTRINSICS_)
; 8948 :     // y1,z1,x1,w1
; 8949 :     XMVECTOR vTemp1 = XM_PERMUTE_PS(V1,_MM_SHUFFLE(3,0,2,1));

  0003e	0f 28 45 10	 movaps	 xmm0, XMMWORD PTR V1$[rbp]
  00042	0f c6 45 10 c9	 shufps	 xmm0, XMMWORD PTR V1$[rbp], 201 ; 000000c9H
  00047	0f 29 85 80 02
	00 00		 movaps	 XMMWORD PTR $T1[rbp], xmm0
  0004e	0f 28 85 80 02
	00 00		 movaps	 xmm0, XMMWORD PTR $T1[rbp]
  00055	0f 29 45 70	 movaps	 XMMWORD PTR vTemp1$[rbp], xmm0

; 8950 :     // z2,x2,y2,w2
; 8951 :     XMVECTOR vTemp2 = XM_PERMUTE_PS(V2,_MM_SHUFFLE(3,1,0,2));

  00059	0f 28 45 40	 movaps	 xmm0, XMMWORD PTR V2$[rbp]
  0005d	0f c6 45 40 d2	 shufps	 xmm0, XMMWORD PTR V2$[rbp], 210 ; 000000d2H
  00062	0f 29 85 b0 02
	00 00		 movaps	 XMMWORD PTR $T2[rbp], xmm0
  00069	0f 28 85 b0 02
	00 00		 movaps	 xmm0, XMMWORD PTR $T2[rbp]
  00070	0f 29 85 a0 00
	00 00		 movaps	 XMMWORD PTR vTemp2$[rbp], xmm0

; 8952 :     // Perform the left operation
; 8953 :     XMVECTOR vResult = _mm_mul_ps(vTemp1,vTemp2);

  00077	0f 28 45 70	 movaps	 xmm0, XMMWORD PTR vTemp1$[rbp]
  0007b	0f 59 85 a0 00
	00 00		 mulps	 xmm0, XMMWORD PTR vTemp2$[rbp]
  00082	0f 29 85 e0 02
	00 00		 movaps	 XMMWORD PTR $T3[rbp], xmm0
  00089	0f 28 85 e0 02
	00 00		 movaps	 xmm0, XMMWORD PTR $T3[rbp]
  00090	0f 29 85 d0 00
	00 00		 movaps	 XMMWORD PTR vResult$[rbp], xmm0

; 8954 :     // z1,x1,y1,w1
; 8955 :     vTemp1 = XM_PERMUTE_PS(vTemp1,_MM_SHUFFLE(3,0,2,1));

  00097	0f 28 45 70	 movaps	 xmm0, XMMWORD PTR vTemp1$[rbp]
  0009b	0f c6 45 70 c9	 shufps	 xmm0, XMMWORD PTR vTemp1$[rbp], 201 ; 000000c9H
  000a0	0f 29 85 10 03
	00 00		 movaps	 XMMWORD PTR $T4[rbp], xmm0
  000a7	0f 28 85 10 03
	00 00		 movaps	 xmm0, XMMWORD PTR $T4[rbp]
  000ae	0f 29 45 70	 movaps	 XMMWORD PTR vTemp1$[rbp], xmm0

; 8956 :     // y2,z2,x2,w2
; 8957 :     vTemp2 = XM_PERMUTE_PS(vTemp2,_MM_SHUFFLE(3,1,0,2));

  000b2	0f 28 85 a0 00
	00 00		 movaps	 xmm0, XMMWORD PTR vTemp2$[rbp]
  000b9	0f c6 85 a0 00
	00 00 d2	 shufps	 xmm0, XMMWORD PTR vTemp2$[rbp], 210 ; 000000d2H
  000c1	0f 29 85 40 03
	00 00		 movaps	 XMMWORD PTR $T5[rbp], xmm0
  000c8	0f 28 85 40 03
	00 00		 movaps	 xmm0, XMMWORD PTR $T5[rbp]
  000cf	0f 29 85 a0 00
	00 00		 movaps	 XMMWORD PTR vTemp2$[rbp], xmm0

; 8958 :     // Perform the right operation
; 8959 :     vTemp1 = _mm_mul_ps(vTemp1,vTemp2);

  000d6	0f 28 45 70	 movaps	 xmm0, XMMWORD PTR vTemp1$[rbp]
  000da	0f 59 85 a0 00
	00 00		 mulps	 xmm0, XMMWORD PTR vTemp2$[rbp]
  000e1	0f 29 85 70 03
	00 00		 movaps	 XMMWORD PTR $T6[rbp], xmm0
  000e8	0f 28 85 70 03
	00 00		 movaps	 xmm0, XMMWORD PTR $T6[rbp]
  000ef	0f 29 45 70	 movaps	 XMMWORD PTR vTemp1$[rbp], xmm0

; 8960 :     // Subract the right from left, and return answer
; 8961 :     vResult = _mm_sub_ps(vResult,vTemp1);

  000f3	0f 28 85 d0 00
	00 00		 movaps	 xmm0, XMMWORD PTR vResult$[rbp]
  000fa	0f 5c 45 70	 subps	 xmm0, XMMWORD PTR vTemp1$[rbp]
  000fe	0f 29 85 a0 03
	00 00		 movaps	 XMMWORD PTR $T7[rbp], xmm0
  00105	0f 28 85 a0 03
	00 00		 movaps	 xmm0, XMMWORD PTR $T7[rbp]
  0010c	0f 29 85 d0 00
	00 00		 movaps	 XMMWORD PTR vResult$[rbp], xmm0

; 8962 :     // Set w to zero
; 8963 :     return _mm_and_ps(vResult,g_XMMask3);

  00113	48 8d 95 00 04
	00 00		 lea	 rdx, QWORD PTR $T9[rbp]
  0011a	48 8d 0d 00 00
	00 00		 lea	 rcx, OFFSET FLAT:?g_XMMask3@DirectX@@3UXMVECTORU32@1@B ; DirectX::g_XMMask3
  00121	e8 00 00 00 00	 call	 ??BXMVECTORU32@DirectX@@QEBA?AT__m128@@XZ ; DirectX::XMVECTORU32::operator __m128
  00126	0f 28 85 d0 00
	00 00		 movaps	 xmm0, XMMWORD PTR vResult$[rbp]
  0012d	0f 54 00	 andps	 xmm0, XMMWORD PTR [rax]
  00130	0f 29 85 d0 03
	00 00		 movaps	 XMMWORD PTR $T8[rbp], xmm0
  00137	0f 28 85 d0 03
	00 00		 movaps	 xmm0, XMMWORD PTR $T8[rbp]

; 8964 : #endif
; 8965 : }

  0013e	48 8d a5 28 04
	00 00		 lea	 rsp, QWORD PTR [rbp+1064]
  00145	5f		 pop	 rdi
  00146	5d		 pop	 rbp
  00147	c3		 ret	 0
?XMVector3Cross@DirectX@@YQ?AT__m128@@T2@0@Z ENDP	; DirectX::XMVector3Cross
_TEXT	ENDS
; Function compile flags: /Odtp /RTCsu /ZI
; File c:\program files (x86)\windows kits\8.1\include\um\directxmathvector.inl
;	COMDAT ?XMVectorScale@DirectX@@YQ?AT__m128@@T2@M@Z
_TEXT	SEGMENT
V$ = 16
vResult$ = 64
$T1 = 304
$T2 = 352
ScaleFactor$ = 424
?XMVectorScale@DirectX@@YQ?AT__m128@@T2@M@Z PROC	; DirectX::XMVectorScale, COMDAT

; 2965 : {

$LN3:
  00000	f3 0f 11 4c 24
	10		 movss	 DWORD PTR [rsp+16], xmm1
  00006	55		 push	 rbp
  00007	57		 push	 rdi
  00008	48 81 ec 98 01
	00 00		 sub	 rsp, 408		; 00000198H
  0000f	48 8d 6c 24 10	 lea	 rbp, QWORD PTR [rsp+16]
  00014	48 8b fc	 mov	 rdi, rsp
  00017	b9 66 00 00 00	 mov	 ecx, 102		; 00000066H
  0001c	b8 cc cc cc cc	 mov	 eax, -858993460		; ccccccccH
  00021	f3 ab		 rep stosd
  00023	48 8d 45 10	 lea	 rax, QWORD PTR V$[rbp]
  00027	48 89 84 24 b0
	01 00 00	 mov	 QWORD PTR [rsp+432], rax
  0002f	0f 29 45 10	 movaps	 XMMWORD PTR V$[rbp], xmm0

; 2966 : #if defined(_XM_NO_INTRINSICS_)
; 2967 :     XMVECTOR Result;
; 2968 :     Result.vector4_f32[0] = V.vector4_f32[0] * ScaleFactor;
; 2969 :     Result.vector4_f32[1] = V.vector4_f32[1] * ScaleFactor;
; 2970 :     Result.vector4_f32[2] = V.vector4_f32[2] * ScaleFactor;
; 2971 :     Result.vector4_f32[3] = V.vector4_f32[3] * ScaleFactor;
; 2972 :     return Result;
; 2973 : #elif defined(_XM_ARM_NEON_INTRINSICS_)
; 2974 :     return XM_VMULQ_N_F32( V, ScaleFactor );
; 2975 : #elif defined(_XM_SSE_INTRINSICS_)
; 2976 :    XMVECTOR vResult = _mm_set_ps1(ScaleFactor);

  00033	f3 0f 10 85 a8
	01 00 00	 movss	 xmm0, DWORD PTR ScaleFactor$[rbp]
  0003b	0f c6 c0 00	 shufps	 xmm0, xmm0, 0
  0003f	0f 29 85 30 01
	00 00		 movaps	 XMMWORD PTR $T1[rbp], xmm0
  00046	0f 28 85 30 01
	00 00		 movaps	 xmm0, XMMWORD PTR $T1[rbp]
  0004d	0f 29 45 40	 movaps	 XMMWORD PTR vResult$[rbp], xmm0

; 2977 :    return _mm_mul_ps(vResult,V);

  00051	0f 28 45 40	 movaps	 xmm0, XMMWORD PTR vResult$[rbp]
  00055	0f 59 45 10	 mulps	 xmm0, XMMWORD PTR V$[rbp]
  00059	0f 29 85 60 01
	00 00		 movaps	 XMMWORD PTR $T2[rbp], xmm0
  00060	0f 28 85 60 01
	00 00		 movaps	 xmm0, XMMWORD PTR $T2[rbp]

; 2978 : #endif
; 2979 : }

  00067	48 8d a5 88 01
	00 00		 lea	 rsp, QWORD PTR [rbp+392]
  0006e	5f		 pop	 rdi
  0006f	5d		 pop	 rbp
  00070	c3		 ret	 0
?XMVectorScale@DirectX@@YQ?AT__m128@@T2@M@Z ENDP	; DirectX::XMVectorScale
_TEXT	ENDS
; Function compile flags: /Odtp /RTCsu /ZI
; File c:\program files (x86)\windows kits\8.1\include\um\directxmathvector.inl
;	COMDAT ?XMVectorSubtract@DirectX@@YQ?AT__m128@@T2@0@Z
_TEXT	SEGMENT
V1$ = 16
V2$ = 64
$T1 = 304
?XMVectorSubtract@DirectX@@YQ?AT__m128@@T2@0@Z PROC	; DirectX::XMVectorSubtract, COMDAT

; 2784 : {

$LN3:
  00000	40 55		 push	 rbp
  00002	57		 push	 rdi
  00003	48 81 ec 68 01
	00 00		 sub	 rsp, 360		; 00000168H
  0000a	48 8d 6c 24 10	 lea	 rbp, QWORD PTR [rsp+16]
  0000f	48 8b fc	 mov	 rdi, rsp
  00012	b9 5a 00 00 00	 mov	 ecx, 90			; 0000005aH
  00017	b8 cc cc cc cc	 mov	 eax, -858993460		; ccccccccH
  0001c	f3 ab		 rep stosd
  0001e	48 8d 45 10	 lea	 rax, QWORD PTR V1$[rbp]
  00022	48 89 84 24 80
	01 00 00	 mov	 QWORD PTR [rsp+384], rax
  0002a	48 8d 45 40	 lea	 rax, QWORD PTR V2$[rbp]
  0002e	48 89 84 24 88
	01 00 00	 mov	 QWORD PTR [rsp+392], rax
  00036	0f 29 4d 40	 movaps	 XMMWORD PTR V2$[rbp], xmm1
  0003a	0f 29 45 10	 movaps	 XMMWORD PTR V1$[rbp], xmm0

; 2785 : #if defined(_XM_NO_INTRINSICS_)
; 2786 : 
; 2787 :     XMVECTOR Result;
; 2788 :     Result.vector4_f32[0] = V1.vector4_f32[0] - V2.vector4_f32[0];
; 2789 :     Result.vector4_f32[1] = V1.vector4_f32[1] - V2.vector4_f32[1];
; 2790 :     Result.vector4_f32[2] = V1.vector4_f32[2] - V2.vector4_f32[2];
; 2791 :     Result.vector4_f32[3] = V1.vector4_f32[3] - V2.vector4_f32[3];
; 2792 :     return Result;
; 2793 : 
; 2794 : #elif defined(_XM_ARM_NEON_INTRINSICS_)
; 2795 :     return vsubq_f32( V1, V2 );
; 2796 : #elif defined(_XM_SSE_INTRINSICS_)
; 2797 :     return _mm_sub_ps( V1, V2 );

  0003e	0f 28 45 10	 movaps	 xmm0, XMMWORD PTR V1$[rbp]
  00042	0f 5c 45 40	 subps	 xmm0, XMMWORD PTR V2$[rbp]
  00046	0f 29 85 30 01
	00 00		 movaps	 XMMWORD PTR $T1[rbp], xmm0
  0004d	0f 28 85 30 01
	00 00		 movaps	 xmm0, XMMWORD PTR $T1[rbp]

; 2798 : #endif
; 2799 : }

  00054	48 8d a5 58 01
	00 00		 lea	 rsp, QWORD PTR [rbp+344]
  0005b	5f		 pop	 rdi
  0005c	5d		 pop	 rbp
  0005d	c3		 ret	 0
?XMVectorSubtract@DirectX@@YQ?AT__m128@@T2@0@Z ENDP	; DirectX::XMVectorSubtract
_TEXT	ENDS
; Function compile flags: /Odtp /RTCsu /ZI
; File c:\program files (x86)\windows kits\8.1\include\um\directxmathvector.inl
;	COMDAT ?XMVectorAdd@DirectX@@YQ?AT__m128@@T2@0@Z
_TEXT	SEGMENT
V1$ = 16
V2$ = 64
$T1 = 304
?XMVectorAdd@DirectX@@YQ?AT__m128@@T2@0@Z PROC		; DirectX::XMVectorAdd, COMDAT

; 2701 : {

$LN3:
  00000	40 55		 push	 rbp
  00002	57		 push	 rdi
  00003	48 81 ec 68 01
	00 00		 sub	 rsp, 360		; 00000168H
  0000a	48 8d 6c 24 10	 lea	 rbp, QWORD PTR [rsp+16]
  0000f	48 8b fc	 mov	 rdi, rsp
  00012	b9 5a 00 00 00	 mov	 ecx, 90			; 0000005aH
  00017	b8 cc cc cc cc	 mov	 eax, -858993460		; ccccccccH
  0001c	f3 ab		 rep stosd
  0001e	48 8d 45 10	 lea	 rax, QWORD PTR V1$[rbp]
  00022	48 89 84 24 80
	01 00 00	 mov	 QWORD PTR [rsp+384], rax
  0002a	48 8d 45 40	 lea	 rax, QWORD PTR V2$[rbp]
  0002e	48 89 84 24 88
	01 00 00	 mov	 QWORD PTR [rsp+392], rax
  00036	0f 29 4d 40	 movaps	 XMMWORD PTR V2$[rbp], xmm1
  0003a	0f 29 45 10	 movaps	 XMMWORD PTR V1$[rbp], xmm0

; 2702 : #if defined(_XM_NO_INTRINSICS_)
; 2703 : 
; 2704 :     XMVECTOR Result;
; 2705 :     Result.vector4_f32[0] = V1.vector4_f32[0] + V2.vector4_f32[0];
; 2706 :     Result.vector4_f32[1] = V1.vector4_f32[1] + V2.vector4_f32[1];
; 2707 :     Result.vector4_f32[2] = V1.vector4_f32[2] + V2.vector4_f32[2];
; 2708 :     Result.vector4_f32[3] = V1.vector4_f32[3] + V2.vector4_f32[3];
; 2709 :     return Result;
; 2710 : 
; 2711 : #elif defined(_XM_ARM_NEON_INTRINSICS_)
; 2712 :     return vaddq_f32( V1, V2 );
; 2713 : #elif defined(_XM_SSE_INTRINSICS_)
; 2714 :     return _mm_add_ps( V1, V2 );

  0003e	0f 28 45 10	 movaps	 xmm0, XMMWORD PTR V1$[rbp]
  00042	0f 58 45 40	 addps	 xmm0, XMMWORD PTR V2$[rbp]
  00046	0f 29 85 30 01
	00 00		 movaps	 XMMWORD PTR $T1[rbp], xmm0
  0004d	0f 28 85 30 01
	00 00		 movaps	 xmm0, XMMWORD PTR $T1[rbp]

; 2715 : #endif
; 2716 : }

  00054	48 8d a5 58 01
	00 00		 lea	 rsp, QWORD PTR [rbp+344]
  0005b	5f		 pop	 rdi
  0005c	5d		 pop	 rbp
  0005d	c3		 ret	 0
?XMVectorAdd@DirectX@@YQ?AT__m128@@T2@0@Z ENDP		; DirectX::XMVectorAdd
_TEXT	ENDS
; Function compile flags: /Odtp /RTCsu /ZI
; File c:\program files (x86)\windows kits\8.1\include\um\directxmathvector.inl
;	COMDAT ?XMVectorNegate@DirectX@@YQ?AT__m128@@T2@@Z
_TEXT	SEGMENT
V$ = 16
Z$ = 64
$T1 = 304
$T2 = 352
?XMVectorNegate@DirectX@@YQ?AT__m128@@T2@@Z PROC	; DirectX::XMVectorNegate, COMDAT

; 2673 : {

$LN3:
  00000	40 55		 push	 rbp
  00002	57		 push	 rdi
  00003	48 81 ec 98 01
	00 00		 sub	 rsp, 408		; 00000198H
  0000a	48 8d 6c 24 10	 lea	 rbp, QWORD PTR [rsp+16]
  0000f	48 8b fc	 mov	 rdi, rsp
  00012	b9 66 00 00 00	 mov	 ecx, 102		; 00000066H
  00017	b8 cc cc cc cc	 mov	 eax, -858993460		; ccccccccH
  0001c	f3 ab		 rep stosd
  0001e	48 8d 45 10	 lea	 rax, QWORD PTR V$[rbp]
  00022	48 89 84 24 b0
	01 00 00	 mov	 QWORD PTR [rsp+432], rax
  0002a	0f 29 45 10	 movaps	 XMMWORD PTR V$[rbp], xmm0

; 2674 : #if defined(_XM_NO_INTRINSICS_)
; 2675 : 
; 2676 :     XMVECTOR Result;
; 2677 :     Result.vector4_f32[0] = -V.vector4_f32[0];
; 2678 :     Result.vector4_f32[1] = -V.vector4_f32[1];
; 2679 :     Result.vector4_f32[2] = -V.vector4_f32[2];
; 2680 :     Result.vector4_f32[3] = -V.vector4_f32[3];
; 2681 :     return Result;
; 2682 : 
; 2683 : #elif defined(_XM_ARM_NEON_INTRINSICS_)
; 2684 :     return vnegq_f32(V);
; 2685 : #elif defined(_XM_SSE_INTRINSICS_)
; 2686 :     XMVECTOR Z;
; 2687 : 
; 2688 :     Z = _mm_setzero_ps();

  0002e	0f 57 c0	 xorps	 xmm0, xmm0
  00031	0f 29 85 30 01
	00 00		 movaps	 XMMWORD PTR $T1[rbp], xmm0
  00038	0f 28 85 30 01
	00 00		 movaps	 xmm0, XMMWORD PTR $T1[rbp]
  0003f	0f 29 45 40	 movaps	 XMMWORD PTR Z$[rbp], xmm0

; 2689 : 
; 2690 :     return _mm_sub_ps( Z, V );

  00043	0f 28 45 40	 movaps	 xmm0, XMMWORD PTR Z$[rbp]
  00047	0f 5c 45 10	 subps	 xmm0, XMMWORD PTR V$[rbp]
  0004b	0f 29 85 60 01
	00 00		 movaps	 XMMWORD PTR $T2[rbp], xmm0
  00052	0f 28 85 60 01
	00 00		 movaps	 xmm0, XMMWORD PTR $T2[rbp]

; 2691 : #endif
; 2692 : }

  00059	48 8d a5 88 01
	00 00		 lea	 rsp, QWORD PTR [rbp+392]
  00060	5f		 pop	 rdi
  00061	5d		 pop	 rbp
  00062	c3		 ret	 0
?XMVectorNegate@DirectX@@YQ?AT__m128@@T2@@Z ENDP	; DirectX::XMVectorNegate
_TEXT	ENDS
; Function compile flags: /Odtp /RTCsu /ZI
; File c:\program files (x86)\windows kits\8.1\include\um\directxmathvector.inl
;	COMDAT ?XMVectorSetY@DirectX@@YQ?AT__m128@@T2@M@Z
_TEXT	SEGMENT
V$ = 16
vResult$ = 64
vTemp$ = 112
$T1 = 352
$T2 = 400
$T3 = 448
$T4 = 496
y$ = 568
?XMVectorSetY@DirectX@@YQ?AT__m128@@T2@M@Z PROC		; DirectX::XMVectorSetY, COMDAT

; 742  : {

$LN3:
  00000	f3 0f 11 4c 24
	10		 movss	 DWORD PTR [rsp+16], xmm1
  00006	55		 push	 rbp
  00007	57		 push	 rdi
  00008	48 81 ec 28 02
	00 00		 sub	 rsp, 552		; 00000228H
  0000f	48 8d 6c 24 10	 lea	 rbp, QWORD PTR [rsp+16]
  00014	48 8b fc	 mov	 rdi, rsp
  00017	b9 8a 00 00 00	 mov	 ecx, 138		; 0000008aH
  0001c	b8 cc cc cc cc	 mov	 eax, -858993460		; ccccccccH
  00021	f3 ab		 rep stosd
  00023	48 8d 45 10	 lea	 rax, QWORD PTR V$[rbp]
  00027	48 89 84 24 40
	02 00 00	 mov	 QWORD PTR [rsp+576], rax
  0002f	0f 29 45 10	 movaps	 XMMWORD PTR V$[rbp], xmm0

; 743  : #if defined(_XM_NO_INTRINSICS_)
; 744  :     XMVECTOR U;
; 745  :     U.vector4_f32[0] = V.vector4_f32[0];
; 746  :     U.vector4_f32[1] = y;
; 747  :     U.vector4_f32[2] = V.vector4_f32[2];
; 748  :     U.vector4_f32[3] = V.vector4_f32[3];
; 749  :     return U;
; 750  : #elif defined(_XM_ARM_NEON_INTRINSICS_)
; 751  :     return vsetq_lane_f32(y,V,1);
; 752  : #elif defined(_XM_SSE_INTRINSICS_)
; 753  :     // Swap y and x
; 754  :     XMVECTOR vResult = XM_PERMUTE_PS(V,_MM_SHUFFLE(3,2,0,1));

  00033	0f 28 45 10	 movaps	 xmm0, XMMWORD PTR V$[rbp]
  00037	0f c6 45 10 e1	 shufps	 xmm0, XMMWORD PTR V$[rbp], 225 ; 000000e1H
  0003c	0f 29 85 60 01
	00 00		 movaps	 XMMWORD PTR $T1[rbp], xmm0
  00043	0f 28 85 60 01
	00 00		 movaps	 xmm0, XMMWORD PTR $T1[rbp]
  0004a	0f 29 45 40	 movaps	 XMMWORD PTR vResult$[rbp], xmm0

; 755  :     // Convert input to vector
; 756  :     XMVECTOR vTemp = _mm_set_ss(y);

  0004e	f3 0f 10 85 38
	02 00 00	 movss	 xmm0, DWORD PTR y$[rbp]
  00056	0f 57 c9	 xorps	 xmm1, xmm1
  00059	f3 0f 10 c8	 movss	 xmm1, xmm0
  0005d	0f 28 c1	 movaps	 xmm0, xmm1
  00060	0f 29 85 90 01
	00 00		 movaps	 XMMWORD PTR $T2[rbp], xmm0
  00067	0f 28 85 90 01
	00 00		 movaps	 xmm0, XMMWORD PTR $T2[rbp]
  0006e	0f 29 45 70	 movaps	 XMMWORD PTR vTemp$[rbp], xmm0

; 757  :     // Replace the x component
; 758  :     vResult = _mm_move_ss(vResult,vTemp);

  00072	0f 28 45 40	 movaps	 xmm0, XMMWORD PTR vResult$[rbp]
  00076	0f 28 4d 70	 movaps	 xmm1, XMMWORD PTR vTemp$[rbp]
  0007a	f3 0f 10 c1	 movss	 xmm0, xmm1
  0007e	0f 29 85 c0 01
	00 00		 movaps	 XMMWORD PTR $T3[rbp], xmm0
  00085	0f 28 85 c0 01
	00 00		 movaps	 xmm0, XMMWORD PTR $T3[rbp]
  0008c	0f 29 45 40	 movaps	 XMMWORD PTR vResult$[rbp], xmm0

; 759  :     // Swap y and x again
; 760  :     vResult = XM_PERMUTE_PS(vResult,_MM_SHUFFLE(3,2,0,1));

  00090	0f 28 45 40	 movaps	 xmm0, XMMWORD PTR vResult$[rbp]
  00094	0f c6 45 40 e1	 shufps	 xmm0, XMMWORD PTR vResult$[rbp], 225 ; 000000e1H
  00099	0f 29 85 f0 01
	00 00		 movaps	 XMMWORD PTR $T4[rbp], xmm0
  000a0	0f 28 85 f0 01
	00 00		 movaps	 xmm0, XMMWORD PTR $T4[rbp]
  000a7	0f 29 45 40	 movaps	 XMMWORD PTR vResult$[rbp], xmm0

; 761  :     return vResult;

  000ab	0f 28 45 40	 movaps	 xmm0, XMMWORD PTR vResult$[rbp]

; 762  : #endif
; 763  : }

  000af	48 8d a5 18 02
	00 00		 lea	 rsp, QWORD PTR [rbp+536]
  000b6	5f		 pop	 rdi
  000b7	5d		 pop	 rbp
  000b8	c3		 ret	 0
?XMVectorSetY@DirectX@@YQ?AT__m128@@T2@M@Z ENDP		; DirectX::XMVectorSetY
_TEXT	ENDS
; Function compile flags: /Odtp /RTCsu /ZI
; File c:\program files (x86)\windows kits\8.1\include\um\directxmathvector.inl
;	COMDAT ?XMVectorGetY@DirectX@@YQMT__m128@@@Z
_TEXT	SEGMENT
V$ = 16
vTemp$ = 64
$T1 = 304
tv70 = 324
?XMVectorGetY@DirectX@@YQMT__m128@@@Z PROC		; DirectX::XMVectorGetY, COMDAT

; 431  : {

$LN3:
  00000	40 55		 push	 rbp
  00002	57		 push	 rdi
  00003	48 81 ec 68 01
	00 00		 sub	 rsp, 360		; 00000168H
  0000a	48 8d 6c 24 10	 lea	 rbp, QWORD PTR [rsp+16]
  0000f	48 8b fc	 mov	 rdi, rsp
  00012	b9 5a 00 00 00	 mov	 ecx, 90			; 0000005aH
  00017	b8 cc cc cc cc	 mov	 eax, -858993460		; ccccccccH
  0001c	f3 ab		 rep stosd
  0001e	48 8d 45 10	 lea	 rax, QWORD PTR V$[rbp]
  00022	48 89 84 24 80
	01 00 00	 mov	 QWORD PTR [rsp+384], rax
  0002a	0f 29 45 10	 movaps	 XMMWORD PTR V$[rbp], xmm0

; 432  : #if defined(_XM_NO_INTRINSICS_)
; 433  :     return V.vector4_f32[1];
; 434  : #elif defined(_XM_ARM_NEON_INTRINSICS_)
; 435  :     return vgetq_lane_f32(V, 1);
; 436  : #elif defined(_XM_SSE_INTRINSICS_)
; 437  :     XMVECTOR vTemp = XM_PERMUTE_PS(V,_MM_SHUFFLE(1,1,1,1));

  0002e	0f 28 45 10	 movaps	 xmm0, XMMWORD PTR V$[rbp]
  00032	0f c6 45 10 55	 shufps	 xmm0, XMMWORD PTR V$[rbp], 85 ; 00000055H
  00037	0f 29 85 30 01
	00 00		 movaps	 XMMWORD PTR $T1[rbp], xmm0
  0003e	0f 28 85 30 01
	00 00		 movaps	 xmm0, XMMWORD PTR $T1[rbp]
  00045	0f 29 45 40	 movaps	 XMMWORD PTR vTemp$[rbp], xmm0

; 438  :     return _mm_cvtss_f32(vTemp);

  00049	0f 28 45 40	 movaps	 xmm0, XMMWORD PTR vTemp$[rbp]
  0004d	f3 0f 11 85 44
	01 00 00	 movss	 DWORD PTR tv70[rbp], xmm0
  00055	f3 0f 10 85 44
	01 00 00	 movss	 xmm0, DWORD PTR tv70[rbp]

; 439  : #endif
; 440  : }

  0005d	48 8d a5 58 01
	00 00		 lea	 rsp, QWORD PTR [rbp+344]
  00064	5f		 pop	 rdi
  00065	5d		 pop	 rbp
  00066	c3		 ret	 0
?XMVectorGetY@DirectX@@YQMT__m128@@@Z ENDP		; DirectX::XMVectorGetY
_TEXT	ENDS
; Function compile flags: /Odtp /RTCsu /ZI
; File c:\program files (x86)\windows kits\8.1\include\um\directxmathvector.inl
;	COMDAT ?XMVectorGetX@DirectX@@YQMT__m128@@@Z
_TEXT	SEGMENT
V$ = 16
tv66 = 228
?XMVectorGetX@DirectX@@YQMT__m128@@@Z PROC		; DirectX::XMVectorGetX, COMDAT

; 419  : {

$LN3:
  00000	40 55		 push	 rbp
  00002	57		 push	 rdi
  00003	48 81 ec 08 01
	00 00		 sub	 rsp, 264		; 00000108H
  0000a	48 8d 6c 24 10	 lea	 rbp, QWORD PTR [rsp+16]
  0000f	48 8b fc	 mov	 rdi, rsp
  00012	b9 42 00 00 00	 mov	 ecx, 66			; 00000042H
  00017	b8 cc cc cc cc	 mov	 eax, -858993460		; ccccccccH
  0001c	f3 ab		 rep stosd
  0001e	48 8d 45 10	 lea	 rax, QWORD PTR V$[rbp]
  00022	48 89 84 24 20
	01 00 00	 mov	 QWORD PTR [rsp+288], rax
  0002a	0f 29 45 10	 movaps	 XMMWORD PTR V$[rbp], xmm0

; 420  : #if defined(_XM_NO_INTRINSICS_)
; 421  :     return V.vector4_f32[0];
; 422  : #elif defined(_XM_ARM_NEON_INTRINSICS_)
; 423  :     return vgetq_lane_f32(V, 0);
; 424  : #elif defined(_XM_SSE_INTRINSICS_)
; 425  :     return _mm_cvtss_f32(V);

  0002e	0f 28 45 10	 movaps	 xmm0, XMMWORD PTR V$[rbp]
  00032	f3 0f 11 85 e4
	00 00 00	 movss	 DWORD PTR tv66[rbp], xmm0
  0003a	f3 0f 10 85 e4
	00 00 00	 movss	 xmm0, DWORD PTR tv66[rbp]

; 426  : #endif
; 427  : }

  00042	48 8d a5 f8 00
	00 00		 lea	 rsp, QWORD PTR [rbp+248]
  00049	5f		 pop	 rdi
  0004a	5d		 pop	 rbp
  0004b	c3		 ret	 0
?XMVectorGetX@DirectX@@YQMT__m128@@@Z ENDP		; DirectX::XMVectorGetX
_TEXT	ENDS
; Function compile flags: /Odtp /RTCsu /ZI
; File c:\program files (x86)\windows kits\8.1\include\um\directxmathvector.inl
;	COMDAT ?XMVectorSet@DirectX@@YQ?AT__m128@@MMMM@Z
_TEXT	SEGMENT
$T1 = 208
x$ = 272
y$ = 280
z$ = 288
w$ = 296
?XMVectorSet@DirectX@@YQ?AT__m128@@MMMM@Z PROC		; DirectX::XMVectorSet, COMDAT

; 71   : {

$LN3:
  00000	f3 0f 11 5c 24
	20		 movss	 DWORD PTR [rsp+32], xmm3
  00006	f3 0f 11 54 24
	18		 movss	 DWORD PTR [rsp+24], xmm2
  0000c	f3 0f 11 4c 24
	10		 movss	 DWORD PTR [rsp+16], xmm1
  00012	f3 0f 11 44 24
	08		 movss	 DWORD PTR [rsp+8], xmm0
  00018	55		 push	 rbp
  00019	57		 push	 rdi
  0001a	48 81 ec 08 01
	00 00		 sub	 rsp, 264		; 00000108H
  00021	48 8d 6c 24 10	 lea	 rbp, QWORD PTR [rsp+16]
  00026	48 8b fc	 mov	 rdi, rsp
  00029	b9 42 00 00 00	 mov	 ecx, 66			; 00000042H
  0002e	b8 cc cc cc cc	 mov	 eax, -858993460		; ccccccccH
  00033	f3 ab		 rep stosd

; 72   : #if defined(_XM_NO_INTRINSICS_)
; 73   :     XMVECTORF32 vResult = {x,y,z,w};
; 74   :     return vResult.v;
; 75   : #elif defined(_XM_ARM_NEON_INTRINSICS_)
; 76   :     float32x2_t V0 = vcreate_f32(((uint64_t)*(const uint32_t *)&x) | ((uint64_t)(*(const uint32_t *)&y) << 32));
; 77   :     float32x2_t V1 = vcreate_f32(((uint64_t)*(const uint32_t *)&z) | ((uint64_t)(*(const uint32_t *)&w) << 32));
; 78   :     return vcombine_f32(V0, V1);
; 79   : #elif defined(_XM_SSE_INTRINSICS_)
; 80   :     return _mm_set_ps( w, z, y, x );

  00035	f3 0f 10 85 28
	01 00 00	 movss	 xmm0, DWORD PTR w$[rbp]
  0003d	f3 0f 10 8d 20
	01 00 00	 movss	 xmm1, DWORD PTR z$[rbp]
  00045	f3 0f 10 95 18
	01 00 00	 movss	 xmm2, DWORD PTR y$[rbp]
  0004d	f3 0f 10 9d 10
	01 00 00	 movss	 xmm3, DWORD PTR x$[rbp]
  00055	0f 14 d9	 unpcklps xmm3, xmm1
  00058	0f 14 d0	 unpcklps xmm2, xmm0
  0005b	0f 28 c3	 movaps	 xmm0, xmm3
  0005e	0f 14 c2	 unpcklps xmm0, xmm2
  00061	0f 29 85 d0 00
	00 00		 movaps	 XMMWORD PTR $T1[rbp], xmm0
  00068	0f 28 85 d0 00
	00 00		 movaps	 xmm0, XMMWORD PTR $T1[rbp]

; 81   : #endif
; 82   : }

  0006f	48 8d a5 f8 00
	00 00		 lea	 rsp, QWORD PTR [rbp+248]
  00076	5f		 pop	 rdi
  00077	5d		 pop	 rbp
  00078	c3		 ret	 0
?XMVectorSet@DirectX@@YQ?AT__m128@@MMMM@Z ENDP		; DirectX::XMVectorSet
_TEXT	ENDS
; Function compile flags: /Odtp /RTCsu /ZI
; File c:\program files (x86)\windows kits\8.1\include\um\directxmathconvert.inl
;	COMDAT ?XMLoadFloat4x4@DirectX@@YQ?AUXMMATRIX@1@PEBUXMFLOAT4X4@1@@Z
_TEXT	SEGMENT
M$ = 16
$T4 = 304
$T5 = 352
$T6 = 400
$T7 = 448
__$ArrayPad$ = 472
pSource$ = 512
?XMLoadFloat4x4@DirectX@@YQ?AUXMMATRIX@1@PEBUXMFLOAT4X4@1@@Z PROC ; DirectX::XMLoadFloat4x4, COMDAT

; 1013 : {

$LN4:
  00000	48 89 4c 24 08	 mov	 QWORD PTR [rsp+8], rcx
  00005	55		 push	 rbp
  00006	57		 push	 rdi
  00007	48 81 ec 18 02
	00 00		 sub	 rsp, 536		; 00000218H
  0000e	48 8d 6c 24 30	 lea	 rbp, QWORD PTR [rsp+48]
  00013	48 8b fc	 mov	 rdi, rsp
  00016	b9 86 00 00 00	 mov	 ecx, 134		; 00000086H
  0001b	b8 cc cc cc cc	 mov	 eax, -858993460		; ccccccccH
  00020	f3 ab		 rep stosd
  00022	48 8b 8c 24 38
	02 00 00	 mov	 rcx, QWORD PTR [rsp+568]
  0002a	48 8b 05 00 00
	00 00		 mov	 rax, QWORD PTR __security_cookie
  00031	48 33 c5	 xor	 rax, rbp
  00034	48 89 85 d8 01
	00 00		 mov	 QWORD PTR __$ArrayPad$[rbp], rax

; 1014 :     assert(pSource);

  0003b	48 83 bd 00 02
	00 00 00	 cmp	 QWORD PTR pSource$[rbp], 0
  00043	75 21		 jne	 SHORT $LN3@XMLoadFloa
  00045	8b 05 00 00 00
	00		 mov	 eax, DWORD PTR ?__LINE__Var@?0??XMLoadFloat4x4@DirectX@@YQ?AUXMMATRIX@2@PEBUXMFLOAT4X4@2@@Z@4JA
  0004b	ff c0		 inc	 eax
  0004d	44 8b c0	 mov	 r8d, eax
  00050	48 8d 15 00 00
	00 00		 lea	 rdx, OFFSET FLAT:??_C@_1JE@DMOBBMDE@?$AAc?$AA?3?$AA?2?$AAp?$AAr?$AAo?$AAg?$AAr?$AAa?$AAm?$AA?5?$AAf?$AAi?$AAl?$AAe?$AAs?$AA?5?$AA?$CI?$AAx?$AA8?$AA6?$AA?$CJ?$AA?2?$AAw?$AAi?$AAn?$AAd?$AAo?$AAw?$AAs?$AA?5?$AAk@
  00057	48 8d 0d 00 00
	00 00		 lea	 rcx, OFFSET FLAT:??_C@_1BA@LBADLIHI@?$AAp?$AAS?$AAo?$AAu?$AAr?$AAc?$AAe?$AA?$AA@
  0005e	ff 15 00 00 00
	00		 call	 QWORD PTR __imp__wassert
  00064	33 c0		 xor	 eax, eax
$LN3@XMLoadFloa:

; 1015 : #if defined(_XM_NO_INTRINSICS_)
; 1016 : 
; 1017 :     XMMATRIX M;
; 1018 :     M.r[0].vector4_f32[0] = pSource->m[0][0];
; 1019 :     M.r[0].vector4_f32[1] = pSource->m[0][1];
; 1020 :     M.r[0].vector4_f32[2] = pSource->m[0][2];
; 1021 :     M.r[0].vector4_f32[3] = pSource->m[0][3];
; 1022 : 
; 1023 :     M.r[1].vector4_f32[0] = pSource->m[1][0];
; 1024 :     M.r[1].vector4_f32[1] = pSource->m[1][1];
; 1025 :     M.r[1].vector4_f32[2] = pSource->m[1][2];
; 1026 :     M.r[1].vector4_f32[3] = pSource->m[1][3];
; 1027 : 
; 1028 :     M.r[2].vector4_f32[0] = pSource->m[2][0];
; 1029 :     M.r[2].vector4_f32[1] = pSource->m[2][1];
; 1030 :     M.r[2].vector4_f32[2] = pSource->m[2][2];
; 1031 :     M.r[2].vector4_f32[3] = pSource->m[2][3];
; 1032 : 
; 1033 :     M.r[3].vector4_f32[0] = pSource->m[3][0];
; 1034 :     M.r[3].vector4_f32[1] = pSource->m[3][1];
; 1035 :     M.r[3].vector4_f32[2] = pSource->m[3][2];
; 1036 :     M.r[3].vector4_f32[3] = pSource->m[3][3];
; 1037 :     return M;
; 1038 : 
; 1039 : #elif defined(_XM_ARM_NEON_INTRINSICS_)
; 1040 :     XMMATRIX M;
; 1041 :     M.r[0] = vld1q_f32( reinterpret_cast<const float*>(&pSource->_11) );
; 1042 :     M.r[1] = vld1q_f32( reinterpret_cast<const float*>(&pSource->_21) );
; 1043 :     M.r[2] = vld1q_f32( reinterpret_cast<const float*>(&pSource->_31) );
; 1044 :     M.r[3] = vld1q_f32( reinterpret_cast<const float*>(&pSource->_41) );
; 1045 :     return M;
; 1046 : #elif defined(_XM_SSE_INTRINSICS_)
; 1047 :     XMMATRIX M;

  00066	48 8d 4d 10	 lea	 rcx, QWORD PTR M$[rbp]
  0006a	e8 00 00 00 00	 call	 ??0XMMATRIX@DirectX@@QEAA@XZ ; DirectX::XMMATRIX::XMMATRIX

; 1048 :     M.r[0] = _mm_loadu_ps( &pSource->_11 );

  0006f	48 8b 85 00 02
	00 00		 mov	 rax, QWORD PTR pSource$[rbp]
  00076	0f 10 00	 movups	 xmm0, XMMWORD PTR [rax]
  00079	0f 29 85 30 01
	00 00		 movaps	 XMMWORD PTR $T4[rbp], xmm0
  00080	b8 10 00 00 00	 mov	 eax, 16
  00085	48 6b c0 00	 imul	 rax, rax, 0
  00089	0f 28 85 30 01
	00 00		 movaps	 xmm0, XMMWORD PTR $T4[rbp]
  00090	0f 11 44 05 10	 movups	 XMMWORD PTR M$[rbp+rax], xmm0

; 1049 :     M.r[1] = _mm_loadu_ps( &pSource->_21 );

  00095	48 8b 85 00 02
	00 00		 mov	 rax, QWORD PTR pSource$[rbp]
  0009c	48 83 c0 10	 add	 rax, 16
  000a0	0f 10 00	 movups	 xmm0, XMMWORD PTR [rax]
  000a3	0f 29 85 60 01
	00 00		 movaps	 XMMWORD PTR $T5[rbp], xmm0
  000aa	b8 10 00 00 00	 mov	 eax, 16
  000af	48 6b c0 01	 imul	 rax, rax, 1
  000b3	0f 28 85 60 01
	00 00		 movaps	 xmm0, XMMWORD PTR $T5[rbp]
  000ba	0f 11 44 05 10	 movups	 XMMWORD PTR M$[rbp+rax], xmm0

; 1050 :     M.r[2] = _mm_loadu_ps( &pSource->_31 );

  000bf	48 8b 85 00 02
	00 00		 mov	 rax, QWORD PTR pSource$[rbp]
  000c6	48 83 c0 20	 add	 rax, 32			; 00000020H
  000ca	0f 10 00	 movups	 xmm0, XMMWORD PTR [rax]
  000cd	0f 29 85 90 01
	00 00		 movaps	 XMMWORD PTR $T6[rbp], xmm0
  000d4	b8 10 00 00 00	 mov	 eax, 16
  000d9	48 6b c0 02	 imul	 rax, rax, 2
  000dd	0f 28 85 90 01
	00 00		 movaps	 xmm0, XMMWORD PTR $T6[rbp]
  000e4	0f 11 44 05 10	 movups	 XMMWORD PTR M$[rbp+rax], xmm0

; 1051 :     M.r[3] = _mm_loadu_ps( &pSource->_41 );

  000e9	48 8b 85 00 02
	00 00		 mov	 rax, QWORD PTR pSource$[rbp]
  000f0	48 83 c0 30	 add	 rax, 48			; 00000030H
  000f4	0f 10 00	 movups	 xmm0, XMMWORD PTR [rax]
  000f7	0f 29 85 c0 01
	00 00		 movaps	 XMMWORD PTR $T7[rbp], xmm0
  000fe	b8 10 00 00 00	 mov	 eax, 16
  00103	48 6b c0 03	 imul	 rax, rax, 3
  00107	0f 28 85 c0 01
	00 00		 movaps	 xmm0, XMMWORD PTR $T7[rbp]
  0010e	0f 11 44 05 10	 movups	 XMMWORD PTR M$[rbp+rax], xmm0

; 1052 :     return M;

  00113	0f 28 5d 40	 movaps	 xmm3, XMMWORD PTR M$[rbp+48]
  00117	0f 28 55 30	 movaps	 xmm2, XMMWORD PTR M$[rbp+32]
  0011b	0f 28 4d 20	 movaps	 xmm1, XMMWORD PTR M$[rbp+16]
  0011f	0f 28 45 10	 movaps	 xmm0, XMMWORD PTR M$[rbp]

; 1053 : #endif
; 1054 : }

  00123	f3 0f 7f 44 24
	20		 movdqu	 XMMWORD PTR [rsp+32], xmm0
  00129	48 8d 4d d0	 lea	 rcx, QWORD PTR [rbp-48]
  0012d	48 8d 15 00 00
	00 00		 lea	 rdx, OFFSET FLAT:?XMLoadFloat4x4@DirectX@@YQ?AUXMMATRIX@1@PEBUXMFLOAT4X4@1@@Z$rtcFrameData
  00134	e8 00 00 00 00	 call	 _RTC_CheckStackVars
  00139	f3 0f 6f 44 24
	20		 movdqu	 xmm0, XMMWORD PTR [rsp+32]
  0013f	48 8b 8d d8 01
	00 00		 mov	 rcx, QWORD PTR __$ArrayPad$[rbp]
  00146	48 33 cd	 xor	 rcx, rbp
  00149	e8 00 00 00 00	 call	 __security_check_cookie
  0014e	48 8d a5 e8 01
	00 00		 lea	 rsp, QWORD PTR [rbp+488]
  00155	5f		 pop	 rdi
  00156	5d		 pop	 rbp
  00157	c3		 ret	 0
?XMLoadFloat4x4@DirectX@@YQ?AUXMMATRIX@1@PEBUXMFLOAT4X4@1@@Z ENDP ; DirectX::XMLoadFloat4x4
_TEXT	ENDS
; Function compile flags: /Odtp /RTCsu /ZI
; File c:\program files (x86)\windows kits\8.1\include\um\directxmathconvert.inl
;	COMDAT ?XMLoadFloat4@DirectX@@YQ?AT__m128@@PEBUXMFLOAT4@1@@Z
_TEXT	SEGMENT
$T1 = 208
pSource$ = 272
?XMLoadFloat4@DirectX@@YQ?AT__m128@@PEBUXMFLOAT4@1@@Z PROC ; DirectX::XMLoadFloat4, COMDAT

; 680  : {

$LN4:
  00000	48 89 4c 24 08	 mov	 QWORD PTR [rsp+8], rcx
  00005	55		 push	 rbp
  00006	57		 push	 rdi
  00007	48 81 ec 28 01
	00 00		 sub	 rsp, 296		; 00000128H
  0000e	48 8d 6c 24 30	 lea	 rbp, QWORD PTR [rsp+48]
  00013	48 8b fc	 mov	 rdi, rsp
  00016	b9 4a 00 00 00	 mov	 ecx, 74			; 0000004aH
  0001b	b8 cc cc cc cc	 mov	 eax, -858993460		; ccccccccH
  00020	f3 ab		 rep stosd
  00022	48 8b 8c 24 48
	01 00 00	 mov	 rcx, QWORD PTR [rsp+328]

; 681  :     assert(pSource);

  0002a	48 83 bd 10 01
	00 00 00	 cmp	 QWORD PTR pSource$[rbp], 0
  00032	75 21		 jne	 SHORT $LN3@XMLoadFloa
  00034	8b 05 00 00 00
	00		 mov	 eax, DWORD PTR ?__LINE__Var@?0??XMLoadFloat4@DirectX@@YQ?AT__m128@@PEBUXMFLOAT4@2@@Z@4JA
  0003a	ff c0		 inc	 eax
  0003c	44 8b c0	 mov	 r8d, eax
  0003f	48 8d 15 00 00
	00 00		 lea	 rdx, OFFSET FLAT:??_C@_1JE@DMOBBMDE@?$AAc?$AA?3?$AA?2?$AAp?$AAr?$AAo?$AAg?$AAr?$AAa?$AAm?$AA?5?$AAf?$AAi?$AAl?$AAe?$AAs?$AA?5?$AA?$CI?$AAx?$AA8?$AA6?$AA?$CJ?$AA?2?$AAw?$AAi?$AAn?$AAd?$AAo?$AAw?$AAs?$AA?5?$AAk@
  00046	48 8d 0d 00 00
	00 00		 lea	 rcx, OFFSET FLAT:??_C@_1BA@LBADLIHI@?$AAp?$AAS?$AAo?$AAu?$AAr?$AAc?$AAe?$AA?$AA@
  0004d	ff 15 00 00 00
	00		 call	 QWORD PTR __imp__wassert
  00053	33 c0		 xor	 eax, eax
$LN3@XMLoadFloa:

; 682  : #if defined(_XM_NO_INTRINSICS_)
; 683  :     XMVECTOR V;
; 684  :     V.vector4_f32[0] = pSource->x;
; 685  :     V.vector4_f32[1] = pSource->y;
; 686  :     V.vector4_f32[2] = pSource->z;
; 687  :     V.vector4_f32[3] = pSource->w;
; 688  :     return V;
; 689  : #elif defined(_XM_ARM_NEON_INTRINSICS_)
; 690  :     return vld1q_f32( reinterpret_cast<const float*>(pSource) );
; 691  : #elif defined(_XM_SSE_INTRINSICS_)
; 692  :     return _mm_loadu_ps( &pSource->x );

  00055	48 8b 85 10 01
	00 00		 mov	 rax, QWORD PTR pSource$[rbp]
  0005c	0f 10 00	 movups	 xmm0, XMMWORD PTR [rax]
  0005f	0f 29 85 d0 00
	00 00		 movaps	 XMMWORD PTR $T1[rbp], xmm0
  00066	0f 28 85 d0 00
	00 00		 movaps	 xmm0, XMMWORD PTR $T1[rbp]

; 693  : #endif
; 694  : }

  0006d	48 8d a5 f8 00
	00 00		 lea	 rsp, QWORD PTR [rbp+248]
  00074	5f		 pop	 rdi
  00075	5d		 pop	 rbp
  00076	c3		 ret	 0
?XMLoadFloat4@DirectX@@YQ?AT__m128@@PEBUXMFLOAT4@1@@Z ENDP ; DirectX::XMLoadFloat4
_TEXT	ENDS
; Function compile flags: /Odtp /RTCsu /ZI
; File c:\program files (x86)\windows kits\8.1\include\um\directxmath.h
;	COMDAT ??4XMFLOAT3@DirectX@@QEAAAEAU01@AEBU01@@Z
_TEXT	SEGMENT
this$ = 224
Float3$ = 232
??4XMFLOAT3@DirectX@@QEAAAEAU01@AEBU01@@Z PROC		; DirectX::XMFLOAT3::operator=, COMDAT

; 509  :     XMFLOAT3& operator= (const XMFLOAT3& Float3) { x = Float3.x; y = Float3.y; z = Float3.z; return *this; }

$LN3:
  00000	48 89 54 24 10	 mov	 QWORD PTR [rsp+16], rdx
  00005	48 89 4c 24 08	 mov	 QWORD PTR [rsp+8], rcx
  0000a	55		 push	 rbp
  0000b	57		 push	 rdi
  0000c	48 81 ec c8 00
	00 00		 sub	 rsp, 200		; 000000c8H
  00013	48 8b ec	 mov	 rbp, rsp
  00016	48 8b fc	 mov	 rdi, rsp
  00019	b9 32 00 00 00	 mov	 ecx, 50			; 00000032H
  0001e	b8 cc cc cc cc	 mov	 eax, -858993460		; ccccccccH
  00023	f3 ab		 rep stosd
  00025	48 8b 8c 24 e8
	00 00 00	 mov	 rcx, QWORD PTR [rsp+232]
  0002d	48 8b 85 e0 00
	00 00		 mov	 rax, QWORD PTR this$[rbp]
  00034	48 8b 8d e8 00
	00 00		 mov	 rcx, QWORD PTR Float3$[rbp]
  0003b	f3 0f 10 01	 movss	 xmm0, DWORD PTR [rcx]
  0003f	f3 0f 11 00	 movss	 DWORD PTR [rax], xmm0
  00043	48 8b 85 e0 00
	00 00		 mov	 rax, QWORD PTR this$[rbp]
  0004a	48 8b 8d e8 00
	00 00		 mov	 rcx, QWORD PTR Float3$[rbp]
  00051	f3 0f 10 41 04	 movss	 xmm0, DWORD PTR [rcx+4]
  00056	f3 0f 11 40 04	 movss	 DWORD PTR [rax+4], xmm0
  0005b	48 8b 85 e0 00
	00 00		 mov	 rax, QWORD PTR this$[rbp]
  00062	48 8b 8d e8 00
	00 00		 mov	 rcx, QWORD PTR Float3$[rbp]
  00069	f3 0f 10 41 08	 movss	 xmm0, DWORD PTR [rcx+8]
  0006e	f3 0f 11 40 08	 movss	 DWORD PTR [rax+8], xmm0
  00073	48 8b 85 e0 00
	00 00		 mov	 rax, QWORD PTR this$[rbp]
  0007a	48 8d a5 c8 00
	00 00		 lea	 rsp, QWORD PTR [rbp+200]
  00081	5f		 pop	 rdi
  00082	5d		 pop	 rbp
  00083	c3		 ret	 0
??4XMFLOAT3@DirectX@@QEAAAEAU01@AEBU01@@Z ENDP		; DirectX::XMFLOAT3::operator=
_TEXT	ENDS
; Function compile flags: /Odtp /RTCsu /ZI
; File c:\program files (x86)\windows kits\8.1\include\um\directxmath.h
;	COMDAT ??0XMFLOAT3@DirectX@@QEAA@MMM@Z
_TEXT	SEGMENT
this$ = 224
_x$ = 232
_y$ = 240
_z$ = 248
??0XMFLOAT3@DirectX@@QEAA@MMM@Z PROC			; DirectX::XMFLOAT3::XMFLOAT3, COMDAT

; 506  :     XMFLOAT3(float _x, float _y, float _z) : x(_x), y(_y), z(_z) {}

$LN3:
  00000	f3 0f 11 5c 24
	20		 movss	 DWORD PTR [rsp+32], xmm3
  00006	f3 0f 11 54 24
	18		 movss	 DWORD PTR [rsp+24], xmm2
  0000c	f3 0f 11 4c 24
	10		 movss	 DWORD PTR [rsp+16], xmm1
  00012	48 89 4c 24 08	 mov	 QWORD PTR [rsp+8], rcx
  00017	55		 push	 rbp
  00018	57		 push	 rdi
  00019	48 81 ec c8 00
	00 00		 sub	 rsp, 200		; 000000c8H
  00020	48 8b ec	 mov	 rbp, rsp
  00023	48 8b fc	 mov	 rdi, rsp
  00026	b9 32 00 00 00	 mov	 ecx, 50			; 00000032H
  0002b	b8 cc cc cc cc	 mov	 eax, -858993460		; ccccccccH
  00030	f3 ab		 rep stosd
  00032	48 8b 8c 24 e8
	00 00 00	 mov	 rcx, QWORD PTR [rsp+232]
  0003a	48 8b 85 e0 00
	00 00		 mov	 rax, QWORD PTR this$[rbp]
  00041	f3 0f 10 85 e8
	00 00 00	 movss	 xmm0, DWORD PTR _x$[rbp]
  00049	f3 0f 11 00	 movss	 DWORD PTR [rax], xmm0
  0004d	48 8b 85 e0 00
	00 00		 mov	 rax, QWORD PTR this$[rbp]
  00054	f3 0f 10 85 f0
	00 00 00	 movss	 xmm0, DWORD PTR _y$[rbp]
  0005c	f3 0f 11 40 04	 movss	 DWORD PTR [rax+4], xmm0
  00061	48 8b 85 e0 00
	00 00		 mov	 rax, QWORD PTR this$[rbp]
  00068	f3 0f 10 85 f8
	00 00 00	 movss	 xmm0, DWORD PTR _z$[rbp]
  00070	f3 0f 11 40 08	 movss	 DWORD PTR [rax+8], xmm0
  00075	48 8b 85 e0 00
	00 00		 mov	 rax, QWORD PTR this$[rbp]
  0007c	48 8d a5 c8 00
	00 00		 lea	 rsp, QWORD PTR [rbp+200]
  00083	5f		 pop	 rdi
  00084	5d		 pop	 rbp
  00085	c3		 ret	 0
??0XMFLOAT3@DirectX@@QEAA@MMM@Z ENDP			; DirectX::XMFLOAT3::XMFLOAT3
_TEXT	ENDS
; Function compile flags: /Odtp /RTCsu /ZI
; File c:\program files (x86)\windows kits\8.1\include\um\directxmath.h
;	COMDAT ??0XMFLOAT3@DirectX@@QEAA@XZ
_TEXT	SEGMENT
this$ = 224
??0XMFLOAT3@DirectX@@QEAA@XZ PROC			; DirectX::XMFLOAT3::XMFLOAT3, COMDAT

; 505  :     XMFLOAT3() {}

$LN3:
  00000	48 89 4c 24 08	 mov	 QWORD PTR [rsp+8], rcx
  00005	55		 push	 rbp
  00006	57		 push	 rdi
  00007	48 81 ec c8 00
	00 00		 sub	 rsp, 200		; 000000c8H
  0000e	48 8b ec	 mov	 rbp, rsp
  00011	48 8b fc	 mov	 rdi, rsp
  00014	b9 32 00 00 00	 mov	 ecx, 50			; 00000032H
  00019	b8 cc cc cc cc	 mov	 eax, -858993460		; ccccccccH
  0001e	f3 ab		 rep stosd
  00020	48 8b 8c 24 e8
	00 00 00	 mov	 rcx, QWORD PTR [rsp+232]
  00028	48 8b 85 e0 00
	00 00		 mov	 rax, QWORD PTR this$[rbp]
  0002f	48 8d a5 c8 00
	00 00		 lea	 rsp, QWORD PTR [rbp+200]
  00036	5f		 pop	 rdi
  00037	5d		 pop	 rbp
  00038	c3		 ret	 0
??0XMFLOAT3@DirectX@@QEAA@XZ ENDP			; DirectX::XMFLOAT3::XMFLOAT3
_TEXT	ENDS
; Function compile flags: /Odtp /RTCsu /ZI
; File c:\program files (x86)\windows kits\8.1\include\um\directxmath.h
;	COMDAT ??0XMMATRIX@DirectX@@QEAA@XZ
_TEXT	SEGMENT
this$ = 224
??0XMMATRIX@DirectX@@QEAA@XZ PROC			; DirectX::XMMATRIX::XMMATRIX, COMDAT

; 413  :     XMMATRIX() {}

$LN3:
  00000	48 89 4c 24 08	 mov	 QWORD PTR [rsp+8], rcx
  00005	55		 push	 rbp
  00006	57		 push	 rdi
  00007	48 81 ec c8 00
	00 00		 sub	 rsp, 200		; 000000c8H
  0000e	48 8b ec	 mov	 rbp, rsp
  00011	48 8b fc	 mov	 rdi, rsp
  00014	b9 32 00 00 00	 mov	 ecx, 50			; 00000032H
  00019	b8 cc cc cc cc	 mov	 eax, -858993460		; ccccccccH
  0001e	f3 ab		 rep stosd
  00020	48 8b 8c 24 e8
	00 00 00	 mov	 rcx, QWORD PTR [rsp+232]
  00028	48 8b 85 e0 00
	00 00		 mov	 rax, QWORD PTR this$[rbp]
  0002f	48 8d a5 c8 00
	00 00		 lea	 rsp, QWORD PTR [rbp+200]
  00036	5f		 pop	 rdi
  00037	5d		 pop	 rbp
  00038	c3		 ret	 0
??0XMMATRIX@DirectX@@QEAA@XZ ENDP			; DirectX::XMMATRIX::XMMATRIX
_TEXT	ENDS
; Function compile flags: /Odtp /RTCsu /ZI
; File c:\program files (x86)\windows kits\8.1\include\um\directxmathvector.inl
;	COMDAT ??DDirectX@@YQ?AT__m128@@T1@M@Z
_TEXT	SEGMENT
V$ = 16
$T1 = 256
S$ = 328
??DDirectX@@YQ?AT__m128@@T1@M@Z PROC			; DirectX::operator*, COMDAT

; 13994: {

$LN3:
  00000	f3 0f 11 4c 24
	10		 movss	 DWORD PTR [rsp+16], xmm1
  00006	55		 push	 rbp
  00007	57		 push	 rdi
  00008	48 81 ec 58 01
	00 00		 sub	 rsp, 344		; 00000158H
  0000f	48 8d 6c 24 30	 lea	 rbp, QWORD PTR [rsp+48]
  00014	48 8b fc	 mov	 rdi, rsp
  00017	b9 56 00 00 00	 mov	 ecx, 86			; 00000056H
  0001c	b8 cc cc cc cc	 mov	 eax, -858993460		; ccccccccH
  00021	f3 ab		 rep stosd
  00023	48 8d 45 10	 lea	 rax, QWORD PTR V$[rbp]
  00027	48 89 84 24 70
	01 00 00	 mov	 QWORD PTR [rsp+368], rax
  0002f	0f 29 45 10	 movaps	 XMMWORD PTR V$[rbp], xmm0

; 13995:     return XMVectorScale(V, S);

  00033	f3 0f 10 8d 48
	01 00 00	 movss	 xmm1, DWORD PTR S$[rbp]
  0003b	0f 28 45 10	 movaps	 xmm0, XMMWORD PTR V$[rbp]
  0003f	e8 00 00 00 00	 call	 ?XMVectorScale@DirectX@@YQ?AT__m128@@T2@M@Z ; DirectX::XMVectorScale
  00044	0f 29 85 00 01
	00 00		 movaps	 XMMWORD PTR $T1[rbp], xmm0
  0004b	0f 28 85 00 01
	00 00		 movaps	 xmm0, XMMWORD PTR $T1[rbp]

; 13996: }

  00052	48 8d a5 28 01
	00 00		 lea	 rsp, QWORD PTR [rbp+296]
  00059	5f		 pop	 rdi
  0005a	5d		 pop	 rbp
  0005b	c3		 ret	 0
??DDirectX@@YQ?AT__m128@@T1@M@Z ENDP			; DirectX::operator*
_TEXT	ENDS
; Function compile flags: /Odtp /RTCsu /ZI
; File c:\program files (x86)\windows kits\8.1\include\um\directxmathvector.inl
;	COMDAT ??GDirectX@@YQ?AT__m128@@T1@0@Z
_TEXT	SEGMENT
V1$ = 16
V2$ = 64
$T1 = 304
??GDirectX@@YQ?AT__m128@@T1@0@Z PROC			; DirectX::operator-, COMDAT

; 13961: {

$LN3:
  00000	40 55		 push	 rbp
  00002	57		 push	 rdi
  00003	48 81 ec 88 01
	00 00		 sub	 rsp, 392		; 00000188H
  0000a	48 8d 6c 24 30	 lea	 rbp, QWORD PTR [rsp+48]
  0000f	48 8b fc	 mov	 rdi, rsp
  00012	b9 62 00 00 00	 mov	 ecx, 98			; 00000062H
  00017	b8 cc cc cc cc	 mov	 eax, -858993460		; ccccccccH
  0001c	f3 ab		 rep stosd
  0001e	48 8d 45 10	 lea	 rax, QWORD PTR V1$[rbp]
  00022	48 89 84 24 a0
	01 00 00	 mov	 QWORD PTR [rsp+416], rax
  0002a	48 8d 45 40	 lea	 rax, QWORD PTR V2$[rbp]
  0002e	48 89 84 24 a8
	01 00 00	 mov	 QWORD PTR [rsp+424], rax
  00036	0f 29 4d 40	 movaps	 XMMWORD PTR V2$[rbp], xmm1
  0003a	0f 29 45 10	 movaps	 XMMWORD PTR V1$[rbp], xmm0

; 13962:     return XMVectorSubtract(V1, V2);

  0003e	0f 28 4d 40	 movaps	 xmm1, XMMWORD PTR V2$[rbp]
  00042	0f 28 45 10	 movaps	 xmm0, XMMWORD PTR V1$[rbp]
  00046	e8 00 00 00 00	 call	 ?XMVectorSubtract@DirectX@@YQ?AT__m128@@T2@0@Z ; DirectX::XMVectorSubtract
  0004b	0f 29 85 30 01
	00 00		 movaps	 XMMWORD PTR $T1[rbp], xmm0
  00052	0f 28 85 30 01
	00 00		 movaps	 xmm0, XMMWORD PTR $T1[rbp]

; 13963: }

  00059	48 8d a5 58 01
	00 00		 lea	 rsp, QWORD PTR [rbp+344]
  00060	5f		 pop	 rdi
  00061	5d		 pop	 rbp
  00062	c3		 ret	 0
??GDirectX@@YQ?AT__m128@@T1@0@Z ENDP			; DirectX::operator-
_TEXT	ENDS
; Function compile flags: /Odtp /RTCsu /ZI
; File c:\program files (x86)\windows kits\8.1\include\um\directxmathvector.inl
;	COMDAT ??HDirectX@@YQ?AT__m128@@T1@0@Z
_TEXT	SEGMENT
V1$ = 16
V2$ = 64
$T1 = 304
??HDirectX@@YQ?AT__m128@@T1@0@Z PROC			; DirectX::operator+, COMDAT

; 13950: {

$LN3:
  00000	40 55		 push	 rbp
  00002	57		 push	 rdi
  00003	48 81 ec 88 01
	00 00		 sub	 rsp, 392		; 00000188H
  0000a	48 8d 6c 24 30	 lea	 rbp, QWORD PTR [rsp+48]
  0000f	48 8b fc	 mov	 rdi, rsp
  00012	b9 62 00 00 00	 mov	 ecx, 98			; 00000062H
  00017	b8 cc cc cc cc	 mov	 eax, -858993460		; ccccccccH
  0001c	f3 ab		 rep stosd
  0001e	48 8d 45 10	 lea	 rax, QWORD PTR V1$[rbp]
  00022	48 89 84 24 a0
	01 00 00	 mov	 QWORD PTR [rsp+416], rax
  0002a	48 8d 45 40	 lea	 rax, QWORD PTR V2$[rbp]
  0002e	48 89 84 24 a8
	01 00 00	 mov	 QWORD PTR [rsp+424], rax
  00036	0f 29 4d 40	 movaps	 XMMWORD PTR V2$[rbp], xmm1
  0003a	0f 29 45 10	 movaps	 XMMWORD PTR V1$[rbp], xmm0

; 13951:     return XMVectorAdd(V1, V2);

  0003e	0f 28 4d 40	 movaps	 xmm1, XMMWORD PTR V2$[rbp]
  00042	0f 28 45 10	 movaps	 xmm0, XMMWORD PTR V1$[rbp]
  00046	e8 00 00 00 00	 call	 ?XMVectorAdd@DirectX@@YQ?AT__m128@@T2@0@Z ; DirectX::XMVectorAdd
  0004b	0f 29 85 30 01
	00 00		 movaps	 XMMWORD PTR $T1[rbp], xmm0
  00052	0f 28 85 30 01
	00 00		 movaps	 xmm0, XMMWORD PTR $T1[rbp]

; 13952: }

  00059	48 8d a5 58 01
	00 00		 lea	 rsp, QWORD PTR [rbp+344]
  00060	5f		 pop	 rdi
  00061	5d		 pop	 rbp
  00062	c3		 ret	 0
??HDirectX@@YQ?AT__m128@@T1@0@Z ENDP			; DirectX::operator+
_TEXT	ENDS
; Function compile flags: /Odtp /RTCsu /ZI
; File c:\program files (x86)\windows kits\8.1\include\um\directxmathvector.inl
;	COMDAT ??GDirectX@@YQ?AT__m128@@T1@@Z
_TEXT	SEGMENT
V$ = 16
$T1 = 256
??GDirectX@@YQ?AT__m128@@T1@@Z PROC			; DirectX::operator-, COMDAT

; 13866: {

$LN3:
  00000	40 55		 push	 rbp
  00002	57		 push	 rdi
  00003	48 81 ec 58 01
	00 00		 sub	 rsp, 344		; 00000158H
  0000a	48 8d 6c 24 30	 lea	 rbp, QWORD PTR [rsp+48]
  0000f	48 8b fc	 mov	 rdi, rsp
  00012	b9 56 00 00 00	 mov	 ecx, 86			; 00000056H
  00017	b8 cc cc cc cc	 mov	 eax, -858993460		; ccccccccH
  0001c	f3 ab		 rep stosd
  0001e	48 8d 45 10	 lea	 rax, QWORD PTR V$[rbp]
  00022	48 89 84 24 70
	01 00 00	 mov	 QWORD PTR [rsp+368], rax
  0002a	0f 29 45 10	 movaps	 XMMWORD PTR V$[rbp], xmm0

; 13867:     return XMVectorNegate(V);

  0002e	0f 28 45 10	 movaps	 xmm0, XMMWORD PTR V$[rbp]
  00032	e8 00 00 00 00	 call	 ?XMVectorNegate@DirectX@@YQ?AT__m128@@T2@@Z ; DirectX::XMVectorNegate
  00037	0f 29 85 00 01
	00 00		 movaps	 XMMWORD PTR $T1[rbp], xmm0
  0003e	0f 28 85 00 01
	00 00		 movaps	 xmm0, XMMWORD PTR $T1[rbp]

; 13868: }

  00045	48 8d a5 28 01
	00 00		 lea	 rsp, QWORD PTR [rbp+296]
  0004c	5f		 pop	 rdi
  0004d	5d		 pop	 rbp
  0004e	c3		 ret	 0
??GDirectX@@YQ?AT__m128@@T1@@Z ENDP			; DirectX::operator-
_TEXT	ENDS
; Function compile flags: /Odtp /RTCsu /ZI
; File c:\program files (x86)\windows kits\8.1\include\um\directxmath.h
;	COMDAT ??BXMVECTORU32@DirectX@@QEBA?AT__m128@@XZ
_TEXT	SEGMENT
this$ = 224
__$ReturnUdt$ = 232
??BXMVECTORU32@DirectX@@QEBA?AT__m128@@XZ PROC		; DirectX::XMVECTORU32::operator __m128, COMDAT

; 346  :     inline operator XMVECTOR() const { return v; }

$LN3:
  00000	48 89 54 24 10	 mov	 QWORD PTR [rsp+16], rdx
  00005	48 89 4c 24 08	 mov	 QWORD PTR [rsp+8], rcx
  0000a	55		 push	 rbp
  0000b	57		 push	 rdi
  0000c	48 81 ec c8 00
	00 00		 sub	 rsp, 200		; 000000c8H
  00013	48 8b ec	 mov	 rbp, rsp
  00016	48 8b fc	 mov	 rdi, rsp
  00019	b9 32 00 00 00	 mov	 ecx, 50			; 00000032H
  0001e	b8 cc cc cc cc	 mov	 eax, -858993460		; ccccccccH
  00023	f3 ab		 rep stosd
  00025	48 8b 8c 24 e8
	00 00 00	 mov	 rcx, QWORD PTR [rsp+232]
  0002d	48 8b 85 e8 00
	00 00		 mov	 rax, QWORD PTR __$ReturnUdt$[rbp]
  00034	48 8b 8d e0 00
	00 00		 mov	 rcx, QWORD PTR this$[rbp]
  0003b	0f 10 01	 movups	 xmm0, XMMWORD PTR [rcx]
  0003e	0f 11 00	 movups	 XMMWORD PTR [rax], xmm0
  00041	48 8b 85 e8 00
	00 00		 mov	 rax, QWORD PTR __$ReturnUdt$[rbp]
  00048	48 8d a5 c8 00
	00 00		 lea	 rsp, QWORD PTR [rbp+200]
  0004f	5f		 pop	 rdi
  00050	5d		 pop	 rbp
  00051	c3		 ret	 0
??BXMVECTORU32@DirectX@@QEBA?AT__m128@@XZ ENDP		; DirectX::XMVECTORU32::operator __m128
_TEXT	ENDS
; Function compile flags: /Odtp /RTCsu /ZI
; File c:\program files (x86)\windows kits\8.1\include\um\directxmath.h
;	COMDAT ??BXMVECTORI32@DirectX@@QEBA?AT__m128@@XZ
_TEXT	SEGMENT
this$ = 224
__$ReturnUdt$ = 232
??BXMVECTORI32@DirectX@@QEBA?AT__m128@@XZ PROC		; DirectX::XMVECTORI32::operator __m128, COMDAT

; 316  :     inline operator XMVECTOR() const { return v; }

$LN3:
  00000	48 89 54 24 10	 mov	 QWORD PTR [rsp+16], rdx
  00005	48 89 4c 24 08	 mov	 QWORD PTR [rsp+8], rcx
  0000a	55		 push	 rbp
  0000b	57		 push	 rdi
  0000c	48 81 ec c8 00
	00 00		 sub	 rsp, 200		; 000000c8H
  00013	48 8b ec	 mov	 rbp, rsp
  00016	48 8b fc	 mov	 rdi, rsp
  00019	b9 32 00 00 00	 mov	 ecx, 50			; 00000032H
  0001e	b8 cc cc cc cc	 mov	 eax, -858993460		; ccccccccH
  00023	f3 ab		 rep stosd
  00025	48 8b 8c 24 e8
	00 00 00	 mov	 rcx, QWORD PTR [rsp+232]
  0002d	48 8b 85 e8 00
	00 00		 mov	 rax, QWORD PTR __$ReturnUdt$[rbp]
  00034	48 8b 8d e0 00
	00 00		 mov	 rcx, QWORD PTR this$[rbp]
  0003b	0f 10 01	 movups	 xmm0, XMMWORD PTR [rcx]
  0003e	0f 11 00	 movups	 XMMWORD PTR [rax], xmm0
  00041	48 8b 85 e8 00
	00 00		 mov	 rax, QWORD PTR __$ReturnUdt$[rbp]
  00048	48 8d a5 c8 00
	00 00		 lea	 rsp, QWORD PTR [rbp+200]
  0004f	5f		 pop	 rdi
  00050	5d		 pop	 rbp
  00051	c3		 ret	 0
??BXMVECTORI32@DirectX@@QEBA?AT__m128@@XZ ENDP		; DirectX::XMVECTORI32::operator __m128
_TEXT	ENDS
; Function compile flags: /Odtp /RTCsu /ZI
; File c:\program files (x86)\windows kits\8.1\include\um\directxmath.h
;	COMDAT ?XMConvertToRadians@DirectX@@YAMM@Z
_TEXT	SEGMENT
fDegrees$ = 224
?XMConvertToRadians@DirectX@@YAMM@Z PROC		; DirectX::XMConvertToRadians, COMDAT

; 208  : inline float XMConvertToRadians(float fDegrees) { return fDegrees * (XM_PI / 180.0f); }

$LN3:
  00000	f3 0f 11 44 24
	08		 movss	 DWORD PTR [rsp+8], xmm0
  00006	55		 push	 rbp
  00007	57		 push	 rdi
  00008	48 81 ec d8 00
	00 00		 sub	 rsp, 216		; 000000d8H
  0000f	48 8d 6c 24 10	 lea	 rbp, QWORD PTR [rsp+16]
  00014	48 8b fc	 mov	 rdi, rsp
  00017	b9 36 00 00 00	 mov	 ecx, 54			; 00000036H
  0001c	b8 cc cc cc cc	 mov	 eax, -858993460		; ccccccccH
  00021	f3 ab		 rep stosd
  00023	f3 0f 10 85 e0
	00 00 00	 movss	 xmm0, DWORD PTR fDegrees$[rbp]
  0002b	f3 0f 59 05 00
	00 00 00	 mulss	 xmm0, DWORD PTR __real@3c8efa35
  00033	48 8d a5 c8 00
	00 00		 lea	 rsp, QWORD PTR [rbp+200]
  0003a	5f		 pop	 rdi
  0003b	5d		 pop	 rbp
  0003c	c3		 ret	 0
?XMConvertToRadians@DirectX@@YAMM@Z ENDP		; DirectX::XMConvertToRadians
_TEXT	ENDS
; Function compile flags: /Odtp /RTCsu /ZI
; File c:\users\arcco\documents\github\framework\client\private\thorn.cpp
;	COMDAT ?__empty_global_delete@@YAXPEAX_K@Z
_TEXT	SEGMENT
__formal$ = 224
__formal$ = 232
?__empty_global_delete@@YAXPEAX_K@Z PROC		; __empty_global_delete, COMDAT

$LN3:
  00000	48 89 54 24 10	 mov	 QWORD PTR [rsp+16], rdx
  00005	48 89 4c 24 08	 mov	 QWORD PTR [rsp+8], rcx
  0000a	55		 push	 rbp
  0000b	57		 push	 rdi
  0000c	48 81 ec c8 00
	00 00		 sub	 rsp, 200		; 000000c8H
  00013	48 8b ec	 mov	 rbp, rsp
  00016	48 8b fc	 mov	 rdi, rsp
  00019	b9 32 00 00 00	 mov	 ecx, 50			; 00000032H
  0001e	b8 cc cc cc cc	 mov	 eax, -858993460		; ccccccccH
  00023	f3 ab		 rep stosd
  00025	48 8b 8c 24 e8
	00 00 00	 mov	 rcx, QWORD PTR [rsp+232]
  0002d	48 8d a5 c8 00
	00 00		 lea	 rsp, QWORD PTR [rbp+200]
  00034	5f		 pop	 rdi
  00035	5d		 pop	 rbp
  00036	c3		 ret	 0
?__empty_global_delete@@YAXPEAX_K@Z ENDP		; __empty_global_delete
_TEXT	ENDS
; Function compile flags: /Odtp /RTCsu /ZI
; File c:\users\arcco\documents\github\framework\client\private\thorn.cpp
;	COMDAT ?__empty_global_delete@@YAXPEAX@Z
_TEXT	SEGMENT
__formal$ = 224
?__empty_global_delete@@YAXPEAX@Z PROC			; __empty_global_delete, COMDAT

$LN3:
  00000	48 89 4c 24 08	 mov	 QWORD PTR [rsp+8], rcx
  00005	55		 push	 rbp
  00006	57		 push	 rdi
  00007	48 81 ec c8 00
	00 00		 sub	 rsp, 200		; 000000c8H
  0000e	48 8b ec	 mov	 rbp, rsp
  00011	48 8b fc	 mov	 rdi, rsp
  00014	b9 32 00 00 00	 mov	 ecx, 50			; 00000032H
  00019	b8 cc cc cc cc	 mov	 eax, -858993460		; ccccccccH
  0001e	f3 ab		 rep stosd
  00020	48 8b 8c 24 e8
	00 00 00	 mov	 rcx, QWORD PTR [rsp+232]
  00028	48 8d a5 c8 00
	00 00		 lea	 rsp, QWORD PTR [rbp+200]
  0002f	5f		 pop	 rdi
  00030	5d		 pop	 rbp
  00031	c3		 ret	 0
?__empty_global_delete@@YAXPEAX@Z ENDP			; __empty_global_delete
_TEXT	ENDS
; Function compile flags: /Odtp /RTCsu /ZI
;	COMDAT ??_H@YAXPEAX_K1P6APEAX0@Z@Z
_TEXT	SEGMENT
tv66 = 192
tv67 = 200
__t$ = 240
__s$ = 248
__n$ = 256
__f$ = 264
??_H@YAXPEAX_K1P6APEAX0@Z@Z PROC			; `vector constructor iterator', COMDAT
$LN7:
  00000	4c 89 4c 24 20	 mov	 QWORD PTR [rsp+32], r9
  00005	4c 89 44 24 18	 mov	 QWORD PTR [rsp+24], r8
  0000a	48 89 54 24 10	 mov	 QWORD PTR [rsp+16], rdx
  0000f	48 89 4c 24 08	 mov	 QWORD PTR [rsp+8], rcx
  00014	55		 push	 rbp
  00015	57		 push	 rdi
  00016	48 81 ec f8 00
	00 00		 sub	 rsp, 248		; 000000f8H
  0001d	48 8d 6c 24 20	 lea	 rbp, QWORD PTR [rsp+32]
  00022	48 8b fc	 mov	 rdi, rsp
  00025	b9 3e 00 00 00	 mov	 ecx, 62			; 0000003eH
  0002a	b8 cc cc cc cc	 mov	 eax, -858993460		; ccccccccH
  0002f	f3 ab		 rep stosd
  00031	48 8b 8c 24 18
	01 00 00	 mov	 rcx, QWORD PTR [rsp+280]
$LN2@vector:
  00039	48 8b 85 00 01
	00 00		 mov	 rax, QWORD PTR __n$[rbp]
  00040	48 89 85 c0 00
	00 00		 mov	 QWORD PTR tv66[rbp], rax
  00047	48 8b 85 00 01
	00 00		 mov	 rax, QWORD PTR __n$[rbp]
  0004e	48 ff c8	 dec	 rax
  00051	48 89 85 00 01
	00 00		 mov	 QWORD PTR __n$[rbp], rax
  00058	48 83 bd c0 00
	00 00 00	 cmp	 QWORD PTR tv66[rbp], 0
  00060	76 0c		 jbe	 SHORT $LN5@vector
  00062	c7 85 c8 00 00
	00 01 00 00 00	 mov	 DWORD PTR tv67[rbp], 1
  0006c	eb 0a		 jmp	 SHORT $LN6@vector
$LN5@vector:
  0006e	c7 85 c8 00 00
	00 00 00 00 00	 mov	 DWORD PTR tv67[rbp], 0
$LN6@vector:
  00078	83 bd c8 00 00
	00 00		 cmp	 DWORD PTR tv67[rbp], 0
  0007f	74 2a		 je	 SHORT $LN3@vector
  00081	48 8b 8d f0 00
	00 00		 mov	 rcx, QWORD PTR __t$[rbp]
  00088	ff 95 08 01 00
	00		 call	 QWORD PTR __f$[rbp]
  0008e	48 8b 85 f8 00
	00 00		 mov	 rax, QWORD PTR __s$[rbp]
  00095	48 8b 8d f0 00
	00 00		 mov	 rcx, QWORD PTR __t$[rbp]
  0009c	48 03 c8	 add	 rcx, rax
  0009f	48 8b c1	 mov	 rax, rcx
  000a2	48 89 85 f0 00
	00 00		 mov	 QWORD PTR __t$[rbp], rax
  000a9	eb 8e		 jmp	 SHORT $LN2@vector
$LN3@vector:
  000ab	48 8d a5 d8 00
	00 00		 lea	 rsp, QWORD PTR [rbp+216]
  000b2	5f		 pop	 rdi
  000b3	5d		 pop	 rbp
  000b4	c3		 ret	 0
??_H@YAXPEAX_K1P6APEAX0@Z@Z ENDP			; `vector constructor iterator'
_TEXT	ENDS
END
