; Listing generated by Microsoft (R) Optimizing Compiler Version 19.00.24245.0 

include listing.inc

INCLUDELIB MSVCRTD
INCLUDELIB OLDNAMES

PUBLIC	?AliceBlue@Colors@DirectX@@3UXMVECTORF32@2@B	; DirectX::Colors::AliceBlue
PUBLIC	?AntiqueWhite@Colors@DirectX@@3UXMVECTORF32@2@B	; DirectX::Colors::AntiqueWhite
PUBLIC	?Aqua@Colors@DirectX@@3UXMVECTORF32@2@B		; DirectX::Colors::Aqua
PUBLIC	?Aquamarine@Colors@DirectX@@3UXMVECTORF32@2@B	; DirectX::Colors::Aquamarine
PUBLIC	?Azure@Colors@DirectX@@3UXMVECTORF32@2@B	; DirectX::Colors::Azure
PUBLIC	?Beige@Colors@DirectX@@3UXMVECTORF32@2@B	; DirectX::Colors::Beige
PUBLIC	?Bisque@Colors@DirectX@@3UXMVECTORF32@2@B	; DirectX::Colors::Bisque
PUBLIC	?Black@Colors@DirectX@@3UXMVECTORF32@2@B	; DirectX::Colors::Black
PUBLIC	?BlanchedAlmond@Colors@DirectX@@3UXMVECTORF32@2@B ; DirectX::Colors::BlanchedAlmond
PUBLIC	?Blue@Colors@DirectX@@3UXMVECTORF32@2@B		; DirectX::Colors::Blue
PUBLIC	?BlueViolet@Colors@DirectX@@3UXMVECTORF32@2@B	; DirectX::Colors::BlueViolet
PUBLIC	?Brown@Colors@DirectX@@3UXMVECTORF32@2@B	; DirectX::Colors::Brown
PUBLIC	?BurlyWood@Colors@DirectX@@3UXMVECTORF32@2@B	; DirectX::Colors::BurlyWood
PUBLIC	?CadetBlue@Colors@DirectX@@3UXMVECTORF32@2@B	; DirectX::Colors::CadetBlue
PUBLIC	?Chartreuse@Colors@DirectX@@3UXMVECTORF32@2@B	; DirectX::Colors::Chartreuse
PUBLIC	?Chocolate@Colors@DirectX@@3UXMVECTORF32@2@B	; DirectX::Colors::Chocolate
PUBLIC	?Coral@Colors@DirectX@@3UXMVECTORF32@2@B	; DirectX::Colors::Coral
PUBLIC	?CornflowerBlue@Colors@DirectX@@3UXMVECTORF32@2@B ; DirectX::Colors::CornflowerBlue
PUBLIC	?Cornsilk@Colors@DirectX@@3UXMVECTORF32@2@B	; DirectX::Colors::Cornsilk
PUBLIC	?Crimson@Colors@DirectX@@3UXMVECTORF32@2@B	; DirectX::Colors::Crimson
PUBLIC	?Cyan@Colors@DirectX@@3UXMVECTORF32@2@B		; DirectX::Colors::Cyan
PUBLIC	?DarkBlue@Colors@DirectX@@3UXMVECTORF32@2@B	; DirectX::Colors::DarkBlue
PUBLIC	?DarkCyan@Colors@DirectX@@3UXMVECTORF32@2@B	; DirectX::Colors::DarkCyan
PUBLIC	?DarkGoldenrod@Colors@DirectX@@3UXMVECTORF32@2@B ; DirectX::Colors::DarkGoldenrod
PUBLIC	?DarkGray@Colors@DirectX@@3UXMVECTORF32@2@B	; DirectX::Colors::DarkGray
PUBLIC	?DarkGreen@Colors@DirectX@@3UXMVECTORF32@2@B	; DirectX::Colors::DarkGreen
PUBLIC	?DarkKhaki@Colors@DirectX@@3UXMVECTORF32@2@B	; DirectX::Colors::DarkKhaki
PUBLIC	?DarkMagenta@Colors@DirectX@@3UXMVECTORF32@2@B	; DirectX::Colors::DarkMagenta
PUBLIC	?DarkOliveGreen@Colors@DirectX@@3UXMVECTORF32@2@B ; DirectX::Colors::DarkOliveGreen
PUBLIC	?DarkOrange@Colors@DirectX@@3UXMVECTORF32@2@B	; DirectX::Colors::DarkOrange
PUBLIC	?DarkOrchid@Colors@DirectX@@3UXMVECTORF32@2@B	; DirectX::Colors::DarkOrchid
PUBLIC	?DarkRed@Colors@DirectX@@3UXMVECTORF32@2@B	; DirectX::Colors::DarkRed
PUBLIC	?DarkSalmon@Colors@DirectX@@3UXMVECTORF32@2@B	; DirectX::Colors::DarkSalmon
PUBLIC	?DarkSeaGreen@Colors@DirectX@@3UXMVECTORF32@2@B	; DirectX::Colors::DarkSeaGreen
PUBLIC	?DarkSlateBlue@Colors@DirectX@@3UXMVECTORF32@2@B ; DirectX::Colors::DarkSlateBlue
PUBLIC	?DarkSlateGray@Colors@DirectX@@3UXMVECTORF32@2@B ; DirectX::Colors::DarkSlateGray
PUBLIC	?DarkTurquoise@Colors@DirectX@@3UXMVECTORF32@2@B ; DirectX::Colors::DarkTurquoise
PUBLIC	?DarkViolet@Colors@DirectX@@3UXMVECTORF32@2@B	; DirectX::Colors::DarkViolet
PUBLIC	?DeepPink@Colors@DirectX@@3UXMVECTORF32@2@B	; DirectX::Colors::DeepPink
PUBLIC	?DeepSkyBlue@Colors@DirectX@@3UXMVECTORF32@2@B	; DirectX::Colors::DeepSkyBlue
PUBLIC	?DimGray@Colors@DirectX@@3UXMVECTORF32@2@B	; DirectX::Colors::DimGray
PUBLIC	?DodgerBlue@Colors@DirectX@@3UXMVECTORF32@2@B	; DirectX::Colors::DodgerBlue
PUBLIC	?Firebrick@Colors@DirectX@@3UXMVECTORF32@2@B	; DirectX::Colors::Firebrick
PUBLIC	?FloralWhite@Colors@DirectX@@3UXMVECTORF32@2@B	; DirectX::Colors::FloralWhite
PUBLIC	?ForestGreen@Colors@DirectX@@3UXMVECTORF32@2@B	; DirectX::Colors::ForestGreen
PUBLIC	?Fuchsia@Colors@DirectX@@3UXMVECTORF32@2@B	; DirectX::Colors::Fuchsia
PUBLIC	?Gainsboro@Colors@DirectX@@3UXMVECTORF32@2@B	; DirectX::Colors::Gainsboro
PUBLIC	?GhostWhite@Colors@DirectX@@3UXMVECTORF32@2@B	; DirectX::Colors::GhostWhite
PUBLIC	?Gold@Colors@DirectX@@3UXMVECTORF32@2@B		; DirectX::Colors::Gold
PUBLIC	?Goldenrod@Colors@DirectX@@3UXMVECTORF32@2@B	; DirectX::Colors::Goldenrod
PUBLIC	?Gray@Colors@DirectX@@3UXMVECTORF32@2@B		; DirectX::Colors::Gray
PUBLIC	?Green@Colors@DirectX@@3UXMVECTORF32@2@B	; DirectX::Colors::Green
PUBLIC	?GreenYellow@Colors@DirectX@@3UXMVECTORF32@2@B	; DirectX::Colors::GreenYellow
PUBLIC	?Honeydew@Colors@DirectX@@3UXMVECTORF32@2@B	; DirectX::Colors::Honeydew
PUBLIC	?HotPink@Colors@DirectX@@3UXMVECTORF32@2@B	; DirectX::Colors::HotPink
PUBLIC	?IndianRed@Colors@DirectX@@3UXMVECTORF32@2@B	; DirectX::Colors::IndianRed
PUBLIC	?Indigo@Colors@DirectX@@3UXMVECTORF32@2@B	; DirectX::Colors::Indigo
PUBLIC	?Ivory@Colors@DirectX@@3UXMVECTORF32@2@B	; DirectX::Colors::Ivory
PUBLIC	?Khaki@Colors@DirectX@@3UXMVECTORF32@2@B	; DirectX::Colors::Khaki
PUBLIC	?Lavender@Colors@DirectX@@3UXMVECTORF32@2@B	; DirectX::Colors::Lavender
PUBLIC	?LavenderBlush@Colors@DirectX@@3UXMVECTORF32@2@B ; DirectX::Colors::LavenderBlush
PUBLIC	?LawnGreen@Colors@DirectX@@3UXMVECTORF32@2@B	; DirectX::Colors::LawnGreen
PUBLIC	?LemonChiffon@Colors@DirectX@@3UXMVECTORF32@2@B	; DirectX::Colors::LemonChiffon
PUBLIC	?LightBlue@Colors@DirectX@@3UXMVECTORF32@2@B	; DirectX::Colors::LightBlue
PUBLIC	?LightCoral@Colors@DirectX@@3UXMVECTORF32@2@B	; DirectX::Colors::LightCoral
PUBLIC	?LightCyan@Colors@DirectX@@3UXMVECTORF32@2@B	; DirectX::Colors::LightCyan
PUBLIC	?LightGoldenrodYellow@Colors@DirectX@@3UXMVECTORF32@2@B ; DirectX::Colors::LightGoldenrodYellow
PUBLIC	?LightGreen@Colors@DirectX@@3UXMVECTORF32@2@B	; DirectX::Colors::LightGreen
PUBLIC	?LightGray@Colors@DirectX@@3UXMVECTORF32@2@B	; DirectX::Colors::LightGray
PUBLIC	?LightPink@Colors@DirectX@@3UXMVECTORF32@2@B	; DirectX::Colors::LightPink
PUBLIC	?LightSalmon@Colors@DirectX@@3UXMVECTORF32@2@B	; DirectX::Colors::LightSalmon
PUBLIC	?LightSeaGreen@Colors@DirectX@@3UXMVECTORF32@2@B ; DirectX::Colors::LightSeaGreen
PUBLIC	?LightSkyBlue@Colors@DirectX@@3UXMVECTORF32@2@B	; DirectX::Colors::LightSkyBlue
PUBLIC	?LightSlateGray@Colors@DirectX@@3UXMVECTORF32@2@B ; DirectX::Colors::LightSlateGray
PUBLIC	?LightSteelBlue@Colors@DirectX@@3UXMVECTORF32@2@B ; DirectX::Colors::LightSteelBlue
PUBLIC	?LightYellow@Colors@DirectX@@3UXMVECTORF32@2@B	; DirectX::Colors::LightYellow
PUBLIC	?Lime@Colors@DirectX@@3UXMVECTORF32@2@B		; DirectX::Colors::Lime
PUBLIC	?LimeGreen@Colors@DirectX@@3UXMVECTORF32@2@B	; DirectX::Colors::LimeGreen
PUBLIC	?Linen@Colors@DirectX@@3UXMVECTORF32@2@B	; DirectX::Colors::Linen
PUBLIC	?Magenta@Colors@DirectX@@3UXMVECTORF32@2@B	; DirectX::Colors::Magenta
PUBLIC	?Maroon@Colors@DirectX@@3UXMVECTORF32@2@B	; DirectX::Colors::Maroon
PUBLIC	?MediumAquamarine@Colors@DirectX@@3UXMVECTORF32@2@B ; DirectX::Colors::MediumAquamarine
PUBLIC	?MediumBlue@Colors@DirectX@@3UXMVECTORF32@2@B	; DirectX::Colors::MediumBlue
PUBLIC	?MediumOrchid@Colors@DirectX@@3UXMVECTORF32@2@B	; DirectX::Colors::MediumOrchid
PUBLIC	?MediumPurple@Colors@DirectX@@3UXMVECTORF32@2@B	; DirectX::Colors::MediumPurple
PUBLIC	?MediumSeaGreen@Colors@DirectX@@3UXMVECTORF32@2@B ; DirectX::Colors::MediumSeaGreen
PUBLIC	?MediumSlateBlue@Colors@DirectX@@3UXMVECTORF32@2@B ; DirectX::Colors::MediumSlateBlue
PUBLIC	?MediumSpringGreen@Colors@DirectX@@3UXMVECTORF32@2@B ; DirectX::Colors::MediumSpringGreen
PUBLIC	?MediumTurquoise@Colors@DirectX@@3UXMVECTORF32@2@B ; DirectX::Colors::MediumTurquoise
PUBLIC	?MediumVioletRed@Colors@DirectX@@3UXMVECTORF32@2@B ; DirectX::Colors::MediumVioletRed
PUBLIC	?MidnightBlue@Colors@DirectX@@3UXMVECTORF32@2@B	; DirectX::Colors::MidnightBlue
PUBLIC	?MintCream@Colors@DirectX@@3UXMVECTORF32@2@B	; DirectX::Colors::MintCream
PUBLIC	?MistyRose@Colors@DirectX@@3UXMVECTORF32@2@B	; DirectX::Colors::MistyRose
PUBLIC	?Moccasin@Colors@DirectX@@3UXMVECTORF32@2@B	; DirectX::Colors::Moccasin
PUBLIC	?NavajoWhite@Colors@DirectX@@3UXMVECTORF32@2@B	; DirectX::Colors::NavajoWhite
PUBLIC	?Navy@Colors@DirectX@@3UXMVECTORF32@2@B		; DirectX::Colors::Navy
PUBLIC	?OldLace@Colors@DirectX@@3UXMVECTORF32@2@B	; DirectX::Colors::OldLace
PUBLIC	?Olive@Colors@DirectX@@3UXMVECTORF32@2@B	; DirectX::Colors::Olive
PUBLIC	?OliveDrab@Colors@DirectX@@3UXMVECTORF32@2@B	; DirectX::Colors::OliveDrab
PUBLIC	?Orange@Colors@DirectX@@3UXMVECTORF32@2@B	; DirectX::Colors::Orange
PUBLIC	?OrangeRed@Colors@DirectX@@3UXMVECTORF32@2@B	; DirectX::Colors::OrangeRed
PUBLIC	?Orchid@Colors@DirectX@@3UXMVECTORF32@2@B	; DirectX::Colors::Orchid
PUBLIC	?PaleGoldenrod@Colors@DirectX@@3UXMVECTORF32@2@B ; DirectX::Colors::PaleGoldenrod
PUBLIC	?PaleGreen@Colors@DirectX@@3UXMVECTORF32@2@B	; DirectX::Colors::PaleGreen
PUBLIC	?PaleTurquoise@Colors@DirectX@@3UXMVECTORF32@2@B ; DirectX::Colors::PaleTurquoise
PUBLIC	?PaleVioletRed@Colors@DirectX@@3UXMVECTORF32@2@B ; DirectX::Colors::PaleVioletRed
PUBLIC	?PapayaWhip@Colors@DirectX@@3UXMVECTORF32@2@B	; DirectX::Colors::PapayaWhip
PUBLIC	?PeachPuff@Colors@DirectX@@3UXMVECTORF32@2@B	; DirectX::Colors::PeachPuff
PUBLIC	?Peru@Colors@DirectX@@3UXMVECTORF32@2@B		; DirectX::Colors::Peru
PUBLIC	?Pink@Colors@DirectX@@3UXMVECTORF32@2@B		; DirectX::Colors::Pink
PUBLIC	?Plum@Colors@DirectX@@3UXMVECTORF32@2@B		; DirectX::Colors::Plum
PUBLIC	?PowderBlue@Colors@DirectX@@3UXMVECTORF32@2@B	; DirectX::Colors::PowderBlue
PUBLIC	?Purple@Colors@DirectX@@3UXMVECTORF32@2@B	; DirectX::Colors::Purple
PUBLIC	?Red@Colors@DirectX@@3UXMVECTORF32@2@B		; DirectX::Colors::Red
PUBLIC	?RosyBrown@Colors@DirectX@@3UXMVECTORF32@2@B	; DirectX::Colors::RosyBrown
PUBLIC	?RoyalBlue@Colors@DirectX@@3UXMVECTORF32@2@B	; DirectX::Colors::RoyalBlue
PUBLIC	?SaddleBrown@Colors@DirectX@@3UXMVECTORF32@2@B	; DirectX::Colors::SaddleBrown
PUBLIC	?Salmon@Colors@DirectX@@3UXMVECTORF32@2@B	; DirectX::Colors::Salmon
PUBLIC	?SandyBrown@Colors@DirectX@@3UXMVECTORF32@2@B	; DirectX::Colors::SandyBrown
PUBLIC	?SeaGreen@Colors@DirectX@@3UXMVECTORF32@2@B	; DirectX::Colors::SeaGreen
PUBLIC	?SeaShell@Colors@DirectX@@3UXMVECTORF32@2@B	; DirectX::Colors::SeaShell
PUBLIC	?Sienna@Colors@DirectX@@3UXMVECTORF32@2@B	; DirectX::Colors::Sienna
PUBLIC	?g_BoxOffset@DirectX@@3QBUXMVECTORF32@1@B	; DirectX::g_BoxOffset
PUBLIC	?Silver@Colors@DirectX@@3UXMVECTORF32@2@B	; DirectX::Colors::Silver
PUBLIC	?g_RayEpsilon@DirectX@@3UXMVECTORF32@1@B	; DirectX::g_RayEpsilon
PUBLIC	?SkyBlue@Colors@DirectX@@3UXMVECTORF32@2@B	; DirectX::Colors::SkyBlue
PUBLIC	?g_RayNegEpsilon@DirectX@@3UXMVECTORF32@1@B	; DirectX::g_RayNegEpsilon
PUBLIC	?SlateBlue@Colors@DirectX@@3UXMVECTORF32@2@B	; DirectX::Colors::SlateBlue
PUBLIC	?g_FltMin@DirectX@@3UXMVECTORF32@1@B		; DirectX::g_FltMin
PUBLIC	?SlateGray@Colors@DirectX@@3UXMVECTORF32@2@B	; DirectX::Colors::SlateGray
PUBLIC	?g_FltMax@DirectX@@3UXMVECTORF32@1@B		; DirectX::g_FltMax
PUBLIC	?Snow@Colors@DirectX@@3UXMVECTORF32@2@B		; DirectX::Colors::Snow
PUBLIC	?SpringGreen@Colors@DirectX@@3UXMVECTORF32@2@B	; DirectX::Colors::SpringGreen
PUBLIC	?SteelBlue@Colors@DirectX@@3UXMVECTORF32@2@B	; DirectX::Colors::SteelBlue
PUBLIC	?Tan@Colors@DirectX@@3UXMVECTORF32@2@B		; DirectX::Colors::Tan
PUBLIC	?Teal@Colors@DirectX@@3UXMVECTORF32@2@B		; DirectX::Colors::Teal
PUBLIC	?Thistle@Colors@DirectX@@3UXMVECTORF32@2@B	; DirectX::Colors::Thistle
PUBLIC	?Tomato@Colors@DirectX@@3UXMVECTORF32@2@B	; DirectX::Colors::Tomato
PUBLIC	?Transparent@Colors@DirectX@@3UXMVECTORF32@2@B	; DirectX::Colors::Transparent
PUBLIC	?Turquoise@Colors@DirectX@@3UXMVECTORF32@2@B	; DirectX::Colors::Turquoise
PUBLIC	?Violet@Colors@DirectX@@3UXMVECTORF32@2@B	; DirectX::Colors::Violet
PUBLIC	?Wheat@Colors@DirectX@@3UXMVECTORF32@2@B	; DirectX::Colors::Wheat
PUBLIC	?White@Colors@DirectX@@3UXMVECTORF32@2@B	; DirectX::Colors::White
PUBLIC	?WhiteSmoke@Colors@DirectX@@3UXMVECTORF32@2@B	; DirectX::Colors::WhiteSmoke
PUBLIC	?Yellow@Colors@DirectX@@3UXMVECTORF32@2@B	; DirectX::Colors::Yellow
PUBLIC	?YellowGreen@Colors@DirectX@@3UXMVECTORF32@2@B	; DirectX::Colors::YellowGreen
PUBLIC	?g_UnitVectorEpsilon@Internal@DirectX@@3UXMVECTORF32@2@B ; DirectX::Internal::g_UnitVectorEpsilon
PUBLIC	?g_UnitQuaternionEpsilon@Internal@DirectX@@3UXMVECTORF32@2@B ; DirectX::Internal::g_UnitQuaternionEpsilon
PUBLIC	?g_UnitPlaneEpsilon@Internal@DirectX@@3UXMVECTORF32@2@B ; DirectX::Internal::g_UnitPlaneEpsilon
PUBLIC	?g_XMSinCoefficients0@DirectX@@3UXMVECTORF32@1@B ; DirectX::g_XMSinCoefficients0
PUBLIC	?g_XMSinCoefficients1@DirectX@@3UXMVECTORF32@1@B ; DirectX::g_XMSinCoefficients1
PUBLIC	?g_XMCosCoefficients0@DirectX@@3UXMVECTORF32@1@B ; DirectX::g_XMCosCoefficients0
PUBLIC	?g_XMCosCoefficients1@DirectX@@3UXMVECTORF32@1@B ; DirectX::g_XMCosCoefficients1
PUBLIC	?g_XMTanCoefficients0@DirectX@@3UXMVECTORF32@1@B ; DirectX::g_XMTanCoefficients0
PUBLIC	?g_XMTanCoefficients1@DirectX@@3UXMVECTORF32@1@B ; DirectX::g_XMTanCoefficients1
PUBLIC	?g_XMTanCoefficients2@DirectX@@3UXMVECTORF32@1@B ; DirectX::g_XMTanCoefficients2
PUBLIC	?g_XMArcCoefficients0@DirectX@@3UXMVECTORF32@1@B ; DirectX::g_XMArcCoefficients0
PUBLIC	?g_XMArcCoefficients1@DirectX@@3UXMVECTORF32@1@B ; DirectX::g_XMArcCoefficients1
PUBLIC	?g_XMATanCoefficients0@DirectX@@3UXMVECTORF32@1@B ; DirectX::g_XMATanCoefficients0
PUBLIC	?g_XMATanCoefficients1@DirectX@@3UXMVECTORF32@1@B ; DirectX::g_XMATanCoefficients1
PUBLIC	?g_XMATanEstCoefficients0@DirectX@@3UXMVECTORF32@1@B ; DirectX::g_XMATanEstCoefficients0
PUBLIC	?g_XMATanEstCoefficients1@DirectX@@3UXMVECTORF32@1@B ; DirectX::g_XMATanEstCoefficients1
PUBLIC	?g_XMTanEstCoefficients@DirectX@@3UXMVECTORF32@1@B ; DirectX::g_XMTanEstCoefficients
PUBLIC	?g_XMArcEstCoefficients@DirectX@@3UXMVECTORF32@1@B ; DirectX::g_XMArcEstCoefficients
PUBLIC	?g_XMPiConstants0@DirectX@@3UXMVECTORF32@1@B	; DirectX::g_XMPiConstants0
PUBLIC	?g_XMIdentityR0@DirectX@@3UXMVECTORF32@1@B	; DirectX::g_XMIdentityR0
PUBLIC	?g_XMIdentityR1@DirectX@@3UXMVECTORF32@1@B	; DirectX::g_XMIdentityR1
PUBLIC	?g_XMIdentityR2@DirectX@@3UXMVECTORF32@1@B	; DirectX::g_XMIdentityR2
PUBLIC	?g_XMIdentityR3@DirectX@@3UXMVECTORF32@1@B	; DirectX::g_XMIdentityR3
PUBLIC	?g_XMNegIdentityR0@DirectX@@3UXMVECTORF32@1@B	; DirectX::g_XMNegIdentityR0
PUBLIC	?g_XMNegIdentityR1@DirectX@@3UXMVECTORF32@1@B	; DirectX::g_XMNegIdentityR1
PUBLIC	?g_XMNegIdentityR2@DirectX@@3UXMVECTORF32@1@B	; DirectX::g_XMNegIdentityR2
PUBLIC	?g_XMNegIdentityR3@DirectX@@3UXMVECTORF32@1@B	; DirectX::g_XMNegIdentityR3
PUBLIC	?g_XMNegativeZero@DirectX@@3UXMVECTORU32@1@B	; DirectX::g_XMNegativeZero
PUBLIC	?g_XMNegate3@DirectX@@3UXMVECTORU32@1@B		; DirectX::g_XMNegate3
PUBLIC	?g_XMMask3@DirectX@@3UXMVECTORU32@1@B		; DirectX::g_XMMask3
PUBLIC	?g_XMMaskX@DirectX@@3UXMVECTORU32@1@B		; DirectX::g_XMMaskX
PUBLIC	?g_XMMaskY@DirectX@@3UXMVECTORU32@1@B		; DirectX::g_XMMaskY
PUBLIC	?g_XMMaskZ@DirectX@@3UXMVECTORU32@1@B		; DirectX::g_XMMaskZ
PUBLIC	?g_XMMaskW@DirectX@@3UXMVECTORU32@1@B		; DirectX::g_XMMaskW
PUBLIC	?g_XMOne@DirectX@@3UXMVECTORF32@1@B		; DirectX::g_XMOne
PUBLIC	?g_XMOne3@DirectX@@3UXMVECTORF32@1@B		; DirectX::g_XMOne3
PUBLIC	?g_XMZero@DirectX@@3UXMVECTORF32@1@B		; DirectX::g_XMZero
PUBLIC	?g_XMTwo@DirectX@@3UXMVECTORF32@1@B		; DirectX::g_XMTwo
PUBLIC	?g_XMFour@DirectX@@3UXMVECTORF32@1@B		; DirectX::g_XMFour
PUBLIC	?g_XMSix@DirectX@@3UXMVECTORF32@1@B		; DirectX::g_XMSix
PUBLIC	?g_XMNegativeOne@DirectX@@3UXMVECTORF32@1@B	; DirectX::g_XMNegativeOne
PUBLIC	?g_XMOneHalf@DirectX@@3UXMVECTORF32@1@B		; DirectX::g_XMOneHalf
PUBLIC	?g_XMNegativeOneHalf@DirectX@@3UXMVECTORF32@1@B	; DirectX::g_XMNegativeOneHalf
PUBLIC	?g_XMNegativeTwoPi@DirectX@@3UXMVECTORF32@1@B	; DirectX::g_XMNegativeTwoPi
PUBLIC	?g_XMNegativePi@DirectX@@3UXMVECTORF32@1@B	; DirectX::g_XMNegativePi
PUBLIC	?g_XMHalfPi@DirectX@@3UXMVECTORF32@1@B		; DirectX::g_XMHalfPi
PUBLIC	?g_XMPi@DirectX@@3UXMVECTORF32@1@B		; DirectX::g_XMPi
PUBLIC	?g_XMReciprocalPi@DirectX@@3UXMVECTORF32@1@B	; DirectX::g_XMReciprocalPi
PUBLIC	?g_XMTwoPi@DirectX@@3UXMVECTORF32@1@B		; DirectX::g_XMTwoPi
PUBLIC	?g_XMReciprocalTwoPi@DirectX@@3UXMVECTORF32@1@B	; DirectX::g_XMReciprocalTwoPi
PUBLIC	?g_XMEpsilon@DirectX@@3UXMVECTORF32@1@B		; DirectX::g_XMEpsilon
PUBLIC	?g_XMInfinity@DirectX@@3UXMVECTORI32@1@B	; DirectX::g_XMInfinity
PUBLIC	?g_XMQNaN@DirectX@@3UXMVECTORI32@1@B		; DirectX::g_XMQNaN
PUBLIC	?g_XMQNaNTest@DirectX@@3UXMVECTORI32@1@B	; DirectX::g_XMQNaNTest
PUBLIC	?g_XMAbsMask@DirectX@@3UXMVECTORI32@1@B		; DirectX::g_XMAbsMask
PUBLIC	?g_XMFltMin@DirectX@@3UXMVECTORI32@1@B		; DirectX::g_XMFltMin
PUBLIC	?g_XMFltMax@DirectX@@3UXMVECTORI32@1@B		; DirectX::g_XMFltMax
PUBLIC	?g_XMNegOneMask@DirectX@@3UXMVECTORU32@1@B	; DirectX::g_XMNegOneMask
PUBLIC	?g_XMMaskA8R8G8B8@DirectX@@3UXMVECTORU32@1@B	; DirectX::g_XMMaskA8R8G8B8
PUBLIC	?g_XMFlipA8R8G8B8@DirectX@@3UXMVECTORU32@1@B	; DirectX::g_XMFlipA8R8G8B8
PUBLIC	?g_XMFixAA8R8G8B8@DirectX@@3UXMVECTORF32@1@B	; DirectX::g_XMFixAA8R8G8B8
PUBLIC	?g_XMNormalizeA8R8G8B8@DirectX@@3UXMVECTORF32@1@B ; DirectX::g_XMNormalizeA8R8G8B8
PUBLIC	?g_XMMaskA2B10G10R10@DirectX@@3UXMVECTORU32@1@B	; DirectX::g_XMMaskA2B10G10R10
PUBLIC	?g_XMFlipA2B10G10R10@DirectX@@3UXMVECTORU32@1@B	; DirectX::g_XMFlipA2B10G10R10
PUBLIC	?g_XMFixAA2B10G10R10@DirectX@@3UXMVECTORF32@1@B	; DirectX::g_XMFixAA2B10G10R10
PUBLIC	?g_XMNormalizeA2B10G10R10@DirectX@@3UXMVECTORF32@1@B ; DirectX::g_XMNormalizeA2B10G10R10
PUBLIC	?g_XMMaskX16Y16@DirectX@@3UXMVECTORU32@1@B	; DirectX::g_XMMaskX16Y16
PUBLIC	?g_XMFlipX16Y16@DirectX@@3UXMVECTORI32@1@B	; DirectX::g_XMFlipX16Y16
PUBLIC	?g_XMFixX16Y16@DirectX@@3UXMVECTORF32@1@B	; DirectX::g_XMFixX16Y16
PUBLIC	?g_XMNormalizeX16Y16@DirectX@@3UXMVECTORF32@1@B	; DirectX::g_XMNormalizeX16Y16
PUBLIC	?g_XMMaskX16Y16Z16W16@DirectX@@3UXMVECTORU32@1@B ; DirectX::g_XMMaskX16Y16Z16W16
PUBLIC	?g_XMFlipX16Y16Z16W16@DirectX@@3UXMVECTORI32@1@B ; DirectX::g_XMFlipX16Y16Z16W16
PUBLIC	?g_XMFixX16Y16Z16W16@DirectX@@3UXMVECTORF32@1@B	; DirectX::g_XMFixX16Y16Z16W16
PUBLIC	?g_XMNormalizeX16Y16Z16W16@DirectX@@3UXMVECTORF32@1@B ; DirectX::g_XMNormalizeX16Y16Z16W16
PUBLIC	?g_XMNoFraction@DirectX@@3UXMVECTORF32@1@B	; DirectX::g_XMNoFraction
PUBLIC	?g_XMMaskByte@DirectX@@3UXMVECTORI32@1@B	; DirectX::g_XMMaskByte
PUBLIC	?g_XMNegateX@DirectX@@3UXMVECTORF32@1@B		; DirectX::g_XMNegateX
PUBLIC	?g_XMNegateY@DirectX@@3UXMVECTORF32@1@B		; DirectX::g_XMNegateY
PUBLIC	?g_XMNegateZ@DirectX@@3UXMVECTORF32@1@B		; DirectX::g_XMNegateZ
PUBLIC	?g_XMNegateW@DirectX@@3UXMVECTORF32@1@B		; DirectX::g_XMNegateW
PUBLIC	?g_XMSelect0101@DirectX@@3UXMVECTORU32@1@B	; DirectX::g_XMSelect0101
PUBLIC	?g_XMSelect1010@DirectX@@3UXMVECTORU32@1@B	; DirectX::g_XMSelect1010
PUBLIC	?g_XMOneHalfMinusEpsilon@DirectX@@3UXMVECTORI32@1@B ; DirectX::g_XMOneHalfMinusEpsilon
PUBLIC	?g_XMSelect1000@DirectX@@3UXMVECTORU32@1@B	; DirectX::g_XMSelect1000
PUBLIC	?g_XMSelect1100@DirectX@@3UXMVECTORU32@1@B	; DirectX::g_XMSelect1100
PUBLIC	?g_XMSelect1110@DirectX@@3UXMVECTORU32@1@B	; DirectX::g_XMSelect1110
PUBLIC	?g_XMSelect1011@DirectX@@3UXMVECTORU32@1@B	; DirectX::g_XMSelect1011
PUBLIC	?g_XMFixupY16@DirectX@@3UXMVECTORF32@1@B	; DirectX::g_XMFixupY16
PUBLIC	?g_XMFixupY16W16@DirectX@@3UXMVECTORF32@1@B	; DirectX::g_XMFixupY16W16
PUBLIC	?g_XMFlipY@DirectX@@3UXMVECTORU32@1@B		; DirectX::g_XMFlipY
PUBLIC	?g_XMFlipZ@DirectX@@3UXMVECTORU32@1@B		; DirectX::g_XMFlipZ
PUBLIC	?g_XMFlipW@DirectX@@3UXMVECTORU32@1@B		; DirectX::g_XMFlipW
PUBLIC	?g_XMFlipYZ@DirectX@@3UXMVECTORU32@1@B		; DirectX::g_XMFlipYZ
PUBLIC	?g_XMFlipZW@DirectX@@3UXMVECTORU32@1@B		; DirectX::g_XMFlipZW
PUBLIC	?g_XMFlipYW@DirectX@@3UXMVECTORU32@1@B		; DirectX::g_XMFlipYW
PUBLIC	?g_XMMaskDec4@DirectX@@3UXMVECTORI32@1@B	; DirectX::g_XMMaskDec4
PUBLIC	?g_XMXorDec4@DirectX@@3UXMVECTORI32@1@B		; DirectX::g_XMXorDec4
PUBLIC	?g_XMAddUDec4@DirectX@@3UXMVECTORF32@1@B	; DirectX::g_XMAddUDec4
PUBLIC	?g_XMAddDec4@DirectX@@3UXMVECTORF32@1@B		; DirectX::g_XMAddDec4
PUBLIC	?g_XMMulDec4@DirectX@@3UXMVECTORF32@1@B		; DirectX::g_XMMulDec4
PUBLIC	?g_XMMaskByte4@DirectX@@3UXMVECTORU32@1@B	; DirectX::g_XMMaskByte4
PUBLIC	?g_XMXorByte4@DirectX@@3UXMVECTORI32@1@B	; DirectX::g_XMXorByte4
PUBLIC	?g_XMAddByte4@DirectX@@3UXMVECTORF32@1@B	; DirectX::g_XMAddByte4
PUBLIC	?g_XMFixUnsigned@DirectX@@3UXMVECTORF32@1@B	; DirectX::g_XMFixUnsigned
PUBLIC	?g_XMMaxInt@DirectX@@3UXMVECTORF32@1@B		; DirectX::g_XMMaxInt
PUBLIC	?g_XMMaxUInt@DirectX@@3UXMVECTORF32@1@B		; DirectX::g_XMMaxUInt
PUBLIC	?g_XMUnsignedFix@DirectX@@3UXMVECTORF32@1@B	; DirectX::g_XMUnsignedFix
PUBLIC	?g_XMsrgbScale@DirectX@@3UXMVECTORF32@1@B	; DirectX::g_XMsrgbScale
PUBLIC	?g_XMsrgbA@DirectX@@3UXMVECTORF32@1@B		; DirectX::g_XMsrgbA
PUBLIC	?g_XMsrgbA1@DirectX@@3UXMVECTORF32@1@B		; DirectX::g_XMsrgbA1
PUBLIC	?g_XMExponentBias@DirectX@@3UXMVECTORI32@1@B	; DirectX::g_XMExponentBias
PUBLIC	?g_XMSubnormalExponent@DirectX@@3UXMVECTORI32@1@B ; DirectX::g_XMSubnormalExponent
PUBLIC	?g_XMNumTrailing@DirectX@@3UXMVECTORI32@1@B	; DirectX::g_XMNumTrailing
PUBLIC	?g_XMMinNormal@DirectX@@3UXMVECTORI32@1@B	; DirectX::g_XMMinNormal
PUBLIC	?g_XMNegInfinity@DirectX@@3UXMVECTORU32@1@B	; DirectX::g_XMNegInfinity
PUBLIC	?g_XMNegQNaN@DirectX@@3UXMVECTORU32@1@B		; DirectX::g_XMNegQNaN
PUBLIC	?g_XMBin128@DirectX@@3UXMVECTORI32@1@B		; DirectX::g_XMBin128
PUBLIC	?g_XMBinNeg150@DirectX@@3UXMVECTORU32@1@B	; DirectX::g_XMBinNeg150
PUBLIC	?g_XM253@DirectX@@3UXMVECTORI32@1@B		; DirectX::g_XM253
PUBLIC	?g_XMExpEst1@DirectX@@3UXMVECTORF32@1@B		; DirectX::g_XMExpEst1
PUBLIC	?g_XMExpEst2@DirectX@@3UXMVECTORF32@1@B		; DirectX::g_XMExpEst2
PUBLIC	?g_XMExpEst3@DirectX@@3UXMVECTORF32@1@B		; DirectX::g_XMExpEst3
PUBLIC	?g_XMExpEst4@DirectX@@3UXMVECTORF32@1@B		; DirectX::g_XMExpEst4
PUBLIC	?g_XMExpEst5@DirectX@@3UXMVECTORF32@1@B		; DirectX::g_XMExpEst5
PUBLIC	?g_XMExpEst6@DirectX@@3UXMVECTORF32@1@B		; DirectX::g_XMExpEst6
PUBLIC	?g_XMExpEst7@DirectX@@3UXMVECTORF32@1@B		; DirectX::g_XMExpEst7
PUBLIC	?g_XMLogEst0@DirectX@@3UXMVECTORF32@1@B		; DirectX::g_XMLogEst0
PUBLIC	?g_XMLogEst1@DirectX@@3UXMVECTORF32@1@B		; DirectX::g_XMLogEst1
PUBLIC	?g_XMLogEst2@DirectX@@3UXMVECTORF32@1@B		; DirectX::g_XMLogEst2
PUBLIC	?g_XMLogEst3@DirectX@@3UXMVECTORF32@1@B		; DirectX::g_XMLogEst3
PUBLIC	?g_XMLogEst4@DirectX@@3UXMVECTORF32@1@B		; DirectX::g_XMLogEst4
PUBLIC	?g_XMLogEst5@DirectX@@3UXMVECTORF32@1@B		; DirectX::g_XMLogEst5
PUBLIC	?g_XMLogEst6@DirectX@@3UXMVECTORF32@1@B		; DirectX::g_XMLogEst6
PUBLIC	?g_XMLogEst7@DirectX@@3UXMVECTORF32@1@B		; DirectX::g_XMLogEst7
PUBLIC	?g_XMLgE@DirectX@@3UXMVECTORF32@1@B		; DirectX::g_XMLgE
PUBLIC	?g_XMInvLgE@DirectX@@3UXMVECTORF32@1@B		; DirectX::g_XMInvLgE
;	COMDAT ?g_XMInvLgE@DirectX@@3UXMVECTORF32@1@B
CONST	SEGMENT
?g_XMInvLgE@DirectX@@3UXMVECTORF32@1@B DD 03f317218r ; 0.693147 ; DirectX::g_XMInvLgE
	DD	03f317218r			; 0.693147
	DD	03f317218r			; 0.693147
	DD	03f317218r			; 0.693147
CONST	ENDS
;	COMDAT ?g_XMLgE@DirectX@@3UXMVECTORF32@1@B
CONST	SEGMENT
?g_XMLgE@DirectX@@3UXMVECTORF32@1@B DD 03fb8aa3br ; 1.4427 ; DirectX::g_XMLgE
	DD	03fb8aa3br			; 1.4427
	DD	03fb8aa3br			; 1.4427
	DD	03fb8aa3br			; 1.4427
CONST	ENDS
;	COMDAT ?g_XMLogEst7@DirectX@@3UXMVECTORF32@1@B
CONST	SEGMENT
?g_XMLogEst7@DirectX@@3UXMVECTORF32@1@B DD 0bc2d4f59r ; -0.010578 ; DirectX::g_XMLogEst7
	DD	0bc2d4f59r			; -0.010578
	DD	0bc2d4f59r			; -0.010578
	DD	0bc2d4f59r			; -0.010578
CONST	ENDS
;	COMDAT ?g_XMLogEst6@DirectX@@3UXMVECTORF32@1@B
CONST	SEGMENT
?g_XMLogEst6@DirectX@@3UXMVECTORF32@1@B DD 03d6a1405r ; 0.057148 ; DirectX::g_XMLogEst6
	DD	03d6a1405r			; 0.057148
	DD	03d6a1405r			; 0.057148
	DD	03d6a1405r			; 0.057148
CONST	ENDS
;	COMDAT ?g_XMLogEst5@DirectX@@3UXMVECTORF32@1@B
CONST	SEGMENT
?g_XMLogEst5@DirectX@@3UXMVECTORF32@1@B DD 0be153261r ; -0.1457 ; DirectX::g_XMLogEst5
	DD	0be153261r			; -0.1457
	DD	0be153261r			; -0.1457
	DD	0be153261r			; -0.1457
CONST	ENDS
;	COMDAT ?g_XMLogEst4@DirectX@@3UXMVECTORF32@1@B
CONST	SEGMENT
?g_XMLogEst4@DirectX@@3UXMVECTORF32@1@B DD 03e7e8e61r ; 0.24859 ; DirectX::g_XMLogEst4
	DD	03e7e8e61r			; 0.24859
	DD	03e7e8e61r			; 0.24859
	DD	03e7e8e61r			; 0.24859
CONST	ENDS
;	COMDAT ?g_XMLogEst3@DirectX@@3UXMVECTORF32@1@B
CONST	SEGMENT
?g_XMLogEst3@DirectX@@3UXMVECTORF32@1@B DD 0beb359der ; -0.350295 ; DirectX::g_XMLogEst3
	DD	0beb359der			; -0.350295
	DD	0beb359der			; -0.350295
	DD	0beb359der			; -0.350295
CONST	ENDS
;	COMDAT ?g_XMLogEst2@DirectX@@3UXMVECTORF32@1@B
CONST	SEGMENT
?g_XMLogEst2@DirectX@@3UXMVECTORF32@1@B DD 03ef571d2r ; 0.479384 ; DirectX::g_XMLogEst2
	DD	03ef571d2r			; 0.479384
	DD	03ef571d2r			; 0.479384
	DD	03ef571d2r			; 0.479384
CONST	ENDS
;	COMDAT ?g_XMLogEst1@DirectX@@3UXMVECTORF32@1@B
CONST	SEGMENT
?g_XMLogEst1@DirectX@@3UXMVECTORF32@1@B DD 0bf38a351r ; -0.721242 ; DirectX::g_XMLogEst1
	DD	0bf38a351r			; -0.721242
	DD	0bf38a351r			; -0.721242
	DD	0bf38a351r			; -0.721242
CONST	ENDS
;	COMDAT ?g_XMLogEst0@DirectX@@3UXMVECTORF32@1@B
CONST	SEGMENT
?g_XMLogEst0@DirectX@@3UXMVECTORF32@1@B DD 03fb8aa2ar ; 1.44269 ; DirectX::g_XMLogEst0
	DD	03fb8aa2ar			; 1.44269
	DD	03fb8aa2ar			; 1.44269
	DD	03fb8aa2ar			; 1.44269
CONST	ENDS
;	COMDAT ?g_XMExpEst7@DirectX@@3UXMVECTORF32@1@B
CONST	SEGMENT
?g_XMExpEst7@DirectX@@3UXMVECTORF32@1@B DD 0b7364261r ; -1.08635e-05 ; DirectX::g_XMExpEst7
	DD	0b7364261r			; -1.08635e-05
	DD	0b7364261r			; -1.08635e-05
	DD	0b7364261r			; -1.08635e-05
CONST	ENDS
;	COMDAT ?g_XMExpEst6@DirectX@@3UXMVECTORF32@1@B
CONST	SEGMENT
?g_XMExpEst6@DirectX@@3UXMVECTORF32@1@B DD 0391aa7d7r ; 0.000147491 ; DirectX::g_XMExpEst6
	DD	0391aa7d7r			; 0.000147491
	DD	0391aa7d7r			; 0.000147491
	DD	0391aa7d7r			; 0.000147491
CONST	ENDS
;	COMDAT ?g_XMExpEst5@DirectX@@3UXMVECTORF32@1@B
CONST	SEGMENT
?g_XMExpEst5@DirectX@@3UXMVECTORF32@1@B DD 0baae1854r ; -0.00132824 ; DirectX::g_XMExpEst5
	DD	0baae1854r			; -0.00132824
	DD	0baae1854r			; -0.00132824
	DD	0baae1854r			; -0.00132824
CONST	ENDS
;	COMDAT ?g_XMExpEst4@DirectX@@3UXMVECTORF32@1@B
CONST	SEGMENT
?g_XMExpEst4@DirectX@@3UXMVECTORF32@1@B DD 03c1d8c54r ; 0.00961598 ; DirectX::g_XMExpEst4
	DD	03c1d8c54r			; 0.00961598
	DD	03c1d8c54r			; 0.00961598
	DD	03c1d8c54r			; 0.00961598
CONST	ENDS
;	COMDAT ?g_XMExpEst3@DirectX@@3UXMVECTORF32@1@B
CONST	SEGMENT
?g_XMExpEst3@DirectX@@3UXMVECTORF32@1@B DD 0bd6357car ; -0.0555036 ; DirectX::g_XMExpEst3
	DD	0bd6357car			; -0.0555036
	DD	0bd6357car			; -0.0555036
	DD	0bd6357car			; -0.0555036
CONST	ENDS
;	COMDAT ?g_XMExpEst2@DirectX@@3UXMVECTORF32@1@B
CONST	SEGMENT
?g_XMExpEst2@DirectX@@3UXMVECTORF32@1@B DD 03e75fdedr ; 0.240226 ; DirectX::g_XMExpEst2
	DD	03e75fdedr			; 0.240226
	DD	03e75fdedr			; 0.240226
	DD	03e75fdedr			; 0.240226
CONST	ENDS
;	COMDAT ?g_XMExpEst1@DirectX@@3UXMVECTORF32@1@B
CONST	SEGMENT
?g_XMExpEst1@DirectX@@3UXMVECTORF32@1@B DD 0bf317218r ; -0.693147 ; DirectX::g_XMExpEst1
	DD	0bf317218r			; -0.693147
	DD	0bf317218r			; -0.693147
	DD	0bf317218r			; -0.693147
CONST	ENDS
;	COMDAT ?g_XM253@DirectX@@3UXMVECTORI32@1@B
CONST	SEGMENT
?g_XM253@DirectX@@3UXMVECTORI32@1@B DD 0fdH		; DirectX::g_XM253
	DD	0fdH
	DD	0fdH
	DD	0fdH
CONST	ENDS
;	COMDAT ?g_XMBinNeg150@DirectX@@3UXMVECTORU32@1@B
CONST	SEGMENT
?g_XMBinNeg150@DirectX@@3UXMVECTORU32@1@B DD 0c3160000H	; DirectX::g_XMBinNeg150
	DD	0c3160000H
	DD	0c3160000H
	DD	0c3160000H
CONST	ENDS
;	COMDAT ?g_XMBin128@DirectX@@3UXMVECTORI32@1@B
CONST	SEGMENT
?g_XMBin128@DirectX@@3UXMVECTORI32@1@B DD 043000000H	; DirectX::g_XMBin128
	DD	043000000H
	DD	043000000H
	DD	043000000H
CONST	ENDS
;	COMDAT ?g_XMNegQNaN@DirectX@@3UXMVECTORU32@1@B
CONST	SEGMENT
?g_XMNegQNaN@DirectX@@3UXMVECTORU32@1@B DD 0ffc00000H	; DirectX::g_XMNegQNaN
	DD	0ffc00000H
	DD	0ffc00000H
	DD	0ffc00000H
CONST	ENDS
;	COMDAT ?g_XMNegInfinity@DirectX@@3UXMVECTORU32@1@B
CONST	SEGMENT
?g_XMNegInfinity@DirectX@@3UXMVECTORU32@1@B DD 0ff800000H ; DirectX::g_XMNegInfinity
	DD	0ff800000H
	DD	0ff800000H
	DD	0ff800000H
CONST	ENDS
;	COMDAT ?g_XMMinNormal@DirectX@@3UXMVECTORI32@1@B
CONST	SEGMENT
?g_XMMinNormal@DirectX@@3UXMVECTORI32@1@B DD 0800000H	; DirectX::g_XMMinNormal
	DD	0800000H
	DD	0800000H
	DD	0800000H
CONST	ENDS
;	COMDAT ?g_XMNumTrailing@DirectX@@3UXMVECTORI32@1@B
CONST	SEGMENT
?g_XMNumTrailing@DirectX@@3UXMVECTORI32@1@B DD 017H	; DirectX::g_XMNumTrailing
	DD	017H
	DD	017H
	DD	017H
CONST	ENDS
;	COMDAT ?g_XMSubnormalExponent@DirectX@@3UXMVECTORI32@1@B
CONST	SEGMENT
?g_XMSubnormalExponent@DirectX@@3UXMVECTORI32@1@B DD 0ffffff82H ; DirectX::g_XMSubnormalExponent
	DD	0ffffff82H
	DD	0ffffff82H
	DD	0ffffff82H
CONST	ENDS
;	COMDAT ?g_XMExponentBias@DirectX@@3UXMVECTORI32@1@B
CONST	SEGMENT
?g_XMExponentBias@DirectX@@3UXMVECTORI32@1@B DD 07fH	; DirectX::g_XMExponentBias
	DD	07fH
	DD	07fH
	DD	07fH
CONST	ENDS
;	COMDAT ?g_XMsrgbA1@DirectX@@3UXMVECTORF32@1@B
CONST	SEGMENT
?g_XMsrgbA1@DirectX@@3UXMVECTORF32@1@B DD 03f870a3dr ; 1.055 ; DirectX::g_XMsrgbA1
	DD	03f870a3dr			; 1.055
	DD	03f870a3dr			; 1.055
	DD	03f800000r			; 1
CONST	ENDS
;	COMDAT ?g_XMsrgbA@DirectX@@3UXMVECTORF32@1@B
CONST	SEGMENT
?g_XMsrgbA@DirectX@@3UXMVECTORF32@1@B DD 03d6147aer ; 0.055 ; DirectX::g_XMsrgbA
	DD	03d6147aer			; 0.055
	DD	03d6147aer			; 0.055
	DD	000000000r			; 0
CONST	ENDS
;	COMDAT ?g_XMsrgbScale@DirectX@@3UXMVECTORF32@1@B
CONST	SEGMENT
?g_XMsrgbScale@DirectX@@3UXMVECTORF32@1@B DD 0414eb852r ; 12.92 ; DirectX::g_XMsrgbScale
	DD	0414eb852r			; 12.92
	DD	0414eb852r			; 12.92
	DD	03f800000r			; 1
CONST	ENDS
;	COMDAT ?g_XMUnsignedFix@DirectX@@3UXMVECTORF32@1@B
CONST	SEGMENT
?g_XMUnsignedFix@DirectX@@3UXMVECTORF32@1@B DD 04f000000r ; 2.14748e+09 ; DirectX::g_XMUnsignedFix
	DD	04f000000r			; 2.14748e+09
	DD	04f000000r			; 2.14748e+09
	DD	04f000000r			; 2.14748e+09
CONST	ENDS
;	COMDAT ?g_XMMaxUInt@DirectX@@3UXMVECTORF32@1@B
CONST	SEGMENT
?g_XMMaxUInt@DirectX@@3UXMVECTORF32@1@B DD 04f7fffffr ; 4.29497e+09 ; DirectX::g_XMMaxUInt
	DD	04f7fffffr			; 4.29497e+09
	DD	04f7fffffr			; 4.29497e+09
	DD	04f7fffffr			; 4.29497e+09
CONST	ENDS
;	COMDAT ?g_XMMaxInt@DirectX@@3UXMVECTORF32@1@B
CONST	SEGMENT
?g_XMMaxInt@DirectX@@3UXMVECTORF32@1@B DD 04effffffr ; 2.14748e+09 ; DirectX::g_XMMaxInt
	DD	04effffffr			; 2.14748e+09
	DD	04effffffr			; 2.14748e+09
	DD	04effffffr			; 2.14748e+09
CONST	ENDS
;	COMDAT ?g_XMFixUnsigned@DirectX@@3UXMVECTORF32@1@B
CONST	SEGMENT
?g_XMFixUnsigned@DirectX@@3UXMVECTORF32@1@B DD 04f000000r ; 2.14748e+09 ; DirectX::g_XMFixUnsigned
	DD	04f000000r			; 2.14748e+09
	DD	04f000000r			; 2.14748e+09
	DD	04f000000r			; 2.14748e+09
CONST	ENDS
;	COMDAT ?g_XMAddByte4@DirectX@@3UXMVECTORF32@1@B
CONST	SEGMENT
?g_XMAddByte4@DirectX@@3UXMVECTORF32@1@B DD 0c3000000r ; -128 ; DirectX::g_XMAddByte4
	DD	0c7000000r			; -32768
	DD	0cb000000r			; -8.38861e+06
	DD	000000000r			; 0
CONST	ENDS
;	COMDAT ?g_XMXorByte4@DirectX@@3UXMVECTORI32@1@B
CONST	SEGMENT
?g_XMXorByte4@DirectX@@3UXMVECTORI32@1@B DD 080H	; DirectX::g_XMXorByte4
	DD	08000H
	DD	0800000H
	DD	00H
CONST	ENDS
;	COMDAT ?g_XMMaskByte4@DirectX@@3UXMVECTORU32@1@B
CONST	SEGMENT
?g_XMMaskByte4@DirectX@@3UXMVECTORU32@1@B DD 0ffH	; DirectX::g_XMMaskByte4
	DD	0ff00H
	DD	0ff0000H
	DD	0ff000000H
CONST	ENDS
;	COMDAT ?g_XMMulDec4@DirectX@@3UXMVECTORF32@1@B
CONST	SEGMENT
?g_XMMulDec4@DirectX@@3UXMVECTORF32@1@B DD 03f800000r ; 1 ; DirectX::g_XMMulDec4
	DD	03a800000r			; 0.000976563
	DD	035800000r			; 9.53674e-07
	DD	030800000r			; 9.31323e-10
CONST	ENDS
;	COMDAT ?g_XMAddDec4@DirectX@@3UXMVECTORF32@1@B
CONST	SEGMENT
?g_XMAddDec4@DirectX@@3UXMVECTORF32@1@B DD 0c4000000r ; -512 ; DirectX::g_XMAddDec4
	DD	0c9000000r			; -524288
	DD	0ce000000r			; -5.36871e+08
	DD	000000000r			; 0
CONST	ENDS
;	COMDAT ?g_XMAddUDec4@DirectX@@3UXMVECTORF32@1@B
CONST	SEGMENT
?g_XMAddUDec4@DirectX@@3UXMVECTORF32@1@B DD 000000000r ; 0 ; DirectX::g_XMAddUDec4
	DD	000000000r			; 0
	DD	000000000r			; 0
	DD	04f000000r			; 2.14748e+09
CONST	ENDS
;	COMDAT ?g_XMXorDec4@DirectX@@3UXMVECTORI32@1@B
CONST	SEGMENT
?g_XMXorDec4@DirectX@@3UXMVECTORI32@1@B DD 0200H	; DirectX::g_XMXorDec4
	DD	080000H
	DD	020000000H
	DD	00H
CONST	ENDS
;	COMDAT ?g_XMMaskDec4@DirectX@@3UXMVECTORI32@1@B
CONST	SEGMENT
?g_XMMaskDec4@DirectX@@3UXMVECTORI32@1@B DD 03ffH	; DirectX::g_XMMaskDec4
	DD	0ffc00H
	DD	03ff00000H
	DD	0c0000000H
CONST	ENDS
;	COMDAT ?g_XMFlipYW@DirectX@@3UXMVECTORU32@1@B
CONST	SEGMENT
?g_XMFlipYW@DirectX@@3UXMVECTORU32@1@B DD 00H		; DirectX::g_XMFlipYW
	DD	080000000H
	DD	00H
	DD	080000000H
CONST	ENDS
;	COMDAT ?g_XMFlipZW@DirectX@@3UXMVECTORU32@1@B
CONST	SEGMENT
?g_XMFlipZW@DirectX@@3UXMVECTORU32@1@B DD 00H		; DirectX::g_XMFlipZW
	DD	00H
	DD	080000000H
	DD	080000000H
CONST	ENDS
;	COMDAT ?g_XMFlipYZ@DirectX@@3UXMVECTORU32@1@B
CONST	SEGMENT
?g_XMFlipYZ@DirectX@@3UXMVECTORU32@1@B DD 00H		; DirectX::g_XMFlipYZ
	DD	080000000H
	DD	080000000H
	DD	00H
CONST	ENDS
;	COMDAT ?g_XMFlipW@DirectX@@3UXMVECTORU32@1@B
CONST	SEGMENT
?g_XMFlipW@DirectX@@3UXMVECTORU32@1@B DD 00H		; DirectX::g_XMFlipW
	DD	00H
	DD	00H
	DD	080000000H
CONST	ENDS
;	COMDAT ?g_XMFlipZ@DirectX@@3UXMVECTORU32@1@B
CONST	SEGMENT
?g_XMFlipZ@DirectX@@3UXMVECTORU32@1@B DD 00H		; DirectX::g_XMFlipZ
	DD	00H
	DD	080000000H
	DD	00H
CONST	ENDS
;	COMDAT ?g_XMFlipY@DirectX@@3UXMVECTORU32@1@B
CONST	SEGMENT
?g_XMFlipY@DirectX@@3UXMVECTORU32@1@B DD 00H		; DirectX::g_XMFlipY
	DD	080000000H
	DD	00H
	DD	00H
CONST	ENDS
;	COMDAT ?g_XMFixupY16W16@DirectX@@3UXMVECTORF32@1@B
CONST	SEGMENT
?g_XMFixupY16W16@DirectX@@3UXMVECTORF32@1@B DD 03f800000r ; 1 ; DirectX::g_XMFixupY16W16
	DD	03f800000r			; 1
	DD	037800000r			; 1.52588e-05
	DD	037800000r			; 1.52588e-05
CONST	ENDS
;	COMDAT ?g_XMFixupY16@DirectX@@3UXMVECTORF32@1@B
CONST	SEGMENT
?g_XMFixupY16@DirectX@@3UXMVECTORF32@1@B DD 03f800000r ; 1 ; DirectX::g_XMFixupY16
	DD	037800000r			; 1.52588e-05
	DD	000000000r			; 0
	DD	000000000r			; 0
CONST	ENDS
;	COMDAT ?g_XMSelect1011@DirectX@@3UXMVECTORU32@1@B
CONST	SEGMENT
?g_XMSelect1011@DirectX@@3UXMVECTORU32@1@B DD 0ffffffffH ; DirectX::g_XMSelect1011
	DD	00H
	DD	0ffffffffH
	DD	0ffffffffH
CONST	ENDS
;	COMDAT ?g_XMSelect1110@DirectX@@3UXMVECTORU32@1@B
CONST	SEGMENT
?g_XMSelect1110@DirectX@@3UXMVECTORU32@1@B DD 0ffffffffH ; DirectX::g_XMSelect1110
	DD	0ffffffffH
	DD	0ffffffffH
	DD	00H
CONST	ENDS
;	COMDAT ?g_XMSelect1100@DirectX@@3UXMVECTORU32@1@B
CONST	SEGMENT
?g_XMSelect1100@DirectX@@3UXMVECTORU32@1@B DD 0ffffffffH ; DirectX::g_XMSelect1100
	DD	0ffffffffH
	DD	00H
	DD	00H
CONST	ENDS
;	COMDAT ?g_XMSelect1000@DirectX@@3UXMVECTORU32@1@B
CONST	SEGMENT
?g_XMSelect1000@DirectX@@3UXMVECTORU32@1@B DD 0ffffffffH ; DirectX::g_XMSelect1000
	DD	00H
	DD	00H
	DD	00H
CONST	ENDS
;	COMDAT ?g_XMOneHalfMinusEpsilon@DirectX@@3UXMVECTORI32@1@B
CONST	SEGMENT
?g_XMOneHalfMinusEpsilon@DirectX@@3UXMVECTORI32@1@B DD 03efffffdH ; DirectX::g_XMOneHalfMinusEpsilon
	DD	03efffffdH
	DD	03efffffdH
	DD	03efffffdH
CONST	ENDS
;	COMDAT ?g_XMSelect1010@DirectX@@3UXMVECTORU32@1@B
CONST	SEGMENT
?g_XMSelect1010@DirectX@@3UXMVECTORU32@1@B DD 0ffffffffH ; DirectX::g_XMSelect1010
	DD	00H
	DD	0ffffffffH
	DD	00H
CONST	ENDS
;	COMDAT ?g_XMSelect0101@DirectX@@3UXMVECTORU32@1@B
CONST	SEGMENT
?g_XMSelect0101@DirectX@@3UXMVECTORU32@1@B DD 00H	; DirectX::g_XMSelect0101
	DD	0ffffffffH
	DD	00H
	DD	0ffffffffH
CONST	ENDS
;	COMDAT ?g_XMNegateW@DirectX@@3UXMVECTORF32@1@B
CONST	SEGMENT
?g_XMNegateW@DirectX@@3UXMVECTORF32@1@B DD 03f800000r ; 1 ; DirectX::g_XMNegateW
	DD	03f800000r			; 1
	DD	03f800000r			; 1
	DD	0bf800000r			; -1
CONST	ENDS
;	COMDAT ?g_XMNegateZ@DirectX@@3UXMVECTORF32@1@B
CONST	SEGMENT
?g_XMNegateZ@DirectX@@3UXMVECTORF32@1@B DD 03f800000r ; 1 ; DirectX::g_XMNegateZ
	DD	03f800000r			; 1
	DD	0bf800000r			; -1
	DD	03f800000r			; 1
CONST	ENDS
;	COMDAT ?g_XMNegateY@DirectX@@3UXMVECTORF32@1@B
CONST	SEGMENT
?g_XMNegateY@DirectX@@3UXMVECTORF32@1@B DD 03f800000r ; 1 ; DirectX::g_XMNegateY
	DD	0bf800000r			; -1
	DD	03f800000r			; 1
	DD	03f800000r			; 1
CONST	ENDS
;	COMDAT ?g_XMNegateX@DirectX@@3UXMVECTORF32@1@B
CONST	SEGMENT
?g_XMNegateX@DirectX@@3UXMVECTORF32@1@B DD 0bf800000r ; -1 ; DirectX::g_XMNegateX
	DD	03f800000r			; 1
	DD	03f800000r			; 1
	DD	03f800000r			; 1
CONST	ENDS
;	COMDAT ?g_XMMaskByte@DirectX@@3UXMVECTORI32@1@B
CONST	SEGMENT
?g_XMMaskByte@DirectX@@3UXMVECTORI32@1@B DD 0ffH	; DirectX::g_XMMaskByte
	DD	0ffH
	DD	0ffH
	DD	0ffH
CONST	ENDS
;	COMDAT ?g_XMNoFraction@DirectX@@3UXMVECTORF32@1@B
CONST	SEGMENT
?g_XMNoFraction@DirectX@@3UXMVECTORF32@1@B DD 04b000000r ; 8.38861e+06 ; DirectX::g_XMNoFraction
	DD	04b000000r			; 8.38861e+06
	DD	04b000000r			; 8.38861e+06
	DD	04b000000r			; 8.38861e+06
CONST	ENDS
;	COMDAT ?g_XMNormalizeX16Y16Z16W16@DirectX@@3UXMVECTORF32@1@B
CONST	SEGMENT
?g_XMNormalizeX16Y16Z16W16@DirectX@@3UXMVECTORF32@1@B DD 038000100r ; 3.05185e-05 ; DirectX::g_XMNormalizeX16Y16Z16W16
	DD	038000100r			; 3.05185e-05
	DD	030000100r			; 4.65675e-10
	DD	030000100r			; 4.65675e-10
CONST	ENDS
;	COMDAT ?g_XMFixX16Y16Z16W16@DirectX@@3UXMVECTORF32@1@B
CONST	SEGMENT
?g_XMFixX16Y16Z16W16@DirectX@@3UXMVECTORF32@1@B DD 0c7000000r ; -32768 ; DirectX::g_XMFixX16Y16Z16W16
	DD	0c7000000r			; -32768
	DD	000000000r			; 0
	DD	000000000r			; 0
CONST	ENDS
;	COMDAT ?g_XMFlipX16Y16Z16W16@DirectX@@3UXMVECTORI32@1@B
CONST	SEGMENT
?g_XMFlipX16Y16Z16W16@DirectX@@3UXMVECTORI32@1@B DD 08000H ; DirectX::g_XMFlipX16Y16Z16W16
	DD	08000H
	DD	00H
	DD	00H
CONST	ENDS
;	COMDAT ?g_XMMaskX16Y16Z16W16@DirectX@@3UXMVECTORU32@1@B
CONST	SEGMENT
?g_XMMaskX16Y16Z16W16@DirectX@@3UXMVECTORU32@1@B DD 0ffffH ; DirectX::g_XMMaskX16Y16Z16W16
	DD	0ffffH
	DD	0ffff0000H
	DD	0ffff0000H
CONST	ENDS
;	COMDAT ?g_XMNormalizeX16Y16@DirectX@@3UXMVECTORF32@1@B
CONST	SEGMENT
?g_XMNormalizeX16Y16@DirectX@@3UXMVECTORF32@1@B DD 038000100r ; 3.05185e-05 ; DirectX::g_XMNormalizeX16Y16
	DD	030000100r			; 4.65675e-10
	DD	000000000r			; 0
	DD	000000000r			; 0
CONST	ENDS
;	COMDAT ?g_XMFixX16Y16@DirectX@@3UXMVECTORF32@1@B
CONST	SEGMENT
?g_XMFixX16Y16@DirectX@@3UXMVECTORF32@1@B DD 0c7000000r ; -32768 ; DirectX::g_XMFixX16Y16
	DD	000000000r			; 0
	DD	000000000r			; 0
	DD	000000000r			; 0
CONST	ENDS
;	COMDAT ?g_XMFlipX16Y16@DirectX@@3UXMVECTORI32@1@B
CONST	SEGMENT
?g_XMFlipX16Y16@DirectX@@3UXMVECTORI32@1@B DD 08000H	; DirectX::g_XMFlipX16Y16
	DD	00H
	DD	00H
	DD	00H
CONST	ENDS
;	COMDAT ?g_XMMaskX16Y16@DirectX@@3UXMVECTORU32@1@B
CONST	SEGMENT
?g_XMMaskX16Y16@DirectX@@3UXMVECTORU32@1@B DD 0ffffH	; DirectX::g_XMMaskX16Y16
	DD	0ffff0000H
	DD	00H
	DD	00H
CONST	ENDS
;	COMDAT ?g_XMNormalizeA2B10G10R10@DirectX@@3UXMVECTORF32@1@B
CONST	SEGMENT
?g_XMNormalizeA2B10G10R10@DirectX@@3UXMVECTORF32@1@B DD 03b004020r ; 0.00195695 ; DirectX::g_XMNormalizeA2B10G10R10
	DD	036004020r			; 1.91108e-06
	DD	031004020r			; 1.86629e-09
	DD	02faaaaabr			; 3.10441e-10
CONST	ENDS
;	COMDAT ?g_XMFixAA2B10G10R10@DirectX@@3UXMVECTORF32@1@B
CONST	SEGMENT
?g_XMFixAA2B10G10R10@DirectX@@3UXMVECTORF32@1@B DD 0c4000000r ; -512 ; DirectX::g_XMFixAA2B10G10R10
	DD	0c9000000r			; -524288
	DD	0ce000000r			; -5.36871e+08
	DD	04f000000r			; 2.14748e+09
CONST	ENDS
;	COMDAT ?g_XMFlipA2B10G10R10@DirectX@@3UXMVECTORU32@1@B
CONST	SEGMENT
?g_XMFlipA2B10G10R10@DirectX@@3UXMVECTORU32@1@B DD 0200H ; DirectX::g_XMFlipA2B10G10R10
	DD	080000H
	DD	020000000H
	DD	080000000H
CONST	ENDS
;	COMDAT ?g_XMMaskA2B10G10R10@DirectX@@3UXMVECTORU32@1@B
CONST	SEGMENT
?g_XMMaskA2B10G10R10@DirectX@@3UXMVECTORU32@1@B DD 03ffH ; DirectX::g_XMMaskA2B10G10R10
	DD	0ffc00H
	DD	03ff00000H
	DD	0c0000000H
CONST	ENDS
;	COMDAT ?g_XMNormalizeA8R8G8B8@DirectX@@3UXMVECTORF32@1@B
CONST	SEGMENT
?g_XMNormalizeA8R8G8B8@DirectX@@3UXMVECTORF32@1@B DD 033808081r ; 5.98384e-08 ; DirectX::g_XMNormalizeA8R8G8B8
	DD	037808081r			; 1.53186e-05
	DD	03b808081r			; 0.00392157
	DD	02f808081r			; 2.33744e-10
CONST	ENDS
;	COMDAT ?g_XMFixAA8R8G8B8@DirectX@@3UXMVECTORF32@1@B
CONST	SEGMENT
?g_XMFixAA8R8G8B8@DirectX@@3UXMVECTORF32@1@B DD 000000000r ; 0 ; DirectX::g_XMFixAA8R8G8B8
	DD	000000000r			; 0
	DD	000000000r			; 0
	DD	04f000000r			; 2.14748e+09
CONST	ENDS
;	COMDAT ?g_XMFlipA8R8G8B8@DirectX@@3UXMVECTORU32@1@B
CONST	SEGMENT
?g_XMFlipA8R8G8B8@DirectX@@3UXMVECTORU32@1@B DD 00H	; DirectX::g_XMFlipA8R8G8B8
	DD	00H
	DD	00H
	DD	080000000H
CONST	ENDS
;	COMDAT ?g_XMMaskA8R8G8B8@DirectX@@3UXMVECTORU32@1@B
CONST	SEGMENT
?g_XMMaskA8R8G8B8@DirectX@@3UXMVECTORU32@1@B DD 0ff0000H ; DirectX::g_XMMaskA8R8G8B8
	DD	0ff00H
	DD	0ffH
	DD	0ff000000H
CONST	ENDS
;	COMDAT ?g_XMNegOneMask@DirectX@@3UXMVECTORU32@1@B
CONST	SEGMENT
?g_XMNegOneMask@DirectX@@3UXMVECTORU32@1@B DD 0ffffffffH ; DirectX::g_XMNegOneMask
	DD	0ffffffffH
	DD	0ffffffffH
	DD	0ffffffffH
CONST	ENDS
;	COMDAT ?g_XMFltMax@DirectX@@3UXMVECTORI32@1@B
CONST	SEGMENT
?g_XMFltMax@DirectX@@3UXMVECTORI32@1@B DD 07f7fffffH	; DirectX::g_XMFltMax
	DD	07f7fffffH
	DD	07f7fffffH
	DD	07f7fffffH
CONST	ENDS
;	COMDAT ?g_XMFltMin@DirectX@@3UXMVECTORI32@1@B
CONST	SEGMENT
?g_XMFltMin@DirectX@@3UXMVECTORI32@1@B DD 0800000H	; DirectX::g_XMFltMin
	DD	0800000H
	DD	0800000H
	DD	0800000H
CONST	ENDS
;	COMDAT ?g_XMAbsMask@DirectX@@3UXMVECTORI32@1@B
CONST	SEGMENT
?g_XMAbsMask@DirectX@@3UXMVECTORI32@1@B DD 07fffffffH	; DirectX::g_XMAbsMask
	DD	07fffffffH
	DD	07fffffffH
	DD	07fffffffH
CONST	ENDS
;	COMDAT ?g_XMQNaNTest@DirectX@@3UXMVECTORI32@1@B
CONST	SEGMENT
?g_XMQNaNTest@DirectX@@3UXMVECTORI32@1@B DD 07fffffH	; DirectX::g_XMQNaNTest
	DD	07fffffH
	DD	07fffffH
	DD	07fffffH
CONST	ENDS
;	COMDAT ?g_XMQNaN@DirectX@@3UXMVECTORI32@1@B
CONST	SEGMENT
?g_XMQNaN@DirectX@@3UXMVECTORI32@1@B DD 07fc00000H	; DirectX::g_XMQNaN
	DD	07fc00000H
	DD	07fc00000H
	DD	07fc00000H
CONST	ENDS
;	COMDAT ?g_XMInfinity@DirectX@@3UXMVECTORI32@1@B
CONST	SEGMENT
?g_XMInfinity@DirectX@@3UXMVECTORI32@1@B DD 07f800000H	; DirectX::g_XMInfinity
	DD	07f800000H
	DD	07f800000H
	DD	07f800000H
CONST	ENDS
;	COMDAT ?g_XMEpsilon@DirectX@@3UXMVECTORF32@1@B
CONST	SEGMENT
?g_XMEpsilon@DirectX@@3UXMVECTORF32@1@B DD 034000000r ; 1.19209e-07 ; DirectX::g_XMEpsilon
	DD	034000000r			; 1.19209e-07
	DD	034000000r			; 1.19209e-07
	DD	034000000r			; 1.19209e-07
CONST	ENDS
;	COMDAT ?g_XMReciprocalTwoPi@DirectX@@3UXMVECTORF32@1@B
CONST	SEGMENT
?g_XMReciprocalTwoPi@DirectX@@3UXMVECTORF32@1@B DD 03e22f983r ; 0.159155 ; DirectX::g_XMReciprocalTwoPi
	DD	03e22f983r			; 0.159155
	DD	03e22f983r			; 0.159155
	DD	03e22f983r			; 0.159155
CONST	ENDS
;	COMDAT ?g_XMTwoPi@DirectX@@3UXMVECTORF32@1@B
CONST	SEGMENT
?g_XMTwoPi@DirectX@@3UXMVECTORF32@1@B DD 040c90fdbr ; 6.28319 ; DirectX::g_XMTwoPi
	DD	040c90fdbr			; 6.28319
	DD	040c90fdbr			; 6.28319
	DD	040c90fdbr			; 6.28319
CONST	ENDS
;	COMDAT ?g_XMReciprocalPi@DirectX@@3UXMVECTORF32@1@B
CONST	SEGMENT
?g_XMReciprocalPi@DirectX@@3UXMVECTORF32@1@B DD 03ea2f983r ; 0.31831 ; DirectX::g_XMReciprocalPi
	DD	03ea2f983r			; 0.31831
	DD	03ea2f983r			; 0.31831
	DD	03ea2f983r			; 0.31831
CONST	ENDS
;	COMDAT ?g_XMPi@DirectX@@3UXMVECTORF32@1@B
CONST	SEGMENT
?g_XMPi@DirectX@@3UXMVECTORF32@1@B DD 040490fdbr ; 3.14159 ; DirectX::g_XMPi
	DD	040490fdbr			; 3.14159
	DD	040490fdbr			; 3.14159
	DD	040490fdbr			; 3.14159
CONST	ENDS
;	COMDAT ?g_XMHalfPi@DirectX@@3UXMVECTORF32@1@B
CONST	SEGMENT
?g_XMHalfPi@DirectX@@3UXMVECTORF32@1@B DD 03fc90fdbr ; 1.5708 ; DirectX::g_XMHalfPi
	DD	03fc90fdbr			; 1.5708
	DD	03fc90fdbr			; 1.5708
	DD	03fc90fdbr			; 1.5708
CONST	ENDS
;	COMDAT ?g_XMNegativePi@DirectX@@3UXMVECTORF32@1@B
CONST	SEGMENT
?g_XMNegativePi@DirectX@@3UXMVECTORF32@1@B DD 0c0490fdbr ; -3.14159 ; DirectX::g_XMNegativePi
	DD	0c0490fdbr			; -3.14159
	DD	0c0490fdbr			; -3.14159
	DD	0c0490fdbr			; -3.14159
CONST	ENDS
;	COMDAT ?g_XMNegativeTwoPi@DirectX@@3UXMVECTORF32@1@B
CONST	SEGMENT
?g_XMNegativeTwoPi@DirectX@@3UXMVECTORF32@1@B DD 0c0c90fdbr ; -6.28319 ; DirectX::g_XMNegativeTwoPi
	DD	0c0c90fdbr			; -6.28319
	DD	0c0c90fdbr			; -6.28319
	DD	0c0c90fdbr			; -6.28319
CONST	ENDS
;	COMDAT ?g_XMNegativeOneHalf@DirectX@@3UXMVECTORF32@1@B
CONST	SEGMENT
?g_XMNegativeOneHalf@DirectX@@3UXMVECTORF32@1@B DD 0bf000000r ; -0.5 ; DirectX::g_XMNegativeOneHalf
	DD	0bf000000r			; -0.5
	DD	0bf000000r			; -0.5
	DD	0bf000000r			; -0.5
CONST	ENDS
;	COMDAT ?g_XMOneHalf@DirectX@@3UXMVECTORF32@1@B
CONST	SEGMENT
?g_XMOneHalf@DirectX@@3UXMVECTORF32@1@B DD 03f000000r ; 0.5 ; DirectX::g_XMOneHalf
	DD	03f000000r			; 0.5
	DD	03f000000r			; 0.5
	DD	03f000000r			; 0.5
CONST	ENDS
;	COMDAT ?g_XMNegativeOne@DirectX@@3UXMVECTORF32@1@B
CONST	SEGMENT
?g_XMNegativeOne@DirectX@@3UXMVECTORF32@1@B DD 0bf800000r ; -1 ; DirectX::g_XMNegativeOne
	DD	0bf800000r			; -1
	DD	0bf800000r			; -1
	DD	0bf800000r			; -1
CONST	ENDS
;	COMDAT ?g_XMSix@DirectX@@3UXMVECTORF32@1@B
CONST	SEGMENT
?g_XMSix@DirectX@@3UXMVECTORF32@1@B DD 040c00000r ; 6	; DirectX::g_XMSix
	DD	040c00000r			; 6
	DD	040c00000r			; 6
	DD	040c00000r			; 6
CONST	ENDS
;	COMDAT ?g_XMFour@DirectX@@3UXMVECTORF32@1@B
CONST	SEGMENT
?g_XMFour@DirectX@@3UXMVECTORF32@1@B DD 040800000r ; 4	; DirectX::g_XMFour
	DD	040800000r			; 4
	DD	040800000r			; 4
	DD	040800000r			; 4
CONST	ENDS
;	COMDAT ?g_XMTwo@DirectX@@3UXMVECTORF32@1@B
CONST	SEGMENT
?g_XMTwo@DirectX@@3UXMVECTORF32@1@B DD 040000000r ; 2	; DirectX::g_XMTwo
	DD	040000000r			; 2
	DD	040000000r			; 2
	DD	040000000r			; 2
CONST	ENDS
;	COMDAT ?g_XMZero@DirectX@@3UXMVECTORF32@1@B
CONST	SEGMENT
?g_XMZero@DirectX@@3UXMVECTORF32@1@B DD 000000000r ; 0	; DirectX::g_XMZero
	DD	000000000r			; 0
	DD	000000000r			; 0
	DD	000000000r			; 0
CONST	ENDS
;	COMDAT ?g_XMOne3@DirectX@@3UXMVECTORF32@1@B
CONST	SEGMENT
?g_XMOne3@DirectX@@3UXMVECTORF32@1@B DD 03f800000r ; 1	; DirectX::g_XMOne3
	DD	03f800000r			; 1
	DD	03f800000r			; 1
	DD	000000000r			; 0
CONST	ENDS
;	COMDAT ?g_XMOne@DirectX@@3UXMVECTORF32@1@B
CONST	SEGMENT
?g_XMOne@DirectX@@3UXMVECTORF32@1@B DD 03f800000r ; 1	; DirectX::g_XMOne
	DD	03f800000r			; 1
	DD	03f800000r			; 1
	DD	03f800000r			; 1
CONST	ENDS
;	COMDAT ?g_XMMaskW@DirectX@@3UXMVECTORU32@1@B
CONST	SEGMENT
?g_XMMaskW@DirectX@@3UXMVECTORU32@1@B DD 00H		; DirectX::g_XMMaskW
	DD	00H
	DD	00H
	DD	0ffffffffH
CONST	ENDS
;	COMDAT ?g_XMMaskZ@DirectX@@3UXMVECTORU32@1@B
CONST	SEGMENT
?g_XMMaskZ@DirectX@@3UXMVECTORU32@1@B DD 00H		; DirectX::g_XMMaskZ
	DD	00H
	DD	0ffffffffH
	DD	00H
CONST	ENDS
;	COMDAT ?g_XMMaskY@DirectX@@3UXMVECTORU32@1@B
CONST	SEGMENT
?g_XMMaskY@DirectX@@3UXMVECTORU32@1@B DD 00H		; DirectX::g_XMMaskY
	DD	0ffffffffH
	DD	00H
	DD	00H
CONST	ENDS
;	COMDAT ?g_XMMaskX@DirectX@@3UXMVECTORU32@1@B
CONST	SEGMENT
?g_XMMaskX@DirectX@@3UXMVECTORU32@1@B DD 0ffffffffH	; DirectX::g_XMMaskX
	DD	00H
	DD	00H
	DD	00H
CONST	ENDS
;	COMDAT ?g_XMMask3@DirectX@@3UXMVECTORU32@1@B
CONST	SEGMENT
?g_XMMask3@DirectX@@3UXMVECTORU32@1@B DD 0ffffffffH	; DirectX::g_XMMask3
	DD	0ffffffffH
	DD	0ffffffffH
	DD	00H
CONST	ENDS
;	COMDAT ?g_XMNegate3@DirectX@@3UXMVECTORU32@1@B
CONST	SEGMENT
?g_XMNegate3@DirectX@@3UXMVECTORU32@1@B DD 080000000H	; DirectX::g_XMNegate3
	DD	080000000H
	DD	080000000H
	DD	00H
CONST	ENDS
;	COMDAT ?g_XMNegativeZero@DirectX@@3UXMVECTORU32@1@B
CONST	SEGMENT
?g_XMNegativeZero@DirectX@@3UXMVECTORU32@1@B DD 080000000H ; DirectX::g_XMNegativeZero
	DD	080000000H
	DD	080000000H
	DD	080000000H
CONST	ENDS
;	COMDAT ?g_XMNegIdentityR3@DirectX@@3UXMVECTORF32@1@B
CONST	SEGMENT
?g_XMNegIdentityR3@DirectX@@3UXMVECTORF32@1@B DD 000000000r ; 0 ; DirectX::g_XMNegIdentityR3
	DD	000000000r			; 0
	DD	000000000r			; 0
	DD	0bf800000r			; -1
CONST	ENDS
;	COMDAT ?g_XMNegIdentityR2@DirectX@@3UXMVECTORF32@1@B
CONST	SEGMENT
?g_XMNegIdentityR2@DirectX@@3UXMVECTORF32@1@B DD 000000000r ; 0 ; DirectX::g_XMNegIdentityR2
	DD	000000000r			; 0
	DD	0bf800000r			; -1
	DD	000000000r			; 0
CONST	ENDS
;	COMDAT ?g_XMNegIdentityR1@DirectX@@3UXMVECTORF32@1@B
CONST	SEGMENT
?g_XMNegIdentityR1@DirectX@@3UXMVECTORF32@1@B DD 000000000r ; 0 ; DirectX::g_XMNegIdentityR1
	DD	0bf800000r			; -1
	DD	000000000r			; 0
	DD	000000000r			; 0
CONST	ENDS
;	COMDAT ?g_XMNegIdentityR0@DirectX@@3UXMVECTORF32@1@B
CONST	SEGMENT
?g_XMNegIdentityR0@DirectX@@3UXMVECTORF32@1@B DD 0bf800000r ; -1 ; DirectX::g_XMNegIdentityR0
	DD	000000000r			; 0
	DD	000000000r			; 0
	DD	000000000r			; 0
CONST	ENDS
;	COMDAT ?g_XMIdentityR3@DirectX@@3UXMVECTORF32@1@B
CONST	SEGMENT
?g_XMIdentityR3@DirectX@@3UXMVECTORF32@1@B DD 000000000r ; 0 ; DirectX::g_XMIdentityR3
	DD	000000000r			; 0
	DD	000000000r			; 0
	DD	03f800000r			; 1
CONST	ENDS
;	COMDAT ?g_XMIdentityR2@DirectX@@3UXMVECTORF32@1@B
CONST	SEGMENT
?g_XMIdentityR2@DirectX@@3UXMVECTORF32@1@B DD 000000000r ; 0 ; DirectX::g_XMIdentityR2
	DD	000000000r			; 0
	DD	03f800000r			; 1
	DD	000000000r			; 0
CONST	ENDS
;	COMDAT ?g_XMIdentityR1@DirectX@@3UXMVECTORF32@1@B
CONST	SEGMENT
?g_XMIdentityR1@DirectX@@3UXMVECTORF32@1@B DD 000000000r ; 0 ; DirectX::g_XMIdentityR1
	DD	03f800000r			; 1
	DD	000000000r			; 0
	DD	000000000r			; 0
CONST	ENDS
;	COMDAT ?g_XMIdentityR0@DirectX@@3UXMVECTORF32@1@B
CONST	SEGMENT
?g_XMIdentityR0@DirectX@@3UXMVECTORF32@1@B DD 03f800000r ; 1 ; DirectX::g_XMIdentityR0
	DD	000000000r			; 0
	DD	000000000r			; 0
	DD	000000000r			; 0
CONST	ENDS
;	COMDAT ?g_XMPiConstants0@DirectX@@3UXMVECTORF32@1@B
CONST	SEGMENT
?g_XMPiConstants0@DirectX@@3UXMVECTORF32@1@B DD 040490fdbr ; 3.14159 ; DirectX::g_XMPiConstants0
	DD	040c90fdbr			; 6.28319
	DD	03ea2f983r			; 0.31831
	DD	03e22f983r			; 0.159155
CONST	ENDS
;	COMDAT ?g_XMArcEstCoefficients@DirectX@@3UXMVECTORF32@1@B
CONST	SEGMENT
?g_XMArcEstCoefficients@DirectX@@3UXMVECTORF32@1@B DD 03fc90da4r ; 1.57073 ; DirectX::g_XMArcEstCoefficients
	DD	0be593484r			; -0.212114
	DD	03d981627r			; 0.074261
	DD	0bc996e30r			; -0.0187293
CONST	ENDS
;	COMDAT ?g_XMTanEstCoefficients@DirectX@@3UXMVECTORF32@1@B
CONST	SEGMENT
?g_XMTanEstCoefficients@DirectX@@3UXMVECTORF32@1@B DD 0401ef9dbr ; 2.484 ; DirectX::g_XMTanEstCoefficients
	DD	0be482f23r			; -0.195492
	DD	0401de9e6r			; 2.4674
	DD	03ea2f983r			; 0.31831
CONST	ENDS
;	COMDAT ?g_XMATanEstCoefficients1@DirectX@@3UXMVECTORF32@1@B
CONST	SEGMENT
?g_XMATanEstCoefficients1@DirectX@@3UXMVECTORF32@1@B DD 0bea91d04r ; -0.330299 ; DirectX::g_XMATanEstCoefficients1
	DD	03e3876e2r			; 0.180141
	DD	0bdae5a36r			; -0.085133
	DD	03caaae5fr			; 0.0208351
CONST	ENDS
;	COMDAT ?g_XMATanEstCoefficients0@DirectX@@3UXMVECTORF32@1@B
CONST	SEGMENT
?g_XMATanEstCoefficients0@DirectX@@3UXMVECTORF32@1@B DD 03f7ff738r ; 0.999866 ; DirectX::g_XMATanEstCoefficients0
	DD	03f7ff738r			; 0.999866
	DD	03f7ff738r			; 0.999866
	DD	03f7ff738r			; 0.999866
CONST	ENDS
;	COMDAT ?g_XMATanCoefficients1@DirectX@@3UXMVECTORF32@1@B
CONST	SEGMENT
?g_XMATanCoefficients1@DirectX@@3UXMVECTORF32@1@B DD 0bd9a3174r ; -0.0752896 ; DirectX::g_XMATanCoefficients1
	DD	03d2fc1fer			; 0.0429096
	DD	0bc846e02r			; -0.0161657
	DD	03b3bd74ar			; 0.00286623
CONST	ENDS
;	COMDAT ?g_XMATanCoefficients0@DirectX@@3UXMVECTORF32@1@B
CONST	SEGMENT
?g_XMATanCoefficients0@DirectX@@3UXMVECTORF32@1@B DD 0beaaaa6cr ; -0.333331 ; DirectX::g_XMATanCoefficients0
	DD	03e4cbbe5r			; 0.199936
	DD	0be117fc7r			; -0.142089
	DD	03dda3d83r			; 0.106563
CONST	ENDS
;	COMDAT ?g_XMArcCoefficients1@DirectX@@3UXMVECTORF32@1@B
CONST	SEGMENT
?g_XMArcCoefficients1@DirectX@@3UXMVECTORF32@1@B DD 03cfd10f8r ; 0.0308919 ; DirectX::g_XMArcCoefficients1
	DD	0bc8bfc66r			; -0.0170881
	DD	03bda90c5r			; 0.00667009
	DD	0baa57a2cr			; -0.00126249
CONST	ENDS
;	COMDAT ?g_XMArcCoefficients0@DirectX@@3UXMVECTORF32@1@B
CONST	SEGMENT
?g_XMArcCoefficients0@DirectX@@3UXMVECTORF32@1@B DD 03fc90fdar ; 1.5708 ; DirectX::g_XMArcCoefficients0
	DD	0be5bbfcar			; -0.214599
	DD	03db63a9er			; 0.088979
	DD	0bd4d8392r			; -0.0501743
CONST	ENDS
;	COMDAT ?g_XMTanCoefficients2@DirectX@@3UXMVECTORF32@1@B
CONST	SEGMENT
?g_XMTanCoefficients2@DirectX@@3UXMVECTORF32@1@B DD 03a1aac12r ; 0.000590027 ; DirectX::g_XMTanCoefficients2
	DD	0397abeb9r			; 0.000239129
	DD	038cb3f0cr			; 9.69154e-05
	DD	03824bec9r			; 3.92783e-05
CONST	ENDS
;	COMDAT ?g_XMTanCoefficients1@DirectX@@3UXMVECTORF32@1@B
CONST	SEGMENT
?g_XMTanCoefficients1@DirectX@@3UXMVECTORF32@1@B DD 03cb327a4r ; 0.0218695 ; DirectX::g_XMTanCoefficients1
	DD	03c11371br			; 0.00886324
	DD	03b6b69e9r			; 0.00359213
	DD	03abed1b3r			; 0.00145583
CONST	ENDS
;	COMDAT ?g_XMTanCoefficients0@DirectX@@3UXMVECTORF32@1@B
CONST	SEGMENT
?g_XMTanCoefficients0@DirectX@@3UXMVECTORF32@1@B DD 03f800000r ; 1 ; DirectX::g_XMTanCoefficients0
	DD	03eaaaaabr			; 0.333333
	DD	03e088889r			; 0.133333
	DD	03d5d0dd1r			; 0.0539683
CONST	ENDS
;	COMDAT ?g_XMCosCoefficients1@DirectX@@3UXMVECTORF32@1@B
CONST	SEGMENT
?g_XMCosCoefficients1@DirectX@@3UXMVECTORF32@1@B DD 0b48bdd11r ; -2.60516e-07 ; DirectX::g_XMCosCoefficients1
	DD	0befff67er			; -0.499927
	DD	03d29f587r			; 0.0414939
	DD	0baa69fdbr			; -0.00127124
CONST	ENDS
;	COMDAT ?g_XMCosCoefficients0@DirectX@@3UXMVECTORF32@1@B
CONST	SEGMENT
?g_XMCosCoefficients0@DirectX@@3UXMVECTORF32@1@B DD 0bf000000r ; -0.5 ; DirectX::g_XMCosCoefficients0
	DD	03d2aaaa3r			; 0.0416666
	DD	0bab609aar			; -0.00138884
	DD	037cfb4c2r			; 2.47605e-05
CONST	ENDS
;	COMDAT ?g_XMSinCoefficients1@DirectX@@3UXMVECTORF32@1@B
CONST	SEGMENT
?g_XMSinCoefficients1@DirectX@@3UXMVECTORF32@1@B DD 0b2cd365br ; -2.38899e-08 ; DirectX::g_XMSinCoefficients1
	DD	0be2aa888r			; -0.166659
	DD	03c08373cr			; 0.00831395
	DD	0b9423ec8r			; -0.000185247
CONST	ENDS
;	COMDAT ?g_XMSinCoefficients0@DirectX@@3UXMVECTORF32@1@B
CONST	SEGMENT
?g_XMSinCoefficients0@DirectX@@3UXMVECTORF32@1@B DD 0be2aaaabr ; -0.166667 ; DirectX::g_XMSinCoefficients0
	DD	03c088886r			; 0.00833333
	DD	0b9500bf1r			; -0.000198409
	DD	03638b88er			; 2.75256e-06
CONST	ENDS
;	COMDAT ?g_UnitPlaneEpsilon@Internal@DirectX@@3UXMVECTORF32@2@B
CONST	SEGMENT
?g_UnitPlaneEpsilon@Internal@DirectX@@3UXMVECTORF32@2@B DD 038d1b717r ; 0.0001 ; DirectX::Internal::g_UnitPlaneEpsilon
	DD	038d1b717r			; 0.0001
	DD	038d1b717r			; 0.0001
	DD	038d1b717r			; 0.0001
CONST	ENDS
;	COMDAT ?g_UnitQuaternionEpsilon@Internal@DirectX@@3UXMVECTORF32@2@B
CONST	SEGMENT
?g_UnitQuaternionEpsilon@Internal@DirectX@@3UXMVECTORF32@2@B DD 038d1b717r ; 0.0001 ; DirectX::Internal::g_UnitQuaternionEpsilon
	DD	038d1b717r			; 0.0001
	DD	038d1b717r			; 0.0001
	DD	038d1b717r			; 0.0001
CONST	ENDS
;	COMDAT ?g_UnitVectorEpsilon@Internal@DirectX@@3UXMVECTORF32@2@B
CONST	SEGMENT
?g_UnitVectorEpsilon@Internal@DirectX@@3UXMVECTORF32@2@B DD 038d1b717r ; 0.0001 ; DirectX::Internal::g_UnitVectorEpsilon
	DD	038d1b717r			; 0.0001
	DD	038d1b717r			; 0.0001
	DD	038d1b717r			; 0.0001
CONST	ENDS
;	COMDAT ?YellowGreen@Colors@DirectX@@3UXMVECTORF32@2@B
CONST	SEGMENT
?YellowGreen@Colors@DirectX@@3UXMVECTORF32@2@B DD 03f1a9a9br ; 0.603922 ; DirectX::Colors::YellowGreen
	DD	03f4dcdcfr			; 0.803922
	DD	03e48c8car			; 0.196078
	DD	03f800000r			; 1
CONST	ENDS
;	COMDAT ?Yellow@Colors@DirectX@@3UXMVECTORF32@2@B
CONST	SEGMENT
?Yellow@Colors@DirectX@@3UXMVECTORF32@2@B DD 03f800000r ; 1 ; DirectX::Colors::Yellow
	DD	03f800000r			; 1
	DD	000000000r			; 0
	DD	03f800000r			; 1
CONST	ENDS
;	COMDAT ?WhiteSmoke@Colors@DirectX@@3UXMVECTORF32@2@B
CONST	SEGMENT
?WhiteSmoke@Colors@DirectX@@3UXMVECTORF32@2@B DD 03f75f5f7r ; 0.960784 ; DirectX::Colors::WhiteSmoke
	DD	03f75f5f7r			; 0.960784
	DD	03f75f5f7r			; 0.960784
	DD	03f800000r			; 1
CONST	ENDS
;	COMDAT ?White@Colors@DirectX@@3UXMVECTORF32@2@B
CONST	SEGMENT
?White@Colors@DirectX@@3UXMVECTORF32@2@B DD 03f800000r ; 1 ; DirectX::Colors::White
	DD	03f800000r			; 1
	DD	03f800000r			; 1
	DD	03f800000r			; 1
CONST	ENDS
;	COMDAT ?Wheat@Colors@DirectX@@3UXMVECTORF32@2@B
CONST	SEGMENT
?Wheat@Colors@DirectX@@3UXMVECTORF32@2@B DD 03f75f5f7r ; 0.960784 ; DirectX::Colors::Wheat
	DD	03f5edee0r			; 0.870588
	DD	03f33b3b4r			; 0.701961
	DD	03f800000r			; 1
CONST	ENDS
;	COMDAT ?Violet@Colors@DirectX@@3UXMVECTORF32@2@B
CONST	SEGMENT
?Violet@Colors@DirectX@@3UXMVECTORF32@2@B DD 03f6eeef0r ; 0.933333 ; DirectX::Colors::Violet
	DD	03f028283r			; 0.509804
	DD	03f6eeef0r			; 0.933333
	DD	03f800000r			; 1
CONST	ENDS
;	COMDAT ?Turquoise@Colors@DirectX@@3UXMVECTORF32@2@B
CONST	SEGMENT
?Turquoise@Colors@DirectX@@3UXMVECTORF32@2@B DD 03e808081r ; 0.25098 ; DirectX::Colors::Turquoise
	DD	03f60e0e2r			; 0.878431
	DD	03f50d0d2r			; 0.815686
	DD	03f800000r			; 1
CONST	ENDS
;	COMDAT ?Transparent@Colors@DirectX@@3UXMVECTORF32@2@B
CONST	SEGMENT
?Transparent@Colors@DirectX@@3UXMVECTORF32@2@B DD 000000000r ; 0 ; DirectX::Colors::Transparent
	DD	000000000r			; 0
	DD	000000000r			; 0
	DD	000000000r			; 0
CONST	ENDS
;	COMDAT ?Tomato@Colors@DirectX@@3UXMVECTORF32@2@B
CONST	SEGMENT
?Tomato@Colors@DirectX@@3UXMVECTORF32@2@B DD 03f800000r ; 1 ; DirectX::Colors::Tomato
	DD	03ec6c6c8r			; 0.388235
	DD	03e8e8e8fr			; 0.278431
	DD	03f800000r			; 1
CONST	ENDS
;	COMDAT ?Thistle@Colors@DirectX@@3UXMVECTORF32@2@B
CONST	SEGMENT
?Thistle@Colors@DirectX@@3UXMVECTORF32@2@B DD 03f58d8dar ; 0.847059 ; DirectX::Colors::Thistle
	DD	03f3fbfc0r			; 0.74902
	DD	03f58d8dar			; 0.847059
	DD	03f800000r			; 1
CONST	ENDS
;	COMDAT ?Teal@Colors@DirectX@@3UXMVECTORF32@2@B
CONST	SEGMENT
?Teal@Colors@DirectX@@3UXMVECTORF32@2@B DD 000000000r ; 0 ; DirectX::Colors::Teal
	DD	03f008081r			; 0.501961
	DD	03f008081r			; 0.501961
	DD	03f800000r			; 1
CONST	ENDS
;	COMDAT ?Tan@Colors@DirectX@@3UXMVECTORF32@2@B
CONST	SEGMENT
?Tan@Colors@DirectX@@3UXMVECTORF32@2@B DD 03f52d2d4r ; 0.823529 ; DirectX::Colors::Tan
	DD	03f34b4b5r			; 0.705882
	DD	03f0c8c8dr			; 0.54902
	DD	03f800000r			; 1
CONST	ENDS
;	COMDAT ?SteelBlue@Colors@DirectX@@3UXMVECTORF32@2@B
CONST	SEGMENT
?SteelBlue@Colors@DirectX@@3UXMVECTORF32@2@B DD 03e8c8c8dr ; 0.27451 ; DirectX::Colors::SteelBlue
	DD	03f028283r			; 0.509804
	DD	03f34b4b5r			; 0.705882
	DD	03f800000r			; 1
CONST	ENDS
;	COMDAT ?SpringGreen@Colors@DirectX@@3UXMVECTORF32@2@B
CONST	SEGMENT
?SpringGreen@Colors@DirectX@@3UXMVECTORF32@2@B DD 000000000r ; 0 ; DirectX::Colors::SpringGreen
	DD	03f800000r			; 1
	DD	03efeff00r			; 0.498039
	DD	03f800000r			; 1
CONST	ENDS
;	COMDAT ?Snow@Colors@DirectX@@3UXMVECTORF32@2@B
CONST	SEGMENT
?Snow@Colors@DirectX@@3UXMVECTORF32@2@B DD 03f800000r ; 1 ; DirectX::Colors::Snow
	DD	03f7afafcr			; 0.980392
	DD	03f7afafcr			; 0.980392
	DD	03f800000r			; 1
CONST	ENDS
;	COMDAT ?g_FltMax@DirectX@@3UXMVECTORF32@1@B
CONST	SEGMENT
?g_FltMax@DirectX@@3UXMVECTORF32@1@B DD 07f7fffffr ; 3.40282e+38 ; DirectX::g_FltMax
	DD	07f7fffffr			; 3.40282e+38
	DD	07f7fffffr			; 3.40282e+38
	DD	07f7fffffr			; 3.40282e+38
CONST	ENDS
;	COMDAT ?SlateGray@Colors@DirectX@@3UXMVECTORF32@2@B
CONST	SEGMENT
?SlateGray@Colors@DirectX@@3UXMVECTORF32@2@B DD 03ee0e0e2r ; 0.439216 ; DirectX::Colors::SlateGray
	DD	03f008081r			; 0.501961
	DD	03f109091r			; 0.564706
	DD	03f800000r			; 1
CONST	ENDS
;	COMDAT ?g_FltMin@DirectX@@3UXMVECTORF32@1@B
CONST	SEGMENT
?g_FltMin@DirectX@@3UXMVECTORF32@1@B DD 0ff7fffffr ; -3.40282e+38 ; DirectX::g_FltMin
	DD	0ff7fffffr			; -3.40282e+38
	DD	0ff7fffffr			; -3.40282e+38
	DD	0ff7fffffr			; -3.40282e+38
CONST	ENDS
;	COMDAT ?SlateBlue@Colors@DirectX@@3UXMVECTORF32@2@B
CONST	SEGMENT
?SlateBlue@Colors@DirectX@@3UXMVECTORF32@2@B DD 03ed4d4d6r ; 0.415686 ; DirectX::Colors::SlateBlue
	DD	03eb4b4b5r			; 0.352941
	DD	03f4dcdcfr			; 0.803922
	DD	03f800000r			; 1
CONST	ENDS
;	COMDAT ?g_RayNegEpsilon@DirectX@@3UXMVECTORF32@1@B
CONST	SEGMENT
?g_RayNegEpsilon@DirectX@@3UXMVECTORF32@1@B DD 09e3ce508r ; -1e-20 ; DirectX::g_RayNegEpsilon
	DD	09e3ce508r			; -1e-20
	DD	09e3ce508r			; -1e-20
	DD	09e3ce508r			; -1e-20
CONST	ENDS
;	COMDAT ?SkyBlue@Colors@DirectX@@3UXMVECTORF32@2@B
CONST	SEGMENT
?SkyBlue@Colors@DirectX@@3UXMVECTORF32@2@B DD 03f078788r ; 0.529412 ; DirectX::Colors::SkyBlue
	DD	03f4eced0r			; 0.807843
	DD	03f6bebedr			; 0.921569
	DD	03f800000r			; 1
CONST	ENDS
;	COMDAT ?g_RayEpsilon@DirectX@@3UXMVECTORF32@1@B
CONST	SEGMENT
?g_RayEpsilon@DirectX@@3UXMVECTORF32@1@B DD 01e3ce508r ; 1e-20 ; DirectX::g_RayEpsilon
	DD	01e3ce508r			; 1e-20
	DD	01e3ce508r			; 1e-20
	DD	01e3ce508r			; 1e-20
CONST	ENDS
;	COMDAT ?Silver@Colors@DirectX@@3UXMVECTORF32@2@B
CONST	SEGMENT
?Silver@Colors@DirectX@@3UXMVECTORF32@2@B DD 03f40c0c2r ; 0.752941 ; DirectX::Colors::Silver
	DD	03f40c0c2r			; 0.752941
	DD	03f40c0c2r			; 0.752941
	DD	03f800000r			; 1
CONST	ENDS
;	COMDAT ?g_BoxOffset@DirectX@@3QBUXMVECTORF32@1@B
CONST	SEGMENT
?g_BoxOffset@DirectX@@3QBUXMVECTORF32@1@B DD 0bf800000r ; -1 ; DirectX::g_BoxOffset
	DD	0bf800000r			; -1
	DD	03f800000r			; 1
	DD	000000000r			; 0
	DD	03f800000r			; 1
	DD	0bf800000r			; -1
	DD	03f800000r			; 1
	DD	000000000r			; 0
	DD	03f800000r			; 1
	DD	03f800000r			; 1
	DD	03f800000r			; 1
	DD	000000000r			; 0
	DD	0bf800000r			; -1
	DD	03f800000r			; 1
	DD	03f800000r			; 1
	DD	000000000r			; 0
	DD	0bf800000r			; -1
	DD	0bf800000r			; -1
	DD	0bf800000r			; -1
	DD	000000000r			; 0
	DD	03f800000r			; 1
	DD	0bf800000r			; -1
	DD	0bf800000r			; -1
	DD	000000000r			; 0
	DD	03f800000r			; 1
	DD	03f800000r			; 1
	DD	0bf800000r			; -1
	DD	000000000r			; 0
	DD	0bf800000r			; -1
	DD	03f800000r			; 1
	DD	0bf800000r			; -1
	DD	000000000r			; 0
CONST	ENDS
;	COMDAT ?Sienna@Colors@DirectX@@3UXMVECTORF32@2@B
CONST	SEGMENT
?Sienna@Colors@DirectX@@3UXMVECTORF32@2@B DD 03f20a0a1r ; 0.627451 ; DirectX::Colors::Sienna
	DD	03ea4a4a5r			; 0.321569
	DD	03e34b4b5r			; 0.176471
	DD	03f800000r			; 1
CONST	ENDS
;	COMDAT ?SeaShell@Colors@DirectX@@3UXMVECTORF32@2@B
CONST	SEGMENT
?SeaShell@Colors@DirectX@@3UXMVECTORF32@2@B DD 03f800000r ; 1 ; DirectX::Colors::SeaShell
	DD	03f75f5f7r			; 0.960784
	DD	03f6eeef0r			; 0.933333
	DD	03f800000r			; 1
CONST	ENDS
;	COMDAT ?SeaGreen@Colors@DirectX@@3UXMVECTORF32@2@B
CONST	SEGMENT
?SeaGreen@Colors@DirectX@@3UXMVECTORF32@2@B DD 03e38b8b9r ; 0.180392 ; DirectX::Colors::SeaGreen
	DD	03f0b8b8cr			; 0.545098
	DD	03eaeaeafr			; 0.341176
	DD	03f800000r			; 1
CONST	ENDS
;	COMDAT ?SandyBrown@Colors@DirectX@@3UXMVECTORF32@2@B
CONST	SEGMENT
?SandyBrown@Colors@DirectX@@3UXMVECTORF32@2@B DD 03f74f4f6r ; 0.956863 ; DirectX::Colors::SandyBrown
	DD	03f24a4a5r			; 0.643137
	DD	03ec0c0c2r			; 0.376471
	DD	03f800000r			; 1
CONST	ENDS
;	COMDAT ?Salmon@Colors@DirectX@@3UXMVECTORF32@2@B
CONST	SEGMENT
?Salmon@Colors@DirectX@@3UXMVECTORF32@2@B DD 03f7afafcr ; 0.980392 ; DirectX::Colors::Salmon
	DD	03f008081r			; 0.501961
	DD	03ee4e4e6r			; 0.447059
	DD	03f800000r			; 1
CONST	ENDS
;	COMDAT ?SaddleBrown@Colors@DirectX@@3UXMVECTORF32@2@B
CONST	SEGMENT
?SaddleBrown@Colors@DirectX@@3UXMVECTORF32@2@B DD 03f0b8b8cr ; 0.545098 ; DirectX::Colors::SaddleBrown
	DD	03e8a8a8br			; 0.270588
	DD	03d989899r			; 0.0745098
	DD	03f800000r			; 1
CONST	ENDS
;	COMDAT ?RoyalBlue@Colors@DirectX@@3UXMVECTORF32@2@B
CONST	SEGMENT
?RoyalBlue@Colors@DirectX@@3UXMVECTORF32@2@B DD 03e828283r ; 0.254902 ; DirectX::Colors::RoyalBlue
	DD	03ed2d2d4r			; 0.411765
	DD	03f61e1e3r			; 0.882353
	DD	03f800000r			; 1
CONST	ENDS
;	COMDAT ?RosyBrown@Colors@DirectX@@3UXMVECTORF32@2@B
CONST	SEGMENT
?RosyBrown@Colors@DirectX@@3UXMVECTORF32@2@B DD 03f3cbcbdr ; 0.737255 ; DirectX::Colors::RosyBrown
	DD	03f0f8f90r			; 0.560784
	DD	03f0f8f90r			; 0.560784
	DD	03f800000r			; 1
CONST	ENDS
;	COMDAT ?Red@Colors@DirectX@@3UXMVECTORF32@2@B
CONST	SEGMENT
?Red@Colors@DirectX@@3UXMVECTORF32@2@B DD 03f800000r ; 1 ; DirectX::Colors::Red
	DD	000000000r			; 0
	DD	000000000r			; 0
	DD	03f800000r			; 1
CONST	ENDS
;	COMDAT ?Purple@Colors@DirectX@@3UXMVECTORF32@2@B
CONST	SEGMENT
?Purple@Colors@DirectX@@3UXMVECTORF32@2@B DD 03f008081r ; 0.501961 ; DirectX::Colors::Purple
	DD	000000000r			; 0
	DD	03f008081r			; 0.501961
	DD	03f800000r			; 1
CONST	ENDS
;	COMDAT ?PowderBlue@Colors@DirectX@@3UXMVECTORF32@2@B
CONST	SEGMENT
?PowderBlue@Colors@DirectX@@3UXMVECTORF32@2@B DD 03f30b0b1r ; 0.690196 ; DirectX::Colors::PowderBlue
	DD	03f60e0e2r			; 0.878431
	DD	03f66e6e8r			; 0.901961
	DD	03f800000r			; 1
CONST	ENDS
;	COMDAT ?Plum@Colors@DirectX@@3UXMVECTORF32@2@B
CONST	SEGMENT
?Plum@Colors@DirectX@@3UXMVECTORF32@2@B DD 03f5ddddfr ; 0.866667 ; DirectX::Colors::Plum
	DD	03f20a0a1r			; 0.627451
	DD	03f5ddddfr			; 0.866667
	DD	03f800000r			; 1
CONST	ENDS
;	COMDAT ?Pink@Colors@DirectX@@3UXMVECTORF32@2@B
CONST	SEGMENT
?Pink@Colors@DirectX@@3UXMVECTORF32@2@B DD 03f800000r ; 1 ; DirectX::Colors::Pink
	DD	03f40c0c2r			; 0.752941
	DD	03f4bcbcdr			; 0.796079
	DD	03f800000r			; 1
CONST	ENDS
;	COMDAT ?Peru@Colors@DirectX@@3UXMVECTORF32@2@B
CONST	SEGMENT
?Peru@Colors@DirectX@@3UXMVECTORF32@2@B DD 03f4dcdcfr ; 0.803922 ; DirectX::Colors::Peru
	DD	03f058586r			; 0.521569
	DD	03e7cfcfer			; 0.247059
	DD	03f800000r			; 1
CONST	ENDS
;	COMDAT ?PeachPuff@Colors@DirectX@@3UXMVECTORF32@2@B
CONST	SEGMENT
?PeachPuff@Colors@DirectX@@3UXMVECTORF32@2@B DD 03f800000r ; 1 ; DirectX::Colors::PeachPuff
	DD	03f5adadcr			; 0.854902
	DD	03f39b9bar			; 0.72549
	DD	03f800000r			; 1
CONST	ENDS
;	COMDAT ?PapayaWhip@Colors@DirectX@@3UXMVECTORF32@2@B
CONST	SEGMENT
?PapayaWhip@Colors@DirectX@@3UXMVECTORF32@2@B DD 03f800000r ; 1 ; DirectX::Colors::PapayaWhip
	DD	03f6feff1r			; 0.937255
	DD	03f55d5d7r			; 0.835294
	DD	03f800000r			; 1
CONST	ENDS
;	COMDAT ?PaleVioletRed@Colors@DirectX@@3UXMVECTORF32@2@B
CONST	SEGMENT
?PaleVioletRed@Colors@DirectX@@3UXMVECTORF32@2@B DD 03f5bdbddr ; 0.858824 ; DirectX::Colors::PaleVioletRed
	DD	03ee0e0e2r			; 0.439216
	DD	03f139394r			; 0.576471
	DD	03f800000r			; 1
CONST	ENDS
;	COMDAT ?PaleTurquoise@Colors@DirectX@@3UXMVECTORF32@2@B
CONST	SEGMENT
?PaleTurquoise@Colors@DirectX@@3UXMVECTORF32@2@B DD 03f2fafb0r ; 0.686275 ; DirectX::Colors::PaleTurquoise
	DD	03f6eeef0r			; 0.933333
	DD	03f6eeef0r			; 0.933333
	DD	03f800000r			; 1
CONST	ENDS
;	COMDAT ?PaleGreen@Colors@DirectX@@3UXMVECTORF32@2@B
CONST	SEGMENT
?PaleGreen@Colors@DirectX@@3UXMVECTORF32@2@B DD 03f189899r ; 0.596078 ; DirectX::Colors::PaleGreen
	DD	03f7bfbfdr			; 0.984314
	DD	03f189899r			; 0.596078
	DD	03f800000r			; 1
CONST	ENDS
;	COMDAT ?PaleGoldenrod@Colors@DirectX@@3UXMVECTORF32@2@B
CONST	SEGMENT
?PaleGoldenrod@Colors@DirectX@@3UXMVECTORF32@2@B DD 03f6eeef0r ; 0.933333 ; DirectX::Colors::PaleGoldenrod
	DD	03f68e8ear			; 0.909804
	DD	03f2aaaabr			; 0.666667
	DD	03f800000r			; 1
CONST	ENDS
;	COMDAT ?Orchid@Colors@DirectX@@3UXMVECTORF32@2@B
CONST	SEGMENT
?Orchid@Colors@DirectX@@3UXMVECTORF32@2@B DD 03f5adadcr ; 0.854902 ; DirectX::Colors::Orchid
	DD	03ee0e0e2r			; 0.439216
	DD	03f56d6d8r			; 0.839216
	DD	03f800000r			; 1
CONST	ENDS
;	COMDAT ?OrangeRed@Colors@DirectX@@3UXMVECTORF32@2@B
CONST	SEGMENT
?OrangeRed@Colors@DirectX@@3UXMVECTORF32@2@B DD 03f800000r ; 1 ; DirectX::Colors::OrangeRed
	DD	03e8a8a8br			; 0.270588
	DD	000000000r			; 0
	DD	03f800000r			; 1
CONST	ENDS
;	COMDAT ?Orange@Colors@DirectX@@3UXMVECTORF32@2@B
CONST	SEGMENT
?Orange@Colors@DirectX@@3UXMVECTORF32@2@B DD 03f800000r ; 1 ; DirectX::Colors::Orange
	DD	03f25a5a6r			; 0.647059
	DD	000000000r			; 0
	DD	03f800000r			; 1
CONST	ENDS
;	COMDAT ?OliveDrab@Colors@DirectX@@3UXMVECTORF32@2@B
CONST	SEGMENT
?OliveDrab@Colors@DirectX@@3UXMVECTORF32@2@B DD 03ed6d6d8r ; 0.419608 ; DirectX::Colors::OliveDrab
	DD	03f0e8e8fr			; 0.556863
	DD	03e0c8c8dr			; 0.137255
	DD	03f800000r			; 1
CONST	ENDS
;	COMDAT ?Olive@Colors@DirectX@@3UXMVECTORF32@2@B
CONST	SEGMENT
?Olive@Colors@DirectX@@3UXMVECTORF32@2@B DD 03f008081r ; 0.501961 ; DirectX::Colors::Olive
	DD	03f008081r			; 0.501961
	DD	000000000r			; 0
	DD	03f800000r			; 1
CONST	ENDS
;	COMDAT ?OldLace@Colors@DirectX@@3UXMVECTORF32@2@B
CONST	SEGMENT
?OldLace@Colors@DirectX@@3UXMVECTORF32@2@B DD 03f7dfdffr ; 0.992157 ; DirectX::Colors::OldLace
	DD	03f75f5f7r			; 0.960784
	DD	03f66e6e8r			; 0.901961
	DD	03f800000r			; 1
CONST	ENDS
;	COMDAT ?Navy@Colors@DirectX@@3UXMVECTORF32@2@B
CONST	SEGMENT
?Navy@Colors@DirectX@@3UXMVECTORF32@2@B DD 000000000r ; 0 ; DirectX::Colors::Navy
	DD	000000000r			; 0
	DD	03f008081r			; 0.501961
	DD	03f800000r			; 1
CONST	ENDS
;	COMDAT ?NavajoWhite@Colors@DirectX@@3UXMVECTORF32@2@B
CONST	SEGMENT
?NavajoWhite@Colors@DirectX@@3UXMVECTORF32@2@B DD 03f800000r ; 1 ; DirectX::Colors::NavajoWhite
	DD	03f5edee0r			; 0.870588
	DD	03f2dadaer			; 0.678431
	DD	03f800000r			; 1
CONST	ENDS
;	COMDAT ?Moccasin@Colors@DirectX@@3UXMVECTORF32@2@B
CONST	SEGMENT
?Moccasin@Colors@DirectX@@3UXMVECTORF32@2@B DD 03f800000r ; 1 ; DirectX::Colors::Moccasin
	DD	03f64e4e6r			; 0.894118
	DD	03f35b5b6r			; 0.709804
	DD	03f800000r			; 1
CONST	ENDS
;	COMDAT ?MistyRose@Colors@DirectX@@3UXMVECTORF32@2@B
CONST	SEGMENT
?MistyRose@Colors@DirectX@@3UXMVECTORF32@2@B DD 03f800000r ; 1 ; DirectX::Colors::MistyRose
	DD	03f64e4e6r			; 0.894118
	DD	03f61e1e3r			; 0.882353
	DD	03f800000r			; 1
CONST	ENDS
;	COMDAT ?MintCream@Colors@DirectX@@3UXMVECTORF32@2@B
CONST	SEGMENT
?MintCream@Colors@DirectX@@3UXMVECTORF32@2@B DD 03f75f5f7r ; 0.960784 ; DirectX::Colors::MintCream
	DD	03f800000r			; 1
	DD	03f7afafcr			; 0.980392
	DD	03f800000r			; 1
CONST	ENDS
;	COMDAT ?MidnightBlue@Colors@DirectX@@3UXMVECTORF32@2@B
CONST	SEGMENT
?MidnightBlue@Colors@DirectX@@3UXMVECTORF32@2@B DD 03dc8c8car ; 0.0980392 ; DirectX::Colors::MidnightBlue
	DD	03dc8c8car			; 0.0980392
	DD	03ee0e0e2r			; 0.439216
	DD	03f800000r			; 1
CONST	ENDS
;	COMDAT ?MediumVioletRed@Colors@DirectX@@3UXMVECTORF32@2@B
CONST	SEGMENT
?MediumVioletRed@Colors@DirectX@@3UXMVECTORF32@2@B DD 03f47c7c9r ; 0.780392 ; DirectX::Colors::MediumVioletRed
	DD	03da8a8a9r			; 0.0823529
	DD	03f058586r			; 0.521569
	DD	03f800000r			; 1
CONST	ENDS
;	COMDAT ?MediumTurquoise@Colors@DirectX@@3UXMVECTORF32@2@B
CONST	SEGMENT
?MediumTurquoise@Colors@DirectX@@3UXMVECTORF32@2@B DD 03e909091r ; 0.282353 ; DirectX::Colors::MediumTurquoise
	DD	03f51d1d3r			; 0.819608
	DD	03f4ccccer			; 0.8
	DD	03f800000r			; 1
CONST	ENDS
;	COMDAT ?MediumSpringGreen@Colors@DirectX@@3UXMVECTORF32@2@B
CONST	SEGMENT
?MediumSpringGreen@Colors@DirectX@@3UXMVECTORF32@2@B DD 000000000r ; 0 ; DirectX::Colors::MediumSpringGreen
	DD	03f7afafcr			; 0.980392
	DD	03f1a9a9br			; 0.603922
	DD	03f800000r			; 1
CONST	ENDS
;	COMDAT ?MediumSlateBlue@Colors@DirectX@@3UXMVECTORF32@2@B
CONST	SEGMENT
?MediumSlateBlue@Colors@DirectX@@3UXMVECTORF32@2@B DD 03ef6f6f8r ; 0.482353 ; DirectX::Colors::MediumSlateBlue
	DD	03ed0d0d2r			; 0.407843
	DD	03f6eeef0r			; 0.933333
	DD	03f800000r			; 1
CONST	ENDS
;	COMDAT ?MediumSeaGreen@Colors@DirectX@@3UXMVECTORF32@2@B
CONST	SEGMENT
?MediumSeaGreen@Colors@DirectX@@3UXMVECTORF32@2@B DD 03e70f0f2r ; 0.235294 ; DirectX::Colors::MediumSeaGreen
	DD	03f33b3b4r			; 0.701961
	DD	03ee2e2e4r			; 0.443137
	DD	03f800000r			; 1
CONST	ENDS
;	COMDAT ?MediumPurple@Colors@DirectX@@3UXMVECTORF32@2@B
CONST	SEGMENT
?MediumPurple@Colors@DirectX@@3UXMVECTORF32@2@B DD 03f139394r ; 0.576471 ; DirectX::Colors::MediumPurple
	DD	03ee0e0e2r			; 0.439216
	DD	03f5bdbddr			; 0.858824
	DD	03f800000r			; 1
CONST	ENDS
;	COMDAT ?MediumOrchid@Colors@DirectX@@3UXMVECTORF32@2@B
CONST	SEGMENT
?MediumOrchid@Colors@DirectX@@3UXMVECTORF32@2@B DD 03f3ababbr ; 0.729412 ; DirectX::Colors::MediumOrchid
	DD	03eaaaaabr			; 0.333333
	DD	03f53d3d5r			; 0.827451
	DD	03f800000r			; 1
CONST	ENDS
;	COMDAT ?MediumBlue@Colors@DirectX@@3UXMVECTORF32@2@B
CONST	SEGMENT
?MediumBlue@Colors@DirectX@@3UXMVECTORF32@2@B DD 000000000r ; 0 ; DirectX::Colors::MediumBlue
	DD	000000000r			; 0
	DD	03f4dcdcfr			; 0.803922
	DD	03f800000r			; 1
CONST	ENDS
;	COMDAT ?MediumAquamarine@Colors@DirectX@@3UXMVECTORF32@2@B
CONST	SEGMENT
?MediumAquamarine@Colors@DirectX@@3UXMVECTORF32@2@B DD 03ecccccer ; 0.4 ; DirectX::Colors::MediumAquamarine
	DD	03f4dcdcfr			; 0.803922
	DD	03f2aaaabr			; 0.666667
	DD	03f800000r			; 1
CONST	ENDS
;	COMDAT ?Maroon@Colors@DirectX@@3UXMVECTORF32@2@B
CONST	SEGMENT
?Maroon@Colors@DirectX@@3UXMVECTORF32@2@B DD 03f008081r ; 0.501961 ; DirectX::Colors::Maroon
	DD	000000000r			; 0
	DD	000000000r			; 0
	DD	03f800000r			; 1
CONST	ENDS
;	COMDAT ?Magenta@Colors@DirectX@@3UXMVECTORF32@2@B
CONST	SEGMENT
?Magenta@Colors@DirectX@@3UXMVECTORF32@2@B DD 03f800000r ; 1 ; DirectX::Colors::Magenta
	DD	000000000r			; 0
	DD	03f800000r			; 1
	DD	03f800000r			; 1
CONST	ENDS
;	COMDAT ?Linen@Colors@DirectX@@3UXMVECTORF32@2@B
CONST	SEGMENT
?Linen@Colors@DirectX@@3UXMVECTORF32@2@B DD 03f7afafcr ; 0.980392 ; DirectX::Colors::Linen
	DD	03f70f0f2r			; 0.941177
	DD	03f66e6e8r			; 0.901961
	DD	03f800000r			; 1
CONST	ENDS
;	COMDAT ?LimeGreen@Colors@DirectX@@3UXMVECTORF32@2@B
CONST	SEGMENT
?LimeGreen@Colors@DirectX@@3UXMVECTORF32@2@B DD 03e48c8car ; 0.196078 ; DirectX::Colors::LimeGreen
	DD	03f4dcdcfr			; 0.803922
	DD	03e48c8car			; 0.196078
	DD	03f800000r			; 1
CONST	ENDS
;	COMDAT ?Lime@Colors@DirectX@@3UXMVECTORF32@2@B
CONST	SEGMENT
?Lime@Colors@DirectX@@3UXMVECTORF32@2@B DD 000000000r ; 0 ; DirectX::Colors::Lime
	DD	03f800000r			; 1
	DD	000000000r			; 0
	DD	03f800000r			; 1
CONST	ENDS
;	COMDAT ?LightYellow@Colors@DirectX@@3UXMVECTORF32@2@B
CONST	SEGMENT
?LightYellow@Colors@DirectX@@3UXMVECTORF32@2@B DD 03f800000r ; 1 ; DirectX::Colors::LightYellow
	DD	03f800000r			; 1
	DD	03f60e0e2r			; 0.878431
	DD	03f800000r			; 1
CONST	ENDS
;	COMDAT ?LightSteelBlue@Colors@DirectX@@3UXMVECTORF32@2@B
CONST	SEGMENT
?LightSteelBlue@Colors@DirectX@@3UXMVECTORF32@2@B DD 03f30b0b1r ; 0.690196 ; DirectX::Colors::LightSteelBlue
	DD	03f44c4c6r			; 0.768628
	DD	03f5edee0r			; 0.870588
	DD	03f800000r			; 1
CONST	ENDS
;	COMDAT ?LightSlateGray@Colors@DirectX@@3UXMVECTORF32@2@B
CONST	SEGMENT
?LightSlateGray@Colors@DirectX@@3UXMVECTORF32@2@B DD 03eeeeef0r ; 0.466667 ; DirectX::Colors::LightSlateGray
	DD	03f088889r			; 0.533333
	DD	03f19999ar			; 0.6
	DD	03f800000r			; 1
CONST	ENDS
;	COMDAT ?LightSkyBlue@Colors@DirectX@@3UXMVECTORF32@2@B
CONST	SEGMENT
?LightSkyBlue@Colors@DirectX@@3UXMVECTORF32@2@B DD 03f078788r ; 0.529412 ; DirectX::Colors::LightSkyBlue
	DD	03f4eced0r			; 0.807843
	DD	03f7afafcr			; 0.980392
	DD	03f800000r			; 1
CONST	ENDS
;	COMDAT ?LightSeaGreen@Colors@DirectX@@3UXMVECTORF32@2@B
CONST	SEGMENT
?LightSeaGreen@Colors@DirectX@@3UXMVECTORF32@2@B DD 03e008081r ; 0.12549 ; DirectX::Colors::LightSeaGreen
	DD	03f32b2b3r			; 0.698039
	DD	03f2aaaabr			; 0.666667
	DD	03f800000r			; 1
CONST	ENDS
;	COMDAT ?LightSalmon@Colors@DirectX@@3UXMVECTORF32@2@B
CONST	SEGMENT
?LightSalmon@Colors@DirectX@@3UXMVECTORF32@2@B DD 03f800000r ; 1 ; DirectX::Colors::LightSalmon
	DD	03f20a0a1r			; 0.627451
	DD	03ef4f4f6r			; 0.478431
	DD	03f800000r			; 1
CONST	ENDS
;	COMDAT ?LightPink@Colors@DirectX@@3UXMVECTORF32@2@B
CONST	SEGMENT
?LightPink@Colors@DirectX@@3UXMVECTORF32@2@B DD 03f800000r ; 1 ; DirectX::Colors::LightPink
	DD	03f36b6b7r			; 0.713726
	DD	03f41c1c3r			; 0.756863
	DD	03f800000r			; 1
CONST	ENDS
;	COMDAT ?LightGray@Colors@DirectX@@3UXMVECTORF32@2@B
CONST	SEGMENT
?LightGray@Colors@DirectX@@3UXMVECTORF32@2@B DD 03f53d3d5r ; 0.827451 ; DirectX::Colors::LightGray
	DD	03f53d3d5r			; 0.827451
	DD	03f53d3d5r			; 0.827451
	DD	03f800000r			; 1
CONST	ENDS
;	COMDAT ?LightGreen@Colors@DirectX@@3UXMVECTORF32@2@B
CONST	SEGMENT
?LightGreen@Colors@DirectX@@3UXMVECTORF32@2@B DD 03f109091r ; 0.564706 ; DirectX::Colors::LightGreen
	DD	03f6eeef0r			; 0.933333
	DD	03f109091r			; 0.564706
	DD	03f800000r			; 1
CONST	ENDS
;	COMDAT ?LightGoldenrodYellow@Colors@DirectX@@3UXMVECTORF32@2@B
CONST	SEGMENT
?LightGoldenrodYellow@Colors@DirectX@@3UXMVECTORF32@2@B DD 03f7afafcr ; 0.980392 ; DirectX::Colors::LightGoldenrodYellow
	DD	03f7afafcr			; 0.980392
	DD	03f52d2d4r			; 0.823529
	DD	03f800000r			; 1
CONST	ENDS
;	COMDAT ?LightCyan@Colors@DirectX@@3UXMVECTORF32@2@B
CONST	SEGMENT
?LightCyan@Colors@DirectX@@3UXMVECTORF32@2@B DD 03f60e0e2r ; 0.878431 ; DirectX::Colors::LightCyan
	DD	03f800000r			; 1
	DD	03f800000r			; 1
	DD	03f800000r			; 1
CONST	ENDS
;	COMDAT ?LightCoral@Colors@DirectX@@3UXMVECTORF32@2@B
CONST	SEGMENT
?LightCoral@Colors@DirectX@@3UXMVECTORF32@2@B DD 03f70f0f2r ; 0.941177 ; DirectX::Colors::LightCoral
	DD	03f008081r			; 0.501961
	DD	03f008081r			; 0.501961
	DD	03f800000r			; 1
CONST	ENDS
;	COMDAT ?LightBlue@Colors@DirectX@@3UXMVECTORF32@2@B
CONST	SEGMENT
?LightBlue@Colors@DirectX@@3UXMVECTORF32@2@B DD 03f2dadaer ; 0.678431 ; DirectX::Colors::LightBlue
	DD	03f58d8dar			; 0.847059
	DD	03f66e6e8r			; 0.901961
	DD	03f800000r			; 1
CONST	ENDS
;	COMDAT ?LemonChiffon@Colors@DirectX@@3UXMVECTORF32@2@B
CONST	SEGMENT
?LemonChiffon@Colors@DirectX@@3UXMVECTORF32@2@B DD 03f800000r ; 1 ; DirectX::Colors::LemonChiffon
	DD	03f7afafcr			; 0.980392
	DD	03f4dcdcfr			; 0.803922
	DD	03f800000r			; 1
CONST	ENDS
;	COMDAT ?LawnGreen@Colors@DirectX@@3UXMVECTORF32@2@B
CONST	SEGMENT
?LawnGreen@Colors@DirectX@@3UXMVECTORF32@2@B DD 03ef8f8far ; 0.486275 ; DirectX::Colors::LawnGreen
	DD	03f7cfcfer			; 0.988235
	DD	000000000r			; 0
	DD	03f800000r			; 1
CONST	ENDS
;	COMDAT ?LavenderBlush@Colors@DirectX@@3UXMVECTORF32@2@B
CONST	SEGMENT
?LavenderBlush@Colors@DirectX@@3UXMVECTORF32@2@B DD 03f800000r ; 1 ; DirectX::Colors::LavenderBlush
	DD	03f70f0f2r			; 0.941177
	DD	03f75f5f7r			; 0.960784
	DD	03f800000r			; 1
CONST	ENDS
;	COMDAT ?Lavender@Colors@DirectX@@3UXMVECTORF32@2@B
CONST	SEGMENT
?Lavender@Colors@DirectX@@3UXMVECTORF32@2@B DD 03f66e6e8r ; 0.901961 ; DirectX::Colors::Lavender
	DD	03f66e6e8r			; 0.901961
	DD	03f7afafcr			; 0.980392
	DD	03f800000r			; 1
CONST	ENDS
;	COMDAT ?Khaki@Colors@DirectX@@3UXMVECTORF32@2@B
CONST	SEGMENT
?Khaki@Colors@DirectX@@3UXMVECTORF32@2@B DD 03f70f0f2r ; 0.941177 ; DirectX::Colors::Khaki
	DD	03f66e6e8r			; 0.901961
	DD	03f0c8c8dr			; 0.54902
	DD	03f800000r			; 1
CONST	ENDS
;	COMDAT ?Ivory@Colors@DirectX@@3UXMVECTORF32@2@B
CONST	SEGMENT
?Ivory@Colors@DirectX@@3UXMVECTORF32@2@B DD 03f800000r ; 1 ; DirectX::Colors::Ivory
	DD	03f800000r			; 1
	DD	03f70f0f2r			; 0.941177
	DD	03f800000r			; 1
CONST	ENDS
;	COMDAT ?Indigo@Colors@DirectX@@3UXMVECTORF32@2@B
CONST	SEGMENT
?Indigo@Colors@DirectX@@3UXMVECTORF32@2@B DD 03e969697r ; 0.294118 ; DirectX::Colors::Indigo
	DD	000000000r			; 0
	DD	03f028283r			; 0.509804
	DD	03f800000r			; 1
CONST	ENDS
;	COMDAT ?IndianRed@Colors@DirectX@@3UXMVECTORF32@2@B
CONST	SEGMENT
?IndianRed@Colors@DirectX@@3UXMVECTORF32@2@B DD 03f4dcdcfr ; 0.803922 ; DirectX::Colors::IndianRed
	DD	03eb8b8b9r			; 0.360784
	DD	03eb8b8b9r			; 0.360784
	DD	03f800000r			; 1
CONST	ENDS
;	COMDAT ?HotPink@Colors@DirectX@@3UXMVECTORF32@2@B
CONST	SEGMENT
?HotPink@Colors@DirectX@@3UXMVECTORF32@2@B DD 03f800000r ; 1 ; DirectX::Colors::HotPink
	DD	03ed2d2d4r			; 0.411765
	DD	03f34b4b5r			; 0.705882
	DD	03f800000r			; 1
CONST	ENDS
;	COMDAT ?Honeydew@Colors@DirectX@@3UXMVECTORF32@2@B
CONST	SEGMENT
?Honeydew@Colors@DirectX@@3UXMVECTORF32@2@B DD 03f70f0f2r ; 0.941177 ; DirectX::Colors::Honeydew
	DD	03f800000r			; 1
	DD	03f70f0f2r			; 0.941177
	DD	03f800000r			; 1
CONST	ENDS
;	COMDAT ?GreenYellow@Colors@DirectX@@3UXMVECTORF32@2@B
CONST	SEGMENT
?GreenYellow@Colors@DirectX@@3UXMVECTORF32@2@B DD 03f2dadaer ; 0.678431 ; DirectX::Colors::GreenYellow
	DD	03f800000r			; 1
	DD	03e3cbcbdr			; 0.184314
	DD	03f800000r			; 1
CONST	ENDS
;	COMDAT ?Green@Colors@DirectX@@3UXMVECTORF32@2@B
CONST	SEGMENT
?Green@Colors@DirectX@@3UXMVECTORF32@2@B DD 000000000r ; 0 ; DirectX::Colors::Green
	DD	03f008081r			; 0.501961
	DD	000000000r			; 0
	DD	03f800000r			; 1
CONST	ENDS
;	COMDAT ?Gray@Colors@DirectX@@3UXMVECTORF32@2@B
CONST	SEGMENT
?Gray@Colors@DirectX@@3UXMVECTORF32@2@B DD 03f008081r ; 0.501961 ; DirectX::Colors::Gray
	DD	03f008081r			; 0.501961
	DD	03f008081r			; 0.501961
	DD	03f800000r			; 1
CONST	ENDS
;	COMDAT ?Goldenrod@Colors@DirectX@@3UXMVECTORF32@2@B
CONST	SEGMENT
?Goldenrod@Colors@DirectX@@3UXMVECTORF32@2@B DD 03f5adadcr ; 0.854902 ; DirectX::Colors::Goldenrod
	DD	03f25a5a6r			; 0.647059
	DD	03e008081r			; 0.12549
	DD	03f800000r			; 1
CONST	ENDS
;	COMDAT ?Gold@Colors@DirectX@@3UXMVECTORF32@2@B
CONST	SEGMENT
?Gold@Colors@DirectX@@3UXMVECTORF32@2@B DD 03f800000r ; 1 ; DirectX::Colors::Gold
	DD	03f57d7d9r			; 0.843137
	DD	000000000r			; 0
	DD	03f800000r			; 1
CONST	ENDS
;	COMDAT ?GhostWhite@Colors@DirectX@@3UXMVECTORF32@2@B
CONST	SEGMENT
?GhostWhite@Colors@DirectX@@3UXMVECTORF32@2@B DD 03f78f8far ; 0.972549 ; DirectX::Colors::GhostWhite
	DD	03f78f8far			; 0.972549
	DD	03f800000r			; 1
	DD	03f800000r			; 1
CONST	ENDS
;	COMDAT ?Gainsboro@Colors@DirectX@@3UXMVECTORF32@2@B
CONST	SEGMENT
?Gainsboro@Colors@DirectX@@3UXMVECTORF32@2@B DD 03f5cdcder ; 0.862745 ; DirectX::Colors::Gainsboro
	DD	03f5cdcder			; 0.862745
	DD	03f5cdcder			; 0.862745
	DD	03f800000r			; 1
CONST	ENDS
;	COMDAT ?Fuchsia@Colors@DirectX@@3UXMVECTORF32@2@B
CONST	SEGMENT
?Fuchsia@Colors@DirectX@@3UXMVECTORF32@2@B DD 03f800000r ; 1 ; DirectX::Colors::Fuchsia
	DD	000000000r			; 0
	DD	03f800000r			; 1
	DD	03f800000r			; 1
CONST	ENDS
;	COMDAT ?ForestGreen@Colors@DirectX@@3UXMVECTORF32@2@B
CONST	SEGMENT
?ForestGreen@Colors@DirectX@@3UXMVECTORF32@2@B DD 03e088889r ; 0.133333 ; DirectX::Colors::ForestGreen
	DD	03f0b8b8cr			; 0.545098
	DD	03e088889r			; 0.133333
	DD	03f800000r			; 1
CONST	ENDS
;	COMDAT ?FloralWhite@Colors@DirectX@@3UXMVECTORF32@2@B
CONST	SEGMENT
?FloralWhite@Colors@DirectX@@3UXMVECTORF32@2@B DD 03f800000r ; 1 ; DirectX::Colors::FloralWhite
	DD	03f7afafcr			; 0.980392
	DD	03f70f0f2r			; 0.941177
	DD	03f800000r			; 1
CONST	ENDS
;	COMDAT ?Firebrick@Colors@DirectX@@3UXMVECTORF32@2@B
CONST	SEGMENT
?Firebrick@Colors@DirectX@@3UXMVECTORF32@2@B DD 03f32b2b3r ; 0.698039 ; DirectX::Colors::Firebrick
	DD	03e088889r			; 0.133333
	DD	03e088889r			; 0.133333
	DD	03f800000r			; 1
CONST	ENDS
;	COMDAT ?DodgerBlue@Colors@DirectX@@3UXMVECTORF32@2@B
CONST	SEGMENT
?DodgerBlue@Colors@DirectX@@3UXMVECTORF32@2@B DD 03df0f0f2r ; 0.117647 ; DirectX::Colors::DodgerBlue
	DD	03f109091r			; 0.564706
	DD	03f800000r			; 1
	DD	03f800000r			; 1
CONST	ENDS
;	COMDAT ?DimGray@Colors@DirectX@@3UXMVECTORF32@2@B
CONST	SEGMENT
?DimGray@Colors@DirectX@@3UXMVECTORF32@2@B DD 03ed2d2d4r ; 0.411765 ; DirectX::Colors::DimGray
	DD	03ed2d2d4r			; 0.411765
	DD	03ed2d2d4r			; 0.411765
	DD	03f800000r			; 1
CONST	ENDS
;	COMDAT ?DeepSkyBlue@Colors@DirectX@@3UXMVECTORF32@2@B
CONST	SEGMENT
?DeepSkyBlue@Colors@DirectX@@3UXMVECTORF32@2@B DD 000000000r ; 0 ; DirectX::Colors::DeepSkyBlue
	DD	03f3fbfc0r			; 0.74902
	DD	03f800000r			; 1
	DD	03f800000r			; 1
CONST	ENDS
;	COMDAT ?DeepPink@Colors@DirectX@@3UXMVECTORF32@2@B
CONST	SEGMENT
?DeepPink@Colors@DirectX@@3UXMVECTORF32@2@B DD 03f800000r ; 1 ; DirectX::Colors::DeepPink
	DD	03da0a0a1r			; 0.0784314
	DD	03f139394r			; 0.576471
	DD	03f800000r			; 1
CONST	ENDS
;	COMDAT ?DarkViolet@Colors@DirectX@@3UXMVECTORF32@2@B
CONST	SEGMENT
?DarkViolet@Colors@DirectX@@3UXMVECTORF32@2@B DD 03f149495r ; 0.580392 ; DirectX::Colors::DarkViolet
	DD	000000000r			; 0
	DD	03f53d3d5r			; 0.827451
	DD	03f800000r			; 1
CONST	ENDS
;	COMDAT ?DarkTurquoise@Colors@DirectX@@3UXMVECTORF32@2@B
CONST	SEGMENT
?DarkTurquoise@Colors@DirectX@@3UXMVECTORF32@2@B DD 000000000r ; 0 ; DirectX::Colors::DarkTurquoise
	DD	03f4eced0r			; 0.807843
	DD	03f51d1d3r			; 0.819608
	DD	03f800000r			; 1
CONST	ENDS
;	COMDAT ?DarkSlateGray@Colors@DirectX@@3UXMVECTORF32@2@B
CONST	SEGMENT
?DarkSlateGray@Colors@DirectX@@3UXMVECTORF32@2@B DD 03e3cbcbdr ; 0.184314 ; DirectX::Colors::DarkSlateGray
	DD	03e9e9e9fr			; 0.309804
	DD	03e9e9e9fr			; 0.309804
	DD	03f800000r			; 1
CONST	ENDS
;	COMDAT ?DarkSlateBlue@Colors@DirectX@@3UXMVECTORF32@2@B
CONST	SEGMENT
?DarkSlateBlue@Colors@DirectX@@3UXMVECTORF32@2@B DD 03e909091r ; 0.282353 ; DirectX::Colors::DarkSlateBlue
	DD	03e74f4f6r			; 0.239216
	DD	03f0b8b8cr			; 0.545098
	DD	03f800000r			; 1
CONST	ENDS
;	COMDAT ?DarkSeaGreen@Colors@DirectX@@3UXMVECTORF32@2@B
CONST	SEGMENT
?DarkSeaGreen@Colors@DirectX@@3UXMVECTORF32@2@B DD 03f0f8f90r ; 0.560784 ; DirectX::Colors::DarkSeaGreen
	DD	03f3cbcbdr			; 0.737255
	DD	03f0b8b8cr			; 0.545098
	DD	03f800000r			; 1
CONST	ENDS
;	COMDAT ?DarkSalmon@Colors@DirectX@@3UXMVECTORF32@2@B
CONST	SEGMENT
?DarkSalmon@Colors@DirectX@@3UXMVECTORF32@2@B DD 03f69e9ebr ; 0.913726 ; DirectX::Colors::DarkSalmon
	DD	03f169697r			; 0.588235
	DD	03ef4f4f6r			; 0.478431
	DD	03f800000r			; 1
CONST	ENDS
;	COMDAT ?DarkRed@Colors@DirectX@@3UXMVECTORF32@2@B
CONST	SEGMENT
?DarkRed@Colors@DirectX@@3UXMVECTORF32@2@B DD 03f0b8b8cr ; 0.545098 ; DirectX::Colors::DarkRed
	DD	000000000r			; 0
	DD	000000000r			; 0
	DD	03f800000r			; 1
CONST	ENDS
;	COMDAT ?DarkOrchid@Colors@DirectX@@3UXMVECTORF32@2@B
CONST	SEGMENT
?DarkOrchid@Colors@DirectX@@3UXMVECTORF32@2@B DD 03f19999ar ; 0.6 ; DirectX::Colors::DarkOrchid
	DD	03e48c8car			; 0.196078
	DD	03f4ccccer			; 0.8
	DD	03f800000r			; 1
CONST	ENDS
;	COMDAT ?DarkOrange@Colors@DirectX@@3UXMVECTORF32@2@B
CONST	SEGMENT
?DarkOrange@Colors@DirectX@@3UXMVECTORF32@2@B DD 03f800000r ; 1 ; DirectX::Colors::DarkOrange
	DD	03f0c8c8dr			; 0.54902
	DD	000000000r			; 0
	DD	03f800000r			; 1
CONST	ENDS
;	COMDAT ?DarkOliveGreen@Colors@DirectX@@3UXMVECTORF32@2@B
CONST	SEGMENT
?DarkOliveGreen@Colors@DirectX@@3UXMVECTORF32@2@B DD 03eaaaaabr ; 0.333333 ; DirectX::Colors::DarkOliveGreen
	DD	03ed6d6d8r			; 0.419608
	DD	03e3cbcbdr			; 0.184314
	DD	03f800000r			; 1
CONST	ENDS
;	COMDAT ?DarkMagenta@Colors@DirectX@@3UXMVECTORF32@2@B
CONST	SEGMENT
?DarkMagenta@Colors@DirectX@@3UXMVECTORF32@2@B DD 03f0b8b8cr ; 0.545098 ; DirectX::Colors::DarkMagenta
	DD	000000000r			; 0
	DD	03f0b8b8cr			; 0.545098
	DD	03f800000r			; 1
CONST	ENDS
;	COMDAT ?DarkKhaki@Colors@DirectX@@3UXMVECTORF32@2@B
CONST	SEGMENT
?DarkKhaki@Colors@DirectX@@3UXMVECTORF32@2@B DD 03f3dbdber ; 0.741176 ; DirectX::Colors::DarkKhaki
	DD	03f37b7b8r			; 0.717647
	DD	03ed6d6d8r			; 0.419608
	DD	03f800000r			; 1
CONST	ENDS
;	COMDAT ?DarkGreen@Colors@DirectX@@3UXMVECTORF32@2@B
CONST	SEGMENT
?DarkGreen@Colors@DirectX@@3UXMVECTORF32@2@B DD 000000000r ; 0 ; DirectX::Colors::DarkGreen
	DD	03ec8c8car			; 0.392157
	DD	000000000r			; 0
	DD	03f800000r			; 1
CONST	ENDS
;	COMDAT ?DarkGray@Colors@DirectX@@3UXMVECTORF32@2@B
CONST	SEGMENT
?DarkGray@Colors@DirectX@@3UXMVECTORF32@2@B DD 03f29a9aar ; 0.662745 ; DirectX::Colors::DarkGray
	DD	03f29a9aar			; 0.662745
	DD	03f29a9aar			; 0.662745
	DD	03f800000r			; 1
CONST	ENDS
;	COMDAT ?DarkGoldenrod@Colors@DirectX@@3UXMVECTORF32@2@B
CONST	SEGMENT
?DarkGoldenrod@Colors@DirectX@@3UXMVECTORF32@2@B DD 03f38b8b9r ; 0.721569 ; DirectX::Colors::DarkGoldenrod
	DD	03f068687r			; 0.52549
	DD	03d30b0b1r			; 0.0431373
	DD	03f800000r			; 1
CONST	ENDS
;	COMDAT ?DarkCyan@Colors@DirectX@@3UXMVECTORF32@2@B
CONST	SEGMENT
?DarkCyan@Colors@DirectX@@3UXMVECTORF32@2@B DD 000000000r ; 0 ; DirectX::Colors::DarkCyan
	DD	03f0b8b8cr			; 0.545098
	DD	03f0b8b8cr			; 0.545098
	DD	03f800000r			; 1
CONST	ENDS
;	COMDAT ?DarkBlue@Colors@DirectX@@3UXMVECTORF32@2@B
CONST	SEGMENT
?DarkBlue@Colors@DirectX@@3UXMVECTORF32@2@B DD 000000000r ; 0 ; DirectX::Colors::DarkBlue
	DD	000000000r			; 0
	DD	03f0b8b8cr			; 0.545098
	DD	03f800000r			; 1
CONST	ENDS
;	COMDAT ?Cyan@Colors@DirectX@@3UXMVECTORF32@2@B
CONST	SEGMENT
?Cyan@Colors@DirectX@@3UXMVECTORF32@2@B DD 000000000r ; 0 ; DirectX::Colors::Cyan
	DD	03f800000r			; 1
	DD	03f800000r			; 1
	DD	03f800000r			; 1
CONST	ENDS
;	COMDAT ?Crimson@Colors@DirectX@@3UXMVECTORF32@2@B
CONST	SEGMENT
?Crimson@Colors@DirectX@@3UXMVECTORF32@2@B DD 03f5cdcder ; 0.862745 ; DirectX::Colors::Crimson
	DD	03da0a0a1r			; 0.0784314
	DD	03e70f0f2r			; 0.235294
	DD	03f800000r			; 1
CONST	ENDS
;	COMDAT ?Cornsilk@Colors@DirectX@@3UXMVECTORF32@2@B
CONST	SEGMENT
?Cornsilk@Colors@DirectX@@3UXMVECTORF32@2@B DD 03f800000r ; 1 ; DirectX::Colors::Cornsilk
	DD	03f78f8far			; 0.972549
	DD	03f5cdcder			; 0.862745
	DD	03f800000r			; 1
CONST	ENDS
;	COMDAT ?CornflowerBlue@Colors@DirectX@@3UXMVECTORF32@2@B
CONST	SEGMENT
?CornflowerBlue@Colors@DirectX@@3UXMVECTORF32@2@B DD 03ec8c8car ; 0.392157 ; DirectX::Colors::CornflowerBlue
	DD	03f159596r			; 0.584314
	DD	03f6dedefr			; 0.929412
	DD	03f800000r			; 1
CONST	ENDS
;	COMDAT ?Coral@Colors@DirectX@@3UXMVECTORF32@2@B
CONST	SEGMENT
?Coral@Colors@DirectX@@3UXMVECTORF32@2@B DD 03f800000r ; 1 ; DirectX::Colors::Coral
	DD	03efeff00r			; 0.498039
	DD	03ea0a0a1r			; 0.313726
	DD	03f800000r			; 1
CONST	ENDS
;	COMDAT ?Chocolate@Colors@DirectX@@3UXMVECTORF32@2@B
CONST	SEGMENT
?Chocolate@Colors@DirectX@@3UXMVECTORF32@2@B DD 03f52d2d4r ; 0.823529 ; DirectX::Colors::Chocolate
	DD	03ed2d2d4r			; 0.411765
	DD	03df0f0f2r			; 0.117647
	DD	03f800000r			; 1
CONST	ENDS
;	COMDAT ?Chartreuse@Colors@DirectX@@3UXMVECTORF32@2@B
CONST	SEGMENT
?Chartreuse@Colors@DirectX@@3UXMVECTORF32@2@B DD 03efeff00r ; 0.498039 ; DirectX::Colors::Chartreuse
	DD	03f800000r			; 1
	DD	000000000r			; 0
	DD	03f800000r			; 1
CONST	ENDS
;	COMDAT ?CadetBlue@Colors@DirectX@@3UXMVECTORF32@2@B
CONST	SEGMENT
?CadetBlue@Colors@DirectX@@3UXMVECTORF32@2@B DD 03ebebebfr ; 0.372549 ; DirectX::Colors::CadetBlue
	DD	03f1e9e9fr			; 0.619608
	DD	03f20a0a1r			; 0.627451
	DD	03f800000r			; 1
CONST	ENDS
;	COMDAT ?BurlyWood@Colors@DirectX@@3UXMVECTORF32@2@B
CONST	SEGMENT
?BurlyWood@Colors@DirectX@@3UXMVECTORF32@2@B DD 03f5edee0r ; 0.870588 ; DirectX::Colors::BurlyWood
	DD	03f38b8b9r			; 0.721569
	DD	03f078788r			; 0.529412
	DD	03f800000r			; 1
CONST	ENDS
;	COMDAT ?Brown@Colors@DirectX@@3UXMVECTORF32@2@B
CONST	SEGMENT
?Brown@Colors@DirectX@@3UXMVECTORF32@2@B DD 03f25a5a6r ; 0.647059 ; DirectX::Colors::Brown
	DD	03e28a8a9r			; 0.164706
	DD	03e28a8a9r			; 0.164706
	DD	03f800000r			; 1
CONST	ENDS
;	COMDAT ?BlueViolet@Colors@DirectX@@3UXMVECTORF32@2@B
CONST	SEGMENT
?BlueViolet@Colors@DirectX@@3UXMVECTORF32@2@B DD 03f0a8a8br ; 0.541176 ; DirectX::Colors::BlueViolet
	DD	03e2cacadr			; 0.168627
	DD	03f62e2e4r			; 0.886275
	DD	03f800000r			; 1
CONST	ENDS
;	COMDAT ?Blue@Colors@DirectX@@3UXMVECTORF32@2@B
CONST	SEGMENT
?Blue@Colors@DirectX@@3UXMVECTORF32@2@B DD 000000000r ; 0 ; DirectX::Colors::Blue
	DD	000000000r			; 0
	DD	03f800000r			; 1
	DD	03f800000r			; 1
CONST	ENDS
;	COMDAT ?BlanchedAlmond@Colors@DirectX@@3UXMVECTORF32@2@B
CONST	SEGMENT
?BlanchedAlmond@Colors@DirectX@@3UXMVECTORF32@2@B DD 03f800000r ; 1 ; DirectX::Colors::BlanchedAlmond
	DD	03f6bebedr			; 0.921569
	DD	03f4dcdcfr			; 0.803922
	DD	03f800000r			; 1
CONST	ENDS
;	COMDAT ?Black@Colors@DirectX@@3UXMVECTORF32@2@B
CONST	SEGMENT
?Black@Colors@DirectX@@3UXMVECTORF32@2@B DD 000000000r ; 0 ; DirectX::Colors::Black
	DD	000000000r			; 0
	DD	000000000r			; 0
	DD	03f800000r			; 1
CONST	ENDS
;	COMDAT ?Bisque@Colors@DirectX@@3UXMVECTORF32@2@B
CONST	SEGMENT
?Bisque@Colors@DirectX@@3UXMVECTORF32@2@B DD 03f800000r ; 1 ; DirectX::Colors::Bisque
	DD	03f64e4e6r			; 0.894118
	DD	03f44c4c6r			; 0.768628
	DD	03f800000r			; 1
CONST	ENDS
;	COMDAT ?Beige@Colors@DirectX@@3UXMVECTORF32@2@B
CONST	SEGMENT
?Beige@Colors@DirectX@@3UXMVECTORF32@2@B DD 03f75f5f7r ; 0.960784 ; DirectX::Colors::Beige
	DD	03f75f5f7r			; 0.960784
	DD	03f5cdcder			; 0.862745
	DD	03f800000r			; 1
CONST	ENDS
;	COMDAT ?Azure@Colors@DirectX@@3UXMVECTORF32@2@B
CONST	SEGMENT
?Azure@Colors@DirectX@@3UXMVECTORF32@2@B DD 03f70f0f2r ; 0.941177 ; DirectX::Colors::Azure
	DD	03f800000r			; 1
	DD	03f800000r			; 1
	DD	03f800000r			; 1
CONST	ENDS
;	COMDAT ?Aquamarine@Colors@DirectX@@3UXMVECTORF32@2@B
CONST	SEGMENT
?Aquamarine@Colors@DirectX@@3UXMVECTORF32@2@B DD 03efeff00r ; 0.498039 ; DirectX::Colors::Aquamarine
	DD	03f800000r			; 1
	DD	03f54d4d6r			; 0.831373
	DD	03f800000r			; 1
CONST	ENDS
;	COMDAT ?Aqua@Colors@DirectX@@3UXMVECTORF32@2@B
CONST	SEGMENT
?Aqua@Colors@DirectX@@3UXMVECTORF32@2@B DD 000000000r ; 0 ; DirectX::Colors::Aqua
	DD	03f800000r			; 1
	DD	03f800000r			; 1
	DD	03f800000r			; 1
CONST	ENDS
;	COMDAT ?AntiqueWhite@Colors@DirectX@@3UXMVECTORF32@2@B
CONST	SEGMENT
?AntiqueWhite@Colors@DirectX@@3UXMVECTORF32@2@B DD 03f7afafcr ; 0.980392 ; DirectX::Colors::AntiqueWhite
	DD	03f6bebedr			; 0.921569
	DD	03f57d7d9r			; 0.843137
	DD	03f800000r			; 1
CONST	ENDS
;	COMDAT ?AliceBlue@Colors@DirectX@@3UXMVECTORF32@2@B
CONST	SEGMENT
?AliceBlue@Colors@DirectX@@3UXMVECTORF32@2@B DD 03f70f0f2r ; 0.941177 ; DirectX::Colors::AliceBlue
	DD	03f78f8far			; 0.972549
	DD	03f800000r			; 1
	DD	03f800000r			; 1
CONST	ENDS
PUBLIC	??_H@YAXPEAX_K1P6APEAX0@Z@Z			; `vector constructor iterator'
PUBLIC	?__empty_global_delete@@YAXPEAX@Z		; __empty_global_delete
PUBLIC	?__empty_global_delete@@YAXPEAX_K@Z		; __empty_global_delete
PUBLIC	?XMConvertToRadians@DirectX@@YAMM@Z		; DirectX::XMConvertToRadians
PUBLIC	??BXMVECTORI32@DirectX@@QEBA?AT__m128@@XZ	; DirectX::XMVECTORI32::operator __m128
PUBLIC	??BXMVECTORU32@DirectX@@QEBA?AT__m128@@XZ	; DirectX::XMVECTORU32::operator __m128
PUBLIC	??GDirectX@@YQ?AT__m128@@T1@@Z			; DirectX::operator-
PUBLIC	??HDirectX@@YQ?AT__m128@@T1@0@Z			; DirectX::operator+
PUBLIC	??GDirectX@@YQ?AT__m128@@T1@0@Z			; DirectX::operator-
PUBLIC	??DDirectX@@YQ?AT__m128@@T1@M@Z			; DirectX::operator*
PUBLIC	??0XMMATRIX@DirectX@@QEAA@XZ			; DirectX::XMMATRIX::XMMATRIX
PUBLIC	??0XMFLOAT3@DirectX@@QEAA@XZ			; DirectX::XMFLOAT3::XMFLOAT3
PUBLIC	??0XMFLOAT3@DirectX@@QEAA@MMM@Z			; DirectX::XMFLOAT3::XMFLOAT3
PUBLIC	??4XMFLOAT3@DirectX@@QEAAAEAU01@AEBU01@@Z	; DirectX::XMFLOAT3::operator=
PUBLIC	?XMLoadFloat4@DirectX@@YQ?AT__m128@@PEBUXMFLOAT4@1@@Z ; DirectX::XMLoadFloat4
PUBLIC	?XMLoadFloat4x4@DirectX@@YQ?AUXMMATRIX@1@PEBUXMFLOAT4X4@1@@Z ; DirectX::XMLoadFloat4x4
PUBLIC	?XMVectorSet@DirectX@@YQ?AT__m128@@MMMM@Z	; DirectX::XMVectorSet
PUBLIC	?XMVectorGetX@DirectX@@YQMT__m128@@@Z		; DirectX::XMVectorGetX
PUBLIC	?XMVectorGetY@DirectX@@YQMT__m128@@@Z		; DirectX::XMVectorGetY
PUBLIC	?XMVectorSetY@DirectX@@YQ?AT__m128@@T2@M@Z	; DirectX::XMVectorSetY
PUBLIC	?XMVectorNegate@DirectX@@YQ?AT__m128@@T2@@Z	; DirectX::XMVectorNegate
PUBLIC	?XMVectorAdd@DirectX@@YQ?AT__m128@@T2@0@Z	; DirectX::XMVectorAdd
PUBLIC	?XMVectorSubtract@DirectX@@YQ?AT__m128@@T2@0@Z	; DirectX::XMVectorSubtract
PUBLIC	?XMVectorScale@DirectX@@YQ?AT__m128@@T2@M@Z	; DirectX::XMVectorScale
PUBLIC	?XMVector3Cross@DirectX@@YQ?AT__m128@@T2@0@Z	; DirectX::XMVector3Cross
PUBLIC	?XMVector3Length@DirectX@@YQ?AT__m128@@T2@@Z	; DirectX::XMVector3Length
PUBLIC	?XMVector3Normalize@DirectX@@YQ?AT__m128@@T2@@Z	; DirectX::XMVector3Normalize
PUBLIC	??0tagColliderDesc@CCollider@Engine@@QEAA@XZ	; Engine::CCollider::tagColliderDesc::tagColliderDesc
PUBLIC	??0CThorn@Client@@AEAA@PEAUID3D11Device@@PEAUID3D11DeviceContext@@@Z ; Client::CThorn::CThorn
PUBLIC	??1CThorn@Client@@EEAA@XZ			; Client::CThorn::~CThorn
PUBLIC	?Initialize_Prototype@CThorn@Client@@UEAAJXZ	; Client::CThorn::Initialize_Prototype
PUBLIC	?Initialize@CThorn@Client@@UEAAJPEAX@Z		; Client::CThorn::Initialize
PUBLIC	?Tick@CThorn@Client@@UEAAXN@Z			; Client::CThorn::Tick
PUBLIC	?LateTick@CThorn@Client@@UEAAXN@Z		; Client::CThorn::LateTick
PUBLIC	?Render@CThorn@Client@@UEAAJXZ			; Client::CThorn::Render
PUBLIC	?RenderGUI@CThorn@Client@@UEAAXXZ		; Client::CThorn::RenderGUI
PUBLIC	?GetLengthFromCamera@CThorn@Client@@UEAAMXZ	; Client::CThorn::GetLengthFromCamera
PUBLIC	?Reset@CThorn@Client@@QEAAXXZ			; Client::CThorn::Reset
PUBLIC	?SetPosition@CThorn@Client@@QEAAXT__m128@@@Z	; Client::CThorn::SetPosition
PUBLIC	?SetRotationXYZ@CThorn@Client@@QEAAXUXMFLOAT3@DirectX@@@Z ; Client::CThorn::SetRotationXYZ
PUBLIC	?SetRotationToTarget@CThorn@Client@@QEAAXT__m128@@@Z ; Client::CThorn::SetRotationToTarget
PUBLIC	?SetupScaleUpStart@CThorn@Client@@QEAAXM@Z	; Client::CThorn::SetupScaleUpStart
PUBLIC	?SetupScaleUpDownStart@CThorn@Client@@QEAAXM@Z	; Client::CThorn::SetupScaleUpDownStart
PUBLIC	?SetupScaleSmoothUpStart@CThorn@Client@@QEAAXM@Z ; Client::CThorn::SetupScaleSmoothUpStart
PUBLIC	?SetupScaleSmoothDownStart@CThorn@Client@@QEAAXXZ ; Client::CThorn::SetupScaleSmoothDownStart
PUBLIC	?ScaleUpProcess@CThorn@Client@@QEAA_NN@Z	; Client::CThorn::ScaleUpProcess
PUBLIC	?ScaleUpSmoothProcess@CThorn@Client@@QEAA_NN@Z	; Client::CThorn::ScaleUpSmoothProcess
PUBLIC	?ScaleDownSmoothProcess@CThorn@Client@@QEAA_NN@Z ; Client::CThorn::ScaleDownSmoothProcess
PUBLIC	?MoveProcess@CThorn@Client@@QEAA_NN@Z		; Client::CThorn::MoveProcess
PUBLIC	?IsScaleFinish@CThorn@Client@@QEAA_NXZ		; Client::CThorn::IsScaleFinish
PUBLIC	?AddComponents@CThorn@Client@@AEAAJXZ		; Client::CThorn::AddComponents
PUBLIC	?SetupShaderResources@CThorn@Client@@AEAAJXZ	; Client::CThorn::SetupShaderResources
PUBLIC	?SameObjectNoDetection@CThorn@Client@@EEAAXXZ	; Client::CThorn::SameObjectNoDetection
PUBLIC	?OnCollisionEnter@CThorn@Client@@EEAAXPEAVCCollider@Engine@@0@Z ; Client::CThorn::OnCollisionEnter
PUBLIC	?OnCollisionStay@CThorn@Client@@EEAAXPEAVCCollider@Engine@@0@Z ; Client::CThorn::OnCollisionStay
PUBLIC	?OnCollisionExit@CThorn@Client@@EEAAXPEAVCCollider@Engine@@0@Z ; Client::CThorn::OnCollisionExit
PUBLIC	?Create@CThorn@Client@@SAPEAV12@PEAUID3D11Device@@PEAUID3D11DeviceContext@@@Z ; Client::CThorn::Create
PUBLIC	?Clone@CThorn@Client@@UEAAPEAVCGameObject@Engine@@PEAX@Z ; Client::CThorn::Clone
PUBLIC	?Free@CThorn@Client@@UEAAXXZ			; Client::CThorn::Free
PUBLIC	??0CThorn@Client@@QEAA@AEBV01@@Z		; Client::CThorn::CThorn
PUBLIC	??_GCThorn@Client@@EEAAPEAXI@Z			; Client::CThorn::`scalar deleting destructor'
PUBLIC	?IsFreeze@CApplicationManager@Client@@QEBA_NXZ	; Client::CApplicationManager::IsFreeze
PUBLIC	?GetBodyCollider@CCharacter@Client@@QEBAPEAVCCollider@Engine@@XZ ; Client::CCharacter::GetBodyCollider
PUBLIC	??$Safe_Release@PEAVCThorn@Client@@@Engine@@YAKAEAPEAVCThorn@Client@@@Z ; Engine::Safe_Release<Client::CThorn * __ptr64>
PUBLIC	??$Safe_Release@PEAVCSphereCollider@Engine@@@Engine@@YAKAEAPEAVCSphereCollider@0@@Z ; Engine::Safe_Release<Engine::CSphereCollider * __ptr64>
PUBLIC	??$Safe_Release@PEAVCRenderer@Engine@@@Engine@@YAKAEAPEAVCRenderer@0@@Z ; Engine::Safe_Release<Engine::CRenderer * __ptr64>
PUBLIC	??$Safe_Release@PEAVCTransform@Engine@@@Engine@@YAKAEAPEAVCTransform@0@@Z ; Engine::Safe_Release<Engine::CTransform * __ptr64>
PUBLIC	??$Safe_Release@PEAVCModel@Engine@@@Engine@@YAKAEAPEAVCModel@0@@Z ; Engine::Safe_Release<Engine::CModel * __ptr64>
PUBLIC	??$Safe_Release@PEAVCShader@Engine@@@Engine@@YAKAEAPEAVCShader@0@@Z ; Engine::Safe_Release<Engine::CShader * __ptr64>
PUBLIC	??$Safe_Release@PEAVCVIBuffer_Rect@Engine@@@Engine@@YAKAEAPEAVCVIBuffer_Rect@0@@Z ; Engine::Safe_Release<Engine::CVIBuffer_Rect * __ptr64>
PUBLIC	??$Safe_Release@PEAVCTexture@Engine@@@Engine@@YAKAEAPEAVCTexture@0@@Z ; Engine::Safe_Release<Engine::CTexture * __ptr64>
PUBLIC	??_C@_1JE@DMOBBMDE@?$AAc?$AA?3?$AA?2?$AAp?$AAr?$AAo?$AAg?$AAr?$AAa?$AAm?$AA?5?$AAf?$AAi?$AAl?$AAe?$AAs?$AA?5?$AA?$CI?$AAx?$AA8?$AA6?$AA?$CJ?$AA?2?$AAw?$AAi?$AAn?$AAd?$AAo?$AAw?$AAs?$AA?5?$AAk@ ; `string'
PUBLIC	??_C@_1BA@LBADLIHI@?$AAp?$AAS?$AAo?$AAu?$AAr?$AAc?$AAe?$AA?$AA@ ; `string'
PUBLIC	?__LINE__Var@?0??XMLoadFloat4@DirectX@@YQ?AT__m128@@PEBUXMFLOAT4@2@@Z@4JA ; `DirectX::XMLoadFloat4'::`1'::__LINE__Var
PUBLIC	?__LINE__Var@?0??XMLoadFloat4x4@DirectX@@YQ?AUXMMATRIX@2@PEBUXMFLOAT4X4@2@@Z@4JA ; `DirectX::XMLoadFloat4x4'::`1'::__LINE__Var
PUBLIC	??_7CThorn@Client@@6BCGameObject@Engine@@@	; Client::CThorn::`vftable'
PUBLIC	??_7CThorn@Client@@6BISameObjectNoDetection@Engine@@@ ; Client::CThorn::`vftable'
PUBLIC	??_7CThorn@Client@@6BIOnCollisionEnter@Engine@@@ ; Client::CThorn::`vftable'
PUBLIC	??_7CThorn@Client@@6BIOnCollisionStay@Engine@@@	; Client::CThorn::`vftable'
PUBLIC	??_7CThorn@Client@@6BIOnCollisionExit@Engine@@@	; Client::CThorn::`vftable'
PUBLIC	??_C@_0N@ELIMCBLG@g_ViewMatrix?$AA@		; `string'
PUBLIC	??_C@_0N@OOHDPIO@g_ProjMatrix?$AA@		; `string'
PUBLIC	??_C@_0O@PFNLPMLD@g_WorldMatrix?$AA@		; `string'
PUBLIC	??_C@_09HCHKCCII@g_Texture?$AA@			; `string'
PUBLIC	??_C@_09IPLGGENB@g_TimeAcc?$AA@			; `string'
PUBLIC	??_C@_0BB@FMIBAICL@g_DiffuseTexture?$AA@	; `string'
PUBLIC	??_C@_0L@IHOCIKLF@g_fTimeAcc?$AA@		; `string'
PUBLIC	??_C@_1BK@GIOMOCNE@?$AAc?$AAo?$AAm?$AA_?$AAr?$AAe?$AAn?$AAd?$AAe?$AAr?$AAe?$AAr?$AA?$AA@ ; `string'
PUBLIC	??_C@_1CG@COFFFCLL@?$AAp?$AAr?$AAo?$AAt?$AAo?$AA_?$AAc?$AAo?$AAm?$AA_?$AAr?$AAe?$AAn?$AAd?$AAe?$AAr?$AAe?$AAr?$AA?$AA@ ; `string'
PUBLIC	??_C@_1BM@CJMPMHDD@?$AAc?$AAo?$AAm?$AA_?$AAt?$AAr?$AAa?$AAn?$AAs?$AAf?$AAo?$AAr?$AAm?$AA?$AA@ ; `string'
PUBLIC	??_C@_1CI@MLEFGO@?$AAp?$AAr?$AAo?$AAt?$AAo?$AA_?$AAc?$AAo?$AAm?$AA_?$AAt?$AAr?$AAa?$AAn?$AAs?$AAf?$AAo?$AAr?$AAm?$AA?$AA@ ; `string'
PUBLIC	??_C@_1CG@DBHLCHEM@?$AAc?$AAo?$AAm?$AA_?$AAt?$AAr?$AAa?$AAn?$AAs?$AAf?$AAo?$AAr?$AAm?$AAt?$AAr?$AAa?$AAi?$AAl?$AA?$AA@ ; `string'
PUBLIC	??_C@_1BO@BDPFEMKD@?$AAc?$AAo?$AAm?$AA_?$AAt?$AAr?$AAa?$AAn?$AAs?$AAf?$AAo?$AAr?$AAm?$AA3?$AA?$AA@ ; `string'
PUBLIC	??_C@_1BG@GGOMMBBL@?$AAc?$AAo?$AAm?$AA_?$AAs?$AAh?$AAa?$AAd?$AAe?$AAr?$AA?$AA@ ; `string'
PUBLIC	??_C@_1DE@OMAPGAIH@?$AAp?$AAr?$AAo?$AAt?$AAo?$AA_?$AAc?$AAo?$AAm?$AA_?$AAs?$AAh?$AAa?$AAd?$AAe?$AAr?$AA_?$AAv?$AAt?$AAx?$AAm?$AAo?$AAd?$AAe?$AAl?$AA?$AA@ ; `string'
PUBLIC	??_C@_1BI@NMCMAJE@?$AAc?$AAo?$AAm?$AA_?$AAs?$AAh?$AAa?$AAd?$AAe?$AAr?$AA1?$AA?$AA@ ; `string'
PUBLIC	??_C@_1DA@NCILMLLP@?$AAp?$AAr?$AAo?$AAt?$AAo?$AA_?$AAc?$AAo?$AAm?$AA_?$AAs?$AAh?$AAa?$AAd?$AAe?$AAr?$AA_?$AAv?$AAt?$AAx?$AAt?$AAe?$AAx?$AA?$AA@ ; `string'
PUBLIC	??_C@_1BM@EDKHFEBF@?$AAc?$AAo?$AAm?$AA_?$AAm?$AAo?$AAd?$AAe?$AA_?$AAg?$AAa?$AAr?$AAd?$AA?$AA@ ; `string'
PUBLIC	??_C@_1DE@KBCIPNKP@?$AAp?$AAr?$AAo?$AAt?$AAo?$AA_?$AAc?$AAo?$AAm?$AA_?$AAm?$AAo?$AAd?$AAe?$AAl?$AA_?$AAt?$AAh?$AAo?$AAr?$AAn?$AAg?$AAa?$AAr?$AAd?$AA?$AA@ ; `string'
PUBLIC	??_C@_1BE@MLNOEPCA@?$AAc?$AAo?$AAm?$AA_?$AAm?$AAo?$AAd?$AAe?$AAl?$AA?$AA@ ; `string'
PUBLIC	??_C@_1CM@NLPIEOMO@?$AAp?$AAr?$AAo?$AAt?$AAo?$AA_?$AAc?$AAo?$AAm?$AA_?$AAm?$AAo?$AAd?$AAe?$AAl?$AA_?$AAt?$AAh?$AAo?$AAr?$AAn?$AA?$AA@ ; `string'
PUBLIC	??_C@_1BK@BKCENIHA@?$AAc?$AAo?$AAm?$AA_?$AAc?$AAo?$AAl?$AAl?$AAi?$AAd?$AAe?$AAr?$AA?$AA@ ; `string'
PUBLIC	??_C@_1DE@OCAJEKIC@?$AAp?$AAr?$AAo?$AAt?$AAo?$AA_?$AAc?$AAo?$AAm?$AA_?$AAs?$AAp?$AAh?$AAe?$AAr?$AAe?$AA_?$AAc?$AAo?$AAl?$AAl?$AAi?$AAd?$AAe?$AAr?$AA?$AA@ ; `string'
PUBLIC	??_C@_1CM@EIJDBIDJ@?$AAc?$AAo?$AAm?$AA_?$AAt?$AAr?$AAa?$AAn?$AAs?$AA_?$AAf?$AAl?$AAo?$AAo?$AAr?$AAe?$AAf?$AAe?$AAe?$AAc?$AAt?$AA?$AA@ ; `string'
PUBLIC	??_C@_1CI@EJHCKIFB@?$AAc?$AAo?$AAm?$AA_?$AAt?$AAe?$AAx?$AAt?$AAu?$AAr?$AAe?$AA_?$AAd?$AAi?$AAf?$AAf?$AAu?$AAs?$AAe?$AA?$AA@ ; `string'
PUBLIC	??_C@_1DO@HAGCFBOL@?$AAp?$AAr?$AAo?$AAt?$AAo?$AA_?$AAc?$AAo?$AAm?$AA_?$AAt?$AAe?$AAx?$AAt?$AAu?$AAr?$AAe?$AA_?$AAt?$AAh?$AAo?$AAr?$AAn?$AAd?$AAi?$AAf?$AAf?$AAu?$AAs?$AAe?$AA?$AA@ ; `string'
PUBLIC	??_C@_1CC@CLEGOIHO@?$AAc?$AAo?$AAm?$AA_?$AAt?$AAe?$AAx?$AAt?$AAu?$AAr?$AAe?$AA_?$AAm?$AAa?$AAs?$AAk?$AA?$AA@ ; `string'
PUBLIC	??_C@_1DI@LAEBNKBN@?$AAp?$AAr?$AAo?$AAt?$AAo?$AA_?$AAc?$AAo?$AAm?$AA_?$AAt?$AAe?$AAx?$AAt?$AAu?$AAr?$AAe?$AA_?$AAt?$AAh?$AAo?$AAr?$AAn?$AAm?$AAa?$AAs?$AAk?$AA?$AA@ ; `string'
PUBLIC	??_C@_1CK@ECFCAHLG@?$AAc?$AAo?$AAm?$AA_?$AAt?$AAe?$AAx?$AAt?$AAu?$AAr?$AAe?$AA_?$AAg?$AAa?$AAr?$AAd?$AAm?$AAa?$AAs?$AAk?$AA?$AA@ ; `string'
PUBLIC	??_C@_1DG@OMECKGAB@?$AAp?$AAr?$AAo?$AAt?$AAo?$AA_?$AAc?$AAo?$AAm?$AA_?$AAt?$AAe?$AAx?$AAt?$AAu?$AAr?$AAe?$AA_?$AAg?$AAa?$AAr?$AAd?$AAm?$AAa?$AAs?$AAk?$AA?$AA@ ; `string'
PUBLIC	??_C@_1BG@KPBPOMBH@?$AAc?$AAo?$AAm?$AA_?$AAb?$AAu?$AAf?$AAf?$AAe?$AAr?$AA?$AA@ ; `string'
PUBLIC	??_C@_1DA@BAIPNHMH@?$AAp?$AAr?$AAo?$AAt?$AAo?$AA_?$AAc?$AAo?$AAm?$AA_?$AAv?$AAi?$AAb?$AAu?$AAf?$AAf?$AAe?$AAr?$AA_?$AAr?$AAe?$AAc?$AAt?$AA?$AA@ ; `string'
PUBLIC	??_C@_1CA@NLFBHNMH@?$AAc?$AAo?$AAm?$AA_?$AAs?$AAh?$AAa?$AAd?$AAe?$AAr?$AAt?$AAr?$AAa?$AAi?$AAl?$AA?$AA@ ; `string'
PUBLIC	??_C@_1CO@DKOHJLDJ@?$AAp?$AAr?$AAo?$AAt?$AAo?$AA_?$AAc?$AAo?$AAm?$AA_?$AAs?$AAh?$AAa?$AAd?$AAe?$AAr?$AA_?$AAt?$AAr?$AAa?$AAi?$AAl?$AA?$AA@ ; `string'
PUBLIC	??_C@_1CA@JKLCDBEM@?$AAc?$AAo?$AAm?$AA_?$AAb?$AAu?$AAf?$AAf?$AAe?$AAr?$AAt?$AAr?$AAa?$AAi?$AAl?$AA?$AA@ ; `string'
PUBLIC	??_C@_1CM@NMJMGJPG@?$AAc?$AAo?$AAm?$AA_?$AAt?$AAe?$AAx?$AAt?$AAu?$AAr?$AAe?$AA_?$AAm?$AAa?$AAs?$AAk?$AAt?$AAr?$AAa?$AAi?$AAl?$AA?$AA@ ; `string'
PUBLIC	??_C@_1DA@MGAJDFLL@?$AAp?$AAr?$AAo?$AAt?$AAo?$AA_?$AAc?$AAo?$AAm?$AA_?$AAt?$AAe?$AAx?$AAt?$AAu?$AAr?$AAe?$AA_?$AAt?$AAr?$AAa?$AAi?$AAl?$AA?$AA@ ; `string'
PUBLIC	??_C@_0P@BDEIJKBM@g_vCamPosition?$AA@		; `string'
PUBLIC	??_C@_0M@NHGOLGEL@g_vLightDir?$AA@		; `string'
PUBLIC	??_C@_0BA@PCOGIHOF@g_vLightDiffuse?$AA@		; `string'
PUBLIC	??_C@_0BB@IJIIKIH@g_vLightSpecular?$AA@		; `string'
PUBLIC	??_C@_0BA@EALGDMPJ@g_vLightAmbient?$AA@		; `string'
PUBLIC	?__LINE__Var@?0??Create@CThorn@Client@@SAPEAV23@PEAUID3D11Device@@PEAUID3D11DeviceContext@@@Z@4JA ; `Client::CThorn::Create'::`1'::__LINE__Var
PUBLIC	??_C@_0ED@NMCGMBOD@c?3?2users?2arcco?2documents?2github?2@ ; `string'
PUBLIC	??_C@_1BA@HHOMBECE@?$AAM?$AAe?$AAs?$AAs?$AAa?$AAg?$AAe?$AA?$AA@ ; `string'
PUBLIC	??_C@_1DE@ECNCIPJH@?$AAF?$AAa?$AAi?$AAl?$AAe?$AAd?$AA?5?$AAt?$AAo?$AA?5?$AAC?$AAr?$AAe?$AAa?$AAt?$AAe?$AA?5?$AA?3?$AA?5?$AAC?$AAT?$AAh?$AAo?$AAr?$AAn?$AA?$AA@ ; `string'
PUBLIC	?__LINE__Var@?0??Clone@CThorn@Client@@UEAAPEAVCGameObject@Engine@@PEAX@Z@4JA ; `Client::CThorn::Clone'::`1'::__LINE__Var
PUBLIC	??_C@_1DC@DHJPJPDL@?$AAF?$AAa?$AAi?$AAl?$AAe?$AAd?$AA?5?$AAt?$AAo?$AA?5?$AAC?$AAl?$AAo?$AAn?$AAe?$AA?5?$AA?3?$AA?5?$AAC?$AAT?$AAh?$AAo?$AAr?$AAn?$AA?$AA@ ; `string'
PUBLIC	??_R0?AVCGameObject@Engine@@@8			; Engine::CGameObject `RTTI Type Descriptor'
PUBLIC	??_R0?AVCCharacter@Client@@@8			; Client::CCharacter `RTTI Type Descriptor'
PUBLIC	??_R4CThorn@Client@@6BCGameObject@Engine@@@	; Client::CThorn::`RTTI Complete Object Locator'
PUBLIC	??_R0?AVCThorn@Client@@@8			; Client::CThorn `RTTI Type Descriptor'
PUBLIC	??_R3CThorn@Client@@8				; Client::CThorn::`RTTI Class Hierarchy Descriptor'
PUBLIC	??_R2CThorn@Client@@8				; Client::CThorn::`RTTI Base Class Array'
PUBLIC	??_R1A@?0A@EA@CThorn@Client@@8			; Client::CThorn::`RTTI Base Class Descriptor at (0,-1,0,64)'
PUBLIC	??_R1A@?0A@EA@CGameObject@Engine@@8		; Engine::CGameObject::`RTTI Base Class Descriptor at (0,-1,0,64)'
PUBLIC	??_R3CGameObject@Engine@@8			; Engine::CGameObject::`RTTI Class Hierarchy Descriptor'
PUBLIC	??_R2CGameObject@Engine@@8			; Engine::CGameObject::`RTTI Base Class Array'
PUBLIC	??_R1A@?0A@EA@CBase@Engine@@8			; Engine::CBase::`RTTI Base Class Descriptor at (0,-1,0,64)'
PUBLIC	??_R0?AVCBase@Engine@@@8			; Engine::CBase `RTTI Type Descriptor'
PUBLIC	??_R3CBase@Engine@@8				; Engine::CBase::`RTTI Class Hierarchy Descriptor'
PUBLIC	??_R2CBase@Engine@@8				; Engine::CBase::`RTTI Base Class Array'
PUBLIC	??_R1HI@?0A@EA@ISameObjectNoDetection@Engine@@8	; Engine::ISameObjectNoDetection::`RTTI Base Class Descriptor at (120,-1,0,64)'
PUBLIC	??_R0?AVISameObjectNoDetection@Engine@@@8	; Engine::ISameObjectNoDetection `RTTI Type Descriptor'
PUBLIC	??_R3ISameObjectNoDetection@Engine@@8		; Engine::ISameObjectNoDetection::`RTTI Class Hierarchy Descriptor'
PUBLIC	??_R2ISameObjectNoDetection@Engine@@8		; Engine::ISameObjectNoDetection::`RTTI Base Class Array'
PUBLIC	??_R1A@?0A@EA@ISameObjectNoDetection@Engine@@8	; Engine::ISameObjectNoDetection::`RTTI Base Class Descriptor at (0,-1,0,64)'
PUBLIC	??_R1IA@?0A@EA@IOnCollisionEnter@Engine@@8	; Engine::IOnCollisionEnter::`RTTI Base Class Descriptor at (128,-1,0,64)'
PUBLIC	??_R0?AVIOnCollisionEnter@Engine@@@8		; Engine::IOnCollisionEnter `RTTI Type Descriptor'
PUBLIC	??_R3IOnCollisionEnter@Engine@@8		; Engine::IOnCollisionEnter::`RTTI Class Hierarchy Descriptor'
PUBLIC	??_R2IOnCollisionEnter@Engine@@8		; Engine::IOnCollisionEnter::`RTTI Base Class Array'
PUBLIC	??_R1A@?0A@EA@IOnCollisionEnter@Engine@@8	; Engine::IOnCollisionEnter::`RTTI Base Class Descriptor at (0,-1,0,64)'
PUBLIC	??_R1II@?0A@EA@IOnCollisionStay@Engine@@8	; Engine::IOnCollisionStay::`RTTI Base Class Descriptor at (136,-1,0,64)'
PUBLIC	??_R0?AVIOnCollisionStay@Engine@@@8		; Engine::IOnCollisionStay `RTTI Type Descriptor'
PUBLIC	??_R3IOnCollisionStay@Engine@@8			; Engine::IOnCollisionStay::`RTTI Class Hierarchy Descriptor'
PUBLIC	??_R2IOnCollisionStay@Engine@@8			; Engine::IOnCollisionStay::`RTTI Base Class Array'
PUBLIC	??_R1A@?0A@EA@IOnCollisionStay@Engine@@8	; Engine::IOnCollisionStay::`RTTI Base Class Descriptor at (0,-1,0,64)'
PUBLIC	??_R1JA@?0A@EA@IOnCollisionExit@Engine@@8	; Engine::IOnCollisionExit::`RTTI Base Class Descriptor at (144,-1,0,64)'
PUBLIC	??_R0?AVIOnCollisionExit@Engine@@@8		; Engine::IOnCollisionExit `RTTI Type Descriptor'
PUBLIC	??_R3IOnCollisionExit@Engine@@8			; Engine::IOnCollisionExit::`RTTI Class Hierarchy Descriptor'
PUBLIC	??_R2IOnCollisionExit@Engine@@8			; Engine::IOnCollisionExit::`RTTI Base Class Array'
PUBLIC	??_R1A@?0A@EA@IOnCollisionExit@Engine@@8	; Engine::IOnCollisionExit::`RTTI Base Class Descriptor at (0,-1,0,64)'
PUBLIC	??_R4CThorn@Client@@6BISameObjectNoDetection@Engine@@@ ; Client::CThorn::`RTTI Complete Object Locator'
PUBLIC	??_R4CThorn@Client@@6BIOnCollisionEnter@Engine@@@ ; Client::CThorn::`RTTI Complete Object Locator'
PUBLIC	??_R4CThorn@Client@@6BIOnCollisionStay@Engine@@@ ; Client::CThorn::`RTTI Complete Object Locator'
PUBLIC	??_R4CThorn@Client@@6BIOnCollisionExit@Engine@@@ ; Client::CThorn::`RTTI Complete Object Locator'
PUBLIC	__real@3c23d70a
PUBLIC	__real@3c8efa35
PUBLIC	__real@3dcccccd
PUBLIC	__real@3e4ccccd
PUBLIC	__real@3e800000
PUBLIC	__real@3e99999a
PUBLIC	__real@3f000000
PUBLIC	__real@3f333333
PUBLIC	__real@3f4ccccd
PUBLIC	__real@3f800000
PUBLIC	__real@3fd3333340000000
PUBLIC	__real@40000000
PUBLIC	__real@4000000000000000
PUBLIC	__real@4014000000000000
PUBLIC	__real@40400000
PUBLIC	__real@40600000
PUBLIC	__real@40800000
PUBLIC	__real@41200000
PUBLIC	__real@41c80000
PUBLIC	__real@41f00000
PUBLIC	__real@42480000
PUBLIC	__real@42b40000
PUBLIC	__real@44610000
EXTRN	??3@YAXPEAX_K@Z:PROC				; operator delete
EXTRN	memset:PROC
EXTRN	__imp_MessageBoxW:PROC
EXTRN	__imp__wassert:PROC
EXTRN	__imp_powf:PROC
EXTRN	??2@YAPEAX_KHPEBDH@Z:PROC			; operator new
EXTRN	??3@YAXPEAXHPEBDH@Z:PROC			; operator delete
EXTRN	__imp_?Release@CBase@Engine@@QEAAKXZ:PROC
EXTRN	__imp_??0CGameObject@Engine@@IEAA@PEAUID3D11Device@@PEAUID3D11DeviceContext@@@Z:PROC
EXTRN	__imp_??0CGameObject@Engine@@IEAA@AEBV01@@Z:PROC
EXTRN	__imp_??1CGameObject@Engine@@MEAA@XZ:PROC
EXTRN	__imp_?Initialize_Prototype@CGameObject@Engine@@UEAAJXZ:PROC
EXTRN	__imp_?Initialize@CGameObject@Engine@@UEAAJPEAX@Z:PROC
EXTRN	__imp_?Tick@CGameObject@Engine@@UEAAXN@Z:PROC
EXTRN	__imp_?LateTick@CGameObject@Engine@@UEAAXN@Z:PROC
EXTRN	__imp_?Render@CGameObject@Engine@@UEAAJXZ:PROC
EXTRN	__imp_?Add_Component@CGameObject@Engine@@IEAAJIPEB_W0PEAPEAVCComponent@2@PEAX@Z:PROC
EXTRN	__imp_?Free@CGameObject@Engine@@UEAAXXZ:PROC
EXTRN	__imp_?Compare@CCollider@Engine@@QEAA_NPEAV12@@Z:PROC
EXTRN	__imp_?GetOwner@CCollider@Engine@@QEBAPEAVCGameObject@2@XZ:PROC
EXTRN	__imp_??0IOnCollisionEnter@Engine@@QEAA@XZ:PROC
EXTRN	__imp_??0IOnCollisionEnter@Engine@@QEAA@AEBV01@@Z:PROC
EXTRN	__imp_??0IOnCollisionStay@Engine@@QEAA@XZ:PROC
EXTRN	__imp_??0IOnCollisionStay@Engine@@QEAA@AEBV01@@Z:PROC
EXTRN	__imp_??0IOnCollisionExit@Engine@@QEAA@XZ:PROC
EXTRN	__imp_??0IOnCollisionExit@Engine@@QEAA@AEBV01@@Z:PROC
EXTRN	__imp_??0ISameObjectNoDetection@Engine@@QEAA@XZ:PROC
EXTRN	__imp_??0ISameObjectNoDetection@Engine@@QEAA@AEBV01@@Z:PROC
EXTRN	??_ECThorn@Client@@EEAAPEAXI@Z:PROC		; Client::CThorn::`vector deleting destructor'
EXTRN	__imp_?Setup_ShaderMaterialResource@CModel@Engine@@QEAAJPEAVCShader@2@PEBDIW4aiTextureType@@@Z:PROC
EXTRN	__imp_?Render@CModel@Engine@@QEAAJI@Z:PROC
EXTRN	__imp_?Get_MeshCount@CModel@Engine@@QEAAIXZ:PROC
EXTRN	__imp_?Update@CSphereCollider@Engine@@UEAAXUXMMATRIX@DirectX@@@Z:PROC
EXTRN	__imp_?Render@CVIBuffer@Engine@@UEAAJXZ:PROC
EXTRN	__imp_?Get_State@CTransform@Engine@@QEAA?AT__m128@@W4STATE@12@@Z:PROC
EXTRN	__imp_?Get_WorldMatrix@CTransform@Engine@@QEAA?AUXMFLOAT4X4@DirectX@@XZ:PROC
EXTRN	__imp_?Set_Scale@CTransform@Engine@@QEAAXUXMFLOAT3@DirectX@@@Z:PROC
EXTRN	__imp_?Set_State@CTransform@Engine@@QEAAXW4STATE@12@T__m128@@@Z:PROC
EXTRN	__imp_?SetRotationXYZ@CTransform@Engine@@QEAAXUXMFLOAT3@DirectX@@@Z:PROC
EXTRN	__imp_?SetRotation@CTransform@Engine@@QEAAXT__m128@@M@Z:PROC
EXTRN	__imp_?Rotate@CTransform@Engine@@QEAAXT__m128@@N@Z:PROC
EXTRN	__imp_?Setup_ShaderResource@CTransform@Engine@@QEAAJPEAVCShader@2@PEBD@Z:PROC
EXTRN	__imp_?Add_RenderGroup@CRenderer@Engine@@QEAAJW4RENDER_GROUP@12@PEAVCGameObject@2@@Z:PROC
EXTRN	__imp_?Setup_ShaderResource@CTexture@Engine@@QEAAJPEAVCShader@2@PEBDI@Z:PROC
EXTRN	__imp_?Begin@CShader@Engine@@QEAAJI@Z:PROC
EXTRN	__imp_?SetMatrix@CShader@Engine@@QEAAJPEBDPEBUXMFLOAT4X4@DirectX@@@Z:PROC
EXTRN	__imp_?SetRawValue@CShader@Engine@@QEAAJPEBDPEBXI@Z:PROC
EXTRN	__imp_?GetInstance@CPipeLine@Engine@@SAPEAV12@XZ:PROC
EXTRN	__imp_?Get_CamPosition@CPipeLine@Engine@@QEAA?AUXMFLOAT4@DirectX@@XZ:PROC
EXTRN	__imp_?GetInstance@CGameInstance@Engine@@SAPEAV12@XZ:PROC
EXTRN	__imp_?Get_Transform_float4x4@CGameInstance@Engine@@QEAA?AUXMFLOAT4X4@DirectX@@W4TRANSFORM_STATE@CPipeLine@2@@Z:PROC
EXTRN	__imp_?Get_CamPosition@CGameInstance@Engine@@QEAA?AUXMFLOAT4@DirectX@@XZ:PROC
EXTRN	__imp_?GetLightDesc@CGameInstance@Engine@@QEAAPEBUtagLight_Desc@2@I@Z:PROC
EXTRN	__imp_?AddCollider@CGameInstance@Engine@@QEAAJPEAVCCollider@2@I@Z:PROC
EXTRN	?GetInstance@CApplicationManager@Client@@SAPEAV12@XZ:PROC ; Client::CApplicationManager::GetInstance
EXTRN	?Hit@CCharacter@Client@@QEAAXXZ:PROC		; Client::CCharacter::Hit
EXTRN	?RecvDamage@CCharacter@Client@@QEAAXM@Z:PROC	; Client::CCharacter::RecvDamage
EXTRN	_RTC_CheckStackVars:PROC
EXTRN	_RTC_InitBase:PROC
EXTRN	_RTC_Shutdown:PROC
EXTRN	__CxxFrameHandler3:PROC
EXTRN	__GSHandlerCheck:PROC
EXTRN	__GSHandlerCheck_EH:PROC
EXTRN	__RTDynamicCast:PROC
EXTRN	__security_check_cookie:PROC
EXTRN	??_7type_info@@6B@:BYTE				; type_info::`vftable'
EXTRN	__security_cookie:QWORD
EXTRN	_fltused:DWORD
;	COMDAT pdata
pdata	SEGMENT
$pdata$??_H@YAXPEAX_K1P6APEAX0@Z@Z DD imagerel $LN7
	DD	imagerel $LN7+181
	DD	imagerel $unwind$??_H@YAXPEAX_K1P6APEAX0@Z@Z
pdata	ENDS
;	COMDAT pdata
pdata	SEGMENT
$pdata$?__empty_global_delete@@YAXPEAX@Z DD imagerel $LN3
	DD	imagerel $LN3+50
	DD	imagerel $unwind$?__empty_global_delete@@YAXPEAX@Z
pdata	ENDS
;	COMDAT pdata
pdata	SEGMENT
$pdata$?__empty_global_delete@@YAXPEAX_K@Z DD imagerel $LN3
	DD	imagerel $LN3+55
	DD	imagerel $unwind$?__empty_global_delete@@YAXPEAX_K@Z
pdata	ENDS
;	COMDAT pdata
pdata	SEGMENT
$pdata$?XMConvertToRadians@DirectX@@YAMM@Z DD imagerel $LN3
	DD	imagerel $LN3+61
	DD	imagerel $unwind$?XMConvertToRadians@DirectX@@YAMM@Z
pdata	ENDS
;	COMDAT pdata
pdata	SEGMENT
$pdata$??BXMVECTORI32@DirectX@@QEBA?AT__m128@@XZ DD imagerel $LN3
	DD	imagerel $LN3+82
	DD	imagerel $unwind$??BXMVECTORI32@DirectX@@QEBA?AT__m128@@XZ
pdata	ENDS
;	COMDAT pdata
pdata	SEGMENT
$pdata$??BXMVECTORU32@DirectX@@QEBA?AT__m128@@XZ DD imagerel $LN3
	DD	imagerel $LN3+82
	DD	imagerel $unwind$??BXMVECTORU32@DirectX@@QEBA?AT__m128@@XZ
pdata	ENDS
;	COMDAT pdata
pdata	SEGMENT
$pdata$??GDirectX@@YQ?AT__m128@@T1@@Z DD imagerel $LN3
	DD	imagerel $LN3+79
	DD	imagerel $unwind$??GDirectX@@YQ?AT__m128@@T1@@Z
pdata	ENDS
;	COMDAT pdata
pdata	SEGMENT
$pdata$??HDirectX@@YQ?AT__m128@@T1@0@Z DD imagerel $LN3
	DD	imagerel $LN3+99
	DD	imagerel $unwind$??HDirectX@@YQ?AT__m128@@T1@0@Z
pdata	ENDS
;	COMDAT pdata
pdata	SEGMENT
$pdata$??GDirectX@@YQ?AT__m128@@T1@0@Z DD imagerel $LN3
	DD	imagerel $LN3+99
	DD	imagerel $unwind$??GDirectX@@YQ?AT__m128@@T1@0@Z
pdata	ENDS
;	COMDAT pdata
pdata	SEGMENT
$pdata$??DDirectX@@YQ?AT__m128@@T1@M@Z DD imagerel $LN3
	DD	imagerel $LN3+92
	DD	imagerel $unwind$??DDirectX@@YQ?AT__m128@@T1@M@Z
pdata	ENDS
;	COMDAT pdata
pdata	SEGMENT
$pdata$??0XMMATRIX@DirectX@@QEAA@XZ DD imagerel $LN3
	DD	imagerel $LN3+57
	DD	imagerel $unwind$??0XMMATRIX@DirectX@@QEAA@XZ
pdata	ENDS
;	COMDAT pdata
pdata	SEGMENT
$pdata$??0XMFLOAT3@DirectX@@QEAA@XZ DD imagerel $LN3
	DD	imagerel $LN3+57
	DD	imagerel $unwind$??0XMFLOAT3@DirectX@@QEAA@XZ
pdata	ENDS
;	COMDAT pdata
pdata	SEGMENT
$pdata$??0XMFLOAT3@DirectX@@QEAA@MMM@Z DD imagerel $LN3
	DD	imagerel $LN3+134
	DD	imagerel $unwind$??0XMFLOAT3@DirectX@@QEAA@MMM@Z
pdata	ENDS
;	COMDAT pdata
pdata	SEGMENT
$pdata$??4XMFLOAT3@DirectX@@QEAAAEAU01@AEBU01@@Z DD imagerel $LN3
	DD	imagerel $LN3+132
	DD	imagerel $unwind$??4XMFLOAT3@DirectX@@QEAAAEAU01@AEBU01@@Z
pdata	ENDS
;	COMDAT pdata
pdata	SEGMENT
$pdata$?XMLoadFloat4@DirectX@@YQ?AT__m128@@PEBUXMFLOAT4@1@@Z DD imagerel $LN4
	DD	imagerel $LN4+119
	DD	imagerel $unwind$?XMLoadFloat4@DirectX@@YQ?AT__m128@@PEBUXMFLOAT4@1@@Z
pdata	ENDS
;	COMDAT pdata
pdata	SEGMENT
$pdata$?XMLoadFloat4x4@DirectX@@YQ?AUXMMATRIX@1@PEBUXMFLOAT4X4@1@@Z DD imagerel $LN4
	DD	imagerel $LN4+344
	DD	imagerel $unwind$?XMLoadFloat4x4@DirectX@@YQ?AUXMMATRIX@1@PEBUXMFLOAT4X4@1@@Z
pdata	ENDS
;	COMDAT pdata
pdata	SEGMENT
$pdata$?XMVectorSet@DirectX@@YQ?AT__m128@@MMMM@Z DD imagerel $LN3
	DD	imagerel $LN3+121
	DD	imagerel $unwind$?XMVectorSet@DirectX@@YQ?AT__m128@@MMMM@Z
pdata	ENDS
;	COMDAT pdata
pdata	SEGMENT
$pdata$?XMVectorGetX@DirectX@@YQMT__m128@@@Z DD imagerel $LN3
	DD	imagerel $LN3+76
	DD	imagerel $unwind$?XMVectorGetX@DirectX@@YQMT__m128@@@Z
pdata	ENDS
;	COMDAT pdata
pdata	SEGMENT
$pdata$?XMVectorGetY@DirectX@@YQMT__m128@@@Z DD imagerel $LN3
	DD	imagerel $LN3+103
	DD	imagerel $unwind$?XMVectorGetY@DirectX@@YQMT__m128@@@Z
pdata	ENDS
;	COMDAT pdata
pdata	SEGMENT
$pdata$?XMVectorSetY@DirectX@@YQ?AT__m128@@T2@M@Z DD imagerel $LN3
	DD	imagerel $LN3+185
	DD	imagerel $unwind$?XMVectorSetY@DirectX@@YQ?AT__m128@@T2@M@Z
pdata	ENDS
;	COMDAT pdata
pdata	SEGMENT
$pdata$?XMVectorNegate@DirectX@@YQ?AT__m128@@T2@@Z DD imagerel $LN3
	DD	imagerel $LN3+99
	DD	imagerel $unwind$?XMVectorNegate@DirectX@@YQ?AT__m128@@T2@@Z
pdata	ENDS
;	COMDAT pdata
pdata	SEGMENT
$pdata$?XMVectorAdd@DirectX@@YQ?AT__m128@@T2@0@Z DD imagerel $LN3
	DD	imagerel $LN3+94
	DD	imagerel $unwind$?XMVectorAdd@DirectX@@YQ?AT__m128@@T2@0@Z
pdata	ENDS
;	COMDAT pdata
pdata	SEGMENT
$pdata$?XMVectorSubtract@DirectX@@YQ?AT__m128@@T2@0@Z DD imagerel $LN3
	DD	imagerel $LN3+94
	DD	imagerel $unwind$?XMVectorSubtract@DirectX@@YQ?AT__m128@@T2@0@Z
pdata	ENDS
;	COMDAT pdata
pdata	SEGMENT
$pdata$?XMVectorScale@DirectX@@YQ?AT__m128@@T2@M@Z DD imagerel $LN3
	DD	imagerel $LN3+113
	DD	imagerel $unwind$?XMVectorScale@DirectX@@YQ?AT__m128@@T2@M@Z
pdata	ENDS
;	COMDAT pdata
pdata	SEGMENT
$pdata$?XMVector3Cross@DirectX@@YQ?AT__m128@@T2@0@Z DD imagerel $LN3
	DD	imagerel $LN3+328
	DD	imagerel $unwind$?XMVector3Cross@DirectX@@YQ?AT__m128@@T2@0@Z
pdata	ENDS
;	COMDAT pdata
pdata	SEGMENT
$pdata$?XMVector3Length@DirectX@@YQ?AT__m128@@T2@@Z DD imagerel $LN3
	DD	imagerel $LN3+243
	DD	imagerel $unwind$?XMVector3Length@DirectX@@YQ?AT__m128@@T2@@Z
pdata	ENDS
;	COMDAT pdata
pdata	SEGMENT
$pdata$?XMVector3Normalize@DirectX@@YQ?AT__m128@@T2@@Z DD imagerel $LN3
	DD	imagerel $LN3+535
	DD	imagerel $unwind$?XMVector3Normalize@DirectX@@YQ?AT__m128@@T2@@Z
pdata	ENDS
;	COMDAT pdata
pdata	SEGMENT
$pdata$??0tagColliderDesc@CCollider@Engine@@QEAA@XZ DD imagerel $LN3
	DD	imagerel $LN3+116
	DD	imagerel $unwind$??0tagColliderDesc@CCollider@Engine@@QEAA@XZ
pdata	ENDS
;	COMDAT pdata
pdata	SEGMENT
$pdata$??0CThorn@Client@@AEAA@PEAUID3D11Device@@PEAUID3D11DeviceContext@@@Z DD imagerel $LN4
	DD	imagerel $LN4+1031
	DD	imagerel $unwind$??0CThorn@Client@@AEAA@PEAUID3D11Device@@PEAUID3D11DeviceContext@@@Z
pdata	ENDS
;	COMDAT pdata
pdata	SEGMENT
$pdata$?dtor$0@?0???0CThorn@Client@@AEAA@PEAUID3D11Device@@PEAUID3D11DeviceContext@@@Z@4HA DD imagerel ?dtor$0@?0???0CThorn@Client@@AEAA@PEAUID3D11Device@@PEAUID3D11DeviceContext@@@Z@4HA
	DD	imagerel ?dtor$0@?0???0CThorn@Client@@AEAA@PEAUID3D11Device@@PEAUID3D11DeviceContext@@@Z@4HA+40
	DD	imagerel $unwind$?dtor$0@?0???0CThorn@Client@@AEAA@PEAUID3D11Device@@PEAUID3D11DeviceContext@@@Z@4HA
pdata	ENDS
;	COMDAT pdata
pdata	SEGMENT
$pdata$??1CThorn@Client@@EEAA@XZ DD imagerel $LN3
	DD	imagerel $LN3+65
	DD	imagerel $unwind$??1CThorn@Client@@EEAA@XZ
pdata	ENDS
;	COMDAT pdata
pdata	SEGMENT
$pdata$?Initialize_Prototype@CThorn@Client@@UEAAJXZ DD imagerel $LN4
	DD	imagerel $LN4+78
	DD	imagerel $unwind$?Initialize_Prototype@CThorn@Client@@UEAAJXZ
pdata	ENDS
;	COMDAT pdata
pdata	SEGMENT
$pdata$?Initialize@CThorn@Client@@UEAAJPEAX@Z DD imagerel $LN5
	DD	imagerel $LN5+520
	DD	imagerel $unwind$?Initialize@CThorn@Client@@UEAAJPEAX@Z
pdata	ENDS
;	COMDAT pdata
pdata	SEGMENT
$pdata$?Tick@CThorn@Client@@UEAAXN@Z DD imagerel $LN12
	DD	imagerel $LN12+667
	DD	imagerel $unwind$?Tick@CThorn@Client@@UEAAXN@Z
pdata	ENDS
;	COMDAT pdata
pdata	SEGMENT
$pdata$?LateTick@CThorn@Client@@UEAAXN@Z DD imagerel $LN11
	DD	imagerel $LN11+566
	DD	imagerel $unwind$?LateTick@CThorn@Client@@UEAAXN@Z
pdata	ENDS
;	COMDAT pdata
pdata	SEGMENT
$pdata$?Render@CThorn@Client@@UEAAJXZ DD imagerel $LN26
	DD	imagerel $LN26+1355
	DD	imagerel $unwind$?Render@CThorn@Client@@UEAAJXZ
pdata	ENDS
;	COMDAT pdata
pdata	SEGMENT
$pdata$?RenderGUI@CThorn@Client@@UEAAXXZ DD imagerel $LN3
	DD	imagerel $LN3+50
	DD	imagerel $unwind$?RenderGUI@CThorn@Client@@UEAAXXZ
pdata	ENDS
;	COMDAT pdata
pdata	SEGMENT
$pdata$?GetLengthFromCamera@CThorn@Client@@UEAAMXZ DD imagerel $LN3
	DD	imagerel $LN3+262
	DD	imagerel $unwind$?GetLengthFromCamera@CThorn@Client@@UEAAMXZ
pdata	ENDS
;	COMDAT pdata
pdata	SEGMENT
$pdata$?Reset@CThorn@Client@@QEAAXXZ DD imagerel $LN3
	DD	imagerel $LN3+464
	DD	imagerel $unwind$?Reset@CThorn@Client@@QEAAXXZ
pdata	ENDS
;	COMDAT pdata
pdata	SEGMENT
$pdata$?SetPosition@CThorn@Client@@QEAAXT__m128@@@Z DD imagerel $LN4
	DD	imagerel $LN4+329
	DD	imagerel $unwind$?SetPosition@CThorn@Client@@QEAAXT__m128@@@Z
pdata	ENDS
;	COMDAT pdata
pdata	SEGMENT
$pdata$?SetRotationXYZ@CThorn@Client@@QEAAXUXMFLOAT3@DirectX@@@Z DD imagerel $LN4
	DD	imagerel $LN4+127
	DD	imagerel $unwind$?SetRotationXYZ@CThorn@Client@@QEAAXUXMFLOAT3@DirectX@@@Z
pdata	ENDS
;	COMDAT pdata
pdata	SEGMENT
$pdata$?SetRotationToTarget@CThorn@Client@@QEAAXT__m128@@@Z DD imagerel $LN3
	DD	imagerel $LN3+641
	DD	imagerel $unwind$?SetRotationToTarget@CThorn@Client@@QEAAXT__m128@@@Z
pdata	ENDS
;	COMDAT pdata
pdata	SEGMENT
$pdata$?SetupScaleUpStart@CThorn@Client@@QEAAXM@Z DD imagerel $LN3
	DD	imagerel $LN3+107
	DD	imagerel $unwind$?SetupScaleUpStart@CThorn@Client@@QEAAXM@Z
pdata	ENDS
;	COMDAT pdata
pdata	SEGMENT
$pdata$?SetupScaleUpDownStart@CThorn@Client@@QEAAXM@Z DD imagerel $LN3
	DD	imagerel $LN3+107
	DD	imagerel $unwind$?SetupScaleUpDownStart@CThorn@Client@@QEAAXM@Z
pdata	ENDS
;	COMDAT pdata
pdata	SEGMENT
$pdata$?SetupScaleSmoothUpStart@CThorn@Client@@QEAAXM@Z DD imagerel $LN3
	DD	imagerel $LN3+107
	DD	imagerel $unwind$?SetupScaleSmoothUpStart@CThorn@Client@@QEAAXM@Z
pdata	ENDS
;	COMDAT pdata
pdata	SEGMENT
$pdata$?SetupScaleSmoothDownStart@CThorn@Client@@QEAAXXZ DD imagerel $LN3
	DD	imagerel $LN3+64
	DD	imagerel $unwind$?SetupScaleSmoothDownStart@CThorn@Client@@QEAAXXZ
pdata	ENDS
;	COMDAT pdata
pdata	SEGMENT
$pdata$?ScaleUpProcess@CThorn@Client@@QEAA_NN@Z DD imagerel $LN8
	DD	imagerel $LN8+795
	DD	imagerel $unwind$?ScaleUpProcess@CThorn@Client@@QEAA_NN@Z
pdata	ENDS
;	COMDAT pdata
pdata	SEGMENT
$pdata$?ScaleUpSmoothProcess@CThorn@Client@@QEAA_NN@Z DD imagerel $LN8
	DD	imagerel $LN8+795
	DD	imagerel $unwind$?ScaleUpSmoothProcess@CThorn@Client@@QEAA_NN@Z
pdata	ENDS
;	COMDAT pdata
pdata	SEGMENT
$pdata$?ScaleDownSmoothProcess@CThorn@Client@@QEAA_NN@Z DD imagerel $LN6
	DD	imagerel $LN6+731
	DD	imagerel $unwind$?ScaleDownSmoothProcess@CThorn@Client@@QEAA_NN@Z
pdata	ENDS
;	COMDAT pdata
pdata	SEGMENT
$pdata$?MoveProcess@CThorn@Client@@QEAA_NN@Z DD imagerel $LN5
	DD	imagerel $LN5+1074
	DD	imagerel $unwind$?MoveProcess@CThorn@Client@@QEAA_NN@Z
pdata	ENDS
;	COMDAT pdata
pdata	SEGMENT
$pdata$?IsScaleFinish@CThorn@Client@@QEAA_NXZ DD imagerel $LN3
	DD	imagerel $LN3+64
	DD	imagerel $unwind$?IsScaleFinish@CThorn@Client@@QEAA_NXZ
pdata	ENDS
;	COMDAT pdata
pdata	SEGMENT
$pdata$?AddComponents@CThorn@Client@@AEAAJXZ DD imagerel $LN20
	DD	imagerel $LN20+1467
	DD	imagerel $unwind$?AddComponents@CThorn@Client@@AEAAJXZ
pdata	ENDS
;	COMDAT pdata
pdata	SEGMENT
$pdata$?SetupShaderResources@CThorn@Client@@AEAAJXZ DD imagerel $LN12
	DD	imagerel $LN12+545
	DD	imagerel $unwind$?SetupShaderResources@CThorn@Client@@AEAAJXZ
pdata	ENDS
;	COMDAT pdata
pdata	SEGMENT
$pdata$?SameObjectNoDetection@CThorn@Client@@EEAAXXZ DD imagerel $LN3
	DD	imagerel $LN3+50
	DD	imagerel $unwind$?SameObjectNoDetection@CThorn@Client@@EEAAXXZ
pdata	ENDS
;	COMDAT pdata
pdata	SEGMENT
$pdata$?OnCollisionEnter@CThorn@Client@@EEAAXPEAVCCollider@Engine@@0@Z DD imagerel $LN9
	DD	imagerel $LN9+236
	DD	imagerel $unwind$?OnCollisionEnter@CThorn@Client@@EEAAXPEAVCCollider@Engine@@0@Z
pdata	ENDS
;	COMDAT pdata
pdata	SEGMENT
$pdata$?OnCollisionStay@CThorn@Client@@EEAAXPEAVCCollider@Engine@@0@Z DD imagerel $LN3
	DD	imagerel $LN3+60
	DD	imagerel $unwind$?OnCollisionStay@CThorn@Client@@EEAAXPEAVCCollider@Engine@@0@Z
pdata	ENDS
;	COMDAT pdata
pdata	SEGMENT
$pdata$?OnCollisionExit@CThorn@Client@@EEAAXPEAVCCollider@Engine@@0@Z DD imagerel $LN3
	DD	imagerel $LN3+60
	DD	imagerel $unwind$?OnCollisionExit@CThorn@Client@@EEAAXPEAVCCollider@Engine@@0@Z
pdata	ENDS
;	COMDAT pdata
pdata	SEGMENT
$pdata$?Create@CThorn@Client@@SAPEAV12@PEAUID3D11Device@@PEAUID3D11DeviceContext@@@Z DD imagerel $LN7
	DD	imagerel $LN7+294
	DD	imagerel $unwind$?Create@CThorn@Client@@SAPEAV12@PEAUID3D11Device@@PEAUID3D11DeviceContext@@@Z
pdata	ENDS
;	COMDAT pdata
pdata	SEGMENT
$pdata$?dtor$0@?0??Create@CThorn@Client@@SAPEAV12@PEAUID3D11Device@@PEAUID3D11DeviceContext@@@Z@4HA DD imagerel ?dtor$0@?0??Create@CThorn@Client@@SAPEAV12@PEAUID3D11Device@@PEAUID3D11DeviceContext@@@Z@4HA
	DD	imagerel ?dtor$0@?0??Create@CThorn@Client@@SAPEAV12@PEAUID3D11Device@@PEAUID3D11DeviceContext@@@Z@4HA+61
	DD	imagerel $unwind$?dtor$0@?0??Create@CThorn@Client@@SAPEAV12@PEAUID3D11Device@@PEAUID3D11DeviceContext@@@Z@4HA
pdata	ENDS
;	COMDAT pdata
pdata	SEGMENT
$pdata$?Clone@CThorn@Client@@UEAAPEAVCGameObject@Engine@@PEAX@Z DD imagerel $LN7
	DD	imagerel $LN7+294
	DD	imagerel $unwind$?Clone@CThorn@Client@@UEAAPEAVCGameObject@Engine@@PEAX@Z
pdata	ENDS
;	COMDAT pdata
pdata	SEGMENT
$pdata$?dtor$0@?0??Clone@CThorn@Client@@UEAAPEAVCGameObject@Engine@@PEAX@Z@4HA DD imagerel ?dtor$0@?0??Clone@CThorn@Client@@UEAAPEAVCGameObject@Engine@@PEAX@Z@4HA
	DD	imagerel ?dtor$0@?0??Clone@CThorn@Client@@UEAAPEAVCGameObject@Engine@@PEAX@Z@4HA+61
	DD	imagerel $unwind$?dtor$0@?0??Clone@CThorn@Client@@UEAAPEAVCGameObject@Engine@@PEAX@Z@4HA
pdata	ENDS
;	COMDAT pdata
pdata	SEGMENT
$pdata$?Free@CThorn@Client@@UEAAXXZ DD imagerel $LN3
	DD	imagerel $LN3+422
	DD	imagerel $unwind$?Free@CThorn@Client@@UEAAXXZ
pdata	ENDS
;	COMDAT pdata
pdata	SEGMENT
$pdata$??0CThorn@Client@@QEAA@AEBV01@@Z DD imagerel $LN12
	DD	imagerel $LN12+1607
	DD	imagerel $unwind$??0CThorn@Client@@QEAA@AEBV01@@Z
pdata	ENDS
;	COMDAT pdata
pdata	SEGMENT
$pdata$??_GCThorn@Client@@EEAAPEAXI@Z DD imagerel $LN4
	DD	imagerel $LN4+105
	DD	imagerel $unwind$??_GCThorn@Client@@EEAAPEAXI@Z
pdata	ENDS
;	COMDAT pdata
pdata	SEGMENT
$pdata$?IsFreeze@CApplicationManager@Client@@QEBA_NXZ DD imagerel $LN3
	DD	imagerel $LN3+61
	DD	imagerel $unwind$?IsFreeze@CApplicationManager@Client@@QEBA_NXZ
pdata	ENDS
;	COMDAT pdata
pdata	SEGMENT
$pdata$?GetBodyCollider@CCharacter@Client@@QEBAPEAVCCollider@Engine@@XZ DD imagerel $LN3
	DD	imagerel $LN3+64
	DD	imagerel $unwind$?GetBodyCollider@CCharacter@Client@@QEBAPEAVCCollider@Engine@@XZ
pdata	ENDS
;	COMDAT pdata
pdata	SEGMENT
$pdata$??$Safe_Release@PEAVCThorn@Client@@@Engine@@YAKAEAPEAVCThorn@Client@@@Z DD imagerel $LN5
	DD	imagerel $LN5+114
	DD	imagerel $unwind$??$Safe_Release@PEAVCThorn@Client@@@Engine@@YAKAEAPEAVCThorn@Client@@@Z
pdata	ENDS
;	COMDAT pdata
pdata	SEGMENT
$pdata$??$Safe_Release@PEAVCSphereCollider@Engine@@@Engine@@YAKAEAPEAVCSphereCollider@0@@Z DD imagerel $LN5
	DD	imagerel $LN5+114
	DD	imagerel $unwind$??$Safe_Release@PEAVCSphereCollider@Engine@@@Engine@@YAKAEAPEAVCSphereCollider@0@@Z
pdata	ENDS
;	COMDAT pdata
pdata	SEGMENT
$pdata$??$Safe_Release@PEAVCRenderer@Engine@@@Engine@@YAKAEAPEAVCRenderer@0@@Z DD imagerel $LN5
	DD	imagerel $LN5+114
	DD	imagerel $unwind$??$Safe_Release@PEAVCRenderer@Engine@@@Engine@@YAKAEAPEAVCRenderer@0@@Z
pdata	ENDS
;	COMDAT pdata
pdata	SEGMENT
$pdata$??$Safe_Release@PEAVCTransform@Engine@@@Engine@@YAKAEAPEAVCTransform@0@@Z DD imagerel $LN5
	DD	imagerel $LN5+114
	DD	imagerel $unwind$??$Safe_Release@PEAVCTransform@Engine@@@Engine@@YAKAEAPEAVCTransform@0@@Z
pdata	ENDS
;	COMDAT pdata
pdata	SEGMENT
$pdata$??$Safe_Release@PEAVCModel@Engine@@@Engine@@YAKAEAPEAVCModel@0@@Z DD imagerel $LN5
	DD	imagerel $LN5+114
	DD	imagerel $unwind$??$Safe_Release@PEAVCModel@Engine@@@Engine@@YAKAEAPEAVCModel@0@@Z
pdata	ENDS
;	COMDAT pdata
pdata	SEGMENT
$pdata$??$Safe_Release@PEAVCShader@Engine@@@Engine@@YAKAEAPEAVCShader@0@@Z DD imagerel $LN5
	DD	imagerel $LN5+114
	DD	imagerel $unwind$??$Safe_Release@PEAVCShader@Engine@@@Engine@@YAKAEAPEAVCShader@0@@Z
pdata	ENDS
;	COMDAT pdata
pdata	SEGMENT
$pdata$??$Safe_Release@PEAVCVIBuffer_Rect@Engine@@@Engine@@YAKAEAPEAVCVIBuffer_Rect@0@@Z DD imagerel $LN5
	DD	imagerel $LN5+114
	DD	imagerel $unwind$??$Safe_Release@PEAVCVIBuffer_Rect@Engine@@@Engine@@YAKAEAPEAVCVIBuffer_Rect@0@@Z
pdata	ENDS
;	COMDAT pdata
pdata	SEGMENT
$pdata$??$Safe_Release@PEAVCTexture@Engine@@@Engine@@YAKAEAPEAVCTexture@0@@Z DD imagerel $LN5
	DD	imagerel $LN5+114
	DD	imagerel $unwind$??$Safe_Release@PEAVCTexture@Engine@@@Engine@@YAKAEAPEAVCTexture@0@@Z
pdata	ENDS
;	COMDAT __real@44610000
CONST	SEGMENT
__real@44610000 DD 044610000r			; 900
CONST	ENDS
;	COMDAT __real@42b40000
CONST	SEGMENT
__real@42b40000 DD 042b40000r			; 90
CONST	ENDS
;	COMDAT __real@42480000
CONST	SEGMENT
__real@42480000 DD 042480000r			; 50
CONST	ENDS
;	COMDAT __real@41f00000
CONST	SEGMENT
__real@41f00000 DD 041f00000r			; 30
CONST	ENDS
;	COMDAT __real@41c80000
CONST	SEGMENT
__real@41c80000 DD 041c80000r			; 25
CONST	ENDS
;	COMDAT __real@41200000
CONST	SEGMENT
__real@41200000 DD 041200000r			; 10
CONST	ENDS
;	COMDAT __real@40800000
CONST	SEGMENT
__real@40800000 DD 040800000r			; 4
CONST	ENDS
;	COMDAT __real@40600000
CONST	SEGMENT
__real@40600000 DD 040600000r			; 3.5
CONST	ENDS
;	COMDAT __real@40400000
CONST	SEGMENT
__real@40400000 DD 040400000r			; 3
CONST	ENDS
;	COMDAT __real@4014000000000000
CONST	SEGMENT
__real@4014000000000000 DQ 04014000000000000r	; 5
CONST	ENDS
;	COMDAT __real@4000000000000000
CONST	SEGMENT
__real@4000000000000000 DQ 04000000000000000r	; 2
CONST	ENDS
;	COMDAT __real@40000000
CONST	SEGMENT
__real@40000000 DD 040000000r			; 2
CONST	ENDS
;	COMDAT __real@3fd3333340000000
CONST	SEGMENT
__real@3fd3333340000000 DQ 03fd3333340000000r	; 0.3
CONST	ENDS
;	COMDAT __real@3f800000
CONST	SEGMENT
__real@3f800000 DD 03f800000r			; 1
CONST	ENDS
;	COMDAT __real@3f4ccccd
CONST	SEGMENT
__real@3f4ccccd DD 03f4ccccdr			; 0.8
CONST	ENDS
;	COMDAT __real@3f333333
CONST	SEGMENT
__real@3f333333 DD 03f333333r			; 0.7
CONST	ENDS
;	COMDAT __real@3f000000
CONST	SEGMENT
__real@3f000000 DD 03f000000r			; 0.5
CONST	ENDS
;	COMDAT __real@3e99999a
CONST	SEGMENT
__real@3e99999a DD 03e99999ar			; 0.3
CONST	ENDS
;	COMDAT __real@3e800000
CONST	SEGMENT
__real@3e800000 DD 03e800000r			; 0.25
CONST	ENDS
;	COMDAT __real@3e4ccccd
CONST	SEGMENT
__real@3e4ccccd DD 03e4ccccdr			; 0.2
CONST	ENDS
;	COMDAT __real@3dcccccd
CONST	SEGMENT
__real@3dcccccd DD 03dcccccdr			; 0.1
CONST	ENDS
;	COMDAT __real@3c8efa35
CONST	SEGMENT
__real@3c8efa35 DD 03c8efa35r			; 0.0174533
CONST	ENDS
;	COMDAT __real@3c23d70a
CONST	SEGMENT
__real@3c23d70a DD 03c23d70ar			; 0.01
CONST	ENDS
;	COMDAT rtc$TMZ
rtc$TMZ	SEGMENT
_RTC_Shutdown.rtc$TMZ DQ FLAT:_RTC_Shutdown
rtc$TMZ	ENDS
;	COMDAT rtc$IMZ
rtc$IMZ	SEGMENT
_RTC_InitBase.rtc$IMZ DQ FLAT:_RTC_InitBase
rtc$IMZ	ENDS
;	COMDAT ??_R4CThorn@Client@@6BIOnCollisionExit@Engine@@@
rdata$r	SEGMENT
??_R4CThorn@Client@@6BIOnCollisionExit@Engine@@@ DD 01H	; Client::CThorn::`RTTI Complete Object Locator'
	DD	090H
	DD	00H
	DD	imagerel ??_R0?AVCThorn@Client@@@8
	DD	imagerel ??_R3CThorn@Client@@8
	DD	imagerel ??_R4CThorn@Client@@6BIOnCollisionExit@Engine@@@
rdata$r	ENDS
;	COMDAT ??_R4CThorn@Client@@6BIOnCollisionStay@Engine@@@
rdata$r	SEGMENT
??_R4CThorn@Client@@6BIOnCollisionStay@Engine@@@ DD 01H	; Client::CThorn::`RTTI Complete Object Locator'
	DD	088H
	DD	00H
	DD	imagerel ??_R0?AVCThorn@Client@@@8
	DD	imagerel ??_R3CThorn@Client@@8
	DD	imagerel ??_R4CThorn@Client@@6BIOnCollisionStay@Engine@@@
rdata$r	ENDS
;	COMDAT ??_R4CThorn@Client@@6BIOnCollisionEnter@Engine@@@
rdata$r	SEGMENT
??_R4CThorn@Client@@6BIOnCollisionEnter@Engine@@@ DD 01H ; Client::CThorn::`RTTI Complete Object Locator'
	DD	080H
	DD	00H
	DD	imagerel ??_R0?AVCThorn@Client@@@8
	DD	imagerel ??_R3CThorn@Client@@8
	DD	imagerel ??_R4CThorn@Client@@6BIOnCollisionEnter@Engine@@@
rdata$r	ENDS
;	COMDAT ??_R4CThorn@Client@@6BISameObjectNoDetection@Engine@@@
rdata$r	SEGMENT
??_R4CThorn@Client@@6BISameObjectNoDetection@Engine@@@ DD 01H ; Client::CThorn::`RTTI Complete Object Locator'
	DD	078H
	DD	00H
	DD	imagerel ??_R0?AVCThorn@Client@@@8
	DD	imagerel ??_R3CThorn@Client@@8
	DD	imagerel ??_R4CThorn@Client@@6BISameObjectNoDetection@Engine@@@
rdata$r	ENDS
;	COMDAT ??_R1A@?0A@EA@IOnCollisionExit@Engine@@8
rdata$r	SEGMENT
??_R1A@?0A@EA@IOnCollisionExit@Engine@@8 DD imagerel ??_R0?AVIOnCollisionExit@Engine@@@8 ; Engine::IOnCollisionExit::`RTTI Base Class Descriptor at (0,-1,0,64)'
	DD	00H
	DD	00H
	DD	0ffffffffH
	DD	00H
	DD	040H
	DD	imagerel ??_R3IOnCollisionExit@Engine@@8
rdata$r	ENDS
;	COMDAT ??_R2IOnCollisionExit@Engine@@8
rdata$r	SEGMENT
??_R2IOnCollisionExit@Engine@@8 DD imagerel ??_R1A@?0A@EA@IOnCollisionExit@Engine@@8 ; Engine::IOnCollisionExit::`RTTI Base Class Array'
	ORG $+3
rdata$r	ENDS
;	COMDAT ??_R3IOnCollisionExit@Engine@@8
rdata$r	SEGMENT
??_R3IOnCollisionExit@Engine@@8 DD 00H			; Engine::IOnCollisionExit::`RTTI Class Hierarchy Descriptor'
	DD	00H
	DD	01H
	DD	imagerel ??_R2IOnCollisionExit@Engine@@8
rdata$r	ENDS
;	COMDAT ??_R0?AVIOnCollisionExit@Engine@@@8
data$r	SEGMENT
??_R0?AVIOnCollisionExit@Engine@@@8 DQ FLAT:??_7type_info@@6B@ ; Engine::IOnCollisionExit `RTTI Type Descriptor'
	DQ	0000000000000000H
	DB	'.?AVIOnCollisionExit@Engine@@', 00H
data$r	ENDS
;	COMDAT ??_R1JA@?0A@EA@IOnCollisionExit@Engine@@8
rdata$r	SEGMENT
??_R1JA@?0A@EA@IOnCollisionExit@Engine@@8 DD imagerel ??_R0?AVIOnCollisionExit@Engine@@@8 ; Engine::IOnCollisionExit::`RTTI Base Class Descriptor at (144,-1,0,64)'
	DD	00H
	DD	090H
	DD	0ffffffffH
	DD	00H
	DD	040H
	DD	imagerel ??_R3IOnCollisionExit@Engine@@8
rdata$r	ENDS
;	COMDAT ??_R1A@?0A@EA@IOnCollisionStay@Engine@@8
rdata$r	SEGMENT
??_R1A@?0A@EA@IOnCollisionStay@Engine@@8 DD imagerel ??_R0?AVIOnCollisionStay@Engine@@@8 ; Engine::IOnCollisionStay::`RTTI Base Class Descriptor at (0,-1,0,64)'
	DD	00H
	DD	00H
	DD	0ffffffffH
	DD	00H
	DD	040H
	DD	imagerel ??_R3IOnCollisionStay@Engine@@8
rdata$r	ENDS
;	COMDAT ??_R2IOnCollisionStay@Engine@@8
rdata$r	SEGMENT
??_R2IOnCollisionStay@Engine@@8 DD imagerel ??_R1A@?0A@EA@IOnCollisionStay@Engine@@8 ; Engine::IOnCollisionStay::`RTTI Base Class Array'
	ORG $+3
rdata$r	ENDS
;	COMDAT ??_R3IOnCollisionStay@Engine@@8
rdata$r	SEGMENT
??_R3IOnCollisionStay@Engine@@8 DD 00H			; Engine::IOnCollisionStay::`RTTI Class Hierarchy Descriptor'
	DD	00H
	DD	01H
	DD	imagerel ??_R2IOnCollisionStay@Engine@@8
rdata$r	ENDS
;	COMDAT ??_R0?AVIOnCollisionStay@Engine@@@8
data$r	SEGMENT
??_R0?AVIOnCollisionStay@Engine@@@8 DQ FLAT:??_7type_info@@6B@ ; Engine::IOnCollisionStay `RTTI Type Descriptor'
	DQ	0000000000000000H
	DB	'.?AVIOnCollisionStay@Engine@@', 00H
data$r	ENDS
;	COMDAT ??_R1II@?0A@EA@IOnCollisionStay@Engine@@8
rdata$r	SEGMENT
??_R1II@?0A@EA@IOnCollisionStay@Engine@@8 DD imagerel ??_R0?AVIOnCollisionStay@Engine@@@8 ; Engine::IOnCollisionStay::`RTTI Base Class Descriptor at (136,-1,0,64)'
	DD	00H
	DD	088H
	DD	0ffffffffH
	DD	00H
	DD	040H
	DD	imagerel ??_R3IOnCollisionStay@Engine@@8
rdata$r	ENDS
;	COMDAT ??_R1A@?0A@EA@IOnCollisionEnter@Engine@@8
rdata$r	SEGMENT
??_R1A@?0A@EA@IOnCollisionEnter@Engine@@8 DD imagerel ??_R0?AVIOnCollisionEnter@Engine@@@8 ; Engine::IOnCollisionEnter::`RTTI Base Class Descriptor at (0,-1,0,64)'
	DD	00H
	DD	00H
	DD	0ffffffffH
	DD	00H
	DD	040H
	DD	imagerel ??_R3IOnCollisionEnter@Engine@@8
rdata$r	ENDS
;	COMDAT ??_R2IOnCollisionEnter@Engine@@8
rdata$r	SEGMENT
??_R2IOnCollisionEnter@Engine@@8 DD imagerel ??_R1A@?0A@EA@IOnCollisionEnter@Engine@@8 ; Engine::IOnCollisionEnter::`RTTI Base Class Array'
	ORG $+3
rdata$r	ENDS
;	COMDAT ??_R3IOnCollisionEnter@Engine@@8
rdata$r	SEGMENT
??_R3IOnCollisionEnter@Engine@@8 DD 00H			; Engine::IOnCollisionEnter::`RTTI Class Hierarchy Descriptor'
	DD	00H
	DD	01H
	DD	imagerel ??_R2IOnCollisionEnter@Engine@@8
rdata$r	ENDS
;	COMDAT ??_R0?AVIOnCollisionEnter@Engine@@@8
data$r	SEGMENT
??_R0?AVIOnCollisionEnter@Engine@@@8 DQ FLAT:??_7type_info@@6B@ ; Engine::IOnCollisionEnter `RTTI Type Descriptor'
	DQ	0000000000000000H
	DB	'.?AVIOnCollisionEnter@Engine@@', 00H
data$r	ENDS
;	COMDAT ??_R1IA@?0A@EA@IOnCollisionEnter@Engine@@8
rdata$r	SEGMENT
??_R1IA@?0A@EA@IOnCollisionEnter@Engine@@8 DD imagerel ??_R0?AVIOnCollisionEnter@Engine@@@8 ; Engine::IOnCollisionEnter::`RTTI Base Class Descriptor at (128,-1,0,64)'
	DD	00H
	DD	080H
	DD	0ffffffffH
	DD	00H
	DD	040H
	DD	imagerel ??_R3IOnCollisionEnter@Engine@@8
rdata$r	ENDS
;	COMDAT ??_R1A@?0A@EA@ISameObjectNoDetection@Engine@@8
rdata$r	SEGMENT
??_R1A@?0A@EA@ISameObjectNoDetection@Engine@@8 DD imagerel ??_R0?AVISameObjectNoDetection@Engine@@@8 ; Engine::ISameObjectNoDetection::`RTTI Base Class Descriptor at (0,-1,0,64)'
	DD	00H
	DD	00H
	DD	0ffffffffH
	DD	00H
	DD	040H
	DD	imagerel ??_R3ISameObjectNoDetection@Engine@@8
rdata$r	ENDS
;	COMDAT ??_R2ISameObjectNoDetection@Engine@@8
rdata$r	SEGMENT
??_R2ISameObjectNoDetection@Engine@@8 DD imagerel ??_R1A@?0A@EA@ISameObjectNoDetection@Engine@@8 ; Engine::ISameObjectNoDetection::`RTTI Base Class Array'
	ORG $+3
rdata$r	ENDS
;	COMDAT ??_R3ISameObjectNoDetection@Engine@@8
rdata$r	SEGMENT
??_R3ISameObjectNoDetection@Engine@@8 DD 00H		; Engine::ISameObjectNoDetection::`RTTI Class Hierarchy Descriptor'
	DD	00H
	DD	01H
	DD	imagerel ??_R2ISameObjectNoDetection@Engine@@8
rdata$r	ENDS
;	COMDAT ??_R0?AVISameObjectNoDetection@Engine@@@8
data$r	SEGMENT
??_R0?AVISameObjectNoDetection@Engine@@@8 DQ FLAT:??_7type_info@@6B@ ; Engine::ISameObjectNoDetection `RTTI Type Descriptor'
	DQ	0000000000000000H
	DB	'.?AVISameObjectNoDetection@Engine@@', 00H
data$r	ENDS
;	COMDAT ??_R1HI@?0A@EA@ISameObjectNoDetection@Engine@@8
rdata$r	SEGMENT
??_R1HI@?0A@EA@ISameObjectNoDetection@Engine@@8 DD imagerel ??_R0?AVISameObjectNoDetection@Engine@@@8 ; Engine::ISameObjectNoDetection::`RTTI Base Class Descriptor at (120,-1,0,64)'
	DD	00H
	DD	078H
	DD	0ffffffffH
	DD	00H
	DD	040H
	DD	imagerel ??_R3ISameObjectNoDetection@Engine@@8
rdata$r	ENDS
;	COMDAT ??_R2CBase@Engine@@8
rdata$r	SEGMENT
??_R2CBase@Engine@@8 DD imagerel ??_R1A@?0A@EA@CBase@Engine@@8 ; Engine::CBase::`RTTI Base Class Array'
	ORG $+3
rdata$r	ENDS
;	COMDAT ??_R3CBase@Engine@@8
rdata$r	SEGMENT
??_R3CBase@Engine@@8 DD 00H				; Engine::CBase::`RTTI Class Hierarchy Descriptor'
	DD	00H
	DD	01H
	DD	imagerel ??_R2CBase@Engine@@8
rdata$r	ENDS
;	COMDAT ??_R0?AVCBase@Engine@@@8
data$r	SEGMENT
??_R0?AVCBase@Engine@@@8 DQ FLAT:??_7type_info@@6B@	; Engine::CBase `RTTI Type Descriptor'
	DQ	0000000000000000H
	DB	'.?AVCBase@Engine@@', 00H
data$r	ENDS
;	COMDAT ??_R1A@?0A@EA@CBase@Engine@@8
rdata$r	SEGMENT
??_R1A@?0A@EA@CBase@Engine@@8 DD imagerel ??_R0?AVCBase@Engine@@@8 ; Engine::CBase::`RTTI Base Class Descriptor at (0,-1,0,64)'
	DD	00H
	DD	00H
	DD	0ffffffffH
	DD	00H
	DD	040H
	DD	imagerel ??_R3CBase@Engine@@8
rdata$r	ENDS
;	COMDAT ??_R2CGameObject@Engine@@8
rdata$r	SEGMENT
??_R2CGameObject@Engine@@8 DD imagerel ??_R1A@?0A@EA@CGameObject@Engine@@8 ; Engine::CGameObject::`RTTI Base Class Array'
	DD	imagerel ??_R1A@?0A@EA@CBase@Engine@@8
	ORG $+3
rdata$r	ENDS
;	COMDAT ??_R3CGameObject@Engine@@8
rdata$r	SEGMENT
??_R3CGameObject@Engine@@8 DD 00H			; Engine::CGameObject::`RTTI Class Hierarchy Descriptor'
	DD	00H
	DD	02H
	DD	imagerel ??_R2CGameObject@Engine@@8
rdata$r	ENDS
;	COMDAT ??_R1A@?0A@EA@CGameObject@Engine@@8
rdata$r	SEGMENT
??_R1A@?0A@EA@CGameObject@Engine@@8 DD imagerel ??_R0?AVCGameObject@Engine@@@8 ; Engine::CGameObject::`RTTI Base Class Descriptor at (0,-1,0,64)'
	DD	01H
	DD	00H
	DD	0ffffffffH
	DD	00H
	DD	040H
	DD	imagerel ??_R3CGameObject@Engine@@8
rdata$r	ENDS
;	COMDAT ??_R1A@?0A@EA@CThorn@Client@@8
rdata$r	SEGMENT
??_R1A@?0A@EA@CThorn@Client@@8 DD imagerel ??_R0?AVCThorn@Client@@@8 ; Client::CThorn::`RTTI Base Class Descriptor at (0,-1,0,64)'
	DD	06H
	DD	00H
	DD	0ffffffffH
	DD	00H
	DD	040H
	DD	imagerel ??_R3CThorn@Client@@8
rdata$r	ENDS
;	COMDAT ??_R2CThorn@Client@@8
rdata$r	SEGMENT
??_R2CThorn@Client@@8 DD imagerel ??_R1A@?0A@EA@CThorn@Client@@8 ; Client::CThorn::`RTTI Base Class Array'
	DD	imagerel ??_R1A@?0A@EA@CGameObject@Engine@@8
	DD	imagerel ??_R1A@?0A@EA@CBase@Engine@@8
	DD	imagerel ??_R1HI@?0A@EA@ISameObjectNoDetection@Engine@@8
	DD	imagerel ??_R1IA@?0A@EA@IOnCollisionEnter@Engine@@8
	DD	imagerel ??_R1II@?0A@EA@IOnCollisionStay@Engine@@8
	DD	imagerel ??_R1JA@?0A@EA@IOnCollisionExit@Engine@@8
	ORG $+3
rdata$r	ENDS
;	COMDAT ??_R3CThorn@Client@@8
rdata$r	SEGMENT
??_R3CThorn@Client@@8 DD 00H				; Client::CThorn::`RTTI Class Hierarchy Descriptor'
	DD	01H
	DD	07H
	DD	imagerel ??_R2CThorn@Client@@8
rdata$r	ENDS
;	COMDAT ??_R0?AVCThorn@Client@@@8
data$r	SEGMENT
??_R0?AVCThorn@Client@@@8 DQ FLAT:??_7type_info@@6B@	; Client::CThorn `RTTI Type Descriptor'
	DQ	0000000000000000H
	DB	'.?AVCThorn@Client@@', 00H
data$r	ENDS
;	COMDAT ??_R4CThorn@Client@@6BCGameObject@Engine@@@
rdata$r	SEGMENT
??_R4CThorn@Client@@6BCGameObject@Engine@@@ DD 01H	; Client::CThorn::`RTTI Complete Object Locator'
	DD	00H
	DD	00H
	DD	imagerel ??_R0?AVCThorn@Client@@@8
	DD	imagerel ??_R3CThorn@Client@@8
	DD	imagerel ??_R4CThorn@Client@@6BCGameObject@Engine@@@
rdata$r	ENDS
;	COMDAT ??_R0?AVCCharacter@Client@@@8
data$r	SEGMENT
??_R0?AVCCharacter@Client@@@8 DQ FLAT:??_7type_info@@6B@ ; Client::CCharacter `RTTI Type Descriptor'
	DQ	0000000000000000H
	DB	'.?AVCCharacter@Client@@', 00H
data$r	ENDS
;	COMDAT ??_R0?AVCGameObject@Engine@@@8
data$r	SEGMENT
??_R0?AVCGameObject@Engine@@@8 DQ FLAT:??_7type_info@@6B@ ; Engine::CGameObject `RTTI Type Descriptor'
	DQ	0000000000000000H
	DB	'.?AVCGameObject@Engine@@', 00H
data$r	ENDS
;	COMDAT ??_C@_1DC@DHJPJPDL@?$AAF?$AAa?$AAi?$AAl?$AAe?$AAd?$AA?5?$AAt?$AAo?$AA?5?$AAC?$AAl?$AAo?$AAn?$AAe?$AA?5?$AA?3?$AA?5?$AAC?$AAT?$AAh?$AAo?$AAr?$AAn?$AA?$AA@
CONST	SEGMENT
??_C@_1DC@DHJPJPDL@?$AAF?$AAa?$AAi?$AAl?$AAe?$AAd?$AA?5?$AAt?$AAo?$AA?5?$AAC?$AAl?$AAo?$AAn?$AAe?$AA?5?$AA?3?$AA?5?$AAC?$AAT?$AAh?$AAo?$AAr?$AAn?$AA?$AA@ DB 'F'
	DB	00H, 'a', 00H, 'i', 00H, 'l', 00H, 'e', 00H, 'd', 00H, ' ', 00H
	DB	't', 00H, 'o', 00H, ' ', 00H, 'C', 00H, 'l', 00H, 'o', 00H, 'n'
	DB	00H, 'e', 00H, ' ', 00H, ':', 00H, ' ', 00H, 'C', 00H, 'T', 00H
	DB	'h', 00H, 'o', 00H, 'r', 00H, 'n', 00H, 00H, 00H ; `string'
CONST	ENDS
;	COMDAT ?__LINE__Var@?0??Clone@CThorn@Client@@UEAAPEAVCGameObject@Engine@@PEAX@Z@4JA
_DATA	SEGMENT
?__LINE__Var@?0??Clone@CThorn@Client@@UEAAPEAVCGameObject@Engine@@PEAX@Z@4JA DD 0237H ; `Client::CThorn::Clone'::`1'::__LINE__Var
_DATA	ENDS
;	COMDAT ??_C@_1DE@ECNCIPJH@?$AAF?$AAa?$AAi?$AAl?$AAe?$AAd?$AA?5?$AAt?$AAo?$AA?5?$AAC?$AAr?$AAe?$AAa?$AAt?$AAe?$AA?5?$AA?3?$AA?5?$AAC?$AAT?$AAh?$AAo?$AAr?$AAn?$AA?$AA@
CONST	SEGMENT
??_C@_1DE@ECNCIPJH@?$AAF?$AAa?$AAi?$AAl?$AAe?$AAd?$AA?5?$AAt?$AAo?$AA?5?$AAC?$AAr?$AAe?$AAa?$AAt?$AAe?$AA?5?$AA?3?$AA?5?$AAC?$AAT?$AAh?$AAo?$AAr?$AAn?$AA?$AA@ DB 'F'
	DB	00H, 'a', 00H, 'i', 00H, 'l', 00H, 'e', 00H, 'd', 00H, ' ', 00H
	DB	't', 00H, 'o', 00H, ' ', 00H, 'C', 00H, 'r', 00H, 'e', 00H, 'a'
	DB	00H, 't', 00H, 'e', 00H, ' ', 00H, ':', 00H, ' ', 00H, 'C', 00H
	DB	'T', 00H, 'h', 00H, 'o', 00H, 'r', 00H, 'n', 00H, 00H, 00H ; `string'
CONST	ENDS
;	COMDAT ??_C@_1BA@HHOMBECE@?$AAM?$AAe?$AAs?$AAs?$AAa?$AAg?$AAe?$AA?$AA@
CONST	SEGMENT
??_C@_1BA@HHOMBECE@?$AAM?$AAe?$AAs?$AAs?$AAa?$AAg?$AAe?$AA?$AA@ DB 'M', 00H
	DB	'e', 00H, 's', 00H, 's', 00H, 'a', 00H, 'g', 00H, 'e', 00H, 00H
	DB	00H						; `string'
CONST	ENDS
;	COMDAT ??_C@_0ED@NMCGMBOD@c?3?2users?2arcco?2documents?2github?2@
CONST	SEGMENT
??_C@_0ED@NMCGMBOD@c?3?2users?2arcco?2documents?2github?2@ DB 'c:\users\a'
	DB	'rcco\documents\github\framework\client\private\thorn.cpp', 00H ; `string'
CONST	ENDS
;	COMDAT ?__LINE__Var@?0??Create@CThorn@Client@@SAPEAV23@PEAUID3D11Device@@PEAUID3D11DeviceContext@@@Z@4JA
_DATA	SEGMENT
?__LINE__Var@?0??Create@CThorn@Client@@SAPEAV23@PEAUID3D11Device@@PEAUID3D11DeviceContext@@@Z@4JA DD 022bH ; `Client::CThorn::Create'::`1'::__LINE__Var
_DATA	ENDS
;	COMDAT ??_C@_0BA@EALGDMPJ@g_vLightAmbient?$AA@
CONST	SEGMENT
??_C@_0BA@EALGDMPJ@g_vLightAmbient?$AA@ DB 'g_vLightAmbient', 00H ; `string'
CONST	ENDS
;	COMDAT ??_C@_0BB@IJIIKIH@g_vLightSpecular?$AA@
CONST	SEGMENT
??_C@_0BB@IJIIKIH@g_vLightSpecular?$AA@ DB 'g_vLightSpecular', 00H ; `string'
CONST	ENDS
;	COMDAT ??_C@_0BA@PCOGIHOF@g_vLightDiffuse?$AA@
CONST	SEGMENT
??_C@_0BA@PCOGIHOF@g_vLightDiffuse?$AA@ DB 'g_vLightDiffuse', 00H ; `string'
CONST	ENDS
;	COMDAT ??_C@_0M@NHGOLGEL@g_vLightDir?$AA@
CONST	SEGMENT
??_C@_0M@NHGOLGEL@g_vLightDir?$AA@ DB 'g_vLightDir', 00H ; `string'
CONST	ENDS
;	COMDAT ??_C@_0P@BDEIJKBM@g_vCamPosition?$AA@
CONST	SEGMENT
??_C@_0P@BDEIJKBM@g_vCamPosition?$AA@ DB 'g_vCamPosition', 00H ; `string'
CONST	ENDS
;	COMDAT ??_C@_1DA@MGAJDFLL@?$AAp?$AAr?$AAo?$AAt?$AAo?$AA_?$AAc?$AAo?$AAm?$AA_?$AAt?$AAe?$AAx?$AAt?$AAu?$AAr?$AAe?$AA_?$AAt?$AAr?$AAa?$AAi?$AAl?$AA?$AA@
CONST	SEGMENT
??_C@_1DA@MGAJDFLL@?$AAp?$AAr?$AAo?$AAt?$AAo?$AA_?$AAc?$AAo?$AAm?$AA_?$AAt?$AAe?$AAx?$AAt?$AAu?$AAr?$AAe?$AA_?$AAt?$AAr?$AAa?$AAi?$AAl?$AA?$AA@ DB 'p'
	DB	00H, 'r', 00H, 'o', 00H, 't', 00H, 'o', 00H, '_', 00H, 'c', 00H
	DB	'o', 00H, 'm', 00H, '_', 00H, 't', 00H, 'e', 00H, 'x', 00H, 't'
	DB	00H, 'u', 00H, 'r', 00H, 'e', 00H, '_', 00H, 't', 00H, 'r', 00H
	DB	'a', 00H, 'i', 00H, 'l', 00H, 00H, 00H	; `string'
CONST	ENDS
;	COMDAT ??_C@_1CM@NMJMGJPG@?$AAc?$AAo?$AAm?$AA_?$AAt?$AAe?$AAx?$AAt?$AAu?$AAr?$AAe?$AA_?$AAm?$AAa?$AAs?$AAk?$AAt?$AAr?$AAa?$AAi?$AAl?$AA?$AA@
CONST	SEGMENT
??_C@_1CM@NMJMGJPG@?$AAc?$AAo?$AAm?$AA_?$AAt?$AAe?$AAx?$AAt?$AAu?$AAr?$AAe?$AA_?$AAm?$AAa?$AAs?$AAk?$AAt?$AAr?$AAa?$AAi?$AAl?$AA?$AA@ DB 'c'
	DB	00H, 'o', 00H, 'm', 00H, '_', 00H, 't', 00H, 'e', 00H, 'x', 00H
	DB	't', 00H, 'u', 00H, 'r', 00H, 'e', 00H, '_', 00H, 'm', 00H, 'a'
	DB	00H, 's', 00H, 'k', 00H, 't', 00H, 'r', 00H, 'a', 00H, 'i', 00H
	DB	'l', 00H, 00H, 00H				; `string'
CONST	ENDS
;	COMDAT ??_C@_1CA@JKLCDBEM@?$AAc?$AAo?$AAm?$AA_?$AAb?$AAu?$AAf?$AAf?$AAe?$AAr?$AAt?$AAr?$AAa?$AAi?$AAl?$AA?$AA@
CONST	SEGMENT
??_C@_1CA@JKLCDBEM@?$AAc?$AAo?$AAm?$AA_?$AAb?$AAu?$AAf?$AAf?$AAe?$AAr?$AAt?$AAr?$AAa?$AAi?$AAl?$AA?$AA@ DB 'c'
	DB	00H, 'o', 00H, 'm', 00H, '_', 00H, 'b', 00H, 'u', 00H, 'f', 00H
	DB	'f', 00H, 'e', 00H, 'r', 00H, 't', 00H, 'r', 00H, 'a', 00H, 'i'
	DB	00H, 'l', 00H, 00H, 00H			; `string'
CONST	ENDS
;	COMDAT ??_C@_1CO@DKOHJLDJ@?$AAp?$AAr?$AAo?$AAt?$AAo?$AA_?$AAc?$AAo?$AAm?$AA_?$AAs?$AAh?$AAa?$AAd?$AAe?$AAr?$AA_?$AAt?$AAr?$AAa?$AAi?$AAl?$AA?$AA@
CONST	SEGMENT
??_C@_1CO@DKOHJLDJ@?$AAp?$AAr?$AAo?$AAt?$AAo?$AA_?$AAc?$AAo?$AAm?$AA_?$AAs?$AAh?$AAa?$AAd?$AAe?$AAr?$AA_?$AAt?$AAr?$AAa?$AAi?$AAl?$AA?$AA@ DB 'p'
	DB	00H, 'r', 00H, 'o', 00H, 't', 00H, 'o', 00H, '_', 00H, 'c', 00H
	DB	'o', 00H, 'm', 00H, '_', 00H, 's', 00H, 'h', 00H, 'a', 00H, 'd'
	DB	00H, 'e', 00H, 'r', 00H, '_', 00H, 't', 00H, 'r', 00H, 'a', 00H
	DB	'i', 00H, 'l', 00H, 00H, 00H			; `string'
CONST	ENDS
;	COMDAT ??_C@_1CA@NLFBHNMH@?$AAc?$AAo?$AAm?$AA_?$AAs?$AAh?$AAa?$AAd?$AAe?$AAr?$AAt?$AAr?$AAa?$AAi?$AAl?$AA?$AA@
CONST	SEGMENT
??_C@_1CA@NLFBHNMH@?$AAc?$AAo?$AAm?$AA_?$AAs?$AAh?$AAa?$AAd?$AAe?$AAr?$AAt?$AAr?$AAa?$AAi?$AAl?$AA?$AA@ DB 'c'
	DB	00H, 'o', 00H, 'm', 00H, '_', 00H, 's', 00H, 'h', 00H, 'a', 00H
	DB	'd', 00H, 'e', 00H, 'r', 00H, 't', 00H, 'r', 00H, 'a', 00H, 'i'
	DB	00H, 'l', 00H, 00H, 00H			; `string'
CONST	ENDS
;	COMDAT ??_C@_1DA@BAIPNHMH@?$AAp?$AAr?$AAo?$AAt?$AAo?$AA_?$AAc?$AAo?$AAm?$AA_?$AAv?$AAi?$AAb?$AAu?$AAf?$AAf?$AAe?$AAr?$AA_?$AAr?$AAe?$AAc?$AAt?$AA?$AA@
CONST	SEGMENT
??_C@_1DA@BAIPNHMH@?$AAp?$AAr?$AAo?$AAt?$AAo?$AA_?$AAc?$AAo?$AAm?$AA_?$AAv?$AAi?$AAb?$AAu?$AAf?$AAf?$AAe?$AAr?$AA_?$AAr?$AAe?$AAc?$AAt?$AA?$AA@ DB 'p'
	DB	00H, 'r', 00H, 'o', 00H, 't', 00H, 'o', 00H, '_', 00H, 'c', 00H
	DB	'o', 00H, 'm', 00H, '_', 00H, 'v', 00H, 'i', 00H, 'b', 00H, 'u'
	DB	00H, 'f', 00H, 'f', 00H, 'e', 00H, 'r', 00H, '_', 00H, 'r', 00H
	DB	'e', 00H, 'c', 00H, 't', 00H, 00H, 00H	; `string'
CONST	ENDS
;	COMDAT ??_C@_1BG@KPBPOMBH@?$AAc?$AAo?$AAm?$AA_?$AAb?$AAu?$AAf?$AAf?$AAe?$AAr?$AA?$AA@
CONST	SEGMENT
??_C@_1BG@KPBPOMBH@?$AAc?$AAo?$AAm?$AA_?$AAb?$AAu?$AAf?$AAf?$AAe?$AAr?$AA?$AA@ DB 'c'
	DB	00H, 'o', 00H, 'm', 00H, '_', 00H, 'b', 00H, 'u', 00H, 'f', 00H
	DB	'f', 00H, 'e', 00H, 'r', 00H, 00H, 00H	; `string'
CONST	ENDS
;	COMDAT ??_C@_1DG@OMECKGAB@?$AAp?$AAr?$AAo?$AAt?$AAo?$AA_?$AAc?$AAo?$AAm?$AA_?$AAt?$AAe?$AAx?$AAt?$AAu?$AAr?$AAe?$AA_?$AAg?$AAa?$AAr?$AAd?$AAm?$AAa?$AAs?$AAk?$AA?$AA@
CONST	SEGMENT
??_C@_1DG@OMECKGAB@?$AAp?$AAr?$AAo?$AAt?$AAo?$AA_?$AAc?$AAo?$AAm?$AA_?$AAt?$AAe?$AAx?$AAt?$AAu?$AAr?$AAe?$AA_?$AAg?$AAa?$AAr?$AAd?$AAm?$AAa?$AAs?$AAk?$AA?$AA@ DB 'p'
	DB	00H, 'r', 00H, 'o', 00H, 't', 00H, 'o', 00H, '_', 00H, 'c', 00H
	DB	'o', 00H, 'm', 00H, '_', 00H, 't', 00H, 'e', 00H, 'x', 00H, 't'
	DB	00H, 'u', 00H, 'r', 00H, 'e', 00H, '_', 00H, 'g', 00H, 'a', 00H
	DB	'r', 00H, 'd', 00H, 'm', 00H, 'a', 00H, 's', 00H, 'k', 00H, 00H
	DB	00H						; `string'
CONST	ENDS
;	COMDAT ??_C@_1CK@ECFCAHLG@?$AAc?$AAo?$AAm?$AA_?$AAt?$AAe?$AAx?$AAt?$AAu?$AAr?$AAe?$AA_?$AAg?$AAa?$AAr?$AAd?$AAm?$AAa?$AAs?$AAk?$AA?$AA@
CONST	SEGMENT
??_C@_1CK@ECFCAHLG@?$AAc?$AAo?$AAm?$AA_?$AAt?$AAe?$AAx?$AAt?$AAu?$AAr?$AAe?$AA_?$AAg?$AAa?$AAr?$AAd?$AAm?$AAa?$AAs?$AAk?$AA?$AA@ DB 'c'
	DB	00H, 'o', 00H, 'm', 00H, '_', 00H, 't', 00H, 'e', 00H, 'x', 00H
	DB	't', 00H, 'u', 00H, 'r', 00H, 'e', 00H, '_', 00H, 'g', 00H, 'a'
	DB	00H, 'r', 00H, 'd', 00H, 'm', 00H, 'a', 00H, 's', 00H, 'k', 00H
	DB	00H, 00H					; `string'
CONST	ENDS
;	COMDAT ??_C@_1DI@LAEBNKBN@?$AAp?$AAr?$AAo?$AAt?$AAo?$AA_?$AAc?$AAo?$AAm?$AA_?$AAt?$AAe?$AAx?$AAt?$AAu?$AAr?$AAe?$AA_?$AAt?$AAh?$AAo?$AAr?$AAn?$AAm?$AAa?$AAs?$AAk?$AA?$AA@
CONST	SEGMENT
??_C@_1DI@LAEBNKBN@?$AAp?$AAr?$AAo?$AAt?$AAo?$AA_?$AAc?$AAo?$AAm?$AA_?$AAt?$AAe?$AAx?$AAt?$AAu?$AAr?$AAe?$AA_?$AAt?$AAh?$AAo?$AAr?$AAn?$AAm?$AAa?$AAs?$AAk?$AA?$AA@ DB 'p'
	DB	00H, 'r', 00H, 'o', 00H, 't', 00H, 'o', 00H, '_', 00H, 'c', 00H
	DB	'o', 00H, 'm', 00H, '_', 00H, 't', 00H, 'e', 00H, 'x', 00H, 't'
	DB	00H, 'u', 00H, 'r', 00H, 'e', 00H, '_', 00H, 't', 00H, 'h', 00H
	DB	'o', 00H, 'r', 00H, 'n', 00H, 'm', 00H, 'a', 00H, 's', 00H, 'k'
	DB	00H, 00H, 00H				; `string'
CONST	ENDS
;	COMDAT ??_C@_1CC@CLEGOIHO@?$AAc?$AAo?$AAm?$AA_?$AAt?$AAe?$AAx?$AAt?$AAu?$AAr?$AAe?$AA_?$AAm?$AAa?$AAs?$AAk?$AA?$AA@
CONST	SEGMENT
??_C@_1CC@CLEGOIHO@?$AAc?$AAo?$AAm?$AA_?$AAt?$AAe?$AAx?$AAt?$AAu?$AAr?$AAe?$AA_?$AAm?$AAa?$AAs?$AAk?$AA?$AA@ DB 'c'
	DB	00H, 'o', 00H, 'm', 00H, '_', 00H, 't', 00H, 'e', 00H, 'x', 00H
	DB	't', 00H, 'u', 00H, 'r', 00H, 'e', 00H, '_', 00H, 'm', 00H, 'a'
	DB	00H, 's', 00H, 'k', 00H, 00H, 00H		; `string'
CONST	ENDS
;	COMDAT ??_C@_1DO@HAGCFBOL@?$AAp?$AAr?$AAo?$AAt?$AAo?$AA_?$AAc?$AAo?$AAm?$AA_?$AAt?$AAe?$AAx?$AAt?$AAu?$AAr?$AAe?$AA_?$AAt?$AAh?$AAo?$AAr?$AAn?$AAd?$AAi?$AAf?$AAf?$AAu?$AAs?$AAe?$AA?$AA@
CONST	SEGMENT
??_C@_1DO@HAGCFBOL@?$AAp?$AAr?$AAo?$AAt?$AAo?$AA_?$AAc?$AAo?$AAm?$AA_?$AAt?$AAe?$AAx?$AAt?$AAu?$AAr?$AAe?$AA_?$AAt?$AAh?$AAo?$AAr?$AAn?$AAd?$AAi?$AAf?$AAf?$AAu?$AAs?$AAe?$AA?$AA@ DB 'p'
	DB	00H, 'r', 00H, 'o', 00H, 't', 00H, 'o', 00H, '_', 00H, 'c', 00H
	DB	'o', 00H, 'm', 00H, '_', 00H, 't', 00H, 'e', 00H, 'x', 00H, 't'
	DB	00H, 'u', 00H, 'r', 00H, 'e', 00H, '_', 00H, 't', 00H, 'h', 00H
	DB	'o', 00H, 'r', 00H, 'n', 00H, 'd', 00H, 'i', 00H, 'f', 00H, 'f'
	DB	00H, 'u', 00H, 's', 00H, 'e', 00H, 00H, 00H	; `string'
CONST	ENDS
;	COMDAT ??_C@_1CI@EJHCKIFB@?$AAc?$AAo?$AAm?$AA_?$AAt?$AAe?$AAx?$AAt?$AAu?$AAr?$AAe?$AA_?$AAd?$AAi?$AAf?$AAf?$AAu?$AAs?$AAe?$AA?$AA@
CONST	SEGMENT
??_C@_1CI@EJHCKIFB@?$AAc?$AAo?$AAm?$AA_?$AAt?$AAe?$AAx?$AAt?$AAu?$AAr?$AAe?$AA_?$AAd?$AAi?$AAf?$AAf?$AAu?$AAs?$AAe?$AA?$AA@ DB 'c'
	DB	00H, 'o', 00H, 'm', 00H, '_', 00H, 't', 00H, 'e', 00H, 'x', 00H
	DB	't', 00H, 'u', 00H, 'r', 00H, 'e', 00H, '_', 00H, 'd', 00H, 'i'
	DB	00H, 'f', 00H, 'f', 00H, 'u', 00H, 's', 00H, 'e', 00H, 00H, 00H ; `string'
CONST	ENDS
;	COMDAT ??_C@_1CM@EIJDBIDJ@?$AAc?$AAo?$AAm?$AA_?$AAt?$AAr?$AAa?$AAn?$AAs?$AA_?$AAf?$AAl?$AAo?$AAo?$AAr?$AAe?$AAf?$AAe?$AAe?$AAc?$AAt?$AA?$AA@
CONST	SEGMENT
??_C@_1CM@EIJDBIDJ@?$AAc?$AAo?$AAm?$AA_?$AAt?$AAr?$AAa?$AAn?$AAs?$AA_?$AAf?$AAl?$AAo?$AAo?$AAr?$AAe?$AAf?$AAe?$AAe?$AAc?$AAt?$AA?$AA@ DB 'c'
	DB	00H, 'o', 00H, 'm', 00H, '_', 00H, 't', 00H, 'r', 00H, 'a', 00H
	DB	'n', 00H, 's', 00H, '_', 00H, 'f', 00H, 'l', 00H, 'o', 00H, 'o'
	DB	00H, 'r', 00H, 'e', 00H, 'f', 00H, 'e', 00H, 'e', 00H, 'c', 00H
	DB	't', 00H, 00H, 00H				; `string'
CONST	ENDS
;	COMDAT ??_C@_1DE@OCAJEKIC@?$AAp?$AAr?$AAo?$AAt?$AAo?$AA_?$AAc?$AAo?$AAm?$AA_?$AAs?$AAp?$AAh?$AAe?$AAr?$AAe?$AA_?$AAc?$AAo?$AAl?$AAl?$AAi?$AAd?$AAe?$AAr?$AA?$AA@
CONST	SEGMENT
??_C@_1DE@OCAJEKIC@?$AAp?$AAr?$AAo?$AAt?$AAo?$AA_?$AAc?$AAo?$AAm?$AA_?$AAs?$AAp?$AAh?$AAe?$AAr?$AAe?$AA_?$AAc?$AAo?$AAl?$AAl?$AAi?$AAd?$AAe?$AAr?$AA?$AA@ DB 'p'
	DB	00H, 'r', 00H, 'o', 00H, 't', 00H, 'o', 00H, '_', 00H, 'c', 00H
	DB	'o', 00H, 'm', 00H, '_', 00H, 's', 00H, 'p', 00H, 'h', 00H, 'e'
	DB	00H, 'r', 00H, 'e', 00H, '_', 00H, 'c', 00H, 'o', 00H, 'l', 00H
	DB	'l', 00H, 'i', 00H, 'd', 00H, 'e', 00H, 'r', 00H, 00H, 00H ; `string'
CONST	ENDS
;	COMDAT ??_C@_1BK@BKCENIHA@?$AAc?$AAo?$AAm?$AA_?$AAc?$AAo?$AAl?$AAl?$AAi?$AAd?$AAe?$AAr?$AA?$AA@
CONST	SEGMENT
??_C@_1BK@BKCENIHA@?$AAc?$AAo?$AAm?$AA_?$AAc?$AAo?$AAl?$AAl?$AAi?$AAd?$AAe?$AAr?$AA?$AA@ DB 'c'
	DB	00H, 'o', 00H, 'm', 00H, '_', 00H, 'c', 00H, 'o', 00H, 'l', 00H
	DB	'l', 00H, 'i', 00H, 'd', 00H, 'e', 00H, 'r', 00H, 00H, 00H ; `string'
CONST	ENDS
;	COMDAT ??_C@_1CM@NLPIEOMO@?$AAp?$AAr?$AAo?$AAt?$AAo?$AA_?$AAc?$AAo?$AAm?$AA_?$AAm?$AAo?$AAd?$AAe?$AAl?$AA_?$AAt?$AAh?$AAo?$AAr?$AAn?$AA?$AA@
CONST	SEGMENT
??_C@_1CM@NLPIEOMO@?$AAp?$AAr?$AAo?$AAt?$AAo?$AA_?$AAc?$AAo?$AAm?$AA_?$AAm?$AAo?$AAd?$AAe?$AAl?$AA_?$AAt?$AAh?$AAo?$AAr?$AAn?$AA?$AA@ DB 'p'
	DB	00H, 'r', 00H, 'o', 00H, 't', 00H, 'o', 00H, '_', 00H, 'c', 00H
	DB	'o', 00H, 'm', 00H, '_', 00H, 'm', 00H, 'o', 00H, 'd', 00H, 'e'
	DB	00H, 'l', 00H, '_', 00H, 't', 00H, 'h', 00H, 'o', 00H, 'r', 00H
	DB	'n', 00H, 00H, 00H				; `string'
CONST	ENDS
;	COMDAT ??_C@_1BE@MLNOEPCA@?$AAc?$AAo?$AAm?$AA_?$AAm?$AAo?$AAd?$AAe?$AAl?$AA?$AA@
CONST	SEGMENT
??_C@_1BE@MLNOEPCA@?$AAc?$AAo?$AAm?$AA_?$AAm?$AAo?$AAd?$AAe?$AAl?$AA?$AA@ DB 'c'
	DB	00H, 'o', 00H, 'm', 00H, '_', 00H, 'm', 00H, 'o', 00H, 'd', 00H
	DB	'e', 00H, 'l', 00H, 00H, 00H			; `string'
CONST	ENDS
;	COMDAT ??_C@_1DE@KBCIPNKP@?$AAp?$AAr?$AAo?$AAt?$AAo?$AA_?$AAc?$AAo?$AAm?$AA_?$AAm?$AAo?$AAd?$AAe?$AAl?$AA_?$AAt?$AAh?$AAo?$AAr?$AAn?$AAg?$AAa?$AAr?$AAd?$AA?$AA@
CONST	SEGMENT
??_C@_1DE@KBCIPNKP@?$AAp?$AAr?$AAo?$AAt?$AAo?$AA_?$AAc?$AAo?$AAm?$AA_?$AAm?$AAo?$AAd?$AAe?$AAl?$AA_?$AAt?$AAh?$AAo?$AAr?$AAn?$AAg?$AAa?$AAr?$AAd?$AA?$AA@ DB 'p'
	DB	00H, 'r', 00H, 'o', 00H, 't', 00H, 'o', 00H, '_', 00H, 'c', 00H
	DB	'o', 00H, 'm', 00H, '_', 00H, 'm', 00H, 'o', 00H, 'd', 00H, 'e'
	DB	00H, 'l', 00H, '_', 00H, 't', 00H, 'h', 00H, 'o', 00H, 'r', 00H
	DB	'n', 00H, 'g', 00H, 'a', 00H, 'r', 00H, 'd', 00H, 00H, 00H ; `string'
CONST	ENDS
;	COMDAT ??_C@_1BM@EDKHFEBF@?$AAc?$AAo?$AAm?$AA_?$AAm?$AAo?$AAd?$AAe?$AA_?$AAg?$AAa?$AAr?$AAd?$AA?$AA@
CONST	SEGMENT
??_C@_1BM@EDKHFEBF@?$AAc?$AAo?$AAm?$AA_?$AAm?$AAo?$AAd?$AAe?$AA_?$AAg?$AAa?$AAr?$AAd?$AA?$AA@ DB 'c'
	DB	00H, 'o', 00H, 'm', 00H, '_', 00H, 'm', 00H, 'o', 00H, 'd', 00H
	DB	'e', 00H, '_', 00H, 'g', 00H, 'a', 00H, 'r', 00H, 'd', 00H, 00H
	DB	00H						; `string'
CONST	ENDS
;	COMDAT ??_C@_1DA@NCILMLLP@?$AAp?$AAr?$AAo?$AAt?$AAo?$AA_?$AAc?$AAo?$AAm?$AA_?$AAs?$AAh?$AAa?$AAd?$AAe?$AAr?$AA_?$AAv?$AAt?$AAx?$AAt?$AAe?$AAx?$AA?$AA@
CONST	SEGMENT
??_C@_1DA@NCILMLLP@?$AAp?$AAr?$AAo?$AAt?$AAo?$AA_?$AAc?$AAo?$AAm?$AA_?$AAs?$AAh?$AAa?$AAd?$AAe?$AAr?$AA_?$AAv?$AAt?$AAx?$AAt?$AAe?$AAx?$AA?$AA@ DB 'p'
	DB	00H, 'r', 00H, 'o', 00H, 't', 00H, 'o', 00H, '_', 00H, 'c', 00H
	DB	'o', 00H, 'm', 00H, '_', 00H, 's', 00H, 'h', 00H, 'a', 00H, 'd'
	DB	00H, 'e', 00H, 'r', 00H, '_', 00H, 'v', 00H, 't', 00H, 'x', 00H
	DB	't', 00H, 'e', 00H, 'x', 00H, 00H, 00H	; `string'
CONST	ENDS
;	COMDAT ??_C@_1BI@NMCMAJE@?$AAc?$AAo?$AAm?$AA_?$AAs?$AAh?$AAa?$AAd?$AAe?$AAr?$AA1?$AA?$AA@
CONST	SEGMENT
??_C@_1BI@NMCMAJE@?$AAc?$AAo?$AAm?$AA_?$AAs?$AAh?$AAa?$AAd?$AAe?$AAr?$AA1?$AA?$AA@ DB 'c'
	DB	00H, 'o', 00H, 'm', 00H, '_', 00H, 's', 00H, 'h', 00H, 'a', 00H
	DB	'd', 00H, 'e', 00H, 'r', 00H, '1', 00H, 00H, 00H ; `string'
CONST	ENDS
;	COMDAT ??_C@_1DE@OMAPGAIH@?$AAp?$AAr?$AAo?$AAt?$AAo?$AA_?$AAc?$AAo?$AAm?$AA_?$AAs?$AAh?$AAa?$AAd?$AAe?$AAr?$AA_?$AAv?$AAt?$AAx?$AAm?$AAo?$AAd?$AAe?$AAl?$AA?$AA@
CONST	SEGMENT
??_C@_1DE@OMAPGAIH@?$AAp?$AAr?$AAo?$AAt?$AAo?$AA_?$AAc?$AAo?$AAm?$AA_?$AAs?$AAh?$AAa?$AAd?$AAe?$AAr?$AA_?$AAv?$AAt?$AAx?$AAm?$AAo?$AAd?$AAe?$AAl?$AA?$AA@ DB 'p'
	DB	00H, 'r', 00H, 'o', 00H, 't', 00H, 'o', 00H, '_', 00H, 'c', 00H
	DB	'o', 00H, 'm', 00H, '_', 00H, 's', 00H, 'h', 00H, 'a', 00H, 'd'
	DB	00H, 'e', 00H, 'r', 00H, '_', 00H, 'v', 00H, 't', 00H, 'x', 00H
	DB	'm', 00H, 'o', 00H, 'd', 00H, 'e', 00H, 'l', 00H, 00H, 00H ; `string'
CONST	ENDS
;	COMDAT ??_C@_1BG@GGOMMBBL@?$AAc?$AAo?$AAm?$AA_?$AAs?$AAh?$AAa?$AAd?$AAe?$AAr?$AA?$AA@
CONST	SEGMENT
??_C@_1BG@GGOMMBBL@?$AAc?$AAo?$AAm?$AA_?$AAs?$AAh?$AAa?$AAd?$AAe?$AAr?$AA?$AA@ DB 'c'
	DB	00H, 'o', 00H, 'm', 00H, '_', 00H, 's', 00H, 'h', 00H, 'a', 00H
	DB	'd', 00H, 'e', 00H, 'r', 00H, 00H, 00H	; `string'
CONST	ENDS
;	COMDAT ??_C@_1BO@BDPFEMKD@?$AAc?$AAo?$AAm?$AA_?$AAt?$AAr?$AAa?$AAn?$AAs?$AAf?$AAo?$AAr?$AAm?$AA3?$AA?$AA@
CONST	SEGMENT
??_C@_1BO@BDPFEMKD@?$AAc?$AAo?$AAm?$AA_?$AAt?$AAr?$AAa?$AAn?$AAs?$AAf?$AAo?$AAr?$AAm?$AA3?$AA?$AA@ DB 'c'
	DB	00H, 'o', 00H, 'm', 00H, '_', 00H, 't', 00H, 'r', 00H, 'a', 00H
	DB	'n', 00H, 's', 00H, 'f', 00H, 'o', 00H, 'r', 00H, 'm', 00H, '3'
	DB	00H, 00H, 00H				; `string'
CONST	ENDS
;	COMDAT ??_C@_1CG@DBHLCHEM@?$AAc?$AAo?$AAm?$AA_?$AAt?$AAr?$AAa?$AAn?$AAs?$AAf?$AAo?$AAr?$AAm?$AAt?$AAr?$AAa?$AAi?$AAl?$AA?$AA@
CONST	SEGMENT
??_C@_1CG@DBHLCHEM@?$AAc?$AAo?$AAm?$AA_?$AAt?$AAr?$AAa?$AAn?$AAs?$AAf?$AAo?$AAr?$AAm?$AAt?$AAr?$AAa?$AAi?$AAl?$AA?$AA@ DB 'c'
	DB	00H, 'o', 00H, 'm', 00H, '_', 00H, 't', 00H, 'r', 00H, 'a', 00H
	DB	'n', 00H, 's', 00H, 'f', 00H, 'o', 00H, 'r', 00H, 'm', 00H, 't'
	DB	00H, 'r', 00H, 'a', 00H, 'i', 00H, 'l', 00H, 00H, 00H ; `string'
CONST	ENDS
;	COMDAT ??_C@_1CI@MLEFGO@?$AAp?$AAr?$AAo?$AAt?$AAo?$AA_?$AAc?$AAo?$AAm?$AA_?$AAt?$AAr?$AAa?$AAn?$AAs?$AAf?$AAo?$AAr?$AAm?$AA?$AA@
CONST	SEGMENT
??_C@_1CI@MLEFGO@?$AAp?$AAr?$AAo?$AAt?$AAo?$AA_?$AAc?$AAo?$AAm?$AA_?$AAt?$AAr?$AAa?$AAn?$AAs?$AAf?$AAo?$AAr?$AAm?$AA?$AA@ DB 'p'
	DB	00H, 'r', 00H, 'o', 00H, 't', 00H, 'o', 00H, '_', 00H, 'c', 00H
	DB	'o', 00H, 'm', 00H, '_', 00H, 't', 00H, 'r', 00H, 'a', 00H, 'n'
	DB	00H, 's', 00H, 'f', 00H, 'o', 00H, 'r', 00H, 'm', 00H, 00H, 00H ; `string'
CONST	ENDS
;	COMDAT ??_C@_1BM@CJMPMHDD@?$AAc?$AAo?$AAm?$AA_?$AAt?$AAr?$AAa?$AAn?$AAs?$AAf?$AAo?$AAr?$AAm?$AA?$AA@
CONST	SEGMENT
??_C@_1BM@CJMPMHDD@?$AAc?$AAo?$AAm?$AA_?$AAt?$AAr?$AAa?$AAn?$AAs?$AAf?$AAo?$AAr?$AAm?$AA?$AA@ DB 'c'
	DB	00H, 'o', 00H, 'm', 00H, '_', 00H, 't', 00H, 'r', 00H, 'a', 00H
	DB	'n', 00H, 's', 00H, 'f', 00H, 'o', 00H, 'r', 00H, 'm', 00H, 00H
	DB	00H						; `string'
CONST	ENDS
;	COMDAT ??_C@_1CG@COFFFCLL@?$AAp?$AAr?$AAo?$AAt?$AAo?$AA_?$AAc?$AAo?$AAm?$AA_?$AAr?$AAe?$AAn?$AAd?$AAe?$AAr?$AAe?$AAr?$AA?$AA@
CONST	SEGMENT
??_C@_1CG@COFFFCLL@?$AAp?$AAr?$AAo?$AAt?$AAo?$AA_?$AAc?$AAo?$AAm?$AA_?$AAr?$AAe?$AAn?$AAd?$AAe?$AAr?$AAe?$AAr?$AA?$AA@ DB 'p'
	DB	00H, 'r', 00H, 'o', 00H, 't', 00H, 'o', 00H, '_', 00H, 'c', 00H
	DB	'o', 00H, 'm', 00H, '_', 00H, 'r', 00H, 'e', 00H, 'n', 00H, 'd'
	DB	00H, 'e', 00H, 'r', 00H, 'e', 00H, 'r', 00H, 00H, 00H ; `string'
CONST	ENDS
;	COMDAT ??_C@_1BK@GIOMOCNE@?$AAc?$AAo?$AAm?$AA_?$AAr?$AAe?$AAn?$AAd?$AAe?$AAr?$AAe?$AAr?$AA?$AA@
CONST	SEGMENT
??_C@_1BK@GIOMOCNE@?$AAc?$AAo?$AAm?$AA_?$AAr?$AAe?$AAn?$AAd?$AAe?$AAr?$AAe?$AAr?$AA?$AA@ DB 'c'
	DB	00H, 'o', 00H, 'm', 00H, '_', 00H, 'r', 00H, 'e', 00H, 'n', 00H
	DB	'd', 00H, 'e', 00H, 'r', 00H, 'e', 00H, 'r', 00H, 00H, 00H ; `string'
CONST	ENDS
;	COMDAT ??_C@_0L@IHOCIKLF@g_fTimeAcc?$AA@
CONST	SEGMENT
??_C@_0L@IHOCIKLF@g_fTimeAcc?$AA@ DB 'g_fTimeAcc', 00H	; `string'
CONST	ENDS
;	COMDAT ??_C@_0BB@FMIBAICL@g_DiffuseTexture?$AA@
CONST	SEGMENT
??_C@_0BB@FMIBAICL@g_DiffuseTexture?$AA@ DB 'g_DiffuseTexture', 00H ; `string'
CONST	ENDS
;	COMDAT ??_C@_09IPLGGENB@g_TimeAcc?$AA@
CONST	SEGMENT
??_C@_09IPLGGENB@g_TimeAcc?$AA@ DB 'g_TimeAcc', 00H	; `string'
CONST	ENDS
;	COMDAT ??_C@_09HCHKCCII@g_Texture?$AA@
CONST	SEGMENT
??_C@_09HCHKCCII@g_Texture?$AA@ DB 'g_Texture', 00H	; `string'
CONST	ENDS
;	COMDAT ??_C@_0O@PFNLPMLD@g_WorldMatrix?$AA@
CONST	SEGMENT
??_C@_0O@PFNLPMLD@g_WorldMatrix?$AA@ DB 'g_WorldMatrix', 00H ; `string'
CONST	ENDS
;	COMDAT ??_C@_0N@OOHDPIO@g_ProjMatrix?$AA@
CONST	SEGMENT
??_C@_0N@OOHDPIO@g_ProjMatrix?$AA@ DB 'g_ProjMatrix', 00H ; `string'
CONST	ENDS
;	COMDAT ??_C@_0N@ELIMCBLG@g_ViewMatrix?$AA@
CONST	SEGMENT
??_C@_0N@ELIMCBLG@g_ViewMatrix?$AA@ DB 'g_ViewMatrix', 00H ; `string'
CONST	ENDS
;	COMDAT ??_7CThorn@Client@@6BIOnCollisionExit@Engine@@@
CONST	SEGMENT
??_7CThorn@Client@@6BIOnCollisionExit@Engine@@@ DQ FLAT:??_R4CThorn@Client@@6BIOnCollisionExit@Engine@@@ ; Client::CThorn::`vftable'
	DQ	FLAT:?OnCollisionExit@CThorn@Client@@EEAAXPEAVCCollider@Engine@@0@Z
CONST	ENDS
;	COMDAT ??_7CThorn@Client@@6BIOnCollisionStay@Engine@@@
CONST	SEGMENT
??_7CThorn@Client@@6BIOnCollisionStay@Engine@@@ DQ FLAT:??_R4CThorn@Client@@6BIOnCollisionStay@Engine@@@ ; Client::CThorn::`vftable'
	DQ	FLAT:?OnCollisionStay@CThorn@Client@@EEAAXPEAVCCollider@Engine@@0@Z
CONST	ENDS
;	COMDAT ??_7CThorn@Client@@6BIOnCollisionEnter@Engine@@@
CONST	SEGMENT
??_7CThorn@Client@@6BIOnCollisionEnter@Engine@@@ DQ FLAT:??_R4CThorn@Client@@6BIOnCollisionEnter@Engine@@@ ; Client::CThorn::`vftable'
	DQ	FLAT:?OnCollisionEnter@CThorn@Client@@EEAAXPEAVCCollider@Engine@@0@Z
CONST	ENDS
;	COMDAT ??_7CThorn@Client@@6BISameObjectNoDetection@Engine@@@
CONST	SEGMENT
??_7CThorn@Client@@6BISameObjectNoDetection@Engine@@@ DQ FLAT:??_R4CThorn@Client@@6BISameObjectNoDetection@Engine@@@ ; Client::CThorn::`vftable'
	DQ	FLAT:?SameObjectNoDetection@CThorn@Client@@EEAAXXZ
CONST	ENDS
;	COMDAT ??_7CThorn@Client@@6BCGameObject@Engine@@@
CONST	SEGMENT
??_7CThorn@Client@@6BCGameObject@Engine@@@ DQ FLAT:??_R4CThorn@Client@@6BCGameObject@Engine@@@ ; Client::CThorn::`vftable'
	DQ	FLAT:??_ECThorn@Client@@EEAAPEAXI@Z
	DQ	FLAT:?Free@CThorn@Client@@UEAAXXZ
	DQ	FLAT:?Initialize_Prototype@CThorn@Client@@UEAAJXZ
	DQ	FLAT:?Initialize@CThorn@Client@@UEAAJPEAX@Z
	DQ	FLAT:?Tick@CThorn@Client@@UEAAXN@Z
	DQ	FLAT:?LateTick@CThorn@Client@@UEAAXN@Z
	DQ	FLAT:?Render@CThorn@Client@@UEAAJXZ
	DQ	FLAT:?RenderGUI@CThorn@Client@@UEAAXXZ
	DQ	FLAT:?GetLengthFromCamera@CThorn@Client@@UEAAMXZ
	DQ	FLAT:?Clone@CThorn@Client@@UEAAPEAVCGameObject@Engine@@PEAX@Z
CONST	ENDS
;	COMDAT ?__LINE__Var@?0??XMLoadFloat4x4@DirectX@@YQ?AUXMMATRIX@2@PEBUXMFLOAT4X4@2@@Z@4JA
_DATA	SEGMENT
?__LINE__Var@?0??XMLoadFloat4x4@DirectX@@YQ?AUXMMATRIX@2@PEBUXMFLOAT4X4@2@@Z@4JA DD 03f5H ; `DirectX::XMLoadFloat4x4'::`1'::__LINE__Var
_DATA	ENDS
;	COMDAT ?__LINE__Var@?0??XMLoadFloat4@DirectX@@YQ?AT__m128@@PEBUXMFLOAT4@2@@Z@4JA
_DATA	SEGMENT
?__LINE__Var@?0??XMLoadFloat4@DirectX@@YQ?AT__m128@@PEBUXMFLOAT4@2@@Z@4JA DD 02a8H ; `DirectX::XMLoadFloat4'::`1'::__LINE__Var
_DATA	ENDS
;	COMDAT ??_C@_1BA@LBADLIHI@?$AAp?$AAS?$AAo?$AAu?$AAr?$AAc?$AAe?$AA?$AA@
CONST	SEGMENT
??_C@_1BA@LBADLIHI@?$AAp?$AAS?$AAo?$AAu?$AAr?$AAc?$AAe?$AA?$AA@ DB 'p', 00H
	DB	'S', 00H, 'o', 00H, 'u', 00H, 'r', 00H, 'c', 00H, 'e', 00H, 00H
	DB	00H						; `string'
CONST	ENDS
;	COMDAT ??_C@_1JE@DMOBBMDE@?$AAc?$AA?3?$AA?2?$AAp?$AAr?$AAo?$AAg?$AAr?$AAa?$AAm?$AA?5?$AAf?$AAi?$AAl?$AAe?$AAs?$AA?5?$AA?$CI?$AAx?$AA8?$AA6?$AA?$CJ?$AA?2?$AAw?$AAi?$AAn?$AAd?$AAo?$AAw?$AAs?$AA?5?$AAk@
CONST	SEGMENT
??_C@_1JE@DMOBBMDE@?$AAc?$AA?3?$AA?2?$AAp?$AAr?$AAo?$AAg?$AAr?$AAa?$AAm?$AA?5?$AAf?$AAi?$AAl?$AAe?$AAs?$AA?5?$AA?$CI?$AAx?$AA8?$AA6?$AA?$CJ?$AA?2?$AAw?$AAi?$AAn?$AAd?$AAo?$AAw?$AAs?$AA?5?$AAk@ DB 'c'
	DB	00H, ':', 00H, '\', 00H, 'p', 00H, 'r', 00H, 'o', 00H, 'g', 00H
	DB	'r', 00H, 'a', 00H, 'm', 00H, ' ', 00H, 'f', 00H, 'i', 00H, 'l'
	DB	00H, 'e', 00H, 's', 00H, ' ', 00H, '(', 00H, 'x', 00H, '8', 00H
	DB	'6', 00H, ')', 00H, '\', 00H, 'w', 00H, 'i', 00H, 'n', 00H, 'd'
	DB	00H, 'o', 00H, 'w', 00H, 's', 00H, ' ', 00H, 'k', 00H, 'i', 00H
	DB	't', 00H, 's', 00H, '\', 00H, '8', 00H, '.', 00H, '1', 00H, '\'
	DB	00H, 'i', 00H, 'n', 00H, 'c', 00H, 'l', 00H, 'u', 00H, 'd', 00H
	DB	'e', 00H, '\', 00H, 'u', 00H, 'm', 00H, '\', 00H, 'd', 00H, 'i'
	DB	00H, 'r', 00H, 'e', 00H, 'c', 00H, 't', 00H, 'x', 00H, 'm', 00H
	DB	'a', 00H, 't', 00H, 'h', 00H, 'c', 00H, 'o', 00H, 'n', 00H, 'v'
	DB	00H, 'e', 00H, 'r', 00H, 't', 00H, '.', 00H, 'i', 00H, 'n', 00H
	DB	'l', 00H, 00H, 00H				; `string'
CONST	ENDS
;	COMDAT xdata
xdata	SEGMENT
$unwind$??$Safe_Release@PEAVCTexture@Engine@@@Engine@@YAKAEAPEAVCTexture@0@@Z DD 025052a01H
	DD	010e2313H
	DD	070070021H
	DD	05006H
xdata	ENDS
;	COMDAT xdata
xdata	SEGMENT
$unwind$??$Safe_Release@PEAVCVIBuffer_Rect@Engine@@@Engine@@YAKAEAPEAVCVIBuffer_Rect@0@@Z DD 025052a01H
	DD	010e2313H
	DD	070070021H
	DD	05006H
xdata	ENDS
;	COMDAT xdata
xdata	SEGMENT
$unwind$??$Safe_Release@PEAVCShader@Engine@@@Engine@@YAKAEAPEAVCShader@0@@Z DD 025052a01H
	DD	010e2313H
	DD	070070021H
	DD	05006H
xdata	ENDS
;	COMDAT xdata
xdata	SEGMENT
$unwind$??$Safe_Release@PEAVCModel@Engine@@@Engine@@YAKAEAPEAVCModel@0@@Z DD 025052a01H
	DD	010e2313H
	DD	070070021H
	DD	05006H
xdata	ENDS
;	COMDAT xdata
xdata	SEGMENT
$unwind$??$Safe_Release@PEAVCTransform@Engine@@@Engine@@YAKAEAPEAVCTransform@0@@Z DD 025052a01H
	DD	010e2313H
	DD	070070021H
	DD	05006H
xdata	ENDS
;	COMDAT xdata
xdata	SEGMENT
$unwind$??$Safe_Release@PEAVCRenderer@Engine@@@Engine@@YAKAEAPEAVCRenderer@0@@Z DD 025052a01H
	DD	010e2313H
	DD	070070021H
	DD	05006H
xdata	ENDS
;	COMDAT xdata
xdata	SEGMENT
$unwind$??$Safe_Release@PEAVCSphereCollider@Engine@@@Engine@@YAKAEAPEAVCSphereCollider@0@@Z DD 025052a01H
	DD	010e2313H
	DD	070070021H
	DD	05006H
xdata	ENDS
;	COMDAT xdata
xdata	SEGMENT
$unwind$??$Safe_Release@PEAVCThorn@Client@@@Engine@@YAKAEAPEAVCThorn@Client@@@Z DD 025052a01H
	DD	010e2313H
	DD	070070021H
	DD	05006H
xdata	ENDS
;	COMDAT xdata
xdata	SEGMENT
$unwind$?GetBodyCollider@CCharacter@Client@@QEBAPEAVCCollider@Engine@@XZ DD 05052801H
	DD	010e0311H
	DD	070070019H
	DD	05006H
xdata	ENDS
;	COMDAT xdata
xdata	SEGMENT
$unwind$?IsFreeze@CApplicationManager@Client@@QEBA_NXZ DD 05052801H
	DD	010e0311H
	DD	070070019H
	DD	05006H
xdata	ENDS
;	COMDAT xdata
xdata	SEGMENT
$unwind$??_GCThorn@Client@@EEAAPEAXI@Z DD 025052e01H
	DD	01122317H
	DD	0700b001dH
	DD	0500aH
xdata	ENDS
;	COMDAT xdata
xdata	SEGMENT
$unwind$??0CThorn@Client@@QEAA@AEBV01@@Z DD 025063001H
	DD	01142319H
	DD	0700d001eH
	DD	0500b600cH
xdata	ENDS
;	COMDAT xdata
xdata	SEGMENT
$unwind$?Free@CThorn@Client@@UEAAXXZ DD 025052a01H
	DD	010e2313H
	DD	07007001dH
	DD	05006H
xdata	ENDS
;	COMDAT xdata
xdata	SEGMENT
$unwind$?dtor$0@?0??Clone@CThorn@Client@@UEAAPEAVCGameObject@Engine@@PEAX@Z@4HA DD 031001H
	DD	0700c4210H
	DD	0500bH
xdata	ENDS
;	COMDAT xdata
xdata	SEGMENT
$ip2state$?Clone@CThorn@Client@@UEAAPEAVCGameObject@Engine@@PEAX@Z DD imagerel ?Clone@CThorn@Client@@UEAAPEAVCGameObject@Engine@@PEAX@Z
	DD	0ffffffffH
	DD	imagerel ?Clone@CThorn@Client@@UEAAPEAVCGameObject@Engine@@PEAX@Z+115
	DD	00H
	DD	imagerel ?Clone@CThorn@Client@@UEAAPEAVCGameObject@Engine@@PEAX@Z+178
	DD	0ffffffffH
xdata	ENDS
;	COMDAT xdata
xdata	SEGMENT
$stateUnwindMap$?Clone@CThorn@Client@@UEAAPEAVCGameObject@Engine@@PEAX@Z DD 0ffffffffH
	DD	imagerel ?dtor$0@?0??Clone@CThorn@Client@@UEAAPEAVCGameObject@Engine@@PEAX@Z@4HA
xdata	ENDS
;	COMDAT xdata
xdata	SEGMENT
$unwind$?Clone@CThorn@Client@@UEAAPEAVCGameObject@Engine@@PEAX@Z DD 025054b19H
	DD	01132318H
	DD	0700c002fH
	DD	0500bH
	DD	imagerel __GSHandlerCheck_EH
	DD	imagerel $cppxdata$?Clone@CThorn@Client@@UEAAPEAVCGameObject@Engine@@PEAX@Z
	DD	0162H
xdata	ENDS
;	COMDAT CONST
CONST	SEGMENT
?Clone@CThorn@Client@@UEAAPEAVCGameObject@Engine@@PEAX@Z$rtcName$0 DB 070H ; Client::CThorn::Clone
	DB	049H
	DB	06eH
	DB	073H
	DB	074H
	DB	061H
	DB	06eH
	DB	063H
	DB	065H
	DB	00H
	ORG $+6
?Clone@CThorn@Client@@UEAAPEAVCGameObject@Engine@@PEAX@Z$rtcVarDesc DD 028H ; Client::CThorn::Clone
	DD	08H
	DQ	FLAT:?Clone@CThorn@Client@@UEAAPEAVCGameObject@Engine@@PEAX@Z$rtcName$0
	ORG $+48
?Clone@CThorn@Client@@UEAAPEAVCGameObject@Engine@@PEAX@Z$rtcFrameData DD 01H ; Client::CThorn::Clone
	DD	00H
	DQ	FLAT:?Clone@CThorn@Client@@UEAAPEAVCGameObject@Engine@@PEAX@Z$rtcVarDesc
$cppxdata$?Clone@CThorn@Client@@UEAAPEAVCGameObject@Engine@@PEAX@Z DD 019930522H
	DD	01H
	DD	imagerel $stateUnwindMap$?Clone@CThorn@Client@@UEAAPEAVCGameObject@Engine@@PEAX@Z
	DD	00H
	DD	00H
	DD	03H
	DD	imagerel $ip2state$?Clone@CThorn@Client@@UEAAPEAVCGameObject@Engine@@PEAX@Z
	DD	0148H
	DD	00H
	DD	01H
CONST	ENDS
;	COMDAT xdata
xdata	SEGMENT
$unwind$?dtor$0@?0??Create@CThorn@Client@@SAPEAV12@PEAUID3D11Device@@PEAUID3D11DeviceContext@@@Z@4HA DD 031001H
	DD	0700c4210H
	DD	0500bH
xdata	ENDS
;	COMDAT xdata
xdata	SEGMENT
$ip2state$?Create@CThorn@Client@@SAPEAV12@PEAUID3D11Device@@PEAUID3D11DeviceContext@@@Z DD imagerel ?Create@CThorn@Client@@SAPEAV12@PEAUID3D11Device@@PEAUID3D11DeviceContext@@@Z
	DD	0ffffffffH
	DD	imagerel ?Create@CThorn@Client@@SAPEAV12@PEAUID3D11Device@@PEAUID3D11DeviceContext@@@Z+115
	DD	00H
	DD	imagerel ?Create@CThorn@Client@@SAPEAV12@PEAUID3D11Device@@PEAUID3D11DeviceContext@@@Z+185
	DD	0ffffffffH
xdata	ENDS
;	COMDAT xdata
xdata	SEGMENT
$stateUnwindMap$?Create@CThorn@Client@@SAPEAV12@PEAUID3D11Device@@PEAUID3D11DeviceContext@@@Z DD 0ffffffffH
	DD	imagerel ?dtor$0@?0??Create@CThorn@Client@@SAPEAV12@PEAUID3D11Device@@PEAUID3D11DeviceContext@@@Z@4HA
xdata	ENDS
;	COMDAT xdata
xdata	SEGMENT
$unwind$?Create@CThorn@Client@@SAPEAV12@PEAUID3D11Device@@PEAUID3D11DeviceContext@@@Z DD 025054b19H
	DD	01132318H
	DD	0700c002fH
	DD	0500bH
	DD	imagerel __GSHandlerCheck_EH
	DD	imagerel $cppxdata$?Create@CThorn@Client@@SAPEAV12@PEAUID3D11Device@@PEAUID3D11DeviceContext@@@Z
	DD	0162H
xdata	ENDS
;	COMDAT CONST
CONST	SEGMENT
?Create@CThorn@Client@@SAPEAV12@PEAUID3D11Device@@PEAUID3D11DeviceContext@@@Z$rtcName$0 DB 070H ; Client::CThorn::Create
	DB	049H
	DB	06eH
	DB	073H
	DB	074H
	DB	061H
	DB	06eH
	DB	063H
	DB	065H
	DB	00H
	ORG $+6
?Create@CThorn@Client@@SAPEAV12@PEAUID3D11Device@@PEAUID3D11DeviceContext@@@Z$rtcVarDesc DD 028H ; Client::CThorn::Create
	DD	08H
	DQ	FLAT:?Create@CThorn@Client@@SAPEAV12@PEAUID3D11Device@@PEAUID3D11DeviceContext@@@Z$rtcName$0
	ORG $+48
?Create@CThorn@Client@@SAPEAV12@PEAUID3D11Device@@PEAUID3D11DeviceContext@@@Z$rtcFrameData DD 01H ; Client::CThorn::Create
	DD	00H
	DQ	FLAT:?Create@CThorn@Client@@SAPEAV12@PEAUID3D11Device@@PEAUID3D11DeviceContext@@@Z$rtcVarDesc
$cppxdata$?Create@CThorn@Client@@SAPEAV12@PEAUID3D11Device@@PEAUID3D11DeviceContext@@@Z DD 019930522H
	DD	01H
	DD	imagerel $stateUnwindMap$?Create@CThorn@Client@@SAPEAV12@PEAUID3D11Device@@PEAUID3D11DeviceContext@@@Z
	DD	00H
	DD	00H
	DD	03H
	DD	imagerel $ip2state$?Create@CThorn@Client@@SAPEAV12@PEAUID3D11Device@@PEAUID3D11DeviceContext@@@Z
	DD	0148H
	DD	00H
	DD	01H
CONST	ENDS
;	COMDAT xdata
xdata	SEGMENT
$unwind$?OnCollisionExit@CThorn@Client@@EEAAXPEAVCCollider@Engine@@0@Z DD 05053201H
	DD	0118031bH
	DD	070110019H
	DD	05010H
xdata	ENDS
;	COMDAT xdata
xdata	SEGMENT
$unwind$?OnCollisionStay@CThorn@Client@@EEAAXPEAVCCollider@Engine@@0@Z DD 05053201H
	DD	0118031bH
	DD	070110019H
	DD	05010H
xdata	ENDS
;	COMDAT xdata
xdata	SEGMENT
$unwind$?OnCollisionEnter@CThorn@Client@@EEAAXPEAVCCollider@Engine@@0@Z DD 035053401H
	DD	0118331dH
	DD	070110027H
	DD	05010H
xdata	ENDS
;	COMDAT xdata
xdata	SEGMENT
$unwind$?SameObjectNoDetection@CThorn@Client@@EEAAXXZ DD 05052801H
	DD	010e0311H
	DD	070070019H
	DD	05006H
xdata	ENDS
;	COMDAT xdata
xdata	SEGMENT
$unwind$?SetupShaderResources@CThorn@Client@@AEAAJXZ DD 025052a01H
	DD	010e2313H
	DD	070070043H
	DD	05006H
xdata	ENDS
;	COMDAT xdata
xdata	SEGMENT
$unwind$?AddComponents@CThorn@Client@@AEAAJXZ DD 035053b19H
	DD	010e3313H
	DD	070070039H
	DD	05006H
	DD	imagerel __GSHandlerCheck
	DD	01b8H
xdata	ENDS
;	COMDAT CONST
CONST	SEGMENT
?AddComponents@CThorn@Client@@AEAAJXZ$rtcName$0 DB 064H	; Client::CThorn::AddComponents
	DB	065H
	DB	073H
	DB	063H
	DB	00H
	ORG $+3
?AddComponents@CThorn@Client@@AEAAJXZ$rtcName$1 DB 063H	; Client::CThorn::AddComponents
	DB	06fH
	DB	06cH
	DB	06cH
	DB	044H
	DB	065H
	DB	073H
	DB	063H
	DB	00H
	ORG $+15
?AddComponents@CThorn@Client@@AEAAJXZ$rtcVarDesc DD 058H ; Client::CThorn::AddComponents
	DD	030H
	DQ	FLAT:?AddComponents@CThorn@Client@@AEAAJXZ$rtcName$1
	DD	038H
	DD	08H
	DQ	FLAT:?AddComponents@CThorn@Client@@AEAAJXZ$rtcName$0
	ORG $+96
?AddComponents@CThorn@Client@@AEAAJXZ$rtcFrameData DD 02H ; Client::CThorn::AddComponents
	DD	00H
	DQ	FLAT:?AddComponents@CThorn@Client@@AEAAJXZ$rtcVarDesc
CONST	ENDS
;	COMDAT xdata
xdata	SEGMENT
$unwind$?IsScaleFinish@CThorn@Client@@QEAA_NXZ DD 05052801H
	DD	010e0311H
	DD	070070019H
	DD	05006H
xdata	ENDS
;	COMDAT xdata
xdata	SEGMENT
$unwind$?MoveProcess@CThorn@Client@@QEAA_NN@Z DD 025054119H
	DD	01142319H
	DD	0700d00edH
	DD	0500cH
	DD	imagerel __GSHandlerCheck
	DD	0758H
xdata	ENDS
;	COMDAT CONST
CONST	SEGMENT
?MoveProcess@CThorn@Client@@QEAA_NN@Z$rtcName$0 DB 076H	; Client::CThorn::MoveProcess
	DB	050H
	DB	06fH
	DB	073H
	DB	00H
	ORG $+3
?MoveProcess@CThorn@Client@@QEAA_NN@Z$rtcName$1 DB 076H	; Client::CThorn::MoveProcess
	DB	054H
	DB	072H
	DB	061H
	DB	069H
	DB	06cH
	DB	055H
	DB	070H
	DB	00H
	ORG $+15
?MoveProcess@CThorn@Client@@QEAA_NN@Z$rtcVarDesc DD 090H ; Client::CThorn::MoveProcess
	DD	010H
	DQ	FLAT:?MoveProcess@CThorn@Client@@QEAA_NN@Z$rtcName$1
	DD	030H
	DD	010H
	DQ	FLAT:?MoveProcess@CThorn@Client@@QEAA_NN@Z$rtcName$0
	ORG $+96
?MoveProcess@CThorn@Client@@QEAA_NN@Z$rtcFrameData DD 02H ; Client::CThorn::MoveProcess
	DD	00H
	DQ	FLAT:?MoveProcess@CThorn@Client@@QEAA_NN@Z$rtcVarDesc
CONST	ENDS
;	COMDAT xdata
xdata	SEGMENT
$unwind$?ScaleDownSmoothProcess@CThorn@Client@@QEAA_NN@Z DD 025064219H
	DD	0115231aH
	DD	0700e0076H
	DD	0500c600dH
	DD	imagerel __GSHandlerCheck
	DD	03a8H
xdata	ENDS
;	COMDAT CONST
CONST	SEGMENT
?ScaleDownSmoothProcess@CThorn@Client@@QEAA_NN@Z$rtcName$0 DB 076H ; Client::CThorn::ScaleDownSmoothProcess
	DB	04cH
	DB	065H
	DB	06eH
	DB	067H
	DB	074H
	DB	068H
	DB	00H
	ORG $+8
?ScaleDownSmoothProcess@CThorn@Client@@QEAA_NN@Z$rtcVarDesc DD 088H ; Client::CThorn::ScaleDownSmoothProcess
	DD	0cH
	DQ	FLAT:?ScaleDownSmoothProcess@CThorn@Client@@QEAA_NN@Z$rtcName$0
	ORG $+48
?ScaleDownSmoothProcess@CThorn@Client@@QEAA_NN@Z$rtcFrameData DD 01H ; Client::CThorn::ScaleDownSmoothProcess
	DD	00H
	DQ	FLAT:?ScaleDownSmoothProcess@CThorn@Client@@QEAA_NN@Z$rtcVarDesc
CONST	ENDS
;	COMDAT xdata
xdata	SEGMENT
$unwind$?ScaleUpSmoothProcess@CThorn@Client@@QEAA_NN@Z DD 025064219H
	DD	0115231aH
	DD	0700e0058H
	DD	0500c600dH
	DD	imagerel __GSHandlerCheck
	DD	02b8H
xdata	ENDS
;	COMDAT CONST
CONST	SEGMENT
?ScaleUpSmoothProcess@CThorn@Client@@QEAA_NN@Z$rtcName$0 DB 076H ; Client::CThorn::ScaleUpSmoothProcess
	DB	04cH
	DB	065H
	DB	06eH
	DB	067H
	DB	074H
	DB	068H
	DB	00H
	ORG $+8
?ScaleUpSmoothProcess@CThorn@Client@@QEAA_NN@Z$rtcVarDesc DD 088H ; Client::CThorn::ScaleUpSmoothProcess
	DD	0cH
	DQ	FLAT:?ScaleUpSmoothProcess@CThorn@Client@@QEAA_NN@Z$rtcName$0
	ORG $+48
?ScaleUpSmoothProcess@CThorn@Client@@QEAA_NN@Z$rtcFrameData DD 01H ; Client::CThorn::ScaleUpSmoothProcess
	DD	00H
	DQ	FLAT:?ScaleUpSmoothProcess@CThorn@Client@@QEAA_NN@Z$rtcVarDesc
CONST	ENDS
;	COMDAT xdata
xdata	SEGMENT
$unwind$?ScaleUpProcess@CThorn@Client@@QEAA_NN@Z DD 025064219H
	DD	0115231aH
	DD	0700e0058H
	DD	0500c600dH
	DD	imagerel __GSHandlerCheck
	DD	02b8H
xdata	ENDS
;	COMDAT CONST
CONST	SEGMENT
?ScaleUpProcess@CThorn@Client@@QEAA_NN@Z$rtcName$0 DB 076H ; Client::CThorn::ScaleUpProcess
	DB	04cH
	DB	065H
	DB	06eH
	DB	067H
	DB	074H
	DB	068H
	DB	00H
	ORG $+8
?ScaleUpProcess@CThorn@Client@@QEAA_NN@Z$rtcVarDesc DD 088H ; Client::CThorn::ScaleUpProcess
	DD	0cH
	DQ	FLAT:?ScaleUpProcess@CThorn@Client@@QEAA_NN@Z$rtcName$0
	ORG $+48
?ScaleUpProcess@CThorn@Client@@QEAA_NN@Z$rtcFrameData DD 01H ; Client::CThorn::ScaleUpProcess
	DD	00H
	DQ	FLAT:?ScaleUpProcess@CThorn@Client@@QEAA_NN@Z$rtcVarDesc
CONST	ENDS
;	COMDAT xdata
xdata	SEGMENT
$unwind$?SetupScaleSmoothDownStart@CThorn@Client@@QEAAXXZ DD 05052801H
	DD	010e0311H
	DD	070070019H
	DD	05006H
xdata	ENDS
;	COMDAT xdata
xdata	SEGMENT
$unwind$?SetupScaleSmoothUpStart@CThorn@Client@@QEAAXM@Z DD 05052e01H
	DD	01140317H
	DD	0700d0019H
	DD	0500cH
xdata	ENDS
;	COMDAT xdata
xdata	SEGMENT
$unwind$?SetupScaleUpDownStart@CThorn@Client@@QEAAXM@Z DD 05052e01H
	DD	01140317H
	DD	0700d0019H
	DD	0500cH
xdata	ENDS
;	COMDAT xdata
xdata	SEGMENT
$unwind$?SetupScaleUpStart@CThorn@Client@@QEAAXM@Z DD 05052e01H
	DD	01140317H
	DD	0700d0019H
	DD	0500cH
xdata	ENDS
;	COMDAT xdata
xdata	SEGMENT
$unwind$?SetRotationToTarget@CThorn@Client@@QEAAXT__m128@@@Z DD 025052f01H
	DD	01132318H
	DD	0700c00a7H
	DD	0500bH
xdata	ENDS
;	COMDAT xdata
xdata	SEGMENT
$unwind$?SetRotationXYZ@CThorn@Client@@QEAAXUXMFLOAT3@DirectX@@@Z DD 025063001H
	DD	01142319H
	DD	0700d0022H
	DD	0500b600cH
xdata	ENDS
;	COMDAT xdata
xdata	SEGMENT
$unwind$?SetPosition@CThorn@Client@@QEAAXT__m128@@@Z DD 025052f01H
	DD	01132318H
	DD	0700c0041H
	DD	0500bH
xdata	ENDS
;	COMDAT xdata
xdata	SEGMENT
$unwind$?Reset@CThorn@Client@@QEAAXXZ DD 025062b01H
	DD	010f2314H
	DD	070080040H
	DD	050066007H
xdata	ENDS
;	COMDAT xdata
xdata	SEGMENT
$unwind$?GetLengthFromCamera@CThorn@Client@@UEAAMXZ DD 035053b19H
	DD	010e3313H
	DD	07007004bH
	DD	05006H
	DD	imagerel __GSHandlerCheck
	DD	0248H
xdata	ENDS
;	COMDAT CONST
CONST	SEGMENT
?GetLengthFromCamera@CThorn@Client@@UEAAMXZ$rtcName$0 DB 076H ; Client::CThorn::GetLengthFromCamera
	DB	050H
	DB	06fH
	DB	073H
	DB	00H
	ORG $+11
?GetLengthFromCamera@CThorn@Client@@UEAAMXZ$rtcVarDesc DD 060H ; Client::CThorn::GetLengthFromCamera
	DD	010H
	DQ	FLAT:?GetLengthFromCamera@CThorn@Client@@UEAAMXZ$rtcName$0
	ORG $+48
?GetLengthFromCamera@CThorn@Client@@UEAAMXZ$rtcFrameData DD 01H ; Client::CThorn::GetLengthFromCamera
	DD	00H
	DQ	FLAT:?GetLengthFromCamera@CThorn@Client@@UEAAMXZ$rtcVarDesc
CONST	ENDS
;	COMDAT xdata
xdata	SEGMENT
$unwind$?RenderGUI@CThorn@Client@@UEAAXXZ DD 05052801H
	DD	010e0311H
	DD	070070019H
	DD	05006H
xdata	ENDS
;	COMDAT xdata
xdata	SEGMENT
$unwind$?Render@CThorn@Client@@UEAAJXZ DD 035052a01H
	DD	010e3313H
	DD	07007005bH
	DD	05006H
xdata	ENDS
;	COMDAT xdata
xdata	SEGMENT
$unwind$?LateTick@CThorn@Client@@UEAAXN@Z DD 025063101H
	DD	0115231aH
	DD	0700e0054H
	DD	0500c600dH
xdata	ENDS
;	COMDAT xdata
xdata	SEGMENT
$unwind$?Tick@CThorn@Client@@UEAAXN@Z DD 025053001H
	DD	01142319H
	DD	0700d002dH
	DD	0500cH
xdata	ENDS
;	COMDAT xdata
xdata	SEGMENT
$unwind$?Initialize@CThorn@Client@@UEAAJPEAX@Z DD 025063001H
	DD	01142319H
	DD	0700d004eH
	DD	0500b600cH
xdata	ENDS
;	COMDAT xdata
xdata	SEGMENT
$unwind$?Initialize_Prototype@CThorn@Client@@UEAAJXZ DD 025052a01H
	DD	010e2313H
	DD	07007001dH
	DD	05006H
xdata	ENDS
;	COMDAT xdata
xdata	SEGMENT
$unwind$??1CThorn@Client@@EEAA@XZ DD 025052a01H
	DD	010e2313H
	DD	07007001dH
	DD	05006H
xdata	ENDS
;	COMDAT xdata
xdata	SEGMENT
$unwind$?dtor$0@?0???0CThorn@Client@@AEAA@PEAUID3D11Device@@PEAUID3D11DeviceContext@@@Z@4HA DD 031001H
	DD	0700c4210H
	DD	0500bH
xdata	ENDS
;	COMDAT xdata
xdata	SEGMENT
$ip2state$??0CThorn@Client@@AEAA@PEAUID3D11Device@@PEAUID3D11DeviceContext@@@Z DD imagerel ??0CThorn@Client@@AEAA@PEAUID3D11Device@@PEAUID3D11DeviceContext@@@Z
	DD	0ffffffffH
	DD	imagerel ??0CThorn@Client@@AEAA@PEAUID3D11Device@@PEAUID3D11DeviceContext@@@Z+91
	DD	00H
	DD	imagerel ??0CThorn@Client@@AEAA@PEAUID3D11Device@@PEAUID3D11DeviceContext@@@Z+1014
	DD	0ffffffffH
xdata	ENDS
;	COMDAT xdata
xdata	SEGMENT
$stateUnwindMap$??0CThorn@Client@@AEAA@PEAUID3D11Device@@PEAUID3D11DeviceContext@@@Z DD 0ffffffffH
	DD	imagerel ?dtor$0@?0???0CThorn@Client@@AEAA@PEAUID3D11Device@@PEAUID3D11DeviceContext@@@Z@4HA
xdata	ENDS
;	COMDAT CONST
CONST	SEGMENT
$cppxdata$??0CThorn@Client@@AEAA@PEAUID3D11Device@@PEAUID3D11DeviceContext@@@Z DD 019930522H
	DD	01H
	DD	imagerel $stateUnwindMap$??0CThorn@Client@@AEAA@PEAUID3D11Device@@PEAUID3D11DeviceContext@@@Z
	DD	00H
	DD	00H
	DD	03H
	DD	imagerel $ip2state$??0CThorn@Client@@AEAA@PEAUID3D11Device@@PEAUID3D11DeviceContext@@@Z
	DD	0e8H
	DD	00H
	DD	01H
CONST	ENDS
;	COMDAT xdata
xdata	SEGMENT
$unwind$??0CThorn@Client@@AEAA@PEAUID3D11Device@@PEAUID3D11DeviceContext@@@Z DD 025053f11H
	DD	0118231dH
	DD	070110021H
	DD	05010H
	DD	imagerel __CxxFrameHandler3
	DD	imagerel $cppxdata$??0CThorn@Client@@AEAA@PEAUID3D11Device@@PEAUID3D11DeviceContext@@@Z
xdata	ENDS
;	COMDAT xdata
xdata	SEGMENT
$unwind$??0tagColliderDesc@CCollider@Engine@@QEAA@XZ DD 025052a01H
	DD	010e2313H
	DD	07007001dH
	DD	05006H
xdata	ENDS
;	COMDAT xdata
xdata	SEGMENT
$unwind$?XMVector3Normalize@DirectX@@YQ?AT__m128@@T2@@Z DD 035052a01H
	DD	010a330fH
	DD	0700300dfH
	DD	05002H
xdata	ENDS
;	COMDAT xdata
xdata	SEGMENT
$unwind$?XMVector3Length@DirectX@@YQ?AT__m128@@T2@@Z DD 015052a01H
	DD	010a130fH
	DD	070030057H
	DD	05002H
xdata	ENDS
;	COMDAT xdata
xdata	SEGMENT
$unwind$?XMVector3Cross@DirectX@@YQ?AT__m128@@T2@0@Z DD 035053601H
	DD	010a330fH
	DD	07003008bH
	DD	05002H
xdata	ENDS
;	COMDAT xdata
xdata	SEGMENT
$unwind$?XMVectorScale@DirectX@@YQ?AT__m128@@T2@M@Z DD 015052f01H
	DD	010f1314H
	DD	070080033H
	DD	05007H
xdata	ENDS
;	COMDAT xdata
xdata	SEGMENT
$unwind$?XMVectorSubtract@DirectX@@YQ?AT__m128@@T2@0@Z DD 015053601H
	DD	010a130fH
	DD	07003002dH
	DD	05002H
xdata	ENDS
;	COMDAT xdata
xdata	SEGMENT
$unwind$?XMVectorAdd@DirectX@@YQ?AT__m128@@T2@0@Z DD 015053601H
	DD	010a130fH
	DD	07003002dH
	DD	05002H
xdata	ENDS
;	COMDAT xdata
xdata	SEGMENT
$unwind$?XMVectorNegate@DirectX@@YQ?AT__m128@@T2@@Z DD 015052a01H
	DD	010a130fH
	DD	070030033H
	DD	05002H
xdata	ENDS
;	COMDAT xdata
xdata	SEGMENT
$unwind$?XMVectorSetY@DirectX@@YQ?AT__m128@@T2@M@Z DD 015052f01H
	DD	010f1314H
	DD	070080045H
	DD	05007H
xdata	ENDS
;	COMDAT xdata
xdata	SEGMENT
$unwind$?XMVectorGetY@DirectX@@YQMT__m128@@@Z DD 015052a01H
	DD	010a130fH
	DD	07003002dH
	DD	05002H
xdata	ENDS
;	COMDAT xdata
xdata	SEGMENT
$unwind$?XMVectorGetX@DirectX@@YQMT__m128@@@Z DD 015052a01H
	DD	010a130fH
	DD	070030021H
	DD	05002H
xdata	ENDS
;	COMDAT xdata
xdata	SEGMENT
$unwind$?XMVectorSet@DirectX@@YQ?AT__m128@@MMMM@Z DD 015053501H
	DD	01211326H
	DD	0701a0021H
	DD	05019H
xdata	ENDS
;	COMDAT xdata
xdata	SEGMENT
$unwind$?XMLoadFloat4x4@DirectX@@YQ?AUXMMATRIX@1@PEBUXMFLOAT4X4@1@@Z DD 035053b19H
	DD	010e3313H
	DD	070070043H
	DD	05006H
	DD	imagerel __GSHandlerCheck
	DD	0208H
xdata	ENDS
;	COMDAT CONST
CONST	SEGMENT
?XMLoadFloat4x4@DirectX@@YQ?AUXMMATRIX@1@PEBUXMFLOAT4X4@1@@Z$rtcName$0 DB 04dH ; DirectX::XMLoadFloat4x4
	DB	00H
	ORG $+14
?XMLoadFloat4x4@DirectX@@YQ?AUXMMATRIX@1@PEBUXMFLOAT4X4@1@@Z$rtcVarDesc DD 040H ; DirectX::XMLoadFloat4x4
	DD	040H
	DQ	FLAT:?XMLoadFloat4x4@DirectX@@YQ?AUXMMATRIX@1@PEBUXMFLOAT4X4@1@@Z$rtcName$0
	ORG $+48
?XMLoadFloat4x4@DirectX@@YQ?AUXMMATRIX@1@PEBUXMFLOAT4X4@1@@Z$rtcFrameData DD 01H ; DirectX::XMLoadFloat4x4
	DD	00H
	DQ	FLAT:?XMLoadFloat4x4@DirectX@@YQ?AUXMMATRIX@1@PEBUXMFLOAT4X4@1@@Z$rtcVarDesc
CONST	ENDS
;	COMDAT xdata
xdata	SEGMENT
$unwind$?XMLoadFloat4@DirectX@@YQ?AT__m128@@PEBUXMFLOAT4@1@@Z DD 035052a01H
	DD	010e3313H
	DD	070070025H
	DD	05006H
xdata	ENDS
;	COMDAT xdata
xdata	SEGMENT
$unwind$??4XMFLOAT3@DirectX@@QEAAAEAU01@AEBU01@@Z DD 05052d01H
	DD	01130316H
	DD	0700c0019H
	DD	0500bH
xdata	ENDS
;	COMDAT xdata
xdata	SEGMENT
$unwind$??0XMFLOAT3@DirectX@@QEAA@MMM@Z DD 05053a01H
	DD	01200323H
	DD	070190019H
	DD	05018H
xdata	ENDS
;	COMDAT xdata
xdata	SEGMENT
$unwind$??0XMFLOAT3@DirectX@@QEAA@XZ DD 05052801H
	DD	010e0311H
	DD	070070019H
	DD	05006H
xdata	ENDS
;	COMDAT xdata
xdata	SEGMENT
$unwind$??0XMMATRIX@DirectX@@QEAA@XZ DD 05052801H
	DD	010e0311H
	DD	070070019H
	DD	05006H
xdata	ENDS
;	COMDAT xdata
xdata	SEGMENT
$unwind$??DDirectX@@YQ?AT__m128@@T1@M@Z DD 035052f01H
	DD	010f3314H
	DD	07008002bH
	DD	05007H
xdata	ENDS
;	COMDAT xdata
xdata	SEGMENT
$unwind$??GDirectX@@YQ?AT__m128@@T1@0@Z DD 035053601H
	DD	010a330fH
	DD	070030031H
	DD	05002H
xdata	ENDS
;	COMDAT xdata
xdata	SEGMENT
$unwind$??HDirectX@@YQ?AT__m128@@T1@0@Z DD 035053601H
	DD	010a330fH
	DD	070030031H
	DD	05002H
xdata	ENDS
;	COMDAT xdata
xdata	SEGMENT
$unwind$??GDirectX@@YQ?AT__m128@@T1@@Z DD 035052a01H
	DD	010a330fH
	DD	07003002bH
	DD	05002H
xdata	ENDS
;	COMDAT xdata
xdata	SEGMENT
$unwind$??BXMVECTORU32@DirectX@@QEBA?AT__m128@@XZ DD 05052d01H
	DD	01130316H
	DD	0700c0019H
	DD	0500bH
xdata	ENDS
;	COMDAT xdata
xdata	SEGMENT
$unwind$??BXMVECTORI32@DirectX@@QEBA?AT__m128@@XZ DD 05052d01H
	DD	01130316H
	DD	0700c0019H
	DD	0500bH
xdata	ENDS
;	COMDAT xdata
xdata	SEGMENT
$unwind$?XMConvertToRadians@DirectX@@YAMM@Z DD 015052301H
	DD	010f1314H
	DD	07008001bH
	DD	05007H
xdata	ENDS
;	COMDAT xdata
xdata	SEGMENT
$unwind$?__empty_global_delete@@YAXPEAX_K@Z DD 05052d01H
	DD	01130316H
	DD	0700c0019H
	DD	0500bH
xdata	ENDS
;	COMDAT xdata
xdata	SEGMENT
$unwind$?__empty_global_delete@@YAXPEAX@Z DD 05052801H
	DD	010e0311H
	DD	070070019H
	DD	05006H
xdata	ENDS
;	COMDAT xdata
xdata	SEGMENT
$unwind$??_H@YAXPEAX_K1P6APEAX0@Z@Z DD 025053901H
	DD	011d2322H
	DD	07016001fH
	DD	05015H
xdata	ENDS
; Function compile flags: /Odtp /RTCsu /ZI
; File c:\users\arcco\documents\github\framework\reference\headers\engine_template.h
;	COMDAT ??$Safe_Release@PEAVCTexture@Engine@@@Engine@@YAKAEAPEAVCTexture@0@@Z
_TEXT	SEGMENT
dwRefCnt$ = 4
classType$ = 256
??$Safe_Release@PEAVCTexture@Engine@@@Engine@@YAKAEAPEAVCTexture@0@@Z PROC ; Engine::Safe_Release<Engine::CTexture * __ptr64>, COMDAT

; 18   : 	{

$LN5:
  00000	48 89 4c 24 08	 mov	 QWORD PTR [rsp+8], rcx
  00005	55		 push	 rbp
  00006	57		 push	 rdi
  00007	48 81 ec 08 01
	00 00		 sub	 rsp, 264		; 00000108H
  0000e	48 8d 6c 24 20	 lea	 rbp, QWORD PTR [rsp+32]
  00013	48 8b fc	 mov	 rdi, rsp
  00016	b9 42 00 00 00	 mov	 ecx, 66			; 00000042H
  0001b	b8 cc cc cc cc	 mov	 eax, -858993460		; ccccccccH
  00020	f3 ab		 rep stosd
  00022	48 8b 8c 24 28
	01 00 00	 mov	 rcx, QWORD PTR [rsp+296]

; 19   : 		unsigned long dwRefCnt = 0;

  0002a	c7 45 04 00 00
	00 00		 mov	 DWORD PTR dwRefCnt$[rbp], 0

; 20   : 
; 21   : 		if (nullptr != classType)

  00031	48 8b 85 00 01
	00 00		 mov	 rax, QWORD PTR classType$[rbp]
  00038	48 83 38 00	 cmp	 QWORD PTR [rax], 0
  0003c	74 27		 je	 SHORT $LN2@Safe_Relea

; 22   : 		{
; 23   : 			dwRefCnt = classType->Release();

  0003e	48 8b 85 00 01
	00 00		 mov	 rax, QWORD PTR classType$[rbp]
  00045	48 8b 08	 mov	 rcx, QWORD PTR [rax]
  00048	ff 15 00 00 00
	00		 call	 QWORD PTR __imp_?Release@CBase@Engine@@QEAAKXZ
  0004e	89 45 04	 mov	 DWORD PTR dwRefCnt$[rbp], eax

; 24   : 
; 25   : 			if (0 == dwRefCnt)

  00051	83 7d 04 00	 cmp	 DWORD PTR dwRefCnt$[rbp], 0
  00055	75 0e		 jne	 SHORT $LN3@Safe_Relea

; 26   : 			{
; 27   : 				classType = nullptr;

  00057	48 8b 85 00 01
	00 00		 mov	 rax, QWORD PTR classType$[rbp]
  0005e	48 c7 00 00 00
	00 00		 mov	 QWORD PTR [rax], 0
$LN3@Safe_Relea:
$LN2@Safe_Relea:

; 28   : 			}
; 29   : 		}
; 30   : 
; 31   : 		return dwRefCnt;

  00065	8b 45 04	 mov	 eax, DWORD PTR dwRefCnt$[rbp]

; 32   : 	}

  00068	48 8d a5 e8 00
	00 00		 lea	 rsp, QWORD PTR [rbp+232]
  0006f	5f		 pop	 rdi
  00070	5d		 pop	 rbp
  00071	c3		 ret	 0
??$Safe_Release@PEAVCTexture@Engine@@@Engine@@YAKAEAPEAVCTexture@0@@Z ENDP ; Engine::Safe_Release<Engine::CTexture * __ptr64>
_TEXT	ENDS
; Function compile flags: /Odtp /RTCsu /ZI
; File c:\users\arcco\documents\github\framework\reference\headers\engine_template.h
;	COMDAT ??$Safe_Release@PEAVCVIBuffer_Rect@Engine@@@Engine@@YAKAEAPEAVCVIBuffer_Rect@0@@Z
_TEXT	SEGMENT
dwRefCnt$ = 4
classType$ = 256
??$Safe_Release@PEAVCVIBuffer_Rect@Engine@@@Engine@@YAKAEAPEAVCVIBuffer_Rect@0@@Z PROC ; Engine::Safe_Release<Engine::CVIBuffer_Rect * __ptr64>, COMDAT

; 18   : 	{

$LN5:
  00000	48 89 4c 24 08	 mov	 QWORD PTR [rsp+8], rcx
  00005	55		 push	 rbp
  00006	57		 push	 rdi
  00007	48 81 ec 08 01
	00 00		 sub	 rsp, 264		; 00000108H
  0000e	48 8d 6c 24 20	 lea	 rbp, QWORD PTR [rsp+32]
  00013	48 8b fc	 mov	 rdi, rsp
  00016	b9 42 00 00 00	 mov	 ecx, 66			; 00000042H
  0001b	b8 cc cc cc cc	 mov	 eax, -858993460		; ccccccccH
  00020	f3 ab		 rep stosd
  00022	48 8b 8c 24 28
	01 00 00	 mov	 rcx, QWORD PTR [rsp+296]

; 19   : 		unsigned long dwRefCnt = 0;

  0002a	c7 45 04 00 00
	00 00		 mov	 DWORD PTR dwRefCnt$[rbp], 0

; 20   : 
; 21   : 		if (nullptr != classType)

  00031	48 8b 85 00 01
	00 00		 mov	 rax, QWORD PTR classType$[rbp]
  00038	48 83 38 00	 cmp	 QWORD PTR [rax], 0
  0003c	74 27		 je	 SHORT $LN2@Safe_Relea

; 22   : 		{
; 23   : 			dwRefCnt = classType->Release();

  0003e	48 8b 85 00 01
	00 00		 mov	 rax, QWORD PTR classType$[rbp]
  00045	48 8b 08	 mov	 rcx, QWORD PTR [rax]
  00048	ff 15 00 00 00
	00		 call	 QWORD PTR __imp_?Release@CBase@Engine@@QEAAKXZ
  0004e	89 45 04	 mov	 DWORD PTR dwRefCnt$[rbp], eax

; 24   : 
; 25   : 			if (0 == dwRefCnt)

  00051	83 7d 04 00	 cmp	 DWORD PTR dwRefCnt$[rbp], 0
  00055	75 0e		 jne	 SHORT $LN3@Safe_Relea

; 26   : 			{
; 27   : 				classType = nullptr;

  00057	48 8b 85 00 01
	00 00		 mov	 rax, QWORD PTR classType$[rbp]
  0005e	48 c7 00 00 00
	00 00		 mov	 QWORD PTR [rax], 0
$LN3@Safe_Relea:
$LN2@Safe_Relea:

; 28   : 			}
; 29   : 		}
; 30   : 
; 31   : 		return dwRefCnt;

  00065	8b 45 04	 mov	 eax, DWORD PTR dwRefCnt$[rbp]

; 32   : 	}

  00068	48 8d a5 e8 00
	00 00		 lea	 rsp, QWORD PTR [rbp+232]
  0006f	5f		 pop	 rdi
  00070	5d		 pop	 rbp
  00071	c3		 ret	 0
??$Safe_Release@PEAVCVIBuffer_Rect@Engine@@@Engine@@YAKAEAPEAVCVIBuffer_Rect@0@@Z ENDP ; Engine::Safe_Release<Engine::CVIBuffer_Rect * __ptr64>
_TEXT	ENDS
; Function compile flags: /Odtp /RTCsu /ZI
; File c:\users\arcco\documents\github\framework\reference\headers\engine_template.h
;	COMDAT ??$Safe_Release@PEAVCShader@Engine@@@Engine@@YAKAEAPEAVCShader@0@@Z
_TEXT	SEGMENT
dwRefCnt$ = 4
classType$ = 256
??$Safe_Release@PEAVCShader@Engine@@@Engine@@YAKAEAPEAVCShader@0@@Z PROC ; Engine::Safe_Release<Engine::CShader * __ptr64>, COMDAT

; 18   : 	{

$LN5:
  00000	48 89 4c 24 08	 mov	 QWORD PTR [rsp+8], rcx
  00005	55		 push	 rbp
  00006	57		 push	 rdi
  00007	48 81 ec 08 01
	00 00		 sub	 rsp, 264		; 00000108H
  0000e	48 8d 6c 24 20	 lea	 rbp, QWORD PTR [rsp+32]
  00013	48 8b fc	 mov	 rdi, rsp
  00016	b9 42 00 00 00	 mov	 ecx, 66			; 00000042H
  0001b	b8 cc cc cc cc	 mov	 eax, -858993460		; ccccccccH
  00020	f3 ab		 rep stosd
  00022	48 8b 8c 24 28
	01 00 00	 mov	 rcx, QWORD PTR [rsp+296]

; 19   : 		unsigned long dwRefCnt = 0;

  0002a	c7 45 04 00 00
	00 00		 mov	 DWORD PTR dwRefCnt$[rbp], 0

; 20   : 
; 21   : 		if (nullptr != classType)

  00031	48 8b 85 00 01
	00 00		 mov	 rax, QWORD PTR classType$[rbp]
  00038	48 83 38 00	 cmp	 QWORD PTR [rax], 0
  0003c	74 27		 je	 SHORT $LN2@Safe_Relea

; 22   : 		{
; 23   : 			dwRefCnt = classType->Release();

  0003e	48 8b 85 00 01
	00 00		 mov	 rax, QWORD PTR classType$[rbp]
  00045	48 8b 08	 mov	 rcx, QWORD PTR [rax]
  00048	ff 15 00 00 00
	00		 call	 QWORD PTR __imp_?Release@CBase@Engine@@QEAAKXZ
  0004e	89 45 04	 mov	 DWORD PTR dwRefCnt$[rbp], eax

; 24   : 
; 25   : 			if (0 == dwRefCnt)

  00051	83 7d 04 00	 cmp	 DWORD PTR dwRefCnt$[rbp], 0
  00055	75 0e		 jne	 SHORT $LN3@Safe_Relea

; 26   : 			{
; 27   : 				classType = nullptr;

  00057	48 8b 85 00 01
	00 00		 mov	 rax, QWORD PTR classType$[rbp]
  0005e	48 c7 00 00 00
	00 00		 mov	 QWORD PTR [rax], 0
$LN3@Safe_Relea:
$LN2@Safe_Relea:

; 28   : 			}
; 29   : 		}
; 30   : 
; 31   : 		return dwRefCnt;

  00065	8b 45 04	 mov	 eax, DWORD PTR dwRefCnt$[rbp]

; 32   : 	}

  00068	48 8d a5 e8 00
	00 00		 lea	 rsp, QWORD PTR [rbp+232]
  0006f	5f		 pop	 rdi
  00070	5d		 pop	 rbp
  00071	c3		 ret	 0
??$Safe_Release@PEAVCShader@Engine@@@Engine@@YAKAEAPEAVCShader@0@@Z ENDP ; Engine::Safe_Release<Engine::CShader * __ptr64>
_TEXT	ENDS
; Function compile flags: /Odtp /RTCsu /ZI
; File c:\users\arcco\documents\github\framework\reference\headers\engine_template.h
;	COMDAT ??$Safe_Release@PEAVCModel@Engine@@@Engine@@YAKAEAPEAVCModel@0@@Z
_TEXT	SEGMENT
dwRefCnt$ = 4
classType$ = 256
??$Safe_Release@PEAVCModel@Engine@@@Engine@@YAKAEAPEAVCModel@0@@Z PROC ; Engine::Safe_Release<Engine::CModel * __ptr64>, COMDAT

; 18   : 	{

$LN5:
  00000	48 89 4c 24 08	 mov	 QWORD PTR [rsp+8], rcx
  00005	55		 push	 rbp
  00006	57		 push	 rdi
  00007	48 81 ec 08 01
	00 00		 sub	 rsp, 264		; 00000108H
  0000e	48 8d 6c 24 20	 lea	 rbp, QWORD PTR [rsp+32]
  00013	48 8b fc	 mov	 rdi, rsp
  00016	b9 42 00 00 00	 mov	 ecx, 66			; 00000042H
  0001b	b8 cc cc cc cc	 mov	 eax, -858993460		; ccccccccH
  00020	f3 ab		 rep stosd
  00022	48 8b 8c 24 28
	01 00 00	 mov	 rcx, QWORD PTR [rsp+296]

; 19   : 		unsigned long dwRefCnt = 0;

  0002a	c7 45 04 00 00
	00 00		 mov	 DWORD PTR dwRefCnt$[rbp], 0

; 20   : 
; 21   : 		if (nullptr != classType)

  00031	48 8b 85 00 01
	00 00		 mov	 rax, QWORD PTR classType$[rbp]
  00038	48 83 38 00	 cmp	 QWORD PTR [rax], 0
  0003c	74 27		 je	 SHORT $LN2@Safe_Relea

; 22   : 		{
; 23   : 			dwRefCnt = classType->Release();

  0003e	48 8b 85 00 01
	00 00		 mov	 rax, QWORD PTR classType$[rbp]
  00045	48 8b 08	 mov	 rcx, QWORD PTR [rax]
  00048	ff 15 00 00 00
	00		 call	 QWORD PTR __imp_?Release@CBase@Engine@@QEAAKXZ
  0004e	89 45 04	 mov	 DWORD PTR dwRefCnt$[rbp], eax

; 24   : 
; 25   : 			if (0 == dwRefCnt)

  00051	83 7d 04 00	 cmp	 DWORD PTR dwRefCnt$[rbp], 0
  00055	75 0e		 jne	 SHORT $LN3@Safe_Relea

; 26   : 			{
; 27   : 				classType = nullptr;

  00057	48 8b 85 00 01
	00 00		 mov	 rax, QWORD PTR classType$[rbp]
  0005e	48 c7 00 00 00
	00 00		 mov	 QWORD PTR [rax], 0
$LN3@Safe_Relea:
$LN2@Safe_Relea:

; 28   : 			}
; 29   : 		}
; 30   : 
; 31   : 		return dwRefCnt;

  00065	8b 45 04	 mov	 eax, DWORD PTR dwRefCnt$[rbp]

; 32   : 	}

  00068	48 8d a5 e8 00
	00 00		 lea	 rsp, QWORD PTR [rbp+232]
  0006f	5f		 pop	 rdi
  00070	5d		 pop	 rbp
  00071	c3		 ret	 0
??$Safe_Release@PEAVCModel@Engine@@@Engine@@YAKAEAPEAVCModel@0@@Z ENDP ; Engine::Safe_Release<Engine::CModel * __ptr64>
_TEXT	ENDS
; Function compile flags: /Odtp /RTCsu /ZI
; File c:\users\arcco\documents\github\framework\reference\headers\engine_template.h
;	COMDAT ??$Safe_Release@PEAVCTransform@Engine@@@Engine@@YAKAEAPEAVCTransform@0@@Z
_TEXT	SEGMENT
dwRefCnt$ = 4
classType$ = 256
??$Safe_Release@PEAVCTransform@Engine@@@Engine@@YAKAEAPEAVCTransform@0@@Z PROC ; Engine::Safe_Release<Engine::CTransform * __ptr64>, COMDAT

; 18   : 	{

$LN5:
  00000	48 89 4c 24 08	 mov	 QWORD PTR [rsp+8], rcx
  00005	55		 push	 rbp
  00006	57		 push	 rdi
  00007	48 81 ec 08 01
	00 00		 sub	 rsp, 264		; 00000108H
  0000e	48 8d 6c 24 20	 lea	 rbp, QWORD PTR [rsp+32]
  00013	48 8b fc	 mov	 rdi, rsp
  00016	b9 42 00 00 00	 mov	 ecx, 66			; 00000042H
  0001b	b8 cc cc cc cc	 mov	 eax, -858993460		; ccccccccH
  00020	f3 ab		 rep stosd
  00022	48 8b 8c 24 28
	01 00 00	 mov	 rcx, QWORD PTR [rsp+296]

; 19   : 		unsigned long dwRefCnt = 0;

  0002a	c7 45 04 00 00
	00 00		 mov	 DWORD PTR dwRefCnt$[rbp], 0

; 20   : 
; 21   : 		if (nullptr != classType)

  00031	48 8b 85 00 01
	00 00		 mov	 rax, QWORD PTR classType$[rbp]
  00038	48 83 38 00	 cmp	 QWORD PTR [rax], 0
  0003c	74 27		 je	 SHORT $LN2@Safe_Relea

; 22   : 		{
; 23   : 			dwRefCnt = classType->Release();

  0003e	48 8b 85 00 01
	00 00		 mov	 rax, QWORD PTR classType$[rbp]
  00045	48 8b 08	 mov	 rcx, QWORD PTR [rax]
  00048	ff 15 00 00 00
	00		 call	 QWORD PTR __imp_?Release@CBase@Engine@@QEAAKXZ
  0004e	89 45 04	 mov	 DWORD PTR dwRefCnt$[rbp], eax

; 24   : 
; 25   : 			if (0 == dwRefCnt)

  00051	83 7d 04 00	 cmp	 DWORD PTR dwRefCnt$[rbp], 0
  00055	75 0e		 jne	 SHORT $LN3@Safe_Relea

; 26   : 			{
; 27   : 				classType = nullptr;

  00057	48 8b 85 00 01
	00 00		 mov	 rax, QWORD PTR classType$[rbp]
  0005e	48 c7 00 00 00
	00 00		 mov	 QWORD PTR [rax], 0
$LN3@Safe_Relea:
$LN2@Safe_Relea:

; 28   : 			}
; 29   : 		}
; 30   : 
; 31   : 		return dwRefCnt;

  00065	8b 45 04	 mov	 eax, DWORD PTR dwRefCnt$[rbp]

; 32   : 	}

  00068	48 8d a5 e8 00
	00 00		 lea	 rsp, QWORD PTR [rbp+232]
  0006f	5f		 pop	 rdi
  00070	5d		 pop	 rbp
  00071	c3		 ret	 0
??$Safe_Release@PEAVCTransform@Engine@@@Engine@@YAKAEAPEAVCTransform@0@@Z ENDP ; Engine::Safe_Release<Engine::CTransform * __ptr64>
_TEXT	ENDS
; Function compile flags: /Odtp /RTCsu /ZI
; File c:\users\arcco\documents\github\framework\reference\headers\engine_template.h
;	COMDAT ??$Safe_Release@PEAVCRenderer@Engine@@@Engine@@YAKAEAPEAVCRenderer@0@@Z
_TEXT	SEGMENT
dwRefCnt$ = 4
classType$ = 256
??$Safe_Release@PEAVCRenderer@Engine@@@Engine@@YAKAEAPEAVCRenderer@0@@Z PROC ; Engine::Safe_Release<Engine::CRenderer * __ptr64>, COMDAT

; 18   : 	{

$LN5:
  00000	48 89 4c 24 08	 mov	 QWORD PTR [rsp+8], rcx
  00005	55		 push	 rbp
  00006	57		 push	 rdi
  00007	48 81 ec 08 01
	00 00		 sub	 rsp, 264		; 00000108H
  0000e	48 8d 6c 24 20	 lea	 rbp, QWORD PTR [rsp+32]
  00013	48 8b fc	 mov	 rdi, rsp
  00016	b9 42 00 00 00	 mov	 ecx, 66			; 00000042H
  0001b	b8 cc cc cc cc	 mov	 eax, -858993460		; ccccccccH
  00020	f3 ab		 rep stosd
  00022	48 8b 8c 24 28
	01 00 00	 mov	 rcx, QWORD PTR [rsp+296]

; 19   : 		unsigned long dwRefCnt = 0;

  0002a	c7 45 04 00 00
	00 00		 mov	 DWORD PTR dwRefCnt$[rbp], 0

; 20   : 
; 21   : 		if (nullptr != classType)

  00031	48 8b 85 00 01
	00 00		 mov	 rax, QWORD PTR classType$[rbp]
  00038	48 83 38 00	 cmp	 QWORD PTR [rax], 0
  0003c	74 27		 je	 SHORT $LN2@Safe_Relea

; 22   : 		{
; 23   : 			dwRefCnt = classType->Release();

  0003e	48 8b 85 00 01
	00 00		 mov	 rax, QWORD PTR classType$[rbp]
  00045	48 8b 08	 mov	 rcx, QWORD PTR [rax]
  00048	ff 15 00 00 00
	00		 call	 QWORD PTR __imp_?Release@CBase@Engine@@QEAAKXZ
  0004e	89 45 04	 mov	 DWORD PTR dwRefCnt$[rbp], eax

; 24   : 
; 25   : 			if (0 == dwRefCnt)

  00051	83 7d 04 00	 cmp	 DWORD PTR dwRefCnt$[rbp], 0
  00055	75 0e		 jne	 SHORT $LN3@Safe_Relea

; 26   : 			{
; 27   : 				classType = nullptr;

  00057	48 8b 85 00 01
	00 00		 mov	 rax, QWORD PTR classType$[rbp]
  0005e	48 c7 00 00 00
	00 00		 mov	 QWORD PTR [rax], 0
$LN3@Safe_Relea:
$LN2@Safe_Relea:

; 28   : 			}
; 29   : 		}
; 30   : 
; 31   : 		return dwRefCnt;

  00065	8b 45 04	 mov	 eax, DWORD PTR dwRefCnt$[rbp]

; 32   : 	}

  00068	48 8d a5 e8 00
	00 00		 lea	 rsp, QWORD PTR [rbp+232]
  0006f	5f		 pop	 rdi
  00070	5d		 pop	 rbp
  00071	c3		 ret	 0
??$Safe_Release@PEAVCRenderer@Engine@@@Engine@@YAKAEAPEAVCRenderer@0@@Z ENDP ; Engine::Safe_Release<Engine::CRenderer * __ptr64>
_TEXT	ENDS
; Function compile flags: /Odtp /RTCsu /ZI
; File c:\users\arcco\documents\github\framework\reference\headers\engine_template.h
;	COMDAT ??$Safe_Release@PEAVCSphereCollider@Engine@@@Engine@@YAKAEAPEAVCSphereCollider@0@@Z
_TEXT	SEGMENT
dwRefCnt$ = 4
classType$ = 256
??$Safe_Release@PEAVCSphereCollider@Engine@@@Engine@@YAKAEAPEAVCSphereCollider@0@@Z PROC ; Engine::Safe_Release<Engine::CSphereCollider * __ptr64>, COMDAT

; 18   : 	{

$LN5:
  00000	48 89 4c 24 08	 mov	 QWORD PTR [rsp+8], rcx
  00005	55		 push	 rbp
  00006	57		 push	 rdi
  00007	48 81 ec 08 01
	00 00		 sub	 rsp, 264		; 00000108H
  0000e	48 8d 6c 24 20	 lea	 rbp, QWORD PTR [rsp+32]
  00013	48 8b fc	 mov	 rdi, rsp
  00016	b9 42 00 00 00	 mov	 ecx, 66			; 00000042H
  0001b	b8 cc cc cc cc	 mov	 eax, -858993460		; ccccccccH
  00020	f3 ab		 rep stosd
  00022	48 8b 8c 24 28
	01 00 00	 mov	 rcx, QWORD PTR [rsp+296]

; 19   : 		unsigned long dwRefCnt = 0;

  0002a	c7 45 04 00 00
	00 00		 mov	 DWORD PTR dwRefCnt$[rbp], 0

; 20   : 
; 21   : 		if (nullptr != classType)

  00031	48 8b 85 00 01
	00 00		 mov	 rax, QWORD PTR classType$[rbp]
  00038	48 83 38 00	 cmp	 QWORD PTR [rax], 0
  0003c	74 27		 je	 SHORT $LN2@Safe_Relea

; 22   : 		{
; 23   : 			dwRefCnt = classType->Release();

  0003e	48 8b 85 00 01
	00 00		 mov	 rax, QWORD PTR classType$[rbp]
  00045	48 8b 08	 mov	 rcx, QWORD PTR [rax]
  00048	ff 15 00 00 00
	00		 call	 QWORD PTR __imp_?Release@CBase@Engine@@QEAAKXZ
  0004e	89 45 04	 mov	 DWORD PTR dwRefCnt$[rbp], eax

; 24   : 
; 25   : 			if (0 == dwRefCnt)

  00051	83 7d 04 00	 cmp	 DWORD PTR dwRefCnt$[rbp], 0
  00055	75 0e		 jne	 SHORT $LN3@Safe_Relea

; 26   : 			{
; 27   : 				classType = nullptr;

  00057	48 8b 85 00 01
	00 00		 mov	 rax, QWORD PTR classType$[rbp]
  0005e	48 c7 00 00 00
	00 00		 mov	 QWORD PTR [rax], 0
$LN3@Safe_Relea:
$LN2@Safe_Relea:

; 28   : 			}
; 29   : 		}
; 30   : 
; 31   : 		return dwRefCnt;

  00065	8b 45 04	 mov	 eax, DWORD PTR dwRefCnt$[rbp]

; 32   : 	}

  00068	48 8d a5 e8 00
	00 00		 lea	 rsp, QWORD PTR [rbp+232]
  0006f	5f		 pop	 rdi
  00070	5d		 pop	 rbp
  00071	c3		 ret	 0
??$Safe_Release@PEAVCSphereCollider@Engine@@@Engine@@YAKAEAPEAVCSphereCollider@0@@Z ENDP ; Engine::Safe_Release<Engine::CSphereCollider * __ptr64>
_TEXT	ENDS
; Function compile flags: /Odtp /RTCsu /ZI
; File c:\users\arcco\documents\github\framework\reference\headers\engine_template.h
;	COMDAT ??$Safe_Release@PEAVCThorn@Client@@@Engine@@YAKAEAPEAVCThorn@Client@@@Z
_TEXT	SEGMENT
dwRefCnt$ = 4
classType$ = 256
??$Safe_Release@PEAVCThorn@Client@@@Engine@@YAKAEAPEAVCThorn@Client@@@Z PROC ; Engine::Safe_Release<Client::CThorn * __ptr64>, COMDAT

; 18   : 	{

$LN5:
  00000	48 89 4c 24 08	 mov	 QWORD PTR [rsp+8], rcx
  00005	55		 push	 rbp
  00006	57		 push	 rdi
  00007	48 81 ec 08 01
	00 00		 sub	 rsp, 264		; 00000108H
  0000e	48 8d 6c 24 20	 lea	 rbp, QWORD PTR [rsp+32]
  00013	48 8b fc	 mov	 rdi, rsp
  00016	b9 42 00 00 00	 mov	 ecx, 66			; 00000042H
  0001b	b8 cc cc cc cc	 mov	 eax, -858993460		; ccccccccH
  00020	f3 ab		 rep stosd
  00022	48 8b 8c 24 28
	01 00 00	 mov	 rcx, QWORD PTR [rsp+296]

; 19   : 		unsigned long dwRefCnt = 0;

  0002a	c7 45 04 00 00
	00 00		 mov	 DWORD PTR dwRefCnt$[rbp], 0

; 20   : 
; 21   : 		if (nullptr != classType)

  00031	48 8b 85 00 01
	00 00		 mov	 rax, QWORD PTR classType$[rbp]
  00038	48 83 38 00	 cmp	 QWORD PTR [rax], 0
  0003c	74 27		 je	 SHORT $LN2@Safe_Relea

; 22   : 		{
; 23   : 			dwRefCnt = classType->Release();

  0003e	48 8b 85 00 01
	00 00		 mov	 rax, QWORD PTR classType$[rbp]
  00045	48 8b 08	 mov	 rcx, QWORD PTR [rax]
  00048	ff 15 00 00 00
	00		 call	 QWORD PTR __imp_?Release@CBase@Engine@@QEAAKXZ
  0004e	89 45 04	 mov	 DWORD PTR dwRefCnt$[rbp], eax

; 24   : 
; 25   : 			if (0 == dwRefCnt)

  00051	83 7d 04 00	 cmp	 DWORD PTR dwRefCnt$[rbp], 0
  00055	75 0e		 jne	 SHORT $LN3@Safe_Relea

; 26   : 			{
; 27   : 				classType = nullptr;

  00057	48 8b 85 00 01
	00 00		 mov	 rax, QWORD PTR classType$[rbp]
  0005e	48 c7 00 00 00
	00 00		 mov	 QWORD PTR [rax], 0
$LN3@Safe_Relea:
$LN2@Safe_Relea:

; 28   : 			}
; 29   : 		}
; 30   : 
; 31   : 		return dwRefCnt;

  00065	8b 45 04	 mov	 eax, DWORD PTR dwRefCnt$[rbp]

; 32   : 	}

  00068	48 8d a5 e8 00
	00 00		 lea	 rsp, QWORD PTR [rbp+232]
  0006f	5f		 pop	 rdi
  00070	5d		 pop	 rbp
  00071	c3		 ret	 0
??$Safe_Release@PEAVCThorn@Client@@@Engine@@YAKAEAPEAVCThorn@Client@@@Z ENDP ; Engine::Safe_Release<Client::CThorn * __ptr64>
_TEXT	ENDS
; Function compile flags: /Odtp /RTCsu /ZI
; File c:\users\arcco\documents\github\framework\client\public\character.h
;	COMDAT ?GetBodyCollider@CCharacter@Client@@QEBAPEAVCCollider@Engine@@XZ
_TEXT	SEGMENT
this$ = 224
?GetBodyCollider@CCharacter@Client@@QEBAPEAVCCollider@Engine@@XZ PROC ; Client::CCharacter::GetBodyCollider, COMDAT

; 239  : 	class CCollider* GetBodyCollider() const { return mCollider; };

$LN3:
  00000	48 89 4c 24 08	 mov	 QWORD PTR [rsp+8], rcx
  00005	55		 push	 rbp
  00006	57		 push	 rdi
  00007	48 81 ec c8 00
	00 00		 sub	 rsp, 200		; 000000c8H
  0000e	48 8b ec	 mov	 rbp, rsp
  00011	48 8b fc	 mov	 rdi, rsp
  00014	b9 32 00 00 00	 mov	 ecx, 50			; 00000032H
  00019	b8 cc cc cc cc	 mov	 eax, -858993460		; ccccccccH
  0001e	f3 ab		 rep stosd
  00020	48 8b 8c 24 e8
	00 00 00	 mov	 rcx, QWORD PTR [rsp+232]
  00028	48 8b 85 e0 00
	00 00		 mov	 rax, QWORD PTR this$[rbp]
  0002f	48 8b 80 b0 00
	00 00		 mov	 rax, QWORD PTR [rax+176]
  00036	48 8d a5 c8 00
	00 00		 lea	 rsp, QWORD PTR [rbp+200]
  0003d	5f		 pop	 rdi
  0003e	5d		 pop	 rbp
  0003f	c3		 ret	 0
?GetBodyCollider@CCharacter@Client@@QEBAPEAVCCollider@Engine@@XZ ENDP ; Client::CCharacter::GetBodyCollider
_TEXT	ENDS
; Function compile flags: /Odtp /RTCsu /ZI
; File c:\users\arcco\documents\github\framework\client\public\applicationmanager.h
;	COMDAT ?IsFreeze@CApplicationManager@Client@@QEBA_NXZ
_TEXT	SEGMENT
this$ = 224
?IsFreeze@CApplicationManager@Client@@QEBA_NXZ PROC	; Client::CApplicationManager::IsFreeze, COMDAT

; 25   : 	_bool IsFreeze() const { return m_bFreeze; }

$LN3:
  00000	48 89 4c 24 08	 mov	 QWORD PTR [rsp+8], rcx
  00005	55		 push	 rbp
  00006	57		 push	 rdi
  00007	48 81 ec c8 00
	00 00		 sub	 rsp, 200		; 000000c8H
  0000e	48 8b ec	 mov	 rbp, rsp
  00011	48 8b fc	 mov	 rdi, rsp
  00014	b9 32 00 00 00	 mov	 ecx, 50			; 00000032H
  00019	b8 cc cc cc cc	 mov	 eax, -858993460		; ccccccccH
  0001e	f3 ab		 rep stosd
  00020	48 8b 8c 24 e8
	00 00 00	 mov	 rcx, QWORD PTR [rsp+232]
  00028	48 8b 85 e0 00
	00 00		 mov	 rax, QWORD PTR this$[rbp]
  0002f	0f b6 40 38	 movzx	 eax, BYTE PTR [rax+56]
  00033	48 8d a5 c8 00
	00 00		 lea	 rsp, QWORD PTR [rbp+200]
  0003a	5f		 pop	 rdi
  0003b	5d		 pop	 rbp
  0003c	c3		 ret	 0
?IsFreeze@CApplicationManager@Client@@QEBA_NXZ ENDP	; Client::CApplicationManager::IsFreeze
_TEXT	ENDS
; Function compile flags: /Odtp /RTCsu /ZI
;	COMDAT ??_GCThorn@Client@@EEAAPEAXI@Z
_TEXT	SEGMENT
this$ = 224
__flags$ = 232
??_GCThorn@Client@@EEAAPEAXI@Z PROC			; Client::CThorn::`scalar deleting destructor', COMDAT
$LN4:
  00000	89 54 24 10	 mov	 DWORD PTR [rsp+16], edx
  00004	48 89 4c 24 08	 mov	 QWORD PTR [rsp+8], rcx
  00009	55		 push	 rbp
  0000a	57		 push	 rdi
  0000b	48 81 ec e8 00
	00 00		 sub	 rsp, 232		; 000000e8H
  00012	48 8d 6c 24 20	 lea	 rbp, QWORD PTR [rsp+32]
  00017	48 8b fc	 mov	 rdi, rsp
  0001a	b9 3a 00 00 00	 mov	 ecx, 58			; 0000003aH
  0001f	b8 cc cc cc cc	 mov	 eax, -858993460		; ccccccccH
  00024	f3 ab		 rep stosd
  00026	48 8b 8c 24 08
	01 00 00	 mov	 rcx, QWORD PTR [rsp+264]
  0002e	48 8b 8d e0 00
	00 00		 mov	 rcx, QWORD PTR this$[rbp]
  00035	e8 00 00 00 00	 call	 ??1CThorn@Client@@EEAA@XZ ; Client::CThorn::~CThorn
  0003a	8b 85 e8 00 00
	00		 mov	 eax, DWORD PTR __flags$[rbp]
  00040	83 e0 01	 and	 eax, 1
  00043	85 c0		 test	 eax, eax
  00045	74 11		 je	 SHORT $LN2@scalar
  00047	ba 80 01 00 00	 mov	 edx, 384		; 00000180H
  0004c	48 8b 8d e0 00
	00 00		 mov	 rcx, QWORD PTR this$[rbp]
  00053	e8 00 00 00 00	 call	 ??3@YAXPEAX_K@Z		; operator delete
$LN2@scalar:
  00058	48 8b 85 e0 00
	00 00		 mov	 rax, QWORD PTR this$[rbp]
  0005f	48 8d a5 c8 00
	00 00		 lea	 rsp, QWORD PTR [rbp+200]
  00066	5f		 pop	 rdi
  00067	5d		 pop	 rbp
  00068	c3		 ret	 0
??_GCThorn@Client@@EEAAPEAXI@Z ENDP			; Client::CThorn::`scalar deleting destructor'
_TEXT	ENDS
; Function compile flags: /Odtp /RTCsu /ZI
;	COMDAT ??0CThorn@Client@@QEAA@AEBV01@@Z
_TEXT	SEGMENT
tv158 = 192
tv146 = 192
tv134 = 192
tv90 = 192
this$ = 240
__that$ = 248
??0CThorn@Client@@QEAA@AEBV01@@Z PROC			; Client::CThorn::CThorn, COMDAT
$LN12:
  00000	48 89 54 24 10	 mov	 QWORD PTR [rsp+16], rdx
  00005	48 89 4c 24 08	 mov	 QWORD PTR [rsp+8], rcx
  0000a	55		 push	 rbp
  0000b	56		 push	 rsi
  0000c	57		 push	 rdi
  0000d	48 81 ec f0 00
	00 00		 sub	 rsp, 240		; 000000f0H
  00014	48 8d 6c 24 20	 lea	 rbp, QWORD PTR [rsp+32]
  00019	48 8b fc	 mov	 rdi, rsp
  0001c	b9 3c 00 00 00	 mov	 ecx, 60			; 0000003cH
  00021	b8 cc cc cc cc	 mov	 eax, -858993460		; ccccccccH
  00026	f3 ab		 rep stosd
  00028	48 8b 8c 24 18
	01 00 00	 mov	 rcx, QWORD PTR [rsp+280]
  00030	48 8b 95 f8 00
	00 00		 mov	 rdx, QWORD PTR __that$[rbp]
  00037	48 8b 8d f0 00
	00 00		 mov	 rcx, QWORD PTR this$[rbp]
  0003e	ff 15 00 00 00
	00		 call	 QWORD PTR __imp_??0CGameObject@Engine@@IEAA@AEBV01@@Z
  00044	48 83 bd f8 00
	00 00 00	 cmp	 QWORD PTR __that$[rbp], 0
  0004c	74 14		 je	 SHORT $LN3@CThorn
  0004e	48 8b 85 f8 00
	00 00		 mov	 rax, QWORD PTR __that$[rbp]
  00055	48 83 c0 78	 add	 rax, 120		; 00000078H
  00059	48 89 85 c0 00
	00 00		 mov	 QWORD PTR tv90[rbp], rax
  00060	eb 0b		 jmp	 SHORT $LN4@CThorn
$LN3@CThorn:
  00062	48 c7 85 c0 00
	00 00 00 00 00
	00		 mov	 QWORD PTR tv90[rbp], 0
$LN4@CThorn:
  0006d	48 8b 85 f0 00
	00 00		 mov	 rax, QWORD PTR this$[rbp]
  00074	48 83 c0 78	 add	 rax, 120		; 00000078H
  00078	48 8b 95 c0 00
	00 00		 mov	 rdx, QWORD PTR tv90[rbp]
  0007f	48 8b c8	 mov	 rcx, rax
  00082	ff 15 00 00 00
	00		 call	 QWORD PTR __imp_??0ISameObjectNoDetection@Engine@@QEAA@AEBV01@@Z
  00088	48 83 bd f8 00
	00 00 00	 cmp	 QWORD PTR __that$[rbp], 0
  00090	74 16		 je	 SHORT $LN5@CThorn
  00092	48 8b 85 f8 00
	00 00		 mov	 rax, QWORD PTR __that$[rbp]
  00099	48 05 80 00 00
	00		 add	 rax, 128		; 00000080H
  0009f	48 89 85 c0 00
	00 00		 mov	 QWORD PTR tv134[rbp], rax
  000a6	eb 0b		 jmp	 SHORT $LN6@CThorn
$LN5@CThorn:
  000a8	48 c7 85 c0 00
	00 00 00 00 00
	00		 mov	 QWORD PTR tv134[rbp], 0
$LN6@CThorn:
  000b3	48 8b 85 f0 00
	00 00		 mov	 rax, QWORD PTR this$[rbp]
  000ba	48 05 80 00 00
	00		 add	 rax, 128		; 00000080H
  000c0	48 8b 95 c0 00
	00 00		 mov	 rdx, QWORD PTR tv134[rbp]
  000c7	48 8b c8	 mov	 rcx, rax
  000ca	ff 15 00 00 00
	00		 call	 QWORD PTR __imp_??0IOnCollisionEnter@Engine@@QEAA@AEBV01@@Z
  000d0	48 83 bd f8 00
	00 00 00	 cmp	 QWORD PTR __that$[rbp], 0
  000d8	74 16		 je	 SHORT $LN7@CThorn
  000da	48 8b 85 f8 00
	00 00		 mov	 rax, QWORD PTR __that$[rbp]
  000e1	48 05 88 00 00
	00		 add	 rax, 136		; 00000088H
  000e7	48 89 85 c0 00
	00 00		 mov	 QWORD PTR tv146[rbp], rax
  000ee	eb 0b		 jmp	 SHORT $LN8@CThorn
$LN7@CThorn:
  000f0	48 c7 85 c0 00
	00 00 00 00 00
	00		 mov	 QWORD PTR tv146[rbp], 0
$LN8@CThorn:
  000fb	48 8b 85 f0 00
	00 00		 mov	 rax, QWORD PTR this$[rbp]
  00102	48 05 88 00 00
	00		 add	 rax, 136		; 00000088H
  00108	48 8b 95 c0 00
	00 00		 mov	 rdx, QWORD PTR tv146[rbp]
  0010f	48 8b c8	 mov	 rcx, rax
  00112	ff 15 00 00 00
	00		 call	 QWORD PTR __imp_??0IOnCollisionStay@Engine@@QEAA@AEBV01@@Z
  00118	48 83 bd f8 00
	00 00 00	 cmp	 QWORD PTR __that$[rbp], 0
  00120	74 16		 je	 SHORT $LN9@CThorn
  00122	48 8b 85 f8 00
	00 00		 mov	 rax, QWORD PTR __that$[rbp]
  00129	48 05 90 00 00
	00		 add	 rax, 144		; 00000090H
  0012f	48 89 85 c0 00
	00 00		 mov	 QWORD PTR tv158[rbp], rax
  00136	eb 0b		 jmp	 SHORT $LN10@CThorn
$LN9@CThorn:
  00138	48 c7 85 c0 00
	00 00 00 00 00
	00		 mov	 QWORD PTR tv158[rbp], 0
$LN10@CThorn:
  00143	48 8b 85 f0 00
	00 00		 mov	 rax, QWORD PTR this$[rbp]
  0014a	48 05 90 00 00
	00		 add	 rax, 144		; 00000090H
  00150	48 8b 95 c0 00
	00 00		 mov	 rdx, QWORD PTR tv158[rbp]
  00157	48 8b c8	 mov	 rcx, rax
  0015a	ff 15 00 00 00
	00		 call	 QWORD PTR __imp_??0IOnCollisionExit@Engine@@QEAA@AEBV01@@Z
  00160	48 8b 85 f0 00
	00 00		 mov	 rax, QWORD PTR this$[rbp]
  00167	48 8d 0d 00 00
	00 00		 lea	 rcx, OFFSET FLAT:??_7CThorn@Client@@6BCGameObject@Engine@@@
  0016e	48 89 08	 mov	 QWORD PTR [rax], rcx
  00171	48 8b 85 f0 00
	00 00		 mov	 rax, QWORD PTR this$[rbp]
  00178	48 8d 0d 00 00
	00 00		 lea	 rcx, OFFSET FLAT:??_7CThorn@Client@@6BISameObjectNoDetection@Engine@@@
  0017f	48 89 48 78	 mov	 QWORD PTR [rax+120], rcx
  00183	48 8b 85 f0 00
	00 00		 mov	 rax, QWORD PTR this$[rbp]
  0018a	48 8d 0d 00 00
	00 00		 lea	 rcx, OFFSET FLAT:??_7CThorn@Client@@6BIOnCollisionEnter@Engine@@@
  00191	48 89 88 80 00
	00 00		 mov	 QWORD PTR [rax+128], rcx
  00198	48 8b 85 f0 00
	00 00		 mov	 rax, QWORD PTR this$[rbp]
  0019f	48 8d 0d 00 00
	00 00		 lea	 rcx, OFFSET FLAT:??_7CThorn@Client@@6BIOnCollisionStay@Engine@@@
  001a6	48 89 88 88 00
	00 00		 mov	 QWORD PTR [rax+136], rcx
  001ad	48 8b 85 f0 00
	00 00		 mov	 rax, QWORD PTR this$[rbp]
  001b4	48 8d 0d 00 00
	00 00		 lea	 rcx, OFFSET FLAT:??_7CThorn@Client@@6BIOnCollisionExit@Engine@@@
  001bb	48 89 88 90 00
	00 00		 mov	 QWORD PTR [rax+144], rcx
  001c2	48 8b 85 f0 00
	00 00		 mov	 rax, QWORD PTR this$[rbp]
  001c9	48 8b 8d f8 00
	00 00		 mov	 rcx, QWORD PTR __that$[rbp]
  001d0	48 8b 89 98 00
	00 00		 mov	 rcx, QWORD PTR [rcx+152]
  001d7	48 89 88 98 00
	00 00		 mov	 QWORD PTR [rax+152], rcx
  001de	48 8b 85 f0 00
	00 00		 mov	 rax, QWORD PTR this$[rbp]
  001e5	48 8b 8d f8 00
	00 00		 mov	 rcx, QWORD PTR __that$[rbp]
  001ec	8b 89 a0 00 00
	00		 mov	 ecx, DWORD PTR [rcx+160]
  001f2	89 88 a0 00 00
	00		 mov	 DWORD PTR [rax+160], ecx
  001f8	48 8b 85 f0 00
	00 00		 mov	 rax, QWORD PTR this$[rbp]
  001ff	48 8b 8d f8 00
	00 00		 mov	 rcx, QWORD PTR __that$[rbp]
  00206	48 8b 89 a8 00
	00 00		 mov	 rcx, QWORD PTR [rcx+168]
  0020d	48 89 88 a8 00
	00 00		 mov	 QWORD PTR [rax+168], rcx
  00214	48 8b 85 f0 00
	00 00		 mov	 rax, QWORD PTR this$[rbp]
  0021b	48 8b 8d f8 00
	00 00		 mov	 rcx, QWORD PTR __that$[rbp]
  00222	48 8b 89 b0 00
	00 00		 mov	 rcx, QWORD PTR [rcx+176]
  00229	48 89 88 b0 00
	00 00		 mov	 QWORD PTR [rax+176], rcx
  00230	48 8b 85 f0 00
	00 00		 mov	 rax, QWORD PTR this$[rbp]
  00237	48 8b 8d f8 00
	00 00		 mov	 rcx, QWORD PTR __that$[rbp]
  0023e	48 8b 89 b8 00
	00 00		 mov	 rcx, QWORD PTR [rcx+184]
  00245	48 89 88 b8 00
	00 00		 mov	 QWORD PTR [rax+184], rcx
  0024c	48 8b 85 f0 00
	00 00		 mov	 rax, QWORD PTR this$[rbp]
  00253	48 8b 8d f8 00
	00 00		 mov	 rcx, QWORD PTR __that$[rbp]
  0025a	48 8b 89 c0 00
	00 00		 mov	 rcx, QWORD PTR [rcx+192]
  00261	48 89 88 c0 00
	00 00		 mov	 QWORD PTR [rax+192], rcx
  00268	48 8b 85 f0 00
	00 00		 mov	 rax, QWORD PTR this$[rbp]
  0026f	48 8b 8d f8 00
	00 00		 mov	 rcx, QWORD PTR __that$[rbp]
  00276	0f b6 89 c8 00
	00 00		 movzx	 ecx, BYTE PTR [rcx+200]
  0027d	88 88 c8 00 00
	00		 mov	 BYTE PTR [rax+200], cl
  00283	48 8b 85 f0 00
	00 00		 mov	 rax, QWORD PTR this$[rbp]
  0028a	48 8b 8d f8 00
	00 00		 mov	 rcx, QWORD PTR __that$[rbp]
  00291	0f b6 89 c9 00
	00 00		 movzx	 ecx, BYTE PTR [rcx+201]
  00298	88 88 c9 00 00
	00		 mov	 BYTE PTR [rax+201], cl
  0029e	48 8b 85 f0 00
	00 00		 mov	 rax, QWORD PTR this$[rbp]
  002a5	48 8b 8d f8 00
	00 00		 mov	 rcx, QWORD PTR __that$[rbp]
  002ac	0f b6 89 ca 00
	00 00		 movzx	 ecx, BYTE PTR [rcx+202]
  002b3	88 88 ca 00 00
	00		 mov	 BYTE PTR [rax+202], cl
  002b9	48 8b 85 f0 00
	00 00		 mov	 rax, QWORD PTR this$[rbp]
  002c0	48 8b 8d f8 00
	00 00		 mov	 rcx, QWORD PTR __that$[rbp]
  002c7	0f b6 89 cb 00
	00 00		 movzx	 ecx, BYTE PTR [rcx+203]
  002ce	88 88 cb 00 00
	00		 mov	 BYTE PTR [rax+203], cl
  002d4	48 8b 85 f0 00
	00 00		 mov	 rax, QWORD PTR this$[rbp]
  002db	48 8b 8d f8 00
	00 00		 mov	 rcx, QWORD PTR __that$[rbp]
  002e2	0f b6 89 cc 00
	00 00		 movzx	 ecx, BYTE PTR [rcx+204]
  002e9	88 88 cc 00 00
	00		 mov	 BYTE PTR [rax+204], cl
  002ef	48 8b 85 f0 00
	00 00		 mov	 rax, QWORD PTR this$[rbp]
  002f6	48 8b 8d f8 00
	00 00		 mov	 rcx, QWORD PTR __that$[rbp]
  002fd	0f b6 89 cd 00
	00 00		 movzx	 ecx, BYTE PTR [rcx+205]
  00304	88 88 cd 00 00
	00		 mov	 BYTE PTR [rax+205], cl
  0030a	48 8b 85 f0 00
	00 00		 mov	 rax, QWORD PTR this$[rbp]
  00311	48 8b 8d f8 00
	00 00		 mov	 rcx, QWORD PTR __that$[rbp]
  00318	0f b6 89 ce 00
	00 00		 movzx	 ecx, BYTE PTR [rcx+206]
  0031f	88 88 ce 00 00
	00		 mov	 BYTE PTR [rax+206], cl
  00325	48 8b 85 f0 00
	00 00		 mov	 rax, QWORD PTR this$[rbp]
  0032c	48 8b 8d f8 00
	00 00		 mov	 rcx, QWORD PTR __that$[rbp]
  00333	0f b6 89 cf 00
	00 00		 movzx	 ecx, BYTE PTR [rcx+207]
  0033a	88 88 cf 00 00
	00		 mov	 BYTE PTR [rax+207], cl
  00340	48 8b 85 f0 00
	00 00		 mov	 rax, QWORD PTR this$[rbp]
  00347	48 8b 8d f8 00
	00 00		 mov	 rcx, QWORD PTR __that$[rbp]
  0034e	f3 0f 10 81 d0
	00 00 00	 movss	 xmm0, DWORD PTR [rcx+208]
  00356	f3 0f 11 80 d0
	00 00 00	 movss	 DWORD PTR [rax+208], xmm0
  0035e	48 8b 85 f0 00
	00 00		 mov	 rax, QWORD PTR this$[rbp]
  00365	48 8b 8d f8 00
	00 00		 mov	 rcx, QWORD PTR __that$[rbp]
  0036c	f3 0f 10 81 d4
	00 00 00	 movss	 xmm0, DWORD PTR [rcx+212]
  00374	f3 0f 11 80 d4
	00 00 00	 movss	 DWORD PTR [rax+212], xmm0
  0037c	48 8b 85 f0 00
	00 00		 mov	 rax, QWORD PTR this$[rbp]
  00383	48 8b 8d f8 00
	00 00		 mov	 rcx, QWORD PTR __that$[rbp]
  0038a	48 8d b8 d8 00
	00 00		 lea	 rdi, QWORD PTR [rax+216]
  00391	48 8d b1 d8 00
	00 00		 lea	 rsi, QWORD PTR [rcx+216]
  00398	b9 0c 00 00 00	 mov	 ecx, 12
  0039d	f3 a4		 rep movsb
  0039f	48 8b 85 f0 00
	00 00		 mov	 rax, QWORD PTR this$[rbp]
  003a6	48 8b 8d f8 00
	00 00		 mov	 rcx, QWORD PTR __that$[rbp]
  003ad	f3 0f 10 81 e4
	00 00 00	 movss	 xmm0, DWORD PTR [rcx+228]
  003b5	f3 0f 11 80 e4
	00 00 00	 movss	 DWORD PTR [rax+228], xmm0
  003bd	48 8b 85 f0 00
	00 00		 mov	 rax, QWORD PTR this$[rbp]
  003c4	48 8b 8d f8 00
	00 00		 mov	 rcx, QWORD PTR __that$[rbp]
  003cb	f3 0f 10 81 e8
	00 00 00	 movss	 xmm0, DWORD PTR [rcx+232]
  003d3	f3 0f 11 80 e8
	00 00 00	 movss	 DWORD PTR [rax+232], xmm0
  003db	48 8b 85 f0 00
	00 00		 mov	 rax, QWORD PTR this$[rbp]
  003e2	48 8b 8d f8 00
	00 00		 mov	 rcx, QWORD PTR __that$[rbp]
  003e9	0f b6 89 ec 00
	00 00		 movzx	 ecx, BYTE PTR [rcx+236]
  003f0	88 88 ec 00 00
	00		 mov	 BYTE PTR [rax+236], cl
  003f6	48 8b 85 f0 00
	00 00		 mov	 rax, QWORD PTR this$[rbp]
  003fd	48 8b 8d f8 00
	00 00		 mov	 rcx, QWORD PTR __that$[rbp]
  00404	f3 0f 10 81 f0
	00 00 00	 movss	 xmm0, DWORD PTR [rcx+240]
  0040c	f3 0f 11 80 f0
	00 00 00	 movss	 DWORD PTR [rax+240], xmm0
  00414	48 8b 85 f0 00
	00 00		 mov	 rax, QWORD PTR this$[rbp]
  0041b	48 8b 8d f8 00
	00 00		 mov	 rcx, QWORD PTR __that$[rbp]
  00422	48 8b 89 f8 00
	00 00		 mov	 rcx, QWORD PTR [rcx+248]
  00429	48 89 88 f8 00
	00 00		 mov	 QWORD PTR [rax+248], rcx
  00430	48 8b 85 f0 00
	00 00		 mov	 rax, QWORD PTR this$[rbp]
  00437	48 8b 8d f8 00
	00 00		 mov	 rcx, QWORD PTR __that$[rbp]
  0043e	48 8b 89 00 01
	00 00		 mov	 rcx, QWORD PTR [rcx+256]
  00445	48 89 88 00 01
	00 00		 mov	 QWORD PTR [rax+256], rcx
  0044c	48 8b 85 f0 00
	00 00		 mov	 rax, QWORD PTR this$[rbp]
  00453	48 8b 8d f8 00
	00 00		 mov	 rcx, QWORD PTR __that$[rbp]
  0045a	48 8b 89 08 01
	00 00		 mov	 rcx, QWORD PTR [rcx+264]
  00461	48 89 88 08 01
	00 00		 mov	 QWORD PTR [rax+264], rcx
  00468	48 8b 85 f0 00
	00 00		 mov	 rax, QWORD PTR this$[rbp]
  0046f	48 8b 8d f8 00
	00 00		 mov	 rcx, QWORD PTR __that$[rbp]
  00476	48 8b 89 10 01
	00 00		 mov	 rcx, QWORD PTR [rcx+272]
  0047d	48 89 88 10 01
	00 00		 mov	 QWORD PTR [rax+272], rcx
  00484	48 8b 85 f0 00
	00 00		 mov	 rax, QWORD PTR this$[rbp]
  0048b	48 8b 8d f8 00
	00 00		 mov	 rcx, QWORD PTR __that$[rbp]
  00492	48 8b 89 18 01
	00 00		 mov	 rcx, QWORD PTR [rcx+280]
  00499	48 89 88 18 01
	00 00		 mov	 QWORD PTR [rax+280], rcx
  004a0	48 8b 85 f0 00
	00 00		 mov	 rax, QWORD PTR this$[rbp]
  004a7	48 8b 8d f8 00
	00 00		 mov	 rcx, QWORD PTR __that$[rbp]
  004ae	48 8b 89 20 01
	00 00		 mov	 rcx, QWORD PTR [rcx+288]
  004b5	48 89 88 20 01
	00 00		 mov	 QWORD PTR [rax+288], rcx
  004bc	48 8b 85 f0 00
	00 00		 mov	 rax, QWORD PTR this$[rbp]
  004c3	48 8b 8d f8 00
	00 00		 mov	 rcx, QWORD PTR __that$[rbp]
  004ca	48 8b 89 28 01
	00 00		 mov	 rcx, QWORD PTR [rcx+296]
  004d1	48 89 88 28 01
	00 00		 mov	 QWORD PTR [rax+296], rcx
  004d8	48 8b 85 f0 00
	00 00		 mov	 rax, QWORD PTR this$[rbp]
  004df	48 8b 8d f8 00
	00 00		 mov	 rcx, QWORD PTR __that$[rbp]
  004e6	48 8b 89 30 01
	00 00		 mov	 rcx, QWORD PTR [rcx+304]
  004ed	48 89 88 30 01
	00 00		 mov	 QWORD PTR [rax+304], rcx
  004f4	48 8b 85 f0 00
	00 00		 mov	 rax, QWORD PTR this$[rbp]
  004fb	48 8b 8d f8 00
	00 00		 mov	 rcx, QWORD PTR __that$[rbp]
  00502	f2 0f 10 81 38
	01 00 00	 movsd	 xmm0, QWORD PTR [rcx+312]
  0050a	f2 0f 11 80 38
	01 00 00	 movsd	 QWORD PTR [rax+312], xmm0
  00512	48 8b 85 f0 00
	00 00		 mov	 rax, QWORD PTR this$[rbp]
  00519	48 8b 8d f8 00
	00 00		 mov	 rcx, QWORD PTR __that$[rbp]
  00520	f3 0f 10 81 40
	01 00 00	 movss	 xmm0, DWORD PTR [rcx+320]
  00528	f3 0f 11 80 40
	01 00 00	 movss	 DWORD PTR [rax+320], xmm0
  00530	48 8b 85 f0 00
	00 00		 mov	 rax, QWORD PTR this$[rbp]
  00537	48 8b 8d f8 00
	00 00		 mov	 rcx, QWORD PTR __that$[rbp]
  0053e	0f b6 89 44 01
	00 00		 movzx	 ecx, BYTE PTR [rcx+324]
  00545	88 88 44 01 00
	00		 mov	 BYTE PTR [rax+324], cl
  0054b	48 8b 85 f0 00
	00 00		 mov	 rax, QWORD PTR this$[rbp]
  00552	48 8b 8d f8 00
	00 00		 mov	 rcx, QWORD PTR __that$[rbp]
  00559	0f b6 89 45 01
	00 00		 movzx	 ecx, BYTE PTR [rcx+325]
  00560	88 88 45 01 00
	00		 mov	 BYTE PTR [rax+325], cl
  00566	48 8b 85 f0 00
	00 00		 mov	 rax, QWORD PTR this$[rbp]
  0056d	48 8b 8d f8 00
	00 00		 mov	 rcx, QWORD PTR __that$[rbp]
  00574	f3 0f 10 81 48
	01 00 00	 movss	 xmm0, DWORD PTR [rcx+328]
  0057c	f3 0f 11 80 48
	01 00 00	 movss	 DWORD PTR [rax+328], xmm0
  00584	48 8b 85 f0 00
	00 00		 mov	 rax, QWORD PTR this$[rbp]
  0058b	48 8b 8d f8 00
	00 00		 mov	 rcx, QWORD PTR __that$[rbp]
  00592	48 8b 89 50 01
	00 00		 mov	 rcx, QWORD PTR [rcx+336]
  00599	48 89 88 50 01
	00 00		 mov	 QWORD PTR [rax+336], rcx
  005a0	48 8b 85 f0 00
	00 00		 mov	 rax, QWORD PTR this$[rbp]
  005a7	48 8b 8d f8 00
	00 00		 mov	 rcx, QWORD PTR __that$[rbp]
  005ae	48 8b 89 58 01
	00 00		 mov	 rcx, QWORD PTR [rcx+344]
  005b5	48 89 88 58 01
	00 00		 mov	 QWORD PTR [rax+344], rcx
  005bc	48 8b 85 f0 00
	00 00		 mov	 rax, QWORD PTR this$[rbp]
  005c3	48 8b 8d f8 00
	00 00		 mov	 rcx, QWORD PTR __that$[rbp]
  005ca	48 8b 89 60 01
	00 00		 mov	 rcx, QWORD PTR [rcx+352]
  005d1	48 89 88 60 01
	00 00		 mov	 QWORD PTR [rax+352], rcx
  005d8	48 8b 85 f0 00
	00 00		 mov	 rax, QWORD PTR this$[rbp]
  005df	48 8b 8d f8 00
	00 00		 mov	 rcx, QWORD PTR __that$[rbp]
  005e6	48 8b 89 68 01
	00 00		 mov	 rcx, QWORD PTR [rcx+360]
  005ed	48 89 88 68 01
	00 00		 mov	 QWORD PTR [rax+360], rcx
  005f4	48 8b 85 f0 00
	00 00		 mov	 rax, QWORD PTR this$[rbp]
  005fb	48 8b 8d f8 00
	00 00		 mov	 rcx, QWORD PTR __that$[rbp]
  00602	48 8d b8 70 01
	00 00		 lea	 rdi, QWORD PTR [rax+368]
  00609	48 8d b1 70 01
	00 00		 lea	 rsi, QWORD PTR [rcx+368]
  00610	b9 0c 00 00 00	 mov	 ecx, 12
  00615	f3 a4		 rep movsb
  00617	48 8b 85 f0 00
	00 00		 mov	 rax, QWORD PTR this$[rbp]
  0061e	48 8b 8d f8 00
	00 00		 mov	 rcx, QWORD PTR __that$[rbp]
  00625	f3 0f 10 81 7c
	01 00 00	 movss	 xmm0, DWORD PTR [rcx+380]
  0062d	f3 0f 11 80 7c
	01 00 00	 movss	 DWORD PTR [rax+380], xmm0
  00635	48 8b 85 f0 00
	00 00		 mov	 rax, QWORD PTR this$[rbp]
  0063c	48 8d a5 d0 00
	00 00		 lea	 rsp, QWORD PTR [rbp+208]
  00643	5f		 pop	 rdi
  00644	5e		 pop	 rsi
  00645	5d		 pop	 rbp
  00646	c3		 ret	 0
??0CThorn@Client@@QEAA@AEBV01@@Z ENDP			; Client::CThorn::CThorn
_TEXT	ENDS
; Function compile flags: /Odtp /RTCsu /ZI
; File c:\users\arcco\documents\github\framework\client\private\thorn.cpp
;	COMDAT ?Free@CThorn@Client@@UEAAXXZ
_TEXT	SEGMENT
this$ = 224
?Free@CThorn@Client@@UEAAXXZ PROC			; Client::CThorn::Free, COMDAT

; 579  : {

$LN3:
  00000	48 89 4c 24 08	 mov	 QWORD PTR [rsp+8], rcx
  00005	55		 push	 rbp
  00006	57		 push	 rdi
  00007	48 81 ec e8 00
	00 00		 sub	 rsp, 232		; 000000e8H
  0000e	48 8d 6c 24 20	 lea	 rbp, QWORD PTR [rsp+32]
  00013	48 8b fc	 mov	 rdi, rsp
  00016	b9 3a 00 00 00	 mov	 ecx, 58			; 0000003aH
  0001b	b8 cc cc cc cc	 mov	 eax, -858993460		; ccccccccH
  00020	f3 ab		 rep stosd
  00022	48 8b 8c 24 08
	01 00 00	 mov	 rcx, QWORD PTR [rsp+264]

; 580  : 	__super::Free();

  0002a	48 8b 8d e0 00
	00 00		 mov	 rcx, QWORD PTR this$[rbp]
  00031	ff 15 00 00 00
	00		 call	 QWORD PTR __imp_?Free@CGameObject@Engine@@UEAAXXZ

; 581  : 
; 582  : 	Safe_Release(m_pCollider);

  00037	48 8b 85 e0 00
	00 00		 mov	 rax, QWORD PTR this$[rbp]
  0003e	48 05 98 00 00
	00		 add	 rax, 152		; 00000098H
  00044	48 8b c8	 mov	 rcx, rax
  00047	e8 00 00 00 00	 call	 ??$Safe_Release@PEAVCSphereCollider@Engine@@@Engine@@YAKAEAPEAVCSphereCollider@0@@Z ; Engine::Safe_Release<Engine::CSphereCollider * __ptr64>

; 583  : 	Safe_Release(m_pRenderer);

  0004c	48 8b 85 e0 00
	00 00		 mov	 rax, QWORD PTR this$[rbp]
  00053	48 05 a8 00 00
	00		 add	 rax, 168		; 000000a8H
  00059	48 8b c8	 mov	 rcx, rax
  0005c	e8 00 00 00 00	 call	 ??$Safe_Release@PEAVCRenderer@Engine@@@Engine@@YAKAEAPEAVCRenderer@0@@Z ; Engine::Safe_Release<Engine::CRenderer * __ptr64>

; 584  : 	Safe_Release(m_pTransform);

  00061	48 8b 85 e0 00
	00 00		 mov	 rax, QWORD PTR this$[rbp]
  00068	48 05 b0 00 00
	00		 add	 rax, 176		; 000000b0H
  0006e	48 8b c8	 mov	 rcx, rax
  00071	e8 00 00 00 00	 call	 ??$Safe_Release@PEAVCTransform@Engine@@@Engine@@YAKAEAPEAVCTransform@0@@Z ; Engine::Safe_Release<Engine::CTransform * __ptr64>

; 585  : 	Safe_Release(m_pModel);

  00076	48 8b 85 e0 00
	00 00		 mov	 rax, QWORD PTR this$[rbp]
  0007d	48 05 b8 00 00
	00		 add	 rax, 184		; 000000b8H
  00083	48 8b c8	 mov	 rcx, rax
  00086	e8 00 00 00 00	 call	 ??$Safe_Release@PEAVCModel@Engine@@@Engine@@YAKAEAPEAVCModel@0@@Z ; Engine::Safe_Release<Engine::CModel * __ptr64>

; 586  : 	Safe_Release(m_pShader);

  0008b	48 8b 85 e0 00
	00 00		 mov	 rax, QWORD PTR this$[rbp]
  00092	48 05 c0 00 00
	00		 add	 rax, 192		; 000000c0H
  00098	48 8b c8	 mov	 rcx, rax
  0009b	e8 00 00 00 00	 call	 ??$Safe_Release@PEAVCShader@Engine@@@Engine@@YAKAEAPEAVCShader@0@@Z ; Engine::Safe_Release<Engine::CShader * __ptr64>

; 587  : 
; 588  : 	Safe_Release(m_pFloorEffectTransform);

  000a0	48 8b 85 e0 00
	00 00		 mov	 rax, QWORD PTR this$[rbp]
  000a7	48 05 f8 00 00
	00		 add	 rax, 248		; 000000f8H
  000ad	48 8b c8	 mov	 rcx, rax
  000b0	e8 00 00 00 00	 call	 ??$Safe_Release@PEAVCTransform@Engine@@@Engine@@YAKAEAPEAVCTransform@0@@Z ; Engine::Safe_Release<Engine::CTransform * __ptr64>

; 589  : 	Safe_Release(m_pFloorEffectBuffer);

  000b5	48 8b 85 e0 00
	00 00		 mov	 rax, QWORD PTR this$[rbp]
  000bc	48 05 00 01 00
	00		 add	 rax, 256		; 00000100H
  000c2	48 8b c8	 mov	 rcx, rax
  000c5	e8 00 00 00 00	 call	 ??$Safe_Release@PEAVCVIBuffer_Rect@Engine@@@Engine@@YAKAEAPEAVCVIBuffer_Rect@0@@Z ; Engine::Safe_Release<Engine::CVIBuffer_Rect * __ptr64>

; 590  : 	Safe_Release(m_pFloorShader);

  000ca	48 8b 85 e0 00
	00 00		 mov	 rax, QWORD PTR this$[rbp]
  000d1	48 05 08 01 00
	00		 add	 rax, 264		; 00000108H
  000d7	48 8b c8	 mov	 rcx, rax
  000da	e8 00 00 00 00	 call	 ??$Safe_Release@PEAVCShader@Engine@@@Engine@@YAKAEAPEAVCShader@0@@Z ; Engine::Safe_Release<Engine::CShader * __ptr64>

; 591  : 
; 592  : 	Safe_Release(m_pFloorEffectDiffuse);

  000df	48 8b 85 e0 00
	00 00		 mov	 rax, QWORD PTR this$[rbp]
  000e6	48 05 10 01 00
	00		 add	 rax, 272		; 00000110H
  000ec	48 8b c8	 mov	 rcx, rax
  000ef	e8 00 00 00 00	 call	 ??$Safe_Release@PEAVCTexture@Engine@@@Engine@@YAKAEAPEAVCTexture@0@@Z ; Engine::Safe_Release<Engine::CTexture * __ptr64>

; 593  : 	Safe_Release(m_pFloorEffectMask);

  000f4	48 8b 85 e0 00
	00 00		 mov	 rax, QWORD PTR this$[rbp]
  000fb	48 05 18 01 00
	00		 add	 rax, 280		; 00000118H
  00101	48 8b c8	 mov	 rcx, rax
  00104	e8 00 00 00 00	 call	 ??$Safe_Release@PEAVCTexture@Engine@@@Engine@@YAKAEAPEAVCTexture@0@@Z ; Engine::Safe_Release<Engine::CTexture * __ptr64>

; 594  : 
; 595  : 	Safe_Release(m_pFloorGard);

  00109	48 8b 85 e0 00
	00 00		 mov	 rax, QWORD PTR this$[rbp]
  00110	48 05 20 01 00
	00		 add	 rax, 288		; 00000120H
  00116	48 8b c8	 mov	 rcx, rax
  00119	e8 00 00 00 00	 call	 ??$Safe_Release@PEAVCModel@Engine@@@Engine@@YAKAEAPEAVCModel@0@@Z ; Engine::Safe_Release<Engine::CModel * __ptr64>

; 596  : 	Safe_Release(m_pFloorGardTransform);

  0011e	48 8b 85 e0 00
	00 00		 mov	 rax, QWORD PTR this$[rbp]
  00125	48 05 28 01 00
	00		 add	 rax, 296		; 00000128H
  0012b	48 8b c8	 mov	 rcx, rax
  0012e	e8 00 00 00 00	 call	 ??$Safe_Release@PEAVCTransform@Engine@@@Engine@@YAKAEAPEAVCTransform@0@@Z ; Engine::Safe_Release<Engine::CTransform * __ptr64>

; 597  : 	Safe_Release(m_pFloorGardTexture);

  00133	48 8b 85 e0 00
	00 00		 mov	 rax, QWORD PTR this$[rbp]
  0013a	48 05 30 01 00
	00		 add	 rax, 304		; 00000130H
  00140	48 8b c8	 mov	 rcx, rax
  00143	e8 00 00 00 00	 call	 ??$Safe_Release@PEAVCTexture@Engine@@@Engine@@YAKAEAPEAVCTexture@0@@Z ; Engine::Safe_Release<Engine::CTexture * __ptr64>

; 598  : 
; 599  : 	Safe_Release(m_pTrailEffectBuffer);

  00148	48 8b 85 e0 00
	00 00		 mov	 rax, QWORD PTR this$[rbp]
  0014f	48 05 50 01 00
	00		 add	 rax, 336		; 00000150H
  00155	48 8b c8	 mov	 rcx, rax
  00158	e8 00 00 00 00	 call	 ??$Safe_Release@PEAVCVIBuffer_Rect@Engine@@@Engine@@YAKAEAPEAVCVIBuffer_Rect@0@@Z ; Engine::Safe_Release<Engine::CVIBuffer_Rect * __ptr64>

; 600  : 	Safe_Release(m_pTrailTransform);

  0015d	48 8b 85 e0 00
	00 00		 mov	 rax, QWORD PTR this$[rbp]
  00164	48 05 58 01 00
	00		 add	 rax, 344		; 00000158H
  0016a	48 8b c8	 mov	 rcx, rax
  0016d	e8 00 00 00 00	 call	 ??$Safe_Release@PEAVCTransform@Engine@@@Engine@@YAKAEAPEAVCTransform@0@@Z ; Engine::Safe_Release<Engine::CTransform * __ptr64>

; 601  : 	Safe_Release(m_pTrailTexture);

  00172	48 8b 85 e0 00
	00 00		 mov	 rax, QWORD PTR this$[rbp]
  00179	48 05 60 01 00
	00		 add	 rax, 352		; 00000160H
  0017f	48 8b c8	 mov	 rcx, rax
  00182	e8 00 00 00 00	 call	 ??$Safe_Release@PEAVCTexture@Engine@@@Engine@@YAKAEAPEAVCTexture@0@@Z ; Engine::Safe_Release<Engine::CTexture * __ptr64>

; 602  : 	Safe_Release(m_pTrailEffectShader);

  00187	48 8b 85 e0 00
	00 00		 mov	 rax, QWORD PTR this$[rbp]
  0018e	48 05 68 01 00
	00		 add	 rax, 360		; 00000168H
  00194	48 8b c8	 mov	 rcx, rax
  00197	e8 00 00 00 00	 call	 ??$Safe_Release@PEAVCShader@Engine@@@Engine@@YAKAEAPEAVCShader@0@@Z ; Engine::Safe_Release<Engine::CShader * __ptr64>

; 603  : }

  0019c	48 8d a5 c8 00
	00 00		 lea	 rsp, QWORD PTR [rbp+200]
  001a3	5f		 pop	 rdi
  001a4	5d		 pop	 rbp
  001a5	c3		 ret	 0
?Free@CThorn@Client@@UEAAXXZ ENDP			; Client::CThorn::Free
_TEXT	ENDS
; Function compile flags: /Odtp /RTCsu /ZI
; File c:\users\arcco\documents\github\framework\client\private\thorn.cpp
;	COMDAT ?Clone@CThorn@Client@@UEAAPEAVCGameObject@Engine@@PEAX@Z
_TEXT	SEGMENT
pInstance$ = 8
$T4 = 232
$T5 = 264
$T6 = 296
tv83 = 312
__$ArrayPad$ = 320
this$ = 368
pArg$ = 376
?Clone@CThorn@Client@@UEAAPEAVCGameObject@Engine@@PEAX@Z PROC ; Client::CThorn::Clone, COMDAT

; 567  : {

$LN7:
  00000	48 89 54 24 10	 mov	 QWORD PTR [rsp+16], rdx
  00005	48 89 4c 24 08	 mov	 QWORD PTR [rsp+8], rcx
  0000a	55		 push	 rbp
  0000b	57		 push	 rdi
  0000c	48 81 ec 78 01
	00 00		 sub	 rsp, 376		; 00000178H
  00013	48 8d 6c 24 20	 lea	 rbp, QWORD PTR [rsp+32]
  00018	48 8b fc	 mov	 rdi, rsp
  0001b	b9 5e 00 00 00	 mov	 ecx, 94			; 0000005eH
  00020	b8 cc cc cc cc	 mov	 eax, -858993460		; ccccccccH
  00025	f3 ab		 rep stosd
  00027	48 8b 8c 24 98
	01 00 00	 mov	 rcx, QWORD PTR [rsp+408]
  0002f	48 c7 85 28 01
	00 00 fe ff ff
	ff		 mov	 QWORD PTR $T6[rbp], -2
  0003a	48 8b 05 00 00
	00 00		 mov	 rax, QWORD PTR __security_cookie
  00041	48 33 c5	 xor	 rax, rbp
  00044	48 89 85 40 01
	00 00		 mov	 QWORD PTR __$ArrayPad$[rbp], rax

; 568  : 	CThorn* pInstance = new CThorn(*this);

  0004b	8b 05 00 00 00
	00		 mov	 eax, DWORD PTR ?__LINE__Var@?0??Clone@CThorn@Client@@UEAAPEAVCGameObject@Engine@@PEAX@Z@4JA
  00051	ff c0		 inc	 eax
  00053	44 8b c8	 mov	 r9d, eax
  00056	4c 8d 05 00 00
	00 00		 lea	 r8, OFFSET FLAT:??_C@_0ED@NMCGMBOD@c?3?2users?2arcco?2documents?2github?2@
  0005d	ba 01 00 00 00	 mov	 edx, 1
  00062	b9 80 01 00 00	 mov	 ecx, 384		; 00000180H
  00067	e8 00 00 00 00	 call	 ??2@YAPEAX_KHPEBDH@Z	; operator new
  0006c	48 89 85 08 01
	00 00		 mov	 QWORD PTR $T5[rbp], rax
  00073	48 83 bd 08 01
	00 00 00	 cmp	 QWORD PTR $T5[rbp], 0
  0007b	74 1c		 je	 SHORT $LN4@Clone
  0007d	48 8b 95 70 01
	00 00		 mov	 rdx, QWORD PTR this$[rbp]
  00084	48 8b 8d 08 01
	00 00		 mov	 rcx, QWORD PTR $T5[rbp]
  0008b	e8 00 00 00 00	 call	 ??0CThorn@Client@@QEAA@AEBV01@@Z
  00090	48 89 85 38 01
	00 00		 mov	 QWORD PTR tv83[rbp], rax
  00097	eb 0b		 jmp	 SHORT $LN5@Clone
$LN4@Clone:
  00099	48 c7 85 38 01
	00 00 00 00 00
	00		 mov	 QWORD PTR tv83[rbp], 0
$LN5@Clone:
  000a4	48 8b 85 38 01
	00 00		 mov	 rax, QWORD PTR tv83[rbp]
  000ab	48 89 85 e8 00
	00 00		 mov	 QWORD PTR $T4[rbp], rax
  000b2	48 8b 85 e8 00
	00 00		 mov	 rax, QWORD PTR $T4[rbp]
  000b9	48 89 45 08	 mov	 QWORD PTR pInstance$[rbp], rax

; 569  : 	if (FAILED(pInstance->Initialize(pArg)))

  000bd	48 8b 95 78 01
	00 00		 mov	 rdx, QWORD PTR pArg$[rbp]
  000c4	48 8b 4d 08	 mov	 rcx, QWORD PTR pInstance$[rbp]
  000c8	e8 00 00 00 00	 call	 ?Initialize@CThorn@Client@@UEAAJPEAX@Z ; Client::CThorn::Initialize
  000cd	85 c0		 test	 eax, eax
  000cf	7d 22		 jge	 SHORT $LN2@Clone

; 570  : 	{
; 571  : 		MSG_BOX("Failed to Clone : CThorn");

  000d1	45 33 c9	 xor	 r9d, r9d
  000d4	4c 8d 05 00 00
	00 00		 lea	 r8, OFFSET FLAT:??_C@_1BA@HHOMBECE@?$AAM?$AAe?$AAs?$AAs?$AAa?$AAg?$AAe?$AA?$AA@
  000db	48 8d 15 00 00
	00 00		 lea	 rdx, OFFSET FLAT:??_C@_1DC@DHJPJPDL@?$AAF?$AAa?$AAi?$AAl?$AAe?$AAd?$AA?5?$AAt?$AAo?$AA?5?$AAC?$AAl?$AAo?$AAn?$AAe?$AA?5?$AA?3?$AA?5?$AAC?$AAT?$AAh?$AAo?$AAr?$AAn?$AA?$AA@
  000e2	33 c9		 xor	 ecx, ecx
  000e4	ff 15 00 00 00
	00		 call	 QWORD PTR __imp_MessageBoxW

; 572  : 		Safe_Release(pInstance);

  000ea	48 8d 4d 08	 lea	 rcx, QWORD PTR pInstance$[rbp]
  000ee	e8 00 00 00 00	 call	 ??$Safe_Release@PEAVCThorn@Client@@@Engine@@YAKAEAPEAVCThorn@Client@@@Z ; Engine::Safe_Release<Client::CThorn * __ptr64>
$LN2@Clone:

; 573  : 	}
; 574  : 
; 575  : 	return pInstance;

  000f3	48 8b 45 08	 mov	 rax, QWORD PTR pInstance$[rbp]

; 576  : }

  000f7	48 8b f8	 mov	 rdi, rax
  000fa	48 8d 4d e0	 lea	 rcx, QWORD PTR [rbp-32]
  000fe	48 8d 15 00 00
	00 00		 lea	 rdx, OFFSET FLAT:?Clone@CThorn@Client@@UEAAPEAVCGameObject@Engine@@PEAX@Z$rtcFrameData
  00105	e8 00 00 00 00	 call	 _RTC_CheckStackVars
  0010a	48 8b c7	 mov	 rax, rdi
  0010d	48 8b 8d 40 01
	00 00		 mov	 rcx, QWORD PTR __$ArrayPad$[rbp]
  00114	48 33 cd	 xor	 rcx, rbp
  00117	e8 00 00 00 00	 call	 __security_check_cookie
  0011c	48 8d a5 58 01
	00 00		 lea	 rsp, QWORD PTR [rbp+344]
  00123	5f		 pop	 rdi
  00124	5d		 pop	 rbp
  00125	c3		 ret	 0
?Clone@CThorn@Client@@UEAAPEAVCGameObject@Engine@@PEAX@Z ENDP ; Client::CThorn::Clone
_TEXT	ENDS
;	COMDAT text$x
text$x	SEGMENT
pInstance$ = 8
$T4 = 232
$T5 = 264
$T6 = 296
tv83 = 312
__$ArrayPad$ = 320
this$ = 368
pArg$ = 376
?dtor$0@?0??Clone@CThorn@Client@@UEAAPEAVCGameObject@Engine@@PEAX@Z@4HA PROC ; `Client::CThorn::Clone'::`1'::dtor$0
  00000	48 89 4c 24 08	 mov	 QWORD PTR [rsp+8], rcx
  00005	48 89 54 24 10	 mov	 QWORD PTR [rsp+16], rdx
  0000a	55		 push	 rbp
  0000b	57		 push	 rdi
  0000c	48 83 ec 28	 sub	 rsp, 40			; 00000028H
  00010	48 8d 6a 20	 lea	 rbp, QWORD PTR [rdx+32]
  00014	44 8b 0d 00 00
	00 00		 mov	 r9d, DWORD PTR ?__LINE__Var@?0??Clone@CThorn@Client@@UEAAPEAVCGameObject@Engine@@PEAX@Z@4JA
  0001b	41 ff c1	 inc	 r9d
  0001e	4c 8d 05 00 00
	00 00		 lea	 r8, OFFSET FLAT:??_C@_0ED@NMCGMBOD@c?3?2users?2arcco?2documents?2github?2@
  00025	ba 01 00 00 00	 mov	 edx, 1
  0002a	48 8b 8d 08 01
	00 00		 mov	 rcx, QWORD PTR $T5[rbp]
  00031	e8 00 00 00 00	 call	 ??3@YAXPEAXHPEBDH@Z	; operator delete
  00036	48 83 c4 28	 add	 rsp, 40			; 00000028H
  0003a	5f		 pop	 rdi
  0003b	5d		 pop	 rbp
  0003c	c3		 ret	 0
?dtor$0@?0??Clone@CThorn@Client@@UEAAPEAVCGameObject@Engine@@PEAX@Z@4HA ENDP ; `Client::CThorn::Clone'::`1'::dtor$0
text$x	ENDS
; Function compile flags: /Odtp /RTCsu /ZI
;	COMDAT text$x
text$x	SEGMENT
pInstance$ = 8
$T4 = 232
$T5 = 264
$T6 = 296
tv83 = 312
__$ArrayPad$ = 320
this$ = 368
pArg$ = 376
?dtor$0@?0??Clone@CThorn@Client@@UEAAPEAVCGameObject@Engine@@PEAX@Z@4HA PROC ; `Client::CThorn::Clone'::`1'::dtor$0
  00000	48 89 4c 24 08	 mov	 QWORD PTR [rsp+8], rcx
  00005	48 89 54 24 10	 mov	 QWORD PTR [rsp+16], rdx
  0000a	55		 push	 rbp
  0000b	57		 push	 rdi
  0000c	48 83 ec 28	 sub	 rsp, 40			; 00000028H
  00010	48 8d 6a 20	 lea	 rbp, QWORD PTR [rdx+32]
  00014	44 8b 0d 00 00
	00 00		 mov	 r9d, DWORD PTR ?__LINE__Var@?0??Clone@CThorn@Client@@UEAAPEAVCGameObject@Engine@@PEAX@Z@4JA
  0001b	41 ff c1	 inc	 r9d
  0001e	4c 8d 05 00 00
	00 00		 lea	 r8, OFFSET FLAT:??_C@_0ED@NMCGMBOD@c?3?2users?2arcco?2documents?2github?2@
  00025	ba 01 00 00 00	 mov	 edx, 1
  0002a	48 8b 8d 08 01
	00 00		 mov	 rcx, QWORD PTR $T5[rbp]
  00031	e8 00 00 00 00	 call	 ??3@YAXPEAXHPEBDH@Z	; operator delete
  00036	48 83 c4 28	 add	 rsp, 40			; 00000028H
  0003a	5f		 pop	 rdi
  0003b	5d		 pop	 rbp
  0003c	c3		 ret	 0
?dtor$0@?0??Clone@CThorn@Client@@UEAAPEAVCGameObject@Engine@@PEAX@Z@4HA ENDP ; `Client::CThorn::Clone'::`1'::dtor$0
text$x	ENDS
; Function compile flags: /Odtp /RTCsu /ZI
; File c:\users\arcco\documents\github\framework\client\private\thorn.cpp
;	COMDAT ?Create@CThorn@Client@@SAPEAV12@PEAUID3D11Device@@PEAUID3D11DeviceContext@@@Z
_TEXT	SEGMENT
pInstance$ = 8
$T4 = 232
$T5 = 264
$T6 = 296
tv84 = 312
__$ArrayPad$ = 320
pDevice$ = 368
pContext$ = 376
?Create@CThorn@Client@@SAPEAV12@PEAUID3D11Device@@PEAUID3D11DeviceContext@@@Z PROC ; Client::CThorn::Create, COMDAT

; 555  : {

$LN7:
  00000	48 89 54 24 10	 mov	 QWORD PTR [rsp+16], rdx
  00005	48 89 4c 24 08	 mov	 QWORD PTR [rsp+8], rcx
  0000a	55		 push	 rbp
  0000b	57		 push	 rdi
  0000c	48 81 ec 78 01
	00 00		 sub	 rsp, 376		; 00000178H
  00013	48 8d 6c 24 20	 lea	 rbp, QWORD PTR [rsp+32]
  00018	48 8b fc	 mov	 rdi, rsp
  0001b	b9 5e 00 00 00	 mov	 ecx, 94			; 0000005eH
  00020	b8 cc cc cc cc	 mov	 eax, -858993460		; ccccccccH
  00025	f3 ab		 rep stosd
  00027	48 8b 8c 24 98
	01 00 00	 mov	 rcx, QWORD PTR [rsp+408]
  0002f	48 c7 85 28 01
	00 00 fe ff ff
	ff		 mov	 QWORD PTR $T6[rbp], -2
  0003a	48 8b 05 00 00
	00 00		 mov	 rax, QWORD PTR __security_cookie
  00041	48 33 c5	 xor	 rax, rbp
  00044	48 89 85 40 01
	00 00		 mov	 QWORD PTR __$ArrayPad$[rbp], rax

; 556  : 	CThorn*	pInstance = new CThorn(pDevice, pContext);

  0004b	8b 05 00 00 00
	00		 mov	 eax, DWORD PTR ?__LINE__Var@?0??Create@CThorn@Client@@SAPEAV23@PEAUID3D11Device@@PEAUID3D11DeviceContext@@@Z@4JA
  00051	ff c0		 inc	 eax
  00053	44 8b c8	 mov	 r9d, eax
  00056	4c 8d 05 00 00
	00 00		 lea	 r8, OFFSET FLAT:??_C@_0ED@NMCGMBOD@c?3?2users?2arcco?2documents?2github?2@
  0005d	ba 01 00 00 00	 mov	 edx, 1
  00062	b9 80 01 00 00	 mov	 ecx, 384		; 00000180H
  00067	e8 00 00 00 00	 call	 ??2@YAPEAX_KHPEBDH@Z	; operator new
  0006c	48 89 85 08 01
	00 00		 mov	 QWORD PTR $T5[rbp], rax
  00073	48 83 bd 08 01
	00 00 00	 cmp	 QWORD PTR $T5[rbp], 0
  0007b	74 23		 je	 SHORT $LN4@Create
  0007d	4c 8b 85 78 01
	00 00		 mov	 r8, QWORD PTR pContext$[rbp]
  00084	48 8b 95 70 01
	00 00		 mov	 rdx, QWORD PTR pDevice$[rbp]
  0008b	48 8b 8d 08 01
	00 00		 mov	 rcx, QWORD PTR $T5[rbp]
  00092	e8 00 00 00 00	 call	 ??0CThorn@Client@@AEAA@PEAUID3D11Device@@PEAUID3D11DeviceContext@@@Z ; Client::CThorn::CThorn
  00097	48 89 85 38 01
	00 00		 mov	 QWORD PTR tv84[rbp], rax
  0009e	eb 0b		 jmp	 SHORT $LN5@Create
$LN4@Create:
  000a0	48 c7 85 38 01
	00 00 00 00 00
	00		 mov	 QWORD PTR tv84[rbp], 0
$LN5@Create:
  000ab	48 8b 85 38 01
	00 00		 mov	 rax, QWORD PTR tv84[rbp]
  000b2	48 89 85 e8 00
	00 00		 mov	 QWORD PTR $T4[rbp], rax
  000b9	48 8b 85 e8 00
	00 00		 mov	 rax, QWORD PTR $T4[rbp]
  000c0	48 89 45 08	 mov	 QWORD PTR pInstance$[rbp], rax

; 557  : 	if (FAILED(pInstance->Initialize_Prototype()))

  000c4	48 8b 4d 08	 mov	 rcx, QWORD PTR pInstance$[rbp]
  000c8	e8 00 00 00 00	 call	 ?Initialize_Prototype@CThorn@Client@@UEAAJXZ ; Client::CThorn::Initialize_Prototype
  000cd	85 c0		 test	 eax, eax
  000cf	7d 22		 jge	 SHORT $LN2@Create

; 558  : 	{
; 559  : 		MSG_BOX("Failed to Create : CThorn");

  000d1	45 33 c9	 xor	 r9d, r9d
  000d4	4c 8d 05 00 00
	00 00		 lea	 r8, OFFSET FLAT:??_C@_1BA@HHOMBECE@?$AAM?$AAe?$AAs?$AAs?$AAa?$AAg?$AAe?$AA?$AA@
  000db	48 8d 15 00 00
	00 00		 lea	 rdx, OFFSET FLAT:??_C@_1DE@ECNCIPJH@?$AAF?$AAa?$AAi?$AAl?$AAe?$AAd?$AA?5?$AAt?$AAo?$AA?5?$AAC?$AAr?$AAe?$AAa?$AAt?$AAe?$AA?5?$AA?3?$AA?5?$AAC?$AAT?$AAh?$AAo?$AAr?$AAn?$AA?$AA@
  000e2	33 c9		 xor	 ecx, ecx
  000e4	ff 15 00 00 00
	00		 call	 QWORD PTR __imp_MessageBoxW

; 560  : 		Safe_Release(pInstance);

  000ea	48 8d 4d 08	 lea	 rcx, QWORD PTR pInstance$[rbp]
  000ee	e8 00 00 00 00	 call	 ??$Safe_Release@PEAVCThorn@Client@@@Engine@@YAKAEAPEAVCThorn@Client@@@Z ; Engine::Safe_Release<Client::CThorn * __ptr64>
$LN2@Create:

; 561  : 	}
; 562  : 
; 563  : 	return pInstance;

  000f3	48 8b 45 08	 mov	 rax, QWORD PTR pInstance$[rbp]

; 564  : }

  000f7	48 8b f8	 mov	 rdi, rax
  000fa	48 8d 4d e0	 lea	 rcx, QWORD PTR [rbp-32]
  000fe	48 8d 15 00 00
	00 00		 lea	 rdx, OFFSET FLAT:?Create@CThorn@Client@@SAPEAV12@PEAUID3D11Device@@PEAUID3D11DeviceContext@@@Z$rtcFrameData
  00105	e8 00 00 00 00	 call	 _RTC_CheckStackVars
  0010a	48 8b c7	 mov	 rax, rdi
  0010d	48 8b 8d 40 01
	00 00		 mov	 rcx, QWORD PTR __$ArrayPad$[rbp]
  00114	48 33 cd	 xor	 rcx, rbp
  00117	e8 00 00 00 00	 call	 __security_check_cookie
  0011c	48 8d a5 58 01
	00 00		 lea	 rsp, QWORD PTR [rbp+344]
  00123	5f		 pop	 rdi
  00124	5d		 pop	 rbp
  00125	c3		 ret	 0
?Create@CThorn@Client@@SAPEAV12@PEAUID3D11Device@@PEAUID3D11DeviceContext@@@Z ENDP ; Client::CThorn::Create
_TEXT	ENDS
;	COMDAT text$x
text$x	SEGMENT
pInstance$ = 8
$T4 = 232
$T5 = 264
$T6 = 296
tv84 = 312
__$ArrayPad$ = 320
pDevice$ = 368
pContext$ = 376
?dtor$0@?0??Create@CThorn@Client@@SAPEAV12@PEAUID3D11Device@@PEAUID3D11DeviceContext@@@Z@4HA PROC ; `Client::CThorn::Create'::`1'::dtor$0
  00000	48 89 4c 24 08	 mov	 QWORD PTR [rsp+8], rcx
  00005	48 89 54 24 10	 mov	 QWORD PTR [rsp+16], rdx
  0000a	55		 push	 rbp
  0000b	57		 push	 rdi
  0000c	48 83 ec 28	 sub	 rsp, 40			; 00000028H
  00010	48 8d 6a 20	 lea	 rbp, QWORD PTR [rdx+32]
  00014	44 8b 0d 00 00
	00 00		 mov	 r9d, DWORD PTR ?__LINE__Var@?0??Create@CThorn@Client@@SAPEAV23@PEAUID3D11Device@@PEAUID3D11DeviceContext@@@Z@4JA
  0001b	41 ff c1	 inc	 r9d
  0001e	4c 8d 05 00 00
	00 00		 lea	 r8, OFFSET FLAT:??_C@_0ED@NMCGMBOD@c?3?2users?2arcco?2documents?2github?2@
  00025	ba 01 00 00 00	 mov	 edx, 1
  0002a	48 8b 8d 08 01
	00 00		 mov	 rcx, QWORD PTR $T5[rbp]
  00031	e8 00 00 00 00	 call	 ??3@YAXPEAXHPEBDH@Z	; operator delete
  00036	48 83 c4 28	 add	 rsp, 40			; 00000028H
  0003a	5f		 pop	 rdi
  0003b	5d		 pop	 rbp
  0003c	c3		 ret	 0
?dtor$0@?0??Create@CThorn@Client@@SAPEAV12@PEAUID3D11Device@@PEAUID3D11DeviceContext@@@Z@4HA ENDP ; `Client::CThorn::Create'::`1'::dtor$0
text$x	ENDS
; Function compile flags: /Odtp /RTCsu /ZI
;	COMDAT text$x
text$x	SEGMENT
pInstance$ = 8
$T4 = 232
$T5 = 264
$T6 = 296
tv84 = 312
__$ArrayPad$ = 320
pDevice$ = 368
pContext$ = 376
?dtor$0@?0??Create@CThorn@Client@@SAPEAV12@PEAUID3D11Device@@PEAUID3D11DeviceContext@@@Z@4HA PROC ; `Client::CThorn::Create'::`1'::dtor$0
  00000	48 89 4c 24 08	 mov	 QWORD PTR [rsp+8], rcx
  00005	48 89 54 24 10	 mov	 QWORD PTR [rsp+16], rdx
  0000a	55		 push	 rbp
  0000b	57		 push	 rdi
  0000c	48 83 ec 28	 sub	 rsp, 40			; 00000028H
  00010	48 8d 6a 20	 lea	 rbp, QWORD PTR [rdx+32]
  00014	44 8b 0d 00 00
	00 00		 mov	 r9d, DWORD PTR ?__LINE__Var@?0??Create@CThorn@Client@@SAPEAV23@PEAUID3D11Device@@PEAUID3D11DeviceContext@@@Z@4JA
  0001b	41 ff c1	 inc	 r9d
  0001e	4c 8d 05 00 00
	00 00		 lea	 r8, OFFSET FLAT:??_C@_0ED@NMCGMBOD@c?3?2users?2arcco?2documents?2github?2@
  00025	ba 01 00 00 00	 mov	 edx, 1
  0002a	48 8b 8d 08 01
	00 00		 mov	 rcx, QWORD PTR $T5[rbp]
  00031	e8 00 00 00 00	 call	 ??3@YAXPEAXHPEBDH@Z	; operator delete
  00036	48 83 c4 28	 add	 rsp, 40			; 00000028H
  0003a	5f		 pop	 rdi
  0003b	5d		 pop	 rbp
  0003c	c3		 ret	 0
?dtor$0@?0??Create@CThorn@Client@@SAPEAV12@PEAUID3D11Device@@PEAUID3D11DeviceContext@@@Z@4HA ENDP ; `Client::CThorn::Create'::`1'::dtor$0
text$x	ENDS
; Function compile flags: /Odtp /RTCsu /ZI
; File c:\users\arcco\documents\github\framework\client\private\thorn.cpp
;	COMDAT ?OnCollisionExit@CThorn@Client@@EEAAXPEAVCCollider@Engine@@0@Z
_TEXT	SEGMENT
this$ = 224
src$ = 232
dest$ = 240
?OnCollisionExit@CThorn@Client@@EEAAXPEAVCCollider@Engine@@0@Z PROC ; Client::CThorn::OnCollisionExit, COMDAT

; 638  : {

$LN3:
  00000	4c 89 44 24 18	 mov	 QWORD PTR [rsp+24], r8
  00005	48 89 54 24 10	 mov	 QWORD PTR [rsp+16], rdx
  0000a	48 89 4c 24 08	 mov	 QWORD PTR [rsp+8], rcx
  0000f	55		 push	 rbp
  00010	57		 push	 rdi
  00011	48 81 ec c8 00
	00 00		 sub	 rsp, 200		; 000000c8H
  00018	48 8b ec	 mov	 rbp, rsp
  0001b	48 8b fc	 mov	 rdi, rsp
  0001e	b9 32 00 00 00	 mov	 ecx, 50			; 00000032H
  00023	b8 cc cc cc cc	 mov	 eax, -858993460		; ccccccccH
  00028	f3 ab		 rep stosd
  0002a	48 8b 8c 24 e8
	00 00 00	 mov	 rcx, QWORD PTR [rsp+232]

; 639  : }

  00032	48 8d a5 c8 00
	00 00		 lea	 rsp, QWORD PTR [rbp+200]
  00039	5f		 pop	 rdi
  0003a	5d		 pop	 rbp
  0003b	c3		 ret	 0
?OnCollisionExit@CThorn@Client@@EEAAXPEAVCCollider@Engine@@0@Z ENDP ; Client::CThorn::OnCollisionExit
_TEXT	ENDS
; Function compile flags: /Odtp /RTCsu /ZI
; File c:\users\arcco\documents\github\framework\client\private\thorn.cpp
;	COMDAT ?OnCollisionStay@CThorn@Client@@EEAAXPEAVCCollider@Engine@@0@Z
_TEXT	SEGMENT
this$ = 224
src$ = 232
dest$ = 240
?OnCollisionStay@CThorn@Client@@EEAAXPEAVCCollider@Engine@@0@Z PROC ; Client::CThorn::OnCollisionStay, COMDAT

; 634  : {

$LN3:
  00000	4c 89 44 24 18	 mov	 QWORD PTR [rsp+24], r8
  00005	48 89 54 24 10	 mov	 QWORD PTR [rsp+16], rdx
  0000a	48 89 4c 24 08	 mov	 QWORD PTR [rsp+8], rcx
  0000f	55		 push	 rbp
  00010	57		 push	 rdi
  00011	48 81 ec c8 00
	00 00		 sub	 rsp, 200		; 000000c8H
  00018	48 8b ec	 mov	 rbp, rsp
  0001b	48 8b fc	 mov	 rdi, rsp
  0001e	b9 32 00 00 00	 mov	 ecx, 50			; 00000032H
  00023	b8 cc cc cc cc	 mov	 eax, -858993460		; ccccccccH
  00028	f3 ab		 rep stosd
  0002a	48 8b 8c 24 e8
	00 00 00	 mov	 rcx, QWORD PTR [rsp+232]

; 635  : }

  00032	48 8d a5 c8 00
	00 00		 lea	 rsp, QWORD PTR [rbp+200]
  00039	5f		 pop	 rdi
  0003a	5d		 pop	 rbp
  0003b	c3		 ret	 0
?OnCollisionStay@CThorn@Client@@EEAAXPEAVCCollider@Engine@@0@Z ENDP ; Client::CThorn::OnCollisionStay
_TEXT	ENDS
; Function compile flags: /Odtp /RTCsu /ZI
; File c:\users\arcco\documents\github\framework\client\private\thorn.cpp
;	COMDAT ?OnCollisionEnter@CThorn@Client@@EEAAXPEAVCCollider@Engine@@0@Z
_TEXT	SEGMENT
pPlayer$ = 8
pPlayerColl$1 = 40
tv82 = 244
this$ = 288
src$ = 296
dest$ = 304
?OnCollisionEnter@CThorn@Client@@EEAAXPEAVCCollider@Engine@@0@Z PROC ; Client::CThorn::OnCollisionEnter, COMDAT

; 610  : {

$LN9:
  00000	4c 89 44 24 18	 mov	 QWORD PTR [rsp+24], r8
  00005	48 89 54 24 10	 mov	 QWORD PTR [rsp+16], rdx
  0000a	48 89 4c 24 08	 mov	 QWORD PTR [rsp+8], rcx
  0000f	55		 push	 rbp
  00010	57		 push	 rdi
  00011	48 81 ec 38 01
	00 00		 sub	 rsp, 312		; 00000138H
  00018	48 8d 6c 24 30	 lea	 rbp, QWORD PTR [rsp+48]
  0001d	48 8b fc	 mov	 rdi, rsp
  00020	b9 4e 00 00 00	 mov	 ecx, 78			; 0000004eH
  00025	b8 cc cc cc cc	 mov	 eax, -858993460		; ccccccccH
  0002a	f3 ab		 rep stosd
  0002c	48 8b 8c 24 58
	01 00 00	 mov	 rcx, QWORD PTR [rsp+344]

; 611  : 	CCharacter* pPlayer = dynamic_cast<CCharacter*>(dest->GetOwner());

  00034	48 8b 8d 30 01
	00 00		 mov	 rcx, QWORD PTR dest$[rbp]
  0003b	ff 15 00 00 00
	00		 call	 QWORD PTR __imp_?GetOwner@CCollider@Engine@@QEBAPEAVCGameObject@2@XZ
  00041	c7 44 24 20 00
	00 00 00	 mov	 DWORD PTR [rsp+32], 0
  00049	4c 8d 0d 00 00
	00 00		 lea	 r9, OFFSET FLAT:??_R0?AVCCharacter@Client@@@8
  00050	4c 8d 05 00 00
	00 00		 lea	 r8, OFFSET FLAT:??_R0?AVCGameObject@Engine@@@8
  00057	33 d2		 xor	 edx, edx
  00059	48 8b c8	 mov	 rcx, rax
  0005c	e8 00 00 00 00	 call	 __RTDynamicCast
  00061	48 89 45 08	 mov	 QWORD PTR pPlayer$[rbp], rax

; 612  : 	if (pPlayer)

  00065	48 83 7d 08 00	 cmp	 QWORD PTR pPlayer$[rbp], 0
  0006a	74 76		 je	 SHORT $LN4@OnCollisio

; 613  : 	{
; 614  : 		CCollider* pPlayerColl = pPlayer->GetBodyCollider();

  0006c	48 8b 4d 08	 mov	 rcx, QWORD PTR pPlayer$[rbp]
  00070	e8 00 00 00 00	 call	 ?GetBodyCollider@CCharacter@Client@@QEBAPEAVCCollider@Engine@@XZ ; Client::CCharacter::GetBodyCollider
  00075	48 89 45 28	 mov	 QWORD PTR pPlayerColl$1[rbp], rax

; 615  : 		if (dest->Compare(pPlayerColl))

  00079	48 8b 55 28	 mov	 rdx, QWORD PTR pPlayerColl$1[rbp]
  0007d	48 8b 8d 30 01
	00 00		 mov	 rcx, QWORD PTR dest$[rbp]
  00084	ff 15 00 00 00
	00		 call	 QWORD PTR __imp_?Compare@CCollider@Engine@@QEAA_NPEAV12@@Z
  0008a	0f b6 c0	 movzx	 eax, al
  0008d	85 c0		 test	 eax, eax
  0008f	74 51		 je	 SHORT $LN5@OnCollisio

; 616  : 		{
; 617  : 			switch (m_eThornType)

  00091	48 8b 85 20 01
	00 00		 mov	 rax, QWORD PTR this$[rbp]
  00098	8b 40 20	 mov	 eax, DWORD PTR [rax+32]
  0009b	89 85 f4 00 00
	00		 mov	 DWORD PTR tv82[rbp], eax
  000a1	83 bd f4 00 00
	00 00		 cmp	 DWORD PTR tv82[rbp], 0
  000a8	74 0b		 je	 SHORT $LN6@OnCollisio
  000aa	83 bd f4 00 00
	00 01		 cmp	 DWORD PTR tv82[rbp], 1
  000b1	74 15		 je	 SHORT $LN7@OnCollisio
  000b3	eb 2d		 jmp	 SHORT $LN2@OnCollisio
$LN6@OnCollisio:

; 618  : 			{
; 619  : 			case THORN:
; 620  : 				pPlayer->RecvDamage(10.f);

  000b5	f3 0f 10 0d 00
	00 00 00	 movss	 xmm1, DWORD PTR __real@41200000
  000bd	48 8b 4d 08	 mov	 rcx, QWORD PTR pPlayer$[rbp]
  000c1	e8 00 00 00 00	 call	 ?RecvDamage@CCharacter@Client@@QEAAXM@Z ; Client::CCharacter::RecvDamage

; 621  : 				break;

  000c6	eb 1a		 jmp	 SHORT $LN2@OnCollisio
$LN7@OnCollisio:

; 622  : 			case MISSILE:
; 623  : 				//pPlayer->Airbone();
; 624  : 				pPlayer->Hit();

  000c8	48 8b 4d 08	 mov	 rcx, QWORD PTR pPlayer$[rbp]
  000cc	e8 00 00 00 00	 call	 ?Hit@CCharacter@Client@@QEAAXXZ ; Client::CCharacter::Hit

; 625  : 				pPlayer->RecvDamage(25.f);

  000d1	f3 0f 10 0d 00
	00 00 00	 movss	 xmm1, DWORD PTR __real@41c80000
  000d9	48 8b 4d 08	 mov	 rcx, QWORD PTR pPlayer$[rbp]
  000dd	e8 00 00 00 00	 call	 ?RecvDamage@CCharacter@Client@@QEAAXM@Z ; Client::CCharacter::RecvDamage
$LN2@OnCollisio:
$LN5@OnCollisio:
$LN4@OnCollisio:

; 626  : 				break;
; 627  : 			}
; 628  : 		}
; 629  : 
; 630  : 	}
; 631  : }

  000e2	48 8d a5 08 01
	00 00		 lea	 rsp, QWORD PTR [rbp+264]
  000e9	5f		 pop	 rdi
  000ea	5d		 pop	 rbp
  000eb	c3		 ret	 0
?OnCollisionEnter@CThorn@Client@@EEAAXPEAVCCollider@Engine@@0@Z ENDP ; Client::CThorn::OnCollisionEnter
_TEXT	ENDS
; Function compile flags: /Odtp /RTCsu /ZI
; File c:\users\arcco\documents\github\framework\client\private\thorn.cpp
;	COMDAT ?SameObjectNoDetection@CThorn@Client@@EEAAXXZ
_TEXT	SEGMENT
this$ = 224
?SameObjectNoDetection@CThorn@Client@@EEAAXXZ PROC	; Client::CThorn::SameObjectNoDetection, COMDAT

; 606  : {

$LN3:
  00000	48 89 4c 24 08	 mov	 QWORD PTR [rsp+8], rcx
  00005	55		 push	 rbp
  00006	57		 push	 rdi
  00007	48 81 ec c8 00
	00 00		 sub	 rsp, 200		; 000000c8H
  0000e	48 8b ec	 mov	 rbp, rsp
  00011	48 8b fc	 mov	 rdi, rsp
  00014	b9 32 00 00 00	 mov	 ecx, 50			; 00000032H
  00019	b8 cc cc cc cc	 mov	 eax, -858993460		; ccccccccH
  0001e	f3 ab		 rep stosd
  00020	48 8b 8c 24 e8
	00 00 00	 mov	 rcx, QWORD PTR [rsp+232]

; 607  : }

  00028	48 8d a5 c8 00
	00 00		 lea	 rsp, QWORD PTR [rbp+200]
  0002f	5f		 pop	 rdi
  00030	5d		 pop	 rbp
  00031	c3		 ret	 0
?SameObjectNoDetection@CThorn@Client@@EEAAXXZ ENDP	; Client::CThorn::SameObjectNoDetection
_TEXT	ENDS
; Function compile flags: /Odtp /RTCsu /ZI
; File c:\users\arcco\documents\github\framework\client\private\thorn.cpp
;	COMDAT ?SetupShaderResources@CThorn@Client@@AEAAJXZ
_TEXT	SEGMENT
pInstance$ = 8
LightDesc$ = 40
$T1 = 260
$T2 = 356
$T3 = 452
this$ = 528
?SetupShaderResources@CThorn@Client@@AEAAJXZ PROC	; Client::CThorn::SetupShaderResources, COMDAT

; 523  : {

$LN12:
  00000	48 89 4c 24 08	 mov	 QWORD PTR [rsp+8], rcx
  00005	55		 push	 rbp
  00006	57		 push	 rdi
  00007	48 81 ec 18 02
	00 00		 sub	 rsp, 536		; 00000218H
  0000e	48 8d 6c 24 20	 lea	 rbp, QWORD PTR [rsp+32]
  00013	48 8b fc	 mov	 rdi, rsp
  00016	b9 86 00 00 00	 mov	 ecx, 134		; 00000086H
  0001b	b8 cc cc cc cc	 mov	 eax, -858993460		; ccccccccH
  00020	f3 ab		 rep stosd
  00022	48 8b 8c 24 38
	02 00 00	 mov	 rcx, QWORD PTR [rsp+568]

; 524  : 	if (nullptr == m_pShader)

  0002a	48 8b 85 10 02
	00 00		 mov	 rax, QWORD PTR this$[rbp]
  00031	48 83 b8 c0 00
	00 00 00	 cmp	 QWORD PTR [rax+192], 0
  00039	75 0a		 jne	 SHORT $LN2@SetupShade

; 525  : 		return E_FAIL;

  0003b	b8 05 40 00 80	 mov	 eax, -2147467259	; ffffffff80004005H
  00040	e9 d2 01 00 00	 jmp	 $LN1@SetupShade
$LN2@SetupShade:

; 526  : 
; 527  : 	CGameInstance* pInstance = CGameInstance::GetInstance();

  00045	ff 15 00 00 00
	00		 call	 QWORD PTR __imp_?GetInstance@CGameInstance@Engine@@SAPEAV12@XZ
  0004b	48 89 45 08	 mov	 QWORD PTR pInstance$[rbp], rax

; 528  : 
