; Listing generated by Microsoft (R) Optimizing Compiler Version 19.00.24245.0 

include listing.inc

INCLUDELIB MSVCRTD
INCLUDELIB OLDNAMES

PUBLIC	?AliceBlue@Colors@DirectX@@3UXMVECTORF32@2@B	; DirectX::Colors::AliceBlue
PUBLIC	?AntiqueWhite@Colors@DirectX@@3UXMVECTORF32@2@B	; DirectX::Colors::AntiqueWhite
PUBLIC	?Aqua@Colors@DirectX@@3UXMVECTORF32@2@B		; DirectX::Colors::Aqua
PUBLIC	?Aquamarine@Colors@DirectX@@3UXMVECTORF32@2@B	; DirectX::Colors::Aquamarine
PUBLIC	?Azure@Colors@DirectX@@3UXMVECTORF32@2@B	; DirectX::Colors::Azure
PUBLIC	?Beige@Colors@DirectX@@3UXMVECTORF32@2@B	; DirectX::Colors::Beige
PUBLIC	?Bisque@Colors@DirectX@@3UXMVECTORF32@2@B	; DirectX::Colors::Bisque
PUBLIC	?Black@Colors@DirectX@@3UXMVECTORF32@2@B	; DirectX::Colors::Black
PUBLIC	?BlanchedAlmond@Colors@DirectX@@3UXMVECTORF32@2@B ; DirectX::Colors::BlanchedAlmond
PUBLIC	?Blue@Colors@DirectX@@3UXMVECTORF32@2@B		; DirectX::Colors::Blue
PUBLIC	?BlueViolet@Colors@DirectX@@3UXMVECTORF32@2@B	; DirectX::Colors::BlueViolet
PUBLIC	?Brown@Colors@DirectX@@3UXMVECTORF32@2@B	; DirectX::Colors::Brown
PUBLIC	?BurlyWood@Colors@DirectX@@3UXMVECTORF32@2@B	; DirectX::Colors::BurlyWood
PUBLIC	?CadetBlue@Colors@DirectX@@3UXMVECTORF32@2@B	; DirectX::Colors::CadetBlue
PUBLIC	?Chartreuse@Colors@DirectX@@3UXMVECTORF32@2@B	; DirectX::Colors::Chartreuse
PUBLIC	?Chocolate@Colors@DirectX@@3UXMVECTORF32@2@B	; DirectX::Colors::Chocolate
PUBLIC	?Coral@Colors@DirectX@@3UXMVECTORF32@2@B	; DirectX::Colors::Coral
PUBLIC	?CornflowerBlue@Colors@DirectX@@3UXMVECTORF32@2@B ; DirectX::Colors::CornflowerBlue
PUBLIC	?Cornsilk@Colors@DirectX@@3UXMVECTORF32@2@B	; DirectX::Colors::Cornsilk
PUBLIC	?Crimson@Colors@DirectX@@3UXMVECTORF32@2@B	; DirectX::Colors::Crimson
PUBLIC	?Cyan@Colors@DirectX@@3UXMVECTORF32@2@B		; DirectX::Colors::Cyan
PUBLIC	?DarkBlue@Colors@DirectX@@3UXMVECTORF32@2@B	; DirectX::Colors::DarkBlue
PUBLIC	?DarkCyan@Colors@DirectX@@3UXMVECTORF32@2@B	; DirectX::Colors::DarkCyan
PUBLIC	?DarkGoldenrod@Colors@DirectX@@3UXMVECTORF32@2@B ; DirectX::Colors::DarkGoldenrod
PUBLIC	?DarkGray@Colors@DirectX@@3UXMVECTORF32@2@B	; DirectX::Colors::DarkGray
PUBLIC	?DarkGreen@Colors@DirectX@@3UXMVECTORF32@2@B	; DirectX::Colors::DarkGreen
PUBLIC	?DarkKhaki@Colors@DirectX@@3UXMVECTORF32@2@B	; DirectX::Colors::DarkKhaki
PUBLIC	?DarkMagenta@Colors@DirectX@@3UXMVECTORF32@2@B	; DirectX::Colors::DarkMagenta
PUBLIC	?DarkOliveGreen@Colors@DirectX@@3UXMVECTORF32@2@B ; DirectX::Colors::DarkOliveGreen
PUBLIC	?DarkOrange@Colors@DirectX@@3UXMVECTORF32@2@B	; DirectX::Colors::DarkOrange
PUBLIC	?DarkOrchid@Colors@DirectX@@3UXMVECTORF32@2@B	; DirectX::Colors::DarkOrchid
PUBLIC	?DarkRed@Colors@DirectX@@3UXMVECTORF32@2@B	; DirectX::Colors::DarkRed
PUBLIC	?DarkSalmon@Colors@DirectX@@3UXMVECTORF32@2@B	; DirectX::Colors::DarkSalmon
PUBLIC	?DarkSeaGreen@Colors@DirectX@@3UXMVECTORF32@2@B	; DirectX::Colors::DarkSeaGreen
PUBLIC	?DarkSlateBlue@Colors@DirectX@@3UXMVECTORF32@2@B ; DirectX::Colors::DarkSlateBlue
PUBLIC	?DarkSlateGray@Colors@DirectX@@3UXMVECTORF32@2@B ; DirectX::Colors::DarkSlateGray
PUBLIC	?DarkTurquoise@Colors@DirectX@@3UXMVECTORF32@2@B ; DirectX::Colors::DarkTurquoise
PUBLIC	?DarkViolet@Colors@DirectX@@3UXMVECTORF32@2@B	; DirectX::Colors::DarkViolet
PUBLIC	?DeepPink@Colors@DirectX@@3UXMVECTORF32@2@B	; DirectX::Colors::DeepPink
PUBLIC	?DeepSkyBlue@Colors@DirectX@@3UXMVECTORF32@2@B	; DirectX::Colors::DeepSkyBlue
PUBLIC	?DimGray@Colors@DirectX@@3UXMVECTORF32@2@B	; DirectX::Colors::DimGray
PUBLIC	?DodgerBlue@Colors@DirectX@@3UXMVECTORF32@2@B	; DirectX::Colors::DodgerBlue
PUBLIC	?Firebrick@Colors@DirectX@@3UXMVECTORF32@2@B	; DirectX::Colors::Firebrick
PUBLIC	?FloralWhite@Colors@DirectX@@3UXMVECTORF32@2@B	; DirectX::Colors::FloralWhite
PUBLIC	?ForestGreen@Colors@DirectX@@3UXMVECTORF32@2@B	; DirectX::Colors::ForestGreen
PUBLIC	?Fuchsia@Colors@DirectX@@3UXMVECTORF32@2@B	; DirectX::Colors::Fuchsia
PUBLIC	?Gainsboro@Colors@DirectX@@3UXMVECTORF32@2@B	; DirectX::Colors::Gainsboro
PUBLIC	?GhostWhite@Colors@DirectX@@3UXMVECTORF32@2@B	; DirectX::Colors::GhostWhite
PUBLIC	?Gold@Colors@DirectX@@3UXMVECTORF32@2@B		; DirectX::Colors::Gold
PUBLIC	?Goldenrod@Colors@DirectX@@3UXMVECTORF32@2@B	; DirectX::Colors::Goldenrod
PUBLIC	?Gray@Colors@DirectX@@3UXMVECTORF32@2@B		; DirectX::Colors::Gray
PUBLIC	?Green@Colors@DirectX@@3UXMVECTORF32@2@B	; DirectX::Colors::Green
PUBLIC	?GreenYellow@Colors@DirectX@@3UXMVECTORF32@2@B	; DirectX::Colors::GreenYellow
PUBLIC	?Honeydew@Colors@DirectX@@3UXMVECTORF32@2@B	; DirectX::Colors::Honeydew
PUBLIC	?HotPink@Colors@DirectX@@3UXMVECTORF32@2@B	; DirectX::Colors::HotPink
PUBLIC	?IndianRed@Colors@DirectX@@3UXMVECTORF32@2@B	; DirectX::Colors::IndianRed
PUBLIC	?Indigo@Colors@DirectX@@3UXMVECTORF32@2@B	; DirectX::Colors::Indigo
PUBLIC	?Ivory@Colors@DirectX@@3UXMVECTORF32@2@B	; DirectX::Colors::Ivory
PUBLIC	?Khaki@Colors@DirectX@@3UXMVECTORF32@2@B	; DirectX::Colors::Khaki
PUBLIC	?Lavender@Colors@DirectX@@3UXMVECTORF32@2@B	; DirectX::Colors::Lavender
PUBLIC	?LavenderBlush@Colors@DirectX@@3UXMVECTORF32@2@B ; DirectX::Colors::LavenderBlush
PUBLIC	?LawnGreen@Colors@DirectX@@3UXMVECTORF32@2@B	; DirectX::Colors::LawnGreen
PUBLIC	?LemonChiffon@Colors@DirectX@@3UXMVECTORF32@2@B	; DirectX::Colors::LemonChiffon
PUBLIC	?LightBlue@Colors@DirectX@@3UXMVECTORF32@2@B	; DirectX::Colors::LightBlue
PUBLIC	?LightCoral@Colors@DirectX@@3UXMVECTORF32@2@B	; DirectX::Colors::LightCoral
PUBLIC	?LightCyan@Colors@DirectX@@3UXMVECTORF32@2@B	; DirectX::Colors::LightCyan
PUBLIC	?LightGoldenrodYellow@Colors@DirectX@@3UXMVECTORF32@2@B ; DirectX::Colors::LightGoldenrodYellow
PUBLIC	?LightGreen@Colors@DirectX@@3UXMVECTORF32@2@B	; DirectX::Colors::LightGreen
PUBLIC	?LightGray@Colors@DirectX@@3UXMVECTORF32@2@B	; DirectX::Colors::LightGray
PUBLIC	?LightPink@Colors@DirectX@@3UXMVECTORF32@2@B	; DirectX::Colors::LightPink
PUBLIC	?LightSalmon@Colors@DirectX@@3UXMVECTORF32@2@B	; DirectX::Colors::LightSalmon
PUBLIC	?LightSeaGreen@Colors@DirectX@@3UXMVECTORF32@2@B ; DirectX::Colors::LightSeaGreen
PUBLIC	?LightSkyBlue@Colors@DirectX@@3UXMVECTORF32@2@B	; DirectX::Colors::LightSkyBlue
PUBLIC	?LightSlateGray@Colors@DirectX@@3UXMVECTORF32@2@B ; DirectX::Colors::LightSlateGray
PUBLIC	?LightSteelBlue@Colors@DirectX@@3UXMVECTORF32@2@B ; DirectX::Colors::LightSteelBlue
PUBLIC	?LightYellow@Colors@DirectX@@3UXMVECTORF32@2@B	; DirectX::Colors::LightYellow
PUBLIC	?Lime@Colors@DirectX@@3UXMVECTORF32@2@B		; DirectX::Colors::Lime
PUBLIC	?LimeGreen@Colors@DirectX@@3UXMVECTORF32@2@B	; DirectX::Colors::LimeGreen
PUBLIC	?Linen@Colors@DirectX@@3UXMVECTORF32@2@B	; DirectX::Colors::Linen
PUBLIC	?Magenta@Colors@DirectX@@3UXMVECTORF32@2@B	; DirectX::Colors::Magenta
PUBLIC	?Maroon@Colors@DirectX@@3UXMVECTORF32@2@B	; DirectX::Colors::Maroon
PUBLIC	?MediumAquamarine@Colors@DirectX@@3UXMVECTORF32@2@B ; DirectX::Colors::MediumAquamarine
PUBLIC	?MediumBlue@Colors@DirectX@@3UXMVECTORF32@2@B	; DirectX::Colors::MediumBlue
PUBLIC	?MediumOrchid@Colors@DirectX@@3UXMVECTORF32@2@B	; DirectX::Colors::MediumOrchid
PUBLIC	?MediumPurple@Colors@DirectX@@3UXMVECTORF32@2@B	; DirectX::Colors::MediumPurple
PUBLIC	?MediumSeaGreen@Colors@DirectX@@3UXMVECTORF32@2@B ; DirectX::Colors::MediumSeaGreen
PUBLIC	?MediumSlateBlue@Colors@DirectX@@3UXMVECTORF32@2@B ; DirectX::Colors::MediumSlateBlue
PUBLIC	?MediumSpringGreen@Colors@DirectX@@3UXMVECTORF32@2@B ; DirectX::Colors::MediumSpringGreen
PUBLIC	?MediumTurquoise@Colors@DirectX@@3UXMVECTORF32@2@B ; DirectX::Colors::MediumTurquoise
PUBLIC	?MediumVioletRed@Colors@DirectX@@3UXMVECTORF32@2@B ; DirectX::Colors::MediumVioletRed
PUBLIC	?MidnightBlue@Colors@DirectX@@3UXMVECTORF32@2@B	; DirectX::Colors::MidnightBlue
PUBLIC	?MintCream@Colors@DirectX@@3UXMVECTORF32@2@B	; DirectX::Colors::MintCream
PUBLIC	?MistyRose@Colors@DirectX@@3UXMVECTORF32@2@B	; DirectX::Colors::MistyRose
PUBLIC	?Moccasin@Colors@DirectX@@3UXMVECTORF32@2@B	; DirectX::Colors::Moccasin
PUBLIC	?NavajoWhite@Colors@DirectX@@3UXMVECTORF32@2@B	; DirectX::Colors::NavajoWhite
PUBLIC	?Navy@Colors@DirectX@@3UXMVECTORF32@2@B		; DirectX::Colors::Navy
PUBLIC	?OldLace@Colors@DirectX@@3UXMVECTORF32@2@B	; DirectX::Colors::OldLace
PUBLIC	?Olive@Colors@DirectX@@3UXMVECTORF32@2@B	; DirectX::Colors::Olive
PUBLIC	?OliveDrab@Colors@DirectX@@3UXMVECTORF32@2@B	; DirectX::Colors::OliveDrab
PUBLIC	?Orange@Colors@DirectX@@3UXMVECTORF32@2@B	; DirectX::Colors::Orange
PUBLIC	?OrangeRed@Colors@DirectX@@3UXMVECTORF32@2@B	; DirectX::Colors::OrangeRed
PUBLIC	?Orchid@Colors@DirectX@@3UXMVECTORF32@2@B	; DirectX::Colors::Orchid
PUBLIC	?PaleGoldenrod@Colors@DirectX@@3UXMVECTORF32@2@B ; DirectX::Colors::PaleGoldenrod
PUBLIC	?PaleGreen@Colors@DirectX@@3UXMVECTORF32@2@B	; DirectX::Colors::PaleGreen
PUBLIC	?PaleTurquoise@Colors@DirectX@@3UXMVECTORF32@2@B ; DirectX::Colors::PaleTurquoise
PUBLIC	?PaleVioletRed@Colors@DirectX@@3UXMVECTORF32@2@B ; DirectX::Colors::PaleVioletRed
PUBLIC	?PapayaWhip@Colors@DirectX@@3UXMVECTORF32@2@B	; DirectX::Colors::PapayaWhip
PUBLIC	?PeachPuff@Colors@DirectX@@3UXMVECTORF32@2@B	; DirectX::Colors::PeachPuff
PUBLIC	?Peru@Colors@DirectX@@3UXMVECTORF32@2@B		; DirectX::Colors::Peru
PUBLIC	?Pink@Colors@DirectX@@3UXMVECTORF32@2@B		; DirectX::Colors::Pink
PUBLIC	?Plum@Colors@DirectX@@3UXMVECTORF32@2@B		; DirectX::Colors::Plum
PUBLIC	?PowderBlue@Colors@DirectX@@3UXMVECTORF32@2@B	; DirectX::Colors::PowderBlue
PUBLIC	?Purple@Colors@DirectX@@3UXMVECTORF32@2@B	; DirectX::Colors::Purple
PUBLIC	?Red@Colors@DirectX@@3UXMVECTORF32@2@B		; DirectX::Colors::Red
PUBLIC	?RosyBrown@Colors@DirectX@@3UXMVECTORF32@2@B	; DirectX::Colors::RosyBrown
PUBLIC	?RoyalBlue@Colors@DirectX@@3UXMVECTORF32@2@B	; DirectX::Colors::RoyalBlue
PUBLIC	?SaddleBrown@Colors@DirectX@@3UXMVECTORF32@2@B	; DirectX::Colors::SaddleBrown
PUBLIC	?Salmon@Colors@DirectX@@3UXMVECTORF32@2@B	; DirectX::Colors::Salmon
PUBLIC	?SandyBrown@Colors@DirectX@@3UXMVECTORF32@2@B	; DirectX::Colors::SandyBrown
PUBLIC	?SeaGreen@Colors@DirectX@@3UXMVECTORF32@2@B	; DirectX::Colors::SeaGreen
PUBLIC	?SeaShell@Colors@DirectX@@3UXMVECTORF32@2@B	; DirectX::Colors::SeaShell
PUBLIC	?Sienna@Colors@DirectX@@3UXMVECTORF32@2@B	; DirectX::Colors::Sienna
PUBLIC	?g_BoxOffset@DirectX@@3QBUXMVECTORF32@1@B	; DirectX::g_BoxOffset
PUBLIC	?Silver@Colors@DirectX@@3UXMVECTORF32@2@B	; DirectX::Colors::Silver
PUBLIC	?g_RayEpsilon@DirectX@@3UXMVECTORF32@1@B	; DirectX::g_RayEpsilon
PUBLIC	?SkyBlue@Colors@DirectX@@3UXMVECTORF32@2@B	; DirectX::Colors::SkyBlue
PUBLIC	?g_RayNegEpsilon@DirectX@@3UXMVECTORF32@1@B	; DirectX::g_RayNegEpsilon
PUBLIC	?SlateBlue@Colors@DirectX@@3UXMVECTORF32@2@B	; DirectX::Colors::SlateBlue
PUBLIC	?g_FltMin@DirectX@@3UXMVECTORF32@1@B		; DirectX::g_FltMin
PUBLIC	?SlateGray@Colors@DirectX@@3UXMVECTORF32@2@B	; DirectX::Colors::SlateGray
PUBLIC	?g_FltMax@DirectX@@3UXMVECTORF32@1@B		; DirectX::g_FltMax
PUBLIC	?Snow@Colors@DirectX@@3UXMVECTORF32@2@B		; DirectX::Colors::Snow
PUBLIC	?SpringGreen@Colors@DirectX@@3UXMVECTORF32@2@B	; DirectX::Colors::SpringGreen
PUBLIC	?SteelBlue@Colors@DirectX@@3UXMVECTORF32@2@B	; DirectX::Colors::SteelBlue
PUBLIC	?Tan@Colors@DirectX@@3UXMVECTORF32@2@B		; DirectX::Colors::Tan
PUBLIC	?Teal@Colors@DirectX@@3UXMVECTORF32@2@B		; DirectX::Colors::Teal
PUBLIC	?Thistle@Colors@DirectX@@3UXMVECTORF32@2@B	; DirectX::Colors::Thistle
PUBLIC	?Tomato@Colors@DirectX@@3UXMVECTORF32@2@B	; DirectX::Colors::Tomato
PUBLIC	?Transparent@Colors@DirectX@@3UXMVECTORF32@2@B	; DirectX::Colors::Transparent
PUBLIC	?Turquoise@Colors@DirectX@@3UXMVECTORF32@2@B	; DirectX::Colors::Turquoise
PUBLIC	?Violet@Colors@DirectX@@3UXMVECTORF32@2@B	; DirectX::Colors::Violet
PUBLIC	?Wheat@Colors@DirectX@@3UXMVECTORF32@2@B	; DirectX::Colors::Wheat
PUBLIC	?White@Colors@DirectX@@3UXMVECTORF32@2@B	; DirectX::Colors::White
PUBLIC	?WhiteSmoke@Colors@DirectX@@3UXMVECTORF32@2@B	; DirectX::Colors::WhiteSmoke
PUBLIC	?Yellow@Colors@DirectX@@3UXMVECTORF32@2@B	; DirectX::Colors::Yellow
PUBLIC	?YellowGreen@Colors@DirectX@@3UXMVECTORF32@2@B	; DirectX::Colors::YellowGreen
PUBLIC	?g_UnitVectorEpsilon@Internal@DirectX@@3UXMVECTORF32@2@B ; DirectX::Internal::g_UnitVectorEpsilon
PUBLIC	?g_UnitQuaternionEpsilon@Internal@DirectX@@3UXMVECTORF32@2@B ; DirectX::Internal::g_UnitQuaternionEpsilon
PUBLIC	?g_UnitPlaneEpsilon@Internal@DirectX@@3UXMVECTORF32@2@B ; DirectX::Internal::g_UnitPlaneEpsilon
PUBLIC	?g_XMSinCoefficients0@DirectX@@3UXMVECTORF32@1@B ; DirectX::g_XMSinCoefficients0
PUBLIC	?g_XMSinCoefficients1@DirectX@@3UXMVECTORF32@1@B ; DirectX::g_XMSinCoefficients1
PUBLIC	?g_XMCosCoefficients0@DirectX@@3UXMVECTORF32@1@B ; DirectX::g_XMCosCoefficients0
PUBLIC	?g_XMCosCoefficients1@DirectX@@3UXMVECTORF32@1@B ; DirectX::g_XMCosCoefficients1
PUBLIC	?g_XMTanCoefficients0@DirectX@@3UXMVECTORF32@1@B ; DirectX::g_XMTanCoefficients0
PUBLIC	?g_XMTanCoefficients1@DirectX@@3UXMVECTORF32@1@B ; DirectX::g_XMTanCoefficients1
PUBLIC	?g_XMTanCoefficients2@DirectX@@3UXMVECTORF32@1@B ; DirectX::g_XMTanCoefficients2
PUBLIC	?g_XMArcCoefficients0@DirectX@@3UXMVECTORF32@1@B ; DirectX::g_XMArcCoefficients0
PUBLIC	?g_XMArcCoefficients1@DirectX@@3UXMVECTORF32@1@B ; DirectX::g_XMArcCoefficients1
PUBLIC	?g_XMATanCoefficients0@DirectX@@3UXMVECTORF32@1@B ; DirectX::g_XMATanCoefficients0
PUBLIC	?g_XMATanCoefficients1@DirectX@@3UXMVECTORF32@1@B ; DirectX::g_XMATanCoefficients1
PUBLIC	?g_XMATanEstCoefficients0@DirectX@@3UXMVECTORF32@1@B ; DirectX::g_XMATanEstCoefficients0
PUBLIC	?g_XMATanEstCoefficients1@DirectX@@3UXMVECTORF32@1@B ; DirectX::g_XMATanEstCoefficients1
PUBLIC	?g_XMTanEstCoefficients@DirectX@@3UXMVECTORF32@1@B ; DirectX::g_XMTanEstCoefficients
PUBLIC	?g_XMArcEstCoefficients@DirectX@@3UXMVECTORF32@1@B ; DirectX::g_XMArcEstCoefficients
PUBLIC	?g_XMPiConstants0@DirectX@@3UXMVECTORF32@1@B	; DirectX::g_XMPiConstants0
PUBLIC	?g_XMIdentityR0@DirectX@@3UXMVECTORF32@1@B	; DirectX::g_XMIdentityR0
PUBLIC	?g_XMIdentityR1@DirectX@@3UXMVECTORF32@1@B	; DirectX::g_XMIdentityR1
PUBLIC	?g_XMIdentityR2@DirectX@@3UXMVECTORF32@1@B	; DirectX::g_XMIdentityR2
PUBLIC	?g_XMIdentityR3@DirectX@@3UXMVECTORF32@1@B	; DirectX::g_XMIdentityR3
PUBLIC	?g_XMNegIdentityR0@DirectX@@3UXMVECTORF32@1@B	; DirectX::g_XMNegIdentityR0
PUBLIC	?g_XMNegIdentityR1@DirectX@@3UXMVECTORF32@1@B	; DirectX::g_XMNegIdentityR1
PUBLIC	?g_XMNegIdentityR2@DirectX@@3UXMVECTORF32@1@B	; DirectX::g_XMNegIdentityR2
PUBLIC	?g_XMNegIdentityR3@DirectX@@3UXMVECTORF32@1@B	; DirectX::g_XMNegIdentityR3
PUBLIC	?g_XMNegativeZero@DirectX@@3UXMVECTORU32@1@B	; DirectX::g_XMNegativeZero
PUBLIC	?g_XMNegate3@DirectX@@3UXMVECTORU32@1@B		; DirectX::g_XMNegate3
PUBLIC	?g_XMMask3@DirectX@@3UXMVECTORU32@1@B		; DirectX::g_XMMask3
PUBLIC	?g_XMMaskX@DirectX@@3UXMVECTORU32@1@B		; DirectX::g_XMMaskX
PUBLIC	?g_XMMaskY@DirectX@@3UXMVECTORU32@1@B		; DirectX::g_XMMaskY
PUBLIC	?g_XMMaskZ@DirectX@@3UXMVECTORU32@1@B		; DirectX::g_XMMaskZ
PUBLIC	?g_XMMaskW@DirectX@@3UXMVECTORU32@1@B		; DirectX::g_XMMaskW
PUBLIC	?g_XMOne@DirectX@@3UXMVECTORF32@1@B		; DirectX::g_XMOne
PUBLIC	?g_XMOne3@DirectX@@3UXMVECTORF32@1@B		; DirectX::g_XMOne3
PUBLIC	?g_XMZero@DirectX@@3UXMVECTORF32@1@B		; DirectX::g_XMZero
PUBLIC	?g_XMTwo@DirectX@@3UXMVECTORF32@1@B		; DirectX::g_XMTwo
PUBLIC	?g_XMFour@DirectX@@3UXMVECTORF32@1@B		; DirectX::g_XMFour
PUBLIC	?g_XMSix@DirectX@@3UXMVECTORF32@1@B		; DirectX::g_XMSix
PUBLIC	?g_XMNegativeOne@DirectX@@3UXMVECTORF32@1@B	; DirectX::g_XMNegativeOne
PUBLIC	?g_XMOneHalf@DirectX@@3UXMVECTORF32@1@B		; DirectX::g_XMOneHalf
PUBLIC	?g_XMNegativeOneHalf@DirectX@@3UXMVECTORF32@1@B	; DirectX::g_XMNegativeOneHalf
PUBLIC	?g_XMNegativeTwoPi@DirectX@@3UXMVECTORF32@1@B	; DirectX::g_XMNegativeTwoPi
PUBLIC	?g_XMNegativePi@DirectX@@3UXMVECTORF32@1@B	; DirectX::g_XMNegativePi
PUBLIC	?g_XMHalfPi@DirectX@@3UXMVECTORF32@1@B		; DirectX::g_XMHalfPi
PUBLIC	?g_XMPi@DirectX@@3UXMVECTORF32@1@B		; DirectX::g_XMPi
PUBLIC	?g_XMReciprocalPi@DirectX@@3UXMVECTORF32@1@B	; DirectX::g_XMReciprocalPi
PUBLIC	?g_XMTwoPi@DirectX@@3UXMVECTORF32@1@B		; DirectX::g_XMTwoPi
PUBLIC	?g_XMReciprocalTwoPi@DirectX@@3UXMVECTORF32@1@B	; DirectX::g_XMReciprocalTwoPi
PUBLIC	?g_XMEpsilon@DirectX@@3UXMVECTORF32@1@B		; DirectX::g_XMEpsilon
PUBLIC	?g_XMInfinity@DirectX@@3UXMVECTORI32@1@B	; DirectX::g_XMInfinity
PUBLIC	?g_XMQNaN@DirectX@@3UXMVECTORI32@1@B		; DirectX::g_XMQNaN
PUBLIC	?g_XMQNaNTest@DirectX@@3UXMVECTORI32@1@B	; DirectX::g_XMQNaNTest
PUBLIC	?g_XMAbsMask@DirectX@@3UXMVECTORI32@1@B		; DirectX::g_XMAbsMask
PUBLIC	?g_XMFltMin@DirectX@@3UXMVECTORI32@1@B		; DirectX::g_XMFltMin
PUBLIC	?g_XMFltMax@DirectX@@3UXMVECTORI32@1@B		; DirectX::g_XMFltMax
PUBLIC	?g_XMNegOneMask@DirectX@@3UXMVECTORU32@1@B	; DirectX::g_XMNegOneMask
PUBLIC	?g_XMMaskA8R8G8B8@DirectX@@3UXMVECTORU32@1@B	; DirectX::g_XMMaskA8R8G8B8
PUBLIC	?g_XMFlipA8R8G8B8@DirectX@@3UXMVECTORU32@1@B	; DirectX::g_XMFlipA8R8G8B8
PUBLIC	?g_XMFixAA8R8G8B8@DirectX@@3UXMVECTORF32@1@B	; DirectX::g_XMFixAA8R8G8B8
PUBLIC	?g_XMNormalizeA8R8G8B8@DirectX@@3UXMVECTORF32@1@B ; DirectX::g_XMNormalizeA8R8G8B8
PUBLIC	?g_XMMaskA2B10G10R10@DirectX@@3UXMVECTORU32@1@B	; DirectX::g_XMMaskA2B10G10R10
PUBLIC	?g_XMFlipA2B10G10R10@DirectX@@3UXMVECTORU32@1@B	; DirectX::g_XMFlipA2B10G10R10
PUBLIC	?g_XMFixAA2B10G10R10@DirectX@@3UXMVECTORF32@1@B	; DirectX::g_XMFixAA2B10G10R10
PUBLIC	?g_XMNormalizeA2B10G10R10@DirectX@@3UXMVECTORF32@1@B ; DirectX::g_XMNormalizeA2B10G10R10
PUBLIC	?g_XMMaskX16Y16@DirectX@@3UXMVECTORU32@1@B	; DirectX::g_XMMaskX16Y16
PUBLIC	?g_XMFlipX16Y16@DirectX@@3UXMVECTORI32@1@B	; DirectX::g_XMFlipX16Y16
PUBLIC	?g_XMFixX16Y16@DirectX@@3UXMVECTORF32@1@B	; DirectX::g_XMFixX16Y16
PUBLIC	?g_XMNormalizeX16Y16@DirectX@@3UXMVECTORF32@1@B	; DirectX::g_XMNormalizeX16Y16
PUBLIC	?g_XMMaskX16Y16Z16W16@DirectX@@3UXMVECTORU32@1@B ; DirectX::g_XMMaskX16Y16Z16W16
PUBLIC	?g_XMFlipX16Y16Z16W16@DirectX@@3UXMVECTORI32@1@B ; DirectX::g_XMFlipX16Y16Z16W16
PUBLIC	?g_XMFixX16Y16Z16W16@DirectX@@3UXMVECTORF32@1@B	; DirectX::g_XMFixX16Y16Z16W16
PUBLIC	?g_XMNormalizeX16Y16Z16W16@DirectX@@3UXMVECTORF32@1@B ; DirectX::g_XMNormalizeX16Y16Z16W16
PUBLIC	?g_XMNoFraction@DirectX@@3UXMVECTORF32@1@B	; DirectX::g_XMNoFraction
PUBLIC	?g_XMMaskByte@DirectX@@3UXMVECTORI32@1@B	; DirectX::g_XMMaskByte
PUBLIC	?g_XMNegateX@DirectX@@3UXMVECTORF32@1@B		; DirectX::g_XMNegateX
PUBLIC	?g_XMNegateY@DirectX@@3UXMVECTORF32@1@B		; DirectX::g_XMNegateY
PUBLIC	?g_XMNegateZ@DirectX@@3UXMVECTORF32@1@B		; DirectX::g_XMNegateZ
PUBLIC	?g_XMNegateW@DirectX@@3UXMVECTORF32@1@B		; DirectX::g_XMNegateW
PUBLIC	?g_XMSelect0101@DirectX@@3UXMVECTORU32@1@B	; DirectX::g_XMSelect0101
PUBLIC	?g_XMSelect1010@DirectX@@3UXMVECTORU32@1@B	; DirectX::g_XMSelect1010
PUBLIC	?g_XMOneHalfMinusEpsilon@DirectX@@3UXMVECTORI32@1@B ; DirectX::g_XMOneHalfMinusEpsilon
PUBLIC	?g_XMSelect1000@DirectX@@3UXMVECTORU32@1@B	; DirectX::g_XMSelect1000
PUBLIC	?g_XMSelect1100@DirectX@@3UXMVECTORU32@1@B	; DirectX::g_XMSelect1100
PUBLIC	?g_XMSelect1110@DirectX@@3UXMVECTORU32@1@B	; DirectX::g_XMSelect1110
PUBLIC	?g_XMSelect1011@DirectX@@3UXMVECTORU32@1@B	; DirectX::g_XMSelect1011
PUBLIC	?g_XMFixupY16@DirectX@@3UXMVECTORF32@1@B	; DirectX::g_XMFixupY16
PUBLIC	?g_XMFixupY16W16@DirectX@@3UXMVECTORF32@1@B	; DirectX::g_XMFixupY16W16
PUBLIC	?g_XMFlipY@DirectX@@3UXMVECTORU32@1@B		; DirectX::g_XMFlipY
PUBLIC	?g_XMFlipZ@DirectX@@3UXMVECTORU32@1@B		; DirectX::g_XMFlipZ
PUBLIC	?g_XMFlipW@DirectX@@3UXMVECTORU32@1@B		; DirectX::g_XMFlipW
PUBLIC	?g_XMFlipYZ@DirectX@@3UXMVECTORU32@1@B		; DirectX::g_XMFlipYZ
PUBLIC	?g_XMFlipZW@DirectX@@3UXMVECTORU32@1@B		; DirectX::g_XMFlipZW
PUBLIC	?g_XMFlipYW@DirectX@@3UXMVECTORU32@1@B		; DirectX::g_XMFlipYW
PUBLIC	?g_XMMaskDec4@DirectX@@3UXMVECTORI32@1@B	; DirectX::g_XMMaskDec4
PUBLIC	?g_XMXorDec4@DirectX@@3UXMVECTORI32@1@B		; DirectX::g_XMXorDec4
PUBLIC	?g_XMAddUDec4@DirectX@@3UXMVECTORF32@1@B	; DirectX::g_XMAddUDec4
PUBLIC	?g_XMAddDec4@DirectX@@3UXMVECTORF32@1@B		; DirectX::g_XMAddDec4
PUBLIC	?g_XMMulDec4@DirectX@@3UXMVECTORF32@1@B		; DirectX::g_XMMulDec4
PUBLIC	?g_XMMaskByte4@DirectX@@3UXMVECTORU32@1@B	; DirectX::g_XMMaskByte4
PUBLIC	?g_XMXorByte4@DirectX@@3UXMVECTORI32@1@B	; DirectX::g_XMXorByte4
PUBLIC	?g_XMAddByte4@DirectX@@3UXMVECTORF32@1@B	; DirectX::g_XMAddByte4
PUBLIC	?g_XMFixUnsigned@DirectX@@3UXMVECTORF32@1@B	; DirectX::g_XMFixUnsigned
PUBLIC	?g_XMMaxInt@DirectX@@3UXMVECTORF32@1@B		; DirectX::g_XMMaxInt
PUBLIC	?g_XMMaxUInt@DirectX@@3UXMVECTORF32@1@B		; DirectX::g_XMMaxUInt
PUBLIC	?g_XMUnsignedFix@DirectX@@3UXMVECTORF32@1@B	; DirectX::g_XMUnsignedFix
PUBLIC	?g_XMsrgbScale@DirectX@@3UXMVECTORF32@1@B	; DirectX::g_XMsrgbScale
PUBLIC	?g_XMsrgbA@DirectX@@3UXMVECTORF32@1@B		; DirectX::g_XMsrgbA
PUBLIC	?g_XMsrgbA1@DirectX@@3UXMVECTORF32@1@B		; DirectX::g_XMsrgbA1
PUBLIC	?g_XMExponentBias@DirectX@@3UXMVECTORI32@1@B	; DirectX::g_XMExponentBias
PUBLIC	?g_XMSubnormalExponent@DirectX@@3UXMVECTORI32@1@B ; DirectX::g_XMSubnormalExponent
PUBLIC	?g_XMNumTrailing@DirectX@@3UXMVECTORI32@1@B	; DirectX::g_XMNumTrailing
PUBLIC	?g_XMMinNormal@DirectX@@3UXMVECTORI32@1@B	; DirectX::g_XMMinNormal
PUBLIC	?g_XMNegInfinity@DirectX@@3UXMVECTORU32@1@B	; DirectX::g_XMNegInfinity
PUBLIC	?g_XMNegQNaN@DirectX@@3UXMVECTORU32@1@B		; DirectX::g_XMNegQNaN
PUBLIC	?g_XMBin128@DirectX@@3UXMVECTORI32@1@B		; DirectX::g_XMBin128
PUBLIC	?g_XMBinNeg150@DirectX@@3UXMVECTORU32@1@B	; DirectX::g_XMBinNeg150
PUBLIC	?g_XM253@DirectX@@3UXMVECTORI32@1@B		; DirectX::g_XM253
PUBLIC	?g_XMExpEst1@DirectX@@3UXMVECTORF32@1@B		; DirectX::g_XMExpEst1
PUBLIC	?g_XMExpEst2@DirectX@@3UXMVECTORF32@1@B		; DirectX::g_XMExpEst2
PUBLIC	?g_XMExpEst3@DirectX@@3UXMVECTORF32@1@B		; DirectX::g_XMExpEst3
PUBLIC	?g_XMExpEst4@DirectX@@3UXMVECTORF32@1@B		; DirectX::g_XMExpEst4
PUBLIC	?g_XMExpEst5@DirectX@@3UXMVECTORF32@1@B		; DirectX::g_XMExpEst5
PUBLIC	?g_XMExpEst6@DirectX@@3UXMVECTORF32@1@B		; DirectX::g_XMExpEst6
PUBLIC	?g_XMExpEst7@DirectX@@3UXMVECTORF32@1@B		; DirectX::g_XMExpEst7
PUBLIC	?g_XMLogEst0@DirectX@@3UXMVECTORF32@1@B		; DirectX::g_XMLogEst0
PUBLIC	?g_XMLogEst1@DirectX@@3UXMVECTORF32@1@B		; DirectX::g_XMLogEst1
PUBLIC	?g_XMLogEst2@DirectX@@3UXMVECTORF32@1@B		; DirectX::g_XMLogEst2
PUBLIC	?g_XMLogEst3@DirectX@@3UXMVECTORF32@1@B		; DirectX::g_XMLogEst3
PUBLIC	?g_XMLogEst4@DirectX@@3UXMVECTORF32@1@B		; DirectX::g_XMLogEst4
PUBLIC	?g_XMLogEst5@DirectX@@3UXMVECTORF32@1@B		; DirectX::g_XMLogEst5
PUBLIC	?g_XMLogEst6@DirectX@@3UXMVECTORF32@1@B		; DirectX::g_XMLogEst6
PUBLIC	?g_XMLogEst7@DirectX@@3UXMVECTORF32@1@B		; DirectX::g_XMLogEst7
PUBLIC	?g_XMLgE@DirectX@@3UXMVECTORF32@1@B		; DirectX::g_XMLgE
PUBLIC	?g_XMInvLgE@DirectX@@3UXMVECTORF32@1@B		; DirectX::g_XMInvLgE
;	COMDAT ?g_XMInvLgE@DirectX@@3UXMVECTORF32@1@B
CONST	SEGMENT
?g_XMInvLgE@DirectX@@3UXMVECTORF32@1@B DD 03f317218r ; 0.693147 ; DirectX::g_XMInvLgE
	DD	03f317218r			; 0.693147
	DD	03f317218r			; 0.693147
	DD	03f317218r			; 0.693147
CONST	ENDS
;	COMDAT ?g_XMLgE@DirectX@@3UXMVECTORF32@1@B
CONST	SEGMENT
?g_XMLgE@DirectX@@3UXMVECTORF32@1@B DD 03fb8aa3br ; 1.4427 ; DirectX::g_XMLgE
	DD	03fb8aa3br			; 1.4427
	DD	03fb8aa3br			; 1.4427
	DD	03fb8aa3br			; 1.4427
CONST	ENDS
;	COMDAT ?g_XMLogEst7@DirectX@@3UXMVECTORF32@1@B
CONST	SEGMENT
?g_XMLogEst7@DirectX@@3UXMVECTORF32@1@B DD 0bc2d4f59r ; -0.010578 ; DirectX::g_XMLogEst7
	DD	0bc2d4f59r			; -0.010578
	DD	0bc2d4f59r			; -0.010578
	DD	0bc2d4f59r			; -0.010578
CONST	ENDS
;	COMDAT ?g_XMLogEst6@DirectX@@3UXMVECTORF32@1@B
CONST	SEGMENT
?g_XMLogEst6@DirectX@@3UXMVECTORF32@1@B DD 03d6a1405r ; 0.057148 ; DirectX::g_XMLogEst6
	DD	03d6a1405r			; 0.057148
	DD	03d6a1405r			; 0.057148
	DD	03d6a1405r			; 0.057148
CONST	ENDS
;	COMDAT ?g_XMLogEst5@DirectX@@3UXMVECTORF32@1@B
CONST	SEGMENT
?g_XMLogEst5@DirectX@@3UXMVECTORF32@1@B DD 0be153261r ; -0.1457 ; DirectX::g_XMLogEst5
	DD	0be153261r			; -0.1457
	DD	0be153261r			; -0.1457
	DD	0be153261r			; -0.1457
CONST	ENDS
;	COMDAT ?g_XMLogEst4@DirectX@@3UXMVECTORF32@1@B
CONST	SEGMENT
?g_XMLogEst4@DirectX@@3UXMVECTORF32@1@B DD 03e7e8e61r ; 0.24859 ; DirectX::g_XMLogEst4
	DD	03e7e8e61r			; 0.24859
	DD	03e7e8e61r			; 0.24859
	DD	03e7e8e61r			; 0.24859
CONST	ENDS
;	COMDAT ?g_XMLogEst3@DirectX@@3UXMVECTORF32@1@B
CONST	SEGMENT
?g_XMLogEst3@DirectX@@3UXMVECTORF32@1@B DD 0beb359der ; -0.350295 ; DirectX::g_XMLogEst3
	DD	0beb359der			; -0.350295
	DD	0beb359der			; -0.350295
	DD	0beb359der			; -0.350295
CONST	ENDS
;	COMDAT ?g_XMLogEst2@DirectX@@3UXMVECTORF32@1@B
CONST	SEGMENT
?g_XMLogEst2@DirectX@@3UXMVECTORF32@1@B DD 03ef571d2r ; 0.479384 ; DirectX::g_XMLogEst2
	DD	03ef571d2r			; 0.479384
	DD	03ef571d2r			; 0.479384
	DD	03ef571d2r			; 0.479384
CONST	ENDS
;	COMDAT ?g_XMLogEst1@DirectX@@3UXMVECTORF32@1@B
CONST	SEGMENT
?g_XMLogEst1@DirectX@@3UXMVECTORF32@1@B DD 0bf38a351r ; -0.721242 ; DirectX::g_XMLogEst1
	DD	0bf38a351r			; -0.721242
	DD	0bf38a351r			; -0.721242
	DD	0bf38a351r			; -0.721242
CONST	ENDS
;	COMDAT ?g_XMLogEst0@DirectX@@3UXMVECTORF32@1@B
CONST	SEGMENT
?g_XMLogEst0@DirectX@@3UXMVECTORF32@1@B DD 03fb8aa2ar ; 1.44269 ; DirectX::g_XMLogEst0
	DD	03fb8aa2ar			; 1.44269
	DD	03fb8aa2ar			; 1.44269
	DD	03fb8aa2ar			; 1.44269
CONST	ENDS
;	COMDAT ?g_XMExpEst7@DirectX@@3UXMVECTORF32@1@B
CONST	SEGMENT
?g_XMExpEst7@DirectX@@3UXMVECTORF32@1@B DD 0b7364261r ; -1.08635e-05 ; DirectX::g_XMExpEst7
	DD	0b7364261r			; -1.08635e-05
	DD	0b7364261r			; -1.08635e-05
	DD	0b7364261r			; -1.08635e-05
CONST	ENDS
;	COMDAT ?g_XMExpEst6@DirectX@@3UXMVECTORF32@1@B
CONST	SEGMENT
?g_XMExpEst6@DirectX@@3UXMVECTORF32@1@B DD 0391aa7d7r ; 0.000147491 ; DirectX::g_XMExpEst6
	DD	0391aa7d7r			; 0.000147491
	DD	0391aa7d7r			; 0.000147491
	DD	0391aa7d7r			; 0.000147491
CONST	ENDS
;	COMDAT ?g_XMExpEst5@DirectX@@3UXMVECTORF32@1@B
CONST	SEGMENT
?g_XMExpEst5@DirectX@@3UXMVECTORF32@1@B DD 0baae1854r ; -0.00132824 ; DirectX::g_XMExpEst5
	DD	0baae1854r			; -0.00132824
	DD	0baae1854r			; -0.00132824
	DD	0baae1854r			; -0.00132824
CONST	ENDS
;	COMDAT ?g_XMExpEst4@DirectX@@3UXMVECTORF32@1@B
CONST	SEGMENT
?g_XMExpEst4@DirectX@@3UXMVECTORF32@1@B DD 03c1d8c54r ; 0.00961598 ; DirectX::g_XMExpEst4
	DD	03c1d8c54r			; 0.00961598
	DD	03c1d8c54r			; 0.00961598
	DD	03c1d8c54r			; 0.00961598
CONST	ENDS
;	COMDAT ?g_XMExpEst3@DirectX@@3UXMVECTORF32@1@B
CONST	SEGMENT
?g_XMExpEst3@DirectX@@3UXMVECTORF32@1@B DD 0bd6357car ; -0.0555036 ; DirectX::g_XMExpEst3
	DD	0bd6357car			; -0.0555036
	DD	0bd6357car			; -0.0555036
	DD	0bd6357car			; -0.0555036
CONST	ENDS
;	COMDAT ?g_XMExpEst2@DirectX@@3UXMVECTORF32@1@B
CONST	SEGMENT
?g_XMExpEst2@DirectX@@3UXMVECTORF32@1@B DD 03e75fdedr ; 0.240226 ; DirectX::g_XMExpEst2
	DD	03e75fdedr			; 0.240226
	DD	03e75fdedr			; 0.240226
	DD	03e75fdedr			; 0.240226
CONST	ENDS
;	COMDAT ?g_XMExpEst1@DirectX@@3UXMVECTORF32@1@B
CONST	SEGMENT
?g_XMExpEst1@DirectX@@3UXMVECTORF32@1@B DD 0bf317218r ; -0.693147 ; DirectX::g_XMExpEst1
	DD	0bf317218r			; -0.693147
	DD	0bf317218r			; -0.693147
	DD	0bf317218r			; -0.693147
CONST	ENDS
;	COMDAT ?g_XM253@DirectX@@3UXMVECTORI32@1@B
CONST	SEGMENT
?g_XM253@DirectX@@3UXMVECTORI32@1@B DD 0fdH		; DirectX::g_XM253
	DD	0fdH
	DD	0fdH
	DD	0fdH
CONST	ENDS
;	COMDAT ?g_XMBinNeg150@DirectX@@3UXMVECTORU32@1@B
CONST	SEGMENT
?g_XMBinNeg150@DirectX@@3UXMVECTORU32@1@B DD 0c3160000H	; DirectX::g_XMBinNeg150
	DD	0c3160000H
	DD	0c3160000H
	DD	0c3160000H
CONST	ENDS
;	COMDAT ?g_XMBin128@DirectX@@3UXMVECTORI32@1@B
CONST	SEGMENT
?g_XMBin128@DirectX@@3UXMVECTORI32@1@B DD 043000000H	; DirectX::g_XMBin128
	DD	043000000H
	DD	043000000H
	DD	043000000H
CONST	ENDS
;	COMDAT ?g_XMNegQNaN@DirectX@@3UXMVECTORU32@1@B
CONST	SEGMENT
?g_XMNegQNaN@DirectX@@3UXMVECTORU32@1@B DD 0ffc00000H	; DirectX::g_XMNegQNaN
	DD	0ffc00000H
	DD	0ffc00000H
	DD	0ffc00000H
CONST	ENDS
;	COMDAT ?g_XMNegInfinity@DirectX@@3UXMVECTORU32@1@B
CONST	SEGMENT
?g_XMNegInfinity@DirectX@@3UXMVECTORU32@1@B DD 0ff800000H ; DirectX::g_XMNegInfinity
	DD	0ff800000H
	DD	0ff800000H
	DD	0ff800000H
CONST	ENDS
;	COMDAT ?g_XMMinNormal@DirectX@@3UXMVECTORI32@1@B
CONST	SEGMENT
?g_XMMinNormal@DirectX@@3UXMVECTORI32@1@B DD 0800000H	; DirectX::g_XMMinNormal
	DD	0800000H
	DD	0800000H
	DD	0800000H
CONST	ENDS
;	COMDAT ?g_XMNumTrailing@DirectX@@3UXMVECTORI32@1@B
CONST	SEGMENT
?g_XMNumTrailing@DirectX@@3UXMVECTORI32@1@B DD 017H	; DirectX::g_XMNumTrailing
	DD	017H
	DD	017H
	DD	017H
CONST	ENDS
;	COMDAT ?g_XMSubnormalExponent@DirectX@@3UXMVECTORI32@1@B
CONST	SEGMENT
?g_XMSubnormalExponent@DirectX@@3UXMVECTORI32@1@B DD 0ffffff82H ; DirectX::g_XMSubnormalExponent
	DD	0ffffff82H
	DD	0ffffff82H
	DD	0ffffff82H
CONST	ENDS
;	COMDAT ?g_XMExponentBias@DirectX@@3UXMVECTORI32@1@B
CONST	SEGMENT
?g_XMExponentBias@DirectX@@3UXMVECTORI32@1@B DD 07fH	; DirectX::g_XMExponentBias
	DD	07fH
	DD	07fH
	DD	07fH
CONST	ENDS
;	COMDAT ?g_XMsrgbA1@DirectX@@3UXMVECTORF32@1@B
CONST	SEGMENT
?g_XMsrgbA1@DirectX@@3UXMVECTORF32@1@B DD 03f870a3dr ; 1.055 ; DirectX::g_XMsrgbA1
	DD	03f870a3dr			; 1.055
	DD	03f870a3dr			; 1.055
	DD	03f800000r			; 1
CONST	ENDS
;	COMDAT ?g_XMsrgbA@DirectX@@3UXMVECTORF32@1@B
CONST	SEGMENT
?g_XMsrgbA@DirectX@@3UXMVECTORF32@1@B DD 03d6147aer ; 0.055 ; DirectX::g_XMsrgbA
	DD	03d6147aer			; 0.055
	DD	03d6147aer			; 0.055
	DD	000000000r			; 0
CONST	ENDS
;	COMDAT ?g_XMsrgbScale@DirectX@@3UXMVECTORF32@1@B
CONST	SEGMENT
?g_XMsrgbScale@DirectX@@3UXMVECTORF32@1@B DD 0414eb852r ; 12.92 ; DirectX::g_XMsrgbScale
	DD	0414eb852r			; 12.92
	DD	0414eb852r			; 12.92
	DD	03f800000r			; 1
CONST	ENDS
;	COMDAT ?g_XMUnsignedFix@DirectX@@3UXMVECTORF32@1@B
CONST	SEGMENT
?g_XMUnsignedFix@DirectX@@3UXMVECTORF32@1@B DD 04f000000r ; 2.14748e+09 ; DirectX::g_XMUnsignedFix
	DD	04f000000r			; 2.14748e+09
	DD	04f000000r			; 2.14748e+09
	DD	04f000000r			; 2.14748e+09
CONST	ENDS
;	COMDAT ?g_XMMaxUInt@DirectX@@3UXMVECTORF32@1@B
CONST	SEGMENT
?g_XMMaxUInt@DirectX@@3UXMVECTORF32@1@B DD 04f7fffffr ; 4.29497e+09 ; DirectX::g_XMMaxUInt
	DD	04f7fffffr			; 4.29497e+09
	DD	04f7fffffr			; 4.29497e+09
	DD	04f7fffffr			; 4.29497e+09
CONST	ENDS
;	COMDAT ?g_XMMaxInt@DirectX@@3UXMVECTORF32@1@B
CONST	SEGMENT
?g_XMMaxInt@DirectX@@3UXMVECTORF32@1@B DD 04effffffr ; 2.14748e+09 ; DirectX::g_XMMaxInt
	DD	04effffffr			; 2.14748e+09
	DD	04effffffr			; 2.14748e+09
	DD	04effffffr			; 2.14748e+09
CONST	ENDS
;	COMDAT ?g_XMFixUnsigned@DirectX@@3UXMVECTORF32@1@B
CONST	SEGMENT
?g_XMFixUnsigned@DirectX@@3UXMVECTORF32@1@B DD 04f000000r ; 2.14748e+09 ; DirectX::g_XMFixUnsigned
	DD	04f000000r			; 2.14748e+09
	DD	04f000000r			; 2.14748e+09
	DD	04f000000r			; 2.14748e+09
CONST	ENDS
;	COMDAT ?g_XMAddByte4@DirectX@@3UXMVECTORF32@1@B
CONST	SEGMENT
?g_XMAddByte4@DirectX@@3UXMVECTORF32@1@B DD 0c3000000r ; -128 ; DirectX::g_XMAddByte4
	DD	0c7000000r			; -32768
	DD	0cb000000r			; -8.38861e+06
	DD	000000000r			; 0
CONST	ENDS
;	COMDAT ?g_XMXorByte4@DirectX@@3UXMVECTORI32@1@B
CONST	SEGMENT
?g_XMXorByte4@DirectX@@3UXMVECTORI32@1@B DD 080H	; DirectX::g_XMXorByte4
	DD	08000H
	DD	0800000H
	DD	00H
CONST	ENDS
;	COMDAT ?g_XMMaskByte4@DirectX@@3UXMVECTORU32@1@B
CONST	SEGMENT
?g_XMMaskByte4@DirectX@@3UXMVECTORU32@1@B DD 0ffH	; DirectX::g_XMMaskByte4
	DD	0ff00H
	DD	0ff0000H
	DD	0ff000000H
CONST	ENDS
;	COMDAT ?g_XMMulDec4@DirectX@@3UXMVECTORF32@1@B
CONST	SEGMENT
?g_XMMulDec4@DirectX@@3UXMVECTORF32@1@B DD 03f800000r ; 1 ; DirectX::g_XMMulDec4
	DD	03a800000r			; 0.000976563
	DD	035800000r			; 9.53674e-07
	DD	030800000r			; 9.31323e-10
CONST	ENDS
;	COMDAT ?g_XMAddDec4@DirectX@@3UXMVECTORF32@1@B
CONST	SEGMENT
?g_XMAddDec4@DirectX@@3UXMVECTORF32@1@B DD 0c4000000r ; -512 ; DirectX::g_XMAddDec4
	DD	0c9000000r			; -524288
	DD	0ce000000r			; -5.36871e+08
	DD	000000000r			; 0
CONST	ENDS
;	COMDAT ?g_XMAddUDec4@DirectX@@3UXMVECTORF32@1@B
CONST	SEGMENT
?g_XMAddUDec4@DirectX@@3UXMVECTORF32@1@B DD 000000000r ; 0 ; DirectX::g_XMAddUDec4
	DD	000000000r			; 0
	DD	000000000r			; 0
	DD	04f000000r			; 2.14748e+09
CONST	ENDS
;	COMDAT ?g_XMXorDec4@DirectX@@3UXMVECTORI32@1@B
CONST	SEGMENT
?g_XMXorDec4@DirectX@@3UXMVECTORI32@1@B DD 0200H	; DirectX::g_XMXorDec4
	DD	080000H
	DD	020000000H
	DD	00H
CONST	ENDS
;	COMDAT ?g_XMMaskDec4@DirectX@@3UXMVECTORI32@1@B
CONST	SEGMENT
?g_XMMaskDec4@DirectX@@3UXMVECTORI32@1@B DD 03ffH	; DirectX::g_XMMaskDec4
	DD	0ffc00H
	DD	03ff00000H
	DD	0c0000000H
CONST	ENDS
;	COMDAT ?g_XMFlipYW@DirectX@@3UXMVECTORU32@1@B
CONST	SEGMENT
?g_XMFlipYW@DirectX@@3UXMVECTORU32@1@B DD 00H		; DirectX::g_XMFlipYW
	DD	080000000H
	DD	00H
	DD	080000000H
CONST	ENDS
;	COMDAT ?g_XMFlipZW@DirectX@@3UXMVECTORU32@1@B
CONST	SEGMENT
?g_XMFlipZW@DirectX@@3UXMVECTORU32@1@B DD 00H		; DirectX::g_XMFlipZW
	DD	00H
	DD	080000000H
	DD	080000000H
CONST	ENDS
;	COMDAT ?g_XMFlipYZ@DirectX@@3UXMVECTORU32@1@B
CONST	SEGMENT
?g_XMFlipYZ@DirectX@@3UXMVECTORU32@1@B DD 00H		; DirectX::g_XMFlipYZ
	DD	080000000H
	DD	080000000H
	DD	00H
CONST	ENDS
;	COMDAT ?g_XMFlipW@DirectX@@3UXMVECTORU32@1@B
CONST	SEGMENT
?g_XMFlipW@DirectX@@3UXMVECTORU32@1@B DD 00H		; DirectX::g_XMFlipW
	DD	00H
	DD	00H
	DD	080000000H
CONST	ENDS
;	COMDAT ?g_XMFlipZ@DirectX@@3UXMVECTORU32@1@B
CONST	SEGMENT
?g_XMFlipZ@DirectX@@3UXMVECTORU32@1@B DD 00H		; DirectX::g_XMFlipZ
	DD	00H
	DD	080000000H
	DD	00H
CONST	ENDS
;	COMDAT ?g_XMFlipY@DirectX@@3UXMVECTORU32@1@B
CONST	SEGMENT
?g_XMFlipY@DirectX@@3UXMVECTORU32@1@B DD 00H		; DirectX::g_XMFlipY
	DD	080000000H
	DD	00H
	DD	00H
CONST	ENDS
;	COMDAT ?g_XMFixupY16W16@DirectX@@3UXMVECTORF32@1@B
CONST	SEGMENT
?g_XMFixupY16W16@DirectX@@3UXMVECTORF32@1@B DD 03f800000r ; 1 ; DirectX::g_XMFixupY16W16
	DD	03f800000r			; 1
	DD	037800000r			; 1.52588e-05
	DD	037800000r			; 1.52588e-05
CONST	ENDS
;	COMDAT ?g_XMFixupY16@DirectX@@3UXMVECTORF32@1@B
CONST	SEGMENT
?g_XMFixupY16@DirectX@@3UXMVECTORF32@1@B DD 03f800000r ; 1 ; DirectX::g_XMFixupY16
	DD	037800000r			; 1.52588e-05
	DD	000000000r			; 0
	DD	000000000r			; 0
CONST	ENDS
;	COMDAT ?g_XMSelect1011@DirectX@@3UXMVECTORU32@1@B
CONST	SEGMENT
?g_XMSelect1011@DirectX@@3UXMVECTORU32@1@B DD 0ffffffffH ; DirectX::g_XMSelect1011
	DD	00H
	DD	0ffffffffH
	DD	0ffffffffH
CONST	ENDS
;	COMDAT ?g_XMSelect1110@DirectX@@3UXMVECTORU32@1@B
CONST	SEGMENT
?g_XMSelect1110@DirectX@@3UXMVECTORU32@1@B DD 0ffffffffH ; DirectX::g_XMSelect1110
	DD	0ffffffffH
	DD	0ffffffffH
	DD	00H
CONST	ENDS
;	COMDAT ?g_XMSelect1100@DirectX@@3UXMVECTORU32@1@B
CONST	SEGMENT
?g_XMSelect1100@DirectX@@3UXMVECTORU32@1@B DD 0ffffffffH ; DirectX::g_XMSelect1100
	DD	0ffffffffH
	DD	00H
	DD	00H
CONST	ENDS
;	COMDAT ?g_XMSelect1000@DirectX@@3UXMVECTORU32@1@B
CONST	SEGMENT
?g_XMSelect1000@DirectX@@3UXMVECTORU32@1@B DD 0ffffffffH ; DirectX::g_XMSelect1000
	DD	00H
	DD	00H
	DD	00H
CONST	ENDS
;	COMDAT ?g_XMOneHalfMinusEpsilon@DirectX@@3UXMVECTORI32@1@B
CONST	SEGMENT
?g_XMOneHalfMinusEpsilon@DirectX@@3UXMVECTORI32@1@B DD 03efffffdH ; DirectX::g_XMOneHalfMinusEpsilon
	DD	03efffffdH
	DD	03efffffdH
	DD	03efffffdH
CONST	ENDS
;	COMDAT ?g_XMSelect1010@DirectX@@3UXMVECTORU32@1@B
CONST	SEGMENT
?g_XMSelect1010@DirectX@@3UXMVECTORU32@1@B DD 0ffffffffH ; DirectX::g_XMSelect1010
	DD	00H
	DD	0ffffffffH
	DD	00H
CONST	ENDS
;	COMDAT ?g_XMSelect0101@DirectX@@3UXMVECTORU32@1@B
CONST	SEGMENT
?g_XMSelect0101@DirectX@@3UXMVECTORU32@1@B DD 00H	; DirectX::g_XMSelect0101
	DD	0ffffffffH
	DD	00H
	DD	0ffffffffH
CONST	ENDS
;	COMDAT ?g_XMNegateW@DirectX@@3UXMVECTORF32@1@B
CONST	SEGMENT
?g_XMNegateW@DirectX@@3UXMVECTORF32@1@B DD 03f800000r ; 1 ; DirectX::g_XMNegateW
	DD	03f800000r			; 1
	DD	03f800000r			; 1
	DD	0bf800000r			; -1
CONST	ENDS
;	COMDAT ?g_XMNegateZ@DirectX@@3UXMVECTORF32@1@B
CONST	SEGMENT
?g_XMNegateZ@DirectX@@3UXMVECTORF32@1@B DD 03f800000r ; 1 ; DirectX::g_XMNegateZ
	DD	03f800000r			; 1
	DD	0bf800000r			; -1
	DD	03f800000r			; 1
CONST	ENDS
;	COMDAT ?g_XMNegateY@DirectX@@3UXMVECTORF32@1@B
CONST	SEGMENT
?g_XMNegateY@DirectX@@3UXMVECTORF32@1@B DD 03f800000r ; 1 ; DirectX::g_XMNegateY
	DD	0bf800000r			; -1
	DD	03f800000r			; 1
	DD	03f800000r			; 1
CONST	ENDS
;	COMDAT ?g_XMNegateX@DirectX@@3UXMVECTORF32@1@B
CONST	SEGMENT
?g_XMNegateX@DirectX@@3UXMVECTORF32@1@B DD 0bf800000r ; -1 ; DirectX::g_XMNegateX
	DD	03f800000r			; 1
	DD	03f800000r			; 1
	DD	03f800000r			; 1
CONST	ENDS
;	COMDAT ?g_XMMaskByte@DirectX@@3UXMVECTORI32@1@B
CONST	SEGMENT
?g_XMMaskByte@DirectX@@3UXMVECTORI32@1@B DD 0ffH	; DirectX::g_XMMaskByte
	DD	0ffH
	DD	0ffH
	DD	0ffH
CONST	ENDS
;	COMDAT ?g_XMNoFraction@DirectX@@3UXMVECTORF32@1@B
CONST	SEGMENT
?g_XMNoFraction@DirectX@@3UXMVECTORF32@1@B DD 04b000000r ; 8.38861e+06 ; DirectX::g_XMNoFraction
	DD	04b000000r			; 8.38861e+06
	DD	04b000000r			; 8.38861e+06
	DD	04b000000r			; 8.38861e+06
CONST	ENDS
;	COMDAT ?g_XMNormalizeX16Y16Z16W16@DirectX@@3UXMVECTORF32@1@B
CONST	SEGMENT
?g_XMNormalizeX16Y16Z16W16@DirectX@@3UXMVECTORF32@1@B DD 038000100r ; 3.05185e-05 ; DirectX::g_XMNormalizeX16Y16Z16W16
	DD	038000100r			; 3.05185e-05
	DD	030000100r			; 4.65675e-10
	DD	030000100r			; 4.65675e-10
CONST	ENDS
;	COMDAT ?g_XMFixX16Y16Z16W16@DirectX@@3UXMVECTORF32@1@B
CONST	SEGMENT
?g_XMFixX16Y16Z16W16@DirectX@@3UXMVECTORF32@1@B DD 0c7000000r ; -32768 ; DirectX::g_XMFixX16Y16Z16W16
	DD	0c7000000r			; -32768
	DD	000000000r			; 0
	DD	000000000r			; 0
CONST	ENDS
;	COMDAT ?g_XMFlipX16Y16Z16W16@DirectX@@3UXMVECTORI32@1@B
CONST	SEGMENT
?g_XMFlipX16Y16Z16W16@DirectX@@3UXMVECTORI32@1@B DD 08000H ; DirectX::g_XMFlipX16Y16Z16W16
	DD	08000H
	DD	00H
	DD	00H
CONST	ENDS
;	COMDAT ?g_XMMaskX16Y16Z16W16@DirectX@@3UXMVECTORU32@1@B
CONST	SEGMENT
?g_XMMaskX16Y16Z16W16@DirectX@@3UXMVECTORU32@1@B DD 0ffffH ; DirectX::g_XMMaskX16Y16Z16W16
	DD	0ffffH
	DD	0ffff0000H
	DD	0ffff0000H
CONST	ENDS
;	COMDAT ?g_XMNormalizeX16Y16@DirectX@@3UXMVECTORF32@1@B
CONST	SEGMENT
?g_XMNormalizeX16Y16@DirectX@@3UXMVECTORF32@1@B DD 038000100r ; 3.05185e-05 ; DirectX::g_XMNormalizeX16Y16
	DD	030000100r			; 4.65675e-10
	DD	000000000r			; 0
	DD	000000000r			; 0
CONST	ENDS
;	COMDAT ?g_XMFixX16Y16@DirectX@@3UXMVECTORF32@1@B
CONST	SEGMENT
?g_XMFixX16Y16@DirectX@@3UXMVECTORF32@1@B DD 0c7000000r ; -32768 ; DirectX::g_XMFixX16Y16
	DD	000000000r			; 0
	DD	000000000r			; 0
	DD	000000000r			; 0
CONST	ENDS
;	COMDAT ?g_XMFlipX16Y16@DirectX@@3UXMVECTORI32@1@B
CONST	SEGMENT
?g_XMFlipX16Y16@DirectX@@3UXMVECTORI32@1@B DD 08000H	; DirectX::g_XMFlipX16Y16
	DD	00H
	DD	00H
	DD	00H
CONST	ENDS
;	COMDAT ?g_XMMaskX16Y16@DirectX@@3UXMVECTORU32@1@B
CONST	SEGMENT
?g_XMMaskX16Y16@DirectX@@3UXMVECTORU32@1@B DD 0ffffH	; DirectX::g_XMMaskX16Y16
	DD	0ffff0000H
	DD	00H
	DD	00H
CONST	ENDS
;	COMDAT ?g_XMNormalizeA2B10G10R10@DirectX@@3UXMVECTORF32@1@B
CONST	SEGMENT
?g_XMNormalizeA2B10G10R10@DirectX@@3UXMVECTORF32@1@B DD 03b004020r ; 0.00195695 ; DirectX::g_XMNormalizeA2B10G10R10
	DD	036004020r			; 1.91108e-06
	DD	031004020r			; 1.86629e-09
	DD	02faaaaabr			; 3.10441e-10
CONST	ENDS
;	COMDAT ?g_XMFixAA2B10G10R10@DirectX@@3UXMVECTORF32@1@B
CONST	SEGMENT
?g_XMFixAA2B10G10R10@DirectX@@3UXMVECTORF32@1@B DD 0c4000000r ; -512 ; DirectX::g_XMFixAA2B10G10R10
	DD	0c9000000r			; -524288
	DD	0ce000000r			; -5.36871e+08
	DD	04f000000r			; 2.14748e+09
CONST	ENDS
;	COMDAT ?g_XMFlipA2B10G10R10@DirectX@@3UXMVECTORU32@1@B
CONST	SEGMENT
?g_XMFlipA2B10G10R10@DirectX@@3UXMVECTORU32@1@B DD 0200H ; DirectX::g_XMFlipA2B10G10R10
	DD	080000H
	DD	020000000H
	DD	080000000H
CONST	ENDS
;	COMDAT ?g_XMMaskA2B10G10R10@DirectX@@3UXMVECTORU32@1@B
CONST	SEGMENT
?g_XMMaskA2B10G10R10@DirectX@@3UXMVECTORU32@1@B DD 03ffH ; DirectX::g_XMMaskA2B10G10R10
	DD	0ffc00H
	DD	03ff00000H
	DD	0c0000000H
CONST	ENDS
;	COMDAT ?g_XMNormalizeA8R8G8B8@DirectX@@3UXMVECTORF32@1@B
CONST	SEGMENT
?g_XMNormalizeA8R8G8B8@DirectX@@3UXMVECTORF32@1@B DD 033808081r ; 5.98384e-08 ; DirectX::g_XMNormalizeA8R8G8B8
	DD	037808081r			; 1.53186e-05
	DD	03b808081r			; 0.00392157
	DD	02f808081r			; 2.33744e-10
CONST	ENDS
;	COMDAT ?g_XMFixAA8R8G8B8@DirectX@@3UXMVECTORF32@1@B
CONST	SEGMENT
?g_XMFixAA8R8G8B8@DirectX@@3UXMVECTORF32@1@B DD 000000000r ; 0 ; DirectX::g_XMFixAA8R8G8B8
	DD	000000000r			; 0
	DD	000000000r			; 0
	DD	04f000000r			; 2.14748e+09
CONST	ENDS
;	COMDAT ?g_XMFlipA8R8G8B8@DirectX@@3UXMVECTORU32@1@B
CONST	SEGMENT
?g_XMFlipA8R8G8B8@DirectX@@3UXMVECTORU32@1@B DD 00H	; DirectX::g_XMFlipA8R8G8B8
	DD	00H
	DD	00H
	DD	080000000H
CONST	ENDS
;	COMDAT ?g_XMMaskA8R8G8B8@DirectX@@3UXMVECTORU32@1@B
CONST	SEGMENT
?g_XMMaskA8R8G8B8@DirectX@@3UXMVECTORU32@1@B DD 0ff0000H ; DirectX::g_XMMaskA8R8G8B8
	DD	0ff00H
	DD	0ffH
	DD	0ff000000H
CONST	ENDS
;	COMDAT ?g_XMNegOneMask@DirectX@@3UXMVECTORU32@1@B
CONST	SEGMENT
?g_XMNegOneMask@DirectX@@3UXMVECTORU32@1@B DD 0ffffffffH ; DirectX::g_XMNegOneMask
	DD	0ffffffffH
	DD	0ffffffffH
	DD	0ffffffffH
CONST	ENDS
;	COMDAT ?g_XMFltMax@DirectX@@3UXMVECTORI32@1@B
CONST	SEGMENT
?g_XMFltMax@DirectX@@3UXMVECTORI32@1@B DD 07f7fffffH	; DirectX::g_XMFltMax
	DD	07f7fffffH
	DD	07f7fffffH
	DD	07f7fffffH
CONST	ENDS
;	COMDAT ?g_XMFltMin@DirectX@@3UXMVECTORI32@1@B
CONST	SEGMENT
?g_XMFltMin@DirectX@@3UXMVECTORI32@1@B DD 0800000H	; DirectX::g_XMFltMin
	DD	0800000H
	DD	0800000H
	DD	0800000H
CONST	ENDS
;	COMDAT ?g_XMAbsMask@DirectX@@3UXMVECTORI32@1@B
CONST	SEGMENT
?g_XMAbsMask@DirectX@@3UXMVECTORI32@1@B DD 07fffffffH	; DirectX::g_XMAbsMask
	DD	07fffffffH
	DD	07fffffffH
	DD	07fffffffH
CONST	ENDS
;	COMDAT ?g_XMQNaNTest@DirectX@@3UXMVECTORI32@1@B
CONST	SEGMENT
?g_XMQNaNTest@DirectX@@3UXMVECTORI32@1@B DD 07fffffH	; DirectX::g_XMQNaNTest
	DD	07fffffH
	DD	07fffffH
	DD	07fffffH
CONST	ENDS
;	COMDAT ?g_XMQNaN@DirectX@@3UXMVECTORI32@1@B
CONST	SEGMENT
?g_XMQNaN@DirectX@@3UXMVECTORI32@1@B DD 07fc00000H	; DirectX::g_XMQNaN
	DD	07fc00000H
	DD	07fc00000H
	DD	07fc00000H
CONST	ENDS
;	COMDAT ?g_XMInfinity@DirectX@@3UXMVECTORI32@1@B
CONST	SEGMENT
?g_XMInfinity@DirectX@@3UXMVECTORI32@1@B DD 07f800000H	; DirectX::g_XMInfinity
	DD	07f800000H
	DD	07f800000H
	DD	07f800000H
CONST	ENDS
;	COMDAT ?g_XMEpsilon@DirectX@@3UXMVECTORF32@1@B
CONST	SEGMENT
?g_XMEpsilon@DirectX@@3UXMVECTORF32@1@B DD 034000000r ; 1.19209e-07 ; DirectX::g_XMEpsilon
	DD	034000000r			; 1.19209e-07
	DD	034000000r			; 1.19209e-07
	DD	034000000r			; 1.19209e-07
CONST	ENDS
;	COMDAT ?g_XMReciprocalTwoPi@DirectX@@3UXMVECTORF32@1@B
CONST	SEGMENT
?g_XMReciprocalTwoPi@DirectX@@3UXMVECTORF32@1@B DD 03e22f983r ; 0.159155 ; DirectX::g_XMReciprocalTwoPi
	DD	03e22f983r			; 0.159155
	DD	03e22f983r			; 0.159155
	DD	03e22f983r			; 0.159155
CONST	ENDS
;	COMDAT ?g_XMTwoPi@DirectX@@3UXMVECTORF32@1@B
CONST	SEGMENT
?g_XMTwoPi@DirectX@@3UXMVECTORF32@1@B DD 040c90fdbr ; 6.28319 ; DirectX::g_XMTwoPi
	DD	040c90fdbr			; 6.28319
	DD	040c90fdbr			; 6.28319
	DD	040c90fdbr			; 6.28319
CONST	ENDS
;	COMDAT ?g_XMReciprocalPi@DirectX@@3UXMVECTORF32@1@B
CONST	SEGMENT
?g_XMReciprocalPi@DirectX@@3UXMVECTORF32@1@B DD 03ea2f983r ; 0.31831 ; DirectX::g_XMReciprocalPi
	DD	03ea2f983r			; 0.31831
	DD	03ea2f983r			; 0.31831
	DD	03ea2f983r			; 0.31831
CONST	ENDS
;	COMDAT ?g_XMPi@DirectX@@3UXMVECTORF32@1@B
CONST	SEGMENT
?g_XMPi@DirectX@@3UXMVECTORF32@1@B DD 040490fdbr ; 3.14159 ; DirectX::g_XMPi
	DD	040490fdbr			; 3.14159
	DD	040490fdbr			; 3.14159
	DD	040490fdbr			; 3.14159
CONST	ENDS
;	COMDAT ?g_XMHalfPi@DirectX@@3UXMVECTORF32@1@B
CONST	SEGMENT
?g_XMHalfPi@DirectX@@3UXMVECTORF32@1@B DD 03fc90fdbr ; 1.5708 ; DirectX::g_XMHalfPi
	DD	03fc90fdbr			; 1.5708
	DD	03fc90fdbr			; 1.5708
	DD	03fc90fdbr			; 1.5708
CONST	ENDS
;	COMDAT ?g_XMNegativePi@DirectX@@3UXMVECTORF32@1@B
CONST	SEGMENT
?g_XMNegativePi@DirectX@@3UXMVECTORF32@1@B DD 0c0490fdbr ; -3.14159 ; DirectX::g_XMNegativePi
	DD	0c0490fdbr			; -3.14159
	DD	0c0490fdbr			; -3.14159
	DD	0c0490fdbr			; -3.14159
CONST	ENDS
;	COMDAT ?g_XMNegativeTwoPi@DirectX@@3UXMVECTORF32@1@B
CONST	SEGMENT
?g_XMNegativeTwoPi@DirectX@@3UXMVECTORF32@1@B DD 0c0c90fdbr ; -6.28319 ; DirectX::g_XMNegativeTwoPi
	DD	0c0c90fdbr			; -6.28319
	DD	0c0c90fdbr			; -6.28319
	DD	0c0c90fdbr			; -6.28319
CONST	ENDS
;	COMDAT ?g_XMNegativeOneHalf@DirectX@@3UXMVECTORF32@1@B
CONST	SEGMENT
?g_XMNegativeOneHalf@DirectX@@3UXMVECTORF32@1@B DD 0bf000000r ; -0.5 ; DirectX::g_XMNegativeOneHalf
	DD	0bf000000r			; -0.5
	DD	0bf000000r			; -0.5
	DD	0bf000000r			; -0.5
CONST	ENDS
;	COMDAT ?g_XMOneHalf@DirectX@@3UXMVECTORF32@1@B
CONST	SEGMENT
?g_XMOneHalf@DirectX@@3UXMVECTORF32@1@B DD 03f000000r ; 0.5 ; DirectX::g_XMOneHalf
	DD	03f000000r			; 0.5
	DD	03f000000r			; 0.5
	DD	03f000000r			; 0.5
CONST	ENDS
;	COMDAT ?g_XMNegativeOne@DirectX@@3UXMVECTORF32@1@B
CONST	SEGMENT
?g_XMNegativeOne@DirectX@@3UXMVECTORF32@1@B DD 0bf800000r ; -1 ; DirectX::g_XMNegativeOne
	DD	0bf800000r			; -1
	DD	0bf800000r			; -1
	DD	0bf800000r			; -1
CONST	ENDS
;	COMDAT ?g_XMSix@DirectX@@3UXMVECTORF32@1@B
CONST	SEGMENT
?g_XMSix@DirectX@@3UXMVECTORF32@1@B DD 040c00000r ; 6	; DirectX::g_XMSix
	DD	040c00000r			; 6
	DD	040c00000r			; 6
	DD	040c00000r			; 6
CONST	ENDS
;	COMDAT ?g_XMFour@DirectX@@3UXMVECTORF32@1@B
CONST	SEGMENT
?g_XMFour@DirectX@@3UXMVECTORF32@1@B DD 040800000r ; 4	; DirectX::g_XMFour
	DD	040800000r			; 4
	DD	040800000r			; 4
	DD	040800000r			; 4
CONST	ENDS
;	COMDAT ?g_XMTwo@DirectX@@3UXMVECTORF32@1@B
CONST	SEGMENT
?g_XMTwo@DirectX@@3UXMVECTORF32@1@B DD 040000000r ; 2	; DirectX::g_XMTwo
	DD	040000000r			; 2
	DD	040000000r			; 2
	DD	040000000r			; 2
CONST	ENDS
;	COMDAT ?g_XMZero@DirectX@@3UXMVECTORF32@1@B
CONST	SEGMENT
?g_XMZero@DirectX@@3UXMVECTORF32@1@B DD 000000000r ; 0	; DirectX::g_XMZero
	DD	000000000r			; 0
	DD	000000000r			; 0
	DD	000000000r			; 0
CONST	ENDS
;	COMDAT ?g_XMOne3@DirectX@@3UXMVECTORF32@1@B
CONST	SEGMENT
?g_XMOne3@DirectX@@3UXMVECTORF32@1@B DD 03f800000r ; 1	; DirectX::g_XMOne3
	DD	03f800000r			; 1
	DD	03f800000r			; 1
	DD	000000000r			; 0
CONST	ENDS
;	COMDAT ?g_XMOne@DirectX@@3UXMVECTORF32@1@B
CONST	SEGMENT
?g_XMOne@DirectX@@3UXMVECTORF32@1@B DD 03f800000r ; 1	; DirectX::g_XMOne
	DD	03f800000r			; 1
	DD	03f800000r			; 1
	DD	03f800000r			; 1
CONST	ENDS
;	COMDAT ?g_XMMaskW@DirectX@@3UXMVECTORU32@1@B
CONST	SEGMENT
?g_XMMaskW@DirectX@@3UXMVECTORU32@1@B DD 00H		; DirectX::g_XMMaskW
	DD	00H
	DD	00H
	DD	0ffffffffH
CONST	ENDS
;	COMDAT ?g_XMMaskZ@DirectX@@3UXMVECTORU32@1@B
CONST	SEGMENT
?g_XMMaskZ@DirectX@@3UXMVECTORU32@1@B DD 00H		; DirectX::g_XMMaskZ
	DD	00H
	DD	0ffffffffH
	DD	00H
CONST	ENDS
;	COMDAT ?g_XMMaskY@DirectX@@3UXMVECTORU32@1@B
CONST	SEGMENT
?g_XMMaskY@DirectX@@3UXMVECTORU32@1@B DD 00H		; DirectX::g_XMMaskY
	DD	0ffffffffH
	DD	00H
	DD	00H
CONST	ENDS
;	COMDAT ?g_XMMaskX@DirectX@@3UXMVECTORU32@1@B
CONST	SEGMENT
?g_XMMaskX@DirectX@@3UXMVECTORU32@1@B DD 0ffffffffH	; DirectX::g_XMMaskX
	DD	00H
	DD	00H
	DD	00H
CONST	ENDS
;	COMDAT ?g_XMMask3@DirectX@@3UXMVECTORU32@1@B
CONST	SEGMENT
?g_XMMask3@DirectX@@3UXMVECTORU32@1@B DD 0ffffffffH	; DirectX::g_XMMask3
	DD	0ffffffffH
	DD	0ffffffffH
	DD	00H
CONST	ENDS
;	COMDAT ?g_XMNegate3@DirectX@@3UXMVECTORU32@1@B
CONST	SEGMENT
?g_XMNegate3@DirectX@@3UXMVECTORU32@1@B DD 080000000H	; DirectX::g_XMNegate3
	DD	080000000H
	DD	080000000H
	DD	00H
CONST	ENDS
;	COMDAT ?g_XMNegativeZero@DirectX@@3UXMVECTORU32@1@B
CONST	SEGMENT
?g_XMNegativeZero@DirectX@@3UXMVECTORU32@1@B DD 080000000H ; DirectX::g_XMNegativeZero
	DD	080000000H
	DD	080000000H
	DD	080000000H
CONST	ENDS
;	COMDAT ?g_XMNegIdentityR3@DirectX@@3UXMVECTORF32@1@B
CONST	SEGMENT
?g_XMNegIdentityR3@DirectX@@3UXMVECTORF32@1@B DD 000000000r ; 0 ; DirectX::g_XMNegIdentityR3
	DD	000000000r			; 0
	DD	000000000r			; 0
	DD	0bf800000r			; -1
CONST	ENDS
;	COMDAT ?g_XMNegIdentityR2@DirectX@@3UXMVECTORF32@1@B
CONST	SEGMENT
?g_XMNegIdentityR2@DirectX@@3UXMVECTORF32@1@B DD 000000000r ; 0 ; DirectX::g_XMNegIdentityR2
	DD	000000000r			; 0
	DD	0bf800000r			; -1
	DD	000000000r			; 0
CONST	ENDS
;	COMDAT ?g_XMNegIdentityR1@DirectX@@3UXMVECTORF32@1@B
CONST	SEGMENT
?g_XMNegIdentityR1@DirectX@@3UXMVECTORF32@1@B DD 000000000r ; 0 ; DirectX::g_XMNegIdentityR1
	DD	0bf800000r			; -1
	DD	000000000r			; 0
	DD	000000000r			; 0
CONST	ENDS
;	COMDAT ?g_XMNegIdentityR0@DirectX@@3UXMVECTORF32@1@B
CONST	SEGMENT
?g_XMNegIdentityR0@DirectX@@3UXMVECTORF32@1@B DD 0bf800000r ; -1 ; DirectX::g_XMNegIdentityR0
	DD	000000000r			; 0
	DD	000000000r			; 0
	DD	000000000r			; 0
CONST	ENDS
;	COMDAT ?g_XMIdentityR3@DirectX@@3UXMVECTORF32@1@B
CONST	SEGMENT
?g_XMIdentityR3@DirectX@@3UXMVECTORF32@1@B DD 000000000r ; 0 ; DirectX::g_XMIdentityR3
	DD	000000000r			; 0
	DD	000000000r			; 0
	DD	03f800000r			; 1
CONST	ENDS
;	COMDAT ?g_XMIdentityR2@DirectX@@3UXMVECTORF32@1@B
CONST	SEGMENT
?g_XMIdentityR2@DirectX@@3UXMVECTORF32@1@B DD 000000000r ; 0 ; DirectX::g_XMIdentityR2
	DD	000000000r			; 0
	DD	03f800000r			; 1
	DD	000000000r			; 0
CONST	ENDS
;	COMDAT ?g_XMIdentityR1@DirectX@@3UXMVECTORF32@1@B
CONST	SEGMENT
?g_XMIdentityR1@DirectX@@3UXMVECTORF32@1@B DD 000000000r ; 0 ; DirectX::g_XMIdentityR1
	DD	03f800000r			; 1
	DD	000000000r			; 0
	DD	000000000r			; 0
CONST	ENDS
;	COMDAT ?g_XMIdentityR0@DirectX@@3UXMVECTORF32@1@B
CONST	SEGMENT
?g_XMIdentityR0@DirectX@@3UXMVECTORF32@1@B DD 03f800000r ; 1 ; DirectX::g_XMIdentityR0
	DD	000000000r			; 0
	DD	000000000r			; 0
	DD	000000000r			; 0
CONST	ENDS
;	COMDAT ?g_XMPiConstants0@DirectX@@3UXMVECTORF32@1@B
CONST	SEGMENT
?g_XMPiConstants0@DirectX@@3UXMVECTORF32@1@B DD 040490fdbr ; 3.14159 ; DirectX::g_XMPiConstants0
	DD	040c90fdbr			; 6.28319
	DD	03ea2f983r			; 0.31831
	DD	03e22f983r			; 0.159155
CONST	ENDS
;	COMDAT ?g_XMArcEstCoefficients@DirectX@@3UXMVECTORF32@1@B
CONST	SEGMENT
?g_XMArcEstCoefficients@DirectX@@3UXMVECTORF32@1@B DD 03fc90da4r ; 1.57073 ; DirectX::g_XMArcEstCoefficients
	DD	0be593484r			; -0.212114
	DD	03d981627r			; 0.074261
	DD	0bc996e30r			; -0.0187293
CONST	ENDS
;	COMDAT ?g_XMTanEstCoefficients@DirectX@@3UXMVECTORF32@1@B
CONST	SEGMENT
?g_XMTanEstCoefficients@DirectX@@3UXMVECTORF32@1@B DD 0401ef9dbr ; 2.484 ; DirectX::g_XMTanEstCoefficients
	DD	0be482f23r			; -0.195492
	DD	0401de9e6r			; 2.4674
	DD	03ea2f983r			; 0.31831
CONST	ENDS
;	COMDAT ?g_XMATanEstCoefficients1@DirectX@@3UXMVECTORF32@1@B
CONST	SEGMENT
?g_XMATanEstCoefficients1@DirectX@@3UXMVECTORF32@1@B DD 0bea91d04r ; -0.330299 ; DirectX::g_XMATanEstCoefficients1
	DD	03e3876e2r			; 0.180141
	DD	0bdae5a36r			; -0.085133
	DD	03caaae5fr			; 0.0208351
CONST	ENDS
;	COMDAT ?g_XMATanEstCoefficients0@DirectX@@3UXMVECTORF32@1@B
CONST	SEGMENT
?g_XMATanEstCoefficients0@DirectX@@3UXMVECTORF32@1@B DD 03f7ff738r ; 0.999866 ; DirectX::g_XMATanEstCoefficients0
	DD	03f7ff738r			; 0.999866
	DD	03f7ff738r			; 0.999866
	DD	03f7ff738r			; 0.999866
CONST	ENDS
;	COMDAT ?g_XMATanCoefficients1@DirectX@@3UXMVECTORF32@1@B
CONST	SEGMENT
?g_XMATanCoefficients1@DirectX@@3UXMVECTORF32@1@B DD 0bd9a3174r ; -0.0752896 ; DirectX::g_XMATanCoefficients1
	DD	03d2fc1fer			; 0.0429096
	DD	0bc846e02r			; -0.0161657
	DD	03b3bd74ar			; 0.00286623
CONST	ENDS
;	COMDAT ?g_XMATanCoefficients0@DirectX@@3UXMVECTORF32@1@B
CONST	SEGMENT
?g_XMATanCoefficients0@DirectX@@3UXMVECTORF32@1@B DD 0beaaaa6cr ; -0.333331 ; DirectX::g_XMATanCoefficients0
	DD	03e4cbbe5r			; 0.199936
	DD	0be117fc7r			; -0.142089
	DD	03dda3d83r			; 0.106563
CONST	ENDS
;	COMDAT ?g_XMArcCoefficients1@DirectX@@3UXMVECTORF32@1@B
CONST	SEGMENT
?g_XMArcCoefficients1@DirectX@@3UXMVECTORF32@1@B DD 03cfd10f8r ; 0.0308919 ; DirectX::g_XMArcCoefficients1
	DD	0bc8bfc66r			; -0.0170881
	DD	03bda90c5r			; 0.00667009
	DD	0baa57a2cr			; -0.00126249
CONST	ENDS
;	COMDAT ?g_XMArcCoefficients0@DirectX@@3UXMVECTORF32@1@B
CONST	SEGMENT
?g_XMArcCoefficients0@DirectX@@3UXMVECTORF32@1@B DD 03fc90fdar ; 1.5708 ; DirectX::g_XMArcCoefficients0
	DD	0be5bbfcar			; -0.214599
	DD	03db63a9er			; 0.088979
	DD	0bd4d8392r			; -0.0501743
CONST	ENDS
;	COMDAT ?g_XMTanCoefficients2@DirectX@@3UXMVECTORF32@1@B
CONST	SEGMENT
?g_XMTanCoefficients2@DirectX@@3UXMVECTORF32@1@B DD 03a1aac12r ; 0.000590027 ; DirectX::g_XMTanCoefficients2
	DD	0397abeb9r			; 0.000239129
	DD	038cb3f0cr			; 9.69154e-05
	DD	03824bec9r			; 3.92783e-05
CONST	ENDS
;	COMDAT ?g_XMTanCoefficients1@DirectX@@3UXMVECTORF32@1@B
CONST	SEGMENT
?g_XMTanCoefficients1@DirectX@@3UXMVECTORF32@1@B DD 03cb327a4r ; 0.0218695 ; DirectX::g_XMTanCoefficients1
	DD	03c11371br			; 0.00886324
	DD	03b6b69e9r			; 0.00359213
	DD	03abed1b3r			; 0.00145583
CONST	ENDS
;	COMDAT ?g_XMTanCoefficients0@DirectX@@3UXMVECTORF32@1@B
CONST	SEGMENT
?g_XMTanCoefficients0@DirectX@@3UXMVECTORF32@1@B DD 03f800000r ; 1 ; DirectX::g_XMTanCoefficients0
	DD	03eaaaaabr			; 0.333333
	DD	03e088889r			; 0.133333
	DD	03d5d0dd1r			; 0.0539683
CONST	ENDS
;	COMDAT ?g_XMCosCoefficients1@DirectX@@3UXMVECTORF32@1@B
CONST	SEGMENT
?g_XMCosCoefficients1@DirectX@@3UXMVECTORF32@1@B DD 0b48bdd11r ; -2.60516e-07 ; DirectX::g_XMCosCoefficients1
	DD	0befff67er			; -0.499927
	DD	03d29f587r			; 0.0414939
	DD	0baa69fdbr			; -0.00127124
CONST	ENDS
;	COMDAT ?g_XMCosCoefficients0@DirectX@@3UXMVECTORF32@1@B
CONST	SEGMENT
?g_XMCosCoefficients0@DirectX@@3UXMVECTORF32@1@B DD 0bf000000r ; -0.5 ; DirectX::g_XMCosCoefficients0
	DD	03d2aaaa3r			; 0.0416666
	DD	0bab609aar			; -0.00138884
	DD	037cfb4c2r			; 2.47605e-05
CONST	ENDS
;	COMDAT ?g_XMSinCoefficients1@DirectX@@3UXMVECTORF32@1@B
CONST	SEGMENT
?g_XMSinCoefficients1@DirectX@@3UXMVECTORF32@1@B DD 0b2cd365br ; -2.38899e-08 ; DirectX::g_XMSinCoefficients1
	DD	0be2aa888r			; -0.166659
	DD	03c08373cr			; 0.00831395
	DD	0b9423ec8r			; -0.000185247
CONST	ENDS
;	COMDAT ?g_XMSinCoefficients0@DirectX@@3UXMVECTORF32@1@B
CONST	SEGMENT
?g_XMSinCoefficients0@DirectX@@3UXMVECTORF32@1@B DD 0be2aaaabr ; -0.166667 ; DirectX::g_XMSinCoefficients0
	DD	03c088886r			; 0.00833333
	DD	0b9500bf1r			; -0.000198409
	DD	03638b88er			; 2.75256e-06
CONST	ENDS
;	COMDAT ?g_UnitPlaneEpsilon@Internal@DirectX@@3UXMVECTORF32@2@B
CONST	SEGMENT
?g_UnitPlaneEpsilon@Internal@DirectX@@3UXMVECTORF32@2@B DD 038d1b717r ; 0.0001 ; DirectX::Internal::g_UnitPlaneEpsilon
	DD	038d1b717r			; 0.0001
	DD	038d1b717r			; 0.0001
	DD	038d1b717r			; 0.0001
CONST	ENDS
;	COMDAT ?g_UnitQuaternionEpsilon@Internal@DirectX@@3UXMVECTORF32@2@B
CONST	SEGMENT
?g_UnitQuaternionEpsilon@Internal@DirectX@@3UXMVECTORF32@2@B DD 038d1b717r ; 0.0001 ; DirectX::Internal::g_UnitQuaternionEpsilon
	DD	038d1b717r			; 0.0001
	DD	038d1b717r			; 0.0001
	DD	038d1b717r			; 0.0001
CONST	ENDS
;	COMDAT ?g_UnitVectorEpsilon@Internal@DirectX@@3UXMVECTORF32@2@B
CONST	SEGMENT
?g_UnitVectorEpsilon@Internal@DirectX@@3UXMVECTORF32@2@B DD 038d1b717r ; 0.0001 ; DirectX::Internal::g_UnitVectorEpsilon
	DD	038d1b717r			; 0.0001
	DD	038d1b717r			; 0.0001
	DD	038d1b717r			; 0.0001
CONST	ENDS
;	COMDAT ?YellowGreen@Colors@DirectX@@3UXMVECTORF32@2@B
CONST	SEGMENT
?YellowGreen@Colors@DirectX@@3UXMVECTORF32@2@B DD 03f1a9a9br ; 0.603922 ; DirectX::Colors::YellowGreen
	DD	03f4dcdcfr			; 0.803922
	DD	03e48c8car			; 0.196078
	DD	03f800000r			; 1
CONST	ENDS
;	COMDAT ?Yellow@Colors@DirectX@@3UXMVECTORF32@2@B
CONST	SEGMENT
?Yellow@Colors@DirectX@@3UXMVECTORF32@2@B DD 03f800000r ; 1 ; DirectX::Colors::Yellow
	DD	03f800000r			; 1
	DD	000000000r			; 0
	DD	03f800000r			; 1
CONST	ENDS
;	COMDAT ?WhiteSmoke@Colors@DirectX@@3UXMVECTORF32@2@B
CONST	SEGMENT
?WhiteSmoke@Colors@DirectX@@3UXMVECTORF32@2@B DD 03f75f5f7r ; 0.960784 ; DirectX::Colors::WhiteSmoke
	DD	03f75f5f7r			; 0.960784
	DD	03f75f5f7r			; 0.960784
	DD	03f800000r			; 1
CONST	ENDS
;	COMDAT ?White@Colors@DirectX@@3UXMVECTORF32@2@B
CONST	SEGMENT
?White@Colors@DirectX@@3UXMVECTORF32@2@B DD 03f800000r ; 1 ; DirectX::Colors::White
	DD	03f800000r			; 1
	DD	03f800000r			; 1
	DD	03f800000r			; 1
CONST	ENDS
;	COMDAT ?Wheat@Colors@DirectX@@3UXMVECTORF32@2@B
CONST	SEGMENT
?Wheat@Colors@DirectX@@3UXMVECTORF32@2@B DD 03f75f5f7r ; 0.960784 ; DirectX::Colors::Wheat
	DD	03f5edee0r			; 0.870588
	DD	03f33b3b4r			; 0.701961
	DD	03f800000r			; 1
CONST	ENDS
;	COMDAT ?Violet@Colors@DirectX@@3UXMVECTORF32@2@B
CONST	SEGMENT
?Violet@Colors@DirectX@@3UXMVECTORF32@2@B DD 03f6eeef0r ; 0.933333 ; DirectX::Colors::Violet
	DD	03f028283r			; 0.509804
	DD	03f6eeef0r			; 0.933333
	DD	03f800000r			; 1
CONST	ENDS
;	COMDAT ?Turquoise@Colors@DirectX@@3UXMVECTORF32@2@B
CONST	SEGMENT
?Turquoise@Colors@DirectX@@3UXMVECTORF32@2@B DD 03e808081r ; 0.25098 ; DirectX::Colors::Turquoise
	DD	03f60e0e2r			; 0.878431
	DD	03f50d0d2r			; 0.815686
	DD	03f800000r			; 1
CONST	ENDS
;	COMDAT ?Transparent@Colors@DirectX@@3UXMVECTORF32@2@B
CONST	SEGMENT
?Transparent@Colors@DirectX@@3UXMVECTORF32@2@B DD 000000000r ; 0 ; DirectX::Colors::Transparent
	DD	000000000r			; 0
	DD	000000000r			; 0
	DD	000000000r			; 0
CONST	ENDS
;	COMDAT ?Tomato@Colors@DirectX@@3UXMVECTORF32@2@B
CONST	SEGMENT
?Tomato@Colors@DirectX@@3UXMVECTORF32@2@B DD 03f800000r ; 1 ; DirectX::Colors::Tomato
	DD	03ec6c6c8r			; 0.388235
	DD	03e8e8e8fr			; 0.278431
	DD	03f800000r			; 1
CONST	ENDS
;	COMDAT ?Thistle@Colors@DirectX@@3UXMVECTORF32@2@B
CONST	SEGMENT
?Thistle@Colors@DirectX@@3UXMVECTORF32@2@B DD 03f58d8dar ; 0.847059 ; DirectX::Colors::Thistle
	DD	03f3fbfc0r			; 0.74902
	DD	03f58d8dar			; 0.847059
	DD	03f800000r			; 1
CONST	ENDS
;	COMDAT ?Teal@Colors@DirectX@@3UXMVECTORF32@2@B
CONST	SEGMENT
?Teal@Colors@DirectX@@3UXMVECTORF32@2@B DD 000000000r ; 0 ; DirectX::Colors::Teal
	DD	03f008081r			; 0.501961
	DD	03f008081r			; 0.501961
	DD	03f800000r			; 1
CONST	ENDS
;	COMDAT ?Tan@Colors@DirectX@@3UXMVECTORF32@2@B
CONST	SEGMENT
?Tan@Colors@DirectX@@3UXMVECTORF32@2@B DD 03f52d2d4r ; 0.823529 ; DirectX::Colors::Tan
	DD	03f34b4b5r			; 0.705882
	DD	03f0c8c8dr			; 0.54902
	DD	03f800000r			; 1
CONST	ENDS
;	COMDAT ?SteelBlue@Colors@DirectX@@3UXMVECTORF32@2@B
CONST	SEGMENT
?SteelBlue@Colors@DirectX@@3UXMVECTORF32@2@B DD 03e8c8c8dr ; 0.27451 ; DirectX::Colors::SteelBlue
	DD	03f028283r			; 0.509804
	DD	03f34b4b5r			; 0.705882
	DD	03f800000r			; 1
CONST	ENDS
;	COMDAT ?SpringGreen@Colors@DirectX@@3UXMVECTORF32@2@B
CONST	SEGMENT
?SpringGreen@Colors@DirectX@@3UXMVECTORF32@2@B DD 000000000r ; 0 ; DirectX::Colors::SpringGreen
	DD	03f800000r			; 1
	DD	03efeff00r			; 0.498039
	DD	03f800000r			; 1
CONST	ENDS
;	COMDAT ?Snow@Colors@DirectX@@3UXMVECTORF32@2@B
CONST	SEGMENT
?Snow@Colors@DirectX@@3UXMVECTORF32@2@B DD 03f800000r ; 1 ; DirectX::Colors::Snow
	DD	03f7afafcr			; 0.980392
	DD	03f7afafcr			; 0.980392
	DD	03f800000r			; 1
CONST	ENDS
;	COMDAT ?g_FltMax@DirectX@@3UXMVECTORF32@1@B
CONST	SEGMENT
?g_FltMax@DirectX@@3UXMVECTORF32@1@B DD 07f7fffffr ; 3.40282e+38 ; DirectX::g_FltMax
	DD	07f7fffffr			; 3.40282e+38
	DD	07f7fffffr			; 3.40282e+38
	DD	07f7fffffr			; 3.40282e+38
CONST	ENDS
;	COMDAT ?SlateGray@Colors@DirectX@@3UXMVECTORF32@2@B
CONST	SEGMENT
?SlateGray@Colors@DirectX@@3UXMVECTORF32@2@B DD 03ee0e0e2r ; 0.439216 ; DirectX::Colors::SlateGray
	DD	03f008081r			; 0.501961
	DD	03f109091r			; 0.564706
	DD	03f800000r			; 1
CONST	ENDS
;	COMDAT ?g_FltMin@DirectX@@3UXMVECTORF32@1@B
CONST	SEGMENT
?g_FltMin@DirectX@@3UXMVECTORF32@1@B DD 0ff7fffffr ; -3.40282e+38 ; DirectX::g_FltMin
	DD	0ff7fffffr			; -3.40282e+38
	DD	0ff7fffffr			; -3.40282e+38
	DD	0ff7fffffr			; -3.40282e+38
CONST	ENDS
;	COMDAT ?SlateBlue@Colors@DirectX@@3UXMVECTORF32@2@B
CONST	SEGMENT
?SlateBlue@Colors@DirectX@@3UXMVECTORF32@2@B DD 03ed4d4d6r ; 0.415686 ; DirectX::Colors::SlateBlue
	DD	03eb4b4b5r			; 0.352941
	DD	03f4dcdcfr			; 0.803922
	DD	03f800000r			; 1
CONST	ENDS
;	COMDAT ?g_RayNegEpsilon@DirectX@@3UXMVECTORF32@1@B
CONST	SEGMENT
?g_RayNegEpsilon@DirectX@@3UXMVECTORF32@1@B DD 09e3ce508r ; -1e-20 ; DirectX::g_RayNegEpsilon
	DD	09e3ce508r			; -1e-20
	DD	09e3ce508r			; -1e-20
	DD	09e3ce508r			; -1e-20
CONST	ENDS
;	COMDAT ?SkyBlue@Colors@DirectX@@3UXMVECTORF32@2@B
CONST	SEGMENT
?SkyBlue@Colors@DirectX@@3UXMVECTORF32@2@B DD 03f078788r ; 0.529412 ; DirectX::Colors::SkyBlue
	DD	03f4eced0r			; 0.807843
	DD	03f6bebedr			; 0.921569
	DD	03f800000r			; 1
CONST	ENDS
;	COMDAT ?g_RayEpsilon@DirectX@@3UXMVECTORF32@1@B
CONST	SEGMENT
?g_RayEpsilon@DirectX@@3UXMVECTORF32@1@B DD 01e3ce508r ; 1e-20 ; DirectX::g_RayEpsilon
	DD	01e3ce508r			; 1e-20
	DD	01e3ce508r			; 1e-20
	DD	01e3ce508r			; 1e-20
CONST	ENDS
;	COMDAT ?Silver@Colors@DirectX@@3UXMVECTORF32@2@B
CONST	SEGMENT
?Silver@Colors@DirectX@@3UXMVECTORF32@2@B DD 03f40c0c2r ; 0.752941 ; DirectX::Colors::Silver
	DD	03f40c0c2r			; 0.752941
	DD	03f40c0c2r			; 0.752941
	DD	03f800000r			; 1
CONST	ENDS
;	COMDAT ?g_BoxOffset@DirectX@@3QBUXMVECTORF32@1@B
CONST	SEGMENT
?g_BoxOffset@DirectX@@3QBUXMVECTORF32@1@B DD 0bf800000r ; -1 ; DirectX::g_BoxOffset
	DD	0bf800000r			; -1
	DD	03f800000r			; 1
	DD	000000000r			; 0
	DD	03f800000r			; 1
	DD	0bf800000r			; -1
	DD	03f800000r			; 1
	DD	000000000r			; 0
	DD	03f800000r			; 1
	DD	03f800000r			; 1
	DD	03f800000r			; 1
	DD	000000000r			; 0
	DD	0bf800000r			; -1
	DD	03f800000r			; 1
	DD	03f800000r			; 1
	DD	000000000r			; 0
	DD	0bf800000r			; -1
	DD	0bf800000r			; -1
	DD	0bf800000r			; -1
	DD	000000000r			; 0
	DD	03f800000r			; 1
	DD	0bf800000r			; -1
	DD	0bf800000r			; -1
	DD	000000000r			; 0
	DD	03f800000r			; 1
	DD	03f800000r			; 1
	DD	0bf800000r			; -1
	DD	000000000r			; 0
	DD	0bf800000r			; -1
	DD	03f800000r			; 1
	DD	0bf800000r			; -1
	DD	000000000r			; 0
CONST	ENDS
;	COMDAT ?Sienna@Colors@DirectX@@3UXMVECTORF32@2@B
CONST	SEGMENT
?Sienna@Colors@DirectX@@3UXMVECTORF32@2@B DD 03f20a0a1r ; 0.627451 ; DirectX::Colors::Sienna
	DD	03ea4a4a5r			; 0.321569
	DD	03e34b4b5r			; 0.176471
	DD	03f800000r			; 1
CONST	ENDS
;	COMDAT ?SeaShell@Colors@DirectX@@3UXMVECTORF32@2@B
CONST	SEGMENT
?SeaShell@Colors@DirectX@@3UXMVECTORF32@2@B DD 03f800000r ; 1 ; DirectX::Colors::SeaShell
	DD	03f75f5f7r			; 0.960784
	DD	03f6eeef0r			; 0.933333
	DD	03f800000r			; 1
CONST	ENDS
;	COMDAT ?SeaGreen@Colors@DirectX@@3UXMVECTORF32@2@B
CONST	SEGMENT
?SeaGreen@Colors@DirectX@@3UXMVECTORF32@2@B DD 03e38b8b9r ; 0.180392 ; DirectX::Colors::SeaGreen
	DD	03f0b8b8cr			; 0.545098
	DD	03eaeaeafr			; 0.341176
	DD	03f800000r			; 1
CONST	ENDS
;	COMDAT ?SandyBrown@Colors@DirectX@@3UXMVECTORF32@2@B
CONST	SEGMENT
?SandyBrown@Colors@DirectX@@3UXMVECTORF32@2@B DD 03f74f4f6r ; 0.956863 ; DirectX::Colors::SandyBrown
	DD	03f24a4a5r			; 0.643137
	DD	03ec0c0c2r			; 0.376471
	DD	03f800000r			; 1
CONST	ENDS
;	COMDAT ?Salmon@Colors@DirectX@@3UXMVECTORF32@2@B
CONST	SEGMENT
?Salmon@Colors@DirectX@@3UXMVECTORF32@2@B DD 03f7afafcr ; 0.980392 ; DirectX::Colors::Salmon
	DD	03f008081r			; 0.501961
	DD	03ee4e4e6r			; 0.447059
	DD	03f800000r			; 1
CONST	ENDS
;	COMDAT ?SaddleBrown@Colors@DirectX@@3UXMVECTORF32@2@B
CONST	SEGMENT
?SaddleBrown@Colors@DirectX@@3UXMVECTORF32@2@B DD 03f0b8b8cr ; 0.545098 ; DirectX::Colors::SaddleBrown
	DD	03e8a8a8br			; 0.270588
	DD	03d989899r			; 0.0745098
	DD	03f800000r			; 1
CONST	ENDS
;	COMDAT ?RoyalBlue@Colors@DirectX@@3UXMVECTORF32@2@B
CONST	SEGMENT
?RoyalBlue@Colors@DirectX@@3UXMVECTORF32@2@B DD 03e828283r ; 0.254902 ; DirectX::Colors::RoyalBlue
	DD	03ed2d2d4r			; 0.411765
	DD	03f61e1e3r			; 0.882353
	DD	03f800000r			; 1
CONST	ENDS
;	COMDAT ?RosyBrown@Colors@DirectX@@3UXMVECTORF32@2@B
CONST	SEGMENT
?RosyBrown@Colors@DirectX@@3UXMVECTORF32@2@B DD 03f3cbcbdr ; 0.737255 ; DirectX::Colors::RosyBrown
	DD	03f0f8f90r			; 0.560784
	DD	03f0f8f90r			; 0.560784
	DD	03f800000r			; 1
CONST	ENDS
;	COMDAT ?Red@Colors@DirectX@@3UXMVECTORF32@2@B
CONST	SEGMENT
?Red@Colors@DirectX@@3UXMVECTORF32@2@B DD 03f800000r ; 1 ; DirectX::Colors::Red
	DD	000000000r			; 0
	DD	000000000r			; 0
	DD	03f800000r			; 1
CONST	ENDS
;	COMDAT ?Purple@Colors@DirectX@@3UXMVECTORF32@2@B
CONST	SEGMENT
?Purple@Colors@DirectX@@3UXMVECTORF32@2@B DD 03f008081r ; 0.501961 ; DirectX::Colors::Purple
	DD	000000000r			; 0
	DD	03f008081r			; 0.501961
	DD	03f800000r			; 1
CONST	ENDS
;	COMDAT ?PowderBlue@Colors@DirectX@@3UXMVECTORF32@2@B
CONST	SEGMENT
?PowderBlue@Colors@DirectX@@3UXMVECTORF32@2@B DD 03f30b0b1r ; 0.690196 ; DirectX::Colors::PowderBlue
	DD	03f60e0e2r			; 0.878431
	DD	03f66e6e8r			; 0.901961
	DD	03f800000r			; 1
CONST	ENDS
;	COMDAT ?Plum@Colors@DirectX@@3UXMVECTORF32@2@B
CONST	SEGMENT
?Plum@Colors@DirectX@@3UXMVECTORF32@2@B DD 03f5ddddfr ; 0.866667 ; DirectX::Colors::Plum
	DD	03f20a0a1r			; 0.627451
	DD	03f5ddddfr			; 0.866667
	DD	03f800000r			; 1
CONST	ENDS
;	COMDAT ?Pink@Colors@DirectX@@3UXMVECTORF32@2@B
CONST	SEGMENT
?Pink@Colors@DirectX@@3UXMVECTORF32@2@B DD 03f800000r ; 1 ; DirectX::Colors::Pink
	DD	03f40c0c2r			; 0.752941
	DD	03f4bcbcdr			; 0.796079
	DD	03f800000r			; 1
CONST	ENDS
;	COMDAT ?Peru@Colors@DirectX@@3UXMVECTORF32@2@B
CONST	SEGMENT
?Peru@Colors@DirectX@@3UXMVECTORF32@2@B DD 03f4dcdcfr ; 0.803922 ; DirectX::Colors::Peru
	DD	03f058586r			; 0.521569
	DD	03e7cfcfer			; 0.247059
	DD	03f800000r			; 1
CONST	ENDS
;	COMDAT ?PeachPuff@Colors@DirectX@@3UXMVECTORF32@2@B
CONST	SEGMENT
?PeachPuff@Colors@DirectX@@3UXMVECTORF32@2@B DD 03f800000r ; 1 ; DirectX::Colors::PeachPuff
	DD	03f5adadcr			; 0.854902
	DD	03f39b9bar			; 0.72549
	DD	03f800000r			; 1
CONST	ENDS
;	COMDAT ?PapayaWhip@Colors@DirectX@@3UXMVECTORF32@2@B
CONST	SEGMENT
?PapayaWhip@Colors@DirectX@@3UXMVECTORF32@2@B DD 03f800000r ; 1 ; DirectX::Colors::PapayaWhip
	DD	03f6feff1r			; 0.937255
	DD	03f55d5d7r			; 0.835294
	DD	03f800000r			; 1
CONST	ENDS
;	COMDAT ?PaleVioletRed@Colors@DirectX@@3UXMVECTORF32@2@B
CONST	SEGMENT
?PaleVioletRed@Colors@DirectX@@3UXMVECTORF32@2@B DD 03f5bdbddr ; 0.858824 ; DirectX::Colors::PaleVioletRed
	DD	03ee0e0e2r			; 0.439216
	DD	03f139394r			; 0.576471
	DD	03f800000r			; 1
CONST	ENDS
;	COMDAT ?PaleTurquoise@Colors@DirectX@@3UXMVECTORF32@2@B
CONST	SEGMENT
?PaleTurquoise@Colors@DirectX@@3UXMVECTORF32@2@B DD 03f2fafb0r ; 0.686275 ; DirectX::Colors::PaleTurquoise
	DD	03f6eeef0r			; 0.933333
	DD	03f6eeef0r			; 0.933333
	DD	03f800000r			; 1
CONST	ENDS
;	COMDAT ?PaleGreen@Colors@DirectX@@3UXMVECTORF32@2@B
CONST	SEGMENT
?PaleGreen@Colors@DirectX@@3UXMVECTORF32@2@B DD 03f189899r ; 0.596078 ; DirectX::Colors::PaleGreen
	DD	03f7bfbfdr			; 0.984314
	DD	03f189899r			; 0.596078
	DD	03f800000r			; 1
CONST	ENDS
;	COMDAT ?PaleGoldenrod@Colors@DirectX@@3UXMVECTORF32@2@B
CONST	SEGMENT
?PaleGoldenrod@Colors@DirectX@@3UXMVECTORF32@2@B DD 03f6eeef0r ; 0.933333 ; DirectX::Colors::PaleGoldenrod
	DD	03f68e8ear			; 0.909804
	DD	03f2aaaabr			; 0.666667
	DD	03f800000r			; 1
CONST	ENDS
;	COMDAT ?Orchid@Colors@DirectX@@3UXMVECTORF32@2@B
CONST	SEGMENT
?Orchid@Colors@DirectX@@3UXMVECTORF32@2@B DD 03f5adadcr ; 0.854902 ; DirectX::Colors::Orchid
	DD	03ee0e0e2r			; 0.439216
	DD	03f56d6d8r			; 0.839216
	DD	03f800000r			; 1
CONST	ENDS
;	COMDAT ?OrangeRed@Colors@DirectX@@3UXMVECTORF32@2@B
CONST	SEGMENT
?OrangeRed@Colors@DirectX@@3UXMVECTORF32@2@B DD 03f800000r ; 1 ; DirectX::Colors::OrangeRed
	DD	03e8a8a8br			; 0.270588
	DD	000000000r			; 0
	DD	03f800000r			; 1
CONST	ENDS
;	COMDAT ?Orange@Colors@DirectX@@3UXMVECTORF32@2@B
CONST	SEGMENT
?Orange@Colors@DirectX@@3UXMVECTORF32@2@B DD 03f800000r ; 1 ; DirectX::Colors::Orange
	DD	03f25a5a6r			; 0.647059
	DD	000000000r			; 0
	DD	03f800000r			; 1
CONST	ENDS
;	COMDAT ?OliveDrab@Colors@DirectX@@3UXMVECTORF32@2@B
CONST	SEGMENT
?OliveDrab@Colors@DirectX@@3UXMVECTORF32@2@B DD 03ed6d6d8r ; 0.419608 ; DirectX::Colors::OliveDrab
	DD	03f0e8e8fr			; 0.556863
	DD	03e0c8c8dr			; 0.137255
	DD	03f800000r			; 1
CONST	ENDS
;	COMDAT ?Olive@Colors@DirectX@@3UXMVECTORF32@2@B
CONST	SEGMENT
?Olive@Colors@DirectX@@3UXMVECTORF32@2@B DD 03f008081r ; 0.501961 ; DirectX::Colors::Olive
	DD	03f008081r			; 0.501961
	DD	000000000r			; 0
	DD	03f800000r			; 1
CONST	ENDS
;	COMDAT ?OldLace@Colors@DirectX@@3UXMVECTORF32@2@B
CONST	SEGMENT
?OldLace@Colors@DirectX@@3UXMVECTORF32@2@B DD 03f7dfdffr ; 0.992157 ; DirectX::Colors::OldLace
	DD	03f75f5f7r			; 0.960784
	DD	03f66e6e8r			; 0.901961
	DD	03f800000r			; 1
CONST	ENDS
;	COMDAT ?Navy@Colors@DirectX@@3UXMVECTORF32@2@B
CONST	SEGMENT
?Navy@Colors@DirectX@@3UXMVECTORF32@2@B DD 000000000r ; 0 ; DirectX::Colors::Navy
	DD	000000000r			; 0
	DD	03f008081r			; 0.501961
	DD	03f800000r			; 1
CONST	ENDS
;	COMDAT ?NavajoWhite@Colors@DirectX@@3UXMVECTORF32@2@B
CONST	SEGMENT
?NavajoWhite@Colors@DirectX@@3UXMVECTORF32@2@B DD 03f800000r ; 1 ; DirectX::Colors::NavajoWhite
	DD	03f5edee0r			; 0.870588
	DD	03f2dadaer			; 0.678431
	DD	03f800000r			; 1
CONST	ENDS
;	COMDAT ?Moccasin@Colors@DirectX@@3UXMVECTORF32@2@B
CONST	SEGMENT
?Moccasin@Colors@DirectX@@3UXMVECTORF32@2@B DD 03f800000r ; 1 ; DirectX::Colors::Moccasin
	DD	03f64e4e6r			; 0.894118
	DD	03f35b5b6r			; 0.709804
	DD	03f800000r			; 1
CONST	ENDS
;	COMDAT ?MistyRose@Colors@DirectX@@3UXMVECTORF32@2@B
CONST	SEGMENT
?MistyRose@Colors@DirectX@@3UXMVECTORF32@2@B DD 03f800000r ; 1 ; DirectX::Colors::MistyRose
	DD	03f64e4e6r			; 0.894118
	DD	03f61e1e3r			; 0.882353
	DD	03f800000r			; 1
CONST	ENDS
;	COMDAT ?MintCream@Colors@DirectX@@3UXMVECTORF32@2@B
CONST	SEGMENT
?MintCream@Colors@DirectX@@3UXMVECTORF32@2@B DD 03f75f5f7r ; 0.960784 ; DirectX::Colors::MintCream
	DD	03f800000r			; 1
	DD	03f7afafcr			; 0.980392
	DD	03f800000r			; 1
CONST	ENDS
;	COMDAT ?MidnightBlue@Colors@DirectX@@3UXMVECTORF32@2@B
CONST	SEGMENT
?MidnightBlue@Colors@DirectX@@3UXMVECTORF32@2@B DD 03dc8c8car ; 0.0980392 ; DirectX::Colors::MidnightBlue
	DD	03dc8c8car			; 0.0980392
	DD	03ee0e0e2r			; 0.439216
	DD	03f800000r			; 1
CONST	ENDS
;	COMDAT ?MediumVioletRed@Colors@DirectX@@3UXMVECTORF32@2@B
CONST	SEGMENT
?MediumVioletRed@Colors@DirectX@@3UXMVECTORF32@2@B DD 03f47c7c9r ; 0.780392 ; DirectX::Colors::MediumVioletRed
	DD	03da8a8a9r			; 0.0823529
	DD	03f058586r			; 0.521569
	DD	03f800000r			; 1
CONST	ENDS
;	COMDAT ?MediumTurquoise@Colors@DirectX@@3UXMVECTORF32@2@B
CONST	SEGMENT
?MediumTurquoise@Colors@DirectX@@3UXMVECTORF32@2@B DD 03e909091r ; 0.282353 ; DirectX::Colors::MediumTurquoise
	DD	03f51d1d3r			; 0.819608
	DD	03f4ccccer			; 0.8
	DD	03f800000r			; 1
CONST	ENDS
;	COMDAT ?MediumSpringGreen@Colors@DirectX@@3UXMVECTORF32@2@B
CONST	SEGMENT
?MediumSpringGreen@Colors@DirectX@@3UXMVECTORF32@2@B DD 000000000r ; 0 ; DirectX::Colors::MediumSpringGreen
	DD	03f7afafcr			; 0.980392
	DD	03f1a9a9br			; 0.603922
	DD	03f800000r			; 1
CONST	ENDS
;	COMDAT ?MediumSlateBlue@Colors@DirectX@@3UXMVECTORF32@2@B
CONST	SEGMENT
?MediumSlateBlue@Colors@DirectX@@3UXMVECTORF32@2@B DD 03ef6f6f8r ; 0.482353 ; DirectX::Colors::MediumSlateBlue
	DD	03ed0d0d2r			; 0.407843
	DD	03f6eeef0r			; 0.933333
	DD	03f800000r			; 1
CONST	ENDS
;	COMDAT ?MediumSeaGreen@Colors@DirectX@@3UXMVECTORF32@2@B
CONST	SEGMENT
?MediumSeaGreen@Colors@DirectX@@3UXMVECTORF32@2@B DD 03e70f0f2r ; 0.235294 ; DirectX::Colors::MediumSeaGreen
	DD	03f33b3b4r			; 0.701961
	DD	03ee2e2e4r			; 0.443137
	DD	03f800000r			; 1
CONST	ENDS
;	COMDAT ?MediumPurple@Colors@DirectX@@3UXMVECTORF32@2@B
CONST	SEGMENT
?MediumPurple@Colors@DirectX@@3UXMVECTORF32@2@B DD 03f139394r ; 0.576471 ; DirectX::Colors::MediumPurple
	DD	03ee0e0e2r			; 0.439216
	DD	03f5bdbddr			; 0.858824
	DD	03f800000r			; 1
CONST	ENDS
;	COMDAT ?MediumOrchid@Colors@DirectX@@3UXMVECTORF32@2@B
CONST	SEGMENT
?MediumOrchid@Colors@DirectX@@3UXMVECTORF32@2@B DD 03f3ababbr ; 0.729412 ; DirectX::Colors::MediumOrchid
	DD	03eaaaaabr			; 0.333333
	DD	03f53d3d5r			; 0.827451
	DD	03f800000r			; 1
CONST	ENDS
;	COMDAT ?MediumBlue@Colors@DirectX@@3UXMVECTORF32@2@B
CONST	SEGMENT
?MediumBlue@Colors@DirectX@@3UXMVECTORF32@2@B DD 000000000r ; 0 ; DirectX::Colors::MediumBlue
	DD	000000000r			; 0
	DD	03f4dcdcfr			; 0.803922
	DD	03f800000r			; 1
CONST	ENDS
;	COMDAT ?MediumAquamarine@Colors@DirectX@@3UXMVECTORF32@2@B
CONST	SEGMENT
?MediumAquamarine@Colors@DirectX@@3UXMVECTORF32@2@B DD 03ecccccer ; 0.4 ; DirectX::Colors::MediumAquamarine
	DD	03f4dcdcfr			; 0.803922
	DD	03f2aaaabr			; 0.666667
	DD	03f800000r			; 1
CONST	ENDS
;	COMDAT ?Maroon@Colors@DirectX@@3UXMVECTORF32@2@B
CONST	SEGMENT
?Maroon@Colors@DirectX@@3UXMVECTORF32@2@B DD 03f008081r ; 0.501961 ; DirectX::Colors::Maroon
	DD	000000000r			; 0
	DD	000000000r			; 0
	DD	03f800000r			; 1
CONST	ENDS
;	COMDAT ?Magenta@Colors@DirectX@@3UXMVECTORF32@2@B
CONST	SEGMENT
?Magenta@Colors@DirectX@@3UXMVECTORF32@2@B DD 03f800000r ; 1 ; DirectX::Colors::Magenta
	DD	000000000r			; 0
	DD	03f800000r			; 1
	DD	03f800000r			; 1
CONST	ENDS
;	COMDAT ?Linen@Colors@DirectX@@3UXMVECTORF32@2@B
CONST	SEGMENT
?Linen@Colors@DirectX@@3UXMVECTORF32@2@B DD 03f7afafcr ; 0.980392 ; DirectX::Colors::Linen
	DD	03f70f0f2r			; 0.941177
	DD	03f66e6e8r			; 0.901961
	DD	03f800000r			; 1
CONST	ENDS
;	COMDAT ?LimeGreen@Colors@DirectX@@3UXMVECTORF32@2@B
CONST	SEGMENT
?LimeGreen@Colors@DirectX@@3UXMVECTORF32@2@B DD 03e48c8car ; 0.196078 ; DirectX::Colors::LimeGreen
	DD	03f4dcdcfr			; 0.803922
	DD	03e48c8car			; 0.196078
	DD	03f800000r			; 1
CONST	ENDS
;	COMDAT ?Lime@Colors@DirectX@@3UXMVECTORF32@2@B
CONST	SEGMENT
?Lime@Colors@DirectX@@3UXMVECTORF32@2@B DD 000000000r ; 0 ; DirectX::Colors::Lime
	DD	03f800000r			; 1
	DD	000000000r			; 0
	DD	03f800000r			; 1
CONST	ENDS
;	COMDAT ?LightYellow@Colors@DirectX@@3UXMVECTORF32@2@B
CONST	SEGMENT
?LightYellow@Colors@DirectX@@3UXMVECTORF32@2@B DD 03f800000r ; 1 ; DirectX::Colors::LightYellow
	DD	03f800000r			; 1
	DD	03f60e0e2r			; 0.878431
	DD	03f800000r			; 1
CONST	ENDS
;	COMDAT ?LightSteelBlue@Colors@DirectX@@3UXMVECTORF32@2@B
CONST	SEGMENT
?LightSteelBlue@Colors@DirectX@@3UXMVECTORF32@2@B DD 03f30b0b1r ; 0.690196 ; DirectX::Colors::LightSteelBlue
	DD	03f44c4c6r			; 0.768628
	DD	03f5edee0r			; 0.870588
	DD	03f800000r			; 1
CONST	ENDS
;	COMDAT ?LightSlateGray@Colors@DirectX@@3UXMVECTORF32@2@B
CONST	SEGMENT
?LightSlateGray@Colors@DirectX@@3UXMVECTORF32@2@B DD 03eeeeef0r ; 0.466667 ; DirectX::Colors::LightSlateGray
	DD	03f088889r			; 0.533333
	DD	03f19999ar			; 0.6
	DD	03f800000r			; 1
CONST	ENDS
;	COMDAT ?LightSkyBlue@Colors@DirectX@@3UXMVECTORF32@2@B
CONST	SEGMENT
?LightSkyBlue@Colors@DirectX@@3UXMVECTORF32@2@B DD 03f078788r ; 0.529412 ; DirectX::Colors::LightSkyBlue
	DD	03f4eced0r			; 0.807843
	DD	03f7afafcr			; 0.980392
	DD	03f800000r			; 1
CONST	ENDS
;	COMDAT ?LightSeaGreen@Colors@DirectX@@3UXMVECTORF32@2@B
CONST	SEGMENT
?LightSeaGreen@Colors@DirectX@@3UXMVECTORF32@2@B DD 03e008081r ; 0.12549 ; DirectX::Colors::LightSeaGreen
	DD	03f32b2b3r			; 0.698039
	DD	03f2aaaabr			; 0.666667
	DD	03f800000r			; 1
CONST	ENDS
;	COMDAT ?LightSalmon@Colors@DirectX@@3UXMVECTORF32@2@B
CONST	SEGMENT
?LightSalmon@Colors@DirectX@@3UXMVECTORF32@2@B DD 03f800000r ; 1 ; DirectX::Colors::LightSalmon
	DD	03f20a0a1r			; 0.627451
	DD	03ef4f4f6r			; 0.478431
	DD	03f800000r			; 1
CONST	ENDS
;	COMDAT ?LightPink@Colors@DirectX@@3UXMVECTORF32@2@B
CONST	SEGMENT
?LightPink@Colors@DirectX@@3UXMVECTORF32@2@B DD 03f800000r ; 1 ; DirectX::Colors::LightPink
	DD	03f36b6b7r			; 0.713726
	DD	03f41c1c3r			; 0.756863
	DD	03f800000r			; 1
CONST	ENDS
;	COMDAT ?LightGray@Colors@DirectX@@3UXMVECTORF32@2@B
CONST	SEGMENT
?LightGray@Colors@DirectX@@3UXMVECTORF32@2@B DD 03f53d3d5r ; 0.827451 ; DirectX::Colors::LightGray
	DD	03f53d3d5r			; 0.827451
	DD	03f53d3d5r			; 0.827451
	DD	03f800000r			; 1
CONST	ENDS
;	COMDAT ?LightGreen@Colors@DirectX@@3UXMVECTORF32@2@B
CONST	SEGMENT
?LightGreen@Colors@DirectX@@3UXMVECTORF32@2@B DD 03f109091r ; 0.564706 ; DirectX::Colors::LightGreen
	DD	03f6eeef0r			; 0.933333
	DD	03f109091r			; 0.564706
	DD	03f800000r			; 1
CONST	ENDS
;	COMDAT ?LightGoldenrodYellow@Colors@DirectX@@3UXMVECTORF32@2@B
CONST	SEGMENT
?LightGoldenrodYellow@Colors@DirectX@@3UXMVECTORF32@2@B DD 03f7afafcr ; 0.980392 ; DirectX::Colors::LightGoldenrodYellow
	DD	03f7afafcr			; 0.980392
	DD	03f52d2d4r			; 0.823529
	DD	03f800000r			; 1
CONST	ENDS
;	COMDAT ?LightCyan@Colors@DirectX@@3UXMVECTORF32@2@B
CONST	SEGMENT
?LightCyan@Colors@DirectX@@3UXMVECTORF32@2@B DD 03f60e0e2r ; 0.878431 ; DirectX::Colors::LightCyan
	DD	03f800000r			; 1
	DD	03f800000r			; 1
	DD	03f800000r			; 1
CONST	ENDS
;	COMDAT ?LightCoral@Colors@DirectX@@3UXMVECTORF32@2@B
CONST	SEGMENT
?LightCoral@Colors@DirectX@@3UXMVECTORF32@2@B DD 03f70f0f2r ; 0.941177 ; DirectX::Colors::LightCoral
	DD	03f008081r			; 0.501961
	DD	03f008081r			; 0.501961
	DD	03f800000r			; 1
CONST	ENDS
;	COMDAT ?LightBlue@Colors@DirectX@@3UXMVECTORF32@2@B
CONST	SEGMENT
?LightBlue@Colors@DirectX@@3UXMVECTORF32@2@B DD 03f2dadaer ; 0.678431 ; DirectX::Colors::LightBlue
	DD	03f58d8dar			; 0.847059
	DD	03f66e6e8r			; 0.901961
	DD	03f800000r			; 1
CONST	ENDS
;	COMDAT ?LemonChiffon@Colors@DirectX@@3UXMVECTORF32@2@B
CONST	SEGMENT
?LemonChiffon@Colors@DirectX@@3UXMVECTORF32@2@B DD 03f800000r ; 1 ; DirectX::Colors::LemonChiffon
	DD	03f7afafcr			; 0.980392
	DD	03f4dcdcfr			; 0.803922
	DD	03f800000r			; 1
CONST	ENDS
;	COMDAT ?LawnGreen@Colors@DirectX@@3UXMVECTORF32@2@B
CONST	SEGMENT
?LawnGreen@Colors@DirectX@@3UXMVECTORF32@2@B DD 03ef8f8far ; 0.486275 ; DirectX::Colors::LawnGreen
	DD	03f7cfcfer			; 0.988235
	DD	000000000r			; 0
	DD	03f800000r			; 1
CONST	ENDS
;	COMDAT ?LavenderBlush@Colors@DirectX@@3UXMVECTORF32@2@B
CONST	SEGMENT
?LavenderBlush@Colors@DirectX@@3UXMVECTORF32@2@B DD 03f800000r ; 1 ; DirectX::Colors::LavenderBlush
	DD	03f70f0f2r			; 0.941177
	DD	03f75f5f7r			; 0.960784
	DD	03f800000r			; 1
CONST	ENDS
;	COMDAT ?Lavender@Colors@DirectX@@3UXMVECTORF32@2@B
CONST	SEGMENT
?Lavender@Colors@DirectX@@3UXMVECTORF32@2@B DD 03f66e6e8r ; 0.901961 ; DirectX::Colors::Lavender
	DD	03f66e6e8r			; 0.901961
	DD	03f7afafcr			; 0.980392
	DD	03f800000r			; 1
CONST	ENDS
;	COMDAT ?Khaki@Colors@DirectX@@3UXMVECTORF32@2@B
CONST	SEGMENT
?Khaki@Colors@DirectX@@3UXMVECTORF32@2@B DD 03f70f0f2r ; 0.941177 ; DirectX::Colors::Khaki
	DD	03f66e6e8r			; 0.901961
	DD	03f0c8c8dr			; 0.54902
	DD	03f800000r			; 1
CONST	ENDS
;	COMDAT ?Ivory@Colors@DirectX@@3UXMVECTORF32@2@B
CONST	SEGMENT
?Ivory@Colors@DirectX@@3UXMVECTORF32@2@B DD 03f800000r ; 1 ; DirectX::Colors::Ivory
	DD	03f800000r			; 1
	DD	03f70f0f2r			; 0.941177
	DD	03f800000r			; 1
CONST	ENDS
;	COMDAT ?Indigo@Colors@DirectX@@3UXMVECTORF32@2@B
CONST	SEGMENT
?Indigo@Colors@DirectX@@3UXMVECTORF32@2@B DD 03e969697r ; 0.294118 ; DirectX::Colors::Indigo
	DD	000000000r			; 0
	DD	03f028283r			; 0.509804
	DD	03f800000r			; 1
CONST	ENDS
;	COMDAT ?IndianRed@Colors@DirectX@@3UXMVECTORF32@2@B
CONST	SEGMENT
?IndianRed@Colors@DirectX@@3UXMVECTORF32@2@B DD 03f4dcdcfr ; 0.803922 ; DirectX::Colors::IndianRed
	DD	03eb8b8b9r			; 0.360784
	DD	03eb8b8b9r			; 0.360784
	DD	03f800000r			; 1
CONST	ENDS
;	COMDAT ?HotPink@Colors@DirectX@@3UXMVECTORF32@2@B
CONST	SEGMENT
?HotPink@Colors@DirectX@@3UXMVECTORF32@2@B DD 03f800000r ; 1 ; DirectX::Colors::HotPink
	DD	03ed2d2d4r			; 0.411765
	DD	03f34b4b5r			; 0.705882
	DD	03f800000r			; 1
CONST	ENDS
;	COMDAT ?Honeydew@Colors@DirectX@@3UXMVECTORF32@2@B
CONST	SEGMENT
?Honeydew@Colors@DirectX@@3UXMVECTORF32@2@B DD 03f70f0f2r ; 0.941177 ; DirectX::Colors::Honeydew
	DD	03f800000r			; 1
	DD	03f70f0f2r			; 0.941177
	DD	03f800000r			; 1
CONST	ENDS
;	COMDAT ?GreenYellow@Colors@DirectX@@3UXMVECTORF32@2@B
CONST	SEGMENT
?GreenYellow@Colors@DirectX@@3UXMVECTORF32@2@B DD 03f2dadaer ; 0.678431 ; DirectX::Colors::GreenYellow
	DD	03f800000r			; 1
	DD	03e3cbcbdr			; 0.184314
	DD	03f800000r			; 1
CONST	ENDS
;	COMDAT ?Green@Colors@DirectX@@3UXMVECTORF32@2@B
CONST	SEGMENT
?Green@Colors@DirectX@@3UXMVECTORF32@2@B DD 000000000r ; 0 ; DirectX::Colors::Green
	DD	03f008081r			; 0.501961
	DD	000000000r			; 0
	DD	03f800000r			; 1
CONST	ENDS
;	COMDAT ?Gray@Colors@DirectX@@3UXMVECTORF32@2@B
CONST	SEGMENT
?Gray@Colors@DirectX@@3UXMVECTORF32@2@B DD 03f008081r ; 0.501961 ; DirectX::Colors::Gray
	DD	03f008081r			; 0.501961
	DD	03f008081r			; 0.501961
	DD	03f800000r			; 1
CONST	ENDS
;	COMDAT ?Goldenrod@Colors@DirectX@@3UXMVECTORF32@2@B
CONST	SEGMENT
?Goldenrod@Colors@DirectX@@3UXMVECTORF32@2@B DD 03f5adadcr ; 0.854902 ; DirectX::Colors::Goldenrod
	DD	03f25a5a6r			; 0.647059
	DD	03e008081r			; 0.12549
	DD	03f800000r			; 1
CONST	ENDS
;	COMDAT ?Gold@Colors@DirectX@@3UXMVECTORF32@2@B
CONST	SEGMENT
?Gold@Colors@DirectX@@3UXMVECTORF32@2@B DD 03f800000r ; 1 ; DirectX::Colors::Gold
	DD	03f57d7d9r			; 0.843137
	DD	000000000r			; 0
	DD	03f800000r			; 1
CONST	ENDS
;	COMDAT ?GhostWhite@Colors@DirectX@@3UXMVECTORF32@2@B
CONST	SEGMENT
?GhostWhite@Colors@DirectX@@3UXMVECTORF32@2@B DD 03f78f8far ; 0.972549 ; DirectX::Colors::GhostWhite
	DD	03f78f8far			; 0.972549
	DD	03f800000r			; 1
	DD	03f800000r			; 1
CONST	ENDS
;	COMDAT ?Gainsboro@Colors@DirectX@@3UXMVECTORF32@2@B
CONST	SEGMENT
?Gainsboro@Colors@DirectX@@3UXMVECTORF32@2@B DD 03f5cdcder ; 0.862745 ; DirectX::Colors::Gainsboro
	DD	03f5cdcder			; 0.862745
	DD	03f5cdcder			; 0.862745
	DD	03f800000r			; 1
CONST	ENDS
;	COMDAT ?Fuchsia@Colors@DirectX@@3UXMVECTORF32@2@B
CONST	SEGMENT
?Fuchsia@Colors@DirectX@@3UXMVECTORF32@2@B DD 03f800000r ; 1 ; DirectX::Colors::Fuchsia
	DD	000000000r			; 0
	DD	03f800000r			; 1
	DD	03f800000r			; 1
CONST	ENDS
;	COMDAT ?ForestGreen@Colors@DirectX@@3UXMVECTORF32@2@B
CONST	SEGMENT
?ForestGreen@Colors@DirectX@@3UXMVECTORF32@2@B DD 03e088889r ; 0.133333 ; DirectX::Colors::ForestGreen
	DD	03f0b8b8cr			; 0.545098
	DD	03e088889r			; 0.133333
	DD	03f800000r			; 1
CONST	ENDS
;	COMDAT ?FloralWhite@Colors@DirectX@@3UXMVECTORF32@2@B
CONST	SEGMENT
?FloralWhite@Colors@DirectX@@3UXMVECTORF32@2@B DD 03f800000r ; 1 ; DirectX::Colors::FloralWhite
	DD	03f7afafcr			; 0.980392
	DD	03f70f0f2r			; 0.941177
	DD	03f800000r			; 1
CONST	ENDS
;	COMDAT ?Firebrick@Colors@DirectX@@3UXMVECTORF32@2@B
CONST	SEGMENT
?Firebrick@Colors@DirectX@@3UXMVECTORF32@2@B DD 03f32b2b3r ; 0.698039 ; DirectX::Colors::Firebrick
	DD	03e088889r			; 0.133333
	DD	03e088889r			; 0.133333
	DD	03f800000r			; 1
CONST	ENDS
;	COMDAT ?DodgerBlue@Colors@DirectX@@3UXMVECTORF32@2@B
CONST	SEGMENT
?DodgerBlue@Colors@DirectX@@3UXMVECTORF32@2@B DD 03df0f0f2r ; 0.117647 ; DirectX::Colors::DodgerBlue
	DD	03f109091r			; 0.564706
	DD	03f800000r			; 1
	DD	03f800000r			; 1
CONST	ENDS
;	COMDAT ?DimGray@Colors@DirectX@@3UXMVECTORF32@2@B
CONST	SEGMENT
?DimGray@Colors@DirectX@@3UXMVECTORF32@2@B DD 03ed2d2d4r ; 0.411765 ; DirectX::Colors::DimGray
	DD	03ed2d2d4r			; 0.411765
	DD	03ed2d2d4r			; 0.411765
	DD	03f800000r			; 1
CONST	ENDS
;	COMDAT ?DeepSkyBlue@Colors@DirectX@@3UXMVECTORF32@2@B
CONST	SEGMENT
?DeepSkyBlue@Colors@DirectX@@3UXMVECTORF32@2@B DD 000000000r ; 0 ; DirectX::Colors::DeepSkyBlue
	DD	03f3fbfc0r			; 0.74902
	DD	03f800000r			; 1
	DD	03f800000r			; 1
CONST	ENDS
;	COMDAT ?DeepPink@Colors@DirectX@@3UXMVECTORF32@2@B
CONST	SEGMENT
?DeepPink@Colors@DirectX@@3UXMVECTORF32@2@B DD 03f800000r ; 1 ; DirectX::Colors::DeepPink
	DD	03da0a0a1r			; 0.0784314
	DD	03f139394r			; 0.576471
	DD	03f800000r			; 1
CONST	ENDS
;	COMDAT ?DarkViolet@Colors@DirectX@@3UXMVECTORF32@2@B
CONST	SEGMENT
?DarkViolet@Colors@DirectX@@3UXMVECTORF32@2@B DD 03f149495r ; 0.580392 ; DirectX::Colors::DarkViolet
	DD	000000000r			; 0
	DD	03f53d3d5r			; 0.827451
	DD	03f800000r			; 1
CONST	ENDS
;	COMDAT ?DarkTurquoise@Colors@DirectX@@3UXMVECTORF32@2@B
CONST	SEGMENT
?DarkTurquoise@Colors@DirectX@@3UXMVECTORF32@2@B DD 000000000r ; 0 ; DirectX::Colors::DarkTurquoise
	DD	03f4eced0r			; 0.807843
	DD	03f51d1d3r			; 0.819608
	DD	03f800000r			; 1
CONST	ENDS
;	COMDAT ?DarkSlateGray@Colors@DirectX@@3UXMVECTORF32@2@B
CONST	SEGMENT
?DarkSlateGray@Colors@DirectX@@3UXMVECTORF32@2@B DD 03e3cbcbdr ; 0.184314 ; DirectX::Colors::DarkSlateGray
	DD	03e9e9e9fr			; 0.309804
	DD	03e9e9e9fr			; 0.309804
	DD	03f800000r			; 1
CONST	ENDS
;	COMDAT ?DarkSlateBlue@Colors@DirectX@@3UXMVECTORF32@2@B
CONST	SEGMENT
?DarkSlateBlue@Colors@DirectX@@3UXMVECTORF32@2@B DD 03e909091r ; 0.282353 ; DirectX::Colors::DarkSlateBlue
	DD	03e74f4f6r			; 0.239216
	DD	03f0b8b8cr			; 0.545098
	DD	03f800000r			; 1
CONST	ENDS
;	COMDAT ?DarkSeaGreen@Colors@DirectX@@3UXMVECTORF32@2@B
CONST	SEGMENT
?DarkSeaGreen@Colors@DirectX@@3UXMVECTORF32@2@B DD 03f0f8f90r ; 0.560784 ; DirectX::Colors::DarkSeaGreen
	DD	03f3cbcbdr			; 0.737255
	DD	03f0b8b8cr			; 0.545098
	DD	03f800000r			; 1
CONST	ENDS
;	COMDAT ?DarkSalmon@Colors@DirectX@@3UXMVECTORF32@2@B
CONST	SEGMENT
?DarkSalmon@Colors@DirectX@@3UXMVECTORF32@2@B DD 03f69e9ebr ; 0.913726 ; DirectX::Colors::DarkSalmon
	DD	03f169697r			; 0.588235
	DD	03ef4f4f6r			; 0.478431
	DD	03f800000r			; 1
CONST	ENDS
;	COMDAT ?DarkRed@Colors@DirectX@@3UXMVECTORF32@2@B
CONST	SEGMENT
?DarkRed@Colors@DirectX@@3UXMVECTORF32@2@B DD 03f0b8b8cr ; 0.545098 ; DirectX::Colors::DarkRed
	DD	000000000r			; 0
	DD	000000000r			; 0
	DD	03f800000r			; 1
CONST	ENDS
;	COMDAT ?DarkOrchid@Colors@DirectX@@3UXMVECTORF32@2@B
CONST	SEGMENT
?DarkOrchid@Colors@DirectX@@3UXMVECTORF32@2@B DD 03f19999ar ; 0.6 ; DirectX::Colors::DarkOrchid
	DD	03e48c8car			; 0.196078
	DD	03f4ccccer			; 0.8
	DD	03f800000r			; 1
CONST	ENDS
;	COMDAT ?DarkOrange@Colors@DirectX@@3UXMVECTORF32@2@B
CONST	SEGMENT
?DarkOrange@Colors@DirectX@@3UXMVECTORF32@2@B DD 03f800000r ; 1 ; DirectX::Colors::DarkOrange
	DD	03f0c8c8dr			; 0.54902
	DD	000000000r			; 0
	DD	03f800000r			; 1
CONST	ENDS
;	COMDAT ?DarkOliveGreen@Colors@DirectX@@3UXMVECTORF32@2@B
CONST	SEGMENT
?DarkOliveGreen@Colors@DirectX@@3UXMVECTORF32@2@B DD 03eaaaaabr ; 0.333333 ; DirectX::Colors::DarkOliveGreen
	DD	03ed6d6d8r			; 0.419608
	DD	03e3cbcbdr			; 0.184314
	DD	03f800000r			; 1
CONST	ENDS
;	COMDAT ?DarkMagenta@Colors@DirectX@@3UXMVECTORF32@2@B
CONST	SEGMENT
?DarkMagenta@Colors@DirectX@@3UXMVECTORF32@2@B DD 03f0b8b8cr ; 0.545098 ; DirectX::Colors::DarkMagenta
	DD	000000000r			; 0
	DD	03f0b8b8cr			; 0.545098
	DD	03f800000r			; 1
CONST	ENDS
;	COMDAT ?DarkKhaki@Colors@DirectX@@3UXMVECTORF32@2@B
CONST	SEGMENT
?DarkKhaki@Colors@DirectX@@3UXMVECTORF32@2@B DD 03f3dbdber ; 0.741176 ; DirectX::Colors::DarkKhaki
	DD	03f37b7b8r			; 0.717647
	DD	03ed6d6d8r			; 0.419608
	DD	03f800000r			; 1
CONST	ENDS
;	COMDAT ?DarkGreen@Colors@DirectX@@3UXMVECTORF32@2@B
CONST	SEGMENT
?DarkGreen@Colors@DirectX@@3UXMVECTORF32@2@B DD 000000000r ; 0 ; DirectX::Colors::DarkGreen
	DD	03ec8c8car			; 0.392157
	DD	000000000r			; 0
	DD	03f800000r			; 1
CONST	ENDS
;	COMDAT ?DarkGray@Colors@DirectX@@3UXMVECTORF32@2@B
CONST	SEGMENT
?DarkGray@Colors@DirectX@@3UXMVECTORF32@2@B DD 03f29a9aar ; 0.662745 ; DirectX::Colors::DarkGray
	DD	03f29a9aar			; 0.662745
	DD	03f29a9aar			; 0.662745
	DD	03f800000r			; 1
CONST	ENDS
;	COMDAT ?DarkGoldenrod@Colors@DirectX@@3UXMVECTORF32@2@B
CONST	SEGMENT
?DarkGoldenrod@Colors@DirectX@@3UXMVECTORF32@2@B DD 03f38b8b9r ; 0.721569 ; DirectX::Colors::DarkGoldenrod
	DD	03f068687r			; 0.52549
	DD	03d30b0b1r			; 0.0431373
	DD	03f800000r			; 1
CONST	ENDS
;	COMDAT ?DarkCyan@Colors@DirectX@@3UXMVECTORF32@2@B
CONST	SEGMENT
?DarkCyan@Colors@DirectX@@3UXMVECTORF32@2@B DD 000000000r ; 0 ; DirectX::Colors::DarkCyan
	DD	03f0b8b8cr			; 0.545098
	DD	03f0b8b8cr			; 0.545098
	DD	03f800000r			; 1
CONST	ENDS
;	COMDAT ?DarkBlue@Colors@DirectX@@3UXMVECTORF32@2@B
CONST	SEGMENT
?DarkBlue@Colors@DirectX@@3UXMVECTORF32@2@B DD 000000000r ; 0 ; DirectX::Colors::DarkBlue
	DD	000000000r			; 0
	DD	03f0b8b8cr			; 0.545098
	DD	03f800000r			; 1
CONST	ENDS
;	COMDAT ?Cyan@Colors@DirectX@@3UXMVECTORF32@2@B
CONST	SEGMENT
?Cyan@Colors@DirectX@@3UXMVECTORF32@2@B DD 000000000r ; 0 ; DirectX::Colors::Cyan
	DD	03f800000r			; 1
	DD	03f800000r			; 1
	DD	03f800000r			; 1
CONST	ENDS
;	COMDAT ?Crimson@Colors@DirectX@@3UXMVECTORF32@2@B
CONST	SEGMENT
?Crimson@Colors@DirectX@@3UXMVECTORF32@2@B DD 03f5cdcder ; 0.862745 ; DirectX::Colors::Crimson
	DD	03da0a0a1r			; 0.0784314
	DD	03e70f0f2r			; 0.235294
	DD	03f800000r			; 1
CONST	ENDS
;	COMDAT ?Cornsilk@Colors@DirectX@@3UXMVECTORF32@2@B
CONST	SEGMENT
?Cornsilk@Colors@DirectX@@3UXMVECTORF32@2@B DD 03f800000r ; 1 ; DirectX::Colors::Cornsilk
	DD	03f78f8far			; 0.972549
	DD	03f5cdcder			; 0.862745
	DD	03f800000r			; 1
CONST	ENDS
;	COMDAT ?CornflowerBlue@Colors@DirectX@@3UXMVECTORF32@2@B
CONST	SEGMENT
?CornflowerBlue@Colors@DirectX@@3UXMVECTORF32@2@B DD 03ec8c8car ; 0.392157 ; DirectX::Colors::CornflowerBlue
	DD	03f159596r			; 0.584314
	DD	03f6dedefr			; 0.929412
	DD	03f800000r			; 1
CONST	ENDS
;	COMDAT ?Coral@Colors@DirectX@@3UXMVECTORF32@2@B
CONST	SEGMENT
?Coral@Colors@DirectX@@3UXMVECTORF32@2@B DD 03f800000r ; 1 ; DirectX::Colors::Coral
	DD	03efeff00r			; 0.498039
	DD	03ea0a0a1r			; 0.313726
	DD	03f800000r			; 1
CONST	ENDS
;	COMDAT ?Chocolate@Colors@DirectX@@3UXMVECTORF32@2@B
CONST	SEGMENT
?Chocolate@Colors@DirectX@@3UXMVECTORF32@2@B DD 03f52d2d4r ; 0.823529 ; DirectX::Colors::Chocolate
	DD	03ed2d2d4r			; 0.411765
	DD	03df0f0f2r			; 0.117647
	DD	03f800000r			; 1
CONST	ENDS
;	COMDAT ?Chartreuse@Colors@DirectX@@3UXMVECTORF32@2@B
CONST	SEGMENT
?Chartreuse@Colors@DirectX@@3UXMVECTORF32@2@B DD 03efeff00r ; 0.498039 ; DirectX::Colors::Chartreuse
	DD	03f800000r			; 1
	DD	000000000r			; 0
	DD	03f800000r			; 1
CONST	ENDS
;	COMDAT ?CadetBlue@Colors@DirectX@@3UXMVECTORF32@2@B
CONST	SEGMENT
?CadetBlue@Colors@DirectX@@3UXMVECTORF32@2@B DD 03ebebebfr ; 0.372549 ; DirectX::Colors::CadetBlue
	DD	03f1e9e9fr			; 0.619608
	DD	03f20a0a1r			; 0.627451
	DD	03f800000r			; 1
CONST	ENDS
;	COMDAT ?BurlyWood@Colors@DirectX@@3UXMVECTORF32@2@B
CONST	SEGMENT
?BurlyWood@Colors@DirectX@@3UXMVECTORF32@2@B DD 03f5edee0r ; 0.870588 ; DirectX::Colors::BurlyWood
	DD	03f38b8b9r			; 0.721569
	DD	03f078788r			; 0.529412
	DD	03f800000r			; 1
CONST	ENDS
;	COMDAT ?Brown@Colors@DirectX@@3UXMVECTORF32@2@B
CONST	SEGMENT
?Brown@Colors@DirectX@@3UXMVECTORF32@2@B DD 03f25a5a6r ; 0.647059 ; DirectX::Colors::Brown
	DD	03e28a8a9r			; 0.164706
	DD	03e28a8a9r			; 0.164706
	DD	03f800000r			; 1
CONST	ENDS
;	COMDAT ?BlueViolet@Colors@DirectX@@3UXMVECTORF32@2@B
CONST	SEGMENT
?BlueViolet@Colors@DirectX@@3UXMVECTORF32@2@B DD 03f0a8a8br ; 0.541176 ; DirectX::Colors::BlueViolet
	DD	03e2cacadr			; 0.168627
	DD	03f62e2e4r			; 0.886275
	DD	03f800000r			; 1
CONST	ENDS
;	COMDAT ?Blue@Colors@DirectX@@3UXMVECTORF32@2@B
CONST	SEGMENT
?Blue@Colors@DirectX@@3UXMVECTORF32@2@B DD 000000000r ; 0 ; DirectX::Colors::Blue
	DD	000000000r			; 0
	DD	03f800000r			; 1
	DD	03f800000r			; 1
CONST	ENDS
;	COMDAT ?BlanchedAlmond@Colors@DirectX@@3UXMVECTORF32@2@B
CONST	SEGMENT
?BlanchedAlmond@Colors@DirectX@@3UXMVECTORF32@2@B DD 03f800000r ; 1 ; DirectX::Colors::BlanchedAlmond
	DD	03f6bebedr			; 0.921569
	DD	03f4dcdcfr			; 0.803922
	DD	03f800000r			; 1
CONST	ENDS
;	COMDAT ?Black@Colors@DirectX@@3UXMVECTORF32@2@B
CONST	SEGMENT
?Black@Colors@DirectX@@3UXMVECTORF32@2@B DD 000000000r ; 0 ; DirectX::Colors::Black
	DD	000000000r			; 0
	DD	000000000r			; 0
	DD	03f800000r			; 1
CONST	ENDS
;	COMDAT ?Bisque@Colors@DirectX@@3UXMVECTORF32@2@B
CONST	SEGMENT
?Bisque@Colors@DirectX@@3UXMVECTORF32@2@B DD 03f800000r ; 1 ; DirectX::Colors::Bisque
	DD	03f64e4e6r			; 0.894118
	DD	03f44c4c6r			; 0.768628
	DD	03f800000r			; 1
CONST	ENDS
;	COMDAT ?Beige@Colors@DirectX@@3UXMVECTORF32@2@B
CONST	SEGMENT
?Beige@Colors@DirectX@@3UXMVECTORF32@2@B DD 03f75f5f7r ; 0.960784 ; DirectX::Colors::Beige
	DD	03f75f5f7r			; 0.960784
	DD	03f5cdcder			; 0.862745
	DD	03f800000r			; 1
CONST	ENDS
;	COMDAT ?Azure@Colors@DirectX@@3UXMVECTORF32@2@B
CONST	SEGMENT
?Azure@Colors@DirectX@@3UXMVECTORF32@2@B DD 03f70f0f2r ; 0.941177 ; DirectX::Colors::Azure
	DD	03f800000r			; 1
	DD	03f800000r			; 1
	DD	03f800000r			; 1
CONST	ENDS
;	COMDAT ?Aquamarine@Colors@DirectX@@3UXMVECTORF32@2@B
CONST	SEGMENT
?Aquamarine@Colors@DirectX@@3UXMVECTORF32@2@B DD 03efeff00r ; 0.498039 ; DirectX::Colors::Aquamarine
	DD	03f800000r			; 1
	DD	03f54d4d6r			; 0.831373
	DD	03f800000r			; 1
CONST	ENDS
;	COMDAT ?Aqua@Colors@DirectX@@3UXMVECTORF32@2@B
CONST	SEGMENT
?Aqua@Colors@DirectX@@3UXMVECTORF32@2@B DD 000000000r ; 0 ; DirectX::Colors::Aqua
	DD	03f800000r			; 1
	DD	03f800000r			; 1
	DD	03f800000r			; 1
CONST	ENDS
;	COMDAT ?AntiqueWhite@Colors@DirectX@@3UXMVECTORF32@2@B
CONST	SEGMENT
?AntiqueWhite@Colors@DirectX@@3UXMVECTORF32@2@B DD 03f7afafcr ; 0.980392 ; DirectX::Colors::AntiqueWhite
	DD	03f6bebedr			; 0.921569
	DD	03f57d7d9r			; 0.843137
	DD	03f800000r			; 1
CONST	ENDS
;	COMDAT ?AliceBlue@Colors@DirectX@@3UXMVECTORF32@2@B
CONST	SEGMENT
?AliceBlue@Colors@DirectX@@3UXMVECTORF32@2@B DD 03f70f0f2r ; 0.941177 ; DirectX::Colors::AliceBlue
	DD	03f78f8far			; 0.972549
	DD	03f800000r			; 1
	DD	03f800000r			; 1
CONST	ENDS
PUBLIC	??_H@YAXPEAX_K1P6APEAX0@Z@Z			; `vector constructor iterator'
PUBLIC	?__empty_global_delete@@YAXPEAX@Z		; __empty_global_delete
PUBLIC	?__empty_global_delete@@YAXPEAX_K@Z		; __empty_global_delete
PUBLIC	?XMConvertToRadians@DirectX@@YAMM@Z		; DirectX::XMConvertToRadians
PUBLIC	??BXMVECTORI32@DirectX@@QEBA?AT__m128@@XZ	; DirectX::XMVECTORI32::operator __m128
PUBLIC	??GDirectX@@YQ?AT__m128@@T1@@Z			; DirectX::operator-
PUBLIC	??HDirectX@@YQ?AT__m128@@T1@0@Z			; DirectX::operator+
PUBLIC	??GDirectX@@YQ?AT__m128@@T1@0@Z			; DirectX::operator-
PUBLIC	??DDirectX@@YQ?AT__m128@@T1@M@Z			; DirectX::operator*
PUBLIC	??0XMMATRIX@DirectX@@QEAA@XZ			; DirectX::XMMATRIX::XMMATRIX
PUBLIC	??0XMFLOAT3@DirectX@@QEAA@XZ			; DirectX::XMFLOAT3::XMFLOAT3
PUBLIC	??0XMFLOAT3@DirectX@@QEAA@MMM@Z			; DirectX::XMFLOAT3::XMFLOAT3
PUBLIC	??4XMFLOAT3@DirectX@@QEAAAEAU01@AEBU01@@Z	; DirectX::XMFLOAT3::operator=
PUBLIC	?XMLoadFloat3@DirectX@@YQ?AT__m128@@PEBUXMFLOAT3@1@@Z ; DirectX::XMLoadFloat3
PUBLIC	?XMLoadFloat4x4@DirectX@@YQ?AUXMMATRIX@1@PEBUXMFLOAT4X4@1@@Z ; DirectX::XMLoadFloat4x4
PUBLIC	?XMStoreFloat3@DirectX@@YQXPEAUXMFLOAT3@1@T__m128@@@Z ; DirectX::XMStoreFloat3
PUBLIC	?XMVectorSet@DirectX@@YQ?AT__m128@@MMMM@Z	; DirectX::XMVectorSet
PUBLIC	?XMVectorGetX@DirectX@@YQMT__m128@@@Z		; DirectX::XMVectorGetX
PUBLIC	?XMVectorSetY@DirectX@@YQ?AT__m128@@T2@M@Z	; DirectX::XMVectorSetY
PUBLIC	?XMVectorNegate@DirectX@@YQ?AT__m128@@T2@@Z	; DirectX::XMVectorNegate
PUBLIC	?XMVectorAdd@DirectX@@YQ?AT__m128@@T2@0@Z	; DirectX::XMVectorAdd
PUBLIC	?XMVectorSubtract@DirectX@@YQ?AT__m128@@T2@0@Z	; DirectX::XMVectorSubtract
PUBLIC	?XMVectorScale@DirectX@@YQ?AT__m128@@T2@M@Z	; DirectX::XMVectorScale
PUBLIC	?XMVector3Length@DirectX@@YQ?AT__m128@@T2@@Z	; DirectX::XMVector3Length
PUBLIC	?XMVector3Normalize@DirectX@@YQ?AT__m128@@T2@@Z	; DirectX::XMVector3Normalize
PUBLIC	??0tagCubeDesc@CWall@Client@@QEAA@XZ		; Client::CWall::tagCubeDesc::tagCubeDesc
PUBLIC	??0CWall@Client@@IEAA@PEAUID3D11Device@@PEAUID3D11DeviceContext@@@Z ; Client::CWall::CWall
PUBLIC	??0CWall@Client@@IEAA@AEBVCGameObject@Engine@@@Z ; Client::CWall::CWall
PUBLIC	??1CWall@Client@@MEAA@XZ			; Client::CWall::~CWall
PUBLIC	?Initialize_Prototype@CWall@Client@@UEAAJXZ	; Client::CWall::Initialize_Prototype
PUBLIC	?Initialize@CWall@Client@@UEAAJPEAX@Z		; Client::CWall::Initialize
PUBLIC	?Tick@CWall@Client@@UEAAXN@Z			; Client::CWall::Tick
PUBLIC	?LateTick@CWall@Client@@UEAAXN@Z		; Client::CWall::LateTick
PUBLIC	?Render@CWall@Client@@UEAAJXZ			; Client::CWall::Render
PUBLIC	?RenderGUI@CWall@Client@@UEAAXXZ		; Client::CWall::RenderGUI
PUBLIC	?GetDepth@CWall@Client@@QEAAMXZ			; Client::CWall::GetDepth
PUBLIC	?GetPosition@CWall@Client@@QEAA?AT__m128@@XZ	; Client::CWall::GetPosition
PUBLIC	?GetNormal@CWall@Client@@QEAA?AT__m128@@T3@PEAM@Z ; Client::CWall::GetNormal
PUBLIC	?SetScale@CWall@Client@@QEAAXUXMFLOAT3@DirectX@@@Z ; Client::CWall::SetScale
PUBLIC	?SetRotation@CWall@Client@@QEAAXUXMFLOAT3@DirectX@@@Z ; Client::CWall::SetRotation
PUBLIC	?SetPosition@CWall@Client@@QEAAXUXMFLOAT3@DirectX@@@Z ; Client::CWall::SetPosition
PUBLIC	?AddComponents@CWall@Client@@AEAAJXZ		; Client::CWall::AddComponents
PUBLIC	?AddComponents_GamePlay@CWall@Client@@AEAAJXZ	; Client::CWall::AddComponents_GamePlay
PUBLIC	?Create@CWall@Client@@SAPEAV12@PEAUID3D11Device@@PEAUID3D11DeviceContext@@@Z ; Client::CWall::Create
PUBLIC	?Clone@CWall@Client@@UEAAPEAVCGameObject@Engine@@PEAX@Z ; Client::CWall::Clone
PUBLIC	?Free@CWall@Client@@UEAAXXZ			; Client::CWall::Free
PUBLIC	??0CWall@Client@@QEAA@AEBV01@@Z			; Client::CWall::CWall
PUBLIC	??_GCWall@Client@@MEAAPEAXI@Z			; Client::CWall::`scalar deleting destructor'
PUBLIC	??0tagColliderDesc@CCollider@Engine@@QEAA@XZ	; Engine::CCollider::tagColliderDesc::tagColliderDesc
PUBLIC	??$Safe_Release@PEAVCWall@Client@@@Engine@@YAKAEAPEAVCWall@Client@@@Z ; Engine::Safe_Release<Client::CWall * __ptr64>
PUBLIC	??$Safe_Release@PEAVCGameObject@Engine@@@Engine@@YAKAEAPEAVCGameObject@0@@Z ; Engine::Safe_Release<Engine::CGameObject * __ptr64>
PUBLIC	??$Safe_Release@PEAVCOBBCollider@Engine@@@Engine@@YAKAEAPEAVCOBBCollider@0@@Z ; Engine::Safe_Release<Engine::COBBCollider * __ptr64>
PUBLIC	??$Safe_Release@PEAVCTransform@Engine@@@Engine@@YAKAEAPEAVCTransform@0@@Z ; Engine::Safe_Release<Engine::CTransform * __ptr64>
PUBLIC	??_C@_1JE@DMOBBMDE@?$AAc?$AA?3?$AA?2?$AAp?$AAr?$AAo?$AAg?$AAr?$AAa?$AAm?$AA?5?$AAf?$AAi?$AAl?$AAe?$AAs?$AA?5?$AA?$CI?$AAx?$AA8?$AA6?$AA?$CJ?$AA?2?$AAw?$AAi?$AAn?$AAd?$AAo?$AAw?$AAs?$AA?5?$AAk@ ; `string'
PUBLIC	??_C@_1BA@LBADLIHI@?$AAp?$AAS?$AAo?$AAu?$AAr?$AAc?$AAe?$AA?$AA@ ; `string'
PUBLIC	?__LINE__Var@?0??XMLoadFloat3@DirectX@@YQ?AT__m128@@PEBUXMFLOAT3@2@@Z@4JA ; `DirectX::XMLoadFloat3'::`1'::__LINE__Var
PUBLIC	?__LINE__Var@?0??XMLoadFloat4x4@DirectX@@YQ?AUXMMATRIX@2@PEBUXMFLOAT4X4@2@@Z@4JA ; `DirectX::XMLoadFloat4x4'::`1'::__LINE__Var
PUBLIC	??_C@_1BK@FHLBGAOP@?$AAp?$AAD?$AAe?$AAs?$AAt?$AAi?$AAn?$AAa?$AAt?$AAi?$AAo?$AAn?$AA?$AA@ ; `string'
PUBLIC	?__LINE__Var@?0??XMStoreFloat3@DirectX@@YQXPEAUXMFLOAT3@2@T__m128@@@Z@4JA ; `DirectX::XMStoreFloat3'::`1'::__LINE__Var
PUBLIC	??_7CWall@Client@@6B@				; Client::CWall::`vftable'
PUBLIC	??_C@_1BM@CJMPMHDD@?$AAc?$AAo?$AAm?$AA_?$AAt?$AAr?$AAa?$AAn?$AAs?$AAf?$AAo?$AAr?$AAm?$AA?$AA@ ; `string'
PUBLIC	??_C@_1CI@MLEFGO@?$AAp?$AAr?$AAo?$AAt?$AAo?$AA_?$AAc?$AAo?$AAm?$AA_?$AAt?$AAr?$AAa?$AAn?$AAs?$AAf?$AAo?$AAr?$AAm?$AA?$AA@ ; `string'
PUBLIC	??_C@_1BK@BKCENIHA@?$AAc?$AAo?$AAm?$AA_?$AAc?$AAo?$AAl?$AAl?$AAi?$AAd?$AAe?$AAr?$AA?$AA@ ; `string'
PUBLIC	??_C@_1CO@HJBGOIAH@?$AAp?$AAr?$AAo?$AAt?$AAo?$AA_?$AAc?$AAo?$AAm?$AA_?$AAo?$AAb?$AAb?$AA_?$AAc?$AAo?$AAl?$AAl?$AAi?$AAd?$AAe?$AAr?$AA?$AA@ ; `string'
PUBLIC	?__LINE__Var@?0??Create@CWall@Client@@SAPEAV23@PEAUID3D11Device@@PEAUID3D11DeviceContext@@@Z@4JA ; `Client::CWall::Create'::`1'::__LINE__Var
PUBLIC	??_C@_0CM@EJHFMJKP@c?3?2github?2framework?2client?2priva@ ; `string'
PUBLIC	??_C@_1BA@HHOMBECE@?$AAM?$AAe?$AAs?$AAs?$AAa?$AAg?$AAe?$AA?$AA@ ; `string'
PUBLIC	??_C@_1DC@JOCBEIJM@?$AAF?$AAa?$AAi?$AAl?$AAe?$AAd?$AA?5?$AAt?$AAo?$AA?5?$AAC?$AAr?$AAe?$AAa?$AAt?$AAe?$AA?5?$AA?3?$AA?5?$AAC?$AAW?$AAa?$AAl?$AAl?$AA?$AA@ ; `string'
PUBLIC	?__LINE__Var@?0??Clone@CWall@Client@@UEAAPEAVCGameObject@Engine@@PEAX@Z@4JA ; `Client::CWall::Clone'::`1'::__LINE__Var
PUBLIC	??_C@_1DA@CPFACAON@?$AAF?$AAa?$AAi?$AAl?$AAe?$AAd?$AA?5?$AAt?$AAo?$AA?5?$AAC?$AAl?$AAo?$AAn?$AAe?$AA?5?$AA?3?$AA?5?$AAC?$AAW?$AAa?$AAl?$AAl?$AA?$AA@ ; `string'
PUBLIC	??_R4CWall@Client@@6B@				; Client::CWall::`RTTI Complete Object Locator'
PUBLIC	??_R0?AVCWall@Client@@@8			; Client::CWall `RTTI Type Descriptor'
PUBLIC	??_R3CWall@Client@@8				; Client::CWall::`RTTI Class Hierarchy Descriptor'
PUBLIC	??_R2CWall@Client@@8				; Client::CWall::`RTTI Base Class Array'
PUBLIC	??_R1A@?0A@EA@CWall@Client@@8			; Client::CWall::`RTTI Base Class Descriptor at (0,-1,0,64)'
PUBLIC	??_R1A@?0A@EA@CGameObject@Engine@@8		; Engine::CGameObject::`RTTI Base Class Descriptor at (0,-1,0,64)'
PUBLIC	??_R0?AVCGameObject@Engine@@@8			; Engine::CGameObject `RTTI Type Descriptor'
PUBLIC	??_R3CGameObject@Engine@@8			; Engine::CGameObject::`RTTI Class Hierarchy Descriptor'
PUBLIC	??_R2CGameObject@Engine@@8			; Engine::CGameObject::`RTTI Base Class Array'
PUBLIC	??_R1A@?0A@EA@CBase@Engine@@8			; Engine::CBase::`RTTI Base Class Descriptor at (0,-1,0,64)'
PUBLIC	??_R0?AVCBase@Engine@@@8			; Engine::CBase `RTTI Type Descriptor'
PUBLIC	??_R3CBase@Engine@@8				; Engine::CBase::`RTTI Class Hierarchy Descriptor'
PUBLIC	??_R2CBase@Engine@@8				; Engine::CBase::`RTTI Base Class Array'
PUBLIC	__real@3c8efa35
PUBLIC	__real@3f000000
PUBLIC	__real@3f800000
PUBLIC	__real@419c0000
PUBLIC	__real@41fc0000
PUBLIC	__real@42dc0000
PUBLIC	__real@7f7fffff
EXTRN	??3@YAXPEAX_K@Z:PROC				; operator delete
EXTRN	memcpy:PROC
EXTRN	memset:PROC
EXTRN	__imp_MessageBoxW:PROC
EXTRN	__imp__wassert:PROC
EXTRN	??2@YAPEAX_KHPEBDH@Z:PROC			; operator new
EXTRN	??3@YAXPEAXHPEBDH@Z:PROC			; operator delete
EXTRN	__imp_?Release@CBase@Engine@@QEAAKXZ:PROC
EXTRN	__imp_??0CGameObject@Engine@@IEAA@PEAUID3D11Device@@PEAUID3D11DeviceContext@@@Z:PROC
EXTRN	__imp_??0CGameObject@Engine@@IEAA@AEBV01@@Z:PROC
EXTRN	__imp_??1CGameObject@Engine@@MEAA@XZ:PROC
EXTRN	__imp_?Add_Component@CGameObject@Engine@@IEAAJIPEB_W0PEAPEAVCComponent@2@PEAX@Z:PROC
EXTRN	__imp_?Free@CGameObject@Engine@@UEAAXXZ:PROC
EXTRN	??_ECWall@Client@@MEAAPEAXI@Z:PROC		; Client::CWall::`vector deleting destructor'
EXTRN	__imp_?SetActive@CCollider@Engine@@QEAAX_N@Z:PROC
EXTRN	__imp_?SetVisible@CCollider@Engine@@QEAAX_N@Z:PROC
EXTRN	__imp_?Update@COBBCollider@Engine@@UEAAXUXMMATRIX@DirectX@@@Z:PROC
EXTRN	__imp_?Get_State@CTransform@Engine@@QEAA?AT__m128@@W4STATE@12@@Z:PROC
EXTRN	__imp_?Get_WorldMatrix@CTransform@Engine@@QEAA?AUXMFLOAT4X4@DirectX@@XZ:PROC
EXTRN	__imp_?Get_Scale@CTransform@Engine@@QEAA?AUXMFLOAT3@DirectX@@XZ:PROC
EXTRN	__imp_?Set_Scale@CTransform@Engine@@QEAAXUXMFLOAT3@DirectX@@@Z:PROC
EXTRN	__imp_?Set_State@CTransform@Engine@@QEAAXW4STATE@12@T__m128@@@Z:PROC
EXTRN	__imp_?SetRotationXYZ@CTransform@Engine@@QEAAXUXMFLOAT3@DirectX@@@Z:PROC
EXTRN	__imp_?GetInstance@CGameInstance@Engine@@SAPEAV12@XZ:PROC
EXTRN	__imp_?AddCollider@CGameInstance@Engine@@QEAAJPEAVCCollider@2@I@Z:PROC
EXTRN	?GetLengthFromCamera@CGameObject@Engine@@UEAAMXZ:PROC ; Engine::CGameObject::GetLengthFromCamera
EXTRN	_RTC_CheckStackVars:PROC
EXTRN	_RTC_InitBase:PROC
EXTRN	_RTC_Shutdown:PROC
EXTRN	_RTC_UninitUse:PROC
EXTRN	__CxxFrameHandler3:PROC
EXTRN	__GSHandlerCheck:PROC
EXTRN	__GSHandlerCheck_EH:PROC
EXTRN	__security_check_cookie:PROC
EXTRN	??_7type_info@@6B@:BYTE				; type_info::`vftable'
EXTRN	__security_cookie:QWORD
EXTRN	_fltused:DWORD
;	COMDAT pdata
pdata	SEGMENT
$pdata$??_H@YAXPEAX_K1P6APEAX0@Z@Z DD imagerel $LN7
	DD	imagerel $LN7+181
	DD	imagerel $unwind$??_H@YAXPEAX_K1P6APEAX0@Z@Z
pdata	ENDS
;	COMDAT pdata
pdata	SEGMENT
$pdata$?__empty_global_delete@@YAXPEAX@Z DD imagerel $LN3
	DD	imagerel $LN3+50
	DD	imagerel $unwind$?__empty_global_delete@@YAXPEAX@Z
pdata	ENDS
;	COMDAT pdata
pdata	SEGMENT
$pdata$?__empty_global_delete@@YAXPEAX_K@Z DD imagerel $LN3
	DD	imagerel $LN3+55
	DD	imagerel $unwind$?__empty_global_delete@@YAXPEAX_K@Z
pdata	ENDS
;	COMDAT pdata
pdata	SEGMENT
$pdata$?XMConvertToRadians@DirectX@@YAMM@Z DD imagerel $LN3
	DD	imagerel $LN3+61
	DD	imagerel $unwind$?XMConvertToRadians@DirectX@@YAMM@Z
pdata	ENDS
;	COMDAT pdata
pdata	SEGMENT
$pdata$??BXMVECTORI32@DirectX@@QEBA?AT__m128@@XZ DD imagerel $LN3
	DD	imagerel $LN3+82
	DD	imagerel $unwind$??BXMVECTORI32@DirectX@@QEBA?AT__m128@@XZ
pdata	ENDS
;	COMDAT pdata
pdata	SEGMENT
$pdata$??GDirectX@@YQ?AT__m128@@T1@@Z DD imagerel $LN3
	DD	imagerel $LN3+79
	DD	imagerel $unwind$??GDirectX@@YQ?AT__m128@@T1@@Z
pdata	ENDS
;	COMDAT pdata
pdata	SEGMENT
$pdata$??HDirectX@@YQ?AT__m128@@T1@0@Z DD imagerel $LN3
	DD	imagerel $LN3+99
	DD	imagerel $unwind$??HDirectX@@YQ?AT__m128@@T1@0@Z
pdata	ENDS
;	COMDAT pdata
pdata	SEGMENT
$pdata$??GDirectX@@YQ?AT__m128@@T1@0@Z DD imagerel $LN3
	DD	imagerel $LN3+99
	DD	imagerel $unwind$??GDirectX@@YQ?AT__m128@@T1@0@Z
pdata	ENDS
;	COMDAT pdata
pdata	SEGMENT
$pdata$??DDirectX@@YQ?AT__m128@@T1@M@Z DD imagerel $LN3
	DD	imagerel $LN3+92
	DD	imagerel $unwind$??DDirectX@@YQ?AT__m128@@T1@M@Z
pdata	ENDS
;	COMDAT pdata
pdata	SEGMENT
$pdata$??0XMMATRIX@DirectX@@QEAA@XZ DD imagerel $LN3
	DD	imagerel $LN3+57
	DD	imagerel $unwind$??0XMMATRIX@DirectX@@QEAA@XZ
pdata	ENDS
;	COMDAT pdata
pdata	SEGMENT
$pdata$??0XMFLOAT3@DirectX@@QEAA@XZ DD imagerel $LN3
	DD	imagerel $LN3+57
	DD	imagerel $unwind$??0XMFLOAT3@DirectX@@QEAA@XZ
pdata	ENDS
;	COMDAT pdata
pdata	SEGMENT
$pdata$??0XMFLOAT3@DirectX@@QEAA@MMM@Z DD imagerel $LN3
	DD	imagerel $LN3+134
	DD	imagerel $unwind$??0XMFLOAT3@DirectX@@QEAA@MMM@Z
pdata	ENDS
;	COMDAT pdata
pdata	SEGMENT
$pdata$??4XMFLOAT3@DirectX@@QEAAAEAU01@AEBU01@@Z DD imagerel $LN3
	DD	imagerel $LN3+132
	DD	imagerel $unwind$??4XMFLOAT3@DirectX@@QEAAAEAU01@AEBU01@@Z
pdata	ENDS
;	COMDAT pdata
pdata	SEGMENT
$pdata$?XMLoadFloat3@DirectX@@YQ?AT__m128@@PEBUXMFLOAT3@1@@Z DD imagerel $LN4
	DD	imagerel $LN4+277
	DD	imagerel $unwind$?XMLoadFloat3@DirectX@@YQ?AT__m128@@PEBUXMFLOAT3@1@@Z
pdata	ENDS
;	COMDAT pdata
pdata	SEGMENT
$pdata$?XMLoadFloat4x4@DirectX@@YQ?AUXMMATRIX@1@PEBUXMFLOAT4X4@1@@Z DD imagerel $LN4
	DD	imagerel $LN4+344
	DD	imagerel $unwind$?XMLoadFloat4x4@DirectX@@YQ?AUXMMATRIX@1@PEBUXMFLOAT4X4@1@@Z
pdata	ENDS
;	COMDAT pdata
pdata	SEGMENT
$pdata$?XMStoreFloat3@DirectX@@YQXPEAUXMFLOAT3@1@T__m128@@@Z DD imagerel $LN4
	DD	imagerel $LN4+218
	DD	imagerel $unwind$?XMStoreFloat3@DirectX@@YQXPEAUXMFLOAT3@1@T__m128@@@Z
pdata	ENDS
;	COMDAT pdata
pdata	SEGMENT
$pdata$?XMVectorSet@DirectX@@YQ?AT__m128@@MMMM@Z DD imagerel $LN3
	DD	imagerel $LN3+121
	DD	imagerel $unwind$?XMVectorSet@DirectX@@YQ?AT__m128@@MMMM@Z
pdata	ENDS
;	COMDAT pdata
pdata	SEGMENT
$pdata$?XMVectorGetX@DirectX@@YQMT__m128@@@Z DD imagerel $LN3
	DD	imagerel $LN3+76
	DD	imagerel $unwind$?XMVectorGetX@DirectX@@YQMT__m128@@@Z
pdata	ENDS
;	COMDAT pdata
pdata	SEGMENT
$pdata$?XMVectorSetY@DirectX@@YQ?AT__m128@@T2@M@Z DD imagerel $LN3
	DD	imagerel $LN3+185
	DD	imagerel $unwind$?XMVectorSetY@DirectX@@YQ?AT__m128@@T2@M@Z
pdata	ENDS
;	COMDAT pdata
pdata	SEGMENT
$pdata$?XMVectorNegate@DirectX@@YQ?AT__m128@@T2@@Z DD imagerel $LN3
	DD	imagerel $LN3+99
	DD	imagerel $unwind$?XMVectorNegate@DirectX@@YQ?AT__m128@@T2@@Z
pdata	ENDS
;	COMDAT pdata
pdata	SEGMENT
$pdata$?XMVectorAdd@DirectX@@YQ?AT__m128@@T2@0@Z DD imagerel $LN3
	DD	imagerel $LN3+94
	DD	imagerel $unwind$?XMVectorAdd@DirectX@@YQ?AT__m128@@T2@0@Z
pdata	ENDS
;	COMDAT pdata
pdata	SEGMENT
$pdata$?XMVectorSubtract@DirectX@@YQ?AT__m128@@T2@0@Z DD imagerel $LN3
	DD	imagerel $LN3+94
	DD	imagerel $unwind$?XMVectorSubtract@DirectX@@YQ?AT__m128@@T2@0@Z
pdata	ENDS
;	COMDAT pdata
pdata	SEGMENT
$pdata$?XMVectorScale@DirectX@@YQ?AT__m128@@T2@M@Z DD imagerel $LN3
	DD	imagerel $LN3+113
	DD	imagerel $unwind$?XMVectorScale@DirectX@@YQ?AT__m128@@T2@M@Z
pdata	ENDS
;	COMDAT pdata
pdata	SEGMENT
$pdata$?XMVector3Length@DirectX@@YQ?AT__m128@@T2@@Z DD imagerel $LN3
	DD	imagerel $LN3+243
	DD	imagerel $unwind$?XMVector3Length@DirectX@@YQ?AT__m128@@T2@@Z
pdata	ENDS
;	COMDAT pdata
pdata	SEGMENT
$pdata$?XMVector3Normalize@DirectX@@YQ?AT__m128@@T2@@Z DD imagerel $LN3
	DD	imagerel $LN3+535
	DD	imagerel $unwind$?XMVector3Normalize@DirectX@@YQ?AT__m128@@T2@@Z
pdata	ENDS
;	COMDAT pdata
pdata	SEGMENT
$pdata$??0tagCubeDesc@CWall@Client@@QEAA@XZ DD imagerel $LN3
	DD	imagerel $LN3+112
	DD	imagerel $unwind$??0tagCubeDesc@CWall@Client@@QEAA@XZ
pdata	ENDS
;	COMDAT pdata
pdata	SEGMENT
$pdata$??0CWall@Client@@IEAA@PEAUID3D11Device@@PEAUID3D11DeviceContext@@@Z DD imagerel $LN4
	DD	imagerel $LN4+235
	DD	imagerel $unwind$??0CWall@Client@@IEAA@PEAUID3D11Device@@PEAUID3D11DeviceContext@@@Z
pdata	ENDS
;	COMDAT pdata
pdata	SEGMENT
$pdata$?dtor$0@?0???0CWall@Client@@IEAA@PEAUID3D11Device@@PEAUID3D11DeviceContext@@@Z@4HA DD imagerel ?dtor$0@?0???0CWall@Client@@IEAA@PEAUID3D11Device@@PEAUID3D11DeviceContext@@@Z@4HA
	DD	imagerel ?dtor$0@?0???0CWall@Client@@IEAA@PEAUID3D11Device@@PEAUID3D11DeviceContext@@@Z@4HA+40
	DD	imagerel $unwind$?dtor$0@?0???0CWall@Client@@IEAA@PEAUID3D11Device@@PEAUID3D11DeviceContext@@@Z@4HA
pdata	ENDS
;	COMDAT pdata
pdata	SEGMENT
$pdata$??0CWall@Client@@IEAA@AEBVCGameObject@Engine@@@Z DD imagerel $LN4
	DD	imagerel $LN4+223
	DD	imagerel $unwind$??0CWall@Client@@IEAA@AEBVCGameObject@Engine@@@Z
pdata	ENDS
;	COMDAT pdata
pdata	SEGMENT
$pdata$?dtor$0@?0???0CWall@Client@@IEAA@AEBVCGameObject@Engine@@@Z@4HA DD imagerel ?dtor$0@?0???0CWall@Client@@IEAA@AEBVCGameObject@Engine@@@Z@4HA
	DD	imagerel ?dtor$0@?0???0CWall@Client@@IEAA@AEBVCGameObject@Engine@@@Z@4HA+40
	DD	imagerel $unwind$?dtor$0@?0???0CWall@Client@@IEAA@AEBVCGameObject@Engine@@@Z@4HA
pdata	ENDS
;	COMDAT pdata
pdata	SEGMENT
$pdata$??1CWall@Client@@MEAA@XZ DD imagerel $LN3
	DD	imagerel $LN3+65
	DD	imagerel $unwind$??1CWall@Client@@MEAA@XZ
pdata	ENDS
;	COMDAT pdata
pdata	SEGMENT
$pdata$?Initialize_Prototype@CWall@Client@@UEAAJXZ DD imagerel $LN3
	DD	imagerel $LN3+52
	DD	imagerel $unwind$?Initialize_Prototype@CWall@Client@@UEAAJXZ
pdata	ENDS
;	COMDAT pdata
pdata	SEGMENT
$pdata$?Initialize@CWall@Client@@UEAAJPEAX@Z DD imagerel $LN9
	DD	imagerel $LN9+1500
	DD	imagerel $unwind$?Initialize@CWall@Client@@UEAAJPEAX@Z
pdata	ENDS
;	COMDAT pdata
pdata	SEGMENT
$pdata$?Tick@CWall@Client@@UEAAXN@Z DD imagerel $LN3
	DD	imagerel $LN3+238
	DD	imagerel $unwind$?Tick@CWall@Client@@UEAAXN@Z
pdata	ENDS
;	COMDAT pdata
pdata	SEGMENT
$pdata$?LateTick@CWall@Client@@UEAAXN@Z DD imagerel $LN3
	DD	imagerel $LN3+56
	DD	imagerel $unwind$?LateTick@CWall@Client@@UEAAXN@Z
pdata	ENDS
;	COMDAT pdata
pdata	SEGMENT
$pdata$?Render@CWall@Client@@UEAAJXZ DD imagerel $LN3
	DD	imagerel $LN3+52
	DD	imagerel $unwind$?Render@CWall@Client@@UEAAJXZ
pdata	ENDS
;	COMDAT pdata
pdata	SEGMENT
$pdata$?RenderGUI@CWall@Client@@UEAAXXZ DD imagerel $LN3
	DD	imagerel $LN3+50
	DD	imagerel $unwind$?RenderGUI@CWall@Client@@UEAAXXZ
pdata	ENDS
;	COMDAT pdata
pdata	SEGMENT
$pdata$?GetDepth@CWall@Client@@QEAAMXZ DD imagerel $LN5
	DD	imagerel $LN5+99
	DD	imagerel $unwind$?GetDepth@CWall@Client@@QEAAMXZ
pdata	ENDS
;	COMDAT pdata
pdata	SEGMENT
$pdata$?GetPosition@CWall@Client@@QEAA?AT__m128@@XZ DD imagerel $LN5
	DD	imagerel $LN5+171
	DD	imagerel $unwind$?GetPosition@CWall@Client@@QEAA?AT__m128@@XZ
pdata	ENDS
;	COMDAT pdata
pdata	SEGMENT
$pdata$?GetNormal@CWall@Client@@QEAA?AT__m128@@T3@PEAM@Z DD imagerel $LN15
	DD	imagerel $LN15+691
	DD	imagerel $unwind$?GetNormal@CWall@Client@@QEAA?AT__m128@@T3@PEAM@Z
pdata	ENDS
;	COMDAT pdata
pdata	SEGMENT
$pdata$?SetScale@CWall@Client@@QEAAXUXMFLOAT3@DirectX@@@Z DD imagerel $LN3
	DD	imagerel $LN3+145
	DD	imagerel $unwind$?SetScale@CWall@Client@@QEAAXUXMFLOAT3@DirectX@@@Z
pdata	ENDS
;	COMDAT pdata
pdata	SEGMENT
$pdata$?SetRotation@CWall@Client@@QEAAXUXMFLOAT3@DirectX@@@Z DD imagerel $LN3
	DD	imagerel $LN3+145
	DD	imagerel $unwind$?SetRotation@CWall@Client@@QEAAXUXMFLOAT3@DirectX@@@Z
pdata	ENDS
;	COMDAT pdata
pdata	SEGMENT
$pdata$?SetPosition@CWall@Client@@QEAAXUXMFLOAT3@DirectX@@@Z DD imagerel $LN3
	DD	imagerel $LN3+159
	DD	imagerel $unwind$?SetPosition@CWall@Client@@QEAAXUXMFLOAT3@DirectX@@@Z
pdata	ENDS
;	COMDAT pdata
pdata	SEGMENT
$pdata$?AddComponents@CWall@Client@@AEAAJXZ DD imagerel $LN5
	DD	imagerel $LN5+551
	DD	imagerel $unwind$?AddComponents@CWall@Client@@AEAAJXZ
pdata	ENDS
;	COMDAT pdata
pdata	SEGMENT
$pdata$?AddComponents_GamePlay@CWall@Client@@AEAAJXZ DD imagerel $LN5
	DD	imagerel $LN5+551
	DD	imagerel $unwind$?AddComponents_GamePlay@CWall@Client@@AEAAJXZ
pdata	ENDS
;	COMDAT pdata
pdata	SEGMENT
$pdata$?Create@CWall@Client@@SAPEAV12@PEAUID3D11Device@@PEAUID3D11DeviceContext@@@Z DD imagerel $LN7
	DD	imagerel $LN7+294
	DD	imagerel $unwind$?Create@CWall@Client@@SAPEAV12@PEAUID3D11Device@@PEAUID3D11DeviceContext@@@Z
pdata	ENDS
;	COMDAT pdata
pdata	SEGMENT
$pdata$?dtor$0@?0??Create@CWall@Client@@SAPEAV12@PEAUID3D11Device@@PEAUID3D11DeviceContext@@@Z@4HA DD imagerel ?dtor$0@?0??Create@CWall@Client@@SAPEAV12@PEAUID3D11Device@@PEAUID3D11DeviceContext@@@Z@4HA
	DD	imagerel ?dtor$0@?0??Create@CWall@Client@@SAPEAV12@PEAUID3D11Device@@PEAUID3D11DeviceContext@@@Z@4HA+61
	DD	imagerel $unwind$?dtor$0@?0??Create@CWall@Client@@SAPEAV12@PEAUID3D11Device@@PEAUID3D11DeviceContext@@@Z@4HA
pdata	ENDS
;	COMDAT pdata
pdata	SEGMENT
$pdata$?Clone@CWall@Client@@UEAAPEAVCGameObject@Engine@@PEAX@Z DD imagerel $LN7
	DD	imagerel $LN7+299
	DD	imagerel $unwind$?Clone@CWall@Client@@UEAAPEAVCGameObject@Engine@@PEAX@Z
pdata	ENDS
;	COMDAT pdata
pdata	SEGMENT
$pdata$?dtor$0@?0??Clone@CWall@Client@@UEAAPEAVCGameObject@Engine@@PEAX@Z@4HA DD imagerel ?dtor$0@?0??Clone@CWall@Client@@UEAAPEAVCGameObject@Engine@@PEAX@Z@4HA
	DD	imagerel ?dtor$0@?0??Clone@CWall@Client@@UEAAPEAVCGameObject@Engine@@PEAX@Z@4HA+61
	DD	imagerel $unwind$?dtor$0@?0??Clone@CWall@Client@@UEAAPEAVCGameObject@Engine@@PEAX@Z@4HA
pdata	ENDS
;	COMDAT pdata
pdata	SEGMENT
$pdata$?Free@CWall@Client@@UEAAXXZ DD imagerel $LN3
	DD	imagerel $LN3+105
	DD	imagerel $unwind$?Free@CWall@Client@@UEAAXXZ
pdata	ENDS
;	COMDAT pdata
pdata	SEGMENT
$pdata$??0CWall@Client@@QEAA@AEBV01@@Z DD imagerel $LN4
	DD	imagerel $LN4+249
	DD	imagerel $unwind$??0CWall@Client@@QEAA@AEBV01@@Z
pdata	ENDS
;	COMDAT pdata
pdata	SEGMENT
$pdata$??_GCWall@Client@@MEAAPEAXI@Z DD imagerel $LN4
	DD	imagerel $LN4+105
	DD	imagerel $unwind$??_GCWall@Client@@MEAAPEAXI@Z
pdata	ENDS
;	COMDAT pdata
pdata	SEGMENT
$pdata$??0tagColliderDesc@CCollider@Engine@@QEAA@XZ DD imagerel $LN3
	DD	imagerel $LN3+116
	DD	imagerel $unwind$??0tagColliderDesc@CCollider@Engine@@QEAA@XZ
pdata	ENDS
;	COMDAT pdata
pdata	SEGMENT
$pdata$??$Safe_Release@PEAVCWall@Client@@@Engine@@YAKAEAPEAVCWall@Client@@@Z DD imagerel $LN5
	DD	imagerel $LN5+114
	DD	imagerel $unwind$??$Safe_Release@PEAVCWall@Client@@@Engine@@YAKAEAPEAVCWall@Client@@@Z
pdata	ENDS
;	COMDAT pdata
pdata	SEGMENT
$pdata$??$Safe_Release@PEAVCGameObject@Engine@@@Engine@@YAKAEAPEAVCGameObject@0@@Z DD imagerel $LN5
	DD	imagerel $LN5+114
	DD	imagerel $unwind$??$Safe_Release@PEAVCGameObject@Engine@@@Engine@@YAKAEAPEAVCGameObject@0@@Z
pdata	ENDS
;	COMDAT pdata
pdata	SEGMENT
$pdata$??$Safe_Release@PEAVCOBBCollider@Engine@@@Engine@@YAKAEAPEAVCOBBCollider@0@@Z DD imagerel $LN5
	DD	imagerel $LN5+114
	DD	imagerel $unwind$??$Safe_Release@PEAVCOBBCollider@Engine@@@Engine@@YAKAEAPEAVCOBBCollider@0@@Z
pdata	ENDS
;	COMDAT pdata
pdata	SEGMENT
$pdata$??$Safe_Release@PEAVCTransform@Engine@@@Engine@@YAKAEAPEAVCTransform@0@@Z DD imagerel $LN5
	DD	imagerel $LN5+114
	DD	imagerel $unwind$??$Safe_Release@PEAVCTransform@Engine@@@Engine@@YAKAEAPEAVCTransform@0@@Z
pdata	ENDS
;	COMDAT __real@7f7fffff
CONST	SEGMENT
__real@7f7fffff DD 07f7fffffr			; 3.40282e+38
CONST	ENDS
;	COMDAT __real@42dc0000
CONST	SEGMENT
__real@42dc0000 DD 042dc0000r			; 110
CONST	ENDS
;	COMDAT __real@41fc0000
CONST	SEGMENT
__real@41fc0000 DD 041fc0000r			; 31.5
CONST	ENDS
;	COMDAT __real@419c0000
CONST	SEGMENT
__real@419c0000 DD 0419c0000r			; 19.5
CONST	ENDS
;	COMDAT __real@3f800000
CONST	SEGMENT
__real@3f800000 DD 03f800000r			; 1
CONST	ENDS
;	COMDAT __real@3f000000
CONST	SEGMENT
__real@3f000000 DD 03f000000r			; 0.5
CONST	ENDS
;	COMDAT __real@3c8efa35
CONST	SEGMENT
__real@3c8efa35 DD 03c8efa35r			; 0.0174533
CONST	ENDS
;	COMDAT rtc$TMZ
rtc$TMZ	SEGMENT
_RTC_Shutdown.rtc$TMZ DQ FLAT:_RTC_Shutdown
rtc$TMZ	ENDS
;	COMDAT rtc$IMZ
rtc$IMZ	SEGMENT
_RTC_InitBase.rtc$IMZ DQ FLAT:_RTC_InitBase
rtc$IMZ	ENDS
;	COMDAT ??_R2CBase@Engine@@8
rdata$r	SEGMENT
??_R2CBase@Engine@@8 DD imagerel ??_R1A@?0A@EA@CBase@Engine@@8 ; Engine::CBase::`RTTI Base Class Array'
	ORG $+3
rdata$r	ENDS
;	COMDAT ??_R3CBase@Engine@@8
rdata$r	SEGMENT
??_R3CBase@Engine@@8 DD 00H				; Engine::CBase::`RTTI Class Hierarchy Descriptor'
	DD	00H
	DD	01H
	DD	imagerel ??_R2CBase@Engine@@8
rdata$r	ENDS
;	COMDAT ??_R0?AVCBase@Engine@@@8
data$r	SEGMENT
??_R0?AVCBase@Engine@@@8 DQ FLAT:??_7type_info@@6B@	; Engine::CBase `RTTI Type Descriptor'
	DQ	0000000000000000H
	DB	'.?AVCBase@Engine@@', 00H
data$r	ENDS
;	COMDAT ??_R1A@?0A@EA@CBase@Engine@@8
rdata$r	SEGMENT
??_R1A@?0A@EA@CBase@Engine@@8 DD imagerel ??_R0?AVCBase@Engine@@@8 ; Engine::CBase::`RTTI Base Class Descriptor at (0,-1,0,64)'
	DD	00H
	DD	00H
	DD	0ffffffffH
	DD	00H
	DD	040H
	DD	imagerel ??_R3CBase@Engine@@8
rdata$r	ENDS
;	COMDAT ??_R2CGameObject@Engine@@8
rdata$r	SEGMENT
??_R2CGameObject@Engine@@8 DD imagerel ??_R1A@?0A@EA@CGameObject@Engine@@8 ; Engine::CGameObject::`RTTI Base Class Array'
	DD	imagerel ??_R1A@?0A@EA@CBase@Engine@@8
	ORG $+3
rdata$r	ENDS
;	COMDAT ??_R3CGameObject@Engine@@8
rdata$r	SEGMENT
??_R3CGameObject@Engine@@8 DD 00H			; Engine::CGameObject::`RTTI Class Hierarchy Descriptor'
	DD	00H
	DD	02H
	DD	imagerel ??_R2CGameObject@Engine@@8
rdata$r	ENDS
;	COMDAT ??_R0?AVCGameObject@Engine@@@8
data$r	SEGMENT
??_R0?AVCGameObject@Engine@@@8 DQ FLAT:??_7type_info@@6B@ ; Engine::CGameObject `RTTI Type Descriptor'
	DQ	0000000000000000H
	DB	'.?AVCGameObject@Engine@@', 00H
data$r	ENDS
;	COMDAT ??_R1A@?0A@EA@CGameObject@Engine@@8
rdata$r	SEGMENT
??_R1A@?0A@EA@CGameObject@Engine@@8 DD imagerel ??_R0?AVCGameObject@Engine@@@8 ; Engine::CGameObject::`RTTI Base Class Descriptor at (0,-1,0,64)'
	DD	01H
	DD	00H
	DD	0ffffffffH
	DD	00H
	DD	040H
	DD	imagerel ??_R3CGameObject@Engine@@8
rdata$r	ENDS
;	COMDAT ??_R1A@?0A@EA@CWall@Client@@8
rdata$r	SEGMENT
??_R1A@?0A@EA@CWall@Client@@8 DD imagerel ??_R0?AVCWall@Client@@@8 ; Client::CWall::`RTTI Base Class Descriptor at (0,-1,0,64)'
	DD	02H
	DD	00H
	DD	0ffffffffH
	DD	00H
	DD	040H
	DD	imagerel ??_R3CWall@Client@@8
rdata$r	ENDS
;	COMDAT ??_R2CWall@Client@@8
rdata$r	SEGMENT
??_R2CWall@Client@@8 DD imagerel ??_R1A@?0A@EA@CWall@Client@@8 ; Client::CWall::`RTTI Base Class Array'
	DD	imagerel ??_R1A@?0A@EA@CGameObject@Engine@@8
	DD	imagerel ??_R1A@?0A@EA@CBase@Engine@@8
	ORG $+3
rdata$r	ENDS
;	COMDAT ??_R3CWall@Client@@8
rdata$r	SEGMENT
??_R3CWall@Client@@8 DD 00H				; Client::CWall::`RTTI Class Hierarchy Descriptor'
	DD	00H
	DD	03H
	DD	imagerel ??_R2CWall@Client@@8
rdata$r	ENDS
;	COMDAT ??_R0?AVCWall@Client@@@8
data$r	SEGMENT
??_R0?AVCWall@Client@@@8 DQ FLAT:??_7type_info@@6B@	; Client::CWall `RTTI Type Descriptor'
	DQ	0000000000000000H
	DB	'.?AVCWall@Client@@', 00H
data$r	ENDS
;	COMDAT ??_R4CWall@Client@@6B@
rdata$r	SEGMENT
??_R4CWall@Client@@6B@ DD 01H				; Client::CWall::`RTTI Complete Object Locator'
	DD	00H
	DD	00H
	DD	imagerel ??_R0?AVCWall@Client@@@8
	DD	imagerel ??_R3CWall@Client@@8
	DD	imagerel ??_R4CWall@Client@@6B@
rdata$r	ENDS
;	COMDAT ??_C@_1DA@CPFACAON@?$AAF?$AAa?$AAi?$AAl?$AAe?$AAd?$AA?5?$AAt?$AAo?$AA?5?$AAC?$AAl?$AAo?$AAn?$AAe?$AA?5?$AA?3?$AA?5?$AAC?$AAW?$AAa?$AAl?$AAl?$AA?$AA@
CONST	SEGMENT
??_C@_1DA@CPFACAON@?$AAF?$AAa?$AAi?$AAl?$AAe?$AAd?$AA?5?$AAt?$AAo?$AA?5?$AAC?$AAl?$AAo?$AAn?$AAe?$AA?5?$AA?3?$AA?5?$AAC?$AAW?$AAa?$AAl?$AAl?$AA?$AA@ DB 'F'
	DB	00H, 'a', 00H, 'i', 00H, 'l', 00H, 'e', 00H, 'd', 00H, ' ', 00H
	DB	't', 00H, 'o', 00H, ' ', 00H, 'C', 00H, 'l', 00H, 'o', 00H, 'n'
	DB	00H, 'e', 00H, ' ', 00H, ':', 00H, ' ', 00H, 'C', 00H, 'W', 00H
	DB	'a', 00H, 'l', 00H, 'l', 00H, 00H, 00H	; `string'
CONST	ENDS
;	COMDAT ?__LINE__Var@?0??Clone@CWall@Client@@UEAAPEAVCGameObject@Engine@@PEAX@Z@4JA
_DATA	SEGMENT
?__LINE__Var@?0??Clone@CWall@Client@@UEAAPEAVCGameObject@Engine@@PEAX@Z@4JA DD 0eeH ; `Client::CWall::Clone'::`1'::__LINE__Var
_DATA	ENDS
;	COMDAT ??_C@_1DC@JOCBEIJM@?$AAF?$AAa?$AAi?$AAl?$AAe?$AAd?$AA?5?$AAt?$AAo?$AA?5?$AAC?$AAr?$AAe?$AAa?$AAt?$AAe?$AA?5?$AA?3?$AA?5?$AAC?$AAW?$AAa?$AAl?$AAl?$AA?$AA@
CONST	SEGMENT
??_C@_1DC@JOCBEIJM@?$AAF?$AAa?$AAi?$AAl?$AAe?$AAd?$AA?5?$AAt?$AAo?$AA?5?$AAC?$AAr?$AAe?$AAa?$AAt?$AAe?$AA?5?$AA?3?$AA?5?$AAC?$AAW?$AAa?$AAl?$AAl?$AA?$AA@ DB 'F'
	DB	00H, 'a', 00H, 'i', 00H, 'l', 00H, 'e', 00H, 'd', 00H, ' ', 00H
	DB	't', 00H, 'o', 00H, ' ', 00H, 'C', 00H, 'r', 00H, 'e', 00H, 'a'
	DB	00H, 't', 00H, 'e', 00H, ' ', 00H, ':', 00H, ' ', 00H, 'C', 00H
	DB	'W', 00H, 'a', 00H, 'l', 00H, 'l', 00H, 00H, 00H ; `string'
CONST	ENDS
;	COMDAT ??_C@_1BA@HHOMBECE@?$AAM?$AAe?$AAs?$AAs?$AAa?$AAg?$AAe?$AA?$AA@
CONST	SEGMENT
??_C@_1BA@HHOMBECE@?$AAM?$AAe?$AAs?$AAs?$AAa?$AAg?$AAe?$AA?$AA@ DB 'M', 00H
	DB	'e', 00H, 's', 00H, 's', 00H, 'a', 00H, 'g', 00H, 'e', 00H, 00H
	DB	00H						; `string'
CONST	ENDS
;	COMDAT ??_C@_0CM@EJHFMJKP@c?3?2github?2framework?2client?2priva@
CONST	SEGMENT
??_C@_0CM@EJHFMJKP@c?3?2github?2framework?2client?2priva@ DB 'c:\github\f'
	DB	'ramework\client\private\wall.cpp', 00H	; `string'
CONST	ENDS
;	COMDAT ?__LINE__Var@?0??Create@CWall@Client@@SAPEAV23@PEAUID3D11Device@@PEAUID3D11DeviceContext@@@Z@4JA
_DATA	SEGMENT
?__LINE__Var@?0??Create@CWall@Client@@SAPEAV23@PEAUID3D11Device@@PEAUID3D11DeviceContext@@@Z@4JA DD 0e2H ; `Client::CWall::Create'::`1'::__LINE__Var
_DATA	ENDS
;	COMDAT ??_C@_1CO@HJBGOIAH@?$AAp?$AAr?$AAo?$AAt?$AAo?$AA_?$AAc?$AAo?$AAm?$AA_?$AAo?$AAb?$AAb?$AA_?$AAc?$AAo?$AAl?$AAl?$AAi?$AAd?$AAe?$AAr?$AA?$AA@
CONST	SEGMENT
??_C@_1CO@HJBGOIAH@?$AAp?$AAr?$AAo?$AAt?$AAo?$AA_?$AAc?$AAo?$AAm?$AA_?$AAo?$AAb?$AAb?$AA_?$AAc?$AAo?$AAl?$AAl?$AAi?$AAd?$AAe?$AAr?$AA?$AA@ DB 'p'
	DB	00H, 'r', 00H, 'o', 00H, 't', 00H, 'o', 00H, '_', 00H, 'c', 00H
	DB	'o', 00H, 'm', 00H, '_', 00H, 'o', 00H, 'b', 00H, 'b', 00H, '_'
	DB	00H, 'c', 00H, 'o', 00H, 'l', 00H, 'l', 00H, 'i', 00H, 'd', 00H
	DB	'e', 00H, 'r', 00H, 00H, 00H			; `string'
CONST	ENDS
;	COMDAT ??_C@_1BK@BKCENIHA@?$AAc?$AAo?$AAm?$AA_?$AAc?$AAo?$AAl?$AAl?$AAi?$AAd?$AAe?$AAr?$AA?$AA@
CONST	SEGMENT
??_C@_1BK@BKCENIHA@?$AAc?$AAo?$AAm?$AA_?$AAc?$AAo?$AAl?$AAl?$AAi?$AAd?$AAe?$AAr?$AA?$AA@ DB 'c'
	DB	00H, 'o', 00H, 'm', 00H, '_', 00H, 'c', 00H, 'o', 00H, 'l', 00H
	DB	'l', 00H, 'i', 00H, 'd', 00H, 'e', 00H, 'r', 00H, 00H, 00H ; `string'
CONST	ENDS
;	COMDAT ??_C@_1CI@MLEFGO@?$AAp?$AAr?$AAo?$AAt?$AAo?$AA_?$AAc?$AAo?$AAm?$AA_?$AAt?$AAr?$AAa?$AAn?$AAs?$AAf?$AAo?$AAr?$AAm?$AA?$AA@
CONST	SEGMENT
??_C@_1CI@MLEFGO@?$AAp?$AAr?$AAo?$AAt?$AAo?$AA_?$AAc?$AAo?$AAm?$AA_?$AAt?$AAr?$AAa?$AAn?$AAs?$AAf?$AAo?$AAr?$AAm?$AA?$AA@ DB 'p'
	DB	00H, 'r', 00H, 'o', 00H, 't', 00H, 'o', 00H, '_', 00H, 'c', 00H
	DB	'o', 00H, 'm', 00H, '_', 00H, 't', 00H, 'r', 00H, 'a', 00H, 'n'
	DB	00H, 's', 00H, 'f', 00H, 'o', 00H, 'r', 00H, 'm', 00H, 00H, 00H ; `string'
CONST	ENDS
;	COMDAT ??_C@_1BM@CJMPMHDD@?$AAc?$AAo?$AAm?$AA_?$AAt?$AAr?$AAa?$AAn?$AAs?$AAf?$AAo?$AAr?$AAm?$AA?$AA@
CONST	SEGMENT
??_C@_1BM@CJMPMHDD@?$AAc?$AAo?$AAm?$AA_?$AAt?$AAr?$AAa?$AAn?$AAs?$AAf?$AAo?$AAr?$AAm?$AA?$AA@ DB 'c'
	DB	00H, 'o', 00H, 'm', 00H, '_', 00H, 't', 00H, 'r', 00H, 'a', 00H
	DB	'n', 00H, 's', 00H, 'f', 00H, 'o', 00H, 'r', 00H, 'm', 00H, 00H
	DB	00H						; `string'
CONST	ENDS
;	COMDAT ??_7CWall@Client@@6B@
CONST	SEGMENT
??_7CWall@Client@@6B@ DQ FLAT:??_R4CWall@Client@@6B@	; Client::CWall::`vftable'
	DQ	FLAT:??_ECWall@Client@@MEAAPEAXI@Z
	DQ	FLAT:?Free@CWall@Client@@UEAAXXZ
	DQ	FLAT:?Initialize_Prototype@CWall@Client@@UEAAJXZ
	DQ	FLAT:?Initialize@CWall@Client@@UEAAJPEAX@Z
	DQ	FLAT:?Tick@CWall@Client@@UEAAXN@Z
	DQ	FLAT:?LateTick@CWall@Client@@UEAAXN@Z
	DQ	FLAT:?Render@CWall@Client@@UEAAJXZ
	DQ	FLAT:?RenderGUI@CWall@Client@@UEAAXXZ
	DQ	FLAT:?GetLengthFromCamera@CGameObject@Engine@@UEAAMXZ
	DQ	FLAT:?Clone@CWall@Client@@UEAAPEAVCGameObject@Engine@@PEAX@Z
CONST	ENDS
;	COMDAT ?__LINE__Var@?0??XMStoreFloat3@DirectX@@YQXPEAUXMFLOAT3@2@T__m128@@@Z@4JA
_DATA	SEGMENT
?__LINE__Var@?0??XMStoreFloat3@DirectX@@YQXPEAUXMFLOAT3@2@T__m128@@@Z@4JA DD 0553H ; `DirectX::XMStoreFloat3'::`1'::__LINE__Var
_DATA	ENDS
;	COMDAT ??_C@_1BK@FHLBGAOP@?$AAp?$AAD?$AAe?$AAs?$AAt?$AAi?$AAn?$AAa?$AAt?$AAi?$AAo?$AAn?$AA?$AA@
CONST	SEGMENT
??_C@_1BK@FHLBGAOP@?$AAp?$AAD?$AAe?$AAs?$AAt?$AAi?$AAn?$AAa?$AAt?$AAi?$AAo?$AAn?$AA?$AA@ DB 'p'
	DB	00H, 'D', 00H, 'e', 00H, 's', 00H, 't', 00H, 'i', 00H, 'n', 00H
	DB	'a', 00H, 't', 00H, 'i', 00H, 'o', 00H, 'n', 00H, 00H, 00H ; `string'
CONST	ENDS
;	COMDAT ?__LINE__Var@?0??XMLoadFloat4x4@DirectX@@YQ?AUXMMATRIX@2@PEBUXMFLOAT4X4@2@@Z@4JA
_DATA	SEGMENT
?__LINE__Var@?0??XMLoadFloat4x4@DirectX@@YQ?AUXMMATRIX@2@PEBUXMFLOAT4X4@2@@Z@4JA DD 03f5H ; `DirectX::XMLoadFloat4x4'::`1'::__LINE__Var
_DATA	ENDS
;	COMDAT ?__LINE__Var@?0??XMLoadFloat3@DirectX@@YQ?AT__m128@@PEBUXMFLOAT3@2@@Z@4JA
_DATA	SEGMENT
?__LINE__Var@?0??XMLoadFloat3@DirectX@@YQ?AT__m128@@PEBUXMFLOAT3@2@@Z@4JA DD 01f3H ; `DirectX::XMLoadFloat3'::`1'::__LINE__Var
_DATA	ENDS
;	COMDAT ??_C@_1BA@LBADLIHI@?$AAp?$AAS?$AAo?$AAu?$AAr?$AAc?$AAe?$AA?$AA@
CONST	SEGMENT
??_C@_1BA@LBADLIHI@?$AAp?$AAS?$AAo?$AAu?$AAr?$AAc?$AAe?$AA?$AA@ DB 'p', 00H
	DB	'S', 00H, 'o', 00H, 'u', 00H, 'r', 00H, 'c', 00H, 'e', 00H, 00H
	DB	00H						; `string'
CONST	ENDS
;	COMDAT ??_C@_1JE@DMOBBMDE@?$AAc?$AA?3?$AA?2?$AAp?$AAr?$AAo?$AAg?$AAr?$AAa?$AAm?$AA?5?$AAf?$AAi?$AAl?$AAe?$AAs?$AA?5?$AA?$CI?$AAx?$AA8?$AA6?$AA?$CJ?$AA?2?$AAw?$AAi?$AAn?$AAd?$AAo?$AAw?$AAs?$AA?5?$AAk@
CONST	SEGMENT
??_C@_1JE@DMOBBMDE@?$AAc?$AA?3?$AA?2?$AAp?$AAr?$AAo?$AAg?$AAr?$AAa?$AAm?$AA?5?$AAf?$AAi?$AAl?$AAe?$AAs?$AA?5?$AA?$CI?$AAx?$AA8?$AA6?$AA?$CJ?$AA?2?$AAw?$AAi?$AAn?$AAd?$AAo?$AAw?$AAs?$AA?5?$AAk@ DB 'c'
	DB	00H, ':', 00H, '\', 00H, 'p', 00H, 'r', 00H, 'o', 00H, 'g', 00H
	DB	'r', 00H, 'a', 00H, 'm', 00H, ' ', 00H, 'f', 00H, 'i', 00H, 'l'
	DB	00H, 'e', 00H, 's', 00H, ' ', 00H, '(', 00H, 'x', 00H, '8', 00H
	DB	'6', 00H, ')', 00H, '\', 00H, 'w', 00H, 'i', 00H, 'n', 00H, 'd'
	DB	00H, 'o', 00H, 'w', 00H, 's', 00H, ' ', 00H, 'k', 00H, 'i', 00H
	DB	't', 00H, 's', 00H, '\', 00H, '8', 00H, '.', 00H, '1', 00H, '\'
	DB	00H, 'i', 00H, 'n', 00H, 'c', 00H, 'l', 00H, 'u', 00H, 'd', 00H
	DB	'e', 00H, '\', 00H, 'u', 00H, 'm', 00H, '\', 00H, 'd', 00H, 'i'
	DB	00H, 'r', 00H, 'e', 00H, 'c', 00H, 't', 00H, 'x', 00H, 'm', 00H
	DB	'a', 00H, 't', 00H, 'h', 00H, 'c', 00H, 'o', 00H, 'n', 00H, 'v'
	DB	00H, 'e', 00H, 'r', 00H, 't', 00H, '.', 00H, 'i', 00H, 'n', 00H
	DB	'l', 00H, 00H, 00H				; `string'
CONST	ENDS
;	COMDAT xdata
xdata	SEGMENT
$unwind$??$Safe_Release@PEAVCTransform@Engine@@@Engine@@YAKAEAPEAVCTransform@0@@Z DD 025052a01H
	DD	010e2313H
	DD	070070021H
	DD	05006H
xdata	ENDS
;	COMDAT xdata
xdata	SEGMENT
$unwind$??$Safe_Release@PEAVCOBBCollider@Engine@@@Engine@@YAKAEAPEAVCOBBCollider@0@@Z DD 025052a01H
	DD	010e2313H
	DD	070070021H
	DD	05006H
xdata	ENDS
;	COMDAT xdata
xdata	SEGMENT
$unwind$??$Safe_Release@PEAVCGameObject@Engine@@@Engine@@YAKAEAPEAVCGameObject@0@@Z DD 025052a01H
	DD	010e2313H
	DD	070070021H
	DD	05006H
xdata	ENDS
;	COMDAT xdata
xdata	SEGMENT
$unwind$??$Safe_Release@PEAVCWall@Client@@@Engine@@YAKAEAPEAVCWall@Client@@@Z DD 025052a01H
	DD	010e2313H
	DD	070070021H
	DD	05006H
xdata	ENDS
;	COMDAT xdata
xdata	SEGMENT
$unwind$??0tagColliderDesc@CCollider@Engine@@QEAA@XZ DD 025052a01H
	DD	010e2313H
	DD	07007001dH
	DD	05006H
xdata	ENDS
;	COMDAT xdata
xdata	SEGMENT
$unwind$??_GCWall@Client@@MEAAPEAXI@Z DD 025052e01H
	DD	01122317H
	DD	0700b001dH
	DD	0500aH
xdata	ENDS
;	COMDAT xdata
xdata	SEGMENT
$unwind$??0CWall@Client@@QEAA@AEBV01@@Z DD 025063001H
	DD	01142319H
	DD	0700d001cH
	DD	0500b600cH
xdata	ENDS
;	COMDAT xdata
xdata	SEGMENT
$unwind$?Free@CWall@Client@@UEAAXXZ DD 025052a01H
	DD	010e2313H
	DD	07007001dH
	DD	05006H
xdata	ENDS
;	COMDAT xdata
xdata	SEGMENT
$unwind$?dtor$0@?0??Clone@CWall@Client@@UEAAPEAVCGameObject@Engine@@PEAX@Z@4HA DD 031001H
	DD	0700c4210H
	DD	0500bH
xdata	ENDS
;	COMDAT xdata
xdata	SEGMENT
$ip2state$?Clone@CWall@Client@@UEAAPEAVCGameObject@Engine@@PEAX@Z DD imagerel ?Clone@CWall@Client@@UEAAPEAVCGameObject@Engine@@PEAX@Z
	DD	0ffffffffH
	DD	imagerel ?Clone@CWall@Client@@UEAAPEAVCGameObject@Engine@@PEAX@Z+115
	DD	00H
	DD	imagerel ?Clone@CWall@Client@@UEAAPEAVCGameObject@Engine@@PEAX@Z+178
	DD	0ffffffffH
xdata	ENDS
;	COMDAT xdata
xdata	SEGMENT
$stateUnwindMap$?Clone@CWall@Client@@UEAAPEAVCGameObject@Engine@@PEAX@Z DD 0ffffffffH
	DD	imagerel ?dtor$0@?0??Clone@CWall@Client@@UEAAPEAVCGameObject@Engine@@PEAX@Z@4HA
xdata	ENDS
;	COMDAT xdata
xdata	SEGMENT
$unwind$?Clone@CWall@Client@@UEAAPEAVCGameObject@Engine@@PEAX@Z DD 025054b19H
	DD	01132318H
	DD	0700c002fH
	DD	0500bH
	DD	imagerel __GSHandlerCheck_EH
	DD	imagerel $cppxdata$?Clone@CWall@Client@@UEAAPEAVCGameObject@Engine@@PEAX@Z
	DD	0162H
xdata	ENDS
;	COMDAT CONST
CONST	SEGMENT
?Clone@CWall@Client@@UEAAPEAVCGameObject@Engine@@PEAX@Z$rtcName$0 DB 070H ; Client::CWall::Clone
	DB	049H
	DB	06eH
	DB	073H
	DB	074H
	DB	061H
	DB	06eH
	DB	063H
	DB	065H
	DB	00H
	ORG $+6
?Clone@CWall@Client@@UEAAPEAVCGameObject@Engine@@PEAX@Z$rtcVarDesc DD 028H ; Client::CWall::Clone
	DD	08H
	DQ	FLAT:?Clone@CWall@Client@@UEAAPEAVCGameObject@Engine@@PEAX@Z$rtcName$0
	ORG $+48
?Clone@CWall@Client@@UEAAPEAVCGameObject@Engine@@PEAX@Z$rtcFrameData DD 01H ; Client::CWall::Clone
	DD	00H
	DQ	FLAT:?Clone@CWall@Client@@UEAAPEAVCGameObject@Engine@@PEAX@Z$rtcVarDesc
$cppxdata$?Clone@CWall@Client@@UEAAPEAVCGameObject@Engine@@PEAX@Z DD 019930522H
	DD	01H
	DD	imagerel $stateUnwindMap$?Clone@CWall@Client@@UEAAPEAVCGameObject@Engine@@PEAX@Z
	DD	00H
	DD	00H
	DD	03H
	DD	imagerel $ip2state$?Clone@CWall@Client@@UEAAPEAVCGameObject@Engine@@PEAX@Z
	DD	0148H
	DD	00H
	DD	01H
CONST	ENDS
;	COMDAT xdata
xdata	SEGMENT
$unwind$?dtor$0@?0??Create@CWall@Client@@SAPEAV12@PEAUID3D11Device@@PEAUID3D11DeviceContext@@@Z@4HA DD 031001H
	DD	0700c4210H
	DD	0500bH
xdata	ENDS
;	COMDAT xdata
xdata	SEGMENT
$ip2state$?Create@CWall@Client@@SAPEAV12@PEAUID3D11Device@@PEAUID3D11DeviceContext@@@Z DD imagerel ?Create@CWall@Client@@SAPEAV12@PEAUID3D11Device@@PEAUID3D11DeviceContext@@@Z
	DD	0ffffffffH
	DD	imagerel ?Create@CWall@Client@@SAPEAV12@PEAUID3D11Device@@PEAUID3D11DeviceContext@@@Z+115
	DD	00H
	DD	imagerel ?Create@CWall@Client@@SAPEAV12@PEAUID3D11Device@@PEAUID3D11DeviceContext@@@Z+185
	DD	0ffffffffH
xdata	ENDS
;	COMDAT xdata
xdata	SEGMENT
$stateUnwindMap$?Create@CWall@Client@@SAPEAV12@PEAUID3D11Device@@PEAUID3D11DeviceContext@@@Z DD 0ffffffffH
	DD	imagerel ?dtor$0@?0??Create@CWall@Client@@SAPEAV12@PEAUID3D11Device@@PEAUID3D11DeviceContext@@@Z@4HA
xdata	ENDS
;	COMDAT xdata
xdata	SEGMENT
$unwind$?Create@CWall@Client@@SAPEAV12@PEAUID3D11Device@@PEAUID3D11DeviceContext@@@Z DD 025054b19H
	DD	01132318H
	DD	0700c002fH
	DD	0500bH
	DD	imagerel __GSHandlerCheck_EH
	DD	imagerel $cppxdata$?Create@CWall@Client@@SAPEAV12@PEAUID3D11Device@@PEAUID3D11DeviceContext@@@Z
	DD	0162H
xdata	ENDS
;	COMDAT CONST
CONST	SEGMENT
?Create@CWall@Client@@SAPEAV12@PEAUID3D11Device@@PEAUID3D11DeviceContext@@@Z$rtcName$0 DB 070H ; Client::CWall::Create
	DB	049H
	DB	06eH
	DB	073H
	DB	074H
	DB	061H
	DB	06eH
	DB	063H
	DB	065H
	DB	00H
	ORG $+6
?Create@CWall@Client@@SAPEAV12@PEAUID3D11Device@@PEAUID3D11DeviceContext@@@Z$rtcVarDesc DD 028H ; Client::CWall::Create
	DD	08H
	DQ	FLAT:?Create@CWall@Client@@SAPEAV12@PEAUID3D11Device@@PEAUID3D11DeviceContext@@@Z$rtcName$0
	ORG $+48
?Create@CWall@Client@@SAPEAV12@PEAUID3D11Device@@PEAUID3D11DeviceContext@@@Z$rtcFrameData DD 01H ; Client::CWall::Create
	DD	00H
	DQ	FLAT:?Create@CWall@Client@@SAPEAV12@PEAUID3D11Device@@PEAUID3D11DeviceContext@@@Z$rtcVarDesc
$cppxdata$?Create@CWall@Client@@SAPEAV12@PEAUID3D11Device@@PEAUID3D11DeviceContext@@@Z DD 019930522H
	DD	01H
	DD	imagerel $stateUnwindMap$?Create@CWall@Client@@SAPEAV12@PEAUID3D11Device@@PEAUID3D11DeviceContext@@@Z
	DD	00H
	DD	00H
	DD	03H
	DD	imagerel $ip2state$?Create@CWall@Client@@SAPEAV12@PEAUID3D11Device@@PEAUID3D11DeviceContext@@@Z
	DD	0148H
	DD	00H
	DD	01H
CONST	ENDS
;	COMDAT xdata
xdata	SEGMENT
$unwind$?AddComponents_GamePlay@CWall@Client@@AEAAJXZ DD 035053b19H
	DD	010e3313H
	DD	070070049H
	DD	05006H
	DD	imagerel __GSHandlerCheck
	DD	0238H
xdata	ENDS
;	COMDAT CONST
CONST	SEGMENT
?AddComponents_GamePlay@CWall@Client@@AEAAJXZ$rtcName$0 DB 054H ; Client::CWall::AddComponents_GamePlay
	DB	072H
	DB	061H
	DB	06eH
	DB	073H
	DB	066H
	DB	06fH
	DB	072H
	DB	06dH
	DB	044H
	DB	065H
	DB	073H
	DB	063H
	DB	00H
	ORG $+2
?AddComponents_GamePlay@CWall@Client@@AEAAJXZ$rtcName$1 DB 063H ; Client::CWall::AddComponents_GamePlay
	DB	06fH
	DB	06cH
	DB	06cH
	DB	044H
	DB	065H
	DB	073H
	DB	063H
	DB	00H
	ORG $+7
?AddComponents_GamePlay@CWall@Client@@AEAAJXZ$rtcVarDesc DD 078H ; Client::CWall::AddComponents_GamePlay
	DD	030H
	DQ	FLAT:?AddComponents_GamePlay@CWall@Client@@AEAAJXZ$rtcName$1
	DD	058H
	DD	08H
	DQ	FLAT:?AddComponents_GamePlay@CWall@Client@@AEAAJXZ$rtcName$0
	ORG $+96
?AddComponents_GamePlay@CWall@Client@@AEAAJXZ$rtcFrameData DD 02H ; Client::CWall::AddComponents_GamePlay
	DD	00H
	DQ	FLAT:?AddComponents_GamePlay@CWall@Client@@AEAAJXZ$rtcVarDesc
CONST	ENDS
;	COMDAT xdata
xdata	SEGMENT
$unwind$?AddComponents@CWall@Client@@AEAAJXZ DD 035053b19H
	DD	010e3313H
	DD	070070049H
	DD	05006H
	DD	imagerel __GSHandlerCheck
	DD	0238H
xdata	ENDS
;	COMDAT CONST
CONST	SEGMENT
?AddComponents@CWall@Client@@AEAAJXZ$rtcName$0 DB 054H	; Client::CWall::AddComponents
	DB	072H
	DB	061H
	DB	06eH
	DB	073H
	DB	066H
	DB	06fH
	DB	072H
	DB	06dH
	DB	044H
	DB	065H
	DB	073H
	DB	063H
	DB	00H
	ORG $+2
?AddComponents@CWall@Client@@AEAAJXZ$rtcName$1 DB 063H	; Client::CWall::AddComponents
	DB	06fH
	DB	06cH
	DB	06cH
	DB	044H
	DB	065H
	DB	073H
	DB	063H
	DB	00H
	ORG $+7
?AddComponents@CWall@Client@@AEAAJXZ$rtcVarDesc DD 078H	; Client::CWall::AddComponents
	DD	030H
	DQ	FLAT:?AddComponents@CWall@Client@@AEAAJXZ$rtcName$1
	DD	058H
	DD	08H
	DQ	FLAT:?AddComponents@CWall@Client@@AEAAJXZ$rtcName$0
	ORG $+96
?AddComponents@CWall@Client@@AEAAJXZ$rtcFrameData DD 02H ; Client::CWall::AddComponents
	DD	00H
	DQ	FLAT:?AddComponents@CWall@Client@@AEAAJXZ$rtcVarDesc
CONST	ENDS
;	COMDAT xdata
xdata	SEGMENT
$unwind$?SetPosition@CWall@Client@@QEAAXUXMFLOAT3@DirectX@@@Z DD 025052f01H
	DD	01132318H
	DD	0700c0029H
	DD	0500bH
xdata	ENDS
;	COMDAT xdata
xdata	SEGMENT
$unwind$?SetRotation@CWall@Client@@QEAAXUXMFLOAT3@DirectX@@@Z DD 025063001H
	DD	01142319H
	DD	0700d0022H
	DD	0500b600cH
xdata	ENDS
;	COMDAT xdata
xdata	SEGMENT
$unwind$?SetScale@CWall@Client@@QEAAXUXMFLOAT3@DirectX@@@Z DD 025063001H
	DD	01142319H
	DD	0700d0022H
	DD	0500b600cH
xdata	ENDS
;	COMDAT xdata
xdata	SEGMENT
$unwind$?GetNormal@CWall@Client@@QEAA?AT__m128@@T3@PEAM@Z DD 025053901H
	DD	011d2322H
	DD	070160093H
	DD	05015H
xdata	ENDS
;	COMDAT CONST
CONST	SEGMENT
?GetNormal@CWall@Client@@QEAA?AT__m128@@T3@PEAM@Z$rtcName$0 DB 076H ; Client::CWall::GetNormal
	DB	04eH
	DB	06fH
	DB	072H
	DB	06dH
	DB	061H
	DB	06cH
	DB	00H
CONST	ENDS
;	COMDAT xdata
xdata	SEGMENT
$unwind$?GetPosition@CWall@Client@@QEAA?AT__m128@@XZ DD 025052f01H
	DD	01132318H
	DD	0700c0023H
	DD	0500bH
xdata	ENDS
;	COMDAT xdata
xdata	SEGMENT
$unwind$?GetDepth@CWall@Client@@QEAAMXZ DD 015052a01H
	DD	010e1313H
	DD	07007001bH
	DD	05006H
xdata	ENDS
;	COMDAT xdata
xdata	SEGMENT
$unwind$?RenderGUI@CWall@Client@@UEAAXXZ DD 05052801H
	DD	010e0311H
	DD	070070019H
	DD	05006H
xdata	ENDS
;	COMDAT xdata
xdata	SEGMENT
$unwind$?Render@CWall@Client@@UEAAJXZ DD 05052801H
	DD	010e0311H
	DD	070070019H
	DD	05006H
xdata	ENDS
;	COMDAT xdata
xdata	SEGMENT
$unwind$?LateTick@CWall@Client@@UEAAXN@Z DD 05052e01H
	DD	01140317H
	DD	0700d0019H
	DD	0500cH
xdata	ENDS
;	COMDAT xdata
xdata	SEGMENT
$unwind$?Tick@CWall@Client@@UEAAXN@Z DD 025063101H
	DD	0115231aH
	DD	0700e0050H
	DD	0500c600dH
xdata	ENDS
;	COMDAT xdata
xdata	SEGMENT
$unwind$?Initialize@CWall@Client@@UEAAJPEAX@Z DD 025063001H
	DD	01142319H
	DD	0700d00e6H
	DD	0500b600cH
xdata	ENDS
;	COMDAT xdata
xdata	SEGMENT
$unwind$?Initialize_Prototype@CWall@Client@@UEAAJXZ DD 05052801H
	DD	010e0311H
	DD	070070019H
	DD	05006H
xdata	ENDS
;	COMDAT xdata
xdata	SEGMENT
$unwind$??1CWall@Client@@MEAA@XZ DD 025052a01H
	DD	010e2313H
	DD	07007001dH
	DD	05006H
xdata	ENDS
;	COMDAT xdata
xdata	SEGMENT
$unwind$?dtor$0@?0???0CWall@Client@@IEAA@AEBVCGameObject@Engine@@@Z@4HA DD 031001H
	DD	0700c4210H
	DD	0500bH
xdata	ENDS
;	COMDAT xdata
xdata	SEGMENT
$ip2state$??0CWall@Client@@IEAA@AEBVCGameObject@Engine@@@Z DD imagerel ??0CWall@Client@@IEAA@AEBVCGameObject@Engine@@@Z
	DD	0ffffffffH
	DD	imagerel ??0CWall@Client@@IEAA@AEBVCGameObject@Engine@@@Z+79
	DD	00H
	DD	imagerel ??0CWall@Client@@IEAA@AEBVCGameObject@Engine@@@Z+206
	DD	0ffffffffH
xdata	ENDS
;	COMDAT xdata
xdata	SEGMENT
$stateUnwindMap$??0CWall@Client@@IEAA@AEBVCGameObject@Engine@@@Z DD 0ffffffffH
	DD	imagerel ?dtor$0@?0???0CWall@Client@@IEAA@AEBVCGameObject@Engine@@@Z@4HA
xdata	ENDS
;	COMDAT CONST
CONST	SEGMENT
$cppxdata$??0CWall@Client@@IEAA@AEBVCGameObject@Engine@@@Z DD 019930522H
	DD	01H
	DD	imagerel $stateUnwindMap$??0CWall@Client@@IEAA@AEBVCGameObject@Engine@@@Z
	DD	00H
	DD	00H
	DD	03H
	DD	imagerel $ip2state$??0CWall@Client@@IEAA@AEBVCGameObject@Engine@@@Z
	DD	0e8H
	DD	00H
	DD	01H
CONST	ENDS
;	COMDAT xdata
xdata	SEGMENT
$unwind$??0CWall@Client@@IEAA@AEBVCGameObject@Engine@@@Z DD 025053a11H
	DD	01132318H
	DD	0700c0021H
	DD	0500bH
	DD	imagerel __CxxFrameHandler3
	DD	imagerel $cppxdata$??0CWall@Client@@IEAA@AEBVCGameObject@Engine@@@Z
xdata	ENDS
;	COMDAT xdata
xdata	SEGMENT
$unwind$?dtor$0@?0???0CWall@Client@@IEAA@PEAUID3D11Device@@PEAUID3D11DeviceContext@@@Z@4HA DD 031001H
	DD	0700c4210H
	DD	0500bH
xdata	ENDS
;	COMDAT xdata
xdata	SEGMENT
$ip2state$??0CWall@Client@@IEAA@PEAUID3D11Device@@PEAUID3D11DeviceContext@@@Z DD imagerel ??0CWall@Client@@IEAA@PEAUID3D11Device@@PEAUID3D11DeviceContext@@@Z
	DD	0ffffffffH
	DD	imagerel ??0CWall@Client@@IEAA@PEAUID3D11Device@@PEAUID3D11DeviceContext@@@Z+91
	DD	00H
	DD	imagerel ??0CWall@Client@@IEAA@PEAUID3D11Device@@PEAUID3D11DeviceContext@@@Z+218
	DD	0ffffffffH
xdata	ENDS
;	COMDAT xdata
xdata	SEGMENT
$stateUnwindMap$??0CWall@Client@@IEAA@PEAUID3D11Device@@PEAUID3D11DeviceContext@@@Z DD 0ffffffffH
	DD	imagerel ?dtor$0@?0???0CWall@Client@@IEAA@PEAUID3D11Device@@PEAUID3D11DeviceContext@@@Z@4HA
xdata	ENDS
;	COMDAT CONST
CONST	SEGMENT
$cppxdata$??0CWall@Client@@IEAA@PEAUID3D11Device@@PEAUID3D11DeviceContext@@@Z DD 019930522H
	DD	01H
	DD	imagerel $stateUnwindMap$??0CWall@Client@@IEAA@PEAUID3D11Device@@PEAUID3D11DeviceContext@@@Z
	DD	00H
	DD	00H
	DD	03H
	DD	imagerel $ip2state$??0CWall@Client@@IEAA@PEAUID3D11Device@@PEAUID3D11DeviceContext@@@Z
	DD	0e8H
	DD	00H
	DD	01H
CONST	ENDS
;	COMDAT xdata
xdata	SEGMENT
$unwind$??0CWall@Client@@IEAA@PEAUID3D11Device@@PEAUID3D11DeviceContext@@@Z DD 025053f11H
	DD	0118231dH
	DD	070110021H
	DD	05010H
	DD	imagerel __CxxFrameHandler3
	DD	imagerel $cppxdata$??0CWall@Client@@IEAA@PEAUID3D11Device@@PEAUID3D11DeviceContext@@@Z
xdata	ENDS
;	COMDAT xdata
xdata	SEGMENT
$unwind$??0tagCubeDesc@CWall@Client@@QEAA@XZ DD 025052a01H
	DD	010e2313H
	DD	07007001dH
	DD	05006H
xdata	ENDS
;	COMDAT xdata
xdata	SEGMENT
$unwind$?XMVector3Normalize@DirectX@@YQ?AT__m128@@T2@@Z DD 035052a01H
	DD	010a330fH
	DD	0700300dfH
	DD	05002H
xdata	ENDS
;	COMDAT xdata
xdata	SEGMENT
$unwind$?XMVector3Length@DirectX@@YQ?AT__m128@@T2@@Z DD 015052a01H
	DD	010a130fH
	DD	070030057H
	DD	05002H
xdata	ENDS
;	COMDAT xdata
xdata	SEGMENT
$unwind$?XMVectorScale@DirectX@@YQ?AT__m128@@T2@M@Z DD 015052f01H
	DD	010f1314H
	DD	070080033H
	DD	05007H
xdata	ENDS
;	COMDAT xdata
xdata	SEGMENT
$unwind$?XMVectorSubtract@DirectX@@YQ?AT__m128@@T2@0@Z DD 015053601H
	DD	010a130fH
	DD	07003002dH
	DD	05002H
xdata	ENDS
;	COMDAT xdata
xdata	SEGMENT
$unwind$?XMVectorAdd@DirectX@@YQ?AT__m128@@T2@0@Z DD 015053601H
	DD	010a130fH
	DD	07003002dH
	DD	05002H
xdata	ENDS
;	COMDAT xdata
xdata	SEGMENT
$unwind$?XMVectorNegate@DirectX@@YQ?AT__m128@@T2@@Z DD 015052a01H
	DD	010a130fH
	DD	070030033H
	DD	05002H
xdata	ENDS
;	COMDAT xdata
xdata	SEGMENT
$unwind$?XMVectorSetY@DirectX@@YQ?AT__m128@@T2@M@Z DD 015052f01H
	DD	010f1314H
	DD	070080045H
	DD	05007H
xdata	ENDS
;	COMDAT xdata
xdata	SEGMENT
$unwind$?XMVectorGetX@DirectX@@YQMT__m128@@@Z DD 015052a01H
	DD	010a130fH
	DD	070030021H
	DD	05002H
xdata	ENDS
;	COMDAT xdata
xdata	SEGMENT
$unwind$?XMVectorSet@DirectX@@YQ?AT__m128@@MMMM@Z DD 015053501H
	DD	01211326H
	DD	0701a0021H
	DD	05019H
xdata	ENDS
;	COMDAT xdata
xdata	SEGMENT
$unwind$?XMStoreFloat3@DirectX@@YQXPEAUXMFLOAT3@1@T__m128@@@Z DD 025053601H
	DD	010e2313H
	DD	07007003bH
	DD	05006H
xdata	ENDS
;	COMDAT xdata
xdata	SEGMENT
$unwind$?XMLoadFloat4x4@DirectX@@YQ?AUXMMATRIX@1@PEBUXMFLOAT4X4@1@@Z DD 035053b19H
	DD	010e3313H
	DD	070070043H
	DD	05006H
	DD	imagerel __GSHandlerCheck
	DD	0208H
xdata	ENDS
;	COMDAT CONST
CONST	SEGMENT
?XMLoadFloat4x4@DirectX@@YQ?AUXMMATRIX@1@PEBUXMFLOAT4X4@1@@Z$rtcName$0 DB 04dH ; DirectX::XMLoadFloat4x4
	DB	00H
	ORG $+14
?XMLoadFloat4x4@DirectX@@YQ?AUXMMATRIX@1@PEBUXMFLOAT4X4@1@@Z$rtcVarDesc DD 040H ; DirectX::XMLoadFloat4x4
	DD	040H
	DQ	FLAT:?XMLoadFloat4x4@DirectX@@YQ?AUXMMATRIX@1@PEBUXMFLOAT4X4@1@@Z$rtcName$0
	ORG $+48
?XMLoadFloat4x4@DirectX@@YQ?AUXMMATRIX@1@PEBUXMFLOAT4X4@1@@Z$rtcFrameData DD 01H ; DirectX::XMLoadFloat4x4
	DD	00H
	DQ	FLAT:?XMLoadFloat4x4@DirectX@@YQ?AUXMMATRIX@1@PEBUXMFLOAT4X4@1@@Z$rtcVarDesc
CONST	ENDS
;	COMDAT xdata
xdata	SEGMENT
$unwind$?XMLoadFloat3@DirectX@@YQ?AT__m128@@PEBUXMFLOAT3@1@@Z DD 035052a01H
	DD	010e3313H
	DD	070070055H
	DD	05006H
xdata	ENDS
;	COMDAT xdata
xdata	SEGMENT
$unwind$??4XMFLOAT3@DirectX@@QEAAAEAU01@AEBU01@@Z DD 05052d01H
	DD	01130316H
	DD	0700c0019H
	DD	0500bH
xdata	ENDS
;	COMDAT xdata
xdata	SEGMENT
$unwind$??0XMFLOAT3@DirectX@@QEAA@MMM@Z DD 05053a01H
	DD	01200323H
	DD	070190019H
	DD	05018H
xdata	ENDS
;	COMDAT xdata
xdata	SEGMENT
$unwind$??0XMFLOAT3@DirectX@@QEAA@XZ DD 05052801H
	DD	010e0311H
	DD	070070019H
	DD	05006H
xdata	ENDS
;	COMDAT xdata
xdata	SEGMENT
$unwind$??0XMMATRIX@DirectX@@QEAA@XZ DD 05052801H
	DD	010e0311H
	DD	070070019H
	DD	05006H
xdata	ENDS
;	COMDAT xdata
xdata	SEGMENT
$unwind$??DDirectX@@YQ?AT__m128@@T1@M@Z DD 035052f01H
	DD	010f3314H
	DD	07008002bH
	DD	05007H
xdata	ENDS
;	COMDAT xdata
xdata	SEGMENT
$unwind$??GDirectX@@YQ?AT__m128@@T1@0@Z DD 035053601H
	DD	010a330fH
	DD	070030031H
	DD	05002H
xdata	ENDS
;	COMDAT xdata
xdata	SEGMENT
$unwind$??HDirectX@@YQ?AT__m128@@T1@0@Z DD 035053601H
	DD	010a330fH
	DD	070030031H
	DD	05002H
xdata	ENDS
;	COMDAT xdata
xdata	SEGMENT
$unwind$??GDirectX@@YQ?AT__m128@@T1@@Z DD 035052a01H
	DD	010a330fH
	DD	07003002bH
	DD	05002H
xdata	ENDS
;	COMDAT xdata
xdata	SEGMENT
$unwind$??BXMVECTORI32@DirectX@@QEBA?AT__m128@@XZ DD 05052d01H
	DD	01130316H
	DD	0700c0019H
	DD	0500bH
xdata	ENDS
;	COMDAT xdata
xdata	SEGMENT
$unwind$?XMConvertToRadians@DirectX@@YAMM@Z DD 015052301H
	DD	010f1314H
	DD	07008001bH
	DD	05007H
xdata	ENDS
;	COMDAT xdata
xdata	SEGMENT
$unwind$?__empty_global_delete@@YAXPEAX_K@Z DD 05052d01H
	DD	01130316H
	DD	0700c0019H
	DD	0500bH
xdata	ENDS
;	COMDAT xdata
xdata	SEGMENT
$unwind$?__empty_global_delete@@YAXPEAX@Z DD 05052801H
	DD	010e0311H
	DD	070070019H
	DD	05006H
xdata	ENDS
;	COMDAT xdata
xdata	SEGMENT
$unwind$??_H@YAXPEAX_K1P6APEAX0@Z@Z DD 025053901H
	DD	011d2322H
	DD	07016001fH
	DD	05015H
xdata	ENDS
; Function compile flags: /Odtp /RTCsu /ZI
; File c:\github\framework\reference\headers\engine_template.h
;	COMDAT ??$Safe_Release@PEAVCTransform@Engine@@@Engine@@YAKAEAPEAVCTransform@0@@Z
_TEXT	SEGMENT
dwRefCnt$ = 4
classType$ = 256
??$Safe_Release@PEAVCTransform@Engine@@@Engine@@YAKAEAPEAVCTransform@0@@Z PROC ; Engine::Safe_Release<Engine::CTransform * __ptr64>, COMDAT

; 18   : 	{

$LN5:
  00000	48 89 4c 24 08	 mov	 QWORD PTR [rsp+8], rcx
  00005	55		 push	 rbp
  00006	57		 push	 rdi
  00007	48 81 ec 08 01
	00 00		 sub	 rsp, 264		; 00000108H
  0000e	48 8d 6c 24 20	 lea	 rbp, QWORD PTR [rsp+32]
  00013	48 8b fc	 mov	 rdi, rsp
  00016	b9 42 00 00 00	 mov	 ecx, 66			; 00000042H
  0001b	b8 cc cc cc cc	 mov	 eax, -858993460		; ccccccccH
  00020	f3 ab		 rep stosd
  00022	48 8b 8c 24 28
	01 00 00	 mov	 rcx, QWORD PTR [rsp+296]

; 19   : 		unsigned long dwRefCnt = 0;

  0002a	c7 45 04 00 00
	00 00		 mov	 DWORD PTR dwRefCnt$[rbp], 0

; 20   : 
; 21   : 		if (nullptr != classType)

  00031	48 8b 85 00 01
	00 00		 mov	 rax, QWORD PTR classType$[rbp]
  00038	48 83 38 00	 cmp	 QWORD PTR [rax], 0
  0003c	74 27		 je	 SHORT $LN2@Safe_Relea

; 22   : 		{
; 23   : 			dwRefCnt = classType->Release();

  0003e	48 8b 85 00 01
	00 00		 mov	 rax, QWORD PTR classType$[rbp]
  00045	48 8b 08	 mov	 rcx, QWORD PTR [rax]
  00048	ff 15 00 00 00
	00		 call	 QWORD PTR __imp_?Release@CBase@Engine@@QEAAKXZ
  0004e	89 45 04	 mov	 DWORD PTR dwRefCnt$[rbp], eax

; 24   : 
; 25   : 			if (0 == dwRefCnt)

  00051	83 7d 04 00	 cmp	 DWORD PTR dwRefCnt$[rbp], 0
  00055	75 0e		 jne	 SHORT $LN3@Safe_Relea

; 26   : 			{
; 27   : 				classType = nullptr;

  00057	48 8b 85 00 01
	00 00		 mov	 rax, QWORD PTR classType$[rbp]
  0005e	48 c7 00 00 00
	00 00		 mov	 QWORD PTR [rax], 0
$LN3@Safe_Relea:
$LN2@Safe_Relea:

; 28   : 			}
; 29   : 		}
; 30   : 
; 31   : 		return dwRefCnt;

  00065	8b 45 04	 mov	 eax, DWORD PTR dwRefCnt$[rbp]

; 32   : 	}

  00068	48 8d a5 e8 00
	00 00		 lea	 rsp, QWORD PTR [rbp+232]
  0006f	5f		 pop	 rdi
  00070	5d		 pop	 rbp
  00071	c3		 ret	 0
??$Safe_Release@PEAVCTransform@Engine@@@Engine@@YAKAEAPEAVCTransform@0@@Z ENDP ; Engine::Safe_Release<Engine::CTransform * __ptr64>
_TEXT	ENDS
; Function compile flags: /Odtp /RTCsu /ZI
; File c:\github\framework\reference\headers\engine_template.h
;	COMDAT ??$Safe_Release@PEAVCOBBCollider@Engine@@@Engine@@YAKAEAPEAVCOBBCollider@0@@Z
_TEXT	SEGMENT
dwRefCnt$ = 4
classType$ = 256
??$Safe_Release@PEAVCOBBCollider@Engine@@@Engine@@YAKAEAPEAVCOBBCollider@0@@Z PROC ; Engine::Safe_Release<Engine::COBBCollider * __ptr64>, COMDAT

; 18   : 	{

$LN5:
  00000	48 89 4c 24 08	 mov	 QWORD PTR [rsp+8], rcx
  00005	55		 push	 rbp
  00006	57		 push	 rdi
  00007	48 81 ec 08 01
	00 00		 sub	 rsp, 264		; 00000108H
  0000e	48 8d 6c 24 20	 lea	 rbp, QWORD PTR [rsp+32]
  00013	48 8b fc	 mov	 rdi, rsp
  00016	b9 42 00 00 00	 mov	 ecx, 66			; 00000042H
  0001b	b8 cc cc cc cc	 mov	 eax, -858993460		; ccccccccH
  00020	f3 ab		 rep stosd
  00022	48 8b 8c 24 28
	01 00 00	 mov	 rcx, QWORD PTR [rsp+296]

; 19   : 		unsigned long dwRefCnt = 0;

  0002a	c7 45 04 00 00
	00 00		 mov	 DWORD PTR dwRefCnt$[rbp], 0

; 20   : 
; 21   : 		if (nullptr != classType)

  00031	48 8b 85 00 01
	00 00		 mov	 rax, QWORD PTR classType$[rbp]
  00038	48 83 38 00	 cmp	 QWORD PTR [rax], 0
  0003c	74 27		 je	 SHORT $LN2@Safe_Relea

; 22   : 		{
; 23   : 			dwRefCnt = classType->Release();

  0003e	48 8b 85 00 01
	00 00		 mov	 rax, QWORD PTR classType$[rbp]
  00045	48 8b 08	 mov	 rcx, QWORD PTR [rax]
  00048	ff 15 00 00 00
	00		 call	 QWORD PTR __imp_?Release@CBase@Engine@@QEAAKXZ
  0004e	89 45 04	 mov	 DWORD PTR dwRefCnt$[rbp], eax

; 24   : 
; 25   : 			if (0 == dwRefCnt)

  00051	83 7d 04 00	 cmp	 DWORD PTR dwRefCnt$[rbp], 0
  00055	75 0e		 jne	 SHORT $LN3@Safe_Relea

; 26   : 			{
; 27   : 				classType = nullptr;

  00057	48 8b 85 00 01
	00 00		 mov	 rax, QWORD PTR classType$[rbp]
  0005e	48 c7 00 00 00
	00 00		 mov	 QWORD PTR [rax], 0
$LN3@Safe_Relea:
$LN2@Safe_Relea:

; 28   : 			}
; 29   : 		}
; 30   : 
; 31   : 		return dwRefCnt;

  00065	8b 45 04	 mov	 eax, DWORD PTR dwRefCnt$[rbp]

; 32   : 	}

  00068	48 8d a5 e8 00
	00 00		 lea	 rsp, QWORD PTR [rbp+232]
  0006f	5f		 pop	 rdi
  00070	5d		 pop	 rbp
  00071	c3		 ret	 0
??$Safe_Release@PEAVCOBBCollider@Engine@@@Engine@@YAKAEAPEAVCOBBCollider@0@@Z ENDP ; Engine::Safe_Release<Engine::COBBCollider * __ptr64>
_TEXT	ENDS
; Function compile flags: /Odtp /RTCsu /ZI
; File c:\github\framework\reference\headers\engine_template.h
;	COMDAT ??$Safe_Release@PEAVCGameObject@Engine@@@Engine@@YAKAEAPEAVCGameObject@0@@Z
_TEXT	SEGMENT
dwRefCnt$ = 4
classType$ = 256
??$Safe_Release@PEAVCGameObject@Engine@@@Engine@@YAKAEAPEAVCGameObject@0@@Z PROC ; Engine::Safe_Release<Engine::CGameObject * __ptr64>, COMDAT

; 18   : 	{

$LN5:
  00000	48 89 4c 24 08	 mov	 QWORD PTR [rsp+8], rcx
  00005	55		 push	 rbp
  00006	57		 push	 rdi
  00007	48 81 ec 08 01
	00 00		 sub	 rsp, 264		; 00000108H
  0000e	48 8d 6c 24 20	 lea	 rbp, QWORD PTR [rsp+32]
  00013	48 8b fc	 mov	 rdi, rsp
  00016	b9 42 00 00 00	 mov	 ecx, 66			; 00000042H
  0001b	b8 cc cc cc cc	 mov	 eax, -858993460		; ccccccccH
  00020	f3 ab		 rep stosd
  00022	48 8b 8c 24 28
	01 00 00	 mov	 rcx, QWORD PTR [rsp+296]

; 19   : 		unsigned long dwRefCnt = 0;

  0002a	c7 45 04 00 00
	00 00		 mov	 DWORD PTR dwRefCnt$[rbp], 0

; 20   : 
; 21   : 		if (nullptr != classType)

  00031	48 8b 85 00 01
	00 00		 mov	 rax, QWORD PTR classType$[rbp]
  00038	48 83 38 00	 cmp	 QWORD PTR [rax], 0
  0003c	74 27		 je	 SHORT $LN2@Safe_Relea

; 22   : 		{
; 23   : 			dwRefCnt = classType->Release();

  0003e	48 8b 85 00 01
	00 00		 mov	 rax, QWORD PTR classType$[rbp]
  00045	48 8b 08	 mov	 rcx, QWORD PTR [rax]
  00048	ff 15 00 00 00
	00		 call	 QWORD PTR __imp_?Release@CBase@Engine@@QEAAKXZ
  0004e	89 45 04	 mov	 DWORD PTR dwRefCnt$[rbp], eax

; 24   : 
; 25   : 			if (0 == dwRefCnt)

  00051	83 7d 04 00	 cmp	 DWORD PTR dwRefCnt$[rbp], 0
  00055	75 0e		 jne	 SHORT $LN3@Safe_Relea

; 26   : 			{
; 27   : 				classType = nullptr;

  00057	48 8b 85 00 01
	00 00		 mov	 rax, QWORD PTR classType$[rbp]
  0005e	48 c7 00 00 00
	00 00		 mov	 QWORD PTR [rax], 0
$LN3@Safe_Relea:
$LN2@Safe_Relea:

; 28   : 			}
; 29   : 		}
; 30   : 
; 31   : 		return dwRefCnt;

  00065	8b 45 04	 mov	 eax, DWORD PTR dwRefCnt$[rbp]

; 32   : 	}

  00068	48 8d a5 e8 00
	00 00		 lea	 rsp, QWORD PTR [rbp+232]
  0006f	5f		 pop	 rdi
  00070	5d		 pop	 rbp
  00071	c3		 ret	 0
??$Safe_Release@PEAVCGameObject@Engine@@@Engine@@YAKAEAPEAVCGameObject@0@@Z ENDP ; Engine::Safe_Release<Engine::CGameObject * __ptr64>
_TEXT	ENDS
; Function compile flags: /Odtp /RTCsu /ZI
; File c:\github\framework\reference\headers\engine_template.h
;	COMDAT ??$Safe_Release@PEAVCWall@Client@@@Engine@@YAKAEAPEAVCWall@Client@@@Z
_TEXT	SEGMENT
dwRefCnt$ = 4
classType$ = 256
??$Safe_Release@PEAVCWall@Client@@@Engine@@YAKAEAPEAVCWall@Client@@@Z PROC ; Engine::Safe_Release<Client::CWall * __ptr64>, COMDAT

; 18   : 	{

$LN5:
  00000	48 89 4c 24 08	 mov	 QWORD PTR [rsp+8], rcx
  00005	55		 push	 rbp
  00006	57		 push	 rdi
  00007	48 81 ec 08 01
	00 00		 sub	 rsp, 264		; 00000108H
  0000e	48 8d 6c 24 20	 lea	 rbp, QWORD PTR [rsp+32]
  00013	48 8b fc	 mov	 rdi, rsp
  00016	b9 42 00 00 00	 mov	 ecx, 66			; 00000042H
  0001b	b8 cc cc cc cc	 mov	 eax, -858993460		; ccccccccH
  00020	f3 ab		 rep stosd
  00022	48 8b 8c 24 28
	01 00 00	 mov	 rcx, QWORD PTR [rsp+296]

; 19   : 		unsigned long dwRefCnt = 0;

  0002a	c7 45 04 00 00
	00 00		 mov	 DWORD PTR dwRefCnt$[rbp], 0

; 20   : 
; 21   : 		if (nullptr != classType)

  00031	48 8b 85 00 01
	00 00		 mov	 rax, QWORD PTR classType$[rbp]
  00038	48 83 38 00	 cmp	 QWORD PTR [rax], 0
  0003c	74 27		 je	 SHORT $LN2@Safe_Relea

; 22   : 		{
; 23   : 			dwRefCnt = classType->Release();

  0003e	48 8b 85 00 01
	00 00		 mov	 rax, QWORD PTR classType$[rbp]
  00045	48 8b 08	 mov	 rcx, QWORD PTR [rax]
  00048	ff 15 00 00 00
	00		 call	 QWORD PTR __imp_?Release@CBase@Engine@@QEAAKXZ
  0004e	89 45 04	 mov	 DWORD PTR dwRefCnt$[rbp], eax

; 24   : 
; 25   : 			if (0 == dwRefCnt)

  00051	83 7d 04 00	 cmp	 DWORD PTR dwRefCnt$[rbp], 0
  00055	75 0e		 jne	 SHORT $LN3@Safe_Relea

; 26   : 			{
; 27   : 				classType = nullptr;

  00057	48 8b 85 00 01
	00 00		 mov	 rax, QWORD PTR classType$[rbp]
  0005e	48 c7 00 00 00
	00 00		 mov	 QWORD PTR [rax], 0
$LN3@Safe_Relea:
$LN2@Safe_Relea:

; 28   : 			}
; 29   : 		}
; 30   : 
; 31   : 		return dwRefCnt;

  00065	8b 45 04	 mov	 eax, DWORD PTR dwRefCnt$[rbp]

; 32   : 	}

  00068	48 8d a5 e8 00
	00 00		 lea	 rsp, QWORD PTR [rbp+232]
  0006f	5f		 pop	 rdi
  00070	5d		 pop	 rbp
  00071	c3		 ret	 0
??$Safe_Release@PEAVCWall@Client@@@Engine@@YAKAEAPEAVCWall@Client@@@Z ENDP ; Engine::Safe_Release<Client::CWall * __ptr64>
_TEXT	ENDS
; Function compile flags: /Odtp /RTCsu /ZI
;	COMDAT ??0tagColliderDesc@CCollider@Engine@@QEAA@XZ
_TEXT	SEGMENT
this$ = 224
??0tagColliderDesc@CCollider@Engine@@QEAA@XZ PROC	; Engine::CCollider::tagColliderDesc::tagColliderDesc, COMDAT
$LN3:
  00000	48 89 4c 24 08	 mov	 QWORD PTR [rsp+8], rcx
  00005	55		 push	 rbp
  00006	57		 push	 rdi
  00007	48 81 ec e8 00
	00 00		 sub	 rsp, 232		; 000000e8H
  0000e	48 8d 6c 24 20	 lea	 rbp, QWORD PTR [rsp+32]
  00013	48 8b fc	 mov	 rdi, rsp
  00016	b9 3a 00 00 00	 mov	 ecx, 58			; 0000003aH
  0001b	b8 cc cc cc cc	 mov	 eax, -858993460		; ccccccccH
  00020	f3 ab		 rep stosd
  00022	48 8b 8c 24 08
	01 00 00	 mov	 rcx, QWORD PTR [rsp+264]
  0002a	48 8b 85 e0 00
	00 00		 mov	 rax, QWORD PTR this$[rbp]
  00031	48 83 c0 08	 add	 rax, 8
  00035	48 8b c8	 mov	 rcx, rax
  00038	e8 00 00 00 00	 call	 ??0XMFLOAT3@DirectX@@QEAA@XZ ; DirectX::XMFLOAT3::XMFLOAT3
  0003d	48 8b 85 e0 00
	00 00		 mov	 rax, QWORD PTR this$[rbp]
  00044	48 83 c0 14	 add	 rax, 20
  00048	48 8b c8	 mov	 rcx, rax
  0004b	e8 00 00 00 00	 call	 ??0XMFLOAT3@DirectX@@QEAA@XZ ; DirectX::XMFLOAT3::XMFLOAT3
  00050	48 8b 85 e0 00
	00 00		 mov	 rax, QWORD PTR this$[rbp]
  00057	48 83 c0 20	 add	 rax, 32			; 00000020H
  0005b	48 8b c8	 mov	 rcx, rax
  0005e	e8 00 00 00 00	 call	 ??0XMFLOAT3@DirectX@@QEAA@XZ ; DirectX::XMFLOAT3::XMFLOAT3
  00063	48 8b 85 e0 00
	00 00		 mov	 rax, QWORD PTR this$[rbp]
  0006a	48 8d a5 c8 00
	00 00		 lea	 rsp, QWORD PTR [rbp+200]
  00071	5f		 pop	 rdi
  00072	5d		 pop	 rbp
  00073	c3		 ret	 0
??0tagColliderDesc@CCollider@Engine@@QEAA@XZ ENDP	; Engine::CCollider::tagColliderDesc::tagColliderDesc
_TEXT	ENDS
; Function compile flags: /Odtp /RTCsu /ZI
;	COMDAT ??_GCWall@Client@@MEAAPEAXI@Z
_TEXT	SEGMENT
this$ = 224
__flags$ = 232
??_GCWall@Client@@MEAAPEAXI@Z PROC			; Client::CWall::`scalar deleting destructor', COMDAT
$LN4:
  00000	89 54 24 10	 mov	 DWORD PTR [rsp+16], edx
  00004	48 89 4c 24 08	 mov	 QWORD PTR [rsp+8], rcx
  00009	55		 push	 rbp
  0000a	57		 push	 rdi
  0000b	48 81 ec e8 00
	00 00		 sub	 rsp, 232		; 000000e8H
  00012	48 8d 6c 24 20	 lea	 rbp, QWORD PTR [rsp+32]
  00017	48 8b fc	 mov	 rdi, rsp
  0001a	b9 3a 00 00 00	 mov	 ecx, 58			; 0000003aH
  0001f	b8 cc cc cc cc	 mov	 eax, -858993460		; ccccccccH
  00024	f3 ab		 rep stosd
  00026	48 8b 8c 24 08
	01 00 00	 mov	 rcx, QWORD PTR [rsp+264]
  0002e	48 8b 8d e0 00
	00 00		 mov	 rcx, QWORD PTR this$[rbp]
  00035	e8 00 00 00 00	 call	 ??1CWall@Client@@MEAA@XZ ; Client::CWall::~CWall
  0003a	8b 85 e8 00 00
	00		 mov	 eax, DWORD PTR __flags$[rbp]
  00040	83 e0 01	 and	 eax, 1
  00043	85 c0		 test	 eax, eax
  00045	74 11		 je	 SHORT $LN2@scalar
  00047	ba e0 00 00 00	 mov	 edx, 224		; 000000e0H
  0004c	48 8b 8d e0 00
	00 00		 mov	 rcx, QWORD PTR this$[rbp]
  00053	e8 00 00 00 00	 call	 ??3@YAXPEAX_K@Z		; operator delete
$LN2@scalar:
  00058	48 8b 85 e0 00
	00 00		 mov	 rax, QWORD PTR this$[rbp]
  0005f	48 8d a5 c8 00
	00 00		 lea	 rsp, QWORD PTR [rbp+200]
  00066	5f		 pop	 rdi
  00067	5d		 pop	 rbp
  00068	c3		 ret	 0
??_GCWall@Client@@MEAAPEAXI@Z ENDP			; Client::CWall::`scalar deleting destructor'
_TEXT	ENDS
; Function compile flags: /Odtp /RTCsu /ZI
;	COMDAT ??0CWall@Client@@QEAA@AEBV01@@Z
_TEXT	SEGMENT
this$ = 224
__that$ = 232
??0CWall@Client@@QEAA@AEBV01@@Z PROC			; Client::CWall::CWall, COMDAT
$LN4:
  00000	48 89 54 24 10	 mov	 QWORD PTR [rsp+16], rdx
  00005	48 89 4c 24 08	 mov	 QWORD PTR [rsp+8], rcx
  0000a	55		 push	 rbp
  0000b	56		 push	 rsi
  0000c	57		 push	 rdi
  0000d	48 81 ec e0 00
	00 00		 sub	 rsp, 224		; 000000e0H
  00014	48 8d 6c 24 20	 lea	 rbp, QWORD PTR [rsp+32]
  00019	48 8b fc	 mov	 rdi, rsp
  0001c	b9 38 00 00 00	 mov	 ecx, 56			; 00000038H
  00021	b8 cc cc cc cc	 mov	 eax, -858993460		; ccccccccH
  00026	f3 ab		 rep stosd
  00028	48 8b 8c 24 08
	01 00 00	 mov	 rcx, QWORD PTR [rsp+264]
  00030	48 8b 95 e8 00
	00 00		 mov	 rdx, QWORD PTR __that$[rbp]
  00037	48 8b 8d e0 00
	00 00		 mov	 rcx, QWORD PTR this$[rbp]
  0003e	ff 15 00 00 00
	00		 call	 QWORD PTR __imp_??0CGameObject@Engine@@IEAA@AEBV01@@Z
  00044	48 8b 85 e0 00
	00 00		 mov	 rax, QWORD PTR this$[rbp]
  0004b	48 8d 0d 00 00
	00 00		 lea	 rcx, OFFSET FLAT:??_7CWall@Client@@6B@
  00052	48 89 08	 mov	 QWORD PTR [rax], rcx
  00055	48 8b 85 e0 00
	00 00		 mov	 rax, QWORD PTR this$[rbp]
  0005c	48 8b 8d e8 00
	00 00		 mov	 rcx, QWORD PTR __that$[rbp]
  00063	48 8b 49 78	 mov	 rcx, QWORD PTR [rcx+120]
  00067	48 89 48 78	 mov	 QWORD PTR [rax+120], rcx
  0006b	48 8b 85 e0 00
	00 00		 mov	 rax, QWORD PTR this$[rbp]
  00072	48 8b 8d e8 00
	00 00		 mov	 rcx, QWORD PTR __that$[rbp]
  00079	48 8b 89 80 00
	00 00		 mov	 rcx, QWORD PTR [rcx+128]
  00080	48 89 88 80 00
	00 00		 mov	 QWORD PTR [rax+128], rcx
  00087	48 8b 85 e0 00
	00 00		 mov	 rax, QWORD PTR this$[rbp]
  0008e	48 8b 8d e8 00
	00 00		 mov	 rcx, QWORD PTR __that$[rbp]
  00095	48 8d b8 88 00
	00 00		 lea	 rdi, QWORD PTR [rax+136]
  0009c	48 8d b1 88 00
	00 00		 lea	 rsi, QWORD PTR [rcx+136]
  000a3	b9 24 00 00 00	 mov	 ecx, 36			; 00000024H
  000a8	f3 a4		 rep movsb
  000aa	48 8b 85 e0 00
	00 00		 mov	 rax, QWORD PTR this$[rbp]
  000b1	48 8b 8d e8 00
	00 00		 mov	 rcx, QWORD PTR __that$[rbp]
  000b8	48 8d b8 ac 00
	00 00		 lea	 rdi, QWORD PTR [rax+172]
  000bf	48 8d b1 ac 00
	00 00		 lea	 rsi, QWORD PTR [rcx+172]
  000c6	b9 30 00 00 00	 mov	 ecx, 48			; 00000030H
  000cb	f3 a4		 rep movsb
  000cd	48 8b 85 e0 00
	00 00		 mov	 rax, QWORD PTR this$[rbp]
  000d4	48 8b 8d e8 00
	00 00		 mov	 rcx, QWORD PTR __that$[rbp]
  000db	8b 89 dc 00 00
	00		 mov	 ecx, DWORD PTR [rcx+220]
  000e1	89 88 dc 00 00
	00		 mov	 DWORD PTR [rax+220], ecx
  000e7	48 8b 85 e0 00
	00 00		 mov	 rax, QWORD PTR this$[rbp]
  000ee	48 8d a5 c0 00
	00 00		 lea	 rsp, QWORD PTR [rbp+192]
  000f5	5f		 pop	 rdi
  000f6	5e		 pop	 rsi
  000f7	5d		 pop	 rbp
  000f8	c3		 ret	 0
??0CWall@Client@@QEAA@AEBV01@@Z ENDP			; Client::CWall::CWall
_TEXT	ENDS
; Function compile flags: /Odtp /RTCsu /ZI
; File c:\github\framework\client\private\wall.cpp
;	COMDAT ?Free@CWall@Client@@UEAAXXZ
_TEXT	SEGMENT
this$ = 224
?Free@CWall@Client@@UEAAXXZ PROC			; Client::CWall::Free, COMDAT

; 250  : {

$LN3:
  00000	48 89 4c 24 08	 mov	 QWORD PTR [rsp+8], rcx
  00005	55		 push	 rbp
  00006	57		 push	 rdi
  00007	48 81 ec e8 00
	00 00		 sub	 rsp, 232		; 000000e8H
  0000e	48 8d 6c 24 20	 lea	 rbp, QWORD PTR [rsp+32]
  00013	48 8b fc	 mov	 rdi, rsp
  00016	b9 3a 00 00 00	 mov	 ecx, 58			; 0000003aH
  0001b	b8 cc cc cc cc	 mov	 eax, -858993460		; ccccccccH
  00020	f3 ab		 rep stosd
  00022	48 8b 8c 24 08
	01 00 00	 mov	 rcx, QWORD PTR [rsp+264]

; 251  : 	__super::Free();

  0002a	48 8b 8d e0 00
	00 00		 mov	 rcx, QWORD PTR this$[rbp]
  00031	ff 15 00 00 00
	00		 call	 QWORD PTR __imp_?Free@CGameObject@Engine@@UEAAXXZ

; 252  : 
; 253  : 	Safe_Release(m_pCollider);

  00037	48 8b 85 e0 00
	00 00		 mov	 rax, QWORD PTR this$[rbp]
  0003e	48 83 c0 78	 add	 rax, 120		; 00000078H
  00042	48 8b c8	 mov	 rcx, rax
  00045	e8 00 00 00 00	 call	 ??$Safe_Release@PEAVCOBBCollider@Engine@@@Engine@@YAKAEAPEAVCOBBCollider@0@@Z ; Engine::Safe_Release<Engine::COBBCollider * __ptr64>

; 254  : 	Safe_Release(m_pTransform);

  0004a	48 8b 85 e0 00
	00 00		 mov	 rax, QWORD PTR this$[rbp]
  00051	48 05 80 00 00
	00		 add	 rax, 128		; 00000080H
  00057	48 8b c8	 mov	 rcx, rax
  0005a	e8 00 00 00 00	 call	 ??$Safe_Release@PEAVCTransform@Engine@@@Engine@@YAKAEAPEAVCTransform@0@@Z ; Engine::Safe_Release<Engine::CTransform * __ptr64>

; 255  : }

  0005f	48 8d a5 c8 00
	00 00		 lea	 rsp, QWORD PTR [rbp+200]
  00066	5f		 pop	 rdi
  00067	5d		 pop	 rbp
  00068	c3		 ret	 0
?Free@CWall@Client@@UEAAXXZ ENDP			; Client::CWall::Free
_TEXT	ENDS
; Function compile flags: /Odtp /RTCsu /ZI
; File c:\github\framework\client\private\wall.cpp
;	COMDAT ?Clone@CWall@Client@@UEAAPEAVCGameObject@Engine@@PEAX@Z
_TEXT	SEGMENT
pInstance$ = 8
$T4 = 232
$T5 = 264
$T6 = 296
tv86 = 312
__$ArrayPad$ = 320
this$ = 368
pArg$ = 376
?Clone@CWall@Client@@UEAAPEAVCGameObject@Engine@@PEAX@Z PROC ; Client::CWall::Clone, COMDAT

; 238  : {

$LN7:
  00000	48 89 54 24 10	 mov	 QWORD PTR [rsp+16], rdx
  00005	48 89 4c 24 08	 mov	 QWORD PTR [rsp+8], rcx
  0000a	55		 push	 rbp
  0000b	57		 push	 rdi
  0000c	48 81 ec 78 01
	00 00		 sub	 rsp, 376		; 00000178H
  00013	48 8d 6c 24 20	 lea	 rbp, QWORD PTR [rsp+32]
  00018	48 8b fc	 mov	 rdi, rsp
  0001b	b9 5e 00 00 00	 mov	 ecx, 94			; 0000005eH
  00020	b8 cc cc cc cc	 mov	 eax, -858993460		; ccccccccH
  00025	f3 ab		 rep stosd
  00027	48 8b 8c 24 98
	01 00 00	 mov	 rcx, QWORD PTR [rsp+408]
  0002f	48 c7 85 28 01
	00 00 fe ff ff
	ff		 mov	 QWORD PTR $T6[rbp], -2
  0003a	48 8b 05 00 00
	00 00		 mov	 rax, QWORD PTR __security_cookie
  00041	48 33 c5	 xor	 rax, rbp
  00044	48 89 85 40 01
	00 00		 mov	 QWORD PTR __$ArrayPad$[rbp], rax

; 239  : 	CGameObject* pInstance = new CWall(*this);

  0004b	8b 05 00 00 00
	00		 mov	 eax, DWORD PTR ?__LINE__Var@?0??Clone@CWall@Client@@UEAAPEAVCGameObject@Engine@@PEAX@Z@4JA
  00051	ff c0		 inc	 eax
  00053	44 8b c8	 mov	 r9d, eax
  00056	4c 8d 05 00 00
	00 00		 lea	 r8, OFFSET FLAT:??_C@_0CM@EJHFMJKP@c?3?2github?2framework?2client?2priva@
  0005d	ba 01 00 00 00	 mov	 edx, 1
  00062	b9 e0 00 00 00	 mov	 ecx, 224		; 000000e0H
  00067	e8 00 00 00 00	 call	 ??2@YAPEAX_KHPEBDH@Z	; operator new
  0006c	48 89 85 08 01
	00 00		 mov	 QWORD PTR $T5[rbp], rax
  00073	48 83 bd 08 01
	00 00 00	 cmp	 QWORD PTR $T5[rbp], 0
  0007b	74 1c		 je	 SHORT $LN4@Clone
  0007d	48 8b 95 70 01
	00 00		 mov	 rdx, QWORD PTR this$[rbp]
  00084	48 8b 8d 08 01
	00 00		 mov	 rcx, QWORD PTR $T5[rbp]
  0008b	e8 00 00 00 00	 call	 ??0CWall@Client@@QEAA@AEBV01@@Z
  00090	48 89 85 38 01
	00 00		 mov	 QWORD PTR tv86[rbp], rax
  00097	eb 0b		 jmp	 SHORT $LN5@Clone
$LN4@Clone:
  00099	48 c7 85 38 01
	00 00 00 00 00
	00		 mov	 QWORD PTR tv86[rbp], 0
$LN5@Clone:
  000a4	48 8b 85 38 01
	00 00		 mov	 rax, QWORD PTR tv86[rbp]
  000ab	48 89 85 e8 00
	00 00		 mov	 QWORD PTR $T4[rbp], rax
  000b2	48 8b 85 e8 00
	00 00		 mov	 rax, QWORD PTR $T4[rbp]
  000b9	48 89 45 08	 mov	 QWORD PTR pInstance$[rbp], rax

; 240  : 	if (FAILED(pInstance->Initialize(pArg)))

  000bd	48 8b 45 08	 mov	 rax, QWORD PTR pInstance$[rbp]
  000c1	48 8b 00	 mov	 rax, QWORD PTR [rax]
  000c4	48 8b 95 78 01
	00 00		 mov	 rdx, QWORD PTR pArg$[rbp]
  000cb	48 8b 4d 08	 mov	 rcx, QWORD PTR pInstance$[rbp]
  000cf	ff 50 18	 call	 QWORD PTR [rax+24]
  000d2	85 c0		 test	 eax, eax
  000d4	7d 22		 jge	 SHORT $LN2@Clone

; 241  : 	{
; 242  : 		MSG_BOX("Failed to Clone : CWall");

  000d6	45 33 c9	 xor	 r9d, r9d
  000d9	4c 8d 05 00 00
	00 00		 lea	 r8, OFFSET FLAT:??_C@_1BA@HHOMBECE@?$AAM?$AAe?$AAs?$AAs?$AAa?$AAg?$AAe?$AA?$AA@
  000e0	48 8d 15 00 00
	00 00		 lea	 rdx, OFFSET FLAT:??_C@_1DA@CPFACAON@?$AAF?$AAa?$AAi?$AAl?$AAe?$AAd?$AA?5?$AAt?$AAo?$AA?5?$AAC?$AAl?$AAo?$AAn?$AAe?$AA?5?$AA?3?$AA?5?$AAC?$AAW?$AAa?$AAl?$AAl?$AA?$AA@
  000e7	33 c9		 xor	 ecx, ecx
  000e9	ff 15 00 00 00
	00		 call	 QWORD PTR __imp_MessageBoxW

; 243  : 		Safe_Release(pInstance);

  000ef	48 8d 4d 08	 lea	 rcx, QWORD PTR pInstance$[rbp]
  000f3	e8 00 00 00 00	 call	 ??$Safe_Release@PEAVCGameObject@Engine@@@Engine@@YAKAEAPEAVCGameObject@0@@Z ; Engine::Safe_Release<Engine::CGameObject * __ptr64>
$LN2@Clone:

; 244  : 	}
; 245  : 
; 246  : 	return pInstance;

  000f8	48 8b 45 08	 mov	 rax, QWORD PTR pInstance$[rbp]

; 247  : }

  000fc	48 8b f8	 mov	 rdi, rax
  000ff	48 8d 4d e0	 lea	 rcx, QWORD PTR [rbp-32]
  00103	48 8d 15 00 00
	00 00		 lea	 rdx, OFFSET FLAT:?Clone@CWall@Client@@UEAAPEAVCGameObject@Engine@@PEAX@Z$rtcFrameData
  0010a	e8 00 00 00 00	 call	 _RTC_CheckStackVars
  0010f	48 8b c7	 mov	 rax, rdi
  00112	48 8b 8d 40 01
	00 00		 mov	 rcx, QWORD PTR __$ArrayPad$[rbp]
  00119	48 33 cd	 xor	 rcx, rbp
  0011c	e8 00 00 00 00	 call	 __security_check_cookie
  00121	48 8d a5 58 01
	00 00		 lea	 rsp, QWORD PTR [rbp+344]
  00128	5f		 pop	 rdi
  00129	5d		 pop	 rbp
  0012a	c3		 ret	 0
?Clone@CWall@Client@@UEAAPEAVCGameObject@Engine@@PEAX@Z ENDP ; Client::CWall::Clone
_TEXT	ENDS
;	COMDAT text$x
text$x	SEGMENT
pInstance$ = 8
$T4 = 232
$T5 = 264
$T6 = 296
tv86 = 312
__$ArrayPad$ = 320
this$ = 368
pArg$ = 376
?dtor$0@?0??Clone@CWall@Client@@UEAAPEAVCGameObject@Engine@@PEAX@Z@4HA PROC ; `Client::CWall::Clone'::`1'::dtor$0
  00000	48 89 4c 24 08	 mov	 QWORD PTR [rsp+8], rcx
  00005	48 89 54 24 10	 mov	 QWORD PTR [rsp+16], rdx
  0000a	55		 push	 rbp
  0000b	57		 push	 rdi
  0000c	48 83 ec 28	 sub	 rsp, 40			; 00000028H
  00010	48 8d 6a 20	 lea	 rbp, QWORD PTR [rdx+32]
  00014	44 8b 0d 00 00
	00 00		 mov	 r9d, DWORD PTR ?__LINE__Var@?0??Clone@CWall@Client@@UEAAPEAVCGameObject@Engine@@PEAX@Z@4JA
  0001b	41 ff c1	 inc	 r9d
  0001e	4c 8d 05 00 00
	00 00		 lea	 r8, OFFSET FLAT:??_C@_0CM@EJHFMJKP@c?3?2github?2framework?2client?2priva@
  00025	ba 01 00 00 00	 mov	 edx, 1
  0002a	48 8b 8d 08 01
	00 00		 mov	 rcx, QWORD PTR $T5[rbp]
  00031	e8 00 00 00 00	 call	 ??3@YAXPEAXHPEBDH@Z	; operator delete
  00036	48 83 c4 28	 add	 rsp, 40			; 00000028H
  0003a	5f		 pop	 rdi
  0003b	5d		 pop	 rbp
  0003c	c3		 ret	 0
?dtor$0@?0??Clone@CWall@Client@@UEAAPEAVCGameObject@Engine@@PEAX@Z@4HA ENDP ; `Client::CWall::Clone'::`1'::dtor$0
text$x	ENDS
; Function compile flags: /Odtp /RTCsu /ZI
;	COMDAT text$x
text$x	SEGMENT
pInstance$ = 8
$T4 = 232
$T5 = 264
$T6 = 296
tv86 = 312
__$ArrayPad$ = 320
this$ = 368
pArg$ = 376
?dtor$0@?0??Clone@CWall@Client@@UEAAPEAVCGameObject@Engine@@PEAX@Z@4HA PROC ; `Client::CWall::Clone'::`1'::dtor$0
  00000	48 89 4c 24 08	 mov	 QWORD PTR [rsp+8], rcx
  00005	48 89 54 24 10	 mov	 QWORD PTR [rsp+16], rdx
  0000a	55		 push	 rbp
  0000b	57		 push	 rdi
  0000c	48 83 ec 28	 sub	 rsp, 40			; 00000028H
  00010	48 8d 6a 20	 lea	 rbp, QWORD PTR [rdx+32]
  00014	44 8b 0d 00 00
	00 00		 mov	 r9d, DWORD PTR ?__LINE__Var@?0??Clone@CWall@Client@@UEAAPEAVCGameObject@Engine@@PEAX@Z@4JA
  0001b	41 ff c1	 inc	 r9d
  0001e	4c 8d 05 00 00
	00 00		 lea	 r8, OFFSET FLAT:??_C@_0CM@EJHFMJKP@c?3?2github?2framework?2client?2priva@
  00025	ba 01 00 00 00	 mov	 edx, 1
  0002a	48 8b 8d 08 01
	00 00		 mov	 rcx, QWORD PTR $T5[rbp]
  00031	e8 00 00 00 00	 call	 ??3@YAXPEAXHPEBDH@Z	; operator delete
  00036	48 83 c4 28	 add	 rsp, 40			; 00000028H
  0003a	5f		 pop	 rdi
  0003b	5d		 pop	 rbp
  0003c	c3		 ret	 0
?dtor$0@?0??Clone@CWall@Client@@UEAAPEAVCGameObject@Engine@@PEAX@Z@4HA ENDP ; `Client::CWall::Clone'::`1'::dtor$0
text$x	ENDS
; Function compile flags: /Odtp /RTCsu /ZI
; File c:\github\framework\client\private\wall.cpp
;	COMDAT ?Create@CWall@Client@@SAPEAV12@PEAUID3D11Device@@PEAUID3D11DeviceContext@@@Z
_TEXT	SEGMENT
pInstance$ = 8
$T4 = 232
$T5 = 264
$T6 = 296
tv84 = 312
__$ArrayPad$ = 320
pDevice$ = 368
pContext$ = 376
?Create@CWall@Client@@SAPEAV12@PEAUID3D11Device@@PEAUID3D11DeviceContext@@@Z PROC ; Client::CWall::Create, COMDAT

; 226  : {

$LN7:
  00000	48 89 54 24 10	 mov	 QWORD PTR [rsp+16], rdx
  00005	48 89 4c 24 08	 mov	 QWORD PTR [rsp+8], rcx
  0000a	55		 push	 rbp
  0000b	57		 push	 rdi
  0000c	48 81 ec 78 01
	00 00		 sub	 rsp, 376		; 00000178H
  00013	48 8d 6c 24 20	 lea	 rbp, QWORD PTR [rsp+32]
  00018	48 8b fc	 mov	 rdi, rsp
  0001b	b9 5e 00 00 00	 mov	 ecx, 94			; 0000005eH
  00020	b8 cc cc cc cc	 mov	 eax, -858993460		; ccccccccH
  00025	f3 ab		 rep stosd
  00027	48 8b 8c 24 98
	01 00 00	 mov	 rcx, QWORD PTR [rsp+408]
  0002f	48 c7 85 28 01
	00 00 fe ff ff
	ff		 mov	 QWORD PTR $T6[rbp], -2
  0003a	48 8b 05 00 00
	00 00		 mov	 rax, QWORD PTR __security_cookie
  00041	48 33 c5	 xor	 rax, rbp
  00044	48 89 85 40 01
	00 00		 mov	 QWORD PTR __$ArrayPad$[rbp], rax

; 227  : 	CWall*	pInstance = new CWall(pDevice, pContext);

  0004b	8b 05 00 00 00
	00		 mov	 eax, DWORD PTR ?__LINE__Var@?0??Create@CWall@Client@@SAPEAV23@PEAUID3D11Device@@PEAUID3D11DeviceContext@@@Z@4JA
  00051	ff c0		 inc	 eax
  00053	44 8b c8	 mov	 r9d, eax
  00056	4c 8d 05 00 00
	00 00		 lea	 r8, OFFSET FLAT:??_C@_0CM@EJHFMJKP@c?3?2github?2framework?2client?2priva@
  0005d	ba 01 00 00 00	 mov	 edx, 1
  00062	b9 e0 00 00 00	 mov	 ecx, 224		; 000000e0H
  00067	e8 00 00 00 00	 call	 ??2@YAPEAX_KHPEBDH@Z	; operator new
  0006c	48 89 85 08 01
	00 00		 mov	 QWORD PTR $T5[rbp], rax
  00073	48 83 bd 08 01
	00 00 00	 cmp	 QWORD PTR $T5[rbp], 0
  0007b	74 23		 je	 SHORT $LN4@Create
  0007d	4c 8b 85 78 01
	00 00		 mov	 r8, QWORD PTR pContext$[rbp]
  00084	48 8b 95 70 01
	00 00		 mov	 rdx, QWORD PTR pDevice$[rbp]
  0008b	48 8b 8d 08 01
	00 00		 mov	 rcx, QWORD PTR $T5[rbp]
  00092	e8 00 00 00 00	 call	 ??0CWall@Client@@IEAA@PEAUID3D11Device@@PEAUID3D11DeviceContext@@@Z ; Client::CWall::CWall
  00097	48 89 85 38 01
	00 00		 mov	 QWORD PTR tv84[rbp], rax
  0009e	eb 0b		 jmp	 SHORT $LN5@Create
$LN4@Create:
  000a0	48 c7 85 38 01
	00 00 00 00 00
	00		 mov	 QWORD PTR tv84[rbp], 0
$LN5@Create:
  000ab	48 8b 85 38 01
	00 00		 mov	 rax, QWORD PTR tv84[rbp]
  000b2	48 89 85 e8 00
	00 00		 mov	 QWORD PTR $T4[rbp], rax
  000b9	48 8b 85 e8 00
	00 00		 mov	 rax, QWORD PTR $T4[rbp]
  000c0	48 89 45 08	 mov	 QWORD PTR pInstance$[rbp], rax

; 228  : 	if (FAILED(pInstance->Initialize_Prototype()))

  000c4	48 8b 4d 08	 mov	 rcx, QWORD PTR pInstance$[rbp]
  000c8	e8 00 00 00 00	 call	 ?Initialize_Prototype@CWall@Client@@UEAAJXZ ; Client::CWall::Initialize_Prototype
  000cd	85 c0		 test	 eax, eax
  000cf	7d 22		 jge	 SHORT $LN2@Create

; 229  : 	{
; 230  : 		MSG_BOX("Failed to Create : CWall");

  000d1	45 33 c9	 xor	 r9d, r9d
  000d4	4c 8d 05 00 00
	00 00		 lea	 r8, OFFSET FLAT:??_C@_1BA@HHOMBECE@?$AAM?$AAe?$AAs?$AAs?$AAa?$AAg?$AAe?$AA?$AA@
  000db	48 8d 15 00 00
	00 00		 lea	 rdx, OFFSET FLAT:??_C@_1DC@JOCBEIJM@?$AAF?$AAa?$AAi?$AAl?$AAe?$AAd?$AA?5?$AAt?$AAo?$AA?5?$AAC?$AAr?$AAe?$AAa?$AAt?$AAe?$AA?5?$AA?3?$AA?5?$AAC?$AAW?$AAa?$AAl?$AAl?$AA?$AA@
  000e2	33 c9		 xor	 ecx, ecx
  000e4	ff 15 00 00 00
	00		 call	 QWORD PTR __imp_MessageBoxW

; 231  : 		Safe_Release(pInstance);

  000ea	48 8d 4d 08	 lea	 rcx, QWORD PTR pInstance$[rbp]
  000ee	e8 00 00 00 00	 call	 ??$Safe_Release@PEAVCWall@Client@@@Engine@@YAKAEAPEAVCWall@Client@@@Z ; Engine::Safe_Release<Client::CWall * __ptr64>
$LN2@Create:

; 232  : 	}
; 233  : 
; 234  : 	return pInstance;

  000f3	48 8b 45 08	 mov	 rax, QWORD PTR pInstance$[rbp]

; 235  : }

  000f7	48 8b f8	 mov	 rdi, rax
  000fa	48 8d 4d e0	 lea	 rcx, QWORD PTR [rbp-32]
  000fe	48 8d 15 00 00
	00 00		 lea	 rdx, OFFSET FLAT:?Create@CWall@Client@@SAPEAV12@PEAUID3D11Device@@PEAUID3D11DeviceContext@@@Z$rtcFrameData
  00105	e8 00 00 00 00	 call	 _RTC_CheckStackVars
  0010a	48 8b c7	 mov	 rax, rdi
  0010d	48 8b 8d 40 01
	00 00		 mov	 rcx, QWORD PTR __$ArrayPad$[rbp]
  00114	48 33 cd	 xor	 rcx, rbp
  00117	e8 00 00 00 00	 call	 __security_check_cookie
  0011c	48 8d a5 58 01
	00 00		 lea	 rsp, QWORD PTR [rbp+344]
  00123	5f		 pop	 rdi
  00124	5d		 pop	 rbp
  00125	c3		 ret	 0
?Create@CWall@Client@@SAPEAV12@PEAUID3D11Device@@PEAUID3D11DeviceContext@@@Z ENDP ; Client::CWall::Create
_TEXT	ENDS
;	COMDAT text$x
text$x	SEGMENT
pInstance$ = 8
$T4 = 232
$T5 = 264
$T6 = 296
tv84 = 312
__$ArrayPad$ = 320
pDevice$ = 368
pContext$ = 376
?dtor$0@?0??Create@CWall@Client@@SAPEAV12@PEAUID3D11Device@@PEAUID3D11DeviceContext@@@Z@4HA PROC ; `Client::CWall::Create'::`1'::dtor$0
  00000	48 89 4c 24 08	 mov	 QWORD PTR [rsp+8], rcx
  00005	48 89 54 24 10	 mov	 QWORD PTR [rsp+16], rdx
  0000a	55		 push	 rbp
  0000b	57		 push	 rdi
  0000c	48 83 ec 28	 sub	 rsp, 40			; 00000028H
  00010	48 8d 6a 20	 lea	 rbp, QWORD PTR [rdx+32]
  00014	44 8b 0d 00 00
	00 00		 mov	 r9d, DWORD PTR ?__LINE__Var@?0??Create@CWall@Client@@SAPEAV23@PEAUID3D11Device@@PEAUID3D11DeviceContext@@@Z@4JA
  0001b	41 ff c1	 inc	 r9d
  0001e	4c 8d 05 00 00
	00 00		 lea	 r8, OFFSET FLAT:??_C@_0CM@EJHFMJKP@c?3?2github?2framework?2client?2priva@
  00025	ba 01 00 00 00	 mov	 edx, 1
  0002a	48 8b 8d 08 01
	00 00		 mov	 rcx, QWORD PTR $T5[rbp]
  00031	e8 00 00 00 00	 call	 ??3@YAXPEAXHPEBDH@Z	; operator delete
  00036	48 83 c4 28	 add	 rsp, 40			; 00000028H
  0003a	5f		 pop	 rdi
  0003b	5d		 pop	 rbp
  0003c	c3		 ret	 0
?dtor$0@?0??Create@CWall@Client@@SAPEAV12@PEAUID3D11Device@@PEAUID3D11DeviceContext@@@Z@4HA ENDP ; `Client::CWall::Create'::`1'::dtor$0
text$x	ENDS
; Function compile flags: /Odtp /RTCsu /ZI
;	COMDAT text$x
text$x	SEGMENT
pInstance$ = 8
$T4 = 232
$T5 = 264
$T6 = 296
tv84 = 312
__$ArrayPad$ = 320
pDevice$ = 368
pContext$ = 376
?dtor$0@?0??Create@CWall@Client@@SAPEAV12@PEAUID3D11Device@@PEAUID3D11DeviceContext@@@Z@4HA PROC ; `Client::CWall::Create'::`1'::dtor$0
  00000	48 89 4c 24 08	 mov	 QWORD PTR [rsp+8], rcx
  00005	48 89 54 24 10	 mov	 QWORD PTR [rsp+16], rdx
  0000a	55		 push	 rbp
  0000b	57		 push	 rdi
  0000c	48 83 ec 28	 sub	 rsp, 40			; 00000028H
  00010	48 8d 6a 20	 lea	 rbp, QWORD PTR [rdx+32]
  00014	44 8b 0d 00 00
	00 00		 mov	 r9d, DWORD PTR ?__LINE__Var@?0??Create@CWall@Client@@SAPEAV23@PEAUID3D11Device@@PEAUID3D11DeviceContext@@@Z@4JA
  0001b	41 ff c1	 inc	 r9d
  0001e	4c 8d 05 00 00
	00 00		 lea	 r8, OFFSET FLAT:??_C@_0CM@EJHFMJKP@c?3?2github?2framework?2client?2priva@
  00025	ba 01 00 00 00	 mov	 edx, 1
  0002a	48 8b 8d 08 01
	00 00		 mov	 rcx, QWORD PTR $T5[rbp]
  00031	e8 00 00 00 00	 call	 ??3@YAXPEAXHPEBDH@Z	; operator delete
  00036	48 83 c4 28	 add	 rsp, 40			; 00000028H
  0003a	5f		 pop	 rdi
  0003b	5d		 pop	 rbp
  0003c	c3		 ret	 0
?dtor$0@?0??Create@CWall@Client@@SAPEAV12@PEAUID3D11Device@@PEAUID3D11DeviceContext@@@Z@4HA ENDP ; `Client::CWall::Create'::`1'::dtor$0
text$x	ENDS
; Function compile flags: /Odtp /RTCsu /ZI
; File c:\github\framework\client\private\wall.cpp
;	COMDAT ?AddComponents_GamePlay@CWall@Client@@AEAAJXZ
_TEXT	SEGMENT
pGameInstance$ = 8
TransformDesc$ = 40
collDesc$ = 72
$T5 = 352
$T6 = 388
$T7 = 420
$T8 = 452
$T9 = 496
__$ArrayPad$ = 520
this$ = 560
?AddComponents_GamePlay@CWall@Client@@AEAAJXZ PROC	; Client::CWall::AddComponents_GamePlay, COMDAT

; 196  : {

$LN5:
  00000	48 89 4c 24 08	 mov	 QWORD PTR [rsp+8], rcx
  00005	55		 push	 rbp
  00006	57		 push	 rdi
  00007	48 81 ec 48 02
	00 00		 sub	 rsp, 584		; 00000248H
  0000e	48 8d 6c 24 30	 lea	 rbp, QWORD PTR [rsp+48]
  00013	48 8b fc	 mov	 rdi, rsp
  00016	b9 92 00 00 00	 mov	 ecx, 146		; 00000092H
  0001b	b8 cc cc cc cc	 mov	 eax, -858993460		; ccccccccH
  00020	f3 ab		 rep stosd
  00022	48 8b 8c 24 68
	02 00 00	 mov	 rcx, QWORD PTR [rsp+616]
  0002a	48 8b 05 00 00
	00 00		 mov	 rax, QWORD PTR __security_cookie
  00031	48 33 c5	 xor	 rax, rbp
  00034	48 89 85 08 02
	00 00		 mov	 QWORD PTR __$ArrayPad$[rbp], rax

; 197  : 	CGameInstance* pGameInstance = CGameInstance::GetInstance();

  0003b	ff 15 00 00 00
	00		 call	 QWORD PTR __imp_?GetInstance@CGameInstance@Engine@@SAPEAV12@XZ
  00041	48 89 45 08	 mov	 QWORD PTR pGameInstance$[rbp], rax

; 198  : 
; 199  : 	CTransform::TRANSFORM_DESC TransformDesc;
; 200  : 	ZeroMemory(&TransformDesc, sizeof(CTransform::TRANSFORM_DESC));

  00045	41 b8 08 00 00
	00		 mov	 r8d, 8
  0004b	33 d2		 xor	 edx, edx
  0004d	48 8d 4d 28	 lea	 rcx, QWORD PTR TransformDesc$[rbp]
  00051	e8 00 00 00 00	 call	 memset

; 201  : 
; 202  : 	TransformDesc.fMoveSpeed = 0.0f;

  00056	0f 57 c0	 xorps	 xmm0, xmm0
  00059	f3 0f 11 45 28	 movss	 DWORD PTR TransformDesc$[rbp], xmm0

; 203  : 	TransformDesc.fRotationSpeed = XMConvertToRadians(0.0f);

  0005e	0f 57 c0	 xorps	 xmm0, xmm0
  00061	e8 00 00 00 00	 call	 ?XMConvertToRadians@DirectX@@YAMM@Z ; DirectX::XMConvertToRadians
  00066	f3 0f 11 45 2c	 movss	 DWORD PTR TransformDesc$[rbp+4], xmm0

; 204  : 
; 205  : 	if (FAILED(CGameObject::Add_Component(LEVEL_STATIC, TEXT("proto_com_transform"), TEXT("com_transform"), (CComponent**)&m_pTransform, &TransformDesc)))

  0006b	48 8b 85 30 02
	00 00		 mov	 rax, QWORD PTR this$[rbp]
  00072	48 05 80 00 00
	00		 add	 rax, 128		; 00000080H
  00078	48 8d 4d 28	 lea	 rcx, QWORD PTR TransformDesc$[rbp]
  0007c	48 89 4c 24 28	 mov	 QWORD PTR [rsp+40], rcx
  00081	48 89 44 24 20	 mov	 QWORD PTR [rsp+32], rax
  00086	4c 8d 0d 00 00
	00 00		 lea	 r9, OFFSET FLAT:??_C@_1BM@CJMPMHDD@?$AAc?$AAo?$AAm?$AA_?$AAt?$AAr?$AAa?$AAn?$AAs?$AAf?$AAo?$AAr?$AAm?$AA?$AA@
  0008d	4c 8d 05 00 00
	00 00		 lea	 r8, OFFSET FLAT:??_C@_1CI@MLEFGO@?$AAp?$AAr?$AAo?$AAt?$AAo?$AA_?$AAc?$AAo?$AAm?$AA_?$AAt?$AAr?$AAa?$AAn?$AAs?$AAf?$AAo?$AAr?$AAm?$AA?$AA@
  00094	33 d2		 xor	 edx, edx
  00096	48 8b 8d 30 02
	00 00		 mov	 rcx, QWORD PTR this$[rbp]
  0009d	ff 15 00 00 00
	00		 call	 QWORD PTR __imp_?Add_Component@CGameObject@Engine@@IEAAJIPEB_W0PEAPEAVCComponent@2@PEAX@Z
  000a3	85 c0		 test	 eax, eax
  000a5	7d 0a		 jge	 SHORT $LN2@AddCompone

; 206  : 		return E_FAIL;

  000a7	b8 05 40 00 80	 mov	 eax, -2147467259	; ffffffff80004005H
  000ac	e9 47 01 00 00	 jmp	 $LN1@AddCompone
$LN2@AddCompone:

; 207  : 
; 208  : 	m_pTransform->Set_State(CTransform::STATE_POSITION, XMVectorSet(31.5f, 0.f, 19.5f, 1.f));

  000b1	f3 0f 10 1d 00
	00 00 00	 movss	 xmm3, DWORD PTR __real@3f800000
  000b9	f3 0f 10 15 00
	00 00 00	 movss	 xmm2, DWORD PTR __real@419c0000
  000c1	0f 57 c9	 xorps	 xmm1, xmm1
  000c4	f3 0f 10 05 00
	00 00 00	 movss	 xmm0, DWORD PTR __real@41fc0000
  000cc	e8 00 00 00 00	 call	 ?XMVectorSet@DirectX@@YQ?AT__m128@@MMMM@Z ; DirectX::XMVectorSet
  000d1	0f 29 85 60 01
	00 00		 movaps	 XMMWORD PTR $T5[rbp], xmm0
  000d8	0f 28 85 60 01
	00 00		 movaps	 xmm0, XMMWORD PTR $T5[rbp]
  000df	0f 29 85 f0 01
	00 00		 movaps	 XMMWORD PTR $T9[rbp], xmm0
  000e6	4c 8d 85 f0 01
	00 00		 lea	 r8, QWORD PTR $T9[rbp]
  000ed	ba 03 00 00 00	 mov	 edx, 3
  000f2	48 8b 85 30 02
	00 00		 mov	 rax, QWORD PTR this$[rbp]
  000f9	48 8b 88 80 00
	00 00		 mov	 rcx, QWORD PTR [rax+128]
  00100	ff 15 00 00 00
	00		 call	 QWORD PTR __imp_?Set_State@CTransform@Engine@@QEAAXW4STATE@12@T__m128@@@Z

; 209  : 
; 210  : 	CCollider::COLLIDER_DESC collDesc;

  00106	48 8d 4d 48	 lea	 rcx, QWORD PTR collDesc$[rbp]
  0010a	e8 00 00 00 00	 call	 ??0tagColliderDesc@CCollider@Engine@@QEAA@XZ

; 211  : 	collDesc.owner = this;

  0010f	48 8b 85 30 02
	00 00		 mov	 rax, QWORD PTR this$[rbp]
  00116	48 89 45 48	 mov	 QWORD PTR collDesc$[rbp], rax

; 212  : 	collDesc.vCenter = _float3(0.f, 0.f, 0.f);

  0011a	0f 57 db	 xorps	 xmm3, xmm3
  0011d	0f 57 d2	 xorps	 xmm2, xmm2
  00120	0f 57 c9	 xorps	 xmm1, xmm1
  00123	48 8d 8d 84 01
	00 00		 lea	 rcx, QWORD PTR $T6[rbp]
  0012a	e8 00 00 00 00	 call	 ??0XMFLOAT3@DirectX@@QEAA@MMM@Z ; DirectX::XMFLOAT3::XMFLOAT3
  0012f	48 8b d0	 mov	 rdx, rax
  00132	48 8d 4d 50	 lea	 rcx, QWORD PTR collDesc$[rbp+8]
  00136	e8 00 00 00 00	 call	 ??4XMFLOAT3@DirectX@@QEAAAEAU01@AEBU01@@Z ; DirectX::XMFLOAT3::operator=

; 213  : 	collDesc.vExtents = _float3(1.f, 1.f, 1.f);

  0013b	f3 0f 10 1d 00
	00 00 00	 movss	 xmm3, DWORD PTR __real@3f800000
  00143	f3 0f 10 15 00
	00 00 00	 movss	 xmm2, DWORD PTR __real@3f800000
  0014b	f3 0f 10 0d 00
	00 00 00	 movss	 xmm1, DWORD PTR __real@3f800000
  00153	48 8d 8d a4 01
	00 00		 lea	 rcx, QWORD PTR $T7[rbp]
  0015a	e8 00 00 00 00	 call	 ??0XMFLOAT3@DirectX@@QEAA@MMM@Z ; DirectX::XMFLOAT3::XMFLOAT3
  0015f	48 8b d0	 mov	 rdx, rax
  00162	48 8d 4d 5c	 lea	 rcx, QWORD PTR collDesc$[rbp+20]
  00166	e8 00 00 00 00	 call	 ??4XMFLOAT3@DirectX@@QEAAAEAU01@AEBU01@@Z ; DirectX::XMFLOAT3::operator=

; 214  : 	collDesc.vRotation = _float3(0.f, 0.f, 0.f);

  0016b	0f 57 db	 xorps	 xmm3, xmm3
  0016e	0f 57 d2	 xorps	 xmm2, xmm2
  00171	0f 57 c9	 xorps	 xmm1, xmm1
  00174	48 8d 8d c4 01
	00 00		 lea	 rcx, QWORD PTR $T8[rbp]
  0017b	e8 00 00 00 00	 call	 ??0XMFLOAT3@DirectX@@QEAA@MMM@Z ; DirectX::XMFLOAT3::XMFLOAT3
  00180	48 8b d0	 mov	 rdx, rax
  00183	48 8d 4d 68	 lea	 rcx, QWORD PTR collDesc$[rbp+32]
  00187	e8 00 00 00 00	 call	 ??4XMFLOAT3@DirectX@@QEAAAEAU01@AEBU01@@Z ; DirectX::XMFLOAT3::operator=

; 215  : 
; 216  : 	if (FAILED(CGameObject::Add_Component(LEVEL_GAMEPLAY, TEXT("proto_com_obb_collider"), TEXT("com_collider"), (CComponent**)&m_pCollider, &collDesc)))

  0018c	48 8b 85 30 02
	00 00		 mov	 rax, QWORD PTR this$[rbp]
  00193	48 83 c0 78	 add	 rax, 120		; 00000078H
  00197	48 8d 4d 48	 lea	 rcx, QWORD PTR collDesc$[rbp]
  0019b	48 89 4c 24 28	 mov	 QWORD PTR [rsp+40], rcx
  001a0	48 89 44 24 20	 mov	 QWORD PTR [rsp+32], rax
  001a5	4c 8d 0d 00 00
	00 00		 lea	 r9, OFFSET FLAT:??_C@_1BK@BKCENIHA@?$AAc?$AAo?$AAm?$AA_?$AAc?$AAo?$AAl?$AAl?$AAi?$AAd?$AAe?$AAr?$AA?$AA@
  001ac	4c 8d 05 00 00
	00 00		 lea	 r8, OFFSET FLAT:??_C@_1CO@HJBGOIAH@?$AAp?$AAr?$AAo?$AAt?$AAo?$AA_?$AAc?$AAo?$AAm?$AA_?$AAo?$AAb?$AAb?$AA_?$AAc?$AAo?$AAl?$AAl?$AAi?$AAd?$AAe?$AAr?$AA?$AA@
  001b3	ba 03 00 00 00	 mov	 edx, 3
  001b8	48 8b 8d 30 02
	00 00		 mov	 rcx, QWORD PTR this$[rbp]
  001bf	ff 15 00 00 00
	00		 call	 QWORD PTR __imp_?Add_Component@CGameObject@Engine@@IEAAJIPEB_W0PEAPEAVCComponent@2@PEAX@Z
  001c5	85 c0		 test	 eax, eax
  001c7	7d 07		 jge	 SHORT $LN3@AddCompone

; 217  : 		return E_FAIL;

  001c9	b8 05 40 00 80	 mov	 eax, -2147467259	; ffffffff80004005H
  001ce	eb 28		 jmp	 SHORT $LN1@AddCompone
$LN3@AddCompone:

; 218  : 
; 219  : 	m_pCollider->SetVisible(true);

  001d0	b2 01		 mov	 dl, 1
  001d2	48 8b 85 30 02
	00 00		 mov	 rax, QWORD PTR this$[rbp]
  001d9	48 8b 48 78	 mov	 rcx, QWORD PTR [rax+120]
  001dd	ff 15 00 00 00
	00		 call	 QWORD PTR __imp_?SetVisible@CCollider@Engine@@QEAAX_N@Z

; 220  : 	m_pCollider->SetActive(true);

  001e3	b2 01		 mov	 dl, 1
  001e5	48 8b 85 30 02
	00 00		 mov	 rax, QWORD PTR this$[rbp]
  001ec	48 8b 48 78	 mov	 rcx, QWORD PTR [rax+120]
  001f0	ff 15 00 00 00
	00		 call	 QWORD PTR __imp_?SetActive@CCollider@Engine@@QEAAX_N@Z

; 221  : 
; 222  : 	return S_OK;

  001f6	33 c0		 xor	 eax, eax
$LN1@AddCompone:

; 223  : }

  001f8	48 8b f8	 mov	 rdi, rax
  001fb	48 8d 4d d0	 lea	 rcx, QWORD PTR [rbp-48]
  001ff	48 8d 15 00 00
	00 00		 lea	 rdx, OFFSET FLAT:?AddComponents_GamePlay@CWall@Client@@AEAAJXZ$rtcFrameData
  00206	e8 00 00 00 00	 call	 _RTC_CheckStackVars
  0020b	48 8b c7	 mov	 rax, rdi
  0020e	48 8b 8d 08 02
	00 00		 mov	 rcx, QWORD PTR __$ArrayPad$[rbp]
  00215	48 33 cd	 xor	 rcx, rbp
  00218	e8 00 00 00 00	 call	 __security_check_cookie
  0021d	48 8d a5 18 02
	00 00		 lea	 rsp, QWORD PTR [rbp+536]
  00224	5f		 pop	 rdi
  00225	5d		 pop	 rbp
  00226	c3		 ret	 0
?AddComponents_GamePlay@CWall@Client@@AEAAJXZ ENDP	; Client::CWall::AddComponents_GamePlay
_TEXT	ENDS
; Function compile flags: /Odtp /RTCsu /ZI
; File c:\github\framework\client\private\wall.cpp
;	COMDAT ?AddComponents@CWall@Client@@AEAAJXZ
_TEXT	SEGMENT
pGameInstance$ = 8
TransformDesc$ = 40
collDesc$ = 72
$T5 = 352
$T6 = 388
$T7 = 420
$T8 = 452
$T9 = 496
__$ArrayPad$ = 520
this$ = 560
?AddComponents@CWall@Client@@AEAAJXZ PROC		; Client::CWall::AddComponents, COMDAT

; 166  : {

$LN5:
  00000	48 89 4c 24 08	 mov	 QWORD PTR [rsp+8], rcx
  00005	55		 push	 rbp
  00006	57		 push	 rdi
  00007	48 81 ec 48 02
	00 00		 sub	 rsp, 584		; 00000248H
  0000e	48 8d 6c 24 30	 lea	 rbp, QWORD PTR [rsp+48]
  00013	48 8b fc	 mov	 rdi, rsp
  00016	b9 92 00 00 00	 mov	 ecx, 146		; 00000092H
  0001b	b8 cc cc cc cc	 mov	 eax, -858993460		; ccccccccH
  00020	f3 ab		 rep stosd
  00022	48 8b 8c 24 68
	02 00 00	 mov	 rcx, QWORD PTR [rsp+616]
  0002a	48 8b 05 00 00
	00 00		 mov	 rax, QWORD PTR __security_cookie
  00031	48 33 c5	 xor	 rax, rbp
  00034	48 89 85 08 02
	00 00		 mov	 QWORD PTR __$ArrayPad$[rbp], rax

; 167  : 	CGameInstance* pGameInstance = CGameInstance::GetInstance();

  0003b	ff 15 00 00 00
	00		 call	 QWORD PTR __imp_?GetInstance@CGameInstance@Engine@@SAPEAV12@XZ
  00041	48 89 45 08	 mov	 QWORD PTR pGameInstance$[rbp], rax

; 168  : 
; 169  : 	CTransform::TRANSFORM_DESC TransformDesc;
; 170  : 	ZeroMemory(&TransformDesc, sizeof(CTransform::TRANSFORM_DESC));

  00045	41 b8 08 00 00
	00		 mov	 r8d, 8
  0004b	33 d2		 xor	 edx, edx
  0004d	48 8d 4d 28	 lea	 rcx, QWORD PTR TransformDesc$[rbp]
  00051	e8 00 00 00 00	 call	 memset

; 171  : 
; 172  : 	TransformDesc.fMoveSpeed = 0.0f;

  00056	0f 57 c0	 xorps	 xmm0, xmm0
  00059	f3 0f 11 45 28	 movss	 DWORD PTR TransformDesc$[rbp], xmm0

; 173  : 	TransformDesc.fRotationSpeed = XMConvertToRadians(0.0f);

  0005e	0f 57 c0	 xorps	 xmm0, xmm0
  00061	e8 00 00 00 00	 call	 ?XMConvertToRadians@DirectX@@YAMM@Z ; DirectX::XMConvertToRadians
  00066	f3 0f 11 45 2c	 movss	 DWORD PTR TransformDesc$[rbp+4], xmm0

; 174  : 
; 175  : 	if (FAILED(CGameObject::Add_Component(LEVEL_STATIC, TEXT("proto_com_transform"), TEXT("com_transform"), (CComponent**)&m_pTransform, &TransformDesc)))

  0006b	48 8b 85 30 02
	00 00		 mov	 rax, QWORD PTR this$[rbp]
  00072	48 05 80 00 00
	00		 add	 rax, 128		; 00000080H
  00078	48 8d 4d 28	 lea	 rcx, QWORD PTR TransformDesc$[rbp]
  0007c	48 89 4c 24 28	 mov	 QWORD PTR [rsp+40], rcx
  00081	48 89 44 24 20	 mov	 QWORD PTR [rsp+32], rax
  00086	4c 8d 0d 00 00
	00 00		 lea	 r9, OFFSET FLAT:??_C@_1BM@CJMPMHDD@?$AAc?$AAo?$AAm?$AA_?$AAt?$AAr?$AAa?$AAn?$AAs?$AAf?$AAo?$AAr?$AAm?$AA?$AA@
  0008d	4c 8d 05 00 00
	00 00		 lea	 r8, OFFSET FLAT:??_C@_1CI@MLEFGO@?$AAp?$AAr?$AAo?$AAt?$AAo?$AA_?$AAc?$AAo?$AAm?$AA_?$AAt?$AAr?$AAa?$AAn?$AAs?$AAf?$AAo?$AAr?$AAm?$AA?$AA@
  00094	33 d2		 xor	 edx, edx
  00096	48 8b 8d 30 02
	00 00		 mov	 rcx, QWORD PTR this$[rbp]
  0009d	ff 15 00 00 00
	00		 call	 QWORD PTR __imp_?Add_Component@CGameObject@Engine@@IEAAJIPEB_W0PEAPEAVCComponent@2@PEAX@Z
  000a3	85 c0		 test	 eax, eax
  000a5	7d 0a		 jge	 SHORT $LN2@AddCompone

; 176  : 		return E_FAIL;

  000a7	b8 05 40 00 80	 mov	 eax, -2147467259	; ffffffff80004005H
  000ac	e9 47 01 00 00	 jmp	 $LN1@AddCompone
$LN2@AddCompone:

; 177  : 
; 178  : 	m_pTransform->Set_State(CTransform::STATE_POSITION, XMVectorSet(31.5f, 0.f, 19.5f, 1.f));

  000b1	f3 0f 10 1d 00
	00 00 00	 movss	 xmm3, DWORD PTR __real@3f800000
  000b9	f3 0f 10 15 00
	00 00 00	 movss	 xmm2, DWORD PTR __real@419c0000
  000c1	0f 57 c9	 xorps	 xmm1, xmm1
  000c4	f3 0f 10 05 00
	00 00 00	 movss	 xmm0, DWORD PTR __real@41fc0000
  000cc	e8 00 00 00 00	 call	 ?XMVectorSet@DirectX@@YQ?AT__m128@@MMMM@Z ; DirectX::XMVectorSet
  000d1	0f 29 85 60 01
	00 00		 movaps	 XMMWORD PTR $T5[rbp], xmm0
  000d8	0f 28 85 60 01
	00 00		 movaps	 xmm0, XMMWORD PTR $T5[rbp]
  000df	0f 29 85 f0 01
	00 00		 movaps	 XMMWORD PTR $T9[rbp], xmm0
  000e6	4c 8d 85 f0 01
	00 00		 lea	 r8, QWORD PTR $T9[rbp]
  000ed	ba 03 00 00 00	 mov	 edx, 3
  000f2	48 8b 85 30 02
	00 00		 mov	 rax, QWORD PTR this$[rbp]
  000f9	48 8b 88 80 00
	00 00		 mov	 rcx, QWORD PTR [rax+128]
  00100	ff 15 00 00 00
	00		 call	 QWORD PTR __imp_?Set_State@CTransform@Engine@@QEAAXW4STATE@12@T__m128@@@Z

; 179  : 
; 180  : 	CCollider::COLLIDER_DESC collDesc;

  00106	48 8d 4d 48	 lea	 rcx, QWORD PTR collDesc$[rbp]
  0010a	e8 00 00 00 00	 call	 ??0tagColliderDesc@CCollider@Engine@@QEAA@XZ

; 181  : 	collDesc.owner = this;

  0010f	48 8b 85 30 02
	00 00		 mov	 rax, QWORD PTR this$[rbp]
  00116	48 89 45 48	 mov	 QWORD PTR collDesc$[rbp], rax

; 182  : 	collDesc.vCenter = _float3(0.f, 0.f, 0.f);

  0011a	0f 57 db	 xorps	 xmm3, xmm3
  0011d	0f 57 d2	 xorps	 xmm2, xmm2
  00120	0f 57 c9	 xorps	 xmm1, xmm1
  00123	48 8d 8d 84 01
	00 00		 lea	 rcx, QWORD PTR $T6[rbp]
  0012a	e8 00 00 00 00	 call	 ??0XMFLOAT3@DirectX@@QEAA@MMM@Z ; DirectX::XMFLOAT3::XMFLOAT3
  0012f	48 8b d0	 mov	 rdx, rax
  00132	48 8d 4d 50	 lea	 rcx, QWORD PTR collDesc$[rbp+8]
  00136	e8 00 00 00 00	 call	 ??4XMFLOAT3@DirectX@@QEAAAEAU01@AEBU01@@Z ; DirectX::XMFLOAT3::operator=

; 183  : 	collDesc.vExtents = _float3(1.f, 1.f, 1.f);

  0013b	f3 0f 10 1d 00
	00 00 00	 movss	 xmm3, DWORD PTR __real@3f800000
  00143	f3 0f 10 15 00
	00 00 00	 movss	 xmm2, DWORD PTR __real@3f800000
  0014b	f3 0f 10 0d 00
	00 00 00	 movss	 xmm1, DWORD PTR __real@3f800000
  00153	48 8d 8d a4 01
	00 00		 lea	 rcx, QWORD PTR $T7[rbp]
  0015a	e8 00 00 00 00	 call	 ??0XMFLOAT3@DirectX@@QEAA@MMM@Z ; DirectX::XMFLOAT3::XMFLOAT3
  0015f	48 8b d0	 mov	 rdx, rax
  00162	48 8d 4d 5c	 lea	 rcx, QWORD PTR collDesc$[rbp+20]
  00166	e8 00 00 00 00	 call	 ??4XMFLOAT3@DirectX@@QEAAAEAU01@AEBU01@@Z ; DirectX::XMFLOAT3::operator=

; 184  : 	collDesc.vRotation = _float3(0.f, 0.f, 0.f);

  0016b	0f 57 db	 xorps	 xmm3, xmm3
  0016e	0f 57 d2	 xorps	 xmm2, xmm2
  00171	0f 57 c9	 xorps	 xmm1, xmm1
  00174	48 8d 8d c4 01
	00 00		 lea	 rcx, QWORD PTR $T8[rbp]
  0017b	e8 00 00 00 00	 call	 ??0XMFLOAT3@DirectX@@QEAA@MMM@Z ; DirectX::XMFLOAT3::XMFLOAT3
  00180	48 8b d0	 mov	 rdx, rax
  00183	48 8d 4d 68	 lea	 rcx, QWORD PTR collDesc$[rbp+32]
  00187	e8 00 00 00 00	 call	 ??4XMFLOAT3@DirectX@@QEAAAEAU01@AEBU01@@Z ; DirectX::XMFLOAT3::operator=

; 185  : 
; 186  : 	if (FAILED(CGameObject::Add_Component(LEVEL_BOSS, TEXT("proto_com_obb_collider"), TEXT("com_collider"), (CComponent**)&m_pCollider, &collDesc)))

  0018c	48 8b 85 30 02
	00 00		 mov	 rax, QWORD PTR this$[rbp]
  00193	48 83 c0 78	 add	 rax, 120		; 00000078H
  00197	48 8d 4d 48	 lea	 rcx, QWORD PTR collDesc$[rbp]
  0019b	48 89 4c 24 28	 mov	 QWORD PTR [rsp+40], rcx
  001a0	48 89 44 24 20	 mov	 QWORD PTR [rsp+32], rax
  001a5	4c 8d 0d 00 00
	00 00		 lea	 r9, OFFSET FLAT:??_C@_1BK@BKCENIHA@?$AAc?$AAo?$AAm?$AA_?$AAc?$AAo?$AAl?$AAl?$AAi?$AAd?$AAe?$AAr?$AA?$AA@
  001ac	4c 8d 05 00 00
	00 00		 lea	 r8, OFFSET FLAT:??_C@_1CO@HJBGOIAH@?$AAp?$AAr?$AAo?$AAt?$AAo?$AA_?$AAc?$AAo?$AAm?$AA_?$AAo?$AAb?$AAb?$AA_?$AAc?$AAo?$AAl?$AAl?$AAi?$AAd?$AAe?$AAr?$AA?$AA@
  001b3	ba 04 00 00 00	 mov	 edx, 4
  001b8	48 8b 8d 30 02
	00 00		 mov	 rcx, QWORD PTR this$[rbp]
  001bf	ff 15 00 00 00
	00		 call	 QWORD PTR __imp_?Add_Component@CGameObject@Engine@@IEAAJIPEB_W0PEAPEAVCComponent@2@PEAX@Z
  001c5	85 c0		 test	 eax, eax
  001c7	7d 07		 jge	 SHORT $LN3@AddCompone

; 187  : 		return E_FAIL;

  001c9	b8 05 40 00 80	 mov	 eax, -2147467259	; ffffffff80004005H
  001ce	eb 28		 jmp	 SHORT $LN1@AddCompone
$LN3@AddCompone:

; 188  : 
; 189  : 	m_pCollider->SetVisible(true);

  001d0	b2 01		 mov	 dl, 1
  001d2	48 8b 85 30 02
	00 00		 mov	 rax, QWORD PTR this$[rbp]
  001d9	48 8b 48 78	 mov	 rcx, QWORD PTR [rax+120]
  001dd	ff 15 00 00 00
	00		 call	 QWORD PTR __imp_?SetVisible@CCollider@Engine@@QEAAX_N@Z

; 190  : 	m_pCollider->SetActive(true);

  001e3	b2 01		 mov	 dl, 1
  001e5	48 8b 85 30 02
	00 00		 mov	 rax, QWORD PTR this$[rbp]
  001ec	48 8b 48 78	 mov	 rcx, QWORD PTR [rax+120]
  001f0	ff 15 00 00 00
	00		 call	 QWORD PTR __imp_?SetActive@CCollider@Engine@@QEAAX_N@Z

; 191  : 
; 192  : 	return S_OK;

  001f6	33 c0		 xor	 eax, eax
$LN1@AddCompone:

; 193  : }

  001f8	48 8b f8	 mov	 rdi, rax
  001fb	48 8d 4d d0	 lea	 rcx, QWORD PTR [rbp-48]
  001ff	48 8d 15 00 00
	00 00		 lea	 rdx, OFFSET FLAT:?AddComponents@CWall@Client@@AEAAJXZ$rtcFrameData
  00206	e8 00 00 00 00	 call	 _RTC_CheckStackVars
  0020b	48 8b c7	 mov	 rax, rdi
  0020e	48 8b 8d 08 02
	00 00		 mov	 rcx, QWORD PTR __$ArrayPad$[rbp]
  00215	48 33 cd	 xor	 rcx, rbp
  00218	e8 00 00 00 00	 call	 __security_check_cookie
  0021d	48 8d a5 18 02
	00 00		 lea	 rsp, QWORD PTR [rbp+536]
  00224	5f		 pop	 rdi
  00225	5d		 pop	 rbp
  00226	c3		 ret	 0
?AddComponents@CWall@Client@@AEAAJXZ ENDP		; Client::CWall::AddComponents
_TEXT	ENDS
; Function compile flags: /Odtp /RTCsu /ZI
; File c:\github\framework\client\private\wall.cpp
;	COMDAT ?SetPosition@CWall@Client@@QEAAXUXMFLOAT3@DirectX@@@Z
_TEXT	SEGMENT
$T1 = 208
$T2 = 256
this$ = 320
vPosition$ = 328
?SetPosition@CWall@Client@@QEAAXUXMFLOAT3@DirectX@@@Z PROC ; Client::CWall::SetPosition, COMDAT

; 159  : {

$LN3:
  00000	48 89 54 24 10	 mov	 QWORD PTR [rsp+16], rdx
  00005	48 89 4c 24 08	 mov	 QWORD PTR [rsp+8], rcx
  0000a	55		 push	 rbp
  0000b	57		 push	 rdi
  0000c	48 81 ec 48 01
	00 00		 sub	 rsp, 328		; 00000148H
  00013	48 8d 6c 24 20	 lea	 rbp, QWORD PTR [rsp+32]
  00018	48 8b fc	 mov	 rdi, rsp
  0001b	b9 52 00 00 00	 mov	 ecx, 82			; 00000052H
  00020	b8 cc cc cc cc	 mov	 eax, -858993460		; ccccccccH
  00025	f3 ab		 rep stosd
  00027	48 8b 8c 24 68
	01 00 00	 mov	 rcx, QWORD PTR [rsp+360]

; 160  : 	m_CubeDesc.vPosition = vPosition;

  0002f	48 8b 85 40 01
	00 00		 mov	 rax, QWORD PTR this$[rbp]
  00036	48 05 a0 00 00
	00		 add	 rax, 160		; 000000a0H
  0003c	48 8b 95 48 01
	00 00		 mov	 rdx, QWORD PTR vPosition$[rbp]
  00043	48 8b c8	 mov	 rcx, rax
  00046	e8 00 00 00 00	 call	 ??4XMFLOAT3@DirectX@@QEAAAEAU01@AEBU01@@Z ; DirectX::XMFLOAT3::operator=

; 161  : 	m_pTransform->Set_State(CTransform::STATE_POSITION, XMLoadFloat3(&m_CubeDesc.vPosition));

  0004b	48 8b 85 40 01
	00 00		 mov	 rax, QWORD PTR this$[rbp]
  00052	48 05 a0 00 00
	00		 add	 rax, 160		; 000000a0H
  00058	48 8b c8	 mov	 rcx, rax
  0005b	e8 00 00 00 00	 call	 ?XMLoadFloat3@DirectX@@YQ?AT__m128@@PEBUXMFLOAT3@1@@Z ; DirectX::XMLoadFloat3
  00060	0f 29 85 d0 00
	00 00		 movaps	 XMMWORD PTR $T1[rbp], xmm0
  00067	0f 28 85 d0 00
	00 00		 movaps	 xmm0, XMMWORD PTR $T1[rbp]
  0006e	0f 29 85 00 01
	00 00		 movaps	 XMMWORD PTR $T2[rbp], xmm0
  00075	4c 8d 85 00 01
	00 00		 lea	 r8, QWORD PTR $T2[rbp]
  0007c	ba 03 00 00 00	 mov	 edx, 3
  00081	48 8b 85 40 01
	00 00		 mov	 rax, QWORD PTR this$[rbp]
  00088	48 8b 88 80 00
	00 00		 mov	 rcx, QWORD PTR [rax+128]
  0008f	ff 15 00 00 00
	00		 call	 QWORD PTR __imp_?Set_State@CTransform@Engine@@QEAAXW4STATE@12@T__m128@@@Z

; 162  : }

  00095	48 8d a5 28 01
	00 00		 lea	 rsp, QWORD PTR [rbp+296]
  0009c	5f		 pop	 rdi
  0009d	5d		 pop	 rbp
  0009e	c3		 ret	 0
?SetPosition@CWall@Client@@QEAAXUXMFLOAT3@DirectX@@@Z ENDP ; Client::CWall::SetPosition
_TEXT	ENDS
; Function compile flags: /Odtp /RTCsu /ZI
; File c:\github\framework\client\private\wall.cpp
;	COMDAT ?SetRotation@CWall@Client@@QEAAXUXMFLOAT3@DirectX@@@Z
_TEXT	SEGMENT
$T1 = 208
this$ = 272
vRotation$ = 280
?SetRotation@CWall@Client@@QEAAXUXMFLOAT3@DirectX@@@Z PROC ; Client::CWall::SetRotation, COMDAT

; 153  : {

$LN3:
  00000	48 89 54 24 10	 mov	 QWORD PTR [rsp+16], rdx
  00005	48 89 4c 24 08	 mov	 QWORD PTR [rsp+8], rcx
  0000a	55		 push	 rbp
  0000b	56		 push	 rsi
  0000c	57		 push	 rdi
  0000d	48 81 ec 10 01
	00 00		 sub	 rsp, 272		; 00000110H
  00014	48 8d 6c 24 20	 lea	 rbp, QWORD PTR [rsp+32]
  00019	48 8b fc	 mov	 rdi, rsp
  0001c	b9 44 00 00 00	 mov	 ecx, 68			; 00000044H
  00021	b8 cc cc cc cc	 mov	 eax, -858993460		; ccccccccH
  00026	f3 ab		 rep stosd
  00028	48 8b 8c 24 38
	01 00 00	 mov	 rcx, QWORD PTR [rsp+312]

; 154  : 	m_CubeDesc.vRotation = vRotation;

  00030	48 8b 85 10 01
	00 00		 mov	 rax, QWORD PTR this$[rbp]
  00037	48 05 94 00 00
	00		 add	 rax, 148		; 00000094H
  0003d	48 8b 95 18 01
	00 00		 mov	 rdx, QWORD PTR vRotation$[rbp]
  00044	48 8b c8	 mov	 rcx, rax
  00047	e8 00 00 00 00	 call	 ??4XMFLOAT3@DirectX@@QEAAAEAU01@AEBU01@@Z ; DirectX::XMFLOAT3::operator=

; 155  : 	m_pTransform->SetRotationXYZ(m_CubeDesc.vRotation);

  0004c	48 8d 85 d0 00
	00 00		 lea	 rax, QWORD PTR $T1[rbp]
  00053	48 8b 8d 10 01
	00 00		 mov	 rcx, QWORD PTR this$[rbp]
  0005a	48 8b f8	 mov	 rdi, rax
  0005d	48 8d b1 94 00
	00 00		 lea	 rsi, QWORD PTR [rcx+148]
  00064	b9 0c 00 00 00	 mov	 ecx, 12
  00069	f3 a4		 rep movsb
  0006b	48 8d 95 d0 00
	00 00		 lea	 rdx, QWORD PTR $T1[rbp]
  00072	48 8b 85 10 01
	00 00		 mov	 rax, QWORD PTR this$[rbp]
  00079	48 8b 88 80 00
	00 00		 mov	 rcx, QWORD PTR [rax+128]
  00080	ff 15 00 00 00
	00		 call	 QWORD PTR __imp_?SetRotationXYZ@CTransform@Engine@@QEAAXUXMFLOAT3@DirectX@@@Z

; 156  : }

  00086	48 8d a5 f0 00
	00 00		 lea	 rsp, QWORD PTR [rbp+240]
  0008d	5f		 pop	 rdi
  0008e	5e		 pop	 rsi
  0008f	5d		 pop	 rbp
  00090	c3		 ret	 0
?SetRotation@CWall@Client@@QEAAXUXMFLOAT3@DirectX@@@Z ENDP ; Client::CWall::SetRotation
_TEXT	ENDS
; Function compile flags: /Odtp /RTCsu /ZI
; File c:\github\framework\client\private\wall.cpp
;	COMDAT ?SetScale@CWall@Client@@QEAAXUXMFLOAT3@DirectX@@@Z
_TEXT	SEGMENT
$T1 = 208
this$ = 272
vScale$ = 280
?SetScale@CWall@Client@@QEAAXUXMFLOAT3@DirectX@@@Z PROC	; Client::CWall::SetScale, COMDAT

; 147  : {

$LN3:
  00000	48 89 54 24 10	 mov	 QWORD PTR [rsp+16], rdx
  00005	48 89 4c 24 08	 mov	 QWORD PTR [rsp+8], rcx
  0000a	55		 push	 rbp
  0000b	56		 push	 rsi
  0000c	57		 push	 rdi
  0000d	48 81 ec 10 01
	00 00		 sub	 rsp, 272		; 00000110H
  00014	48 8d 6c 24 20	 lea	 rbp, QWORD PTR [rsp+32]
  00019	48 8b fc	 mov	 rdi, rsp
  0001c	b9 44 00 00 00	 mov	 ecx, 68			; 00000044H
  00021	b8 cc cc cc cc	 mov	 eax, -858993460		; ccccccccH
  00026	f3 ab		 rep stosd
  00028	48 8b 8c 24 38
	01 00 00	 mov	 rcx, QWORD PTR [rsp+312]

; 148  : 	m_CubeDesc.vScale = vScale;

  00030	48 8b 85 10 01
	00 00		 mov	 rax, QWORD PTR this$[rbp]
  00037	48 05 88 00 00
	00		 add	 rax, 136		; 00000088H
  0003d	48 8b 95 18 01
	00 00		 mov	 rdx, QWORD PTR vScale$[rbp]
  00044	48 8b c8	 mov	 rcx, rax
  00047	e8 00 00 00 00	 call	 ??4XMFLOAT3@DirectX@@QEAAAEAU01@AEBU01@@Z ; DirectX::XMFLOAT3::operator=

; 149  : 	m_pTransform->Set_Scale(m_CubeDesc.vScale);

  0004c	48 8d 85 d0 00
	00 00		 lea	 rax, QWORD PTR $T1[rbp]
  00053	48 8b 8d 10 01
	00 00		 mov	 rcx, QWORD PTR this$[rbp]
  0005a	48 8b f8	 mov	 rdi, rax
  0005d	48 8d b1 88 00
	00 00		 lea	 rsi, QWORD PTR [rcx+136]
  00064	b9 0c 00 00 00	 mov	 ecx, 12
  00069	f3 a4		 rep movsb
  0006b	48 8d 95 d0 00
	00 00		 lea	 rdx, QWORD PTR $T1[rbp]
  00072	48 8b 85 10 01
	00 00		 mov	 rax, QWORD PTR this$[rbp]
  00079	48 8b 88 80 00
	00 00		 mov	 rcx, QWORD PTR [rax+128]
  00080	ff 15 00 00 00
	00		 call	 QWORD PTR __imp_?Set_Scale@CTransform@Engine@@QEAAXUXMFLOAT3@DirectX@@@Z

; 150  : }

  00086	48 8d a5 f0 00
	00 00		 lea	 rsp, QWORD PTR [rbp+240]
  0008d	5f		 pop	 rdi
  0008e	5e		 pop	 rsi
  0008f	5d		 pop	 rbp
  00090	c3		 ret	 0
?SetScale@CWall@Client@@QEAAXUXMFLOAT3@DirectX@@@Z ENDP	; Client::CWall::SetScale
_TEXT	ENDS
; Function compile flags: /Odtp /RTCsu /ZI
; File c:\github\framework\client\private\wall.cpp
;	COMDAT ?GetNormal@CWall@Client@@QEAA?AT__m128@@T3@PEAM@Z
_TEXT	SEGMENT
vNormal$ = 16
fNear$ = 52
i$2 = 84
vDistance$3 = 128
vLength$4 = 164
$T5 = 592
$T6 = 640
$T7 = 688
$T8 = 736
$T9 = 784
$T10 = 832
$T11 = 880
$T12 = 928
$T13 = 976
$T14 = 1024
$T15 = 1072
$T16 = 1108
tv80 = 1124
this$ = 1168
__$ReturnUdt$ = 1176
vPosition$ = 1184
vLength_out$ = 1192
?GetNormal@CWall@Client@@QEAA?AT__m128@@T3@PEAM@Z PROC	; Client::CWall::GetNormal, COMDAT

; 110  : {

$LN15:
  00000	4c 89 4c 24 20	 mov	 QWORD PTR [rsp+32], r9
  00005	4c 89 44 24 18	 mov	 QWORD PTR [rsp+24], r8
  0000a	48 89 54 24 10	 mov	 QWORD PTR [rsp+16], rdx
  0000f	48 89 4c 24 08	 mov	 QWORD PTR [rsp+8], rcx
  00014	55		 push	 rbp
  00015	57		 push	 rdi
  00016	48 81 ec 98 04
	00 00		 sub	 rsp, 1176		; 00000498H
  0001d	48 8d 6c 24 20	 lea	 rbp, QWORD PTR [rsp+32]
  00022	48 8b fc	 mov	 rdi, rsp
  00025	b9 26 01 00 00	 mov	 ecx, 294		; 00000126H
  0002a	b8 cc cc cc cc	 mov	 eax, -858993460		; ccccccccH
  0002f	f3 ab		 rep stosd
  00031	48 8b 8c 24 b8
	04 00 00	 mov	 rcx, QWORD PTR [rsp+1208]
  00039	c6 85 54 04 00
	00 00		 mov	 BYTE PTR $T16[rbp], 0

; 111  : 	_vector vNormal;
; 112  : 
; 113  : 	_float fNear = FLT_MAX;

  00040	f3 0f 10 05 00
	00 00 00	 movss	 xmm0, DWORD PTR __real@7f7fffff
  00048	f3 0f 11 45 34	 movss	 DWORD PTR fNear$[rbp], xmm0

; 114  : 	for (_uint i = 0; i < 4; ++i)

  0004d	c7 45 54 00 00
	00 00		 mov	 DWORD PTR i$2[rbp], 0
  00054	eb 08		 jmp	 SHORT $LN4@GetNormal
$LN2@GetNormal:
  00056	8b 45 54	 mov	 eax, DWORD PTR i$2[rbp]
  00059	ff c0		 inc	 eax
  0005b	89 45 54	 mov	 DWORD PTR i$2[rbp], eax
$LN4@GetNormal:
  0005e	83 7d 54 04	 cmp	 DWORD PTR i$2[rbp], 4
  00062	0f 83 ba 01 00
	00		 jae	 $LN3@GetNormal

; 115  : 	{
; 116  : 		_vector vDistance = XMLoadFloat3(&m_vPlanePos[i]) - vPosition;

  00068	8b 45 54	 mov	 eax, DWORD PTR i$2[rbp]
  0006b	48 6b c0 0c	 imul	 rax, rax, 12
  0006f	48 8b 8d 90 04
	00 00		 mov	 rcx, QWORD PTR this$[rbp]
  00076	48 8d 84 01 ac
	00 00 00	 lea	 rax, QWORD PTR [rcx+rax+172]
  0007e	48 8b c8	 mov	 rcx, rax
  00081	e8 00 00 00 00	 call	 ?XMLoadFloat3@DirectX@@YQ?AT__m128@@PEBUXMFLOAT3@1@@Z ; DirectX::XMLoadFloat3
  00086	0f 29 85 80 02
	00 00		 movaps	 XMMWORD PTR $T6[rbp], xmm0
  0008d	48 8b 85 a0 04
	00 00		 mov	 rax, QWORD PTR vPosition$[rbp]
  00094	0f 10 08	 movups	 xmm1, XMMWORD PTR [rax]
  00097	0f 28 85 80 02
	00 00		 movaps	 xmm0, XMMWORD PTR $T6[rbp]
  0009e	e8 00 00 00 00	 call	 ??GDirectX@@YQ?AT__m128@@T1@0@Z ; DirectX::operator-
  000a3	0f 29 85 50 02
	00 00		 movaps	 XMMWORD PTR $T5[rbp], xmm0
  000aa	0f 28 85 50 02
	00 00		 movaps	 xmm0, XMMWORD PTR $T5[rbp]
  000b1	0f 29 85 80 00
	00 00		 movaps	 XMMWORD PTR vDistance$3[rbp], xmm0

; 117  : 		_float vLength = XMVectorGetX(XMVector3Length(vDistance));

  000b8	0f 28 85 80 00
	00 00		 movaps	 xmm0, XMMWORD PTR vDistance$3[rbp]
  000bf	e8 00 00 00 00	 call	 ?XMVector3Length@DirectX@@YQ?AT__m128@@T2@@Z ; DirectX::XMVector3Length
  000c4	0f 29 85 b0 02
	00 00		 movaps	 XMMWORD PTR $T7[rbp], xmm0
  000cb	0f 28 85 b0 02
	00 00		 movaps	 xmm0, XMMWORD PTR $T7[rbp]
  000d2	e8 00 00 00 00	 call	 ?XMVectorGetX@DirectX@@YQMT__m128@@@Z ; DirectX::XMVectorGetX
  000d7	f3 0f 11 85 a4
	00 00 00	 movss	 DWORD PTR vLength$4[rbp], xmm0

; 118  : 
; 119  : 		if (vLength < fNear)

  000df	f3 0f 10 45 34	 movss	 xmm0, DWORD PTR fNear$[rbp]
  000e4	0f 2f 85 a4 00
	00 00		 comiss	 xmm0, DWORD PTR vLength$4[rbp]
  000eb	0f 86 2c 01 00
	00		 jbe	 $LN7@GetNormal

; 120  : 		{
; 121  : 			fNear = vLength;

  000f1	f3 0f 10 85 a4
	00 00 00	 movss	 xmm0, DWORD PTR vLength$4[rbp]
  000f9	f3 0f 11 45 34	 movss	 DWORD PTR fNear$[rbp], xmm0

; 122  : 			switch (i)

  000fe	8b 45 54	 mov	 eax, DWORD PTR i$2[rbp]
  00101	89 85 64 04 00
	00		 mov	 DWORD PTR tv80[rbp], eax
  00107	83 bd 64 04 00
	00 00		 cmp	 DWORD PTR tv80[rbp], 0
  0010e	74 28		 je	 SHORT $LN8@GetNormal
  00110	83 bd 64 04 00
	00 01		 cmp	 DWORD PTR tv80[rbp], 1
  00117	74 63		 je	 SHORT $LN9@GetNormal
  00119	83 bd 64 04 00
	00 02		 cmp	 DWORD PTR tv80[rbp], 2
  00120	0f 84 84 00 00
	00		 je	 $LN10@GetNormal
  00126	83 bd 64 04 00
	00 03		 cmp	 DWORD PTR tv80[rbp], 3
  0012d	0f 84 a8 00 00
	00		 je	 $LN11@GetNormal
  00133	e9 e5 00 00 00	 jmp	 $LN5@GetNormal
$LN8@GetNormal:

; 123  : 			{
; 124  : 			case LEFT:
; 125  : 				vNormal = -m_pTransform->Get_State(CTransform::STATE_RIGHT);

  00138	45 33 c0	 xor	 r8d, r8d
  0013b	48 8d 95 10 03
	00 00		 lea	 rdx, QWORD PTR $T9[rbp]
  00142	48 8b 85 90 04
	00 00		 mov	 rax, QWORD PTR this$[rbp]
  00149	48 8b 88 80 00
	00 00		 mov	 rcx, QWORD PTR [rax+128]
  00150	ff 15 00 00 00
	00		 call	 QWORD PTR __imp_?Get_State@CTransform@Engine@@QEAA?AT__m128@@W4STATE@12@@Z
  00156	0f 10 00	 movups	 xmm0, XMMWORD PTR [rax]
  00159	e8 00 00 00 00	 call	 ??GDirectX@@YQ?AT__m128@@T1@@Z ; DirectX::operator-
  0015e	0f 29 85 e0 02
	00 00		 movaps	 XMMWORD PTR $T8[rbp], xmm0
  00165	c6 85 54 04 00
	00 01		 mov	 BYTE PTR $T16[rbp], 1
  0016c	0f 28 85 e0 02
	00 00		 movaps	 xmm0, XMMWORD PTR $T8[rbp]
  00173	0f 29 45 10	 movaps	 XMMWORD PTR vNormal$[rbp], xmm0

; 126  : 				break;

  00177	e9 a1 00 00 00	 jmp	 $LN5@GetNormal
$LN9@GetNormal:

; 127  : 			case RIGHT:
; 128  : 				vNormal = m_pTransform->Get_State(CTransform::STATE_RIGHT);

  0017c	45 33 c0	 xor	 r8d, r8d
  0017f	48 8d 95 40 03
	00 00		 lea	 rdx, QWORD PTR $T10[rbp]
  00186	48 8b 85 90 04
	00 00		 mov	 rax, QWORD PTR this$[rbp]
  0018d	48 8b 88 80 00
	00 00		 mov	 rcx, QWORD PTR [rax+128]
  00194	ff 15 00 00 00
	00		 call	 QWORD PTR __imp_?Get_State@CTransform@Engine@@QEAA?AT__m128@@W4STATE@12@@Z
  0019a	c6 85 54 04 00
	00 01		 mov	 BYTE PTR $T16[rbp], 1
  001a1	0f 10 00	 movups	 xmm0, XMMWORD PTR [rax]
  001a4	0f 11 45 10	 movups	 XMMWORD PTR vNormal$[rbp], xmm0

; 129  : 				break;

  001a8	eb 73		 jmp	 SHORT $LN5@GetNormal
$LN10@GetNormal:

; 130  : 			case FRONT:
; 131  : 				vNormal = m_pTransform->Get_State(CTransform::STATE_LOOK);

  001aa	41 b8 02 00 00
	00		 mov	 r8d, 2
  001b0	48 8d 95 70 03
	00 00		 lea	 rdx, QWORD PTR $T11[rbp]
  001b7	48 8b 85 90 04
	00 00		 mov	 rax, QWORD PTR this$[rbp]
  001be	48 8b 88 80 00
	00 00		 mov	 rcx, QWORD PTR [rax+128]
  001c5	ff 15 00 00 00
	00		 call	 QWORD PTR __imp_?Get_State@CTransform@Engine@@QEAA?AT__m128@@W4STATE@12@@Z
  001cb	c6 85 54 04 00
	00 01		 mov	 BYTE PTR $T16[rbp], 1
  001d2	0f 10 00	 movups	 xmm0, XMMWORD PTR [rax]
  001d5	0f 11 45 10	 movups	 XMMWORD PTR vNormal$[rbp], xmm0

; 132  : 				break;

  001d9	eb 42		 jmp	 SHORT $LN5@GetNormal
$LN11@GetNormal:

; 133  : 			case BACK:
; 134  : 				vNormal = -m_pTransform->Get_State(CTransform::STATE_LOOK);

  001db	41 b8 02 00 00
	00		 mov	 r8d, 2
  001e1	48 8d 95 d0 03
	00 00		 lea	 rdx, QWORD PTR $T13[rbp]
  001e8	48 8b 85 90 04
	00 00		 mov	 rax, QWORD PTR this$[rbp]
  001ef	48 8b 88 80 00
	00 00		 mov	 rcx, QWORD PTR [rax+128]
  001f6	ff 15 00 00 00
	00		 call	 QWORD PTR __imp_?Get_State@CTransform@Engine@@QEAA?AT__m128@@W4STATE@12@@Z
  001fc	0f 10 00	 movups	 xmm0, XMMWORD PTR [rax]
  001ff	e8 00 00 00 00	 call	 ??GDirectX@@YQ?AT__m128@@T1@@Z ; DirectX::operator-
  00204	0f 29 85 a0 03
	00 00		 movaps	 XMMWORD PTR $T12[rbp], xmm0
  0020b	c6 85 54 04 00
	00 01		 mov	 BYTE PTR $T16[rbp], 1
  00212	0f 28 85 a0 03
	00 00		 movaps	 xmm0, XMMWORD PTR $T12[rbp]
  00219	0f 29 45 10	 movaps	 XMMWORD PTR vNormal$[rbp], xmm0
$LN5@GetNormal:
$LN7@GetNormal:

; 135  : 				break;
; 136  : 			}
; 137  : 		}
; 138  : 	}

  0021d	e9 34 fe ff ff	 jmp	 $LN2@GetNormal
$LN3@GetNormal:

; 139  : 
; 140  : 	//Y 0 ;
; 141  : 	*vLength_out = fNear;

  00222	48 8b 85 a8 04
	00 00		 mov	 rax, QWORD PTR vLength_out$[rbp]
  00229	f3 0f 10 45 34	 movss	 xmm0, DWORD PTR fNear$[rbp]
  0022e	f3 0f 11 00	 movss	 DWORD PTR [rax], xmm0

; 142  : 	vNormal = XMVectorSetY(vNormal, 0.f);

  00232	80 bd 54 04 00
	00 00		 cmp	 BYTE PTR $T16[rbp], 0
  00239	75 0c		 jne	 SHORT $LN13@GetNormal
  0023b	48 8d 0d 00 00
	00 00		 lea	 rcx, OFFSET FLAT:?GetNormal@CWall@Client@@QEAA?AT__m128@@T3@PEAM@Z$rtcName$0
  00242	e8 00 00 00 00	 call	 _RTC_UninitUse
$LN13@GetNormal:
  00247	0f 57 c9	 xorps	 xmm1, xmm1
  0024a	0f 28 45 10	 movaps	 xmm0, XMMWORD PTR vNormal$[rbp]
  0024e	e8 00 00 00 00	 call	 ?XMVectorSetY@DirectX@@YQ?AT__m128@@T2@M@Z ; DirectX::XMVectorSetY
  00253	0f 29 85 00 04
	00 00		 movaps	 XMMWORD PTR $T14[rbp], xmm0
  0025a	c6 85 54 04 00
	00 01		 mov	 BYTE PTR $T16[rbp], 1
  00261	0f 28 85 00 04
	00 00		 movaps	 xmm0, XMMWORD PTR $T14[rbp]
  00268	0f 29 45 10	 movaps	 XMMWORD PTR vNormal$[rbp], xmm0

; 143  : 	return XMVector3Normalize(vNormal);

  0026c	80 bd 54 04 00
	00 00		 cmp	 BYTE PTR $T16[rbp], 0
  00273	75 0c		 jne	 SHORT $LN14@GetNormal
  00275	48 8d 0d 00 00
	00 00		 lea	 rcx, OFFSET FLAT:?GetNormal@CWall@Client@@QEAA?AT__m128@@T3@PEAM@Z$rtcName$0
  0027c	e8 00 00 00 00	 call	 _RTC_UninitUse
$LN14@GetNormal:
  00281	0f 28 45 10	 movaps	 xmm0, XMMWORD PTR vNormal$[rbp]
  00285	e8 00 00 00 00	 call	 ?XMVector3Normalize@DirectX@@YQ?AT__m128@@T2@@Z ; DirectX::XMVector3Normalize
  0028a	0f 29 85 30 04
	00 00		 movaps	 XMMWORD PTR $T15[rbp], xmm0
  00291	48 8b 85 98 04
	00 00		 mov	 rax, QWORD PTR __$ReturnUdt$[rbp]
  00298	0f 28 85 30 04
	00 00		 movaps	 xmm0, XMMWORD PTR $T15[rbp]
  0029f	0f 11 00	 movups	 XMMWORD PTR [rax], xmm0
  002a2	48 8b 85 98 04
	00 00		 mov	 rax, QWORD PTR __$ReturnUdt$[rbp]

; 144  : }

  002a9	48 8d a5 78 04
	00 00		 lea	 rsp, QWORD PTR [rbp+1144]
  002b0	5f		 pop	 rdi
  002b1	5d		 pop	 rbp
  002b2	c3		 ret	 0
?GetNormal@CWall@Client@@QEAA?AT__m128@@T3@PEAM@Z ENDP	; Client::CWall::GetNormal
_TEXT	ENDS
; Function compile flags: /Odtp /RTCsu /ZI
; File c:\github\framework\client\private\wall.cpp
;	COMDAT ?GetPosition@CWall@Client@@QEAA?AT__m128@@XZ
_TEXT	SEGMENT
$T1 = 208
this$ = 272
__$ReturnUdt$ = 280
?GetPosition@CWall@Client@@QEAA?AT__m128@@XZ PROC	; Client::CWall::GetPosition, COMDAT

; 102  : {

$LN5:
  00000	48 89 54 24 10	 mov	 QWORD PTR [rsp+16], rdx
  00005	48 89 4c 24 08	 mov	 QWORD PTR [rsp+8], rcx
  0000a	55		 push	 rbp
  0000b	57		 push	 rdi
  0000c	48 81 ec 18 01
	00 00		 sub	 rsp, 280		; 00000118H
  00013	48 8d 6c 24 20	 lea	 rbp, QWORD PTR [rsp+32]
  00018	48 8b fc	 mov	 rdi, rsp
  0001b	b9 46 00 00 00	 mov	 ecx, 70			; 00000046H
  00020	b8 cc cc cc cc	 mov	 eax, -858993460		; ccccccccH
  00025	f3 ab		 rep stosd
  00027	48 8b 8c 24 38
	01 00 00	 mov	 rcx, QWORD PTR [rsp+312]

; 103  : 	if (nullptr != m_pTransform)

  0002f	48 8b 85 10 01
	00 00		 mov	 rax, QWORD PTR this$[rbp]
  00036	48 83 b8 80 00
	00 00 00	 cmp	 QWORD PTR [rax+128], 0
  0003e	74 2c		 je	 SHORT $LN2@GetPositio

; 104  : 		return m_pTransform->Get_State(CTransform::STATE_POSITION);

  00040	41 b8 03 00 00
	00		 mov	 r8d, 3
  00046	48 8b 95 18 01
	00 00		 mov	 rdx, QWORD PTR __$ReturnUdt$[rbp]
  0004d	48 8b 85 10 01
	00 00		 mov	 rax, QWORD PTR this$[rbp]
  00054	48 8b 88 80 00
	00 00		 mov	 rcx, QWORD PTR [rax+128]
  0005b	ff 15 00 00 00
	00		 call	 QWORD PTR __imp_?Get_State@CTransform@Engine@@QEAA?AT__m128@@W4STATE@12@@Z
  00061	48 8b 85 18 01
	00 00		 mov	 rax, QWORD PTR __$ReturnUdt$[rbp]
  00068	eb 37		 jmp	 SHORT $LN1@GetPositio

; 105  : 	else

  0006a	eb 35		 jmp	 SHORT $LN3@GetPositio
$LN2@GetPositio:

; 106  : 		return POSITION_ZERO;

  0006c	f3 0f 10 1d 00
	00 00 00	 movss	 xmm3, DWORD PTR __real@3f800000
  00074	0f 57 d2	 xorps	 xmm2, xmm2
  00077	0f 57 c9	 xorps	 xmm1, xmm1
  0007a	0f 57 c0	 xorps	 xmm0, xmm0
  0007d	e8 00 00 00 00	 call	 ?XMVectorSet@DirectX@@YQ?AT__m128@@MMMM@Z ; DirectX::XMVectorSet
  00082	0f 29 85 d0 00
	00 00		 movaps	 XMMWORD PTR $T1[rbp], xmm0
  00089	48 8b 85 18 01
	00 00		 mov	 rax, QWORD PTR __$ReturnUdt$[rbp]
  00090	0f 28 85 d0 00
	00 00		 movaps	 xmm0, XMMWORD PTR $T1[rbp]
  00097	0f 11 00	 movups	 XMMWORD PTR [rax], xmm0
  0009a	48 8b 85 18 01
	00 00		 mov	 rax, QWORD PTR __$ReturnUdt$[rbp]
$LN3@GetPositio:
$LN1@GetPositio:

; 107  : }

  000a1	48 8d a5 f8 00
	00 00		 lea	 rsp, QWORD PTR [rbp+248]
  000a8	5f		 pop	 rdi
  000a9	5d		 pop	 rbp
  000aa	c3		 ret	 0
?GetPosition@CWall@Client@@QEAA?AT__m128@@XZ ENDP	; Client::CWall::GetPosition
_TEXT	ENDS
; Function compile flags: /Odtp /RTCsu /ZI
; File c:\github\framework\client\private\wall.cpp
;	COMDAT ?GetDepth@CWall@Client@@QEAAMXZ
_TEXT	SEGMENT
this$ = 224
?GetDepth@CWall@Client@@QEAAMXZ PROC			; Client::CWall::GetDepth, COMDAT

; 94   : {

$LN5:
  00000	48 89 4c 24 08	 mov	 QWORD PTR [rsp+8], rcx
  00005	55		 push	 rbp
  00006	57		 push	 rdi
  00007	48 81 ec d8 00
	00 00		 sub	 rsp, 216		; 000000d8H
  0000e	48 8d 6c 24 10	 lea	 rbp, QWORD PTR [rsp+16]
  00013	48 8b fc	 mov	 rdi, rsp
  00016	b9 36 00 00 00	 mov	 ecx, 54			; 00000036H
  0001b	b8 cc cc cc cc	 mov	 eax, -858993460		; ccccccccH
  00020	f3 ab		 rep stosd
  00022	48 8b 8c 24 f8
	00 00 00	 mov	 rcx, QWORD PTR [rsp+248]

; 95   : 	if (nullptr != m_pTransform)

  0002a	48 8b 85 e0 00
	00 00		 mov	 rax, QWORD PTR this$[rbp]
  00031	48 83 b8 80 00
	00 00 00	 cmp	 QWORD PTR [rax+128], 0
  00039	74 1b		 je	 SHORT $LN2@GetDepth

; 96   : 		return m_CubeDesc.vScale.x * 0.5f;

  0003b	48 8b 85 e0 00
	00 00		 mov	 rax, QWORD PTR this$[rbp]
  00042	f3 0f 10 80 88
	00 00 00	 movss	 xmm0, DWORD PTR [rax+136]
  0004a	f3 0f 59 05 00
	00 00 00	 mulss	 xmm0, DWORD PTR __real@3f000000
  00052	eb 05		 jmp	 SHORT $LN1@GetDepth

; 97   : 	else

  00054	eb 03		 jmp	 SHORT $LN3@GetDepth
$LN2@GetDepth:

; 98   : 		return 0.0f;

  00056	0f 57 c0	 xorps	 xmm0, xmm0
$LN3@GetDepth:
$LN1@GetDepth:

; 99   : }

  00059	48 8d a5 c8 00
	00 00		 lea	 rsp, QWORD PTR [rbp+200]
  00060	5f		 pop	 rdi
  00061	5d		 pop	 rbp
  00062	c3		 ret	 0
?GetDepth@CWall@Client@@QEAAMXZ ENDP			; Client::CWall::GetDepth
_TEXT	ENDS
; Function compile flags: /Odtp /RTCsu /ZI
; File c:\github\framework\client\private\wall.cpp
;	COMDAT ?RenderGUI@CWall@Client@@UEAAXXZ
_TEXT	SEGMENT
this$ = 224
?RenderGUI@CWall@Client@@UEAAXXZ PROC			; Client::CWall::RenderGUI, COMDAT

; 90   : {

$LN3:
  00000	48 89 4c 24 08	 mov	 QWORD PTR [rsp+8], rcx
  00005	55		 push	 rbp
  00006	57		 push	 rdi
  00007	48 81 ec c8 00
	00 00		 sub	 rsp, 200		; 000000c8H
  0000e	48 8b ec	 mov	 rbp, rsp
  00011	48 8b fc	 mov	 rdi, rsp
  00014	b9 32 00 00 00	 mov	 ecx, 50			; 00000032H
  00019	b8 cc cc cc cc	 mov	 eax, -858993460		; ccccccccH
  0001e	f3 ab		 rep stosd
  00020	48 8b 8c 24 e8
	00 00 00	 mov	 rcx, QWORD PTR [rsp+232]

; 91   : }

  00028	48 8d a5 c8 00
	00 00		 lea	 rsp, QWORD PTR [rbp+200]
  0002f	5f		 pop	 rdi
  00030	5d		 pop	 rbp
  00031	c3		 ret	 0
?RenderGUI@CWall@Client@@UEAAXXZ ENDP			; Client::CWall::RenderGUI
_TEXT	ENDS
; Function compile flags: /Odtp /RTCsu /ZI
; File c:\github\framework\client\private\wall.cpp
;	COMDAT ?Render@CWall@Client@@UEAAJXZ
_TEXT	SEGMENT
this$ = 224
?Render@CWall@Client@@UEAAJXZ PROC			; Client::CWall::Render, COMDAT

; 85   : {

$LN3:
  00000	48 89 4c 24 08	 mov	 QWORD PTR [rsp+8], rcx
  00005	55		 push	 rbp
  00006	57		 push	 rdi
  00007	48 81 ec c8 00
	00 00		 sub	 rsp, 200		; 000000c8H
  0000e	48 8b ec	 mov	 rbp, rsp
  00011	48 8b fc	 mov	 rdi, rsp
  00014	b9 32 00 00 00	 mov	 ecx, 50			; 00000032H
  00019	b8 cc cc cc cc	 mov	 eax, -858993460		; ccccccccH
  0001e	f3 ab		 rep stosd
  00020	48 8b 8c 24 e8
	00 00 00	 mov	 rcx, QWORD PTR [rsp+232]

; 86   : 	return S_OK;

  00028	33 c0		 xor	 eax, eax

; 87   : }

  0002a	48 8d a5 c8 00
	00 00		 lea	 rsp, QWORD PTR [rbp+200]
  00031	5f		 pop	 rdi
  00032	5d		 pop	 rbp
  00033	c3		 ret	 0
?Render@CWall@Client@@UEAAJXZ ENDP			; Client::CWall::Render
_TEXT	ENDS
; Function compile flags: /Odtp /RTCsu /ZI
; File c:\github\framework\client\private\wall.cpp
;	COMDAT ?LateTick@CWall@Client@@UEAAXN@Z
_TEXT	SEGMENT
this$ = 224
TimeDelta$ = 232
?LateTick@CWall@Client@@UEAAXN@Z PROC			; Client::CWall::LateTick, COMDAT

; 81   : {

$LN3:
  00000	f2 0f 11 4c 24
	10		 movsd	 QWORD PTR [rsp+16], xmm1
  00006	48 89 4c 24 08	 mov	 QWORD PTR [rsp+8], rcx
  0000b	55		 push	 rbp
  0000c	57		 push	 rdi
  0000d	48 81 ec c8 00
	00 00		 sub	 rsp, 200		; 000000c8H
  00014	48 8b ec	 mov	 rbp, rsp
  00017	48 8b fc	 mov	 rdi, rsp
  0001a	b9 32 00 00 00	 mov	 ecx, 50			; 00000032H
  0001f	b8 cc cc cc cc	 mov	 eax, -858993460		; ccccccccH
  00024	f3 ab		 rep stosd
  00026	48 8b 8c 24 e8
	00 00 00	 mov	 rcx, QWORD PTR [rsp+232]

; 82   : }

  0002e	48 8d a5 c8 00
	00 00		 lea	 rsp, QWORD PTR [rbp+200]
  00035	5f		 pop	 rdi
  00036	5d		 pop	 rbp
  00037	c3		 ret	 0
?LateTick@CWall@Client@@UEAAXN@Z ENDP			; Client::CWall::LateTick
_TEXT	ENDS
; Function compile flags: /Odtp /RTCsu /ZI
; File c:\github\framework\client\private\wall.cpp
;	COMDAT ?Tick@CWall@Client@@UEAAXN@Z
_TEXT	SEGMENT
pGameInstance$ = 8
$T1 = 240
$T2 = 324
$T3 = 432
$T4 = 528
this$ = 640
TimeDelta$ = 648
?Tick@CWall@Client@@UEAAXN@Z PROC			; Client::CWall::Tick, COMDAT

; 72   : {

$LN3:
  00000	f2 0f 11 4c 24
	10		 movsd	 QWORD PTR [rsp+16], xmm1
  00006	48 89 4c 24 08	 mov	 QWORD PTR [rsp+8], rcx
  0000b	55		 push	 rbp
  0000c	56		 push	 rsi
  0000d	57		 push	 rdi
  0000e	48 81 ec 80 02
	00 00		 sub	 rsp, 640		; 00000280H
  00015	48 8d 6c 24 20	 lea	 rbp, QWORD PTR [rsp+32]
  0001a	48 8b fc	 mov	 rdi, rsp
  0001d	b9 a0 00 00 00	 mov	 ecx, 160		; 000000a0H
  00022	b8 cc cc cc cc	 mov	 eax, -858993460		; ccccccccH
  00027	f3 ab		 rep stosd
  00029	48 8b 8c 24 a8
	02 00 00	 mov	 rcx, QWORD PTR [rsp+680]

; 73   : 	CGameInstance* pGameInstance = CGameInstance::GetInstance();

  00031	ff 15 00 00 00
	00		 call	 QWORD PTR __imp_?GetInstance@CGameInstance@Engine@@SAPEAV12@XZ
  00037	48 89 45 08	 mov	 QWORD PTR pGameInstance$[rbp], rax

; 74   : 
; 75   : 	pGameInstance->AddCollider(m_pCollider, 1);

  0003b	41 b8 01 00 00
	00		 mov	 r8d, 1
  00041	48 8b 85 80 02
	00 00		 mov	 rax, QWORD PTR this$[rbp]
  00048	48 8b 50 78	 mov	 rdx, QWORD PTR [rax+120]
  0004c	48 8b 4d 08	 mov	 rcx, QWORD PTR pGameInstance$[rbp]
  00050	ff 15 00 00 00
	00		 call	 QWORD PTR __imp_?AddCollider@CGameInstance@Engine@@QEAAJPEAVCCollider@2@I@Z

; 76   : 	m_pCollider->Update(XMLoadFloat4x4(&m_pTransform->Get_WorldMatrix()));

  00056	48 8d 95 44 01
	00 00		 lea	 rdx, QWORD PTR $T2[rbp]
  0005d	48 8b 85 80 02
	00 00		 mov	 rax, QWORD PTR this$[rbp]
  00064	48 8b 88 80 00
	00 00		 mov	 rcx, QWORD PTR [rax+128]
  0006b	ff 15 00 00 00
	00		 call	 QWORD PTR __imp_?Get_WorldMatrix@CTransform@Engine@@QEAA?AUXMFLOAT4X4@DirectX@@XZ
  00071	48 8b c8	 mov	 rcx, rax
  00074	e8 00 00 00 00	 call	 ?XMLoadFloat4x4@DirectX@@YQ?AUXMMATRIX@1@PEBUXMFLOAT4X4@1@@Z ; DirectX::XMLoadFloat4x4
  00079	0f 29 9d 40 02
	00 00		 movaps	 XMMWORD PTR $T4[rbp+48], xmm3
  00080	0f 29 95 30 02
	00 00		 movaps	 XMMWORD PTR $T4[rbp+32], xmm2
  00087	0f 29 8d 20 02
	00 00		 movaps	 XMMWORD PTR $T4[rbp+16], xmm1
  0008e	0f 29 85 10 02
	00 00		 movaps	 XMMWORD PTR $T4[rbp], xmm0
  00095	48 8d 85 f0 00
	00 00		 lea	 rax, QWORD PTR $T1[rbp]
  0009c	48 8d 8d 10 02
	00 00		 lea	 rcx, QWORD PTR $T4[rbp]
  000a3	48 8b f8	 mov	 rdi, rax
  000a6	48 8b f1	 mov	 rsi, rcx
  000a9	b9 40 00 00 00	 mov	 ecx, 64			; 00000040H
  000ae	f3 a4		 rep movsb
  000b0	48 8d 85 b0 01
	00 00		 lea	 rax, QWORD PTR $T3[rbp]
  000b7	48 8d 8d f0 00
	00 00		 lea	 rcx, QWORD PTR $T1[rbp]
  000be	48 8b f8	 mov	 rdi, rax
  000c1	48 8b f1	 mov	 rsi, rcx
  000c4	b9 40 00 00 00	 mov	 ecx, 64			; 00000040H
  000c9	f3 a4		 rep movsb
  000cb	48 8d 95 b0 01
	00 00		 lea	 rdx, QWORD PTR $T3[rbp]
  000d2	48 8b 85 80 02
	00 00		 mov	 rax, QWORD PTR this$[rbp]
  000d9	48 8b 48 78	 mov	 rcx, QWORD PTR [rax+120]
  000dd	ff 15 00 00 00
	00		 call	 QWORD PTR __imp_?Update@COBBCollider@Engine@@UEAAXUXMMATRIX@DirectX@@@Z

; 77   : 
; 78   : }

  000e3	48 8d a5 60 02
	00 00		 lea	 rsp, QWORD PTR [rbp+608]
  000ea	5f		 pop	 rdi
  000eb	5e		 pop	 rsi
  000ec	5d		 pop	 rbp
  000ed	c3		 ret	 0
?Tick@CWall@Client@@UEAAXN@Z ENDP			; Client::CWall::Tick
_TEXT	ENDS
; Function compile flags: /Odtp /RTCsu /ZI
; File c:\github\framework\client\private\wall.cpp
;	COMDAT ?Initialize@CWall@Client@@UEAAJPEAX@Z
_TEXT	SEGMENT
$T1 = 592
$T2 = 628
$T3 = 672
$T4 = 720
$T5 = 768
$T6 = 816
$T7 = 864
$T8 = 912
$T9 = 960
$T10 = 1008
$T11 = 1056
$T12 = 1104
$T13 = 1152
$T14 = 1200
$T15 = 1248
$T16 = 1296
$T17 = 1344
$T18 = 1392
$T19 = 1440
$T20 = 1488
$T21 = 1536
$T22 = 1584
$T23 = 1632
$T24 = 1680
$T25 = 1728
$T26 = 1776
this$ = 1840
pArg$ = 1848
?Initialize@CWall@Client@@UEAAJPEAX@Z PROC		; Client::CWall::Initialize, COMDAT

; 22   : {

$LN9:
  00000	48 89 54 24 10	 mov	 QWORD PTR [rsp+16], rdx
  00005	48 89 4c 24 08	 mov	 QWORD PTR [rsp+8], rcx
  0000a	55		 push	 rbp
  0000b	56		 push	 rsi
  0000c	57		 push	 rdi
  0000d	48 81 ec 30 07
	00 00		 sub	 rsp, 1840		; 00000730H
  00014	48 8d 6c 24 20	 lea	 rbp, QWORD PTR [rsp+32]
  00019	48 8b fc	 mov	 rdi, rsp
  0001c	b9 cc 01 00 00	 mov	 ecx, 460		; 000001ccH
  00021	b8 cc cc cc cc	 mov	 eax, -858993460		; ccccccccH
  00026	f3 ab		 rep stosd
  00028	48 8b 8c 24 58
	07 00 00	 mov	 rcx, QWORD PTR [rsp+1880]

; 23   : 	memcpy(&m_CubeDesc, (CUBE_DESC*)pArg, sizeof(CUBE_DESC));

  00030	48 8b 85 30 07
	00 00		 mov	 rax, QWORD PTR this$[rbp]
  00037	48 05 88 00 00
	00		 add	 rax, 136		; 00000088H
  0003d	41 b8 24 00 00
	00		 mov	 r8d, 36			; 00000024H
  00043	48 8b 95 38 07
	00 00		 mov	 rdx, QWORD PTR pArg$[rbp]
  0004a	48 8b c8	 mov	 rcx, rax
  0004d	e8 00 00 00 00	 call	 memcpy

; 24   : 	if (m_CubeDesc.vScale.x == 110.f && m_CubeDesc.vScale.y == 1.f && m_CubeDesc.vScale.z == 110.f)

  00052	48 8b 85 30 07
	00 00		 mov	 rax, QWORD PTR this$[rbp]
  00059	f3 0f 10 80 88
	00 00 00	 movss	 xmm0, DWORD PTR [rax+136]
  00061	0f 2e 05 00 00
	00 00		 ucomiss xmm0, DWORD PTR __real@42dc0000
  00068	7a 52		 jp	 SHORT $LN2@Initialize
  0006a	75 50		 jne	 SHORT $LN2@Initialize
  0006c	48 8b 85 30 07
	00 00		 mov	 rax, QWORD PTR this$[rbp]
  00073	f3 0f 10 80 8c
	00 00 00	 movss	 xmm0, DWORD PTR [rax+140]
  0007b	0f 2e 05 00 00
	00 00		 ucomiss xmm0, DWORD PTR __real@3f800000
  00082	7a 38		 jp	 SHORT $LN2@Initialize
  00084	75 36		 jne	 SHORT $LN2@Initialize
  00086	48 8b 85 30 07
	00 00		 mov	 rax, QWORD PTR this$[rbp]
  0008d	f3 0f 10 80 90
	00 00 00	 movss	 xmm0, DWORD PTR [rax+144]
  00095	0f 2e 05 00 00
	00 00		 ucomiss xmm0, DWORD PTR __real@42dc0000
  0009c	7a 1e		 jp	 SHORT $LN2@Initialize
  0009e	75 1c		 jne	 SHORT $LN2@Initialize

; 25   : 	{
; 26   : 		// 
; 27   : 		if (FAILED(AddComponents()))

  000a0	48 8b 8d 30 07
	00 00		 mov	 rcx, QWORD PTR this$[rbp]
  000a7	e8 00 00 00 00	 call	 ?AddComponents@CWall@Client@@AEAAJXZ ; Client::CWall::AddComponents
  000ac	85 c0		 test	 eax, eax
  000ae	7d 0a		 jge	 SHORT $LN4@Initialize

; 28   : 			return E_FAIL;

  000b0	b8 05 40 00 80	 mov	 eax, -2147467259	; ffffffff80004005H
  000b5	e9 17 05 00 00	 jmp	 $LN1@Initialize
$LN4@Initialize:

; 29   : 	}
; 30   : 	else

  000ba	eb 1a		 jmp	 SHORT $LN3@Initialize
$LN2@Initialize:

; 31   : 	{
; 32   : 		// 
; 33   : 		if (FAILED(AddComponents_GamePlay()))

  000bc	48 8b 8d 30 07
	00 00		 mov	 rcx, QWORD PTR this$[rbp]
  000c3	e8 00 00 00 00	 call	 ?AddComponents_GamePlay@CWall@Client@@AEAAJXZ ; Client::CWall::AddComponents_GamePlay
  000c8	85 c0		 test	 eax, eax
  000ca	7d 0a		 jge	 SHORT $LN5@Initialize

; 34   : 			return E_FAIL;

  000cc	b8 05 40 00 80	 mov	 eax, -2147467259	; ffffffff80004005H
  000d1	e9 fb 04 00 00	 jmp	 $LN1@Initialize
$LN5@Initialize:
$LN3@Initialize:

; 35   : 	}
; 36   : 
; 37   : 	ObjectID = 1;

  000d6	48 8b 85 30 07
	00 00		 mov	 rax, QWORD PTR this$[rbp]
  000dd	c7 40 70 01 00
	00 00		 mov	 DWORD PTR [rax+112], 1

; 38   : 
; 39   : 	if (pArg != nullptr)

  000e4	48 83 bd 38 07
	00 00 00	 cmp	 QWORD PTR pArg$[rbp], 0
  000ec	0f 84 e2 00 00
	00		 je	 $LN6@Initialize

; 40   : 	{
; 41   : 		memcpy(&m_CubeDesc, (CUBE_DESC*)pArg, sizeof(CUBE_DESC));

  000f2	48 8b 85 30 07
	00 00		 mov	 rax, QWORD PTR this$[rbp]
  000f9	48 05 88 00 00
	00		 add	 rax, 136		; 00000088H
  000ff	41 b8 24 00 00
	00		 mov	 r8d, 36			; 00000024H
  00105	48 8b 95 38 07
	00 00		 mov	 rdx, QWORD PTR pArg$[rbp]
  0010c	48 8b c8	 mov	 rcx, rax
  0010f	e8 00 00 00 00	 call	 memcpy

; 42   : 		m_pTransform->Set_Scale(m_CubeDesc.vScale);

  00114	48 8d 85 00 06
	00 00		 lea	 rax, QWORD PTR $T21[rbp]
  0011b	48 8b 8d 30 07
	00 00		 mov	 rcx, QWORD PTR this$[rbp]
  00122	48 8b f8	 mov	 rdi, rax
  00125	48 8d b1 88 00
	00 00		 lea	 rsi, QWORD PTR [rcx+136]
  0012c	b9 0c 00 00 00	 mov	 ecx, 12
  00131	f3 a4		 rep movsb
  00133	48 8d 95 00 06
	00 00		 lea	 rdx, QWORD PTR $T21[rbp]
  0013a	48 8b 85 30 07
	00 00		 mov	 rax, QWORD PTR this$[rbp]
  00141	48 8b 88 80 00
	00 00		 mov	 rcx, QWORD PTR [rax+128]
  00148	ff 15 00 00 00
	00		 call	 QWORD PTR __imp_?Set_Scale@CTransform@Engine@@QEAAXUXMFLOAT3@DirectX@@@Z

; 43   : 		m_pTransform->SetRotationXYZ(m_CubeDesc.vRotation);

  0014e	48 8d 85 30 06
	00 00		 lea	 rax, QWORD PTR $T22[rbp]
  00155	48 8b 8d 30 07
	00 00		 mov	 rcx, QWORD PTR this$[rbp]
  0015c	48 8b f8	 mov	 rdi, rax
  0015f	48 8d b1 94 00
	00 00		 lea	 rsi, QWORD PTR [rcx+148]
  00166	b9 0c 00 00 00	 mov	 ecx, 12
  0016b	f3 a4		 rep movsb
  0016d	48 8d 95 30 06
	00 00		 lea	 rdx, QWORD PTR $T22[rbp]
  00174	48 8b 85 30 07
	00 00		 mov	 rax, QWORD PTR this$[rbp]
  0017b	48 8b 88 80 00
	00 00		 mov	 rcx, QWORD PTR [rax+128]
  00182	ff 15 00 00 00
	00		 call	 QWORD PTR __imp_?SetRotationXYZ@CTransform@Engine@@QEAAXUXMFLOAT3@DirectX@@@Z

; 44   : 		m_pTransform->Set_State(CTransform::STATE_POSITION, XMLoadFloat3(&m_CubeDesc.vPosition));

  00188	48 8b 85 30 07
	00 00		 mov	 rax, QWORD PTR this$[rbp]
  0018f	48 05 a0 00 00
	00		 add	 rax, 160		; 000000a0H
  00195	48 8b c8	 mov	 rcx, rax
  00198	e8 00 00 00 00	 call	 ?XMLoadFloat3@DirectX@@YQ?AT__m128@@PEBUXMFLOAT3@1@@Z ; DirectX::XMLoadFloat3
  0019d	0f 29 85 50 02
	00 00		 movaps	 XMMWORD PTR $T1[rbp], xmm0
  001a4	0f 28 85 50 02
	00 00		 movaps	 xmm0, XMMWORD PTR $T1[rbp]
  001ab	0f 29 85 60 06
	00 00		 movaps	 XMMWORD PTR $T23[rbp], xmm0
  001b2	4c 8d 85 60 06
	00 00		 lea	 r8, QWORD PTR $T23[rbp]
  001b9	ba 03 00 00 00	 mov	 edx, 3
  001be	48 8b 85 30 07
	00 00		 mov	 rax, QWORD PTR this$[rbp]
  001c5	48 8b 88 80 00
	00 00		 mov	 rcx, QWORD PTR [rax+128]
  001cc	ff 15 00 00 00
	00		 call	 QWORD PTR __imp_?Set_State@CTransform@Engine@@QEAAXW4STATE@12@T__m128@@@Z

; 45   : 	}
; 46   : 	else

  001d2	eb 68		 jmp	 SHORT $LN7@Initialize
$LN6@Initialize:

; 47   : 	{
; 48   : 		m_CubeDesc.vScale = m_pTransform->Get_Scale();

  001d4	48 8d 95 74 02
	00 00		 lea	 rdx, QWORD PTR $T2[rbp]
  001db	48 8b 85 30 07
	00 00		 mov	 rax, QWORD PTR this$[rbp]
  001e2	48 8b 88 80 00
	00 00		 mov	 rcx, QWORD PTR [rax+128]
  001e9	ff 15 00 00 00
	00		 call	 QWORD PTR __imp_?Get_Scale@CTransform@Engine@@QEAA?AUXMFLOAT3@DirectX@@XZ
  001ef	48 8b 8d 30 07
	00 00		 mov	 rcx, QWORD PTR this$[rbp]
  001f6	48 81 c1 88 00
	00 00		 add	 rcx, 136		; 00000088H
  001fd	48 8b d0	 mov	 rdx, rax
  00200	e8 00 00 00 00	 call	 ??4XMFLOAT3@DirectX@@QEAAAEAU01@AEBU01@@Z ; DirectX::XMFLOAT3::operator=

; 49   : 		XMStoreFloat3(&m_CubeDesc.vPosition, m_pTransform->Get_State(CTransform::STATE_POSITION));

  00205	41 b8 03 00 00
	00		 mov	 r8d, 3
  0020b	48 8d 95 a0 02
	00 00		 lea	 rdx, QWORD PTR $T3[rbp]
  00212	48 8b 85 30 07
	00 00		 mov	 rax, QWORD PTR this$[rbp]
  00219	48 8b 88 80 00
	00 00		 mov	 rcx, QWORD PTR [rax+128]
  00220	ff 15 00 00 00
	00		 call	 QWORD PTR __imp_?Get_State@CTransform@Engine@@QEAA?AT__m128@@W4STATE@12@@Z
  00226	48 8b 8d 30 07
	00 00		 mov	 rcx, QWORD PTR this$[rbp]
  0022d	48 81 c1 a0 00
	00 00		 add	 rcx, 160		; 000000a0H
  00234	0f 10 08	 movups	 xmm1, XMMWORD PTR [rax]
  00237	e8 00 00 00 00	 call	 ?XMStoreFloat3@DirectX@@YQXPEAUXMFLOAT3@1@T__m128@@@Z ; DirectX::XMStoreFloat3
$LN7@Initialize:

; 50   : 	}
; 51   : 
; 52   : 	XMStoreFloat3(&m_vPlanePos[LEFT], m_pTransform->Get_State(CTransform::STATE_POSITION) - m_pTransform->Get_State(CTransform::STATE_RIGHT) * 0.5f);

  0023c	45 33 c0	 xor	 r8d, r8d
  0023f	48 8d 95 30 03
	00 00		 lea	 rdx, QWORD PTR $T6[rbp]
  00246	48 8b 85 30 07
	00 00		 mov	 rax, QWORD PTR this$[rbp]
  0024d	48 8b 88 80 00
	00 00		 mov	 rcx, QWORD PTR [rax+128]
  00254	ff 15 00 00 00
	00		 call	 QWORD PTR __imp_?Get_State@CTransform@Engine@@QEAA?AT__m128@@W4STATE@12@@Z
  0025a	f3 0f 10 0d 00
	00 00 00	 movss	 xmm1, DWORD PTR __real@3f000000
  00262	0f 10 00	 movups	 xmm0, XMMWORD PTR [rax]
  00265	e8 00 00 00 00	 call	 ??DDirectX@@YQ?AT__m128@@T1@M@Z ; DirectX::operator*
  0026a	0f 29 85 00 03
	00 00		 movaps	 XMMWORD PTR $T5[rbp], xmm0
  00271	41 b8 03 00 00
	00		 mov	 r8d, 3
  00277	48 8d 95 60 03
	00 00		 lea	 rdx, QWORD PTR $T7[rbp]
  0027e	48 8b 85 30 07
	00 00		 mov	 rax, QWORD PTR this$[rbp]
  00285	48 8b 88 80 00
	00 00		 mov	 rcx, QWORD PTR [rax+128]
  0028c	ff 15 00 00 00
	00		 call	 QWORD PTR __imp_?Get_State@CTransform@Engine@@QEAA?AT__m128@@W4STATE@12@@Z
  00292	0f 28 8d 00 03
	00 00		 movaps	 xmm1, XMMWORD PTR $T5[rbp]
  00299	0f 10 00	 movups	 xmm0, XMMWORD PTR [rax]
  0029c	e8 00 00 00 00	 call	 ??GDirectX@@YQ?AT__m128@@T1@0@Z ; DirectX::operator-
  002a1	0f 29 85 d0 02
	00 00		 movaps	 XMMWORD PTR $T4[rbp], xmm0
  002a8	b8 0c 00 00 00	 mov	 eax, 12
  002ad	48 6b c0 00	 imul	 rax, rax, 0
  002b1	48 8b 8d 30 07
	00 00		 mov	 rcx, QWORD PTR this$[rbp]
  002b8	48 8d 84 01 ac
	00 00 00	 lea	 rax, QWORD PTR [rcx+rax+172]
  002c0	0f 28 8d d0 02
	00 00		 movaps	 xmm1, XMMWORD PTR $T4[rbp]
  002c7	48 8b c8	 mov	 rcx, rax
  002ca	e8 00 00 00 00	 call	 ?XMStoreFloat3@DirectX@@YQXPEAUXMFLOAT3@1@T__m128@@@Z ; DirectX::XMStoreFloat3

; 53   : 	XMStoreFloat3(&m_vPlanePos[RIGHT], m_pTransform->Get_State(CTransform::STATE_POSITION) + m_pTransform->Get_State(CTransform::STATE_RIGHT) * 0.5f);

  002cf	45 33 c0	 xor	 r8d, r8d
  002d2	48 8d 95 f0 03
	00 00		 lea	 rdx, QWORD PTR $T10[rbp]
  002d9	48 8b 85 30 07
	00 00		 mov	 rax, QWORD PTR this$[rbp]
  002e0	48 8b 88 80 00
	00 00		 mov	 rcx, QWORD PTR [rax+128]
  002e7	ff 15 00 00 00
	00		 call	 QWORD PTR __imp_?Get_State@CTransform@Engine@@QEAA?AT__m128@@W4STATE@12@@Z
  002ed	f3 0f 10 0d 00
	00 00 00	 movss	 xmm1, DWORD PTR __real@3f000000
  002f5	0f 10 00	 movups	 xmm0, XMMWORD PTR [rax]
  002f8	e8 00 00 00 00	 call	 ??DDirectX@@YQ?AT__m128@@T1@M@Z ; DirectX::operator*
  002fd	0f 29 85 c0 03
	00 00		 movaps	 XMMWORD PTR $T9[rbp], xmm0
  00304	41 b8 03 00 00
	00		 mov	 r8d, 3
  0030a	48 8d 95 20 04
	00 00		 lea	 rdx, QWORD PTR $T11[rbp]
  00311	48 8b 85 30 07
	00 00		 mov	 rax, QWORD PTR this$[rbp]
  00318	48 8b 88 80 00
	00 00		 mov	 rcx, QWORD PTR [rax+128]
  0031f	ff 15 00 00 00
	00		 call	 QWORD PTR __imp_?Get_State@CTransform@Engine@@QEAA?AT__m128@@W4STATE@12@@Z
  00325	0f 28 8d c0 03
	00 00		 movaps	 xmm1, XMMWORD PTR $T9[rbp]
  0032c	0f 10 00	 movups	 xmm0, XMMWORD PTR [rax]
  0032f	e8 00 00 00 00	 call	 ??HDirectX@@YQ?AT__m128@@T1@0@Z ; DirectX::operator+
  00334	0f 29 85 90 03
	00 00		 movaps	 XMMWORD PTR $T8[rbp], xmm0
  0033b	b8 0c 00 00 00	 mov	 eax, 12
  00340	48 6b c0 01	 imul	 rax, rax, 1
  00344	48 8b 8d 30 07
	00 00		 mov	 rcx, QWORD PTR this$[rbp]
  0034b	48 8d 84 01 ac
	00 00 00	 lea	 rax, QWORD PTR [rcx+rax+172]
  00353	0f 28 8d 90 03
	00 00		 movaps	 xmm1, XMMWORD PTR $T8[rbp]
  0035a	48 8b c8	 mov	 rcx, rax
  0035d	e8 00 00 00 00	 call	 ?XMStoreFloat3@DirectX@@YQXPEAUXMFLOAT3@1@T__m128@@@Z ; DirectX::XMStoreFloat3

; 54   : 	XMStoreFloat3(&m_vPlanePos[FRONT], m_pTransform->Get_State(CTransform::STATE_POSITION) + m_pTransform->Get_State(CTransform::STATE_LOOK) * 0.5f);

  00362	41 b8 02 00 00
	00		 mov	 r8d, 2
  00368	48 8d 95 b0 04
	00 00		 lea	 rdx, QWORD PTR $T14[rbp]
  0036f	48 8b 85 30 07
	00 00		 mov	 rax, QWORD PTR this$[rbp]
  00376	48 8b 88 80 00
	00 00		 mov	 rcx, QWORD PTR [rax+128]
  0037d	ff 15 00 00 00
	00		 call	 QWORD PTR __imp_?Get_State@CTransform@Engine@@QEAA?AT__m128@@W4STATE@12@@Z
  00383	f3 0f 10 0d 00
	00 00 00	 movss	 xmm1, DWORD PTR __real@3f000000
  0038b	0f 10 00	 movups	 xmm0, XMMWORD PTR [rax]
  0038e	e8 00 00 00 00	 call	 ??DDirectX@@YQ?AT__m128@@T1@M@Z ; DirectX::operator*
  00393	0f 29 85 80 04
	00 00		 movaps	 XMMWORD PTR $T13[rbp], xmm0
  0039a	41 b8 03 00 00
	00		 mov	 r8d, 3
  003a0	48 8d 95 e0 04
	00 00		 lea	 rdx, QWORD PTR $T15[rbp]
  003a7	48 8b 85 30 07
	00 00		 mov	 rax, QWORD PTR this$[rbp]
  003ae	48 8b 88 80 00
	00 00		 mov	 rcx, QWORD PTR [rax+128]
  003b5	ff 15 00 00 00
	00		 call	 QWORD PTR __imp_?Get_State@CTransform@Engine@@QEAA?AT__m128@@W4STATE@12@@Z
  003bb	0f 28 8d 80 04
	00 00		 movaps	 xmm1, XMMWORD PTR $T13[rbp]
  003c2	0f 10 00	 movups	 xmm0, XMMWORD PTR [rax]
  003c5	e8 00 00 00 00	 call	 ??HDirectX@@YQ?AT__m128@@T1@0@Z ; DirectX::operator+
  003ca	0f 29 85 50 04
	00 00		 movaps	 XMMWORD PTR $T12[rbp], xmm0
  003d1	b8 0c 00 00 00	 mov	 eax, 12
  003d6	48 6b c0 02	 imul	 rax, rax, 2
  003da	48 8b 8d 30 07
	00 00		 mov	 rcx, QWORD PTR this$[rbp]
  003e1	48 8d 84 01 ac
	00 00 00	 lea	 rax, QWORD PTR [rcx+rax+172]
  003e9	0f 28 8d 50 04
	00 00		 movaps	 xmm1, XMMWORD PTR $T12[rbp]
  003f0	48 8b c8	 mov	 rcx, rax
  003f3	e8 00 00 00 00	 call	 ?XMStoreFloat3@DirectX@@YQXPEAUXMFLOAT3@1@T__m128@@@Z ; DirectX::XMStoreFloat3

; 55   : 	XMStoreFloat3(&m_vPlanePos[BACK], m_pTransform->Get_State(CTransform::STATE_POSITION) - m_pTransform->Get_State(CTransform::STATE_LOOK) * 0.5f);

  003f8	41 b8 02 00 00
	00		 mov	 r8d, 2
  003fe	48 8d 95 70 05
	00 00		 lea	 rdx, QWORD PTR $T18[rbp]
  00405	48 8b 85 30 07
	00 00		 mov	 rax, QWORD PTR this$[rbp]
  0040c	48 8b 88 80 00
	00 00		 mov	 rcx, QWORD PTR [rax+128]
  00413	ff 15 00 00 00
	00		 call	 QWORD PTR __imp_?Get_State@CTransform@Engine@@QEAA?AT__m128@@W4STATE@12@@Z
  00419	f3 0f 10 0d 00
	00 00 00	 movss	 xmm1, DWORD PTR __real@3f000000
  00421	0f 10 00	 movups	 xmm0, XMMWORD PTR [rax]
  00424	e8 00 00 00 00	 call	 ??DDirectX@@YQ?AT__m128@@T1@M@Z ; DirectX::operator*
  00429	0f 29 85 40 05
	00 00		 movaps	 XMMWORD PTR $T17[rbp], xmm0
  00430	41 b8 03 00 00
	00		 mov	 r8d, 3
  00436	48 8d 95 a0 05
	00 00		 lea	 rdx, QWORD PTR $T19[rbp]
  0043d	48 8b 85 30 07
	00 00		 mov	 rax, QWORD PTR this$[rbp]
  00444	48 8b 88 80 00
	00 00		 mov	 rcx, QWORD PTR [rax+128]
  0044b	ff 15 00 00 00
	00		 call	 QWORD PTR __imp_?Get_State@CTransform@Engine@@QEAA?AT__m128@@W4STATE@12@@Z
  00451	0f 28 8d 40 05
	00 00		 movaps	 xmm1, XMMWORD PTR $T17[rbp]
  00458	0f 10 00	 movups	 xmm0, XMMWORD PTR [rax]
  0045b	e8 00 00 00 00	 call	 ??GDirectX@@YQ?AT__m128@@T1@0@Z ; DirectX::operator-
  00460	0f 29 85 10 05
	00 00		 movaps	 XMMWORD PTR $T16[rbp], xmm0
  00467	b8 0c 00 00 00	 mov	 eax, 12
  0046c	48 6b c0 03	 imul	 rax, rax, 3
  00470	48 8b 8d 30 07
	00 00		 mov	 rcx, QWORD PTR this$[rbp]
  00477	48 8d 84 01 ac
	00 00 00	 lea	 rax, QWORD PTR [rcx+rax+172]
  0047f	0f 28 8d 10 05
	00 00		 movaps	 xmm1, XMMWORD PTR $T16[rbp]
  00486	48 8b c8	 mov	 rcx, rax
  00489	e8 00 00 00 00	 call	 ?XMStoreFloat3@DirectX@@YQXPEAUXMFLOAT3@1@T__m128@@@Z ; DirectX::XMStoreFloat3

; 56   : 
; 57   : 	m_vPlanePos[LEFT].y = 0.0f;

  0048e	b8 0c 00 00 00	 mov	 eax, 12
  00493	48 6b c0 00	 imul	 rax, rax, 0
  00497	48 8b 8d 30 07
	00 00		 mov	 rcx, QWORD PTR this$[rbp]
  0049e	0f 57 c0	 xorps	 xmm0, xmm0
  004a1	f3 0f 11 84 01
	b0 00 00 00	 movss	 DWORD PTR [rcx+rax+176], xmm0

; 58   : 	m_vPlanePos[RIGHT].y = 0.0f;

  004aa	b8 0c 00 00 00	 mov	 eax, 12
  004af	48 6b c0 01	 imul	 rax, rax, 1
  004b3	48 8b 8d 30 07
	00 00		 mov	 rcx, QWORD PTR this$[rbp]
  004ba	0f 57 c0	 xorps	 xmm0, xmm0
  004bd	f3 0f 11 84 01
	b0 00 00 00	 movss	 DWORD PTR [rcx+rax+176], xmm0

; 59   : 	m_vPlanePos[FRONT].y = 0.0f;

  004c6	b8 0c 00 00 00	 mov	 eax, 12
  004cb	48 6b c0 02	 imul	 rax, rax, 2
  004cf	48 8b 8d 30 07
	00 00		 mov	 rcx, QWORD PTR this$[rbp]
  004d6	0f 57 c0	 xorps	 xmm0, xmm0
  004d9	f3 0f 11 84 01
	b0 00 00 00	 movss	 DWORD PTR [rcx+rax+176], xmm0

; 60   : 	m_vPlanePos[BACK].y = 0.0f;

  004e2	b8 0c 00 00 00	 mov	 eax, 12
  004e7	48 6b c0 03	 imul	 rax, rax, 3
  004eb	48 8b 8d 30 07
	00 00		 mov	 rcx, QWORD PTR this$[rbp]
  004f2	0f 57 c0	 xorps	 xmm0, xmm0
  004f5	f3 0f 11 84 01
	b0 00 00 00	 movss	 DWORD PTR [rcx+rax+176], xmm0

; 61   : 
; 62   : 	m_pTransform->Set_Scale(m_CubeDesc.vScale);

  004fe	48 8d 85 90 06
	00 00		 lea	 rax, QWORD PTR $T24[rbp]
  00505	48 8b 8d 30 07
	00 00		 mov	 rcx, QWORD PTR this$[rbp]
  0050c	48 8b f8	 mov	 rdi, rax
  0050f	48 8d b1 88 00
	00 00		 lea	 rsi, QWORD PTR [rcx+136]
  00516	b9 0c 00 00 00	 mov	 ecx, 12
  0051b	f3 a4		 rep movsb
  0051d	48 8d 95 90 06
	00 00		 lea	 rdx, QWORD PTR $T24[rbp]
  00524	48 8b 85 30 07
	00 00		 mov	 rax, QWORD PTR this$[rbp]
  0052b	48 8b 88 80 00
	00 00		 mov	 rcx, QWORD PTR [rax+128]
  00532	ff 15 00 00 00
	00		 call	 QWORD PTR __imp_?Set_Scale@CTransform@Engine@@QEAAXUXMFLOAT3@DirectX@@@Z

; 63   : 	m_pTransform->SetRotationXYZ(m_CubeDesc.vRotation);

  00538	48 8d 85 c0 06
	00 00		 lea	 rax, QWORD PTR $T25[rbp]
  0053f	48 8b 8d 30 07
	00 00		 mov	 rcx, QWORD PTR this$[rbp]
  00546	48 8b f8	 mov	 rdi, rax
  00549	48 8d b1 94 00
	00 00		 lea	 rsi, QWORD PTR [rcx+148]
  00550	b9 0c 00 00 00	 mov	 ecx, 12
  00555	f3 a4		 rep movsb
  00557	48 8d 95 c0 06
	00 00		 lea	 rdx, QWORD PTR $T25[rbp]
  0055e	48 8b 85 30 07
	00 00		 mov	 rax, QWORD PTR this$[rbp]
  00565	48 8b 88 80 00
	00 00		 mov	 rcx, QWORD PTR [rax+128]
  0056c	ff 15 00 00 00
	00		 call	 QWORD PTR __imp_?SetRotationXYZ@CTransform@Engine@@QEAAXUXMFLOAT3@DirectX@@@Z

; 64   : 	m_pTransform->Set_State(CTransform::STATE_POSITION, XMLoadFloat3(&m_CubeDesc.vPosition));

  00572	48 8b 85 30 07
	00 00		 mov	 rax, QWORD PTR this$[rbp]
  00579	48 05 a0 00 00
	00		 add	 rax, 160		; 000000a0H
  0057f	48 8b c8	 mov	 rcx, rax
  00582	e8 00 00 00 00	 call	 ?XMLoadFloat3@DirectX@@YQ?AT__m128@@PEBUXMFLOAT3@1@@Z ; DirectX::XMLoadFloat3
  00587	0f 29 85 d0 05
	00 00		 movaps	 XMMWORD PTR $T20[rbp], xmm0
  0058e	0f 28 85 d0 05
	00 00		 movaps	 xmm0, XMMWORD PTR $T20[rbp]
  00595	0f 29 85 f0 06
	00 00		 movaps	 XMMWORD PTR $T26[rbp], xmm0
  0059c	4c 8d 85 f0 06
	00 00		 lea	 r8, QWORD PTR $T26[rbp]
  005a3	ba 03 00 00 00	 mov	 edx, 3
  005a8	48 8b 85 30 07
	00 00		 mov	 rax, QWORD PTR this$[rbp]
  005af	48 8b 88 80 00
	00 00		 mov	 rcx, QWORD PTR [rax+128]
  005b6	ff 15 00 00 00
	00		 call	 QWORD PTR __imp_?Set_State@CTransform@Engine@@QEAAXW4STATE@12@T__m128@@@Z

; 65   : 
; 66   : 	m_pCollider->SetVisible(false);

  005bc	33 d2		 xor	 edx, edx
  005be	48 8b 85 30 07
	00 00		 mov	 rax, QWORD PTR this$[rbp]
  005c5	48 8b 48 78	 mov	 rcx, QWORD PTR [rax+120]
  005c9	ff 15 00 00 00
	00		 call	 QWORD PTR __imp_?SetVisible@CCollider@Engine@@QEAAX_N@Z

; 67   : 
; 68   : 	return S_OK;

  005cf	33 c0		 xor	 eax, eax
$LN1@Initialize:

; 69   : }

  005d1	48 8d a5 10 07
	00 00		 lea	 rsp, QWORD PTR [rbp+1808]
  005d8	5f		 pop	 rdi
  005d9	5e		 pop	 rsi
  005da	5d		 pop	 rbp
  005db	c3		 ret	 0
?Initialize@CWall@Client@@UEAAJPEAX@Z ENDP		; Client::CWall::Initialize
_TEXT	ENDS
; Function compile flags: /Odtp /RTCsu /ZI
; File c:\github\framework\client\private\wall.cpp
;	COMDAT ?Initialize_Prototype@CWall@Client@@UEAAJXZ
_TEXT	SEGMENT
this$ = 224
?Initialize_Prototype@CWall@Client@@UEAAJXZ PROC	; Client::CWall::Initialize_Prototype, COMDAT

; 17   : {

$LN3:
  00000	48 89 4c 24 08	 mov	 QWORD PTR [rsp+8], rcx
  00005	55		 push	 rbp
  00006	57		 push	 rdi
  00007	48 81 ec c8 00
	00 00		 sub	 rsp, 200		; 000000c8H
  0000e	48 8b ec	 mov	 rbp, rsp
  00011	48 8b fc	 mov	 rdi, rsp
  00014	b9 32 00 00 00	 mov	 ecx, 50			; 00000032H
  00019	b8 cc cc cc cc	 mov	 eax, -858993460		; ccccccccH
  0001e	f3 ab		 rep stosd
  00020	48 8b 8c 24 e8
	00 00 00	 mov	 rcx, QWORD PTR [rsp+232]

; 18   : 	return S_OK;

  00028	33 c0		 xor	 eax, eax

; 19   : }

  0002a	48 8d a5 c8 00
	00 00		 lea	 rsp, QWORD PTR [rbp+200]
  00031	5f		 pop	 rdi
  00032	5d		 pop	 rbp
  00033	c3		 ret	 0
?Initialize_Prototype@CWall@Client@@UEAAJXZ ENDP	; Client::CWall::Initialize_Prototype
_TEXT	ENDS
; Function compile flags: /Odtp /RTCsu /ZI
; File c:\github\framework\client\private\wall.cpp
;	COMDAT ??1CWall@Client@@MEAA@XZ
_TEXT	SEGMENT
this$ = 224
??1CWall@Client@@MEAA@XZ PROC				; Client::CWall::~CWall, COMDAT

; 9    : }

$LN3:
  00000	48 89 4c 24 08	 mov	 QWORD PTR [rsp+8], rcx
  00005	55		 push	 rbp
  00006	57		 push	 rdi
  00007	48 81 ec e8 00
	00 00		 sub	 rsp, 232		; 000000e8H
  0000e	48 8d 6c 24 20	 lea	 rbp, QWORD PTR [rsp+32]
  00013	48 8b fc	 mov	 rdi, rsp
  00016	b9 3a 00 00 00	 mov	 ecx, 58			; 0000003aH
  0001b	b8 cc cc cc cc	 mov	 eax, -858993460		; ccccccccH
  00020	f3 ab		 rep stosd
  00022	48 8b 8c 24 08
	01 00 00	 mov	 rcx, QWORD PTR [rsp+264]
  0002a	48 8b 8d e0 00
	00 00		 mov	 rcx, QWORD PTR this$[rbp]
  00031	ff 15 00 00 00
	00		 call	 QWORD PTR __imp_??1CGameObject@Engine@@MEAA@XZ
  00037	48 8d a5 c8 00
	00 00		 lea	 rsp, QWORD PTR [rbp+200]
  0003e	5f		 pop	 rdi
  0003f	5d		 pop	 rbp
  00040	c3		 ret	 0
??1CWall@Client@@MEAA@XZ ENDP				; Client::CWall::~CWall
_TEXT	ENDS
; Function compile flags: /Odtp /RTCsu /ZI
; File c:\github\framework\client\private\wall.cpp
; File c:\github\framework\client\public\wall.h
; File c:\github\framework\client\private\wall.cpp
; File c:\github\framework\client\public\wall.h
; File c:\github\framework\client\private\wall.cpp
;	COMDAT ??0CWall@Client@@IEAA@AEBVCGameObject@Engine@@@Z
_TEXT	SEGMENT
$T1 = 200
this$ = 256
rhs$ = 264
??0CWall@Client@@IEAA@AEBVCGameObject@Engine@@@Z PROC	; Client::CWall::CWall, COMDAT

; 13   : {

$LN4:
  00000	48 89 54 24 10	 mov	 QWORD PTR [rsp+16], rdx
  00005	48 89 4c 24 08	 mov	 QWORD PTR [rsp+8], rcx
  0000a	55		 push	 rbp
  0000b	57		 push	 rdi
  0000c	48 81 ec 08 01
	00 00		 sub	 rsp, 264		; 00000108H
  00013	48 8d 6c 24 20	 lea	 rbp, QWORD PTR [rsp+32]
  00018	48 8b fc	 mov	 rdi, rsp
  0001b	b9 42 00 00 00	 mov	 ecx, 66			; 00000042H
  00020	b8 cc cc cc cc	 mov	 eax, -858993460		; ccccccccH
  00025	f3 ab		 rep stosd
  00027	48 8b 8c 24 28
	01 00 00	 mov	 rcx, QWORD PTR [rsp+296]
  0002f	48 c7 85 c8 00
	00 00 fe ff ff
	ff		 mov	 QWORD PTR $T1[rbp], -2

; 12   : 	: CGameObject(rhs)

  0003a	48 8b 95 08 01
	00 00		 mov	 rdx, QWORD PTR rhs$[rbp]
  00041	48 8b 8d 00 01
	00 00		 mov	 rcx, QWORD PTR this$[rbp]
  00048	ff 15 00 00 00
	00		 call	 QWORD PTR __imp_??0CGameObject@Engine@@IEAA@AEBV01@@Z
  0004e	90		 npad	 1

; 13   : {

  0004f	48 8b 85 00 01
	00 00		 mov	 rax, QWORD PTR this$[rbp]
  00056	48 8d 0d 00 00
	00 00		 lea	 rcx, OFFSET FLAT:??_7CWall@Client@@6B@
  0005d	48 89 08	 mov	 QWORD PTR [rax], rcx
; File c:\github\framework\client\public\wall.h

; 56   : 	COBBCollider* m_pCollider = nullptr;

  00060	48 8b 85 00 01
	00 00		 mov	 rax, QWORD PTR this$[rbp]
  00067	48 c7 40 78 00
	00 00 00	 mov	 QWORD PTR [rax+120], 0

; 57   : 	CTransform* m_pTransform = nullptr;

  0006f	48 8b 85 00 01
	00 00		 mov	 rax, QWORD PTR this$[rbp]
  00076	48 c7 80 80 00
	00 00 00 00 00
	00		 mov	 QWORD PTR [rax+128], 0
; File c:\github\framework\client\private\wall.cpp

; 13   : {

  00081	48 8b 85 00 01
	00 00		 mov	 rax, QWORD PTR this$[rbp]
  00088	48 05 88 00 00
	00		 add	 rax, 136		; 00000088H
  0008e	48 8b c8	 mov	 rcx, rax
  00091	e8 00 00 00 00	 call	 ??0tagCubeDesc@CWall@Client@@QEAA@XZ
  00096	48 8b 85 00 01
	00 00		 mov	 rax, QWORD PTR this$[rbp]
  0009d	48 05 ac 00 00
	00		 add	 rax, 172		; 000000acH
  000a3	4c 8d 0d 00 00
	00 00		 lea	 r9, OFFSET FLAT:??0XMFLOAT3@DirectX@@QEAA@XZ ; DirectX::XMFLOAT3::XMFLOAT3
  000aa	41 b8 04 00 00
	00		 mov	 r8d, 4
  000b0	ba 0c 00 00 00	 mov	 edx, 12
  000b5	48 8b c8	 mov	 rcx, rax
  000b8	e8 00 00 00 00	 call	 ??_H@YAXPEAX_K1P6APEAX0@Z@Z
; File c:\github\framework\client\public\wall.h

; 65   : 	_int m_iLevelIndex = 0;

  000bd	48 8b 85 00 01
	00 00		 mov	 rax, QWORD PTR this$[rbp]
  000c4	c7 80 dc 00 00
	00 00 00 00 00	 mov	 DWORD PTR [rax+220], 0
; File c:\github\framework\client\private\wall.cpp

; 14   : }

  000ce	48 8b 85 00 01
	00 00		 mov	 rax, QWORD PTR this$[rbp]
  000d5	48 8d a5 e8 00
	00 00		 lea	 rsp, QWORD PTR [rbp+232]
  000dc	5f		 pop	 rdi
  000dd	5d		 pop	 rbp
  000de	c3		 ret	 0
??0CWall@Client@@IEAA@AEBVCGameObject@Engine@@@Z ENDP	; Client::CWall::CWall
_TEXT	ENDS
;	COMDAT text$x
text$x	SEGMENT
$T1 = 200
this$ = 256
rhs$ = 264
?dtor$0@?0???0CWall@Client@@IEAA@AEBVCGameObject@Engine@@@Z@4HA PROC ; `Client::CWall::CWall'::`1'::dtor$0
  00000	48 89 4c 24 08	 mov	 QWORD PTR [rsp+8], rcx
  00005	48 89 54 24 10	 mov	 QWORD PTR [rsp+16], rdx
  0000a	55		 push	 rbp
  0000b	57		 push	 rdi
  0000c	48 83 ec 28	 sub	 rsp, 40			; 00000028H
  00010	48 8d 6a 20	 lea	 rbp, QWORD PTR [rdx+32]
  00014	48 8b 8d 00 01
	00 00		 mov	 rcx, QWORD PTR this$[rbp]
  0001b	ff 15 00 00 00
	00		 call	 QWORD PTR __imp_??1CGameObject@Engine@@MEAA@XZ
  00021	48 83 c4 28	 add	 rsp, 40			; 00000028H
  00025	5f		 pop	 rdi
  00026	5d		 pop	 rbp
  00027	c3		 ret	 0
?dtor$0@?0???0CWall@Client@@IEAA@AEBVCGameObject@Engine@@@Z@4HA ENDP ; `Client::CWall::CWall'::`1'::dtor$0
text$x	ENDS
; Function compile flags: /Odtp /RTCsu /ZI
;	COMDAT text$x
text$x	SEGMENT
$T1 = 200
this$ = 256
rhs$ = 264
?dtor$0@?0???0CWall@Client@@IEAA@AEBVCGameObject@Engine@@@Z@4HA PROC ; `Client::CWall::CWall'::`1'::dtor$0
  00000	48 89 4c 24 08	 mov	 QWORD PTR [rsp+8], rcx
  00005	48 89 54 24 10	 mov	 QWORD PTR [rsp+16], rdx
  0000a	55		 push	 rbp
  0000b	57		 push	 rdi
  0000c	48 83 ec 28	 sub	 rsp, 40			; 00000028H
  00010	48 8d 6a 20	 lea	 rbp, QWORD PTR [rdx+32]
  00014	48 8b 8d 00 01
	00 00		 mov	 rcx, QWORD PTR this$[rbp]
  0001b	ff 15 00 00 00
	00		 call	 QWORD PTR __imp_??1CGameObject@Engine@@MEAA@XZ
  00021	48 83 c4 28	 add	 rsp, 40			; 00000028H
  00025	5f		 pop	 rdi
  00026	5d		 pop	 rbp
  00027	c3		 ret	 0
?dtor$0@?0???0CWall@Client@@IEAA@AEBVCGameObject@Engine@@@Z@4HA ENDP ; `Client::CWall::CWall'::`1'::dtor$0
text$x	ENDS
; Function compile flags: /Odtp /RTCsu /ZI
; File c:\github\framework\client\private\wall.cpp
; File c:\github\framework\client\public\wall.h
; File c:\github\framework\client\private\wall.cpp
; File c:\github\framework\client\public\wall.h
; File c:\github\framework\client\private\wall.cpp
;	COMDAT ??0CWall@Client@@IEAA@PEAUID3D11Device@@PEAUID3D11DeviceContext@@@Z
_TEXT	SEGMENT
$T1 = 200
this$ = 256
pDevice$ = 264
pContext$ = 272
??0CWall@Client@@IEAA@PEAUID3D11Device@@PEAUID3D11DeviceContext@@@Z PROC ; Client::CWall::CWall, COMDAT

; 8    : {

$LN4:
  00000	4c 89 44 24 18	 mov	 QWORD PTR [rsp+24], r8
  00005	48 89 54 24 10	 mov	 QWORD PTR [rsp+16], rdx
  0000a	48 89 4c 24 08	 mov	 QWORD PTR [rsp+8], rcx
  0000f	55		 push	 rbp
  00010	57		 push	 rdi
  00011	48 81 ec 08 01
	00 00		 sub	 rsp, 264		; 00000108H
  00018	48 8d 6c 24 20	 lea	 rbp, QWORD PTR [rsp+32]
  0001d	48 8b fc	 mov	 rdi, rsp
  00020	b9 42 00 00 00	 mov	 ecx, 66			; 00000042H
  00025	b8 cc cc cc cc	 mov	 eax, -858993460		; ccccccccH
  0002a	f3 ab		 rep stosd
  0002c	48 8b 8c 24 28
	01 00 00	 mov	 rcx, QWORD PTR [rsp+296]
  00034	48 c7 85 c8 00
	00 00 fe ff ff
	ff		 mov	 QWORD PTR $T1[rbp], -2

; 7    : 	: CGameObject(pDevice, pContext)

  0003f	4c 8b 85 10 01
	00 00		 mov	 r8, QWORD PTR pContext$[rbp]
  00046	48 8b 95 08 01
	00 00		 mov	 rdx, QWORD PTR pDevice$[rbp]
  0004d	48 8b 8d 00 01
	00 00		 mov	 rcx, QWORD PTR this$[rbp]
  00054	ff 15 00 00 00
	00		 call	 QWORD PTR __imp_??0CGameObject@Engine@@IEAA@PEAUID3D11Device@@PEAUID3D11DeviceContext@@@Z
  0005a	90		 npad	 1

; 8    : {

  0005b	48 8b 85 00 01
	00 00		 mov	 rax, QWORD PTR this$[rbp]
  00062	48 8d 0d 00 00
	00 00		 lea	 rcx, OFFSET FLAT:??_7CWall@Client@@6B@
  00069	48 89 08	 mov	 QWORD PTR [rax], rcx
; File c:\github\framework\client\public\wall.h

; 56   : 	COBBCollider* m_pCollider = nullptr;

  0006c	48 8b 85 00 01
	00 00		 mov	 rax, QWORD PTR this$[rbp]
  00073	48 c7 40 78 00
	00 00 00	 mov	 QWORD PTR [rax+120], 0

; 57   : 	CTransform* m_pTransform = nullptr;

  0007b	48 8b 85 00 01
	00 00		 mov	 rax, QWORD PTR this$[rbp]
  00082	48 c7 80 80 00
	00 00 00 00 00
	00		 mov	 QWORD PTR [rax+128], 0
; File c:\github\framework\client\private\wall.cpp

; 8    : {

  0008d	48 8b 85 00 01
	00 00		 mov	 rax, QWORD PTR this$[rbp]
  00094	48 05 88 00 00
	00		 add	 rax, 136		; 00000088H
  0009a	48 8b c8	 mov	 rcx, rax
  0009d	e8 00 00 00 00	 call	 ??0tagCubeDesc@CWall@Client@@QEAA@XZ
  000a2	48 8b 85 00 01
	00 00		 mov	 rax, QWORD PTR this$[rbp]
  000a9	48 05 ac 00 00
	00		 add	 rax, 172		; 000000acH
  000af	4c 8d 0d 00 00
	00 00		 lea	 r9, OFFSET FLAT:??0XMFLOAT3@DirectX@@QEAA@XZ ; DirectX::XMFLOAT3::XMFLOAT3
  000b6	41 b8 04 00 00
	00		 mov	 r8d, 4
  000bc	ba 0c 00 00 00	 mov	 edx, 12
  000c1	48 8b c8	 mov	 rcx, rax
  000c4	e8 00 00 00 00	 call	 ??_H@YAXPEAX_K1P6APEAX0@Z@Z
; File c:\github\framework\client\public\wall.h

; 65   : 	_int m_iLevelIndex = 0;

  000c9	48 8b 85 00 01
	00 00		 mov	 rax, QWORD PTR this$[rbp]
  000d0	c7 80 dc 00 00
	00 00 00 00 00	 mov	 DWORD PTR [rax+220], 0
; File c:\github\framework\client\private\wall.cpp

; 9    : }

  000da	48 8b 85 00 01
	00 00		 mov	 rax, QWORD PTR this$[rbp]
  000e1	48 8d a5 e8 00
	00 00		 lea	 rsp, QWORD PTR [rbp+232]
  000e8	5f		 pop	 rdi
  000e9	5d		 pop	 rbp
  000ea	c3		 ret	 0
??0CWall@Client@@IEAA@PEAUID3D11Device@@PEAUID3D11DeviceContext@@@Z ENDP ; Client::CWall::CWall
_TEXT	ENDS
;	COMDAT text$x
text$x	SEGMENT
$T1 = 200
this$ = 256
pDevice$ = 264
pContext$ = 272
?dtor$0@?0???0CWall@Client@@IEAA@PEAUID3D11Device@@PEAUID3D11DeviceContext@@@Z@4HA PROC ; `Client::CWall::CWall'::`1'::dtor$0
  00000	48 89 4c 24 08	 mov	 QWORD PTR [rsp+8], rcx
  00005	48 89 54 24 10	 mov	 QWORD PTR [rsp+16], rdx
  0000a	55		 push	 rbp
  0000b	57		 push	 rdi
  0000c	48 83 ec 28	 sub	 rsp, 40			; 00000028H
  00010	48 8d 6a 20	 lea	 rbp, QWORD PTR [rdx+32]
  00014	48 8b 8d 00 01
	00 00		 mov	 rcx, QWORD PTR this$[rbp]
  0001b	ff 15 00 00 00
	00		 call	 QWORD PTR __imp_??1CGameObject@Engine@@MEAA@XZ
  00021	48 83 c4 28	 add	 rsp, 40			; 00000028H
  00025	5f		 pop	 rdi
  00026	5d		 pop	 rbp
  00027	c3		 ret	 0
?dtor$0@?0???0CWall@Client@@IEAA@PEAUID3D11Device@@PEAUID3D11DeviceContext@@@Z@4HA ENDP ; `Client::CWall::CWall'::`1'::dtor$0
text$x	ENDS
; Function compile flags: /Odtp /RTCsu /ZI
;	COMDAT text$x
text$x	SEGMENT
$T1 = 200
this$ = 256
pDevice$ = 264
pContext$ = 272
?dtor$0@?0???0CWall@Client@@IEAA@PEAUID3D11Device@@PEAUID3D11DeviceContext@@@Z@4HA PROC ; `Client::CWall::CWall'::`1'::dtor$0
  00000	48 89 4c 24 08	 mov	 QWORD PTR [rsp+8], rcx
  00005	48 89 54 24 10	 mov	 QWORD PTR [rsp+16], rdx
  0000a	55		 push	 rbp
  0000b	57		 push	 rdi
  0000c	48 83 ec 28	 sub	 rsp, 40			; 00000028H
  00010	48 8d 6a 20	 lea	 rbp, QWORD PTR [rdx+32]
  00014	48 8b 8d 00 01
	00 00		 mov	 rcx, QWORD PTR this$[rbp]
  0001b	ff 15 00 00 00
	00		 call	 QWORD PTR __imp_??1CGameObject@Engine@@MEAA@XZ
  00021	48 83 c4 28	 add	 rsp, 40			; 00000028H
  00025	5f		 pop	 rdi
  00026	5d		 pop	 rbp
  00027	c3		 ret	 0
?dtor$0@?0???0CWall@Client@@IEAA@PEAUID3D11Device@@PEAUID3D11DeviceContext@@@Z@4HA ENDP ; `Client::CWall::CWall'::`1'::dtor$0
text$x	ENDS
; Function compile flags: /Odtp /RTCsu /ZI
;	COMDAT ??0tagCubeDesc@CWall@Client@@QEAA@XZ
_TEXT	SEGMENT
this$ = 224
??0tagCubeDesc@CWall@Client@@QEAA@XZ PROC		; Client::CWall::tagCubeDesc::tagCubeDesc, COMDAT
$LN3:
  00000	48 89 4c 24 08	 mov	 QWORD PTR [rsp+8], rcx
  00005	55		 push	 rbp
  00006	57		 push	 rdi
  00007	48 81 ec e8 00
	00 00		 sub	 rsp, 232		; 000000e8H
  0000e	48 8d 6c 24 20	 lea	 rbp, QWORD PTR [rsp+32]
  00013	48 8b fc	 mov	 rdi, rsp
  00016	b9 3a 00 00 00	 mov	 ecx, 58			; 0000003aH
  0001b	b8 cc cc cc cc	 mov	 eax, -858993460		; ccccccccH
  00020	f3 ab		 rep stosd
  00022	48 8b 8c 24 08
	01 00 00	 mov	 rcx, QWORD PTR [rsp+264]
  0002a	48 8b 85 e0 00
	00 00		 mov	 rax, QWORD PTR this$[rbp]
  00031	48 8b c8	 mov	 rcx, rax
  00034	e8 00 00 00 00	 call	 ??0XMFLOAT3@DirectX@@QEAA@XZ ; DirectX::XMFLOAT3::XMFLOAT3
  00039	48 8b 85 e0 00
	00 00		 mov	 rax, QWORD PTR this$[rbp]
  00040	48 83 c0 0c	 add	 rax, 12
  00044	48 8b c8	 mov	 rcx, rax
  00047	e8 00 00 00 00	 call	 ??0XMFLOAT3@DirectX@@QEAA@XZ ; DirectX::XMFLOAT3::XMFLOAT3
  0004c	48 8b 85 e0 00
	00 00		 mov	 rax, QWORD PTR this$[rbp]
  00053	48 83 c0 18	 add	 rax, 24
  00057	48 8b c8	 mov	 rcx, rax
  0005a	e8 00 00 00 00	 call	 ??0XMFLOAT3@DirectX@@QEAA@XZ ; DirectX::XMFLOAT3::XMFLOAT3
  0005f	48 8b 85 e0 00
	00 00		 mov	 rax, QWORD PTR this$[rbp]
  00066	48 8d a5 c8 00
	00 00		 lea	 rsp, QWORD PTR [rbp+200]
  0006d	5f		 pop	 rdi
  0006e	5d		 pop	 rbp
  0006f	c3		 ret	 0
??0tagCubeDesc@CWall@Client@@QEAA@XZ ENDP		; Client::CWall::tagCubeDesc::tagCubeDesc
_TEXT	ENDS
; Function compile flags: /Odtp /RTCsu /ZI
; File c:\program files (x86)\windows kits\8.1\include\um\directxmathvector.inl
;	COMDAT ?XMVector3Normalize@DirectX@@YQ?AT__m128@@T2@@Z
_TEXT	SEGMENT
V$ = 16
vLengthSq$ = 64
vTemp$ = 112
vResult$ = 160
vZeroMask$ = 208
vTemp1$ = 256
vTemp2$ = 304
$T1 = 928
$T2 = 976
$T3 = 1024
$T4 = 1072
$T5 = 1120
$T6 = 1168
$T7 = 1216
$T8 = 1264
$T9 = 1312
$T10 = 1360
$T11 = 1408
$T12 = 1456
$T13 = 1504
$T14 = 1552
$T15 = 1600
$T16 = 1648
$T17 = 1696
?XMVector3Normalize@DirectX@@YQ?AT__m128@@T2@@Z PROC	; DirectX::XMVector3Normalize, COMDAT

; 9238 : {

$LN3:
  00000	40 55		 push	 rbp
  00002	57		 push	 rdi
  00003	48 81 ec f8 06
	00 00		 sub	 rsp, 1784		; 000006f8H
  0000a	48 8d 6c 24 30	 lea	 rbp, QWORD PTR [rsp+48]
  0000f	48 8b fc	 mov	 rdi, rsp
  00012	b9 be 01 00 00	 mov	 ecx, 446		; 000001beH
  00017	b8 cc cc cc cc	 mov	 eax, -858993460		; ccccccccH
  0001c	f3 ab		 rep stosd
  0001e	48 8d 45 10	 lea	 rax, QWORD PTR V$[rbp]
  00022	48 89 84 24 10
	07 00 00	 mov	 QWORD PTR [rsp+1808], rax
  0002a	0f 29 45 10	 movaps	 XMMWORD PTR V$[rbp], xmm0

; 9239 : #if defined(_XM_NO_INTRINSICS_)
; 9240 :     float fLength;
; 9241 :     XMVECTOR vResult;
; 9242 : 
; 9243 :     vResult = XMVector3Length( V );
; 9244 :     fLength = vResult.vector4_f32[0];
; 9245 : 
; 9246 :     // Prevent divide by zero
; 9247 :     if (fLength > 0) {
; 9248 :         fLength = 1.0f/fLength;
; 9249 :     }
; 9250 :     
; 9251 :     vResult.vector4_f32[0] = V.vector4_f32[0]*fLength;
; 9252 :     vResult.vector4_f32[1] = V.vector4_f32[1]*fLength;
; 9253 :     vResult.vector4_f32[2] = V.vector4_f32[2]*fLength;
; 9254 :     vResult.vector4_f32[3] = V.vector4_f32[3]*fLength;
; 9255 :     return vResult;
; 9256 : 
; 9257 : #elif defined(_XM_ARM_NEON_INTRINSICS_)
; 9258 :     // Dot3
; 9259 :     float32x4_t vTemp = vmulq_f32( V, V );
; 9260 :     float32x2_t v1 = vget_low_f32( vTemp );
; 9261 :     float32x2_t v2 = vget_high_f32( vTemp );
; 9262 :     v1 = vpadd_f32( v1, v1 );
; 9263 :     v2 = vdup_lane_f32( v2, 0 );
; 9264 :     v1 = vadd_f32( v1, v2 );
; 9265 :     uint32x2_t VEqualsZero = vceq_f32( v1, vdup_n_f32(0) );
; 9266 :     uint32x2_t VEqualsInf = vceq_f32( v1, vget_low_f32(g_XMInfinity) );
; 9267 :     // Reciprocal sqrt (2 iterations of Newton-Raphson)
; 9268 :     float32x2_t S0 = vrsqrte_f32( v1 );
; 9269 :     float32x2_t P0 = vmul_f32( v1, S0 );
; 9270 :     float32x2_t R0 = vrsqrts_f32( P0, S0 );
; 9271 :     float32x2_t S1 = vmul_f32( S0, R0 );
; 9272 :     float32x2_t P1 = vmul_f32( v1, S1 );
; 9273 :     float32x2_t R1 = vrsqrts_f32( P1, S1 );
; 9274 :     v2 = vmul_f32( S1, R1 );
; 9275 :     // Normalize
; 9276 :     XMVECTOR vResult = vmulq_f32( V, vcombine_f32(v2,v2) );
; 9277 :     vResult = vbslq_f32( vcombine_f32(VEqualsZero,VEqualsZero), vdupq_n_f32(0), vResult );
; 9278 :     return vbslq_f32( vcombine_f32(VEqualsInf,VEqualsInf), g_XMQNaN, vResult );
; 9279 : #elif defined(_XM_SSE_INTRINSICS_)
; 9280 :     // Perform the dot product on x,y and z only
; 9281 :     XMVECTOR vLengthSq = _mm_mul_ps(V,V);

  0002e	0f 28 45 10	 movaps	 xmm0, XMMWORD PTR V$[rbp]
  00032	0f 59 45 10	 mulps	 xmm0, XMMWORD PTR V$[rbp]
  00036	0f 29 85 a0 03
	00 00		 movaps	 XMMWORD PTR $T1[rbp], xmm0
  0003d	0f 28 85 a0 03
	00 00		 movaps	 xmm0, XMMWORD PTR $T1[rbp]
  00044	0f 29 45 40	 movaps	 XMMWORD PTR vLengthSq$[rbp], xmm0

; 9282 :     XMVECTOR vTemp = XM_PERMUTE_PS(vLengthSq,_MM_SHUFFLE(2,1,2,1));

  00048	0f 28 45 40	 movaps	 xmm0, XMMWORD PTR vLengthSq$[rbp]
  0004c	0f c6 45 40 99	 shufps	 xmm0, XMMWORD PTR vLengthSq$[rbp], 153 ; 00000099H
  00051	0f 29 85 d0 03
	00 00		 movaps	 XMMWORD PTR $T2[rbp], xmm0
  00058	0f 28 85 d0 03
	00 00		 movaps	 xmm0, XMMWORD PTR $T2[rbp]
  0005f	0f 29 45 70	 movaps	 XMMWORD PTR vTemp$[rbp], xmm0

; 9283 :     vLengthSq = _mm_add_ss(vLengthSq,vTemp);

  00063	0f 28 45 40	 movaps	 xmm0, XMMWORD PTR vLengthSq$[rbp]
  00067	f3 0f 58 45 70	 addss	 xmm0, DWORD PTR vTemp$[rbp]
  0006c	0f 29 85 00 04
	00 00		 movaps	 XMMWORD PTR $T3[rbp], xmm0
  00073	0f 28 85 00 04
	00 00		 movaps	 xmm0, XMMWORD PTR $T3[rbp]
  0007a	0f 29 45 40	 movaps	 XMMWORD PTR vLengthSq$[rbp], xmm0

; 9284 :     vTemp = XM_PERMUTE_PS(vTemp,_MM_SHUFFLE(1,1,1,1));

  0007e	0f 28 45 70	 movaps	 xmm0, XMMWORD PTR vTemp$[rbp]
  00082	0f c6 45 70 55	 shufps	 xmm0, XMMWORD PTR vTemp$[rbp], 85 ; 00000055H
  00087	0f 29 85 30 04
	00 00		 movaps	 XMMWORD PTR $T4[rbp], xmm0
  0008e	0f 28 85 30 04
	00 00		 movaps	 xmm0, XMMWORD PTR $T4[rbp]
  00095	0f 29 45 70	 movaps	 XMMWORD PTR vTemp$[rbp], xmm0

; 9285 :     vLengthSq = _mm_add_ss(vLengthSq,vTemp);

  00099	0f 28 45 40	 movaps	 xmm0, XMMWORD PTR vLengthSq$[rbp]
  0009d	f3 0f 58 45 70	 addss	 xmm0, DWORD PTR vTemp$[rbp]
  000a2	0f 29 85 60 04
	00 00		 movaps	 XMMWORD PTR $T5[rbp], xmm0
  000a9	0f 28 85 60 04
	00 00		 movaps	 xmm0, XMMWORD PTR $T5[rbp]
  000b0	0f 29 45 40	 movaps	 XMMWORD PTR vLengthSq$[rbp], xmm0

; 9286 :     vLengthSq = XM_PERMUTE_PS(vLengthSq,_MM_SHUFFLE(0,0,0,0));

  000b4	0f 28 45 40	 movaps	 xmm0, XMMWORD PTR vLengthSq$[rbp]
  000b8	0f c6 45 40 00	 shufps	 xmm0, XMMWORD PTR vLengthSq$[rbp], 0
  000bd	0f 29 85 90 04
	00 00		 movaps	 XMMWORD PTR $T6[rbp], xmm0
  000c4	0f 28 85 90 04
	00 00		 movaps	 xmm0, XMMWORD PTR $T6[rbp]
  000cb	0f 29 45 40	 movaps	 XMMWORD PTR vLengthSq$[rbp], xmm0

; 9287 :     // Prepare for the division
; 9288 :     XMVECTOR vResult = _mm_sqrt_ps(vLengthSq);

  000cf	0f 51 45 40	 sqrtps	 xmm0, XMMWORD PTR vLengthSq$[rbp]
  000d3	0f 29 85 c0 04
	00 00		 movaps	 XMMWORD PTR $T7[rbp], xmm0
  000da	0f 28 85 c0 04
	00 00		 movaps	 xmm0, XMMWORD PTR $T7[rbp]
  000e1	0f 29 85 a0 00
	00 00		 movaps	 XMMWORD PTR vResult$[rbp], xmm0

; 9289 :     // Create zero with a single instruction
; 9290 :     XMVECTOR vZeroMask = _mm_setzero_ps();

  000e8	0f 57 c0	 xorps	 xmm0, xmm0
  000eb	0f 29 85 f0 04
	00 00		 movaps	 XMMWORD PTR $T8[rbp], xmm0
  000f2	0f 28 85 f0 04
	00 00		 movaps	 xmm0, XMMWORD PTR $T8[rbp]
  000f9	0f 29 85 d0 00
	00 00		 movaps	 XMMWORD PTR vZeroMask$[rbp], xmm0

; 9291 :     // Test for a divide by zero (Must be FP to detect -0.0)
; 9292 :     vZeroMask = _mm_cmpneq_ps(vZeroMask,vResult);

  00100	0f 28 85 d0 00
	00 00		 movaps	 xmm0, XMMWORD PTR vZeroMask$[rbp]
  00107	0f c2 85 a0 00
	00 00 04	 cmpneqps xmm0, XMMWORD PTR vResult$[rbp]
  0010f	0f 29 85 20 05
	00 00		 movaps	 XMMWORD PTR $T9[rbp], xmm0
  00116	0f 28 85 20 05
	00 00		 movaps	 xmm0, XMMWORD PTR $T9[rbp]
  0011d	0f 29 85 d0 00
	00 00		 movaps	 XMMWORD PTR vZeroMask$[rbp], xmm0

; 9293 :     // Failsafe on zero (Or epsilon) length planes
; 9294 :     // If the length is infinity, set the elements to zero
; 9295 :     vLengthSq = _mm_cmpneq_ps(vLengthSq,g_XMInfinity);

  00124	48 8d 95 80 05
	00 00		 lea	 rdx, QWORD PTR $T11[rbp]
  0012b	48 8d 0d 00 00
	00 00		 lea	 rcx, OFFSET FLAT:?g_XMInfinity@DirectX@@3UXMVECTORI32@1@B ; DirectX::g_XMInfinity
  00132	e8 00 00 00 00	 call	 ??BXMVECTORI32@DirectX@@QEBA?AT__m128@@XZ ; DirectX::XMVECTORI32::operator __m128
  00137	0f 28 45 40	 movaps	 xmm0, XMMWORD PTR vLengthSq$[rbp]
  0013b	0f c2 00 04	 cmpneqps xmm0, XMMWORD PTR [rax]
  0013f	0f 29 85 50 05
	00 00		 movaps	 XMMWORD PTR $T10[rbp], xmm0
  00146	0f 28 85 50 05
	00 00		 movaps	 xmm0, XMMWORD PTR $T10[rbp]
  0014d	0f 29 45 40	 movaps	 XMMWORD PTR vLengthSq$[rbp], xmm0

; 9296 :     // Divide to perform the normalization
; 9297 :     vResult = _mm_div_ps(V,vResult);

  00151	0f 28 45 10	 movaps	 xmm0, XMMWORD PTR V$[rbp]
  00155	0f 5e 85 a0 00
	00 00		 divps	 xmm0, XMMWORD PTR vResult$[rbp]
  0015c	0f 29 85 b0 05
	00 00		 movaps	 XMMWORD PTR $T12[rbp], xmm0
  00163	0f 28 85 b0 05
	00 00		 movaps	 xmm0, XMMWORD PTR $T12[rbp]
  0016a	0f 29 85 a0 00
	00 00		 movaps	 XMMWORD PTR vResult$[rbp], xmm0

; 9298 :     // Any that are infinity, set to zero
; 9299 :     vResult = _mm_and_ps(vResult,vZeroMask);

  00171	0f 28 85 a0 00
	00 00		 movaps	 xmm0, XMMWORD PTR vResult$[rbp]
  00178	0f 54 85 d0 00
	00 00		 andps	 xmm0, XMMWORD PTR vZeroMask$[rbp]
  0017f	0f 29 85 e0 05
	00 00		 movaps	 XMMWORD PTR $T13[rbp], xmm0
  00186	0f 28 85 e0 05
	00 00		 movaps	 xmm0, XMMWORD PTR $T13[rbp]
  0018d	0f 29 85 a0 00
	00 00		 movaps	 XMMWORD PTR vResult$[rbp], xmm0

; 9300 :     // Select qnan or result based on infinite length
; 9301 :     XMVECTOR vTemp1 = _mm_andnot_ps(vLengthSq,g_XMQNaN);

  00194	48 8d 95 40 06
	00 00		 lea	 rdx, QWORD PTR $T15[rbp]
  0019b	48 8d 0d 00 00
	00 00		 lea	 rcx, OFFSET FLAT:?g_XMQNaN@DirectX@@3UXMVECTORI32@1@B ; DirectX::g_XMQNaN
  001a2	e8 00 00 00 00	 call	 ??BXMVECTORI32@DirectX@@QEBA?AT__m128@@XZ ; DirectX::XMVECTORI32::operator __m128
  001a7	0f 28 45 40	 movaps	 xmm0, XMMWORD PTR vLengthSq$[rbp]
  001ab	0f 55 00	 andnps	 xmm0, XMMWORD PTR [rax]
  001ae	0f 29 85 10 06
	00 00		 movaps	 XMMWORD PTR $T14[rbp], xmm0
  001b5	0f 28 85 10 06
	00 00		 movaps	 xmm0, XMMWORD PTR $T14[rbp]
  001bc	0f 29 85 00 01
	00 00		 movaps	 XMMWORD PTR vTemp1$[rbp], xmm0

; 9302 :     XMVECTOR vTemp2 = _mm_and_ps(vResult,vLengthSq);

  001c3	0f 28 85 a0 00
	00 00		 movaps	 xmm0, XMMWORD PTR vResult$[rbp]
  001ca	0f 54 45 40	 andps	 xmm0, XMMWORD PTR vLengthSq$[rbp]
  001ce	0f 29 85 70 06
	00 00		 movaps	 XMMWORD PTR $T16[rbp], xmm0
  001d5	0f 28 85 70 06
	00 00		 movaps	 xmm0, XMMWORD PTR $T16[rbp]
  001dc	0f 29 85 30 01
	00 00		 movaps	 XMMWORD PTR vTemp2$[rbp], xmm0

; 9303 :     vResult = _mm_or_ps(vTemp1,vTemp2);

  001e3	0f 28 85 00 01
	00 00		 movaps	 xmm0, XMMWORD PTR vTemp1$[rbp]
  001ea	0f 56 85 30 01
	00 00		 orps	 xmm0, XMMWORD PTR vTemp2$[rbp]
  001f1	0f 29 85 a0 06
	00 00		 movaps	 XMMWORD PTR $T17[rbp], xmm0
  001f8	0f 28 85 a0 06
	00 00		 movaps	 xmm0, XMMWORD PTR $T17[rbp]
  001ff	0f 29 85 a0 00
	00 00		 movaps	 XMMWORD PTR vResult$[rbp], xmm0

; 9304 :     return vResult;

  00206	0f 28 85 a0 00
	00 00		 movaps	 xmm0, XMMWORD PTR vResult$[rbp]

; 9305 : #endif
; 9306 : }

  0020d	48 8d a5 c8 06
	00 00		 lea	 rsp, QWORD PTR [rbp+1736]
  00214	5f		 pop	 rdi
  00215	5d		 pop	 rbp
  00216	c3		 ret	 0
?XMVector3Normalize@DirectX@@YQ?AT__m128@@T2@@Z ENDP	; DirectX::XMVector3Normalize
_TEXT	ENDS
; Function compile flags: /Odtp /RTCsu /ZI
; File c:\program files (x86)\windows kits\8.1\include\um\directxmathvector.inl
;	COMDAT ?XMVector3Length@DirectX@@YQ?AT__m128@@T2@@Z
_TEXT	SEGMENT
V$ = 16
vLengthSq$ = 64
vTemp$ = 112
$T1 = 352
$T2 = 400
$T3 = 448
$T4 = 496
$T5 = 544
$T6 = 592
$T7 = 640
?XMVector3Length@DirectX@@YQ?AT__m128@@T2@@Z PROC	; DirectX::XMVector3Length, COMDAT

; 9133 : {

$LN3:
  00000	40 55		 push	 rbp
  00002	57		 push	 rdi
  00003	48 81 ec b8 02
	00 00		 sub	 rsp, 696		; 000002b8H
  0000a	48 8d 6c 24 10	 lea	 rbp, QWORD PTR [rsp+16]
  0000f	48 8b fc	 mov	 rdi, rsp
  00012	b9 ae 00 00 00	 mov	 ecx, 174		; 000000aeH
  00017	b8 cc cc cc cc	 mov	 eax, -858993460		; ccccccccH
  0001c	f3 ab		 rep stosd
  0001e	48 8d 45 10	 lea	 rax, QWORD PTR V$[rbp]
  00022	48 89 84 24 d0
	02 00 00	 mov	 QWORD PTR [rsp+720], rax
  0002a	0f 29 45 10	 movaps	 XMMWORD PTR V$[rbp], xmm0

; 9134 : #if defined(_XM_NO_INTRINSICS_)
; 9135 : 
; 9136 :     XMVECTOR Result;
; 9137 : 
; 9138 :     Result = XMVector3LengthSq(V);
; 9139 :     Result = XMVectorSqrt(Result);
; 9140 : 
; 9141 :     return Result;
; 9142 : 
; 9143 : #elif defined(_XM_ARM_NEON_INTRINSICS_)
; 9144 :     // Dot3
; 9145 :     float32x4_t vTemp = vmulq_f32( V, V );
; 9146 :     float32x2_t v1 = vget_low_f32( vTemp );
; 9147 :     float32x2_t v2 = vget_high_f32( vTemp );
; 9148 :     v1 = vpadd_f32( v1, v1 );
; 9149 :     v2 = vdup_lane_f32( v2, 0 );
; 9150 :     v1 = vadd_f32( v1, v2 );
; 9151 :     const float32x2_t zero = vdup_n_f32(0);
; 9152 :     uint32x2_t VEqualsZero = vceq_f32( v1, zero );
; 9153 :     // Sqrt
; 9154 :     float32x2_t S0 = vrsqrte_f32( v1 );
; 9155 :     float32x2_t P0 = vmul_f32( v1, S0 );
; 9156 :     float32x2_t R0 = vrsqrts_f32( P0, S0 );
; 9157 :     float32x2_t S1 = vmul_f32( S0, R0 );
; 9158 :     float32x2_t P1 = vmul_f32( v1, S1 );
; 9159 :     float32x2_t R1 = vrsqrts_f32( P1, S1 );
; 9160 :     float32x2_t Result = vmul_f32( S1, R1 );
; 9161 :     Result = vmul_f32( v1, Result );
; 9162 :     Result = vbsl_f32( VEqualsZero, zero, Result );
; 9163 :     return vcombine_f32( Result, Result );
; 9164 : #elif defined(_XM_SSE_INTRINSICS_)
; 9165 :     // Perform the dot product on x,y and z
; 9166 :     XMVECTOR vLengthSq = _mm_mul_ps(V,V);

  0002e	0f 28 45 10	 movaps	 xmm0, XMMWORD PTR V$[rbp]
  00032	0f 59 45 10	 mulps	 xmm0, XMMWORD PTR V$[rbp]
  00036	0f 29 85 60 01
	00 00		 movaps	 XMMWORD PTR $T1[rbp], xmm0
  0003d	0f 28 85 60 01
	00 00		 movaps	 xmm0, XMMWORD PTR $T1[rbp]
  00044	0f 29 45 40	 movaps	 XMMWORD PTR vLengthSq$[rbp], xmm0

; 9167 :     // vTemp has z and y
; 9168 :     XMVECTOR vTemp = XM_PERMUTE_PS(vLengthSq,_MM_SHUFFLE(1,2,1,2));

  00048	0f 28 45 40	 movaps	 xmm0, XMMWORD PTR vLengthSq$[rbp]
  0004c	0f c6 45 40 66	 shufps	 xmm0, XMMWORD PTR vLengthSq$[rbp], 102 ; 00000066H
  00051	0f 29 85 90 01
	00 00		 movaps	 XMMWORD PTR $T2[rbp], xmm0
  00058	0f 28 85 90 01
	00 00		 movaps	 xmm0, XMMWORD PTR $T2[rbp]
  0005f	0f 29 45 70	 movaps	 XMMWORD PTR vTemp$[rbp], xmm0

; 9169 :     // x+z, y
; 9170 :     vLengthSq = _mm_add_ss(vLengthSq,vTemp);

  00063	0f 28 45 40	 movaps	 xmm0, XMMWORD PTR vLengthSq$[rbp]
  00067	f3 0f 58 45 70	 addss	 xmm0, DWORD PTR vTemp$[rbp]
  0006c	0f 29 85 c0 01
	00 00		 movaps	 XMMWORD PTR $T3[rbp], xmm0
  00073	0f 28 85 c0 01
	00 00		 movaps	 xmm0, XMMWORD PTR $T3[rbp]
  0007a	0f 29 45 40	 movaps	 XMMWORD PTR vLengthSq$[rbp], xmm0

; 9171 :     // y,y,y,y
; 9172 :     vTemp = XM_PERMUTE_PS(vTemp,_MM_SHUFFLE(1,1,1,1));

  0007e	0f 28 45 70	 movaps	 xmm0, XMMWORD PTR vTemp$[rbp]
  00082	0f c6 45 70 55	 shufps	 xmm0, XMMWORD PTR vTemp$[rbp], 85 ; 00000055H
  00087	0f 29 85 f0 01
	00 00		 movaps	 XMMWORD PTR $T4[rbp], xmm0
  0008e	0f 28 85 f0 01
	00 00		 movaps	 xmm0, XMMWORD PTR $T4[rbp]
  00095	0f 29 45 70	 movaps	 XMMWORD PTR vTemp$[rbp], xmm0

; 9173 :     // x+z+y,??,??,??
; 9174 :     vLengthSq = _mm_add_ss(vLengthSq,vTemp);

  00099	0f 28 45 40	 movaps	 xmm0, XMMWORD PTR vLengthSq$[rbp]
  0009d	f3 0f 58 45 70	 addss	 xmm0, DWORD PTR vTemp$[rbp]
  000a2	0f 29 85 20 02
	00 00		 movaps	 XMMWORD PTR $T5[rbp], xmm0
  000a9	0f 28 85 20 02
	00 00		 movaps	 xmm0, XMMWORD PTR $T5[rbp]
  000b0	0f 29 45 40	 movaps	 XMMWORD PTR vLengthSq$[rbp], xmm0

; 9175 :     // Splat the length squared
; 9176 :     vLengthSq = XM_PERMUTE_PS(vLengthSq,_MM_SHUFFLE(0,0,0,0));

  000b4	0f 28 45 40	 movaps	 xmm0, XMMWORD PTR vLengthSq$[rbp]
  000b8	0f c6 45 40 00	 shufps	 xmm0, XMMWORD PTR vLengthSq$[rbp], 0
  000bd	0f 29 85 50 02
	00 00		 movaps	 XMMWORD PTR $T6[rbp], xmm0
  000c4	0f 28 85 50 02
	00 00		 movaps	 xmm0, XMMWORD PTR $T6[rbp]
  000cb	0f 29 45 40	 movaps	 XMMWORD PTR vLengthSq$[rbp], xmm0

; 9177 :     // Get the length
; 9178 :     vLengthSq = _mm_sqrt_ps(vLengthSq);

  000cf	0f 51 45 40	 sqrtps	 xmm0, XMMWORD PTR vLengthSq$[rbp]
  000d3	0f 29 85 80 02
	00 00		 movaps	 XMMWORD PTR $T7[rbp], xmm0
  000da	0f 28 85 80 02
	00 00		 movaps	 xmm0, XMMWORD PTR $T7[rbp]
  000e1	0f 29 45 40	 movaps	 XMMWORD PTR vLengthSq$[rbp], xmm0

; 9179 :     return vLengthSq;

  000e5	0f 28 45 40	 movaps	 xmm0, XMMWORD PTR vLengthSq$[rbp]

; 9180 : #endif
; 9181 : }

  000e9	48 8d a5 a8 02
	00 00		 lea	 rsp, QWORD PTR [rbp+680]
  000f0	5f		 pop	 rdi
  000f1	5d		 pop	 rbp
  000f2	c3		 ret	 0
?XMVector3Length@DirectX@@YQ?AT__m128@@T2@@Z ENDP	; DirectX::XMVector3Length
_TEXT	ENDS
; Function compile flags: /Odtp /RTCsu /ZI
; File c:\program files (x86)\windows kits\8.1\include\um\directxmathvector.inl
;	COMDAT ?XMVectorScale@DirectX@@YQ?AT__m128@@T2@M@Z
_TEXT	SEGMENT
V$ = 16
vResult$ = 64
$T1 = 304
$T2 = 352
ScaleFactor$ = 424
?XMVectorScale@DirectX@@YQ?AT__m128@@T2@M@Z PROC	; DirectX::XMVectorScale, COMDAT

; 2965 : {

$LN3:
  00000	f3 0f 11 4c 24
	10		 movss	 DWORD PTR [rsp+16], xmm1
  00006	55		 push	 rbp
  00007	57		 push	 rdi
  00008	48 81 ec 98 01
	00 00		 sub	 rsp, 408		; 00000198H
  0000f	48 8d 6c 24 10	 lea	 rbp, QWORD PTR [rsp+16]
  00014	48 8b fc	 mov	 rdi, rsp
  00017	b9 66 00 00 00	 mov	 ecx, 102		; 00000066H
  0001c	b8 cc cc cc cc	 mov	 eax, -858993460		; ccccccccH
  00021	f3 ab		 rep stosd
  00023	48 8d 45 10	 lea	 rax, QWORD PTR V$[rbp]
  00027	48 89 84 24 b0
	01 00 00	 mov	 QWORD PTR [rsp+432], rax
  0002f	0f 29 45 10	 movaps	 XMMWORD PTR V$[rbp], xmm0

; 2966 : #if defined(_XM_NO_INTRINSICS_)
; 2967 :     XMVECTOR Result;
; 2968 :     Result.vector4_f32[0] = V.vector4_f32[0] * ScaleFactor;
; 2969 :     Result.vector4_f32[1] = V.vector4_f32[1] * ScaleFactor;
; 2970 :     Result.vector4_f32[2] = V.vector4_f32[2] * ScaleFactor;
; 2971 :     Result.vector4_f32[3] = V.vector4_f32[3] * ScaleFactor;
; 2972 :     return Result;
; 2973 : #elif defined(_XM_ARM_NEON_INTRINSICS_)
; 2974 :     return XM_VMULQ_N_F32( V, ScaleFactor );
; 2975 : #elif defined(_XM_SSE_INTRINSICS_)
; 2976 :    XMVECTOR vResult = _mm_set_ps1(ScaleFactor);

  00033	f3 0f 10 85 a8
	01 00 00	 movss	 xmm0, DWORD PTR ScaleFactor$[rbp]
  0003b	0f c6 c0 00	 shufps	 xmm0, xmm0, 0
  0003f	0f 29 85 30 01
	00 00		 movaps	 XMMWORD PTR $T1[rbp], xmm0
  00046	0f 28 85 30 01
	00 00		 movaps	 xmm0, XMMWORD PTR $T1[rbp]
  0004d	0f 29 45 40	 movaps	 XMMWORD PTR vResult$[rbp], xmm0

; 2977 :    return _mm_mul_ps(vResult,V);

  00051	0f 28 45 40	 movaps	 xmm0, XMMWORD PTR vResult$[rbp]
  00055	0f 59 45 10	 mulps	 xmm0, XMMWORD PTR V$[rbp]
  00059	0f 29 85 60 01
	00 00		 movaps	 XMMWORD PTR $T2[rbp], xmm0
  00060	0f 28 85 60 01
	00 00		 movaps	 xmm0, XMMWORD PTR $T2[rbp]

; 2978 : #endif
; 2979 : }

  00067	48 8d a5 88 01
	00 00		 lea	 rsp, QWORD PTR [rbp+392]
  0006e	5f		 pop	 rdi
  0006f	5d		 pop	 rbp
  00070	c3		 ret	 0
?XMVectorScale@DirectX@@YQ?AT__m128@@T2@M@Z ENDP	; DirectX::XMVectorScale
_TEXT	ENDS
; Function compile flags: /Odtp /RTCsu /ZI
; File c:\program files (x86)\windows kits\8.1\include\um\directxmathvector.inl
;	COMDAT ?XMVectorSubtract@DirectX@@YQ?AT__m128@@T2@0@Z
_TEXT	SEGMENT
V1$ = 16
V2$ = 64
$T1 = 304
?XMVectorSubtract@DirectX@@YQ?AT__m128@@T2@0@Z PROC	; DirectX::XMVectorSubtract, COMDAT

; 2784 : {

$LN3:
  00000	40 55		 push	 rbp
  00002	57		 push	 rdi
  00003	48 81 ec 68 01
	00 00		 sub	 rsp, 360		; 00000168H
  0000a	48 8d 6c 24 10	 lea	 rbp, QWORD PTR [rsp+16]
  0000f	48 8b fc	 mov	 rdi, rsp
  00012	b9 5a 00 00 00	 mov	 ecx, 90			; 0000005aH
  00017	b8 cc cc cc cc	 mov	 eax, -858993460		; ccccccccH
  0001c	f3 ab		 rep stosd
  0001e	48 8d 45 10	 lea	 rax, QWORD PTR V1$[rbp]
  00022	48 89 84 24 80
	01 00 00	 mov	 QWORD PTR [rsp+384], rax
  0002a	48 8d 45 40	 lea	 rax, QWORD PTR V2$[rbp]
  0002e	48 89 84 24 88
	01 00 00	 mov	 QWORD PTR [rsp+392], rax
  00036	0f 29 4d 40	 movaps	 XMMWORD PTR V2$[rbp], xmm1
  0003a	0f 29 45 10	 movaps	 XMMWORD PTR V1$[rbp], xmm0

; 2785 : #if defined(_XM_NO_INTRINSICS_)
; 2786 : 
; 2787 :     XMVECTOR Result;
; 2788 :     Result.vector4_f32[0] = V1.vector4_f32[0] - V2.vector4_f32[0];
; 2789 :     Result.vector4_f32[1] = V1.vector4_f32[1] - V2.vector4_f32[1];
; 2790 :     Result.vector4_f32[2] = V1.vector4_f32[2] - V2.vector4_f32[2];
; 2791 :     Result.vector4_f32[3] = V1.vector4_f32[3] - V2.vector4_f32[3];
; 2792 :     return Result;
; 2793 : 
; 2794 : #elif defined(_XM_ARM_NEON_INTRINSICS_)
; 2795 :     return vsubq_f32( V1, V2 );
; 2796 : #elif defined(_XM_SSE_INTRINSICS_)
; 2797 :     return _mm_sub_ps( V1, V2 );

  0003e	0f 28 45 10	 movaps	 xmm0, XMMWORD PTR V1$[rbp]
  00042	0f 5c 45 40	 subps	 xmm0, XMMWORD PTR V2$[rbp]
  00046	0f 29 85 30 01
	00 00		 movaps	 XMMWORD PTR $T1[rbp], xmm0
  0004d	0f 28 85 30 01
	00 00		 movaps	 xmm0, XMMWORD PTR $T1[rbp]

; 2798 : #endif
; 2799 : }

  00054	48 8d a5 58 01
	00 00		 lea	 rsp, QWORD PTR [rbp+344]
  0005b	5f		 pop	 rdi
  0005c	5d		 pop	 rbp
  0005d	c3		 ret	 0
?XMVectorSubtract@DirectX@@YQ?AT__m128@@T2@0@Z ENDP	; DirectX::XMVectorSubtract
_TEXT	ENDS
; Function compile flags: /Odtp /RTCsu /ZI
; File c:\program files (x86)\windows kits\8.1\include\um\directxmathvector.inl
;	COMDAT ?XMVectorAdd@DirectX@@YQ?AT__m128@@T2@0@Z
_TEXT	SEGMENT
V1$ = 16
V2$ = 64
$T1 = 304
?XMVectorAdd@DirectX@@YQ?AT__m128@@T2@0@Z PROC		; DirectX::XMVectorAdd, COMDAT

; 2701 : {

$LN3:
  00000	40 55		 push	 rbp
  00002	57		 push	 rdi
  00003	48 81 ec 68 01
	00 00		 sub	 rsp, 360		; 00000168H
  0000a	48 8d 6c 24 10	 lea	 rbp, QWORD PTR [rsp+16]
  0000f	48 8b fc	 mov	 rdi, rsp
  00012	b9 5a 00 00 00	 mov	 ecx, 90			; 0000005aH
  00017	b8 cc cc cc cc	 mov	 eax, -858993460		; ccccccccH
  0001c	f3 ab		 rep stosd
  0001e	48 8d 45 10	 lea	 rax, QWORD PTR V1$[rbp]
  00022	48 89 84 24 80
	01 00 00	 mov	 QWORD PTR [rsp+384], rax
  0002a	48 8d 45 40	 lea	 rax, QWORD PTR V2$[rbp]
  0002e	48 89 84 24 88
	01 00 00	 mov	 QWORD PTR [rsp+392], rax
  00036	0f 29 4d 40	 movaps	 XMMWORD PTR V2$[rbp], xmm1
  0003a	0f 29 45 10	 movaps	 XMMWORD PTR V1$[rbp], xmm0

; 2702 : #if defined(_XM_NO_INTRINSICS_)
; 2703 : 
; 2704 :     XMVECTOR Result;
; 2705 :     Result.vector4_f32[0] = V1.vector4_f32[0] + V2.vector4_f32[0];
; 2706 :     Result.vector4_f32[1] = V1.vector4_f32[1] + V2.vector4_f32[1];
; 2707 :     Result.vector4_f32[2] = V1.vector4_f32[2] + V2.vector4_f32[2];
; 2708 :     Result.vector4_f32[3] = V1.vector4_f32[3] + V2.vector4_f32[3];
; 2709 :     return Result;
; 2710 : 
; 2711 : #elif defined(_XM_ARM_NEON_INTRINSICS_)
; 2712 :     return vaddq_f32( V1, V2 );
; 2713 : #elif defined(_XM_SSE_INTRINSICS_)
; 2714 :     return _mm_add_ps( V1, V2 );

  0003e	0f 28 45 10	 movaps	 xmm0, XMMWORD PTR V1$[rbp]
  00042	0f 58 45 40	 addps	 xmm0, XMMWORD PTR V2$[rbp]
  00046	0f 29 85 30 01
	00 00		 movaps	 XMMWORD PTR $T1[rbp], xmm0
  0004d	0f 28 85 30 01
	00 00		 movaps	 xmm0, XMMWORD PTR $T1[rbp]

; 2715 : #endif
; 2716 : }

  00054	48 8d a5 58 01
	00 00		 lea	 rsp, QWORD PTR [rbp+344]
  0005b	5f		 pop	 rdi
  0005c	5d		 pop	 rbp
  0005d	c3		 ret	 0
?XMVectorAdd@DirectX@@YQ?AT__m128@@T2@0@Z ENDP		; DirectX::XMVectorAdd
_TEXT	ENDS
; Function compile flags: /Odtp /RTCsu /ZI
; File c:\program files (x86)\windows kits\8.1\include\um\directxmathvector.inl
;	COMDAT ?XMVectorNegate@DirectX@@YQ?AT__m128@@T2@@Z
_TEXT	SEGMENT
V$ = 16
Z$ = 64
$T1 = 304
$T2 = 352
?XMVectorNegate@DirectX@@YQ?AT__m128@@T2@@Z PROC	; DirectX::XMVectorNegate, COMDAT

; 2673 : {

$LN3:
  00000	40 55		 push	 rbp
  00002	57		 push	 rdi
  00003	48 81 ec 98 01
	00 00		 sub	 rsp, 408		; 00000198H
  0000a	48 8d 6c 24 10	 lea	 rbp, QWORD PTR [rsp+16]
  0000f	48 8b fc	 mov	 rdi, rsp
  00012	b9 66 00 00 00	 mov	 ecx, 102		; 00000066H
  00017	b8 cc cc cc cc	 mov	 eax, -858993460		; ccccccccH
  0001c	f3 ab		 rep stosd
  0001e	48 8d 45 10	 lea	 rax, QWORD PTR V$[rbp]
  00022	48 89 84 24 b0
	01 00 00	 mov	 QWORD PTR [rsp+432], rax
  0002a	0f 29 45 10	 movaps	 XMMWORD PTR V$[rbp], xmm0

; 2674 : #if defined(_XM_NO_INTRINSICS_)
; 2675 : 
; 2676 :     XMVECTOR Result;
; 2677 :     Result.vector4_f32[0] = -V.vector4_f32[0];
; 2678 :     Result.vector4_f32[1] = -V.vector4_f32[1];
; 2679 :     Result.vector4_f32[2] = -V.vector4_f32[2];
; 2680 :     Result.vector4_f32[3] = -V.vector4_f32[3];
; 2681 :     return Result;
; 2682 : 
; 2683 : #elif defined(_XM_ARM_NEON_INTRINSICS_)
; 2684 :     return vnegq_f32(V);
; 2685 : #elif defined(_XM_SSE_INTRINSICS_)
; 2686 :     XMVECTOR Z;
; 2687 : 
; 2688 :     Z = _mm_setzero_ps();

  0002e	0f 57 c0	 xorps	 xmm0, xmm0
  00031	0f 29 85 30 01
	00 00		 movaps	 XMMWORD PTR $T1[rbp], xmm0
  00038	0f 28 85 30 01
	00 00		 movaps	 xmm0, XMMWORD PTR $T1[rbp]
  0003f	0f 29 45 40	 movaps	 XMMWORD PTR Z$[rbp], xmm0

; 2689 : 
; 2690 :     return _mm_sub_ps( Z, V );

  00043	0f 28 45 40	 movaps	 xmm0, XMMWORD PTR Z$[rbp]
  00047	0f 5c 45 10	 subps	 xmm0, XMMWORD PTR V$[rbp]
  0004b	0f 29 85 60 01
	00 00		 movaps	 XMMWORD PTR $T2[rbp], xmm0
  00052	0f 28 85 60 01
	00 00		 movaps	 xmm0, XMMWORD PTR $T2[rbp]

; 2691 : #endif
; 2692 : }

  00059	48 8d a5 88 01
	00 00		 lea	 rsp, QWORD PTR [rbp+392]
  00060	5f		 pop	 rdi
  00061	5d		 pop	 rbp
  00062	c3		 ret	 0
?XMVectorNegate@DirectX@@YQ?AT__m128@@T2@@Z ENDP	; DirectX::XMVectorNegate
_TEXT	ENDS
; Function compile flags: /Odtp /RTCsu /ZI
; File c:\program files (x86)\windows kits\8.1\include\um\directxmathvector.inl
;	COMDAT ?XMVectorSetY@DirectX@@YQ?AT__m128@@T2@M@Z
_TEXT	SEGMENT
V$ = 16
vResult$ = 64
vTemp$ = 112
$T1 = 352
$T2 = 400
$T3 = 448
$T4 = 496
y$ = 568
?XMVectorSetY@DirectX@@YQ?AT__m128@@T2@M@Z PROC		; DirectX::XMVectorSetY, COMDAT

; 742  : {

$LN3:
  00000	f3 0f 11 4c 24
	10		 movss	 DWORD PTR [rsp+16], xmm1
  00006	55		 push	 rbp
  00007	57		 push	 rdi
  00008	48 81 ec 28 02
	00 00		 sub	 rsp, 552		; 00000228H
  0000f	48 8d 6c 24 10	 lea	 rbp, QWORD PTR [rsp+16]
  00014	48 8b fc	 mov	 rdi, rsp
  00017	b9 8a 00 00 00	 mov	 ecx, 138		; 0000008aH
  0001c	b8 cc cc cc cc	 mov	 eax, -858993460		; ccccccccH
  00021	f3 ab		 rep stosd
  00023	48 8d 45 10	 lea	 rax, QWORD PTR V$[rbp]
  00027	48 89 84 24 40
	02 00 00	 mov	 QWORD PTR [rsp+576], rax
  0002f	0f 29 45 10	 movaps	 XMMWORD PTR V$[rbp], xmm0

; 743  : #if defined(_XM_NO_INTRINSICS_)
; 744  :     XMVECTOR U;
; 745  :     U.vector4_f32[0] = V.vector4_f32[0];
; 746  :     U.vector4_f32[1] = y;
; 747  :     U.vector4_f32[2] = V.vector4_f32[2];
; 748  :     U.vector4_f32[3] = V.vector4_f32[3];
; 749  :     return U;
; 750  : #elif defined(_XM_ARM_NEON_INTRINSICS_)
; 751  :     return vsetq_lane_f32(y,V,1);
; 752  : #elif defined(_XM_SSE_INTRINSICS_)
; 753  :     // Swap y and x
; 754  :     XMVECTOR vResult = XM_PERMUTE_PS(V,_MM_SHUFFLE(3,2,0,1));

  00033	0f 28 45 10	 movaps	 xmm0, XMMWORD PTR V$[rbp]
  00037	0f c6 45 10 e1	 shufps	 xmm0, XMMWORD PTR V$[rbp], 225 ; 000000e1H
  0003c	0f 29 85 60 01
	00 00		 movaps	 XMMWORD PTR $T1[rbp], xmm0
  00043	0f 28 85 60 01
	00 00		 movaps	 xmm0, XMMWORD PTR $T1[rbp]
  0004a	0f 29 45 40	 movaps	 XMMWORD PTR vResult$[rbp], xmm0

; 755  :     // Convert input to vector
; 756  :     XMVECTOR vTemp = _mm_set_ss(y);

  0004e	f3 0f 10 85 38
	02 00 00	 movss	 xmm0, DWORD PTR y$[rbp]
  00056	0f 57 c9	 xorps	 xmm1, xmm1
  00059	f3 0f 10 c8	 movss	 xmm1, xmm0
  0005d	0f 28 c1	 movaps	 xmm0, xmm1
  00060	0f 29 85 90 01
	00 00		 movaps	 XMMWORD PTR $T2[rbp], xmm0
  00067	0f 28 85 90 01
	00 00		 movaps	 xmm0, XMMWORD PTR $T2[rbp]
  0006e	0f 29 45 70	 movaps	 XMMWORD PTR vTemp$[rbp], xmm0

; 757  :     // Replace the x component
; 758  :     vResult = _mm_move_ss(vResult,vTemp);

  00072	0f 28 45 40	 movaps	 xmm0, XMMWORD PTR vResult$[rbp]
  00076	0f 28 4d 70	 movaps	 xmm1, XMMWORD PTR vTemp$[rbp]
  0007a	f3 0f 10 c1	 movss	 xmm0, xmm1
  0007e	0f 29 85 c0 01
	00 00		 movaps	 XMMWORD PTR $T3[rbp], xmm0
  00085	0f 28 85 c0 01
	00 00		 movaps	 xmm0, XMMWORD PTR $T3[rbp]
  0008c	0f 29 45 40	 movaps	 XMMWORD PTR vResult$[rbp], xmm0

; 759  :     // Swap y and x again
; 760  :     vResult = XM_PERMUTE_PS(vResult,_MM_SHUFFLE(3,2,0,1));

  00090	0f 28 45 40	 movaps	 xmm0, XMMWORD PTR vResult$[rbp]
  00094	0f c6 45 40 e1	 shufps	 xmm0, XMMWORD PTR vResult$[rbp], 225 ; 000000e1H
  00099	0f 29 85 f0 01
	00 00		 movaps	 XMMWORD PTR $T4[rbp], xmm0
  000a0	0f 28 85 f0 01
	00 00		 movaps	 xmm0, XMMWORD PTR $T4[rbp]
  000a7	0f 29 45 40	 movaps	 XMMWORD PTR vResult$[rbp], xmm0

; 761  :     return vResult;

  000ab	0f 28 45 40	 movaps	 xmm0, XMMWORD PTR vResult$[rbp]

; 762  : #endif
; 763  : }

  000af	48 8d a5 18 02
	00 00		 lea	 rsp, QWORD PTR [rbp+536]
  000b6	5f		 pop	 rdi
  000b7	5d		 pop	 rbp
  000b8	c3		 ret	 0
?XMVectorSetY@DirectX@@YQ?AT__m128@@T2@M@Z ENDP		; DirectX::XMVectorSetY
_TEXT	ENDS
; Function compile flags: /Odtp /RTCsu /ZI
; File c:\program files (x86)\windows kits\8.1\include\um\directxmathvector.inl
;	COMDAT ?XMVectorGetX@DirectX@@YQMT__m128@@@Z
_TEXT	SEGMENT
V$ = 16
tv66 = 228
?XMVectorGetX@DirectX@@YQMT__m128@@@Z PROC		; DirectX::XMVectorGetX, COMDAT

; 419  : {

$LN3:
  00000	40 55		 push	 rbp
  00002	57		 push	 rdi
  00003	48 81 ec 08 01
	00 00		 sub	 rsp, 264		; 00000108H
  0000a	48 8d 6c 24 10	 lea	 rbp, QWORD PTR [rsp+16]
  0000f	48 8b fc	 mov	 rdi, rsp
  00012	b9 42 00 00 00	 mov	 ecx, 66			; 00000042H
  00017	b8 cc cc cc cc	 mov	 eax, -858993460		; ccccccccH
  0001c	f3 ab		 rep stosd
  0001e	48 8d 45 10	 lea	 rax, QWORD PTR V$[rbp]
  00022	48 89 84 24 20
	01 00 00	 mov	 QWORD PTR [rsp+288], rax
  0002a	0f 29 45 10	 movaps	 XMMWORD PTR V$[rbp], xmm0

; 420  : #if defined(_XM_NO_INTRINSICS_)
; 421  :     return V.vector4_f32[0];
; 422  : #elif defined(_XM_ARM_NEON_INTRINSICS_)
; 423  :     return vgetq_lane_f32(V, 0);
; 424  : #elif defined(_XM_SSE_INTRINSICS_)
; 425  :     return _mm_cvtss_f32(V);

  0002e	0f 28 45 10	 movaps	 xmm0, XMMWORD PTR V$[rbp]
  00032	f3 0f 11 85 e4
	00 00 00	 movss	 DWORD PTR tv66[rbp], xmm0
  0003a	f3 0f 10 85 e4
	00 00 00	 movss	 xmm0, DWORD PTR tv66[rbp]

; 426  : #endif
; 427  : }

  00042	48 8d a5 f8 00
	00 00		 lea	 rsp, QWORD PTR [rbp+248]
  00049	5f		 pop	 rdi
  0004a	5d		 pop	 rbp
  0004b	c3		 ret	 0
?XMVectorGetX@DirectX@@YQMT__m128@@@Z ENDP		; DirectX::XMVectorGetX
_TEXT	ENDS
; Function compile flags: /Odtp /RTCsu /ZI
; File c:\program files (x86)\windows kits\8.1\include\um\directxmathvector.inl
;	COMDAT ?XMVectorSet@DirectX@@YQ?AT__m128@@MMMM@Z
_TEXT	SEGMENT
$T1 = 208
x$ = 272
y$ = 280
z$ = 288
w$ = 296
?XMVectorSet@DirectX@@YQ?AT__m128@@MMMM@Z PROC		; DirectX::XMVectorSet, COMDAT

; 71   : {

$LN3:
  00000	f3 0f 11 5c 24
	20		 movss	 DWORD PTR [rsp+32], xmm3
  00006	f3 0f 11 54 24
	18		 movss	 DWORD PTR [rsp+24], xmm2
  0000c	f3 0f 11 4c 24
	10		 movss	 DWORD PTR [rsp+16], xmm1
  00012	f3 0f 11 44 24
	08		 movss	 DWORD PTR [rsp+8], xmm0
  00018	55		 push	 rbp
  00019	57		 push	 rdi
  0001a	48 81 ec 08 01
	00 00		 sub	 rsp, 264		; 00000108H
  00021	48 8d 6c 24 10	 lea	 rbp, QWORD PTR [rsp+16]
  00026	48 8b fc	 mov	 rdi, rsp
  00029	b9 42 00 00 00	 mov	 ecx, 66			; 00000042H
  0002e	b8 cc cc cc cc	 mov	 eax, -858993460		; ccccccccH
  00033	f3 ab		 rep stosd

; 72   : #if defined(_XM_NO_INTRINSICS_)
; 73   :     XMVECTORF32 vResult = {x,y,z,w};
; 74   :     return vResult.v;
; 75   : #elif defined(_XM_ARM_NEON_INTRINSICS_)
; 76   :     float32x2_t V0 = vcreate_f32(((uint64_t)*(const uint32_t *)&x) | ((uint64_t)(*(const uint32_t *)&y) << 32));
; 77   :     float32x2_t V1 = vcreate_f32(((uint64_t)*(const uint32_t *)&z) | ((uint64_t)(*(const uint32_t *)&w) << 32));
; 78   :     return vcombine_f32(V0, V1);
; 79   : #elif defined(_XM_SSE_INTRINSICS_)
; 80   :     return _mm_set_ps( w, z, y, x );

  00035	f3 0f 10 85 28
	01 00 00	 movss	 xmm0, DWORD PTR w$[rbp]
  0003d	f3 0f 10 8d 20
	01 00 00	 movss	 xmm1, DWORD PTR z$[rbp]
  00045	f3 0f 10 95 18
	01 00 00	 movss	 xmm2, DWORD PTR y$[rbp]
  0004d	f3 0f 10 9d 10
	01 00 00	 movss	 xmm3, DWORD PTR x$[rbp]
  00055	0f 14 d9	 unpcklps xmm3, xmm1
  00058	0f 14 d0	 unpcklps xmm2, xmm0
  0005b	0f 28 c3	 movaps	 xmm0, xmm3
  0005e	0f 14 c2	 unpcklps xmm0, xmm2
  00061	0f 29 85 d0 00
	00 00		 movaps	 XMMWORD PTR $T1[rbp], xmm0
  00068	0f 28 85 d0 00
	00 00		 movaps	 xmm0, XMMWORD PTR $T1[rbp]

; 81   : #endif
; 82   : }

  0006f	48 8d a5 f8 00
	00 00		 lea	 rsp, QWORD PTR [rbp+248]
  00076	5f		 pop	 rdi
  00077	5d		 pop	 rbp
  00078	c3		 ret	 0
?XMVectorSet@DirectX@@YQ?AT__m128@@MMMM@Z ENDP		; DirectX::XMVectorSet
_TEXT	ENDS
; Function compile flags: /Odtp /RTCsu /ZI
; File c:\program files (x86)\windows kits\8.1\include\um\directxmathconvert.inl
;	COMDAT ?XMStoreFloat3@DirectX@@YQXPEAUXMFLOAT3@1@T__m128@@@Z
_TEXT	SEGMENT
V$ = 16
T1$ = 64
T2$ = 112
$T1 = 352
$T2 = 400
pDestination$ = 464
?XMStoreFloat3@DirectX@@YQXPEAUXMFLOAT3@1@T__m128@@@Z PROC ; DirectX::XMStoreFloat3, COMDAT

; 1363 : {

$LN4:
  00000	48 89 4c 24 08	 mov	 QWORD PTR [rsp+8], rcx
  00005	55		 push	 rbp
  00006	57		 push	 rdi
  00007	48 81 ec d8 01
	00 00		 sub	 rsp, 472		; 000001d8H
  0000e	48 8d 6c 24 20	 lea	 rbp, QWORD PTR [rsp+32]
  00013	48 8b fc	 mov	 rdi, rsp
  00016	b9 76 00 00 00	 mov	 ecx, 118		; 00000076H
  0001b	b8 cc cc cc cc	 mov	 eax, -858993460		; ccccccccH
  00020	f3 ab		 rep stosd
  00022	48 8b 8c 24 f8
	01 00 00	 mov	 rcx, QWORD PTR [rsp+504]
  0002a	48 8d 45 10	 lea	 rax, QWORD PTR V$[rbp]
  0002e	48 89 84 24 f8
	01 00 00	 mov	 QWORD PTR [rsp+504], rax
  00036	0f 29 4d 10	 movaps	 XMMWORD PTR V$[rbp], xmm1

; 1364 :     assert(pDestination);

  0003a	48 83 bd d0 01
	00 00 00	 cmp	 QWORD PTR pDestination$[rbp], 0
  00042	75 21		 jne	 SHORT $LN3@XMStoreFlo
  00044	8b 05 00 00 00
	00		 mov	 eax, DWORD PTR ?__LINE__Var@?0??XMStoreFloat3@DirectX@@YQXPEAUXMFLOAT3@2@T__m128@@@Z@4JA
  0004a	ff c0		 inc	 eax
  0004c	44 8b c0	 mov	 r8d, eax
  0004f	48 8d 15 00 00
	00 00		 lea	 rdx, OFFSET FLAT:??_C@_1JE@DMOBBMDE@?$AAc?$AA?3?$AA?2?$AAp?$AAr?$AAo?$AAg?$AAr?$AAa?$AAm?$AA?5?$AAf?$AAi?$AAl?$AAe?$AAs?$AA?5?$AA?$CI?$AAx?$AA8?$AA6?$AA?$CJ?$AA?2?$AAw?$AAi?$AAn?$AAd?$AAo?$AAw?$AAs?$AA?5?$AAk@
  00056	48 8d 0d 00 00
	00 00		 lea	 rcx, OFFSET FLAT:??_C@_1BK@FHLBGAOP@?$AAp?$AAD?$AAe?$AAs?$AAt?$AAi?$AAn?$AAa?$AAt?$AAi?$AAo?$AAn?$AA?$AA@
  0005d	ff 15 00 00 00
	00		 call	 QWORD PTR __imp__wassert
  00063	33 c0		 xor	 eax, eax
$LN3@XMStoreFlo:

; 1365 : #if defined(_XM_NO_INTRINSICS_)
; 1366 :     pDestination->x = V.vector4_f32[0];
; 1367 :     pDestination->y = V.vector4_f32[1];
; 1368 :     pDestination->z = V.vector4_f32[2];
; 1369 : #elif defined(_XM_ARM_NEON_INTRINSICS_)
; 1370 :     float32x2_t VL = vget_low_f32(V);
; 1371 :     vst1_f32( reinterpret_cast<float*>(pDestination), VL );
; 1372 :     vst1q_lane_f32( reinterpret_cast<float*>(pDestination)+2, V, 2 );
; 1373 : #elif defined(_XM_SSE_INTRINSICS_)
; 1374 :     XMVECTOR T1 = XM_PERMUTE_PS(V,_MM_SHUFFLE(1,1,1,1));

  00065	0f 28 45 10	 movaps	 xmm0, XMMWORD PTR V$[rbp]
  00069	0f c6 45 10 55	 shufps	 xmm0, XMMWORD PTR V$[rbp], 85 ; 00000055H
  0006e	0f 29 85 60 01
	00 00		 movaps	 XMMWORD PTR $T1[rbp], xmm0
  00075	0f 28 85 60 01
	00 00		 movaps	 xmm0, XMMWORD PTR $T1[rbp]
  0007c	0f 29 45 40	 movaps	 XMMWORD PTR T1$[rbp], xmm0

; 1375 :     XMVECTOR T2 = XM_PERMUTE_PS(V,_MM_SHUFFLE(2,2,2,2));

  00080	0f 28 45 10	 movaps	 xmm0, XMMWORD PTR V$[rbp]
  00084	0f c6 45 10 aa	 shufps	 xmm0, XMMWORD PTR V$[rbp], 170 ; 000000aaH
  00089	0f 29 85 90 01
	00 00		 movaps	 XMMWORD PTR $T2[rbp], xmm0
  00090	0f 28 85 90 01
	00 00		 movaps	 xmm0, XMMWORD PTR $T2[rbp]
  00097	0f 29 45 70	 movaps	 XMMWORD PTR T2$[rbp], xmm0

; 1376 :     _mm_store_ss( &pDestination->x, V );

  0009b	48 8b 85 d0 01
	00 00		 mov	 rax, QWORD PTR pDestination$[rbp]
  000a2	0f 28 45 10	 movaps	 xmm0, XMMWORD PTR V$[rbp]
  000a6	f3 0f 11 00	 movss	 DWORD PTR [rax], xmm0

; 1377 :     _mm_store_ss( &pDestination->y, T1 );

  000aa	48 8b 85 d0 01
	00 00		 mov	 rax, QWORD PTR pDestination$[rbp]
  000b1	48 83 c0 04	 add	 rax, 4
  000b5	0f 28 45 40	 movaps	 xmm0, XMMWORD PTR T1$[rbp]
  000b9	f3 0f 11 00	 movss	 DWORD PTR [rax], xmm0

; 1378 :     _mm_store_ss( &pDestination->z, T2 );

  000bd	48 8b 85 d0 01
	00 00		 mov	 rax, QWORD PTR pDestination$[rbp]
  000c4	48 83 c0 08	 add	 rax, 8
  000c8	0f 28 45 70	 movaps	 xmm0, XMMWORD PTR T2$[rbp]
  000cc	f3 0f 11 00	 movss	 DWORD PTR [rax], xmm0

; 1379 : #endif
; 1380 : }

  000d0	48 8d a5 b8 01
	00 00		 lea	 rsp, QWORD PTR [rbp+440]
  000d7	5f		 pop	 rdi
  000d8	5d		 pop	 rbp
  000d9	c3		 ret	 0
?XMStoreFloat3@DirectX@@YQXPEAUXMFLOAT3@1@T__m128@@@Z ENDP ; DirectX::XMStoreFloat3
_TEXT	ENDS
; Function compile flags: /Odtp /RTCsu /ZI
; File c:\program files (x86)\windows kits\8.1\include\um\directxmathconvert.inl
;	COMDAT ?XMLoadFloat4x4@DirectX@@YQ?AUXMMATRIX@1@PEBUXMFLOAT4X4@1@@Z
_TEXT	SEGMENT
M$ = 16
$T4 = 304
$T5 = 352
$T6 = 400
$T7 = 448
__$ArrayPad$ = 472
pSource$ = 512
?XMLoadFloat4x4@DirectX@@YQ?AUXMMATRIX@1@PEBUXMFLOAT4X4@1@@Z PROC ; DirectX::XMLoadFloat4x4, COMDAT

; 1013 : {

$LN4:
  00000	48 89 4c 24 08	 mov	 QWORD PTR [rsp+8], rcx
  00005	55		 push	 rbp
  00006	57		 push	 rdi
  00007	48 81 ec 18 02
	00 00		 sub	 rsp, 536		; 00000218H
  0000e	48 8d 6c 24 30	 lea	 rbp, QWORD PTR [rsp+48]
  00013	48 8b fc	 mov	 rdi, rsp
  00016	b9 86 00 00 00	 mov	 ecx, 134		; 00000086H
  0001b	b8 cc cc cc cc	 mov	 eax, -858993460		; ccccccccH
  00020	f3 ab		 rep stosd
  00022	48 8b 8c 24 38
	02 00 00	 mov	 rcx, QWORD PTR [rsp+568]
  0002a	48 8b 05 00 00
	00 00		 mov	 rax, QWORD PTR __security_cookie
  00031	48 33 c5	 xor	 rax, rbp
  00034	48 89 85 d8 01
	00 00		 mov	 QWORD PTR __$ArrayPad$[rbp], rax

; 1014 :     assert(pSource);

  0003b	48 83 bd 00 02
	00 00 00	 cmp	 QWORD PTR pSource$[rbp], 0
  00043	75 21		 jne	 SHORT $LN3@XMLoadFloa
  00045	8b 05 00 00 00
	00		 mov	 eax, DWORD PTR ?__LINE__Var@?0??XMLoadFloat4x4@DirectX@@YQ?AUXMMATRIX@2@PEBUXMFLOAT4X4@2@@Z@4JA
  0004b	ff c0		 inc	 eax
  0004d	44 8b c0	 mov	 r8d, eax
  00050	48 8d 15 00 00
	00 00		 lea	 rdx, OFFSET FLAT:??_C@_1JE@DMOBBMDE@?$AAc?$AA?3?$AA?2?$AAp?$AAr?$AAo?$AAg?$AAr?$AAa?$AAm?$AA?5?$AAf?$AAi?$AAl?$AAe?$AAs?$AA?5?$AA?$CI?$AAx?$AA8?$AA6?$AA?$CJ?$AA?2?$AAw?$AAi?$AAn?$AAd?$AAo?$AAw?$AAs?$AA?5?$AAk@
  00057	48 8d 0d 00 00
	00 00		 lea	 rcx, OFFSET FLAT:??_C@_1BA@LBADLIHI@?$AAp?$AAS?$AAo?$AAu?$AAr?$AAc?$AAe?$AA?$AA@
  0005e	ff 15 00 00 00
	00		 call	 QWORD PTR __imp__wassert
  00064	33 c0		 xor	 eax, eax
$LN3@XMLoadFloa:

; 1015 : #if defined(_XM_NO_INTRINSICS_)
; 1016 : 
; 1017 :     XMMATRIX M;
; 1018 :     M.r[0].vector4_f32[0] = pSource->m[0][0];
; 1019 :     M.r[0].vector4_f32[1] = pSource->m[0][1];
; 1020 :     M.r[0].vector4_f32[2] = pSource->m[0][2];
; 1021 :     M.r[0].vector4_f32[3] = pSource->m[0][3];
; 1022 : 
; 1023 :     M.r[1].vector4_f32[0] = pSource->m[1][0];
; 1024 :     M.r[1].vector4_f32[1] = pSource->m[1][1];
; 1025 :     M.r[1].vector4_f32[2] = pSource->m[1][2];
; 1026 :     M.r[1].vector4_f32[3] = pSource->m[1][3];
; 1027 : 
; 1028 :     M.r[2].vector4_f32[0] = pSource->m[2][0];
; 1029 :     M.r[2].vector4_f32[1] = pSource->m[2][1];
; 1030 :     M.r[2].vector4_f32[2] = pSource->m[2][2];
; 1031 :     M.r[2].vector4_f32[3] = pSource->m[2][3];
; 1032 : 
; 1033 :     M.r[3].vector4_f32[0] = pSource->m[3][0];
; 1034 :     M.r[3].vector4_f32[1] = pSource->m[3][1];
; 1035 :     M.r[3].vector4_f32[2] = pSource->m[3][2];
; 1036 :     M.r[3].vector4_f32[3] = pSource->m[3][3];
; 1037 :     return M;
; 1038 : 
; 1039 : #elif defined(_XM_ARM_NEON_INTRINSICS_)
; 1040 :     XMMATRIX M;
; 1041 :     M.r[0] = vld1q_f32( reinterpret_cast<const float*>(&pSource->_11) );
; 1042 :     M.r[1] = vld1q_f32( reinterpret_cast<const float*>(&pSource->_21) );
; 1043 :     M.r[2] = vld1q_f32( reinterpret_cast<const float*>(&pSource->_31) );
; 1044 :     M.r[3] = vld1q_f32( reinterpret_cast<const float*>(&pSource->_41) );
; 1045 :     return M;
; 1046 : #elif defined(_XM_SSE_INTRINSICS_)
; 1047 :     XMMATRIX M;

  00066	48 8d 4d 10	 lea	 rcx, QWORD PTR M$[rbp]
  0006a	e8 00 00 00 00	 call	 ??0XMMATRIX@DirectX@@QEAA@XZ ; DirectX::XMMATRIX::XMMATRIX

; 1048 :     M.r[0] = _mm_loadu_ps( &pSource->_11 );

  0006f	48 8b 85 00 02
	00 00		 mov	 rax, QWORD PTR pSource$[rbp]
  00076	0f 10 00	 movups	 xmm0, XMMWORD PTR [rax]
  00079	0f 29 85 30 01
	00 00		 movaps	 XMMWORD PTR $T4[rbp], xmm0
  00080	b8 10 00 00 00	 mov	 eax, 16
  00085	48 6b c0 00	 imul	 rax, rax, 0
  00089	0f 28 85 30 01
	00 00		 movaps	 xmm0, XMMWORD PTR $T4[rbp]
  00090	0f 11 44 05 10	 movups	 XMMWORD PTR M$[rbp+rax], xmm0

; 1049 :     M.r[1] = _mm_loadu_ps( &pSource->_21 );

  00095	48 8b 85 00 02
	00 00		 mov	 rax, QWORD PTR pSource$[rbp]
  0009c	48 83 c0 10	 add	 rax, 16
  000a0	0f 10 00	 movups	 xmm0, XMMWORD PTR [rax]
  000a3	0f 29 85 60 01
	00 00		 movaps	 XMMWORD PTR $T5[rbp], xmm0
  000aa	b8 10 00 00 00	 mov	 eax, 16
  000af	48 6b c0 01	 imul	 rax, rax, 1
  000b3	0f 28 85 60 01
	00 00		 movaps	 xmm0, XMMWORD PTR $T5[rbp]
  000ba	0f 11 44 05 10	 movups	 XMMWORD PTR M$[rbp+rax], xmm0

; 1050 :     M.r[2] = _mm_loadu_ps( &pSource->_31 );

  000bf	48 8b 85 00 02
	00 00		 mov	 rax, QWORD PTR pSource$[rbp]
  000c6	48 83 c0 20	 add	 rax, 32			; 00000020H
  000ca	0f 10 00	 movups	 xmm0, XMMWORD PTR [rax]
  000cd	0f 29 85 90 01
	00 00		 movaps	 XMMWORD PTR $T6[rbp], xmm0
  000d4	b8 10 00 00 00	 mov	 eax, 16
  000d9	48 6b c0 02	 imul	 rax, rax, 2
  000dd	0f 28 85 90 01
	00 00		 movaps	 xmm0, XMMWORD PTR $T6[rbp]
  000e4	0f 11 44 05 10	 movups	 XMMWORD PTR M$[rbp+rax], xmm0

; 1051 :     M.r[3] = _mm_loadu_ps( &pSource->_41 );

  000e9	48 8b 85 00 02
	00 00		 mov	 rax, QWORD PTR pSource$[rbp]
  000f0	48 83 c0 30	 add	 rax, 48			; 00000030H
  000f4	0f 10 00	 movups	 xmm0, XMMWORD PTR [rax]
  000f7	0f 29 85 c0 01
	00 00		 movaps	 XMMWORD PTR $T7[rbp], xmm0
  000fe	b8 10 00 00 00	 mov	 eax, 16
  00103	48 6b c0 03	 imul	 rax, rax, 3
  00107	0f 28 85 c0 01
	00 00		 movaps	 xmm0, XMMWORD PTR $T7[rbp]
  0010e	0f 11 44 05 10	 movups	 XMMWORD PTR M$[rbp+rax], xmm0

; 1052 :     return M;

  00113	0f 28 5d 40	 movaps	 xmm3, XMMWORD PTR M$[rbp+48]
  00117	0f 28 55 30	 movaps	 xmm2, XMMWORD PTR M$[rbp+32]
  0011b	0f 28 4d 20	 movaps	 xmm1, XMMWORD PTR M$[rbp+16]
  0011f	0f 28 45 10	 movaps	 xmm0, XMMWORD PTR M$[rbp]

; 1053 : #endif
; 1054 : }

  00123	f3 0f 7f 44 24
	20		 movdqu	 XMMWORD PTR [rsp+32], xmm0
  00129	48 8d 4d d0	 lea	 rcx, QWORD PTR [rbp-48]
  0012d	48 8d 15 00 00
	00 00		 lea	 rdx, OFFSET FLAT:?XMLoadFloat4x4@DirectX@@YQ?AUXMMATRIX@1@PEBUXMFLOAT4X4@1@@Z$rtcFrameData
  00134	e8 00 00 00 00	 call	 _RTC_CheckStackVars
  00139	f3 0f 6f 44 24
	20		 movdqu	 xmm0, XMMWORD PTR [rsp+32]
  0013f	48 8b 8d d8 01
	00 00		 mov	 rcx, QWORD PTR __$ArrayPad$[rbp]
  00146	48 33 cd	 xor	 rcx, rbp
  00149	e8 00 00 00 00	 call	 __security_check_cookie
  0014e	48 8d a5 e8 01
	00 00		 lea	 rsp, QWORD PTR [rbp+488]
  00155	5f		 pop	 rdi
  00156	5d		 pop	 rbp
  00157	c3		 ret	 0
?XMLoadFloat4x4@DirectX@@YQ?AUXMMATRIX@1@PEBUXMFLOAT4X4@1@@Z ENDP ; DirectX::XMLoadFloat4x4
_TEXT	ENDS
; Function compile flags: /Odtp /RTCsu /ZI
; File c:\program files (x86)\windows kits\8.1\include\um\directxmathconvert.inl
;	COMDAT ?XMLoadFloat3@DirectX@@YQ?AT__m128@@PEBUXMFLOAT3@1@@Z
_TEXT	SEGMENT
x$ = 16
y$ = 64
z$ = 112
xy$ = 160
$T1 = 400
$T2 = 448
$T3 = 496
$T4 = 544
$T5 = 592
pSource$ = 656
?XMLoadFloat3@DirectX@@YQ?AT__m128@@PEBUXMFLOAT3@1@@Z PROC ; DirectX::XMLoadFloat3, COMDAT

; 499  : {

$LN4:
  00000	48 89 4c 24 08	 mov	 QWORD PTR [rsp+8], rcx
  00005	55		 push	 rbp
  00006	57		 push	 rdi
  00007	48 81 ec a8 02
	00 00		 sub	 rsp, 680		; 000002a8H
  0000e	48 8d 6c 24 30	 lea	 rbp, QWORD PTR [rsp+48]
  00013	48 8b fc	 mov	 rdi, rsp
  00016	b9 aa 00 00 00	 mov	 ecx, 170		; 000000aaH
  0001b	b8 cc cc cc cc	 mov	 eax, -858993460		; ccccccccH
  00020	f3 ab		 rep stosd
  00022	48 8b 8c 24 c8
	02 00 00	 mov	 rcx, QWORD PTR [rsp+712]

; 500  :     assert(pSource);

  0002a	48 83 bd 90 02
	00 00 00	 cmp	 QWORD PTR pSource$[rbp], 0
  00032	75 21		 jne	 SHORT $LN3@XMLoadFloa
  00034	8b 05 00 00 00
	00		 mov	 eax, DWORD PTR ?__LINE__Var@?0??XMLoadFloat3@DirectX@@YQ?AT__m128@@PEBUXMFLOAT3@2@@Z@4JA
  0003a	ff c0		 inc	 eax
  0003c	44 8b c0	 mov	 r8d, eax
  0003f	48 8d 15 00 00
	00 00		 lea	 rdx, OFFSET FLAT:??_C@_1JE@DMOBBMDE@?$AAc?$AA?3?$AA?2?$AAp?$AAr?$AAo?$AAg?$AAr?$AAa?$AAm?$AA?5?$AAf?$AAi?$AAl?$AAe?$AAs?$AA?5?$AA?$CI?$AAx?$AA8?$AA6?$AA?$CJ?$AA?2?$AAw?$AAi?$AAn?$AAd?$AAo?$AAw?$AAs?$AA?5?$AAk@
  00046	48 8d 0d 00 00
	00 00		 lea	 rcx, OFFSET FLAT:??_C@_1BA@LBADLIHI@?$AAp?$AAS?$AAo?$AAu?$AAr?$AAc?$AAe?$AA?$AA@
  0004d	ff 15 00 00 00
	00		 call	 QWORD PTR __imp__wassert
  00053	33 c0		 xor	 eax, eax
$LN3@XMLoadFloa:

; 501  : #if defined(_XM_NO_INTRINSICS_)
; 502  :     XMVECTOR V;
; 503  :     V.vector4_f32[0] = pSource->x;
; 504  :     V.vector4_f32[1] = pSource->y;
; 505  :     V.vector4_f32[2] = pSource->z;
; 506  :     V.vector4_f32[3] = 0.f;
; 507  :     return V;
; 508  : #elif defined(_XM_ARM_NEON_INTRINSICS_)
; 509  :     float32x2_t x = vld1_f32( reinterpret_cast<const float*>(pSource) );
; 510  :     float32x2_t zero = vdup_n_f32(0);
; 511  :     float32x2_t y = vld1_lane_f32( reinterpret_cast<const float*>(pSource)+2, zero, 0 );
; 512  :     return vcombine_f32( x, y );
; 513  : #elif defined(_XM_SSE_INTRINSICS_)
; 514  :     __m128 x = _mm_load_ss( &pSource->x );

  00055	48 8b 85 90 02
	00 00		 mov	 rax, QWORD PTR pSource$[rbp]
  0005c	f3 0f 10 00	 movss	 xmm0, DWORD PTR [rax]
  00060	0f 57 c9	 xorps	 xmm1, xmm1
  00063	f3 0f 10 c8	 movss	 xmm1, xmm0
  00067	0f 28 c1	 movaps	 xmm0, xmm1
  0006a	0f 29 85 90 01
	00 00		 movaps	 XMMWORD PTR $T1[rbp], xmm0
  00071	0f 28 85 90 01
	00 00		 movaps	 xmm0, XMMWORD PTR $T1[rbp]
  00078	0f 29 45 10	 movaps	 XMMWORD PTR x$[rbp], xmm0

; 515  :     __m128 y = _mm_load_ss( &pSource->y );

  0007c	48 8b 85 90 02
	00 00		 mov	 rax, QWORD PTR pSource$[rbp]
  00083	48 83 c0 04	 add	 rax, 4
  00087	f3 0f 10 00	 movss	 xmm0, DWORD PTR [rax]
  0008b	0f 57 c9	 xorps	 xmm1, xmm1
  0008e	f3 0f 10 c8	 movss	 xmm1, xmm0
  00092	0f 28 c1	 movaps	 xmm0, xmm1
  00095	0f 29 85 c0 01
	00 00		 movaps	 XMMWORD PTR $T2[rbp], xmm0
  0009c	0f 28 85 c0 01
	00 00		 movaps	 xmm0, XMMWORD PTR $T2[rbp]
  000a3	0f 29 45 40	 movaps	 XMMWORD PTR y$[rbp], xmm0

; 516  :     __m128 z = _mm_load_ss( &pSource->z );

  000a7	48 8b 85 90 02
	00 00		 mov	 rax, QWORD PTR pSource$[rbp]
  000ae	48 83 c0 08	 add	 rax, 8
  000b2	f3 0f 10 00	 movss	 xmm0, DWORD PTR [rax]
  000b6	0f 57 c9	 xorps	 xmm1, xmm1
  000b9	f3 0f 10 c8	 movss	 xmm1, xmm0
  000bd	0f 28 c1	 movaps	 xmm0, xmm1
  000c0	0f 29 85 f0 01
	00 00		 movaps	 XMMWORD PTR $T3[rbp], xmm0
  000c7	0f 28 85 f0 01
	00 00		 movaps	 xmm0, XMMWORD PTR $T3[rbp]
  000ce	0f 29 45 70	 movaps	 XMMWORD PTR z$[rbp], xmm0

; 517  :     __m128 xy = _mm_unpacklo_ps( x, y );

  000d2	0f 28 45 10	 movaps	 xmm0, XMMWORD PTR x$[rbp]
  000d6	0f 14 45 40	 unpcklps xmm0, XMMWORD PTR y$[rbp]
  000da	0f 29 85 20 02
	00 00		 movaps	 XMMWORD PTR $T4[rbp], xmm0
  000e1	0f 28 85 20 02
	00 00		 movaps	 xmm0, XMMWORD PTR $T4[rbp]
  000e8	0f 29 85 a0 00
	00 00		 movaps	 XMMWORD PTR xy$[rbp], xmm0

; 518  :     return _mm_movelh_ps( xy, z );

  000ef	0f 28 85 a0 00
	00 00		 movaps	 xmm0, XMMWORD PTR xy$[rbp]
  000f6	0f 28 4d 70	 movaps	 xmm1, XMMWORD PTR z$[rbp]
  000fa	0f 16 c1	 movlhps xmm0, xmm1
  000fd	0f 29 85 50 02
	00 00		 movaps	 XMMWORD PTR $T5[rbp], xmm0
  00104	0f 28 85 50 02
	00 00		 movaps	 xmm0, XMMWORD PTR $T5[rbp]

; 519  : #endif
; 520  : }

  0010b	48 8d a5 78 02
	00 00		 lea	 rsp, QWORD PTR [rbp+632]
  00112	5f		 pop	 rdi
  00113	5d		 pop	 rbp
  00114	c3		 ret	 0
?XMLoadFloat3@DirectX@@YQ?AT__m128@@PEBUXMFLOAT3@1@@Z ENDP ; DirectX::XMLoadFloat3
_TEXT	ENDS
; Function compile flags: /Odtp /RTCsu /ZI
; File c:\program files (x86)\windows kits\8.1\include\um\directxmath.h
;	COMDAT ??4XMFLOAT3@DirectX@@QEAAAEAU01@AEBU01@@Z
_TEXT	SEGMENT
this$ = 224
Float3$ = 232
??4XMFLOAT3@DirectX@@QEAAAEAU01@AEBU01@@Z PROC		; DirectX::XMFLOAT3::operator=, COMDAT

; 509  :     XMFLOAT3& operator= (const XMFLOAT3& Float3) { x = Float3.x; y = Float3.y; z = Float3.z; return *this; }

$LN3:
  00000	48 89 54 24 10	 mov	 QWORD PTR [rsp+16], rdx
  00005	48 89 4c 24 08	 mov	 QWORD PTR [rsp+8], rcx
  0000a	55		 push	 rbp
  0000b	57		 push	 rdi
  0000c	48 81 ec c8 00
	00 00		 sub	 rsp, 200		; 000000c8H
  00013	48 8b ec	 mov	 rbp, rsp
  00016	48 8b fc	 mov	 rdi, rsp
  00019	b9 32 00 00 00	 mov	 ecx, 50			; 00000032H
  0001e	b8 cc cc cc cc	 mov	 eax, -858993460		; ccccccccH
  00023	f3 ab		 rep stosd
  00025	48 8b 8c 24 e8
	00 00 00	 mov	 rcx, QWORD PTR [rsp+232]
  0002d	48 8b 85 e0 00
	00 00		 mov	 rax, QWORD PTR this$[rbp]
  00034	48 8b 8d e8 00
	00 00		 mov	 rcx, QWORD PTR Float3$[rbp]
  0003b	f3 0f 10 01	 movss	 xmm0, DWORD PTR [rcx]
  0003f	f3 0f 11 00	 movss	 DWORD PTR [rax], xmm0
  00043	48 8b 85 e0 00
	00 00		 mov	 rax, QWORD PTR this$[rbp]
  0004a	48 8b 8d e8 00
	00 00		 mov	 rcx, QWORD PTR Float3$[rbp]
  00051	f3 0f 10 41 04	 movss	 xmm0, DWORD PTR [rcx+4]
  00056	f3 0f 11 40 04	 movss	 DWORD PTR [rax+4], xmm0
  0005b	48 8b 85 e0 00
	00 00		 mov	 rax, QWORD PTR this$[rbp]
  00062	48 8b 8d e8 00
	00 00		 mov	 rcx, QWORD PTR Float3$[rbp]
  00069	f3 0f 10 41 08	 movss	 xmm0, DWORD PTR [rcx+8]
  0006e	f3 0f 11 40 08	 movss	 DWORD PTR [rax+8], xmm0
  00073	48 8b 85 e0 00
	00 00		 mov	 rax, QWORD PTR this$[rbp]
  0007a	48 8d a5 c8 00
	00 00		 lea	 rsp, QWORD PTR [rbp+200]
  00081	5f		 pop	 rdi
  00082	5d		 pop	 rbp
  00083	c3		 ret	 0
??4XMFLOAT3@DirectX@@QEAAAEAU01@AEBU01@@Z ENDP		; DirectX::XMFLOAT3::operator=
_TEXT	ENDS
; Function compile flags: /Odtp /RTCsu /ZI
; File c:\program files (x86)\windows kits\8.1\include\um\directxmath.h
;	COMDAT ??0XMFLOAT3@DirectX@@QEAA@MMM@Z
_TEXT	SEGMENT
this$ = 224
_x$ = 232
_y$ = 240
_z$ = 248
??0XMFLOAT3@DirectX@@QEAA@MMM@Z PROC			; DirectX::XMFLOAT3::XMFLOAT3, COMDAT

; 506  :     XMFLOAT3(float _x, float _y, float _z) : x(_x), y(_y), z(_z) {}

$LN3:
  00000	f3 0f 11 5c 24
	20		 movss	 DWORD PTR [rsp+32], xmm3
  00006	f3 0f 11 54 24
	18		 movss	 DWORD PTR [rsp+24], xmm2
  0000c	f3 0f 11 4c 24
	10		 movss	 DWORD PTR [rsp+16], xmm1
  00012	48 89 4c 24 08	 mov	 QWORD PTR [rsp+8], rcx
  00017	55		 push	 rbp
  00018	57		 push	 rdi
  00019	48 81 ec c8 00
	00 00		 sub	 rsp, 200		; 000000c8H
  00020	48 8b ec	 mov	 rbp, rsp
  00023	48 8b fc	 mov	 rdi, rsp
  00026	b9 32 00 00 00	 mov	 ecx, 50			; 00000032H
  0002b	b8 cc cc cc cc	 mov	 eax, -858993460		; ccccccccH
  00030	f3 ab		 rep stosd
  00032	48 8b 8c 24 e8
	00 00 00	 mov	 rcx, QWORD PTR [rsp+232]
  0003a	48 8b 85 e0 00
	00 00		 mov	 rax, QWORD PTR this$[rbp]
  00041	f3 0f 10 85 e8
	00 00 00	 movss	 xmm0, DWORD PTR _x$[rbp]
  00049	f3 0f 11 00	 movss	 DWORD PTR [rax], xmm0
  0004d	48 8b 85 e0 00
	00 00		 mov	 rax, QWORD PTR this$[rbp]
  00054	f3 0f 10 85 f0
	00 00 00	 movss	 xmm0, DWORD PTR _y$[rbp]
  0005c	f3 0f 11 40 04	 movss	 DWORD PTR [rax+4], xmm0
  00061	48 8b 85 e0 00
	00 00		 mov	 rax, QWORD PTR this$[rbp]
  00068	f3 0f 10 85 f8
	00 00 00	 movss	 xmm0, DWORD PTR _z$[rbp]
  00070	f3 0f 11 40 08	 movss	 DWORD PTR [rax+8], xmm0
  00075	48 8b 85 e0 00
	00 00		 mov	 rax, QWORD PTR this$[rbp]
  0007c	48 8d a5 c8 00
	00 00		 lea	 rsp, QWORD PTR [rbp+200]
  00083	5f		 pop	 rdi
  00084	5d		 pop	 rbp
  00085	c3		 ret	 0
??0XMFLOAT3@DirectX@@QEAA@MMM@Z ENDP			; DirectX::XMFLOAT3::XMFLOAT3
_TEXT	ENDS
; Function compile flags: /Odtp /RTCsu /ZI
; File c:\program files (x86)\windows kits\8.1\include\um\directxmath.h
;	COMDAT ??0XMFLOAT3@DirectX@@QEAA@XZ
_TEXT	SEGMENT
this$ = 224
??0XMFLOAT3@DirectX@@QEAA@XZ PROC			; DirectX::XMFLOAT3::XMFLOAT3, COMDAT

; 505  :     XMFLOAT3() {}

$LN3:
  00000	48 89 4c 24 08	 mov	 QWORD PTR [rsp+8], rcx
  00005	55		 push	 rbp
  00006	57		 push	 rdi
  00007	48 81 ec c8 00
	00 00		 sub	 rsp, 200		; 000000c8H
  0000e	48 8b ec	 mov	 rbp, rsp
  00011	48 8b fc	 mov	 rdi, rsp
  00014	b9 32 00 00 00	 mov	 ecx, 50			; 00000032H
  00019	b8 cc cc cc cc	 mov	 eax, -858993460		; ccccccccH
  0001e	f3 ab		 rep stosd
  00020	48 8b 8c 24 e8
	00 00 00	 mov	 rcx, QWORD PTR [rsp+232]
  00028	48 8b 85 e0 00
	00 00		 mov	 rax, QWORD PTR this$[rbp]
  0002f	48 8d a5 c8 00
	00 00		 lea	 rsp, QWORD PTR [rbp+200]
  00036	5f		 pop	 rdi
  00037	5d		 pop	 rbp
  00038	c3		 ret	 0
??0XMFLOAT3@DirectX@@QEAA@XZ ENDP			; DirectX::XMFLOAT3::XMFLOAT3
_TEXT	ENDS
; Function compile flags: /Odtp /RTCsu /ZI
; File c:\program files (x86)\windows kits\8.1\include\um\directxmath.h
;	COMDAT ??0XMMATRIX@DirectX@@QEAA@XZ
_TEXT	SEGMENT
this$ = 224
??0XMMATRIX@DirectX@@QEAA@XZ PROC			; DirectX::XMMATRIX::XMMATRIX, COMDAT

; 413  :     XMMATRIX() {}

$LN3:
  00000	48 89 4c 24 08	 mov	 QWORD PTR [rsp+8], rcx
  00005	55		 push	 rbp
  00006	57		 push	 rdi
  00007	48 81 ec c8 00
	00 00		 sub	 rsp, 200		; 000000c8H
  0000e	48 8b ec	 mov	 rbp, rsp
  00011	48 8b fc	 mov	 rdi, rsp
  00014	b9 32 00 00 00	 mov	 ecx, 50			; 00000032H
  00019	b8 cc cc cc cc	 mov	 eax, -858993460		; ccccccccH
  0001e	f3 ab		 rep stosd
  00020	48 8b 8c 24 e8
	00 00 00	 mov	 rcx, QWORD PTR [rsp+232]
  00028	48 8b 85 e0 00
	00 00		 mov	 rax, QWORD PTR this$[rbp]
  0002f	48 8d a5 c8 00
	00 00		 lea	 rsp, QWORD PTR [rbp+200]
  00036	5f		 pop	 rdi
  00037	5d		 pop	 rbp
  00038	c3		 ret	 0
??0XMMATRIX@DirectX@@QEAA@XZ ENDP			; DirectX::XMMATRIX::XMMATRIX
_TEXT	ENDS
; Function compile flags: /Odtp /RTCsu /ZI
; File c:\program files (x86)\windows kits\8.1\include\um\directxmathvector.inl
;	COMDAT ??DDirectX@@YQ?AT__m128@@T1@M@Z
_TEXT	SEGMENT
V$ = 16
$T1 = 256
S$ = 328
??DDirectX@@YQ?AT__m128@@T1@M@Z PROC			; DirectX::operator*, COMDAT

; 13994: {

$LN3:
  00000	f3 0f 11 4c 24
	10		 movss	 DWORD PTR [rsp+16], xmm1
  00006	55		 push	 rbp
  00007	57		 push	 rdi
  00008	48 81 ec 58 01
	00 00		 sub	 rsp, 344		; 00000158H
  0000f	48 8d 6c 24 30	 lea	 rbp, QWORD PTR [rsp+48]
  00014	48 8b fc	 mov	 rdi, rsp
  00017	b9 56 00 00 00	 mov	 ecx, 86			; 00000056H
  0001c	b8 cc cc cc cc	 mov	 eax, -858993460		; ccccccccH
  00021	f3 ab		 rep stosd
  00023	48 8d 45 10	 lea	 rax, QWORD PTR V$[rbp]
  00027	48 89 84 24 70
	01 00 00	 mov	 QWORD PTR [rsp+368], rax
  0002f	0f 29 45 10	 movaps	 XMMWORD PTR V$[rbp], xmm0

; 13995:     return XMVectorScale(V, S);

  00033	f3 0f 10 8d 48
	01 00 00	 movss	 xmm1, DWORD PTR S$[rbp]
  0003b	0f 28 45 10	 movaps	 xmm0, XMMWORD PTR V$[rbp]
  0003f	e8 00 00 00 00	 call	 ?XMVectorScale@DirectX@@YQ?AT__m128@@T2@M@Z ; DirectX::XMVectorScale
  00044	0f 29 85 00 01
	00 00		 movaps	 XMMWORD PTR $T1[rbp], xmm0
  0004b	0f 28 85 00 01
	00 00		 movaps	 xmm0, XMMWORD PTR $T1[rbp]

; 13996: }

  00052	48 8d a5 28 01
	00 00		 lea	 rsp, QWORD PTR [rbp+296]
  00059	5f		 pop	 rdi
  0005a	5d		 pop	 rbp
  0005b	c3		 ret	 0
??DDirectX@@YQ?AT__m128@@T1@M@Z ENDP			; DirectX::operator*
_TEXT	ENDS
; Function compile flags: /Odtp /RTCsu /ZI
; File c:\program files (x86)\windows kits\8.1\include\um\directxmathvector.inl
;	COMDAT ??GDirectX@@YQ?AT__m128@@T1@0@Z
_TEXT	SEGMENT
V1$ = 16
V2$ = 64
$T1 = 304
??GDirectX@@YQ?AT__m128@@T1@0@Z PROC			; DirectX::operator-, COMDAT

; 13961: {

$LN3:
  00000	40 55		 push	 rbp
  00002	57		 push	 rdi
  00003	48 81 ec 88 01
	00 00		 sub	 rsp, 392		; 00000188H
  0000a	48 8d 6c 24 30	 lea	 rbp, QWORD PTR [rsp+48]
  0000f	48 8b fc	 mov	 rdi, rsp
  00012	b9 62 00 00 00	 mov	 ecx, 98			; 00000062H
  00017	b8 cc cc cc cc	 mov	 eax, -858993460		; ccccccccH
  0001c	f3 ab		 rep stosd
  0001e	48 8d 45 10	 lea	 rax, QWORD PTR V1$[rbp]
  00022	48 89 84 24 a0
	01 00 00	 mov	 QWORD PTR [rsp+416], rax
  0002a	48 8d 45 40	 lea	 rax, QWORD PTR V2$[rbp]
  0002e	48 89 84 24 a8
	01 00 00	 mov	 QWORD PTR [rsp+424], rax
  00036	0f 29 4d 40	 movaps	 XMMWORD PTR V2$[rbp], xmm1
  0003a	0f 29 45 10	 movaps	 XMMWORD PTR V1$[rbp], xmm0

; 13962:     return XMVectorSubtract(V1, V2);

  0003e	0f 28 4d 40	 movaps	 xmm1, XMMWORD PTR V2$[rbp]
  00042	0f 28 45 10	 movaps	 xmm0, XMMWORD PTR V1$[rbp]
  00046	e8 00 00 00 00	 call	 ?XMVectorSubtract@DirectX@@YQ?AT__m128@@T2@0@Z ; DirectX::XMVectorSubtract
  0004b	0f 29 85 30 01
	00 00		 movaps	 XMMWORD PTR $T1[rbp], xmm0
  00052	0f 28 85 30 01
	00 00		 movaps	 xmm0, XMMWORD PTR $T1[rbp]

; 13963: }

  00059	48 8d a5 58 01
	00 00		 lea	 rsp, QWORD PTR [rbp+344]
  00060	5f		 pop	 rdi
  00061	5d		 pop	 rbp
  00062	c3		 ret	 0
??GDirectX@@YQ?AT__m128@@T1@0@Z ENDP			; DirectX::operator-
_TEXT	ENDS
; Function compile flags: /Odtp /RTCsu /ZI
; File c:\program files (x86)\windows kits\8.1\include\um\directxmathvector.inl
;	COMDAT ??HDirectX@@YQ?AT__m128@@T1@0@Z
_TEXT	SEGMENT
V1$ = 16
V2$ = 64
$T1 = 304
??HDirectX@@YQ?AT__m128@@T1@0@Z PROC			; DirectX::operator+, COMDAT

; 13950: {

$LN3:
  00000	40 55		 push	 rbp
  00002	57		 push	 rdi
  00003	48 81 ec 88 01
	00 00		 sub	 rsp, 392		; 00000188H
  0000a	48 8d 6c 24 30	 lea	 rbp, QWORD PTR [rsp+48]
  0000f	48 8b fc	 mov	 rdi, rsp
  00012	b9 62 00 00 00	 mov	 ecx, 98			; 00000062H
  00017	b8 cc cc cc cc	 mov	 eax, -858993460		; ccccccccH
  0001c	f3 ab		 rep stosd
  0001e	48 8d 45 10	 lea	 rax, QWORD PTR V1$[rbp]
  00022	48 89 84 24 a0
	01 00 00	 mov	 QWORD PTR [rsp+416], rax
  0002a	48 8d 45 40	 lea	 rax, QWORD PTR V2$[rbp]
  0002e	48 89 84 24 a8
	01 00 00	 mov	 QWORD PTR [rsp+424], rax
  00036	0f 29 4d 40	 movaps	 XMMWORD PTR V2$[rbp], xmm1
  0003a	0f 29 45 10	 movaps	 XMMWORD PTR V1$[rbp], xmm0

; 13951:     return XMVectorAdd(V1, V2);

  0003e	0f 28 4d 40	 movaps	 xmm1, XMMWORD PTR V2$[rbp]
  00042	0f 28 45 10	 movaps	 xmm0, XMMWORD PTR V1$[rbp]
  00046	e8 00 00 00 00	 call	 ?XMVectorAdd@DirectX@@YQ?AT__m128@@T2@0@Z ; DirectX::XMVectorAdd
  0004b	0f 29 85 30 01
	00 00		 movaps	 XMMWORD PTR $T1[rbp], xmm0
  00052	0f 28 85 30 01
	00 00		 movaps	 xmm0, XMMWORD PTR $T1[rbp]

; 13952: }

  00059	48 8d a5 58 01
	00 00		 lea	 rsp, QWORD PTR [rbp+344]
  00060	5f		 pop	 rdi
  00061	5d		 pop	 rbp
  00062	c3		 ret	 0
??HDirectX@@YQ?AT__m128@@T1@0@Z ENDP			; DirectX::operator+
_TEXT	ENDS
; Function compile flags: /Odtp /RTCsu /ZI
; File c:\program files (x86)\windows kits\8.1\include\um\directxmathvector.inl
;	COMDAT ??GDirectX@@YQ?AT__m128@@T1@@Z
_TEXT	SEGMENT
V$ = 16
$T1 = 256
??GDirectX@@YQ?AT__m128@@T1@@Z PROC			; DirectX::operator-, COMDAT

; 13866: {

$LN3:
  00000	40 55		 push	 rbp
  00002	57		 push	 rdi
  00003	48 81 ec 58 01
	00 00		 sub	 rsp, 344		; 00000158H
  0000a	48 8d 6c 24 30	 lea	 rbp, QWORD PTR [rsp+48]
  0000f	48 8b fc	 mov	 rdi, rsp
  00012	b9 56 00 00 00	 mov	 ecx, 86			; 00000056H
  00017	b8 cc cc cc cc	 mov	 eax, -858993460		; ccccccccH
  0001c	f3 ab		 rep stosd
  0001e	48 8d 45 10	 lea	 rax, QWORD PTR V$[rbp]
  00022	48 89 84 24 70
	01 00 00	 mov	 QWORD PTR [rsp+368], rax
  0002a	0f 29 45 10	 movaps	 XMMWORD PTR V$[rbp], xmm0

; 13867:     return XMVectorNegate(V);

  0002e	0f 28 45 10	 movaps	 xmm0, XMMWORD PTR V$[rbp]
  00032	e8 00 00 00 00	 call	 ?XMVectorNegate@DirectX@@YQ?AT__m128@@T2@@Z ; DirectX::XMVectorNegate
  00037	0f 29 85 00 01
	00 00		 movaps	 XMMWORD PTR $T1[rbp], xmm0
  0003e	0f 28 85 00 01
	00 00		 movaps	 xmm0, XMMWORD PTR $T1[rbp]

; 13868: }

  00045	48 8d a5 28 01
	00 00		 lea	 rsp, QWORD PTR [rbp+296]
  0004c	5f		 pop	 rdi
  0004d	5d		 pop	 rbp
  0004e	c3		 ret	 0
??GDirectX@@YQ?AT__m128@@T1@@Z ENDP			; DirectX::operator-
_TEXT	ENDS
; Function compile flags: /Odtp /RTCsu /ZI
; File c:\program files (x86)\windows kits\8.1\include\um\directxmath.h
;	COMDAT ??BXMVECTORI32@DirectX@@QEBA?AT__m128@@XZ
_TEXT	SEGMENT
this$ = 224
__$ReturnUdt$ = 232
??BXMVECTORI32@DirectX@@QEBA?AT__m128@@XZ PROC		; DirectX::XMVECTORI32::operator __m128, COMDAT

; 316  :     inline operator XMVECTOR() const { return v; }

$LN3:
  00000	48 89 54 24 10	 mov	 QWORD PTR [rsp+16], rdx
  00005	48 89 4c 24 08	 mov	 QWORD PTR [rsp+8], rcx
  0000a	55		 push	 rbp
  0000b	57		 push	 rdi
  0000c	48 81 ec c8 00
	00 00		 sub	 rsp, 200		; 000000c8H
  00013	48 8b ec	 mov	 rbp, rsp
  00016	48 8b fc	 mov	 rdi, rsp
  00019	b9 32 00 00 00	 mov	 ecx, 50			; 00000032H
  0001e	b8 cc cc cc cc	 mov	 eax, -858993460		; ccccccccH
  00023	f3 ab		 rep stosd
  00025	48 8b 8c 24 e8
	00 00 00	 mov	 rcx, QWORD PTR [rsp+232]
  0002d	48 8b 85 e8 00
	00 00		 mov	 rax, QWORD PTR __$ReturnUdt$[rbp]
  00034	48 8b 8d e0 00
	00 00		 mov	 rcx, QWORD PTR this$[rbp]
  0003b	0f 10 01	 movups	 xmm0, XMMWORD PTR [rcx]
  0003e	0f 11 00	 movups	 XMMWORD PTR [rax], xmm0
  00041	48 8b 85 e8 00
	00 00		 mov	 rax, QWORD PTR __$ReturnUdt$[rbp]
  00048	48 8d a5 c8 00
	00 00		 lea	 rsp, QWORD PTR [rbp+200]
  0004f	5f		 pop	 rdi
  00050	5d		 pop	 rbp
  00051	c3		 ret	 0
??BXMVECTORI32@DirectX@@QEBA?AT__m128@@XZ ENDP		; DirectX::XMVECTORI32::operator __m128
_TEXT	ENDS
; Function compile flags: /Odtp /RTCsu /ZI
; File c:\program files (x86)\windows kits\8.1\include\um\directxmath.h
;	COMDAT ?XMConvertToRadians@DirectX@@YAMM@Z
_TEXT	SEGMENT
fDegrees$ = 224
?XMConvertToRadians@DirectX@@YAMM@Z PROC		; DirectX::XMConvertToRadians, COMDAT

; 208  : inline float XMConvertToRadians(float fDegrees) { return fDegrees * (XM_PI / 180.0f); }

$LN3:
  00000	f3 0f 11 44 24
	08		 movss	 DWORD PTR [rsp+8], xmm0
  00006	55		 push	 rbp
  00007	57		 push	 rdi
  00008	48 81 ec d8 00
	00 00		 sub	 rsp, 216		; 000000d8H
  0000f	48 8d 6c 24 10	 lea	 rbp, QWORD PTR [rsp+16]
  00014	48 8b fc	 mov	 rdi, rsp
  00017	b9 36 00 00 00	 mov	 ecx, 54			; 00000036H
  0001c	b8 cc cc cc cc	 mov	 eax, -858993460		; ccccccccH
  00021	f3 ab		 rep stosd
  00023	f3 0f 10 85 e0
	00 00 00	 movss	 xmm0, DWORD PTR fDegrees$[rbp]
  0002b	f3 0f 59 05 00
	00 00 00	 mulss	 xmm0, DWORD PTR __real@3c8efa35
  00033	48 8d a5 c8 00
	00 00		 lea	 rsp, QWORD PTR [rbp+200]
  0003a	5f		 pop	 rdi
  0003b	5d		 pop	 rbp
  0003c	c3		 ret	 0
?XMConvertToRadians@DirectX@@YAMM@Z ENDP		; DirectX::XMConvertToRadians
_TEXT	ENDS
; Function compile flags: /Odtp /RTCsu /ZI
; File c:\github\framework\client\private\wall.cpp
;	COMDAT ?__empty_global_delete@@YAXPEAX_K@Z
_TEXT	SEGMENT
__formal$ = 224
__formal$ = 232
?__empty_global_delete@@YAXPEAX_K@Z PROC		; __empty_global_delete, COMDAT

$LN3:
  00000	48 89 54 24 10	 mov	 QWORD PTR [rsp+16], rdx
  00005	48 89 4c 24 08	 mov	 QWORD PTR [rsp+8], rcx
  0000a	55		 push	 rbp
  0000b	57		 push	 rdi
  0000c	48 81 ec c8 00
	00 00		 sub	 rsp, 200		; 000000c8H
  00013	48 8b ec	 mov	 rbp, rsp
  00016	48 8b fc	 mov	 rdi, rsp
  00019	b9 32 00 00 00	 mov	 ecx, 50			; 00000032H
  0001e	b8 cc cc cc cc	 mov	 eax, -858993460		; ccccccccH
  00023	f3 ab		 rep stosd
  00025	48 8b 8c 24 e8
	00 00 00	 mov	 rcx, QWORD PTR [rsp+232]
  0002d	48 8d a5 c8 00
	00 00		 lea	 rsp, QWORD PTR [rbp+200]
  00034	5f		 pop	 rdi
  00035	5d		 pop	 rbp
  00036	c3		 ret	 0
?__empty_global_delete@@YAXPEAX_K@Z ENDP		; __empty_global_delete
_TEXT	ENDS
; Function compile flags: /Odtp /RTCsu /ZI
; File c:\github\framework\client\private\wall.cpp
;	COMDAT ?__empty_global_delete@@YAXPEAX@Z
_TEXT	SEGMENT
__formal$ = 224
?__empty_global_delete@@YAXPEAX@Z PROC			; __empty_global_delete, COMDAT

$LN3:
  00000	48 89 4c 24 08	 mov	 QWORD PTR [rsp+8], rcx
  00005	55		 push	 rbp
  00006	57		 push	 rdi
  00007	48 81 ec c8 00
	00 00		 sub	 rsp, 200		; 000000c8H
  0000e	48 8b ec	 mov	 rbp, rsp
  00011	48 8b fc	 mov	 rdi, rsp
  00014	b9 32 00 00 00	 mov	 ecx, 50			; 00000032H
  00019	b8 cc cc cc cc	 mov	 eax, -858993460		; ccccccccH
  0001e	f3 ab		 rep stosd
  00020	48 8b 8c 24 e8
	00 00 00	 mov	 rcx, QWORD PTR [rsp+232]
  00028	48 8d a5 c8 00
	00 00		 lea	 rsp, QWORD PTR [rbp+200]
  0002f	5f		 pop	 rdi
  00030	5d		 pop	 rbp
  00031	c3		 ret	 0
?__empty_global_delete@@YAXPEAX@Z ENDP			; __empty_global_delete
_TEXT	ENDS
; Function compile flags: /Odtp /RTCsu /ZI
;	COMDAT ??_H@YAXPEAX_K1P6APEAX0@Z@Z
_TEXT	SEGMENT
tv66 = 192
tv67 = 200
__t$ = 240
__s$ = 248
__n$ = 256
__f$ = 264
??_H@YAXPEAX_K1P6APEAX0@Z@Z PROC			; `vector constructor iterator', COMDAT
$LN7:
  00000	4c 89 4c 24 20	 mov	 QWORD PTR [rsp+32], r9
  00005	4c 89 44 24 18	 mov	 QWORD PTR [rsp+24], r8
  0000a	48 89 54 24 10	 mov	 QWORD PTR [rsp+16], rdx
  0000f	48 89 4c 24 08	 mov	 QWORD PTR [rsp+8], rcx
  00014	55		 push	 rbp
  00015	57		 push	 rdi
  00016	48 81 ec f8 00
	00 00		 sub	 rsp, 248		; 000000f8H
  0001d	48 8d 6c 24 20	 lea	 rbp, QWORD PTR [rsp+32]
  00022	48 8b fc	 mov	 rdi, rsp
  00025	b9 3e 00 00 00	 mov	 ecx, 62			; 0000003eH
  0002a	b8 cc cc cc cc	 mov	 eax, -858993460		; ccccccccH
  0002f	f3 ab		 rep stosd
  00031	48 8b 8c 24 18
	01 00 00	 mov	 rcx, QWORD PTR [rsp+280]
$LN2@vector:
  00039	48 8b 85 00 01
	00 00		 mov	 rax, QWORD PTR __n$[rbp]
  00040	48 89 85 c0 00
	00 00		 mov	 QWORD PTR tv66[rbp], rax
  00047	48 8b 85 00 01
	00 00		 mov	 rax, QWORD PTR __n$[rbp]
  0004e	48 ff c8	 dec	 rax
  00051	48 89 85 00 01
	00 00		 mov	 QWORD PTR __n$[rbp], rax
  00058	48 83 bd c0 00
	00 00 00	 cmp	 QWORD PTR tv66[rbp], 0
  00060	76 0c		 jbe	 SHORT $LN5@vector
  00062	c7 85 c8 00 00
	00 01 00 00 00	 mov	 DWORD PTR tv67[rbp], 1
  0006c	eb 0a		 jmp	 SHORT $LN6@vector
$LN5@vector:
  0006e	c7 85 c8 00 00
	00 00 00 00 00	 mov	 DWORD PTR tv67[rbp], 0
$LN6@vector:
  00078	83 bd c8 00 00
	00 00		 cmp	 DWORD PTR tv67[rbp], 0
  0007f	74 2a		 je	 SHORT $LN3@vector
  00081	48 8b 8d f0 00
	00 00		 mov	 rcx, QWORD PTR __t$[rbp]
  00088	ff 95 08 01 00
	00		 call	 QWORD PTR __f$[rbp]
  0008e	48 8b 85 f8 00
	00 00		 mov	 rax, QWORD PTR __s$[rbp]
  00095	48 8b 8d f0 00
	00 00		 mov	 rcx, QWORD PTR __t$[rbp]
  0009c	48 03 c8	 add	 rcx, rax
  0009f	48 8b c1	 mov	 rax, rcx
  000a2	48 89 85 f0 00
	00 00		 mov	 QWORD PTR __t$[rbp], rax
  000a9	eb 8e		 jmp	 SHORT $LN2@vector
$LN3@vector:
  000ab	48 8d a5 d8 00
	00 00		 lea	 rsp, QWORD PTR [rbp+216]
  000b2	5f		 pop	 rdi
  000b3	5d		 pop	 rbp
  000b4	c3		 ret	 0
??_H@YAXPEAX_K1P6APEAX0@Z@Z ENDP			; `vector constructor iterator'
_TEXT	ENDS
END
